
/home/nicoladgg/wsFreedomStudio/SiFive_HiFive_RevB_Projects/src/debug/main.elf:     file format elf32-littleriscv
/home/nicoladgg/wsFreedomStudio/SiFive_HiFive_RevB_Projects/src/debug/main.elf
architecture: riscv:rv32, flags 0x00000112:
EXEC_P, HAS_SYMS, D_PAGED
start address 0x20010000

Program Header:
    LOAD off    0x00001000 vaddr 0x20010000 paddr 0x20010000 align 2**12
         filesz 0x000011ac memsz 0x000011ac flags rwx
    LOAD off    0x0000b000 vaddr 0x80000000 paddr 0x200190c8 align 2**12
         filesz 0x00000ac8 memsz 0x00000ac8 flags rw-
     TLS off    0x00000000 vaddr 0x00000000 paddr 0x00000000 align 2**2
         filesz 0x00000000 memsz 0x00000000 flags ---
    LOAD off    0x00000ac8 vaddr 0x80000ac8 paddr 0x80000ac8 align 2**12
         filesz 0x00000000 memsz 0x00000f18 flags rw-
    LOAD off    0x00000114 vaddr 0x00000000 paddr 0x00000000 align 2**12
         filesz 0x00000000 memsz 0x00000000 flags ---
    LOAD off    0x00002200 vaddr 0x20011200 paddr 0x20011200 align 2**12
         filesz 0x00007ec4 memsz 0x00007ec4 flags r-x
    LOAD off    0x00000114 vaddr 0x00000000 paddr 0x00000000 align 2**12
         filesz 0x00000000 memsz 0x00000000 flags ---

Sections:
Idx Name              Size      VMA       LMA       File off  Algn  Flags
  0 .init             000002dc  20010000  20010000  00001000  2**4  CONTENTS, ALLOC, LOAD, READONLY, CODE
  1 .init_array       0000000c  200102e0  200102e0  000012e0  2**3  CONTENTS, ALLOC, LOAD, DATA
  2 .ctors            0000007a  200102ec  200102ec  000012ec  2**1  CONTENTS, ALLOC, LOAD, READONLY, CODE
  3 .rodata           00000e44  20010368  20010368  00001368  2**3  CONTENTS, ALLOC, LOAD, READONLY, DATA
  4 .text             00007ec4  20011200  20011200  00002200  2**7  CONTENTS, ALLOC, LOAD, READONLY, CODE
  5 .data             00000ac8  80000000  200190c8  0000b000  2**3  CONTENTS, ALLOC, LOAD, DATA
  6 .bss              00000314  80000ac8  80000ac8  0000bac8  2**3  ALLOC
  7 .stack            00000400  80000de0  80000de0  0000bac8  2**4  ALLOC
  8 .heap             00000800  800011e0  800011e0  0000bac8  2**3  ALLOC
  9 .debug_info       00022122  00000000  00000000  0000bac8  2**0  CONTENTS, READONLY, DEBUGGING, OCTETS
 10 .debug_abbrev     00003684  00000000  00000000  0002dbea  2**0  CONTENTS, READONLY, DEBUGGING, OCTETS
 11 .debug_aranges    00000d10  00000000  00000000  00031270  2**3  CONTENTS, READONLY, DEBUGGING, OCTETS
 12 .debug_ranges     00001340  00000000  00000000  00031f80  2**3  CONTENTS, READONLY, DEBUGGING, OCTETS
 13 .debug_line       00010164  00000000  00000000  000332c0  2**0  CONTENTS, READONLY, DEBUGGING, OCTETS
 14 .debug_str        0000571d  00000000  00000000  00043424  2**0  CONTENTS, READONLY, DEBUGGING, OCTETS
 15 .comment          00000030  00000000  00000000  00048b41  2**0  CONTENTS, READONLY
 16 .riscv.attributes 0000002f  00000000  00000000  00048b71  2**0  CONTENTS, READONLY
 17 .debug_frame      00003218  00000000  00000000  00048ba0  2**2  CONTENTS, READONLY, DEBUGGING, OCTETS
 18 .debug_loc        0000495a  00000000  00000000  0004bdb8  2**0  CONTENTS, READONLY, DEBUGGING, OCTETS
SYMBOL TABLE:
20010000 l    d  .init	00000000 .init
200102e0 l    d  .init_array	00000000 .init_array
200102ec l    d  .ctors	00000000 .ctors
20010368 l    d  .rodata	00000000 .rodata
20011200 l    d  .text	00000000 .text
80000000 l    d  .data	00000000 .data
80000ac8 l    d  .bss	00000000 .bss
80000de0 l    d  .stack	00000000 .stack
800011e0 l    d  .heap	00000000 .heap
00000000 l    d  .debug_info	00000000 .debug_info
00000000 l    d  .debug_abbrev	00000000 .debug_abbrev
00000000 l    d  .debug_aranges	00000000 .debug_aranges
00000000 l    d  .debug_ranges	00000000 .debug_ranges
00000000 l    d  .debug_line	00000000 .debug_line
00000000 l    d  .debug_str	00000000 .debug_str
00000000 l    d  .comment	00000000 .comment
00000000 l    d  .riscv.attributes	00000000 .riscv.attributes
00000000 l    d  .debug_frame	00000000 .debug_frame
00000000 l    d  .debug_loc	00000000 .debug_loc
00000000 l    df *ABS*	00000000 scrub.o
200100c0 l     F .init	00000000 __metal_memory_scrub
2001012e l       .init	00000000 skip_scrub
00000000 l    df *ABS*	00000000 synchronize_harts.c
00000000 l    df *ABS*	00000000 crt0.o
20010240 l       .init	00000000 _skip_init
200105c4 l       .rodata	00000000 argv
200105c8 l       .rodata	00000000 envp
200105cc l       .rodata	00000000 name
00000000 l    df *ABS*	00000000 tty.c
00000000 l    df *ABS*	00000000 sifive_fe310-g000_pll.c
20017456 l     F .text	0000001a __metal_driver_sifive_fe310_g000_pll_pllsel0
20017470 l     F .text	0000001a __metal_driver_sifive_fe310_g000_pll_pllref
2001748a l     F .text	00000016 __metal_driver_sifive_fe310_g000_pll_divider_base
200174a0 l     F .text	00000014 __metal_driver_sifive_fe310_g000_pll_divider_offset
200174b4 l     F .text	00000012 __metal_driver_sifive_fe310_g000_pll_config_base
200174c6 l     F .text	00000010 __metal_driver_sifive_fe310_g000_pll_config_offset
200174d6 l     F .text	00000016 __metal_driver_sifive_fe310_g000_pll_init_rate
200174ec l     F .text	00000012 __metal_driver_sifive_fe310_g000_prci_base
200174fe l     F .text	00000016 __metal_driver_sifive_fe310_g000_prci_vtable
20010840 l     O .rodata	00000880 pll_configs
20017514 l     F .text	0000004e get_pll_config_freq
20017776 l     F .text	000000ac find_closest_config
20017822 l     F .text	000001a8 configure_pll
00000000 l    df *ABS*	00000000 main.c
00000000 l    df *ABS*	00000000 findfp.c
2001183a l     F .text	00000068 std
00000000 l    df *ABS*	00000000 nano-vfprintf.c
20011be6 l     F .text	00000028 __sfputc_r
00000000 l    df *ABS*	00000000 nano-vfprintf_i.c
00000000 l    df *ABS*	00000000 libgcc2.c
00000000 l    df *ABS*	00000000 divdf3.c
00000000 l    df *ABS*	00000000 muldf3.c
00000000 l    df *ABS*	00000000 riscv_clint0.c
20014884 l     F .text	00000026 __metal_driver_sifive_clint0_control_base
200148aa l     F .text	00000024 __metal_driver_sifive_clint0_num_interrupts
200148ce l     F .text	0000003c __metal_driver_sifive_clint0_interrupt_parents
2001490a l     F .text	00000030 __metal_driver_sifive_clint0_interrupt_lines
20014a6a l     F .text	00000036 _get_cpu_intc
00000000 l    df *ABS*	00000000 riscv_cpu.c
20014faa l     F .text	00000024 __metal_driver_cpu_hartid
20014fce l     F .text	0000002a __metal_driver_cpu_timebase
20014ff8 l     F .text	0000002a __metal_driver_cpu_interrupt_controller
20015022 l     F .text	00000024 __metal_driver_cpu_buserror
00000000 l    df *ABS*	00000000 riscv_plic0.c
200169a4 l     F .text	0000002a __metal_driver_sifive_plic0_control_base
200169ce l     F .text	0000002a __metal_driver_sifive_plic0_num_interrupts
200169f8 l     F .text	00000028 __metal_driver_sifive_plic0_max_priority
20016a20 l     F .text	00000028 __metal_driver_sifive_plic0_interrupt_parents
20016a48 l     F .text	00000022 __metal_driver_sifive_plic0_interrupt_lines
20016a6a l     F .text	0000001e __metal_driver_sifive_plic0_context_ids
00000000 l    df *ABS*	00000000 sifive_gpio0.c
20017ba8 l     F .text	00000026 __metal_driver_sifive_gpio0_base
20017bce l     F .text	0000002a __metal_driver_sifive_gpio0_interrupt_parent
20017bf8 l     F .text	0000035e __metal_driver_sifive_gpio0_interrupt_lines
00000000 l    df *ABS*	00000000 sifive_uart0.c
20018606 l     F .text	00000040 __metal_driver_sifive_uart0_control_base
20018646 l     F .text	00000048 __metal_driver_sifive_uart0_interrupt_parent
2001868e l     F .text	0000003c __metal_driver_sifive_uart0_interrupt_line
200186ca l     F .text	00000048 __metal_driver_sifive_uart0_clock
20018712 l     F .text	00000040 __metal_driver_sifive_uart0_pinmux
20018752 l     F .text	0000003c __metal_driver_sifive_uart0_pinmux_output_selector
2001878e l     F .text	00000040 __metal_driver_sifive_uart0_pinmux_source_selector
20018b6e l     F .text	000000da pre_rate_change_callback_func
20018c48 l     F .text	00000030 post_rate_change_callback_func
00000000 l    df *ABS*	00000000 impure.c
80000000 l     O .data	00000060 impure_data
00000000 l    df *ABS*	00000000 sifive_fe310-g000_hfrosc.c
20017266 l     F .text	0000001a __metal_driver_sifive_fe310_g000_hfrosc_ref
20017280 l     F .text	00000016 __metal_driver_sifive_fe310_g000_hfrosc_config_base
20017296 l     F .text	00000014 __metal_driver_sifive_fe310_g000_hfrosc_config_offset
200172aa l     F .text	00000016 __metal_driver_sifive_fe310_g000_prci_vtable
00000000 l    df *ABS*	00000000 sifive_fe310-g000_hfxosc.c
20017366 l     F .text	0000001a __metal_driver_sifive_fe310_g000_hfxosc_ref
20017380 l     F .text	00000016 __metal_driver_sifive_fe310_g000_hfxosc_config_base
20017396 l     F .text	00000014 __metal_driver_sifive_fe310_g000_hfxosc_config_offset
200173aa l     F .text	00000016 __metal_driver_sifive_fe310_g000_prci_vtable
00000000 l    df *ABS*	00000000 sifive_fe310-g000_prci.c
20017b30 l     F .text	00000012 __metal_driver_sifive_fe310_g000_prci_base
00000000 l    df *ABS*	00000000 fixed-clock.c
20019000 l     F .text	00000070 __metal_driver_fixed_clock_rate
00000000 l    df *ABS*	00000000 printf.c
00000000 l    df *ABS*	00000000 fwalk.c
00000000 l    df *ABS*	00000000 nano-mallocr.c
00000000 l    df *ABS*	00000000 sbrkr.c
00000000 l    df *ABS*	00000000 stdio.c
00000000 l    df *ABS*	00000000 wbuf.c
00000000 l    df *ABS*	00000000 writer.c
00000000 l    df *ABS*	00000000 wsetup.c
00000000 l    df *ABS*	00000000 closer.c
00000000 l    df *ABS*	00000000 fflush.c
00000000 l    df *ABS*	00000000 lseekr.c
00000000 l    df *ABS*	00000000 makebuf.c
00000000 l    df *ABS*	00000000 memchr.c
00000000 l    df *ABS*	00000000 mlock.c
00000000 l    df *ABS*	00000000 nano-mallocr.c
00000000 l    df *ABS*	00000000 readr.c
00000000 l    df *ABS*	00000000 fstatr.c
00000000 l    df *ABS*	00000000 isattyr.c
00000000 l    df *ABS*	00000000 subdf3.c
00000000 l    df *ABS*	00000000 fixunsdfsi.c
00000000 l    df *ABS*	00000000 floatunsidf.c
00000000 l    df *ABS*	00000000 libgcc2.c
00000000 l    df *ABS*	00000000 w_sqrt.c
00000000 l    df *ABS*	00000000 e_sqrt.c
00000000 l    df *ABS*	00000000 sys_close.c
00000000 l    df *ABS*	00000000 sys_fstat.c
00000000 l    df *ABS*	00000000 sys_isatty.c
00000000 l    df *ABS*	00000000 sys_lseek.c
00000000 l    df *ABS*	00000000 sys_read.c
00000000 l    df *ABS*	00000000 sys_sbrk.c
80000aa8 l     O .data	00000004 __brk
00000000 l    df *ABS*	00000000 sys_write.c
00000000 l    df *ABS*	00000000 atexit.c
00000000 l    df *ABS*	00000000 errno.c
00000000 l    df *ABS*	00000000 exit.c
00000000 l    df *ABS*	00000000 fini.c
00000000 l    df *ABS*	00000000 init.c
00000000 l    df *ABS*	00000000 __atexit.c
80000ae0 l     O .bss	0000008c _global_atexit0
00000000 l    df *ABS*	00000000 __call_atexit.c
00000000 l    df *ABS*	00000000 adddf3.c
00000000 l    df *ABS*	00000000 ledf2.c
00000000 l    df *ABS*	00000000 unorddf2.c
00000000 l    df *ABS*	00000000 init.c
80000ad8 l     O .bss	00000004 init_done.1
80000adc l     O .bss	00000004 fini_done.0
00000000 l    df *ABS*	00000000 uart.c
00000000 l    df *ABS*	00000000 clock.c
00000000 l    df *ABS*	00000000 cpu.c
00000000 l    df *ABS*	00000000 shutdown.c
00000000 l    df *ABS*	00000000 vector.o
20018f80 l       .text	00000000 IRQ_0
20018f84 l       .text	00000000 IRQ_1
20018f88 l       .text	00000000 IRQ_2
20018f8c l       .text	00000000 IRQ_3
20018f90 l       .text	00000000 IRQ_4
20018f94 l       .text	00000000 IRQ_5
20018f98 l       .text	00000000 IRQ_6
20018f9c l       .text	00000000 IRQ_7
20018fa0 l       .text	00000000 IRQ_8
20018fa4 l       .text	00000000 IRQ_9
20018fa8 l       .text	00000000 IRQ_10
20018fac l       .text	00000000 IRQ_11
20018fb0 l       .text	00000000 IRQ_12
20018fb4 l       .text	00000000 IRQ_13
20018fb8 l       .text	00000000 IRQ_14
20018fbc l       .text	00000000 IRQ_15
20018fc0 l       .text	00000000 IRQ_LC0
20018fc4 l       .text	00000000 IRQ_LC1
20018fc8 l       .text	00000000 IRQ_LC2
20018fcc l       .text	00000000 IRQ_LC3
20018fd0 l       .text	00000000 IRQ_LC4
20018fd4 l       .text	00000000 IRQ_LC5
20018fd8 l       .text	00000000 IRQ_LC6
20018fdc l       .text	00000000 IRQ_LC7
20018fe0 l       .text	00000000 IRQ_LC8
20018fe4 l       .text	00000000 IRQ_LC9
20018fe8 l       .text	00000000 IRQ_LC10
20018fec l       .text	00000000 IRQ_LC11
20018ff0 l       .text	00000000 IRQ_LC12
20018ff4 l       .text	00000000 IRQ_LC13
20018ff8 l       .text	00000000 IRQ_LC14
20018ffc l       .text	00000000 IRQ_LC15
00000000 l    df *ABS*	00000000 sys_exit.c
00000000 l    df *ABS*	00000000 inline.c
00000000 l    df *ABS*	00000000 
200102ec l       .init_array	00000000 metal_constructors_end
200102f0 l       .init_array	00000000 __fini_array_end
200102f0 l       .init_array	00000000 metal_destructors_end
200102f0 l       .init_array	00000000 metal_destructors_start
200102f0 l       .init_array	00000000 __fini_array_start
200102e0 l       .init_array	00000000 __init_array_end
200102e0 l       .init_array	00000000 __preinit_array_end
200102e0 l       .init_array	00000000 __init_array_start
200102e0 l       .init_array	00000000 metal_constructors_start
200102e0 l       .init_array	00000000 __preinit_array_start
20011148 g     O .rodata	00000040 __metal_driver_vtable_sifive_uart0
2001297e g     F .text	00000030 _isatty_r
200158bc  w    F .text	00000092 metal_lc4_interrupt_vector_handler
200123b0 g     F .text	00000034 _lseek_r
200130b0 g     F .text	0000005e sqrt
20018de0 g     F .text	00000026 metal_clock_get_rate_hz
20018ace g     F .text	000000a0 __metal_driver_sifive_uart0_set_baud_rate
20014c46 g     F .text	00000058 __metal_driver_riscv_clint0_set_vector_mode
20018922 g     F .text	0000004a __metal_driver_sifive_uart0_set_tx_watermark
2001582a  w    F .text	00000092 metal_lc3_interrupt_vector_handler
2001609e g     F .text	00000058 __metal_valid_interrupt_id
80000b6c g     O .bss	00000270 irq_functions
200117fe g     F .text	0000003c printf
200102e8 g     O .init_array	00000004 _use_hfxosc_ptr
2001651c g     F .text	0000001c __metal_driver_riscv_cpu_controller_get_vector_mode
800012a0 g       .data	00000000 __global_pointer$
200102ec g     F .ctors	00000024 metal_tty_init
20018d8c g     F .text	00000054 _metal_clock_append_to_callbacks
20016ac4 g     F .text	00000046 __metal_plic0_complete_interrupt
200162e2 g     F .text	000001e2 __metal_driver_riscv_cpu_controller_interrupt_register
200102e4 g     O .init_array	00000004 _metal_sifive_fe310_g000_pll_init_ptr
20011f96 g     F .text	00000036 __sseek
200118f0 g     F .text	0000006a __sinit
20011fd2 g     F .text	000000c2 __swbuf_r
80000ac8 g       .data	00000000 __tls_base
200118ac g     F .text	00000044 __sfmoreglue
200124f8 g     F .text	00000002 __malloc_unlock
20018edc g     F .text	0000002a metal_cpu_get
80000a38 g     O .data	00000020 __metal_dt_serial_10013000
200181e0 g     F .text	0000004a __metal_driver_sifive_gpio0_disable_io
20010650 g     O .rodata	00000064 __metal_driver_vtable_riscv_clint0
80000ddc g       .bss	00000000 metal_segment_bss_target_end
2001493a g     F .text	0000009a __metal_clint0_mtime_get
20016918 g     F .text	0000002e __metal_driver_cpu_get_instruction_length
00000001 g       *ABS*	00000000 __metal_chicken_bit
200189e6 g     F .text	00000030 __metal_driver_sifive_uart0_get_rx_watermark
20017f96 g     F .text	00000046 __metal_driver_sifive_gpio0_disable_input
20013446 g     F .text	0000000a __errno
08000000 g       .rodata	00000000 metal_segment_itim_target_start
200188f2 g     F .text	00000030 __metal_driver_sifive_uart0_txready
20018880 g     F .text	0000003a __metal_driver_sifive_uart0_rx_interrupt_enable
20010142 g     F .init	0000000e __metal_synchronize_harts
80000ac8 g       .data	00000000 metal_segment_bss_target_start
200149d4 g     F .text	00000096 __metal_driver_riscv_clint0_mtimecmp_set
2001294c g     F .text	00000032 _fstat_r
20018430 g     F .text	00000188 __metal_driver_sifive_gpio0_clear_int
80000ad0 g     O .bss	00000004 errno
20017606 g     F .text	00000170 __metal_driver_sifive_fe310_g000_pll_get_rate_hz
00000400 g       *ABS*	00000000 __stack_size
20018e52 g     F .text	00000032 metal_clock_register_pre_rate_change_callback
20015b96  w    F .text	00000092 metal_lc9_interrupt_vector_handler
200100cc  w    F .init	00000000 __metal_before_start
200147ae  w    F .text	00000014 metal_init_run
80000a58 g     O .data	00000020 __metal_dt_serial_10023000
200107dc g     O .rodata	00000064 __metal_driver_vtable_riscv_plic0
20010798 g     O .rodata	00000044 __metal_driver_vtable_cpu
20014856 g     F .text	0000002e metal_uart_set_baud_rate
20018c78 g     F .text	000000d2 __metal_driver_sifive_uart0_init
00000000 g       *ABS*	00000000 __metal_eccscrub_bit
200165a8 g     F .text	00000070 __metal_driver_cpu_mcycle_get
200110c0 g     O .rodata	0000000c __metal_driver_vtable_sifive_fe310_g000_pll
800011e0 g       .heap	00000000 metal_segment_heap_target_start
200118a2 g     F .text	0000000a _cleanup_r
80000ab8 g     O .data	00000008 __metal_dt_cpu_0
20015b04  w    F .text	00000092 metal_lc8_interrupt_vector_handler
2001419c g     F .text	000000a6 .hidden __ltdf2
200179ca g     F .text	00000166 __metal_driver_sifive_fe310_g000_pll_set_rate_hz
200171ca g     F .text	00000074 __metal_driver_riscv_plic0_affinity_set_threshold
20015dde  w    F .text	00000092 metal_lc13_interrupt_vector_handler
200151b0 g     F .text	00000018 __metal_default_exception_handler
200132b4 g     F .text	00000026 _fstat
20014f76 g     F .text	00000034 __metal_driver_riscv_clint0_set_interrupt
20016538 g     F .text	00000054 __metal_driver_riscv_cpu_controller_set_vector_mode
20012fc6 g     F .text	00000060 .hidden __fixunsdfsi
20015046 g     F .text	0000002c __metal_driver_cpu_get
20010734 g     O .rodata	00000064 __metal_driver_vtable_riscv_cpu_intc
200150a4 g     F .text	00000018 __metal_interrupt_global_disable
2001723e g     F .text	00000028 __metal_driver_riscv_plic0_affinity_get_threshold
20015a72  w    F .text	00000092 metal_lc7_interrupt_vector_handler
20015c28  w    F .text	00000092 metal_lc10_interrupt_vector_handler
20011ee6 g     F .text	00000030 _sbrk_r
20016fea g     F .text	00000050 __metal_driver_riscv_plic0_disable
200161b2 g     F .text	0000004e __metal_exception_register
200146be g     F .text	00000078 metal_init
20012918 g     F .text	00000034 _read_r
2001673a g     F .text	00000016 __metal_driver_cpu_timer_controller_interrupt
20018078 g     F .text	00000040 __metal_driver_sifive_gpio0_enable_output
80000000 g       .rodata	00000000 metal_segment_lim_target_end
20011380 g     F .text	00000096 interrupt_service_routine
2001529c g     F .text	00000064 __metal_default_sw_handler
20013652 g     F .text	0000060a .hidden __adddf3
20018e84 g     F .text	00000032 metal_clock_register_post_rate_change_callback
8000006c g     O .data	0000000c __metal_dt_clock_2
200187ce g     F .text	00000020 __metal_driver_sifive_uart0_interrupt_controller
200132da g     F .text	00000020 _isatty
2001813e g     F .text	00000040 __metal_driver_sifive_gpio0_output_toggle
2001880e g     F .text	0000003a __metal_driver_sifive_uart0_tx_interrupt_enable
200111a4 g     O .rodata	00000008 __metal_driver_vtable_fixed_clock
20011188 g     O .rodata	00000004 _global_impure_ptr
20015300  w    F .text	0000008e metal_timer_interrupt_vector_handler
200134b0 g     F .text	0000005e __libc_init_array
200180b8 g     F .text	00000040 __metal_driver_sifive_gpio0_output_set
20015cba  w    F .text	00000092 metal_lc11_interrupt_vector_handler
20017434 g     F .text	00000022 __metal_driver_sifive_fe310_g000_hfxosc_set_rate_hz
20013026 g     F .text	0000004e .hidden __floatunsidf
200164c4 g     F .text	0000002c __metal_driver_riscv_cpu_controller_interrupt_enable
2001334e g     F .text	0000007e _sbrk
20018032 g     F .text	00000046 __metal_driver_sifive_gpio0_disable_output
20018d4a g     F .text	00000042 _metal_clock_call_all_callbacks
200102ba g     F .init	00000002 _init
20015106 g     F .text	0000001a __metal_interrupt_timer_disable
2001822a g     F .text	00000206 __metal_driver_sifive_gpio0_config_int
200167f0 g     F .text	00000062 __metal_driver_cpu_clear_sw_ipi
80000aa0 g     O .data	00000004 cpu_freq
2001110c g     O .rodata	0000003c __metal_driver_vtable_sifive_gpio0
20018848 g     F .text	00000038 __metal_driver_sifive_uart0_tx_interrupt_disable
2001817e g     F .text	00000062 __metal_driver_sifive_gpio0_enable_io
2001347a g     F .text	00000036 __libc_fini_array
80000a90 g     O .data	0000000c __metal_dt_clock_4
200185b8 g     F .text	00000020 __metal_driver_gpio_interrupt_controller
20014736 g     F .text	00000078 metal_fini
2001677a g     F .text	00000014 __metal_driver_cpu_get_sw_interrupt_id
20016984 g     F .text	00000020 __metal_driver_cpu_get_buserror
80000000 g       .data	00000000 metal_segment_data_target_start
20015158 g     F .text	0000002c __metal_interrupt_local_enable
20014f42 g     F .text	00000034 __metal_driver_riscv_clint0_clear_interrupt
200147d6 g     F .text	00000026 metal_tty_putc
20016cc2 g     F .text	00000018 __metal_plic0_default_handler
200133cc  w    F .text	00000070 write
2001143c g     F .text	0000011a gpio_init_input
00000000 g       *ABS*	00000000 __tbss_size
80000060 g     O .data	0000000c __metal_dt_clock_0
2001419c g     F .text	000000a6 .hidden __ledf2
00000800 g       *ABS*	00000000 __heap_size
2001703a g     F .text	00000030 __metal_driver_riscv_plic0_set_threshold
2001538e g     F .text	00000016 __metal_default_beu_handler
200103d0 g     O .rodata	00000020 __sf_fake_stderr
2001513c g     F .text	0000001c __metal_interrupt_external_disable
200187ee g     F .text	00000020 __metal_driver_sifive_uart0_get_interrupt_id
2001658c g     F .text	0000001c __metal_driver_riscv_cpu_controller_command_request
20016200 g     F .text	000000e2 __metal_driver_riscv_cpu_controller_interrupt_init
20013074 g     F .text	0000003c .hidden __clzsi2
20011c0e g     F .text	00000042 __sfputs_r
200168d2 g     F .text	00000046 __metal_driver_cpu_exception_register
200150bc g     F .text	00000018 __metal_interrupt_software_enable
20015706  w    F .text	00000092 metal_lc1_interrupt_vector_handler
200124dc g     F .text	0000001a memchr
200124fa g     F .text	000000a2 _free_r
80000ad4 g     O .bss	00000004 _global_atexit
20016b8a g     F .text	00000062 __metal_driver_riscv_plic0_set_priority
20015f94 g     F .text	00000058 __metal_controller_interrupt_vector_mode
2001358a g     F .text	000000c8 __call_exitprocs
800011e0 g       .stack	00000000 _sp
200102e0 g     O .init_array	00000004 _metal_tty_init_ptr
20010150 g     F .init	00000000 _start
200172c0 g     F .text	00000084 __metal_driver_sifive_fe310_g000_hfrosc_get_rate_hz
200132fa g     F .text	0000002a _lseek
200168b2 g     F .text	00000020 __metal_driver_cpu_controller_interrupt
20016946 g     F .text	0000001e __metal_driver_cpu_get_exception_pc
20011200 g     F .text	00000054 plic_interrupt_enable
20015120 g     F .text	0000001c __metal_interrupt_external_enable
2001350e g     F .text	0000007c __register_exitproc
20018a16 g     F .text	00000042 __metal_driver_sifive_uart0_putc
20016d80 g     F .text	00000158 __metal_driver_riscv_plic0_init
20016f9a g     F .text	00000050 __metal_driver_riscv_plic0_enable
20018006 g     F .text	0000002c __metal_driver_sifive_gpio0_output
200159e0  w    F .text	00000092 metal_lc6_interrupt_vector_handler
20015072 g     F .text	0000001a __metal_myhart_id
200185d8 g     F .text	0000002e __metal_driver_gpio_get_interrupt_id
2001520e  w    F .text	0000008e metal_software_interrupt_vector_handler
200164f0 g     F .text	0000002c __metal_driver_riscv_cpu_controller_interrupt_disable
200121d4 g     F .text	00000030 _close_r
20018aae g     F .text	00000020 __metal_driver_sifive_uart0_get_baud_rate
200117c6 g     F .text	00000038 handler
20014b28 g     F .text	000000da __metal_driver_riscv_clint0_register
80000ab0 g     O .data	00000008 __metal_dt_clint_2000000
200120c8 g     F .text	0000010c __swsetup_r
20013c5c g     F .text	00000540 .hidden __divdf3
2001195a g     F .text	0000009c __sfp
20018e06 g     F .text	0000004c metal_clock_set_rate_hz
20014242 g     F .text	00000442 .hidden __muldf3
20011f16 g     F .text	00000032 __sread
20017f56 g     F .text	00000040 __metal_driver_sifive_gpio0_enable_input
200102bc  w    F .init	00000000 secondary_main
200151e0  w    F .text	0000002e metal_interrupt_vector_handler
200124f6 g     F .text	00000002 __malloc_lock
200188ba g     F .text	00000038 __metal_driver_sifive_uart0_rx_interrupt_disable
20011730 g     F .text	00000048 set_freq_320MHz
2001234a g     F .text	00000066 _fflush_r
20016b50 g     F .text	0000003a __metal_plic0_get_threshold
20017b42 g     F .text	0000002e __metal_driver_sifive_fe310_g000_prci_get_reg
200103f0 g     O .rodata	00000020 __sf_fake_stdin
200160f6 g     F .text	000000bc __metal_local_interrupt_enable
20014e02 g     F .text	00000140 __metal_driver_riscv_clint0_command_request
20011a60 g     F .text	000000a8 memset
2001594e  w    F .text	00000092 metal_lc5_interrupt_vector_handler
20011778 g     F .text	0000004e main
80000ac8 g       .data	00000000 metal_segment_data_target_end
2001899c g     F .text	0000004a __metal_driver_sifive_uart0_set_rx_watermark
2001118c g     O .rodata	00000008 __metal_driver_vtable_sifive_fe310_g000_hfrosc
2001678e g     F .text	00000062 __metal_driver_cpu_set_sw_ipi
20016852 g     F .text	00000060 __metal_driver_cpu_get_msip
20018f20 g     F .text	0000000e metal_shutdown
08000000 g       .rodata	00000000 metal_segment_itim_target_end
20016964 g     F .text	00000020 __metal_driver_cpu_set_exception_pc
20016a88 g     F .text	0000003c __metal_plic0_claim_interrupt
2001896c g     F .text	00000030 __metal_driver_sifive_uart0_get_tx_watermark
20011fcc g     F .text	00000006 __sclose
20015d4c  w    F .text	00000092 metal_lc12_interrupt_vector_handler
2001008a g     F .init	00000000 metal_mem_scrub
20011b08 g     F .text	000000de _malloc_r
20014c2a g     F .text	0000001c __metal_driver_riscv_clint0_get_vector_mode
20011556 g     F .text	000001da gpio_interrupt_enable
80000ac4 g     O .data	00000004 __metal_dt_prci_10008000
20016618 g     F .text	00000046 __metal_driver_cpu_timebase_get
2001712e g     F .text	0000009c __metal_driver_riscv_plic0_affinity_disable
20010000 g       .init	00000000 _enter
20018f06 g     F .text	0000001a metal_cpu_get_current_hartid
200173c0 g     F .text	00000074 __metal_driver_sifive_fe310_g000_hfxosc_get_rate_hz
20018f80 g       .text	00000000 __metal_vector_table
200111b0 g       *ABS*	00000000 metal_segment_itim_source_start
80000aac  w    O .data	00000004 __metal_cpu_table
80000090 g     O .data	000003d0 __metal_dt_cpu_0_interrupt_controller
200102ba g     F .init	00000002 _fini
200117fe g     F .text	0000003c iprintf
80000000 g       .rodata	00000000 metal_segment_lim_target_start
200104c4 g     O .rodata	00000100 .hidden __clz_tab
20016bec g     F .text	00000034 __metal_driver_riscv_plic0_get_priority
2001033c g     F .ctors	0000002a use_hfxosc
2001508c g     F .text	00000018 __metal_interrupt_global_enable
2001343c g     F .text	0000000a atexit
20012094 g     F .text	00000034 _write_r
200150ec g     F .text	0000001a __metal_interrupt_timer_enable
20018a58 g     F .text	00000056 __metal_driver_sifive_uart0_getc
20014d50 g     F .text	000000b2 __metal_driver_riscv_clint0_disable
2001259c g     F .text	0000010c _printf_common
80000aa4 g     O .data	00000004 _impure_ptr
200166c4 g     F .text	00000076 __metal_driver_cpu_mtimecmp_set
20012204 g     F .text	00000146 __sflush_r
2001706a g     F .text	00000028 __metal_driver_riscv_plic0_get_threshold
20017562 g     F .text	000000a4 __metal_driver_sifive_fe310_g000_pll_init
80000078 g     O .data	0000000c __metal_dt_clock_5
20017b70 g     F .text	00000038 __metal_driver_sifive_fe310_g000_prci_set_reg
20019070 g     F .text	0000001e __metal_driver_fixed_clock_get_rate_hz
20014c9e g     F .text	000000b2 __metal_driver_riscv_clint0_enable
20010368 g     O .rodata	00000050 variant_pin_map
200190c8 g       *ABS*	00000000 metal_segment_data_source_start
20010134 g       .init	00000000 early_trap_vector
800019e0 g       .heap	00000000 metal_segment_heap_target_end
20015fec g     F .text	000000b2 __metal_controller_interrupt_vector
80000a84 g     O .data	0000000c __metal_dt_clock_1
80000460 g     O .data	000005d8 __metal_dt_interrupt_controller_c000000
2001310e g     F .text	00000184 __ieee754_sqrt
200123e4 g     F .text	0000005a __swhatbuf_r
200180f8 g     F .text	00000046 __metal_driver_sifive_gpio0_output_clear
200153a4 g     F .text	00000066 __metal_default_timer_handler
200133cc g     F .text	00000070 _write
20016cda g     F .text	000000a6 __metal_plic0_handler
20015798  w    F .text	00000092 metal_lc2_interrupt_vector_handler
20015f02  w    F .text	00000092 metal_lc15_interrupt_vector_handler
20018eb6 g     F .text	00000026 metal_cpu_interrupt_controller
20011254 g     F .text	0000009a plic_interrupt_handler
20011f48 g     F .text	0000004e __swrite
20013450 g     F .text	0000002a exit
20011c50 g     F .text	00000296 _vfiprintf_r
200119f6 g     F .text	0000006a _fwalk_reent
2001908e g     F .text	00000022 __metal_driver_fixed_clock_set_rate_hz
200111b0 g       *ABS*	00000000 metal_segment_lim_source_start
20010410 g     O .rodata	00000020 __sf_fake_stdout
80000ac0 g     O .data	00000004 __metal_dt_gpio_10012000
200151c8 g     F .text	00000018 __metal_default_interrupt_handler
20014828 g     F .text	0000002e metal_uart_putc
20013324 g     F .text	0000002a _read
20014684 g     F .text	0000003a .hidden __unorddf2
200147c2  w    F .text	00000014 metal_fini_run
20017fdc g     F .text	0000002a __metal_driver_sifive_gpio0_input
20015480 g     F .text	0000017a __metal_exception_handler
20015674  w    F .text	00000092 metal_lc0_interrupt_vector_handler
200190b0 g     F .text	00000014 _exit
2001665e g     F .text	00000066 __metal_driver_cpu_mtime_get
2001243e g     F .text	0000009e __smakebuf_r
20014c02 g     F .text	00000028 __metal_driver_riscv_clint0_vector_register
200112ee g     F .text	00000056 interrupt_enable
200126a8 g     F .text	00000270 _printf_i
80000acc g     O .bss	00000004 __malloc_sbrk_start
20015e70  w    F .text	00000092 metal_lc14_interrupt_vector_handler
20011194 g     O .rodata	00000008 __metal_driver_vtable_sifive_fe310_g000_hfxosc
20014aa0 g     F .text	00000088 __metal_driver_riscv_clint0_init
80000ac8 g     O .bss	00000004 __malloc_free_list
20010310 g     F .ctors	0000002c metal_sifive_fe310_g000_pll_init
200129ae g     F .text	00000618 .hidden __subdf3
20011c50 g     F .text	00000296 _vfprintf_r
20016750 g     F .text	00000014 __metal_driver_cpu_get_timer_interrupt_id
20016c20 g     F .text	000000a2 __metal_plic0_enable
20010088  w      .init	00000000 __register_frame_info
20017344 g     F .text	00000022 __metal_driver_sifive_fe310_g000_hfrosc_set_rate_hz
20016764 g     F .text	00000016 __metal_driver_cpu_sw_controller_interrupt
20015184 g     F .text	0000002c __metal_interrupt_local_disable
200150d4 g     F .text	00000018 __metal_interrupt_software_disable
200147fc g     F .text	0000002c metal_uart_init
80000a78 g     O .data	0000000c __metal_dt_clock_3
80000084 g     O .data	0000000c __metal_dt_clock_6
20016b0a g     F .text	00000046 __metal_plic0_set_threshold
20017092 g     F .text	0000009c __metal_driver_riscv_plic0_affinity_enable
20013292 g     F .text	00000022 _close
2001119c g     O .rodata	00000008 __metal_driver_vtable_sifive_fe310_g000_prci
00000000 g       *ABS*	00000000 __metal_boot_hart
20016ed8 g     F .text	000000c2 __metal_driver_riscv_plic0_register



Disassembly of section .init:

20010000 <_enter>:
_enter():
/home/nicoladgg/wsFreedomStudio/sifive_hifive1_revb_hello/freedom-metal/src/entry.S:24
20010000:	5fff1197          	auipc	gp,0x5fff1
20010004:	2a018193          	addi	gp,gp,672 # 800012a0 <__global_pointer$>
/home/nicoladgg/wsFreedomStudio/sifive_hifive1_revb_hello/freedom-metal/src/entry.S:28
20010008:	00000297          	auipc	t0,0x0
2001000c:	01828293          	addi	t0,t0,24 # 20010020 <_enter+0x20>
/home/nicoladgg/wsFreedomStudio/sifive_hifive1_revb_hello/freedom-metal/src/entry.S:29
20010010:	30529073          	csrw	mtvec,t0
/home/nicoladgg/wsFreedomStudio/sifive_hifive1_revb_hello/freedom-metal/src/entry.S:31
20010014:	00100293          	li	t0,1
/home/nicoladgg/wsFreedomStudio/sifive_hifive1_revb_hello/freedom-metal/src/entry.S:32
20010018:	00028463          	beqz	t0,20010020 <_enter+0x20>
/home/nicoladgg/wsFreedomStudio/sifive_hifive1_revb_hello/freedom-metal/src/entry.S:34
2001001c:	7c105073          	csrwi	0x7c1,0
/home/nicoladgg/wsFreedomStudio/sifive_hifive1_revb_hello/freedom-metal/src/entry.S:39
20010020:	00000297          	auipc	t0,0x0
20010024:	11428293          	addi	t0,t0,276 # 20010134 <early_trap_vector>
/home/nicoladgg/wsFreedomStudio/sifive_hifive1_revb_hello/freedom-metal/src/entry.S:40
20010028:	30529073          	csrw	mtvec,t0
/home/nicoladgg/wsFreedomStudio/sifive_hifive1_revb_hello/freedom-metal/src/entry.S:48
2001002c:	00000113          	li	sp,0
/home/nicoladgg/wsFreedomStudio/sifive_hifive1_revb_hello/freedom-metal/src/entry.S:55
20010030:	00011463          	bnez	sp,20010038 <_enter+0x38>
/home/nicoladgg/wsFreedomStudio/sifive_hifive1_revb_hello/freedom-metal/src/entry.S:56
20010034:	f4018113          	addi	sp,gp,-192 # 800011e0 <_sp>
/home/nicoladgg/wsFreedomStudio/sifive_hifive1_revb_hello/freedom-metal/src/entry.S:59
20010038:	f1402573          	csrr	a0,mhartid
/home/nicoladgg/wsFreedomStudio/sifive_hifive1_revb_hello/freedom-metal/src/entry.S:60
2001003c:	4281                	li	t0,0
/home/nicoladgg/wsFreedomStudio/sifive_hifive1_revb_hello/freedom-metal/src/entry.S:61
2001003e:	40000313          	li	t1,1024
/home/nicoladgg/wsFreedomStudio/sifive_hifive1_revb_hello/freedom-metal/src/entry.S:63
20010042:	ff017113          	andi	sp,sp,-16
/home/nicoladgg/wsFreedomStudio/sifive_hifive1_revb_hello/freedom-metal/src/entry.S:64
20010046:	00a28563          	beq	t0,a0,20010050 <_enter+0x50>
/home/nicoladgg/wsFreedomStudio/sifive_hifive1_revb_hello/freedom-metal/src/entry.S:65
2001004a:	911a                	add	sp,sp,t1
/home/nicoladgg/wsFreedomStudio/sifive_hifive1_revb_hello/freedom-metal/src/entry.S:66
2001004c:	0285                	addi	t0,t0,1
/home/nicoladgg/wsFreedomStudio/sifive_hifive1_revb_hello/freedom-metal/src/entry.S:67
2001004e:	bfd5                	j	20010042 <_enter+0x42>
/home/nicoladgg/wsFreedomStudio/sifive_hifive1_revb_hello/freedom-metal/src/entry.S:76
20010050:	00000097          	auipc	ra,0x0
20010054:	07c08093          	addi	ra,ra,124 # 200100cc <__metal_before_start>
/home/nicoladgg/wsFreedomStudio/sifive_hifive1_revb_hello/freedom-metal/src/entry.S:77
20010058:	00008363          	beqz	ra,2001005e <_enter+0x5e>
/home/nicoladgg/wsFreedomStudio/sifive_hifive1_revb_hello/freedom-metal/src/entry.S:78
2001005c:	9082                	jalr	ra
/home/nicoladgg/wsFreedomStudio/sifive_hifive1_revb_hello/freedom-metal/src/entry.S:84
2001005e:	f1402573          	csrr	a0,mhartid
/home/nicoladgg/wsFreedomStudio/sifive_hifive1_revb_hello/freedom-metal/src/entry.S:85
20010062:	4581                	li	a1,0
/home/nicoladgg/wsFreedomStudio/sifive_hifive1_revb_hello/freedom-metal/src/entry.S:86
20010064:	4601                	li	a2,0
/home/nicoladgg/wsFreedomStudio/sifive_hifive1_revb_hello/freedom-metal/src/entry.S:87
20010066:	20ed                	jal	20010150 <_start>
/home/nicoladgg/wsFreedomStudio/sifive_hifive1_revb_hello/freedom-metal/src/entry.S:92
20010068:	00000093          	li	ra,0
/home/nicoladgg/wsFreedomStudio/sifive_hifive1_revb_hello/freedom-metal/src/entry.S:93
2001006c:	00008363          	beqz	ra,20010072 <_enter+0x72>
/home/nicoladgg/wsFreedomStudio/sifive_hifive1_revb_hello/freedom-metal/src/entry.S:94
20010070:	9082                	jalr	ra
/home/nicoladgg/wsFreedomStudio/sifive_hifive1_revb_hello/freedom-metal/src/entry.S:99
20010072:	00000297          	auipc	t0,0x0
20010076:	00c28293          	addi	t0,t0,12 # 2001007e <_enter+0x7e>
/home/nicoladgg/wsFreedomStudio/sifive_hifive1_revb_hello/freedom-metal/src/entry.S:100
2001007a:	30529073          	csrw	mtvec,t0
/home/nicoladgg/wsFreedomStudio/sifive_hifive1_revb_hello/freedom-metal/src/entry.S:102
2001007e:	00002303          	lw	t1,0(zero) # 0 <__metal_boot_hart>
/home/nicoladgg/wsFreedomStudio/sifive_hifive1_revb_hello/freedom-metal/src/entry.S:103
20010082:	bff5                	j	2001007e <_enter+0x7e>
20010084:	0000                	unimp
	...

20010088 <__register_frame_info>:
__register_frame_info():
/home/nicoladgg/wsFreedomStudio/sifive_hifive1_revb_hello/freedom-metal/src/entry.S:117
20010088:	8082                	ret

2001008a <metal_mem_scrub>:
metal_mem_scrub():
/home/nicoladgg/wsFreedomStudio/sifive_hifive1_revb_hello/freedom-metal/src/scrub.S:24
2001008a:	46a1                	li	a3,8
/home/nicoladgg/wsFreedomStudio/sifive_hifive1_revb_hello/freedom-metal/src/scrub.S:25
2001008c:	3006b373          	csrrc	t1,mstatus,a3
/home/nicoladgg/wsFreedomStudio/sifive_hifive1_revb_hello/freedom-metal/src/scrub.S:28
20010090:	4291                	li	t0,4
/home/nicoladgg/wsFreedomStudio/sifive_hifive1_revb_hello/freedom-metal/src/scrub.S:30
20010092:	0055c563          	blt	a1,t0,2001009c <metal_mem_scrub+0x12>
/home/nicoladgg/wsFreedomStudio/sifive_hifive1_revb_hello/freedom-metal/src/scrub.S:31
20010096:	00357613          	andi	a2,a0,3
/home/nicoladgg/wsFreedomStudio/sifive_hifive1_revb_hello/freedom-metal/src/scrub.S:32
2001009a:	ca11                	beqz	a2,200100ae <metal_mem_scrub+0x24>
/home/nicoladgg/wsFreedomStudio/sifive_hifive1_revb_hello/freedom-metal/src/scrub.S:34
2001009c:	00050023          	sb	zero,0(a0)
/home/nicoladgg/wsFreedomStudio/sifive_hifive1_revb_hello/freedom-metal/src/scrub.S:35
200100a0:	0505                	addi	a0,a0,1
/home/nicoladgg/wsFreedomStudio/sifive_hifive1_revb_hello/freedom-metal/src/scrub.S:36
200100a2:	15fd                	addi	a1,a1,-1
/home/nicoladgg/wsFreedomStudio/sifive_hifive1_revb_hello/freedom-metal/src/scrub.S:37
200100a4:	feb047e3          	bgtz	a1,20010092 <metal_mem_scrub+0x8>
/home/nicoladgg/wsFreedomStudio/sifive_hifive1_revb_hello/freedom-metal/src/scrub.S:38
200100a8:	30031073          	csrw	mstatus,t1
/home/nicoladgg/wsFreedomStudio/sifive_hifive1_revb_hello/freedom-metal/src/scrub.S:39
200100ac:	8082                	ret
/home/nicoladgg/wsFreedomStudio/sifive_hifive1_revb_hello/freedom-metal/src/scrub.S:41
200100ae:	00052023          	sw	zero,0(a0)
/home/nicoladgg/wsFreedomStudio/sifive_hifive1_revb_hello/freedom-metal/src/scrub.S:42
200100b2:	0511                	addi	a0,a0,4
/home/nicoladgg/wsFreedomStudio/sifive_hifive1_revb_hello/freedom-metal/src/scrub.S:43
200100b4:	15f1                	addi	a1,a1,-4
/home/nicoladgg/wsFreedomStudio/sifive_hifive1_revb_hello/freedom-metal/src/scrub.S:44
200100b6:	fcb04ee3          	bgtz	a1,20010092 <metal_mem_scrub+0x8>
/home/nicoladgg/wsFreedomStudio/sifive_hifive1_revb_hello/freedom-metal/src/scrub.S:45
200100ba:	30031073          	csrw	mstatus,t1
/home/nicoladgg/wsFreedomStudio/sifive_hifive1_revb_hello/freedom-metal/src/scrub.S:46
200100be:	8082                	ret

200100c0 <__metal_memory_scrub>:
__metal_memory_scrub():
/home/nicoladgg/wsFreedomStudio/sifive_hifive1_revb_hello/freedom-metal/src/scrub.S:74
200100c0:	00032023          	sw	zero,0(t1)
/home/nicoladgg/wsFreedomStudio/sifive_hifive1_revb_hello/freedom-metal/src/scrub.S:75
200100c4:	0311                	addi	t1,t1,4
/home/nicoladgg/wsFreedomStudio/sifive_hifive1_revb_hello/freedom-metal/src/scrub.S:76
200100c6:	fe734de3          	blt	t1,t2,200100c0 <__metal_memory_scrub>
/home/nicoladgg/wsFreedomStudio/sifive_hifive1_revb_hello/freedom-metal/src/scrub.S:82
200100ca:	8082                	ret

200100cc <__metal_before_start>:
__metal_before_start():
/home/nicoladgg/wsFreedomStudio/sifive_hifive1_revb_hello/freedom-metal/src/scrub.S:94
200100cc:	8406                	mv	s0,ra
/home/nicoladgg/wsFreedomStudio/sifive_hifive1_revb_hello/freedom-metal/src/scrub.S:96
200100ce:	dfff0297          	auipc	t0,0xdfff0
200100d2:	f3228293          	addi	t0,t0,-206 # 0 <__metal_boot_hart>
/home/nicoladgg/wsFreedomStudio/sifive_hifive1_revb_hello/freedom-metal/src/scrub.S:97
200100d6:	04028c63          	beqz	t0,2001012e <skip_scrub>
/home/nicoladgg/wsFreedomStudio/sifive_hifive1_revb_hello/freedom-metal/src/scrub.S:99
200100da:	dfff0297          	auipc	t0,0xdfff0
200100de:	f2628293          	addi	t0,t0,-218 # 0 <__metal_boot_hart>
/home/nicoladgg/wsFreedomStudio/sifive_hifive1_revb_hello/freedom-metal/src/scrub.S:100
200100e2:	f14027f3          	csrr	a5,mhartid
/home/nicoladgg/wsFreedomStudio/sifive_hifive1_revb_hello/freedom-metal/src/scrub.S:103
200100e6:	46a1                	li	a3,8
/home/nicoladgg/wsFreedomStudio/sifive_hifive1_revb_hello/freedom-metal/src/scrub.S:104
200100e8:	3006b073          	csrc	mstatus,a3
/home/nicoladgg/wsFreedomStudio/sifive_hifive1_revb_hello/freedom-metal/src/scrub.S:107
200100ec:	830a                	mv	t1,sp
/home/nicoladgg/wsFreedomStudio/sifive_hifive1_revb_hello/freedom-metal/src/scrub.S:108
200100ee:	dfff0397          	auipc	t2,0xdfff0
200100f2:	31238393          	addi	t2,t2,786 # 400 <__stack_size>
/home/nicoladgg/wsFreedomStudio/sifive_hifive1_revb_hello/freedom-metal/src/scrub.S:109
200100f6:	938a                	add	t2,t2,sp
/home/nicoladgg/wsFreedomStudio/sifive_hifive1_revb_hello/freedom-metal/src/scrub.S:110
200100f8:	00730363          	beq	t1,t2,200100fe <__metal_before_start+0x32>
/home/nicoladgg/wsFreedomStudio/sifive_hifive1_revb_hello/freedom-metal/src/scrub.S:111
200100fc:	37d1                	jal	200100c0 <__metal_memory_scrub>
/home/nicoladgg/wsFreedomStudio/sifive_hifive1_revb_hello/freedom-metal/src/scrub.S:113
200100fe:	02579863          	bne	a5,t0,2001012e <skip_scrub>
/home/nicoladgg/wsFreedomStudio/sifive_hifive1_revb_hello/freedom-metal/src/scrub.S:116
20010102:	5fff0317          	auipc	t1,0x5fff0
20010106:	efe30313          	addi	t1,t1,-258 # 80000000 <impure_data>
/home/nicoladgg/wsFreedomStudio/sifive_hifive1_revb_hello/freedom-metal/src/scrub.S:117
2001010a:	5fff1397          	auipc	t2,0x5fff1
2001010e:	9be38393          	addi	t2,t2,-1602 # 80000ac8 <__malloc_free_list>
/home/nicoladgg/wsFreedomStudio/sifive_hifive1_revb_hello/freedom-metal/src/scrub.S:118
20010112:	00730363          	beq	t1,t2,20010118 <__metal_before_start+0x4c>
/home/nicoladgg/wsFreedomStudio/sifive_hifive1_revb_hello/freedom-metal/src/scrub.S:119
20010116:	376d                	jal	200100c0 <__metal_memory_scrub>
/home/nicoladgg/wsFreedomStudio/sifive_hifive1_revb_hello/freedom-metal/src/scrub.S:122
20010118:	e7ff0317          	auipc	t1,0xe7ff0
2001011c:	ee830313          	addi	t1,t1,-280 # 8000000 <metal_segment_itim_target_end>
/home/nicoladgg/wsFreedomStudio/sifive_hifive1_revb_hello/freedom-metal/src/scrub.S:123
20010120:	e7ff0397          	auipc	t2,0xe7ff0
20010124:	ee038393          	addi	t2,t2,-288 # 8000000 <metal_segment_itim_target_end>
/home/nicoladgg/wsFreedomStudio/sifive_hifive1_revb_hello/freedom-metal/src/scrub.S:124
20010128:	00730363          	beq	t1,t2,2001012e <skip_scrub>
/home/nicoladgg/wsFreedomStudio/sifive_hifive1_revb_hello/freedom-metal/src/scrub.S:125
2001012c:	3f51                	jal	200100c0 <__metal_memory_scrub>

2001012e <skip_scrub>:
skip_scrub():
/home/nicoladgg/wsFreedomStudio/sifive_hifive1_revb_hello/freedom-metal/src/scrub.S:129
2001012e:	80a2                	mv	ra,s0
/home/nicoladgg/wsFreedomStudio/sifive_hifive1_revb_hello/freedom-metal/src/scrub.S:130
20010130:	8082                	ret
	...

20010134 <early_trap_vector>:
early_trap_vector():
/home/nicoladgg/wsFreedomStudio/sifive_hifive1_revb_hello/freedom-metal/src/trap.S:64
20010134:	342022f3          	csrr	t0,mcause
/home/nicoladgg/wsFreedomStudio/sifive_hifive1_revb_hello/freedom-metal/src/trap.S:65
20010138:	34102373          	csrr	t1,mepc
/home/nicoladgg/wsFreedomStudio/sifive_hifive1_revb_hello/freedom-metal/src/trap.S:66
2001013c:	343023f3          	csrr	t2,mtval
/home/nicoladgg/wsFreedomStudio/sifive_hifive1_revb_hello/freedom-metal/src/trap.S:67
20010140:	bfd5                	j	20010134 <early_trap_vector>

20010142 <__metal_synchronize_harts>:
__metal_synchronize_harts():
/home/nicoladgg/wsFreedomStudio/sifive_hifive1_revb_hello/freedom-metal/src/synchronize_harts.c:19
20010142:	1141                	addi	sp,sp,-16
20010144:	c622                	sw	s0,12(sp)
20010146:	0800                	addi	s0,sp,16
/home/nicoladgg/wsFreedomStudio/sifive_hifive1_revb_hello/freedom-metal/src/synchronize_harts.c:66
20010148:	0001                	nop
2001014a:	4432                	lw	s0,12(sp)
2001014c:	0141                	addi	sp,sp,16
2001014e:	8082                	ret

20010150 <_start>:
_start():
/home/nicoladgg/wsFreedomStudio/sifive_hifive1_revb_hello/freedom-metal/gloss/crt0.S:36
20010150:	8406                	mv	s0,ra
/home/nicoladgg/wsFreedomStudio/sifive_hifive1_revb_hello/freedom-metal/gloss/crt0.S:44
20010152:	5fff1197          	auipc	gp,0x5fff1
20010156:	14e18193          	addi	gp,gp,334 # 800012a0 <__global_pointer$>
/home/nicoladgg/wsFreedomStudio/sifive_hifive1_revb_hello/freedom-metal/gloss/crt0.S:50
2001015a:	00000293          	li	t0,0
/home/nicoladgg/wsFreedomStudio/sifive_hifive1_revb_hello/freedom-metal/gloss/crt0.S:51
2001015e:	0e551163          	bne	a0,t0,20010240 <_skip_init>
/home/nicoladgg/wsFreedomStudio/sifive_hifive1_revb_hello/freedom-metal/gloss/crt0.S:60
20010162:	00009297          	auipc	t0,0x9
20010166:	f6628293          	addi	t0,t0,-154 # 200190c8 <metal_segment_data_source_start>
/home/nicoladgg/wsFreedomStudio/sifive_hifive1_revb_hello/freedom-metal/gloss/crt0.S:61
2001016a:	5fff0317          	auipc	t1,0x5fff0
2001016e:	e9630313          	addi	t1,t1,-362 # 80000000 <impure_data>
/home/nicoladgg/wsFreedomStudio/sifive_hifive1_revb_hello/freedom-metal/gloss/crt0.S:62
20010172:	5fff1397          	auipc	t2,0x5fff1
20010176:	95638393          	addi	t2,t2,-1706 # 80000ac8 <__malloc_free_list>
/home/nicoladgg/wsFreedomStudio/sifive_hifive1_revb_hello/freedom-metal/gloss/crt0.S:64
2001017a:	00628c63          	beq	t0,t1,20010192 <_start+0x42>
/home/nicoladgg/wsFreedomStudio/sifive_hifive1_revb_hello/freedom-metal/gloss/crt0.S:65
2001017e:	00735a63          	bge	t1,t2,20010192 <_start+0x42>
/home/nicoladgg/wsFreedomStudio/sifive_hifive1_revb_hello/freedom-metal/gloss/crt0.S:69
20010182:	0002a503          	lw	a0,0(t0)
/home/nicoladgg/wsFreedomStudio/sifive_hifive1_revb_hello/freedom-metal/gloss/crt0.S:70
20010186:	0291                	addi	t0,t0,4
/home/nicoladgg/wsFreedomStudio/sifive_hifive1_revb_hello/freedom-metal/gloss/crt0.S:71
20010188:	00a32023          	sw	a0,0(t1)
/home/nicoladgg/wsFreedomStudio/sifive_hifive1_revb_hello/freedom-metal/gloss/crt0.S:72
2001018c:	0311                	addi	t1,t1,4
/home/nicoladgg/wsFreedomStudio/sifive_hifive1_revb_hello/freedom-metal/gloss/crt0.S:73
2001018e:	fe734ae3          	blt	t1,t2,20010182 <_start+0x32>
/home/nicoladgg/wsFreedomStudio/sifive_hifive1_revb_hello/freedom-metal/gloss/crt0.S:84
20010192:	00001297          	auipc	t0,0x1
20010196:	01e28293          	addi	t0,t0,30 # 200111b0 <metal_segment_itim_source_start>
/home/nicoladgg/wsFreedomStudio/sifive_hifive1_revb_hello/freedom-metal/gloss/crt0.S:85
2001019a:	e7ff0317          	auipc	t1,0xe7ff0
2001019e:	e6630313          	addi	t1,t1,-410 # 8000000 <metal_segment_itim_target_end>
/home/nicoladgg/wsFreedomStudio/sifive_hifive1_revb_hello/freedom-metal/gloss/crt0.S:86
200101a2:	e7ff0397          	auipc	t2,0xe7ff0
200101a6:	e5e38393          	addi	t2,t2,-418 # 8000000 <metal_segment_itim_target_end>
/home/nicoladgg/wsFreedomStudio/sifive_hifive1_revb_hello/freedom-metal/gloss/crt0.S:88
200101aa:	00628c63          	beq	t0,t1,200101c2 <_start+0x72>
/home/nicoladgg/wsFreedomStudio/sifive_hifive1_revb_hello/freedom-metal/gloss/crt0.S:89
200101ae:	00735a63          	bge	t1,t2,200101c2 <_start+0x72>
/home/nicoladgg/wsFreedomStudio/sifive_hifive1_revb_hello/freedom-metal/gloss/crt0.S:93
200101b2:	0002a503          	lw	a0,0(t0)
/home/nicoladgg/wsFreedomStudio/sifive_hifive1_revb_hello/freedom-metal/gloss/crt0.S:94
200101b6:	0291                	addi	t0,t0,4
/home/nicoladgg/wsFreedomStudio/sifive_hifive1_revb_hello/freedom-metal/gloss/crt0.S:95
200101b8:	00a32023          	sw	a0,0(t1)
/home/nicoladgg/wsFreedomStudio/sifive_hifive1_revb_hello/freedom-metal/gloss/crt0.S:96
200101bc:	0311                	addi	t1,t1,4
/home/nicoladgg/wsFreedomStudio/sifive_hifive1_revb_hello/freedom-metal/gloss/crt0.S:97
200101be:	fe734ae3          	blt	t1,t2,200101b2 <_start+0x62>
/home/nicoladgg/wsFreedomStudio/sifive_hifive1_revb_hello/freedom-metal/gloss/crt0.S:109
200101c2:	0000100f          	fence.i
/home/nicoladgg/wsFreedomStudio/sifive_hifive1_revb_hello/freedom-metal/gloss/crt0.S:114
200101c6:	00001297          	auipc	t0,0x1
200101ca:	fea28293          	addi	t0,t0,-22 # 200111b0 <metal_segment_itim_source_start>
/home/nicoladgg/wsFreedomStudio/sifive_hifive1_revb_hello/freedom-metal/gloss/crt0.S:115
200101ce:	5fff0317          	auipc	t1,0x5fff0
200101d2:	e3230313          	addi	t1,t1,-462 # 80000000 <impure_data>
/home/nicoladgg/wsFreedomStudio/sifive_hifive1_revb_hello/freedom-metal/gloss/crt0.S:116
200101d6:	5fff0397          	auipc	t2,0x5fff0
200101da:	e2a38393          	addi	t2,t2,-470 # 80000000 <impure_data>
/home/nicoladgg/wsFreedomStudio/sifive_hifive1_revb_hello/freedom-metal/gloss/crt0.S:118
200101de:	00628c63          	beq	t0,t1,200101f6 <_start+0xa6>
/home/nicoladgg/wsFreedomStudio/sifive_hifive1_revb_hello/freedom-metal/gloss/crt0.S:119
200101e2:	00735a63          	bge	t1,t2,200101f6 <_start+0xa6>
/home/nicoladgg/wsFreedomStudio/sifive_hifive1_revb_hello/freedom-metal/gloss/crt0.S:123
200101e6:	0002a503          	lw	a0,0(t0)
/home/nicoladgg/wsFreedomStudio/sifive_hifive1_revb_hello/freedom-metal/gloss/crt0.S:124
200101ea:	0291                	addi	t0,t0,4
/home/nicoladgg/wsFreedomStudio/sifive_hifive1_revb_hello/freedom-metal/gloss/crt0.S:125
200101ec:	00a32023          	sw	a0,0(t1)
/home/nicoladgg/wsFreedomStudio/sifive_hifive1_revb_hello/freedom-metal/gloss/crt0.S:126
200101f0:	0311                	addi	t1,t1,4
/home/nicoladgg/wsFreedomStudio/sifive_hifive1_revb_hello/freedom-metal/gloss/crt0.S:127
200101f2:	fe734ae3          	blt	t1,t2,200101e6 <_start+0x96>
/home/nicoladgg/wsFreedomStudio/sifive_hifive1_revb_hello/freedom-metal/gloss/crt0.S:139
200101f6:	0000100f          	fence.i
/home/nicoladgg/wsFreedomStudio/sifive_hifive1_revb_hello/freedom-metal/gloss/crt0.S:142
200101fa:	5fff1317          	auipc	t1,0x5fff1
200101fe:	8ce30313          	addi	t1,t1,-1842 # 80000ac8 <__malloc_free_list>
/home/nicoladgg/wsFreedomStudio/sifive_hifive1_revb_hello/freedom-metal/gloss/crt0.S:143
20010202:	b3c18393          	addi	t2,gp,-1220 # 80000ddc <metal_segment_bss_target_end>
/home/nicoladgg/wsFreedomStudio/sifive_hifive1_revb_hello/freedom-metal/gloss/crt0.S:145
20010206:	00735763          	bge	t1,t2,20010214 <_start+0xc4>
/home/nicoladgg/wsFreedomStudio/sifive_hifive1_revb_hello/freedom-metal/gloss/crt0.S:149
2001020a:	00032023          	sw	zero,0(t1)
/home/nicoladgg/wsFreedomStudio/sifive_hifive1_revb_hello/freedom-metal/gloss/crt0.S:150
2001020e:	0311                	addi	t1,t1,4
/home/nicoladgg/wsFreedomStudio/sifive_hifive1_revb_hello/freedom-metal/gloss/crt0.S:151
20010210:	fe734de3          	blt	t1,t2,2001020a <_start+0xba>
/home/nicoladgg/wsFreedomStudio/sifive_hifive1_revb_hello/freedom-metal/gloss/crt0.S:161
20010214:	5fff1217          	auipc	tp,0x5fff1
20010218:	8b420213          	addi	tp,tp,-1868 # 80000ac8 <__malloc_free_list>
/home/nicoladgg/wsFreedomStudio/sifive_hifive1_revb_hello/freedom-metal/gloss/crt0.S:166
2001021c:	c211                	beqz	a2,20010220 <_start+0xd0>
/home/nicoladgg/wsFreedomStudio/sifive_hifive1_revb_hello/freedom-metal/gloss/crt0.S:167
2001021e:	9602                	jalr	a2
/home/nicoladgg/wsFreedomStudio/sifive_hifive1_revb_hello/freedom-metal/gloss/crt0.S:171
20010220:	00003517          	auipc	a0,0x3
20010224:	25a50513          	addi	a0,a0,602 # 2001347a <__libc_fini_array>
/home/nicoladgg/wsFreedomStudio/sifive_hifive1_revb_hello/freedom-metal/gloss/crt0.S:172
20010228:	214030ef          	jal	ra,2001343c <atexit>
/home/nicoladgg/wsFreedomStudio/sifive_hifive1_revb_hello/freedom-metal/gloss/crt0.S:173
2001022c:	284030ef          	jal	ra,200134b0 <__libc_init_array>
/home/nicoladgg/wsFreedomStudio/sifive_hifive1_revb_hello/freedom-metal/gloss/crt0.S:177
20010230:	00004517          	auipc	a0,0x4
20010234:	59250513          	addi	a0,a0,1426 # 200147c2 <metal_fini_run>
/home/nicoladgg/wsFreedomStudio/sifive_hifive1_revb_hello/freedom-metal/gloss/crt0.S:178
20010238:	204030ef          	jal	ra,2001343c <atexit>
/home/nicoladgg/wsFreedomStudio/sifive_hifive1_revb_hello/freedom-metal/gloss/crt0.S:179
2001023c:	572040ef          	jal	ra,200147ae <metal_init_run>

20010240 <_skip_init>:
_skip_init():
/home/nicoladgg/wsFreedomStudio/sifive_hifive1_revb_hello/freedom-metal/gloss/crt0.S:185
20010240:	3709                	jal	20010142 <__metal_synchronize_harts>
/home/nicoladgg/wsFreedomStudio/sifive_hifive1_revb_hello/freedom-metal/gloss/crt0.S:188
20010242:	56fd                	li	a3,-1
/home/nicoladgg/wsFreedomStudio/sifive_hifive1_revb_hello/freedom-metal/gloss/crt0.S:189
20010244:	3046b073          	csrc	mie,a3
/home/nicoladgg/wsFreedomStudio/sifive_hifive1_revb_hello/freedom-metal/gloss/crt0.S:190
20010248:	3446b073          	csrc	mip,a3
/home/nicoladgg/wsFreedomStudio/sifive_hifive1_revb_hello/freedom-metal/gloss/crt0.S:194
2001024c:	301027f3          	csrr	a5,misa
/home/nicoladgg/wsFreedomStudio/sifive_hifive1_revb_hello/freedom-metal/gloss/crt0.S:195
20010250:	00042737          	lui	a4,0x42
/home/nicoladgg/wsFreedomStudio/sifive_hifive1_revb_hello/freedom-metal/gloss/crt0.S:196
20010254:	8f7d                	and	a4,a4,a5
/home/nicoladgg/wsFreedomStudio/sifive_hifive1_revb_hello/freedom-metal/gloss/crt0.S:197
20010256:	c709                	beqz	a4,20010260 <_skip_init+0x20>
/home/nicoladgg/wsFreedomStudio/sifive_hifive1_revb_hello/freedom-metal/gloss/crt0.S:198
20010258:	3036b073          	csrc	mideleg,a3
/home/nicoladgg/wsFreedomStudio/sifive_hifive1_revb_hello/freedom-metal/gloss/crt0.S:199
2001025c:	3026b073          	csrc	medeleg,a3
/home/nicoladgg/wsFreedomStudio/sifive_hifive1_revb_hello/freedom-metal/gloss/crt0.S:203
20010260:	00040737          	lui	a4,0x40
/home/nicoladgg/wsFreedomStudio/sifive_hifive1_revb_hello/freedom-metal/gloss/crt0.S:204
20010264:	8f7d                	and	a4,a4,a5
/home/nicoladgg/wsFreedomStudio/sifive_hifive1_revb_hello/freedom-metal/gloss/crt0.S:205
20010266:	c319                	beqz	a4,2001026c <_skip_init+0x2c>
/home/nicoladgg/wsFreedomStudio/sifive_hifive1_revb_hello/freedom-metal/gloss/crt0.S:206
20010268:	1806b073          	csrc	satp,a3
/home/nicoladgg/wsFreedomStudio/sifive_hifive1_revb_hello/freedom-metal/gloss/crt0.S:210
2001026c:	6741                	lui	a4,0x10
2001026e:	02870713          	addi	a4,a4,40 # 10028 <__heap_size+0xf828>
/home/nicoladgg/wsFreedomStudio/sifive_hifive1_revb_hello/freedom-metal/gloss/crt0.S:211
20010272:	8ff9                	and	a5,a5,a4
/home/nicoladgg/wsFreedomStudio/sifive_hifive1_revb_hello/freedom-metal/gloss/crt0.S:212
20010274:	cb89                	beqz	a5,20010286 <_skip_init+0x46>
/home/nicoladgg/wsFreedomStudio/sifive_hifive1_revb_hello/freedom-metal/gloss/crt0.S:213
20010276:	300027f3          	csrr	a5,mstatus
/home/nicoladgg/wsFreedomStudio/sifive_hifive1_revb_hello/freedom-metal/gloss/crt0.S:214
2001027a:	6709                	lui	a4,0x2
/home/nicoladgg/wsFreedomStudio/sifive_hifive1_revb_hello/freedom-metal/gloss/crt0.S:215
2001027c:	8fd9                	or	a5,a5,a4
/home/nicoladgg/wsFreedomStudio/sifive_hifive1_revb_hello/freedom-metal/gloss/crt0.S:216
2001027e:	30079073          	csrw	mstatus,a5
/home/nicoladgg/wsFreedomStudio/sifive_hifive1_revb_hello/freedom-metal/gloss/crt0.S:217
20010282:	00305073          	csrwi	fcsr,0
/home/nicoladgg/wsFreedomStudio/sifive_hifive1_revb_hello/freedom-metal/gloss/crt0.S:221
20010286:	301027f3          	csrr	a5,misa
/home/nicoladgg/wsFreedomStudio/sifive_hifive1_revb_hello/freedom-metal/gloss/crt0.S:222
2001028a:	00200737          	lui	a4,0x200
/home/nicoladgg/wsFreedomStudio/sifive_hifive1_revb_hello/freedom-metal/gloss/crt0.S:223
2001028e:	8ff9                	and	a5,a5,a4
/home/nicoladgg/wsFreedomStudio/sifive_hifive1_revb_hello/freedom-metal/gloss/crt0.S:224
20010290:	c799                	beqz	a5,2001029e <_skip_init+0x5e>
/home/nicoladgg/wsFreedomStudio/sifive_hifive1_revb_hello/freedom-metal/gloss/crt0.S:225
20010292:	300027f3          	csrr	a5,mstatus
/home/nicoladgg/wsFreedomStudio/sifive_hifive1_revb_hello/freedom-metal/gloss/crt0.S:226
20010296:	2007e793          	ori	a5,a5,512
/home/nicoladgg/wsFreedomStudio/sifive_hifive1_revb_hello/freedom-metal/gloss/crt0.S:227
2001029a:	30079073          	csrw	mstatus,a5
/home/nicoladgg/wsFreedomStudio/sifive_hifive1_revb_hello/freedom-metal/gloss/crt0.S:233
2001029e:	4505                	li	a0,1
/home/nicoladgg/wsFreedomStudio/sifive_hifive1_revb_hello/freedom-metal/gloss/crt0.S:234
200102a0:	00000597          	auipc	a1,0x0
200102a4:	32458593          	addi	a1,a1,804 # 200105c4 <argv>
/home/nicoladgg/wsFreedomStudio/sifive_hifive1_revb_hello/freedom-metal/gloss/crt0.S:235
200102a8:	00000617          	auipc	a2,0x0
200102ac:	32060613          	addi	a2,a2,800 # 200105c8 <envp>
/home/nicoladgg/wsFreedomStudio/sifive_hifive1_revb_hello/freedom-metal/gloss/crt0.S:236
200102b0:	2031                	jal	200102bc <secondary_main>
/home/nicoladgg/wsFreedomStudio/sifive_hifive1_revb_hello/freedom-metal/gloss/crt0.S:242
200102b2:	19e030ef          	jal	ra,20013450 <exit>
/home/nicoladgg/wsFreedomStudio/sifive_hifive1_revb_hello/freedom-metal/gloss/crt0.S:247
200102b6:	80a2                	mv	ra,s0
/home/nicoladgg/wsFreedomStudio/sifive_hifive1_revb_hello/freedom-metal/gloss/crt0.S:248
200102b8:	8082                	ret

200102ba <_fini>:
_init():
/home/nicoladgg/wsFreedomStudio/sifive_hifive1_revb_hello/freedom-metal/gloss/crt0.S:260
200102ba:	8082                	ret

200102bc <secondary_main>:
secondary_main():
/home/nicoladgg/wsFreedomStudio/sifive_hifive1_revb_hello/freedom-metal/gloss/crt0.S:271
200102bc:	1141                	addi	sp,sp,-16
/home/nicoladgg/wsFreedomStudio/sifive_hifive1_revb_hello/freedom-metal/gloss/crt0.S:273
200102be:	c206                	sw	ra,4(sp)
/home/nicoladgg/wsFreedomStudio/sifive_hifive1_revb_hello/freedom-metal/gloss/crt0.S:277
200102c0:	f14022f3          	csrr	t0,mhartid
/home/nicoladgg/wsFreedomStudio/sifive_hifive1_revb_hello/freedom-metal/gloss/crt0.S:278
200102c4:	00000313          	li	t1,0
/home/nicoladgg/wsFreedomStudio/sifive_hifive1_revb_hello/freedom-metal/gloss/crt0.S:279
200102c8:	00628563          	beq	t0,t1,200102d2 <secondary_main+0x16>
/home/nicoladgg/wsFreedomStudio/sifive_hifive1_revb_hello/freedom-metal/gloss/crt0.S:281
200102cc:	10500073          	wfi
/home/nicoladgg/wsFreedomStudio/sifive_hifive1_revb_hello/freedom-metal/gloss/crt0.S:282
200102d0:	bff5                	j	200102cc <secondary_main+0x10>
/home/nicoladgg/wsFreedomStudio/sifive_hifive1_revb_hello/freedom-metal/gloss/crt0.S:284
200102d2:	4a6010ef          	jal	ra,20011778 <main>
/home/nicoladgg/wsFreedomStudio/sifive_hifive1_revb_hello/freedom-metal/gloss/crt0.S:286
200102d6:	4092                	lw	ra,4(sp)
/home/nicoladgg/wsFreedomStudio/sifive_hifive1_revb_hello/freedom-metal/gloss/crt0.S:290
200102d8:	0141                	addi	sp,sp,16
/home/nicoladgg/wsFreedomStudio/sifive_hifive1_revb_hello/freedom-metal/gloss/crt0.S:291
200102da:	8082                	ret

Disassembly of section .ctors:

200102ec <metal_tty_init>:
metal_tty_init():
/home/nicoladgg/wsFreedomStudio/sifive_hifive1_revb_hello/freedom-metal/src/tty.c:28
200102ec:	1141                	addi	sp,sp,-16
200102ee:	c606                	sw	ra,12(sp)
200102f0:	c422                	sw	s0,8(sp)
200102f2:	0800                	addi	s0,sp,16
/home/nicoladgg/wsFreedomStudio/sifive_hifive1_revb_hello/freedom-metal/src/tty.c:29
200102f4:	67f1                	lui	a5,0x1c
200102f6:	20078593          	addi	a1,a5,512 # 1c200 <__heap_size+0x1ba00>
200102fa:	800017b7          	lui	a5,0x80001
200102fe:	a3878513          	addi	a0,a5,-1480 # 80000a38 <metal_segment_heap_target_end+0xfffff058>
20010302:	4fa040ef          	jal	ra,200147fc <metal_uart_init>
/home/nicoladgg/wsFreedomStudio/sifive_hifive1_revb_hello/freedom-metal/src/tty.c:30
20010306:	0001                	nop
20010308:	40b2                	lw	ra,12(sp)
2001030a:	4422                	lw	s0,8(sp)
2001030c:	0141                	addi	sp,sp,16
2001030e:	8082                	ret

20010310 <metal_sifive_fe310_g000_pll_init>:
metal_sifive_fe310_g000_pll_init():
/home/nicoladgg/wsFreedomStudio/sifive_hifive1_revb_hello/freedom-metal/src/drivers/sifive_fe310-g000_pll.c:151
20010310:	1101                	addi	sp,sp,-32
20010312:	ce06                	sw	ra,28(sp)
20010314:	cc22                	sw	s0,24(sp)
20010316:	1000                	addi	s0,sp,32
/home/nicoladgg/wsFreedomStudio/sifive_hifive1_revb_hello/freedom-metal/src/drivers/sifive_fe310-g000_pll.c:152
20010318:	1be070ef          	jal	ra,200174d6 <__metal_driver_sifive_fe310_g000_pll_init_rate>
2001031c:	fea42623          	sw	a0,-20(s0)
/home/nicoladgg/wsFreedomStudio/sifive_hifive1_revb_hello/freedom-metal/src/drivers/sifive_fe310-g000_pll.c:154
20010320:	fec42783          	lw	a5,-20(s0)
20010324:	c799                	beqz	a5,20010332 <metal_sifive_fe310_g000_pll_init+0x22>
/home/nicoladgg/wsFreedomStudio/sifive_hifive1_revb_hello/freedom-metal/src/drivers/sifive_fe310-g000_pll.c:155
20010326:	800017b7          	lui	a5,0x80001
2001032a:	a9078513          	addi	a0,a5,-1392 # 80000a90 <metal_segment_heap_target_end+0xfffff0b0>
2001032e:	234070ef          	jal	ra,20017562 <__metal_driver_sifive_fe310_g000_pll_init>
/home/nicoladgg/wsFreedomStudio/sifive_hifive1_revb_hello/freedom-metal/src/drivers/sifive_fe310-g000_pll.c:157
20010332:	0001                	nop
20010334:	40f2                	lw	ra,28(sp)
20010336:	4462                	lw	s0,24(sp)
20010338:	6105                	addi	sp,sp,32
2001033a:	8082                	ret

2001033c <use_hfxosc>:
use_hfxosc():
/home/nicoladgg/wsFreedomStudio/sifive_hifive1_revb_hello/freedom-metal/src/drivers/sifive_fe310-g000_pll.c:389
2001033c:	1101                	addi	sp,sp,-32
2001033e:	ce06                	sw	ra,28(sp)
20010340:	cc22                	sw	s0,24(sp)
20010342:	1000                	addi	s0,sp,32
/home/nicoladgg/wsFreedomStudio/sifive_hifive1_revb_hello/freedom-metal/src/drivers/sifive_fe310-g000_pll.c:390
20010344:	192070ef          	jal	ra,200174d6 <__metal_driver_sifive_fe310_g000_pll_init_rate>
20010348:	fea42623          	sw	a0,-20(s0)
/home/nicoladgg/wsFreedomStudio/sifive_hifive1_revb_hello/freedom-metal/src/drivers/sifive_fe310-g000_pll.c:391
2001034c:	fec42583          	lw	a1,-20(s0)
20010350:	800017b7          	lui	a5,0x80001
20010354:	a9078513          	addi	a0,a5,-1392 # 80000a90 <metal_segment_heap_target_end+0xfffff0b0>
20010358:	2af080ef          	jal	ra,20018e06 <metal_clock_set_rate_hz>
/home/nicoladgg/wsFreedomStudio/sifive_hifive1_revb_hello/freedom-metal/src/drivers/sifive_fe310-g000_pll.c:393
2001035c:	0001                	nop
2001035e:	40f2                	lw	ra,28(sp)
20010360:	4462                	lw	s0,24(sp)
20010362:	6105                	addi	sp,sp,32
20010364:	8082                	ret

Disassembly of section .text:

20011200 <plic_interrupt_enable>:
plic_interrupt_enable():
/home/nicoladgg/wsFreedomStudio/SiFive_HiFive_RevB_Projects/src/./include/devices/../devices/plic.h:55

#include "../../include/platform.h"
#include <math.h>

int plic_interrupt_enable()
{
20011200:	1101                	addi	sp,sp,-32
20011202:	ce22                	sw	s0,28(sp)
20011204:	1000                	addi	s0,sp,32
/home/nicoladgg/wsFreedomStudio/SiFive_HiFive_RevB_Projects/src/./include/devices/../devices/plic.h:58
    uint32_t mie;

    __asm__ volatile("csrr %0, mie" : "=r"(mie));
20011206:	304027f3          	csrr	a5,mie
2001120a:	fef42623          	sw	a5,-20(s0)
/home/nicoladgg/wsFreedomStudio/SiFive_HiFive_RevB_Projects/src/./include/devices/../devices/plic.h:60

    if ((mie & 0x800) == 0)
2001120e:	fec42703          	lw	a4,-20(s0)
20011212:	6785                	lui	a5,0x1
20011214:	80078793          	addi	a5,a5,-2048 # 800 <__heap_size>
20011218:	8ff9                	and	a5,a5,a4
2001121a:	eb85                	bnez	a5,2001124a <plic_interrupt_enable+0x4a>
/home/nicoladgg/wsFreedomStudio/SiFive_HiFive_RevB_Projects/src/./include/devices/../devices/plic.h:62
    {
        mie |= MIE_MEIE;
2001121c:	fec42703          	lw	a4,-20(s0)
20011220:	6785                	lui	a5,0x1
20011222:	80078793          	addi	a5,a5,-2048 # 800 <__heap_size>
20011226:	8fd9                	or	a5,a5,a4
20011228:	fef42623          	sw	a5,-20(s0)
/home/nicoladgg/wsFreedomStudio/SiFive_HiFive_RevB_Projects/src/./include/devices/../devices/plic.h:63
        __asm__ volatile("csrw mie, %0" : : "r"(mie));
2001122c:	fec42783          	lw	a5,-20(s0)
20011230:	30479073          	csrw	mie,a5
/home/nicoladgg/wsFreedomStudio/SiFive_HiFive_RevB_Projects/src/./include/devices/../devices/plic.h:64
        PLIC_REG(PLIC_ENABLE_OFFSET) = 0;
20011234:	0c0027b7          	lui	a5,0xc002
20011238:	0007a023          	sw	zero,0(a5) # c002000 <metal_segment_itim_target_end+0x4002000>
/home/nicoladgg/wsFreedomStudio/SiFive_HiFive_RevB_Projects/src/./include/devices/../devices/plic.h:65
        PLIC_REG(PLIC_ENABLE_OFFSET_2) = 0;
2001123c:	0c0027b7          	lui	a5,0xc002
20011240:	0791                	addi	a5,a5,4
20011242:	0007a023          	sw	zero,0(a5) # c002000 <metal_segment_itim_target_end+0x4002000>
/home/nicoladgg/wsFreedomStudio/SiFive_HiFive_RevB_Projects/src/./include/devices/../devices/plic.h:66
        return 0;
20011246:	4781                	li	a5,0
20011248:	a011                	j	2001124c <plic_interrupt_enable+0x4c>
/home/nicoladgg/wsFreedomStudio/SiFive_HiFive_RevB_Projects/src/./include/devices/../devices/plic.h:69
    }

    return -1;
2001124a:	57fd                	li	a5,-1
/home/nicoladgg/wsFreedomStudio/SiFive_HiFive_RevB_Projects/src/./include/devices/../devices/plic.h:70
}
2001124c:	853e                	mv	a0,a5
2001124e:	4472                	lw	s0,28(sp)
20011250:	6105                	addi	sp,sp,32
20011252:	8082                	ret

20011254 <plic_interrupt_handler>:
plic_interrupt_handler():
/home/nicoladgg/wsFreedomStudio/SiFive_HiFive_RevB_Projects/src/./include/devices/../devices/plic.h:73

void plic_interrupt_handler()
{
20011254:	1101                	addi	sp,sp,-32
20011256:	ce06                	sw	ra,28(sp)
20011258:	cc22                	sw	s0,24(sp)
2001125a:	1000                	addi	s0,sp,32
/home/nicoladgg/wsFreedomStudio/SiFive_HiFive_RevB_Projects/src/./include/devices/../devices/plic.h:78

    uint32_t pending, claim;
    unsigned int int_number;

    pending = PLIC_REG(PLIC_PENDING_OFFSET);
2001125c:	0c0017b7          	lui	a5,0xc001
20011260:	439c                	lw	a5,0(a5)
20011262:	fef42623          	sw	a5,-20(s0)
/home/nicoladgg/wsFreedomStudio/SiFive_HiFive_RevB_Projects/src/./include/devices/../devices/plic.h:79
    claim = PLIC_REG(PLIC_CLAIM_OFFSET);
20011266:	0c2007b7          	lui	a5,0xc200
2001126a:	0791                	addi	a5,a5,4
2001126c:	439c                	lw	a5,0(a5)
2001126e:	fef42423          	sw	a5,-24(s0)
/home/nicoladgg/wsFreedomStudio/SiFive_HiFive_RevB_Projects/src/./include/devices/../devices/plic.h:81

    int_number = sqrt(claim) - 1;
20011272:	fe842503          	lw	a0,-24(s0)
20011276:	5b1010ef          	jal	ra,20013026 <__floatunsidf>
2001127a:	872a                	mv	a4,a0
2001127c:	87ae                	mv	a5,a1
2001127e:	853a                	mv	a0,a4
20011280:	85be                	mv	a1,a5
20011282:	62f010ef          	jal	ra,200130b0 <sqrt>
20011286:	872a                	mv	a4,a0
20011288:	87ae                	mv	a5,a1
2001128a:	200106b7          	lui	a3,0x20010
2001128e:	3c86a603          	lw	a2,968(a3) # 200103c8 <variant_pin_map+0x60>
20011292:	3cc6a683          	lw	a3,972(a3)
20011296:	853a                	mv	a0,a4
20011298:	85be                	mv	a1,a5
2001129a:	714010ef          	jal	ra,200129ae <__subdf3>
2001129e:	872a                	mv	a4,a0
200112a0:	87ae                	mv	a5,a1
200112a2:	853a                	mv	a0,a4
200112a4:	85be                	mv	a1,a5
200112a6:	521010ef          	jal	ra,20012fc6 <__fixunsdfsi>
200112aa:	87aa                	mv	a5,a0
200112ac:	fef42223          	sw	a5,-28(s0)
/home/nicoladgg/wsFreedomStudio/SiFive_HiFive_RevB_Projects/src/./include/devices/../devices/plic.h:83

    if (irq_functions[int_number].active)
200112b0:	800017b7          	lui	a5,0x80001
200112b4:	b6c78693          	addi	a3,a5,-1172 # 80000b6c <metal_segment_heap_target_end+0xfffff18c>
200112b8:	fe442703          	lw	a4,-28(s0)
200112bc:	87ba                	mv	a5,a4
200112be:	0786                	slli	a5,a5,0x1
200112c0:	97ba                	add	a5,a5,a4
200112c2:	078a                	slli	a5,a5,0x2
200112c4:	97b6                	add	a5,a5,a3
200112c6:	43dc                	lw	a5,4(a5)
200112c8:	cf91                	beqz	a5,200112e4 <plic_interrupt_handler+0x90>
/home/nicoladgg/wsFreedomStudio/SiFive_HiFive_RevB_Projects/src/./include/devices/../devices/plic.h:85
    {
        irq_functions[int_number].irq_handler();
200112ca:	800017b7          	lui	a5,0x80001
200112ce:	b6c78693          	addi	a3,a5,-1172 # 80000b6c <metal_segment_heap_target_end+0xfffff18c>
200112d2:	fe442703          	lw	a4,-28(s0)
200112d6:	87ba                	mv	a5,a4
200112d8:	0786                	slli	a5,a5,0x1
200112da:	97ba                	add	a5,a5,a4
200112dc:	078a                	slli	a5,a5,0x2
200112de:	97b6                	add	a5,a5,a3
200112e0:	439c                	lw	a5,0(a5)
200112e2:	9782                	jalr	a5
/home/nicoladgg/wsFreedomStudio/SiFive_HiFive_RevB_Projects/src/./include/devices/../devices/plic.h:87
    }
}
200112e4:	0001                	nop
200112e6:	40f2                	lw	ra,28(sp)
200112e8:	4462                	lw	s0,24(sp)
200112ea:	6105                	addi	sp,sp,32
200112ec:	8082                	ret

200112ee <interrupt_enable>:
interrupt_enable():
/home/nicoladgg/wsFreedomStudio/SiFive_HiFive_RevB_Projects/src/./include/devices/../interrupt.h:16
int interrupt_enable();
void interrupt_set_direct_mode(void *isr);
void interrupt_service_routine() __attribute__((interrupt, aligned(64)));

int interrupt_enable()
{
200112ee:	1101                	addi	sp,sp,-32
200112f0:	ce06                	sw	ra,28(sp)
200112f2:	cc22                	sw	s0,24(sp)
200112f4:	1000                	addi	s0,sp,32
/home/nicoladgg/wsFreedomStudio/SiFive_HiFive_RevB_Projects/src/./include/devices/../interrupt.h:19
    uint32_t mstatus, mie;

    __asm__ volatile("csrr %0, mstatus" : "=r"(mstatus));
200112f6:	300027f3          	csrr	a5,mstatus
200112fa:	fef42623          	sw	a5,-20(s0)
/home/nicoladgg/wsFreedomStudio/SiFive_HiFive_RevB_Projects/src/./include/devices/../interrupt.h:21

    if ((mstatus & 0b1000) == 0)
200112fe:	fec42783          	lw	a5,-20(s0)
20011302:	8ba1                	andi	a5,a5,8
20011304:	eb95                	bnez	a5,20011338 <interrupt_enable+0x4a>
/home/nicoladgg/wsFreedomStudio/SiFive_HiFive_RevB_Projects/src/./include/devices/../interrupt.h:23
    {
    	mie = 0;
20011306:	fe042423          	sw	zero,-24(s0)
/home/nicoladgg/wsFreedomStudio/SiFive_HiFive_RevB_Projects/src/./include/devices/../interrupt.h:24
    	__asm__ volatile("csrw mie, %0" : : "r"(mie));
2001130a:	fe842783          	lw	a5,-24(s0)
2001130e:	30479073          	csrw	mie,a5
/home/nicoladgg/wsFreedomStudio/SiFive_HiFive_RevB_Projects/src/./include/devices/../interrupt.h:27
    	//mtvec |= MTVEC_ENABLE_DIRECT;
    	//__asm__ volatile("csrw mtvec, %I" : : "r"((unsigned long) interrupt_service_routine));
        write_csr(mtvec, (unsigned long)&interrupt_service_routine);
20011312:	200117b7          	lui	a5,0x20011
20011316:	38078793          	addi	a5,a5,896 # 20011380 <interrupt_service_routine>
2001131a:	30579073          	csrw	mtvec,a5
/home/nicoladgg/wsFreedomStudio/SiFive_HiFive_RevB_Projects/src/./include/devices/../interrupt.h:28
    	plic_interrupt_enable();
2001131e:	35cd                	jal	20011200 <plic_interrupt_enable>
/home/nicoladgg/wsFreedomStudio/SiFive_HiFive_RevB_Projects/src/./include/devices/../interrupt.h:29
        mstatus |= MSTATUS_MIE;
20011320:	fec42783          	lw	a5,-20(s0)
20011324:	0087e793          	ori	a5,a5,8
20011328:	fef42623          	sw	a5,-20(s0)
/home/nicoladgg/wsFreedomStudio/SiFive_HiFive_RevB_Projects/src/./include/devices/../interrupt.h:30
        __asm__ volatile("csrw mstatus, %0" : : "r"(mstatus));
2001132c:	fec42783          	lw	a5,-20(s0)
20011330:	30079073          	csrw	mstatus,a5
/home/nicoladgg/wsFreedomStudio/SiFive_HiFive_RevB_Projects/src/./include/devices/../interrupt.h:37
    else
    {
        return -INT_ERR_ACTIVE;
    }

    return INT_OK;
20011334:	4781                	li	a5,0
20011336:	a011                	j	2001133a <interrupt_enable+0x4c>
/home/nicoladgg/wsFreedomStudio/SiFive_HiFive_RevB_Projects/src/./include/devices/../interrupt.h:34
        return -INT_ERR_ACTIVE;
20011338:	57fd                	li	a5,-1
/home/nicoladgg/wsFreedomStudio/SiFive_HiFive_RevB_Projects/src/./include/devices/../interrupt.h:38
}
2001133a:	853e                	mv	a0,a5
2001133c:	40f2                	lw	ra,28(sp)
2001133e:	4462                	lw	s0,24(sp)
20011340:	6105                	addi	sp,sp,32
20011342:	8082                	ret
	...

20011380 <interrupt_service_routine>:
interrupt_service_routine():
/home/nicoladgg/wsFreedomStudio/SiFive_HiFive_RevB_Projects/src/./include/devices/../interrupt.h:49
    //mtvec |= MTVEC_ENABLE_DIRECT;
    __asm__ volatile("csrw mtvec, %0" : : "r"(mtvec));
}

void interrupt_service_routine()
{
20011380:	711d                	addi	sp,sp,-96
20011382:	ce86                	sw	ra,92(sp)
20011384:	cc96                	sw	t0,88(sp)
20011386:	ca9a                	sw	t1,84(sp)
20011388:	c89e                	sw	t2,80(sp)
2001138a:	c6a2                	sw	s0,76(sp)
2001138c:	c4aa                	sw	a0,72(sp)
2001138e:	c2ae                	sw	a1,68(sp)
20011390:	c0b2                	sw	a2,64(sp)
20011392:	de36                	sw	a3,60(sp)
20011394:	dc3a                	sw	a4,56(sp)
20011396:	da3e                	sw	a5,52(sp)
20011398:	d842                	sw	a6,48(sp)
2001139a:	d646                	sw	a7,44(sp)
2001139c:	d472                	sw	t3,40(sp)
2001139e:	d276                	sw	t4,36(sp)
200113a0:	d07a                	sw	t5,32(sp)
200113a2:	ce7e                	sw	t6,28(sp)
200113a4:	1080                	addi	s0,sp,96
/home/nicoladgg/wsFreedomStudio/SiFive_HiFive_RevB_Projects/src/./include/devices/../interrupt.h:53

    uint32_t mscratch;

    __asm__ volatile("csrrw a0, mscratch, a0\n\t"
200113a6:	34051573          	csrrw	a0,mscratch,a0
200113aa:	c10c                	sw	a1,0(a0)
200113ac:	c150                	sw	a2,4(a0)
200113ae:	c514                	sw	a3,8(a0)
200113b0:	c558                	sw	a4,12(a0)
/home/nicoladgg/wsFreedomStudio/SiFive_HiFive_RevB_Projects/src/./include/devices/../interrupt.h:59
                     "sw a1, 0(a0)\n\t"
                     "sw a2, 4(a0)\n\t"
                     "sw a3, 8(a0)\n\t"
                     "sw a4, 12(a0)\n\t");

    __asm__ volatile("csrr %0, mcause" : "=r"(mscratch));
200113b2:	342027f3          	csrr	a5,mcause
200113b6:	faf42623          	sw	a5,-84(s0)
/home/nicoladgg/wsFreedomStudio/SiFive_HiFive_RevB_Projects/src/./include/devices/../interrupt.h:60
    if (mscratch & MCAUSE_INT)
200113ba:	fac42783          	lw	a5,-84(s0)
200113be:	0007df63          	bgez	a5,200113dc <interrupt_service_routine+0x5c>
/home/nicoladgg/wsFreedomStudio/SiFive_HiFive_RevB_Projects/src/./include/devices/../interrupt.h:62
    {
        if (mscratch & MCAUSE_MTI)
200113c2:	fac42783          	lw	a5,-84(s0)
200113c6:	8b9d                	andi	a5,a5,7
200113c8:	eb91                	bnez	a5,200113dc <interrupt_service_routine+0x5c>
/home/nicoladgg/wsFreedomStudio/SiFive_HiFive_RevB_Projects/src/./include/devices/../interrupt.h:64
            ; /* Clic interrupt handling not yet coded */
        else if (mscratch & MCAUSE_MSI)
200113ca:	fac42783          	lw	a5,-84(s0)
200113ce:	8b8d                	andi	a5,a5,3
200113d0:	e791                	bnez	a5,200113dc <interrupt_service_routine+0x5c>
/home/nicoladgg/wsFreedomStudio/SiFive_HiFive_RevB_Projects/src/./include/devices/../interrupt.h:66
            ; /* Clic interrupt handling not yet coded */
        else if (mscratch & MCAUSE_MEI)
200113d2:	fac42783          	lw	a5,-84(s0)
200113d6:	8bad                	andi	a5,a5,11
200113d8:	c391                	beqz	a5,200113dc <interrupt_service_routine+0x5c>
/home/nicoladgg/wsFreedomStudio/SiFive_HiFive_RevB_Projects/src/./include/devices/../interrupt.h:68
        {
            plic_interrupt_handler();
200113da:	3dad                	jal	20011254 <plic_interrupt_handler>
/home/nicoladgg/wsFreedomStudio/SiFive_HiFive_RevB_Projects/src/./include/devices/../interrupt.h:72
        }
    }

    __asm__ volatile("lw a4, 12(a0)\n\t"
200113dc:	4558                	lw	a4,12(a0)
200113de:	4514                	lw	a3,8(a0)
200113e0:	4150                	lw	a2,4(a0)
200113e2:	410c                	lw	a1,0(a0)
200113e4:	34051573          	csrrw	a0,mscratch,a0
200113e8:	30200073          	mret
/home/nicoladgg/wsFreedomStudio/SiFive_HiFive_RevB_Projects/src/./include/devices/../interrupt.h:78
                     "lw a3, 8(a0)\n\t"
                     "lw a2, 4(a0)\n\t"
                     "lw a1, 0(a0)\n\t"
                     "csrrw a0, mscratch, a0\n\t"
                     "mret");
}
200113ec:	0001                	nop
200113ee:	40f6                	lw	ra,92(sp)
200113f0:	42e6                	lw	t0,88(sp)
200113f2:	4356                	lw	t1,84(sp)
200113f4:	43c6                	lw	t2,80(sp)
200113f6:	4436                	lw	s0,76(sp)
200113f8:	4526                	lw	a0,72(sp)
200113fa:	4596                	lw	a1,68(sp)
200113fc:	4606                	lw	a2,64(sp)
200113fe:	56f2                	lw	a3,60(sp)
20011400:	5762                	lw	a4,56(sp)
20011402:	57d2                	lw	a5,52(sp)
20011404:	5842                	lw	a6,48(sp)
20011406:	58b2                	lw	a7,44(sp)
20011408:	5e22                	lw	t3,40(sp)
2001140a:	5e92                	lw	t4,36(sp)
2001140c:	5f02                	lw	t5,32(sp)
2001140e:	4ff2                	lw	t6,28(sp)
20011410:	6125                	addi	sp,sp,96
20011412:	30200073          	mret
	...

2001143c <gpio_init_input>:
gpio_init_input():
/home/nicoladgg/wsFreedomStudio/SiFive_HiFive_RevB_Projects/src/./include/devices/gpio.h:109

    return GPIO_OK;
}

int gpio_init_input(unsigned int pin, gpio_pullup_t pup)
{
2001143c:	7179                	addi	sp,sp,-48
2001143e:	d622                	sw	s0,44(sp)
20011440:	1800                	addi	s0,sp,48
20011442:	fca42e23          	sw	a0,-36(s0)
20011446:	fcb42c23          	sw	a1,-40(s0)
/home/nicoladgg/wsFreedomStudio/SiFive_HiFive_RevB_Projects/src/./include/devices/gpio.h:110
    if (pin > MAXPIN - 1)
2001144a:	fdc42703          	lw	a4,-36(s0)
2001144e:	47cd                	li	a5,19
20011450:	00e7f463          	bgeu	a5,a4,20011458 <gpio_init_input+0x1c>
/home/nicoladgg/wsFreedomStudio/SiFive_HiFive_RevB_Projects/src/./include/devices/gpio.h:112
    {
        return -GPIO_ERR_NV;
20011454:	57fd                	li	a5,-1
20011456:	a8e5                	j	2001154e <gpio_init_input+0x112>
/home/nicoladgg/wsFreedomStudio/SiFive_HiFive_RevB_Projects/src/./include/devices/gpio.h:116
    }

    unsigned int gpio;
    gpio = variant_pin_map[pin].bit_pos;
20011458:	200107b7          	lui	a5,0x20010
2001145c:	36878713          	addi	a4,a5,872 # 20010368 <variant_pin_map>
20011460:	fdc42783          	lw	a5,-36(s0)
20011464:	078a                	slli	a5,a5,0x2
20011466:	97ba                	add	a5,a5,a4
20011468:	0017c783          	lbu	a5,1(a5)
2001146c:	fef42623          	sw	a5,-20(s0)
/home/nicoladgg/wsFreedomStudio/SiFive_HiFive_RevB_Projects/src/./include/devices/gpio.h:118

    GPIO_REG(GPIO_INPUT_EN) |= (1 << gpio);
20011470:	100127b7          	lui	a5,0x10012
20011474:	0791                	addi	a5,a5,4
20011476:	4398                	lw	a4,0(a5)
20011478:	fec42783          	lw	a5,-20(s0)
2001147c:	4685                	li	a3,1
2001147e:	00f697b3          	sll	a5,a3,a5
20011482:	86be                	mv	a3,a5
20011484:	100127b7          	lui	a5,0x10012
20011488:	0791                	addi	a5,a5,4
2001148a:	8f55                	or	a4,a4,a3
2001148c:	c398                	sw	a4,0(a5)
/home/nicoladgg/wsFreedomStudio/SiFive_HiFive_RevB_Projects/src/./include/devices/gpio.h:119
    GPIO_REG(GPIO_INPUT_VAL) &= ~(1 << gpio);
2001148e:	100127b7          	lui	a5,0x10012
20011492:	4398                	lw	a4,0(a5)
20011494:	fec42783          	lw	a5,-20(s0)
20011498:	4685                	li	a3,1
2001149a:	00f697b3          	sll	a5,a3,a5
2001149e:	fff7c793          	not	a5,a5
200114a2:	86be                	mv	a3,a5
200114a4:	100127b7          	lui	a5,0x10012
200114a8:	8f75                	and	a4,a4,a3
200114aa:	c398                	sw	a4,0(a5)
/home/nicoladgg/wsFreedomStudio/SiFive_HiFive_RevB_Projects/src/./include/devices/gpio.h:120
    GPIO_REG(GPIO_OUTPUT_EN) &= ~(1 << gpio);
200114ac:	100127b7          	lui	a5,0x10012
200114b0:	07a1                	addi	a5,a5,8
200114b2:	4398                	lw	a4,0(a5)
200114b4:	fec42783          	lw	a5,-20(s0)
200114b8:	4685                	li	a3,1
200114ba:	00f697b3          	sll	a5,a3,a5
200114be:	fff7c793          	not	a5,a5
200114c2:	86be                	mv	a3,a5
200114c4:	100127b7          	lui	a5,0x10012
200114c8:	07a1                	addi	a5,a5,8
200114ca:	8f75                	and	a4,a4,a3
200114cc:	c398                	sw	a4,0(a5)
/home/nicoladgg/wsFreedomStudio/SiFive_HiFive_RevB_Projects/src/./include/devices/gpio.h:121
    GPIO_REG(GPIO_OUTPUT_XOR) &= ~(1 << gpio);
200114ce:	100127b7          	lui	a5,0x10012
200114d2:	04078793          	addi	a5,a5,64 # 10012040 <metal_segment_itim_target_end+0x8012040>
200114d6:	4398                	lw	a4,0(a5)
200114d8:	fec42783          	lw	a5,-20(s0)
200114dc:	4685                	li	a3,1
200114de:	00f697b3          	sll	a5,a3,a5
200114e2:	fff7c793          	not	a5,a5
200114e6:	86be                	mv	a3,a5
200114e8:	100127b7          	lui	a5,0x10012
200114ec:	04078793          	addi	a5,a5,64 # 10012040 <metal_segment_itim_target_end+0x8012040>
200114f0:	8f75                	and	a4,a4,a3
200114f2:	c398                	sw	a4,0(a5)
/home/nicoladgg/wsFreedomStudio/SiFive_HiFive_RevB_Projects/src/./include/devices/gpio.h:123

    if (pup == GPIO_PUP_EN)
200114f4:	fd842703          	lw	a4,-40(s0)
200114f8:	4785                	li	a5,1
200114fa:	02f71263          	bne	a4,a5,2001151e <gpio_init_input+0xe2>
/home/nicoladgg/wsFreedomStudio/SiFive_HiFive_RevB_Projects/src/./include/devices/gpio.h:125
    {
        GPIO_REG(GPIO_PULLUP_EN) |= (1 << gpio);
200114fe:	100127b7          	lui	a5,0x10012
20011502:	07c1                	addi	a5,a5,16
20011504:	4398                	lw	a4,0(a5)
20011506:	fec42783          	lw	a5,-20(s0)
2001150a:	4685                	li	a3,1
2001150c:	00f697b3          	sll	a5,a3,a5
20011510:	86be                	mv	a3,a5
20011512:	100127b7          	lui	a5,0x10012
20011516:	07c1                	addi	a5,a5,16
20011518:	8f55                	or	a4,a4,a3
2001151a:	c398                	sw	a4,0(a5)
2001151c:	a805                	j	2001154c <gpio_init_input+0x110>
/home/nicoladgg/wsFreedomStudio/SiFive_HiFive_RevB_Projects/src/./include/devices/gpio.h:127
    }
    else if (pup == GPIO_PUP_DIS)
2001151e:	fd842783          	lw	a5,-40(s0)
20011522:	e39d                	bnez	a5,20011548 <gpio_init_input+0x10c>
/home/nicoladgg/wsFreedomStudio/SiFive_HiFive_RevB_Projects/src/./include/devices/gpio.h:129
    {
        GPIO_REG(GPIO_PULLUP_EN) &= ~(1 << gpio);
20011524:	100127b7          	lui	a5,0x10012
20011528:	07c1                	addi	a5,a5,16
2001152a:	4398                	lw	a4,0(a5)
2001152c:	fec42783          	lw	a5,-20(s0)
20011530:	4685                	li	a3,1
20011532:	00f697b3          	sll	a5,a3,a5
20011536:	fff7c793          	not	a5,a5
2001153a:	86be                	mv	a3,a5
2001153c:	100127b7          	lui	a5,0x10012
20011540:	07c1                	addi	a5,a5,16
20011542:	8f75                	and	a4,a4,a3
20011544:	c398                	sw	a4,0(a5)
20011546:	a019                	j	2001154c <gpio_init_input+0x110>
/home/nicoladgg/wsFreedomStudio/SiFive_HiFive_RevB_Projects/src/./include/devices/gpio.h:133
    }
    else
    {
        return -GPIO_ERR_NV;
20011548:	57fd                	li	a5,-1
2001154a:	a011                	j	2001154e <gpio_init_input+0x112>
/home/nicoladgg/wsFreedomStudio/SiFive_HiFive_RevB_Projects/src/./include/devices/gpio.h:136
    }

    return GPIO_OK;
2001154c:	4781                	li	a5,0
/home/nicoladgg/wsFreedomStudio/SiFive_HiFive_RevB_Projects/src/./include/devices/gpio.h:137
}
2001154e:	853e                	mv	a0,a5
20011550:	5432                	lw	s0,44(sp)
20011552:	6145                	addi	sp,sp,48
20011554:	8082                	ret

20011556 <gpio_interrupt_enable>:
gpio_interrupt_enable():
/home/nicoladgg/wsFreedomStudio/SiFive_HiFive_RevB_Projects/src/./include/devices/gpio.h:183
        return 0;
    }
}

int gpio_interrupt_enable(unsigned int pin, void *isr, unsigned int prio, gpio_int_t in)
{
20011556:	7179                	addi	sp,sp,-48
20011558:	d622                	sw	s0,44(sp)
2001155a:	1800                	addi	s0,sp,48
2001155c:	fca42e23          	sw	a0,-36(s0)
20011560:	fcb42c23          	sw	a1,-40(s0)
20011564:	fcc42a23          	sw	a2,-44(s0)
20011568:	fcd42823          	sw	a3,-48(s0)
/home/nicoladgg/wsFreedomStudio/SiFive_HiFive_RevB_Projects/src/./include/devices/gpio.h:184
    if (pin > MAXPIN - 1)
2001156c:	fdc42703          	lw	a4,-36(s0)
20011570:	47cd                	li	a5,19
20011572:	00e7f463          	bgeu	a5,a4,2001157a <gpio_interrupt_enable+0x24>
/home/nicoladgg/wsFreedomStudio/SiFive_HiFive_RevB_Projects/src/./include/devices/gpio.h:186
    {
        return -GPIO_ERR_NV;
20011576:	57fd                	li	a5,-1
20011578:	aa45                	j	20011728 <gpio_interrupt_enable+0x1d2>
/home/nicoladgg/wsFreedomStudio/SiFive_HiFive_RevB_Projects/src/./include/devices/gpio.h:188
    }
    if (prio > PLIC_ENABLE_SHIFT_PER_TARGET)
2001157a:	fd442703          	lw	a4,-44(s0)
2001157e:	479d                	li	a5,7
20011580:	00e7f463          	bgeu	a5,a4,20011588 <gpio_interrupt_enable+0x32>
/home/nicoladgg/wsFreedomStudio/SiFive_HiFive_RevB_Projects/src/./include/devices/gpio.h:190
    {
        return -GPIO_ERR_NV;
20011584:	57fd                	li	a5,-1
20011586:	a24d                	j	20011728 <gpio_interrupt_enable+0x1d2>
/home/nicoladgg/wsFreedomStudio/SiFive_HiFive_RevB_Projects/src/./include/devices/gpio.h:193
    }

    unsigned int gpio = variant_pin_map[pin].bit_pos;
20011588:	200107b7          	lui	a5,0x20010
2001158c:	36878713          	addi	a4,a5,872 # 20010368 <variant_pin_map>
20011590:	fdc42783          	lw	a5,-36(s0)
20011594:	078a                	slli	a5,a5,0x2
20011596:	97ba                	add	a5,a5,a4
20011598:	0017c783          	lbu	a5,1(a5)
2001159c:	fef42623          	sw	a5,-20(s0)
/home/nicoladgg/wsFreedomStudio/SiFive_HiFive_RevB_Projects/src/./include/devices/gpio.h:195

    irq_functions[IRQ_GPIO + gpio].irq_handler = isr;
200115a0:	fec42783          	lw	a5,-20(s0)
200115a4:	00878713          	addi	a4,a5,8
200115a8:	fd842683          	lw	a3,-40(s0)
200115ac:	800017b7          	lui	a5,0x80001
200115b0:	b6c78613          	addi	a2,a5,-1172 # 80000b6c <metal_segment_heap_target_end+0xfffff18c>
200115b4:	87ba                	mv	a5,a4
200115b6:	0786                	slli	a5,a5,0x1
200115b8:	97ba                	add	a5,a5,a4
200115ba:	078a                	slli	a5,a5,0x2
200115bc:	97b2                	add	a5,a5,a2
200115be:	c394                	sw	a3,0(a5)
/home/nicoladgg/wsFreedomStudio/SiFive_HiFive_RevB_Projects/src/./include/devices/gpio.h:196
    irq_functions[IRQ_GPIO + gpio].active = 1;
200115c0:	fec42783          	lw	a5,-20(s0)
200115c4:	00878713          	addi	a4,a5,8
200115c8:	800017b7          	lui	a5,0x80001
200115cc:	b6c78693          	addi	a3,a5,-1172 # 80000b6c <metal_segment_heap_target_end+0xfffff18c>
200115d0:	87ba                	mv	a5,a4
200115d2:	0786                	slli	a5,a5,0x1
200115d4:	97ba                	add	a5,a5,a4
200115d6:	078a                	slli	a5,a5,0x2
200115d8:	97b6                	add	a5,a5,a3
200115da:	4705                	li	a4,1
200115dc:	c3d8                	sw	a4,4(a5)
/home/nicoladgg/wsFreedomStudio/SiFive_HiFive_RevB_Projects/src/./include/devices/gpio.h:197
    irq_functions[IRQ_GPIO + gpio].priority = prio;
200115de:	fec42783          	lw	a5,-20(s0)
200115e2:	00878713          	addi	a4,a5,8
200115e6:	800017b7          	lui	a5,0x80001
200115ea:	b6c78693          	addi	a3,a5,-1172 # 80000b6c <metal_segment_heap_target_end+0xfffff18c>
200115ee:	87ba                	mv	a5,a4
200115f0:	0786                	slli	a5,a5,0x1
200115f2:	97ba                	add	a5,a5,a4
200115f4:	078a                	slli	a5,a5,0x2
200115f6:	97b6                	add	a5,a5,a3
200115f8:	fd442703          	lw	a4,-44(s0)
200115fc:	c798                	sw	a4,8(a5)
/home/nicoladgg/wsFreedomStudio/SiFive_HiFive_RevB_Projects/src/./include/devices/gpio.h:199

    if ((IRQ_GPIO + gpio) > PLIC_ENABLE_OFFSET_MAX)
200115fe:	fec42783          	lw	a5,-20(s0)
20011602:	00878713          	addi	a4,a5,8
20011606:	47fd                	li	a5,31
20011608:	02e7f363          	bgeu	a5,a4,2001162e <gpio_interrupt_enable+0xd8>
/home/nicoladgg/wsFreedomStudio/SiFive_HiFive_RevB_Projects/src/./include/devices/gpio.h:201
    {
        PLIC_REG(PLIC_ENABLE_OFFSET_2) |= (1 << (31 -IRQ_GPIO + gpio));
2001160c:	0c0027b7          	lui	a5,0xc002
20011610:	0791                	addi	a5,a5,4
20011612:	4398                	lw	a4,0(a5)
20011614:	fec42783          	lw	a5,-20(s0)
20011618:	07dd                	addi	a5,a5,23
2001161a:	4685                	li	a3,1
2001161c:	00f697b3          	sll	a5,a3,a5
20011620:	86be                	mv	a3,a5
20011622:	0c0027b7          	lui	a5,0xc002
20011626:	0791                	addi	a5,a5,4
20011628:	8f55                	or	a4,a4,a3
2001162a:	c398                	sw	a4,0(a5)
2001162c:	a839                	j	2001164a <gpio_interrupt_enable+0xf4>
/home/nicoladgg/wsFreedomStudio/SiFive_HiFive_RevB_Projects/src/./include/devices/gpio.h:205
    }
    else
    {
        PLIC_REG(PLIC_ENABLE_OFFSET) |= (1 << (IRQ_GPIO + gpio));
2001162e:	0c0027b7          	lui	a5,0xc002
20011632:	4398                	lw	a4,0(a5)
20011634:	fec42783          	lw	a5,-20(s0)
20011638:	07a1                	addi	a5,a5,8
2001163a:	4685                	li	a3,1
2001163c:	00f697b3          	sll	a5,a3,a5
20011640:	86be                	mv	a3,a5
20011642:	0c0027b7          	lui	a5,0xc002
20011646:	8f55                	or	a4,a4,a3
20011648:	c398                	sw	a4,0(a5)
/home/nicoladgg/wsFreedomStudio/SiFive_HiFive_RevB_Projects/src/./include/devices/gpio.h:208
    }

    PLIC_REG(PLIC_PRIORITY_OFFSET + 4 * (IRQ_GPIO + gpio)) = prio;
2001164a:	fec42703          	lw	a4,-20(s0)
2001164e:	030007b7          	lui	a5,0x3000
20011652:	07a1                	addi	a5,a5,8
20011654:	97ba                	add	a5,a5,a4
20011656:	078a                	slli	a5,a5,0x2
20011658:	873e                	mv	a4,a5
2001165a:	fd442783          	lw	a5,-44(s0)
2001165e:	c31c                	sw	a5,0(a4)
/home/nicoladgg/wsFreedomStudio/SiFive_HiFive_RevB_Projects/src/./include/devices/gpio.h:210

    switch(in)
20011660:	fd042703          	lw	a4,-48(s0)
20011664:	478d                	li	a5,3
20011666:	08f70e63          	beq	a4,a5,20011702 <gpio_interrupt_enable+0x1ac>
2001166a:	fd042703          	lw	a4,-48(s0)
2001166e:	478d                	li	a5,3
20011670:	0ae7eb63          	bltu	a5,a4,20011726 <gpio_interrupt_enable+0x1d0>
20011674:	fd042703          	lw	a4,-48(s0)
20011678:	4789                	li	a5,2
2001167a:	06f70263          	beq	a4,a5,200116de <gpio_interrupt_enable+0x188>
2001167e:	fd042703          	lw	a4,-48(s0)
20011682:	4789                	li	a5,2
20011684:	0ae7e163          	bltu	a5,a4,20011726 <gpio_interrupt_enable+0x1d0>
20011688:	fd042783          	lw	a5,-48(s0)
2001168c:	c799                	beqz	a5,2001169a <gpio_interrupt_enable+0x144>
2001168e:	fd042703          	lw	a4,-48(s0)
20011692:	4785                	li	a5,1
20011694:	02f70363          	beq	a4,a5,200116ba <gpio_interrupt_enable+0x164>
20011698:	a079                	j	20011726 <gpio_interrupt_enable+0x1d0>
/home/nicoladgg/wsFreedomStudio/SiFive_HiFive_RevB_Projects/src/./include/devices/gpio.h:213
    {
    case GPIO_RISE_EN:
    	GPIO_REG(GPIO_RISE_IE) |= (1 << gpio);
2001169a:	100127b7          	lui	a5,0x10012
2001169e:	07e1                	addi	a5,a5,24
200116a0:	4398                	lw	a4,0(a5)
200116a2:	fec42783          	lw	a5,-20(s0)
200116a6:	4685                	li	a3,1
200116a8:	00f697b3          	sll	a5,a3,a5
200116ac:	86be                	mv	a3,a5
200116ae:	100127b7          	lui	a5,0x10012
200116b2:	07e1                	addi	a5,a5,24
200116b4:	8f55                	or	a4,a4,a3
200116b6:	c398                	sw	a4,0(a5)
/home/nicoladgg/wsFreedomStudio/SiFive_HiFive_RevB_Projects/src/./include/devices/gpio.h:214
    	break;
200116b8:	a0bd                	j	20011726 <gpio_interrupt_enable+0x1d0>
/home/nicoladgg/wsFreedomStudio/SiFive_HiFive_RevB_Projects/src/./include/devices/gpio.h:217

    case GPIO_FALL_EN:
        	GPIO_REG(GPIO_FALL_IE) |= (1 << gpio);
200116ba:	100127b7          	lui	a5,0x10012
200116be:	02078793          	addi	a5,a5,32 # 10012020 <metal_segment_itim_target_end+0x8012020>
200116c2:	4398                	lw	a4,0(a5)
200116c4:	fec42783          	lw	a5,-20(s0)
200116c8:	4685                	li	a3,1
200116ca:	00f697b3          	sll	a5,a3,a5
200116ce:	86be                	mv	a3,a5
200116d0:	100127b7          	lui	a5,0x10012
200116d4:	02078793          	addi	a5,a5,32 # 10012020 <metal_segment_itim_target_end+0x8012020>
200116d8:	8f55                	or	a4,a4,a3
200116da:	c398                	sw	a4,0(a5)
/home/nicoladgg/wsFreedomStudio/SiFive_HiFive_RevB_Projects/src/./include/devices/gpio.h:218
        	break;
200116dc:	a0a9                	j	20011726 <gpio_interrupt_enable+0x1d0>
/home/nicoladgg/wsFreedomStudio/SiFive_HiFive_RevB_Projects/src/./include/devices/gpio.h:221

    case GPIO_HIGH_EN:
        	GPIO_REG(GPIO_HIGH_IE) |= (1 << gpio);
200116de:	100127b7          	lui	a5,0x10012
200116e2:	02878793          	addi	a5,a5,40 # 10012028 <metal_segment_itim_target_end+0x8012028>
200116e6:	4398                	lw	a4,0(a5)
200116e8:	fec42783          	lw	a5,-20(s0)
200116ec:	4685                	li	a3,1
200116ee:	00f697b3          	sll	a5,a3,a5
200116f2:	86be                	mv	a3,a5
200116f4:	100127b7          	lui	a5,0x10012
200116f8:	02878793          	addi	a5,a5,40 # 10012028 <metal_segment_itim_target_end+0x8012028>
200116fc:	8f55                	or	a4,a4,a3
200116fe:	c398                	sw	a4,0(a5)
/home/nicoladgg/wsFreedomStudio/SiFive_HiFive_RevB_Projects/src/./include/devices/gpio.h:222
        	break;
20011700:	a01d                	j	20011726 <gpio_interrupt_enable+0x1d0>
/home/nicoladgg/wsFreedomStudio/SiFive_HiFive_RevB_Projects/src/./include/devices/gpio.h:225

    case GPIO_LOW_EN:
        	GPIO_REG(GPIO_LOW_IE) |= (1 << gpio);
20011702:	100127b7          	lui	a5,0x10012
20011706:	03078793          	addi	a5,a5,48 # 10012030 <metal_segment_itim_target_end+0x8012030>
2001170a:	4398                	lw	a4,0(a5)
2001170c:	fec42783          	lw	a5,-20(s0)
20011710:	4685                	li	a3,1
20011712:	00f697b3          	sll	a5,a3,a5
20011716:	86be                	mv	a3,a5
20011718:	100127b7          	lui	a5,0x10012
2001171c:	03078793          	addi	a5,a5,48 # 10012030 <metal_segment_itim_target_end+0x8012030>
20011720:	8f55                	or	a4,a4,a3
20011722:	c398                	sw	a4,0(a5)
/home/nicoladgg/wsFreedomStudio/SiFive_HiFive_RevB_Projects/src/./include/devices/gpio.h:226
        	break;
20011724:	0001                	nop
/home/nicoladgg/wsFreedomStudio/SiFive_HiFive_RevB_Projects/src/./include/devices/gpio.h:229
    }

    return 0;
20011726:	4781                	li	a5,0
/home/nicoladgg/wsFreedomStudio/SiFive_HiFive_RevB_Projects/src/./include/devices/gpio.h:230
}
20011728:	853e                	mv	a0,a5
2001172a:	5432                	lw	s0,44(sp)
2001172c:	6145                	addi	sp,sp,48
2001172e:	8082                	ret

20011730 <set_freq_320MHz>:
set_freq_320MHz():
/home/nicoladgg/wsFreedomStudio/SiFive_HiFive_RevB_Projects/src/include/cpu_freq.h:34

    cpu_freq = 384000000;
}

void set_freq_320MHz()
{
20011730:	1141                	addi	sp,sp,-16
20011732:	c622                	sw	s0,12(sp)
20011734:	0800                	addi	s0,sp,16
/home/nicoladgg/wsFreedomStudio/SiFive_HiFive_RevB_Projects/src/include/cpu_freq.h:39
    /* Divide standard frequency by 2 PLL_R = 0b01 = 2,
	 * multiply by 80 PLL_F = 80/2-1 = M/2-1 = 39,
	 * divide by 2 PLL_Q = 1 = 0b01 = 2
	 */
    PRCI_REG(PRCI_PLLCFG) = PLL_R(1) | PLL_F(39) | PLL_Q(0b01) | PLL_REFSEL(1);
20011736:	100087b7          	lui	a5,0x10008
2001173a:	07a1                	addi	a5,a5,8
2001173c:	00020737          	lui	a4,0x20
20011740:	67170713          	addi	a4,a4,1649 # 20671 <__heap_size+0x1fe71>
20011744:	c398                	sw	a4,0(a5)
/home/nicoladgg/wsFreedomStudio/SiFive_HiFive_RevB_Projects/src/include/cpu_freq.h:41

    while (PRCI_REG(PRCI_PLLCFG) & PLL_LOCK(1) == 0)
20011746:	0001                	nop
20011748:	100087b7          	lui	a5,0x10008
2001174c:	07a1                	addi	a5,a5,8
2001174e:	439c                	lw	a5,0(a5)
/home/nicoladgg/wsFreedomStudio/SiFive_HiFive_RevB_Projects/src/include/cpu_freq.h:44
        ;

    PRCI_REG(PRCI_PLLCFG) |= PLL_SEL(1);
20011750:	100087b7          	lui	a5,0x10008
20011754:	07a1                	addi	a5,a5,8
20011756:	4394                	lw	a3,0(a5)
20011758:	100087b7          	lui	a5,0x10008
2001175c:	07a1                	addi	a5,a5,8
2001175e:	6741                	lui	a4,0x10
20011760:	8f55                	or	a4,a4,a3
20011762:	c398                	sw	a4,0(a5)
/home/nicoladgg/wsFreedomStudio/SiFive_HiFive_RevB_Projects/src/include/cpu_freq.h:46

    cpu_freq = 320000000;
20011764:	800017b7          	lui	a5,0x80001
20011768:	1312d737          	lui	a4,0x1312d
2001176c:	aae7a023          	sw	a4,-1376(a5) # 80000aa0 <metal_segment_heap_target_end+0xfffff0c0>
/home/nicoladgg/wsFreedomStudio/SiFive_HiFive_RevB_Projects/src/include/cpu_freq.h:47
}
20011770:	0001                	nop
20011772:	4432                	lw	s0,12(sp)
20011774:	0141                	addi	sp,sp,16
20011776:	8082                	ret

20011778 <main>:
main():
/home/nicoladgg/wsFreedomStudio/SiFive_HiFive_RevB_Projects/src/main.c:14
#define PIN		    3

void handler();

int main (void)
{
20011778:	1101                	addi	sp,sp,-32
2001177a:	ce06                	sw	ra,28(sp)
2001177c:	cc22                	sw	s0,24(sp)
2001177e:	1000                	addi	s0,sp,32
/home/nicoladgg/wsFreedomStudio/SiFive_HiFive_RevB_Projects/src/main.c:17
    int rc;

    set_freq_320MHz();
20011780:	3f45                	jal	20011730 <set_freq_320MHz>
/home/nicoladgg/wsFreedomStudio/SiFive_HiFive_RevB_Projects/src/main.c:19

    rc = interrupt_enable();
20011782:	36b5                	jal	200112ee <interrupt_enable>
20011784:	fea42423          	sw	a0,-24(s0)
/home/nicoladgg/wsFreedomStudio/SiFive_HiFive_RevB_Projects/src/main.c:21

    gpio_interrupt_enable(PIN, handler, 5, GPIO_FALL_EN);
20011788:	4685                	li	a3,1
2001178a:	4615                	li	a2,5
2001178c:	200117b7          	lui	a5,0x20011
20011790:	7c678593          	addi	a1,a5,1990 # 200117c6 <handler>
20011794:	450d                	li	a0,3
20011796:	33c1                	jal	20011556 <gpio_interrupt_enable>
/home/nicoladgg/wsFreedomStudio/SiFive_HiFive_RevB_Projects/src/main.c:23

    rc = gpio_init_input(PIN, GPIO_PUP_EN);
20011798:	4585                	li	a1,1
2001179a:	450d                	li	a0,3
2001179c:	3145                	jal	2001143c <gpio_init_input>
2001179e:	fea42423          	sw	a0,-24(s0)
/home/nicoladgg/wsFreedomStudio/SiFive_HiFive_RevB_Projects/src/main.c:25

    for(int i = 0; i < 100000; i++)
200117a2:	fe042623          	sw	zero,-20(s0)
200117a6:	a031                	j	200117b2 <main+0x3a>
/home/nicoladgg/wsFreedomStudio/SiFive_HiFive_RevB_Projects/src/main.c:25 (discriminator 3)
200117a8:	fec42783          	lw	a5,-20(s0)
200117ac:	0785                	addi	a5,a5,1
200117ae:	fef42623          	sw	a5,-20(s0)
/home/nicoladgg/wsFreedomStudio/SiFive_HiFive_RevB_Projects/src/main.c:25 (discriminator 1)
200117b2:	fec42703          	lw	a4,-20(s0)
200117b6:	67e1                	lui	a5,0x18
200117b8:	69f78793          	addi	a5,a5,1695 # 1869f <__heap_size+0x17e9f>
200117bc:	fee7d6e3          	bge	a5,a4,200117a8 <main+0x30>
/home/nicoladgg/wsFreedomStudio/SiFive_HiFive_RevB_Projects/src/main.c:28
    	;

    __asm__ volatile ("wfi");
200117c0:	10500073          	wfi
/home/nicoladgg/wsFreedomStudio/SiFive_HiFive_RevB_Projects/src/main.c:30 (discriminator 1)

    while (1)
200117c4:	a001                	j	200117c4 <main+0x4c>

200117c6 <handler>:
handler():
/home/nicoladgg/wsFreedomStudio/SiFive_HiFive_RevB_Projects/src/main.c:39

    return 0;
}

void handler()
{
200117c6:	1101                	addi	sp,sp,-32
200117c8:	ce06                	sw	ra,28(sp)
200117ca:	cc22                	sw	s0,24(sp)
200117cc:	1000                	addi	s0,sp,32
/home/nicoladgg/wsFreedomStudio/SiFive_HiFive_RevB_Projects/src/main.c:40
    printf("Interrupt taken");
200117ce:	200107b7          	lui	a5,0x20010
200117d2:	3b878513          	addi	a0,a5,952 # 200103b8 <variant_pin_map+0x50>
200117d6:	2025                	jal	200117fe <iprintf>
/home/nicoladgg/wsFreedomStudio/SiFive_HiFive_RevB_Projects/src/main.c:41
    uint32_t in = GPIO_REG(GPIO_FALL_IP);
200117d8:	100127b7          	lui	a5,0x10012
200117dc:	02478793          	addi	a5,a5,36 # 10012024 <metal_segment_itim_target_end+0x8012024>
200117e0:	439c                	lw	a5,0(a5)
200117e2:	fef42623          	sw	a5,-20(s0)
/home/nicoladgg/wsFreedomStudio/SiFive_HiFive_RevB_Projects/src/main.c:43

    GPIO_REG(GPIO_FALL_IP) = in;
200117e6:	100127b7          	lui	a5,0x10012
200117ea:	02478793          	addi	a5,a5,36 # 10012024 <metal_segment_itim_target_end+0x8012024>
200117ee:	fec42703          	lw	a4,-20(s0)
200117f2:	c398                	sw	a4,0(a5)
/home/nicoladgg/wsFreedomStudio/SiFive_HiFive_RevB_Projects/src/main.c:44
}
200117f4:	0001                	nop
200117f6:	40f2                	lw	ra,28(sp)
200117f8:	4462                	lw	s0,24(sp)
200117fa:	6105                	addi	sp,sp,32
200117fc:	8082                	ret

200117fe <iprintf>:
printf():
200117fe:	715d                	addi	sp,sp,-80
20011800:	d422                	sw	s0,40(sp)
20011802:	d606                	sw	ra,44(sp)
20011804:	842a                	mv	s0,a0
20011806:	da2e                	sw	a1,52(sp)
20011808:	dc32                	sw	a2,56(sp)
2001180a:	de36                	sw	a3,60(sp)
2001180c:	c0ba                	sw	a4,64(sp)
2001180e:	c2be                	sw	a5,68(sp)
20011810:	c4c2                	sw	a6,72(sp)
20011812:	c6c6                	sw	a7,76(sp)
20011814:	5ffef517          	auipc	a0,0x5ffef
20011818:	29052503          	lw	a0,656(a0) # 80000aa4 <_impure_ptr>
2001181c:	c511                	beqz	a0,20011828 <iprintf+0x2a>
2001181e:	4d1c                	lw	a5,24(a0)
20011820:	e781                	bnez	a5,20011828 <iprintf+0x2a>
20011822:	c62a                	sw	a0,12(sp)
20011824:	20f1                	jal	200118f0 <__sinit>
20011826:	4532                	lw	a0,12(sp)
20011828:	450c                	lw	a1,8(a0)
2001182a:	1854                	addi	a3,sp,52
2001182c:	8622                	mv	a2,s0
2001182e:	ce36                	sw	a3,28(sp)
20011830:	2105                	jal	20011c50 <_vfiprintf_r>
20011832:	50b2                	lw	ra,44(sp)
20011834:	5422                	lw	s0,40(sp)
20011836:	6161                	addi	sp,sp,80
20011838:	8082                	ret

2001183a <std>:
std():
2001183a:	1141                	addi	sp,sp,-16
2001183c:	c422                	sw	s0,8(sp)
2001183e:	c606                	sw	ra,12(sp)
20011840:	842a                	mv	s0,a0
20011842:	00b51623          	sh	a1,12(a0)
20011846:	00c51723          	sh	a2,14(a0)
2001184a:	00052023          	sw	zero,0(a0)
2001184e:	00052223          	sw	zero,4(a0)
20011852:	00052423          	sw	zero,8(a0)
20011856:	06052223          	sw	zero,100(a0)
2001185a:	00052823          	sw	zero,16(a0)
2001185e:	00052a23          	sw	zero,20(a0)
20011862:	00052c23          	sw	zero,24(a0)
20011866:	4621                	li	a2,8
20011868:	4581                	li	a1,0
2001186a:	05c50513          	addi	a0,a0,92
2001186e:	2acd                	jal	20011a60 <memset>
20011870:	00000797          	auipc	a5,0x0
20011874:	6a678793          	addi	a5,a5,1702 # 20011f16 <__sread>
20011878:	d05c                	sw	a5,36(s0)
2001187a:	00000797          	auipc	a5,0x0
2001187e:	6ce78793          	addi	a5,a5,1742 # 20011f48 <__swrite>
20011882:	d41c                	sw	a5,40(s0)
20011884:	00000797          	auipc	a5,0x0
20011888:	71278793          	addi	a5,a5,1810 # 20011f96 <__sseek>
2001188c:	d45c                	sw	a5,44(s0)
2001188e:	00000797          	auipc	a5,0x0
20011892:	73e78793          	addi	a5,a5,1854 # 20011fcc <__sclose>
20011896:	40b2                	lw	ra,12(sp)
20011898:	d000                	sw	s0,32(s0)
2001189a:	d81c                	sw	a5,48(s0)
2001189c:	4422                	lw	s0,8(sp)
2001189e:	0141                	addi	sp,sp,16
200118a0:	8082                	ret

200118a2 <_cleanup_r>:
_cleanup_r():
200118a2:	00001597          	auipc	a1,0x1
200118a6:	aa858593          	addi	a1,a1,-1368 # 2001234a <_fflush_r>
200118aa:	a2b1                	j	200119f6 <_fwalk_reent>

200118ac <__sfmoreglue>:
__sfmoreglue():
200118ac:	1141                	addi	sp,sp,-16
200118ae:	c226                	sw	s1,4(sp)
200118b0:	06800613          	li	a2,104
200118b4:	fff58493          	addi	s1,a1,-1
200118b8:	02c484b3          	mul	s1,s1,a2
200118bc:	c04a                	sw	s2,0(sp)
200118be:	892e                	mv	s2,a1
200118c0:	c422                	sw	s0,8(sp)
200118c2:	c606                	sw	ra,12(sp)
200118c4:	07448593          	addi	a1,s1,116
200118c8:	2481                	jal	20011b08 <_malloc_r>
200118ca:	842a                	mv	s0,a0
200118cc:	c919                	beqz	a0,200118e2 <__sfmoreglue+0x36>
200118ce:	00052023          	sw	zero,0(a0)
200118d2:	01252223          	sw	s2,4(a0)
200118d6:	0531                	addi	a0,a0,12
200118d8:	c408                	sw	a0,8(s0)
200118da:	06848613          	addi	a2,s1,104
200118de:	4581                	li	a1,0
200118e0:	2241                	jal	20011a60 <memset>
200118e2:	40b2                	lw	ra,12(sp)
200118e4:	8522                	mv	a0,s0
200118e6:	4422                	lw	s0,8(sp)
200118e8:	4492                	lw	s1,4(sp)
200118ea:	4902                	lw	s2,0(sp)
200118ec:	0141                	addi	sp,sp,16
200118ee:	8082                	ret

200118f0 <__sinit>:
__sinit():
200118f0:	4d1c                	lw	a5,24(a0)
200118f2:	e3bd                	bnez	a5,20011958 <__sinit+0x68>
200118f4:	1141                	addi	sp,sp,-16
200118f6:	c422                	sw	s0,8(sp)
200118f8:	c606                	sw	ra,12(sp)
200118fa:	00000797          	auipc	a5,0x0
200118fe:	fa878793          	addi	a5,a5,-88 # 200118a2 <_cleanup_r>
20011902:	d51c                	sw	a5,40(a0)
20011904:	04052423          	sw	zero,72(a0)
20011908:	04052623          	sw	zero,76(a0)
2001190c:	04052823          	sw	zero,80(a0)
20011910:	00000797          	auipc	a5,0x0
20011914:	8787a783          	lw	a5,-1928(a5) # 20011188 <_global_impure_ptr>
20011918:	842a                	mv	s0,a0
2001191a:	00f51463          	bne	a0,a5,20011922 <__sinit+0x32>
2001191e:	4785                	li	a5,1
20011920:	cd1c                	sw	a5,24(a0)
20011922:	8522                	mv	a0,s0
20011924:	281d                	jal	2001195a <__sfp>
20011926:	c048                	sw	a0,4(s0)
20011928:	8522                	mv	a0,s0
2001192a:	2805                	jal	2001195a <__sfp>
2001192c:	c408                	sw	a0,8(s0)
2001192e:	8522                	mv	a0,s0
20011930:	202d                	jal	2001195a <__sfp>
20011932:	c448                	sw	a0,12(s0)
20011934:	4048                	lw	a0,4(s0)
20011936:	4601                	li	a2,0
20011938:	4591                	li	a1,4
2001193a:	3701                	jal	2001183a <std>
2001193c:	4408                	lw	a0,8(s0)
2001193e:	4605                	li	a2,1
20011940:	45a5                	li	a1,9
20011942:	3de5                	jal	2001183a <std>
20011944:	4448                	lw	a0,12(s0)
20011946:	4609                	li	a2,2
20011948:	45c9                	li	a1,18
2001194a:	3dc5                	jal	2001183a <std>
2001194c:	4785                	li	a5,1
2001194e:	40b2                	lw	ra,12(sp)
20011950:	cc1c                	sw	a5,24(s0)
20011952:	4422                	lw	s0,8(sp)
20011954:	0141                	addi	sp,sp,16
20011956:	8082                	ret
20011958:	8082                	ret

2001195a <__sfp>:
__sfp():
2001195a:	1141                	addi	sp,sp,-16
2001195c:	c226                	sw	s1,4(sp)
2001195e:	00000497          	auipc	s1,0x0
20011962:	82a4a483          	lw	s1,-2006(s1) # 20011188 <_global_impure_ptr>
20011966:	4c9c                	lw	a5,24(s1)
20011968:	c04a                	sw	s2,0(sp)
2001196a:	c606                	sw	ra,12(sp)
2001196c:	c422                	sw	s0,8(sp)
2001196e:	892a                	mv	s2,a0
20011970:	e399                	bnez	a5,20011976 <__sfp+0x1c>
20011972:	8526                	mv	a0,s1
20011974:	3fb5                	jal	200118f0 <__sinit>
20011976:	04848493          	addi	s1,s1,72
2001197a:	4480                	lw	s0,8(s1)
2001197c:	40dc                	lw	a5,4(s1)
2001197e:	17fd                	addi	a5,a5,-1
20011980:	0007d663          	bgez	a5,2001198c <__sfp+0x32>
20011984:	409c                	lw	a5,0(s1)
20011986:	cfb1                	beqz	a5,200119e2 <__sfp+0x88>
20011988:	4084                	lw	s1,0(s1)
2001198a:	bfc5                	j	2001197a <__sfp+0x20>
2001198c:	00c41703          	lh	a4,12(s0)
20011990:	e731                	bnez	a4,200119dc <__sfp+0x82>
20011992:	77c1                	lui	a5,0xffff0
20011994:	0785                	addi	a5,a5,1
20011996:	06042223          	sw	zero,100(s0)
2001199a:	00042023          	sw	zero,0(s0)
2001199e:	00042223          	sw	zero,4(s0)
200119a2:	00042423          	sw	zero,8(s0)
200119a6:	c45c                	sw	a5,12(s0)
200119a8:	00042823          	sw	zero,16(s0)
200119ac:	00042a23          	sw	zero,20(s0)
200119b0:	00042c23          	sw	zero,24(s0)
200119b4:	4621                	li	a2,8
200119b6:	4581                	li	a1,0
200119b8:	05c40513          	addi	a0,s0,92
200119bc:	2055                	jal	20011a60 <memset>
200119be:	02042a23          	sw	zero,52(s0)
200119c2:	02042c23          	sw	zero,56(s0)
200119c6:	04042423          	sw	zero,72(s0)
200119ca:	04042623          	sw	zero,76(s0)
200119ce:	40b2                	lw	ra,12(sp)
200119d0:	8522                	mv	a0,s0
200119d2:	4422                	lw	s0,8(sp)
200119d4:	4492                	lw	s1,4(sp)
200119d6:	4902                	lw	s2,0(sp)
200119d8:	0141                	addi	sp,sp,16
200119da:	8082                	ret
200119dc:	06840413          	addi	s0,s0,104
200119e0:	bf79                	j	2001197e <__sfp+0x24>
200119e2:	4591                	li	a1,4
200119e4:	854a                	mv	a0,s2
200119e6:	35d9                	jal	200118ac <__sfmoreglue>
200119e8:	c088                	sw	a0,0(s1)
200119ea:	842a                	mv	s0,a0
200119ec:	fd51                	bnez	a0,20011988 <__sfp+0x2e>
200119ee:	47b1                	li	a5,12
200119f0:	00f92023          	sw	a5,0(s2)
200119f4:	bfe9                	j	200119ce <__sfp+0x74>

200119f6 <_fwalk_reent>:
_fwalk_reent():
200119f6:	7179                	addi	sp,sp,-48
200119f8:	d422                	sw	s0,40(sp)
200119fa:	d04a                	sw	s2,32(sp)
200119fc:	ce4e                	sw	s3,28(sp)
200119fe:	cc52                	sw	s4,24(sp)
20011a00:	c85a                	sw	s6,16(sp)
20011a02:	c65e                	sw	s7,12(sp)
20011a04:	d606                	sw	ra,44(sp)
20011a06:	d226                	sw	s1,36(sp)
20011a08:	ca56                	sw	s5,20(sp)
20011a0a:	892a                	mv	s2,a0
20011a0c:	8a2e                	mv	s4,a1
20011a0e:	04850413          	addi	s0,a0,72
20011a12:	4981                	li	s3,0
20011a14:	4b05                	li	s6,1
20011a16:	5bfd                	li	s7,-1
20011a18:	4404                	lw	s1,8(s0)
20011a1a:	00442a83          	lw	s5,4(s0)
20011a1e:	1afd                	addi	s5,s5,-1
20011a20:	020ad063          	bgez	s5,20011a40 <_fwalk_reent+0x4a>
20011a24:	4000                	lw	s0,0(s0)
20011a26:	f86d                	bnez	s0,20011a18 <_fwalk_reent+0x22>
20011a28:	50b2                	lw	ra,44(sp)
20011a2a:	5422                	lw	s0,40(sp)
20011a2c:	5492                	lw	s1,36(sp)
20011a2e:	5902                	lw	s2,32(sp)
20011a30:	4a62                	lw	s4,24(sp)
20011a32:	4ad2                	lw	s5,20(sp)
20011a34:	4b42                	lw	s6,16(sp)
20011a36:	4bb2                	lw	s7,12(sp)
20011a38:	854e                	mv	a0,s3
20011a3a:	49f2                	lw	s3,28(sp)
20011a3c:	6145                	addi	sp,sp,48
20011a3e:	8082                	ret
20011a40:	00c4d783          	lhu	a5,12(s1)
20011a44:	00fb7b63          	bgeu	s6,a5,20011a5a <_fwalk_reent+0x64>
20011a48:	00e49783          	lh	a5,14(s1)
20011a4c:	01778763          	beq	a5,s7,20011a5a <_fwalk_reent+0x64>
20011a50:	85a6                	mv	a1,s1
20011a52:	854a                	mv	a0,s2
20011a54:	9a02                	jalr	s4
20011a56:	00a9e9b3          	or	s3,s3,a0
20011a5a:	06848493          	addi	s1,s1,104
20011a5e:	b7c1                	j	20011a1e <_fwalk_reent+0x28>

20011a60 <memset>:
memset():
20011a60:	433d                	li	t1,15
20011a62:	872a                	mv	a4,a0
20011a64:	02c37363          	bgeu	t1,a2,20011a8a <memset+0x2a>
20011a68:	00f77793          	andi	a5,a4,15
20011a6c:	efbd                	bnez	a5,20011aea <memset+0x8a>
20011a6e:	e5ad                	bnez	a1,20011ad8 <memset+0x78>
20011a70:	ff067693          	andi	a3,a2,-16
20011a74:	8a3d                	andi	a2,a2,15
20011a76:	96ba                	add	a3,a3,a4
20011a78:	c30c                	sw	a1,0(a4)
20011a7a:	c34c                	sw	a1,4(a4)
20011a7c:	c70c                	sw	a1,8(a4)
20011a7e:	c74c                	sw	a1,12(a4)
20011a80:	0741                	addi	a4,a4,16
20011a82:	fed76be3          	bltu	a4,a3,20011a78 <memset+0x18>
20011a86:	e211                	bnez	a2,20011a8a <memset+0x2a>
20011a88:	8082                	ret
20011a8a:	40c306b3          	sub	a3,t1,a2
20011a8e:	068a                	slli	a3,a3,0x2
20011a90:	00000297          	auipc	t0,0x0
20011a94:	9696                	add	a3,a3,t0
20011a96:	00a68067          	jr	10(a3)
20011a9a:	00b70723          	sb	a1,14(a4) # 1312d00e <metal_segment_itim_target_end+0xb12d00e>
20011a9e:	00b706a3          	sb	a1,13(a4)
20011aa2:	00b70623          	sb	a1,12(a4)
20011aa6:	00b705a3          	sb	a1,11(a4)
20011aaa:	00b70523          	sb	a1,10(a4)
20011aae:	00b704a3          	sb	a1,9(a4)
20011ab2:	00b70423          	sb	a1,8(a4)
20011ab6:	00b703a3          	sb	a1,7(a4)
20011aba:	00b70323          	sb	a1,6(a4)
20011abe:	00b702a3          	sb	a1,5(a4)
20011ac2:	00b70223          	sb	a1,4(a4)
20011ac6:	00b701a3          	sb	a1,3(a4)
20011aca:	00b70123          	sb	a1,2(a4)
20011ace:	00b700a3          	sb	a1,1(a4)
20011ad2:	00b70023          	sb	a1,0(a4)
20011ad6:	8082                	ret
20011ad8:	0ff5f593          	zext.b	a1,a1
20011adc:	00859693          	slli	a3,a1,0x8
20011ae0:	8dd5                	or	a1,a1,a3
20011ae2:	01059693          	slli	a3,a1,0x10
20011ae6:	8dd5                	or	a1,a1,a3
20011ae8:	b761                	j	20011a70 <memset+0x10>
20011aea:	00279693          	slli	a3,a5,0x2
20011aee:	00000297          	auipc	t0,0x0
20011af2:	9696                	add	a3,a3,t0
20011af4:	8286                	mv	t0,ra
20011af6:	fa8680e7          	jalr	-88(a3)
20011afa:	8096                	mv	ra,t0
20011afc:	17c1                	addi	a5,a5,-16
20011afe:	8f1d                	sub	a4,a4,a5
20011b00:	963e                	add	a2,a2,a5
20011b02:	f8c374e3          	bgeu	t1,a2,20011a8a <memset+0x2a>
20011b06:	b7a5                	j	20011a6e <memset+0xe>

20011b08 <_malloc_r>:
_malloc_r():
20011b08:	1101                	addi	sp,sp,-32
20011b0a:	ca26                	sw	s1,20(sp)
20011b0c:	00358493          	addi	s1,a1,3
20011b10:	98f1                	andi	s1,s1,-4
20011b12:	c84a                	sw	s2,16(sp)
20011b14:	ce06                	sw	ra,28(sp)
20011b16:	cc22                	sw	s0,24(sp)
20011b18:	c64e                	sw	s3,12(sp)
20011b1a:	04a1                	addi	s1,s1,8
20011b1c:	47b1                	li	a5,12
20011b1e:	892a                	mv	s2,a0
20011b20:	04f4f663          	bgeu	s1,a5,20011b6c <_malloc_r+0x64>
20011b24:	44b1                	li	s1,12
20011b26:	04b4e563          	bltu	s1,a1,20011b70 <_malloc_r+0x68>
20011b2a:	854a                	mv	a0,s2
20011b2c:	1cb000ef          	jal	ra,200124f6 <__malloc_lock>
20011b30:	5ffef697          	auipc	a3,0x5ffef
20011b34:	f9868693          	addi	a3,a3,-104 # 80000ac8 <__malloc_free_list>
20011b38:	4298                	lw	a4,0(a3)
20011b3a:	843a                	mv	s0,a4
20011b3c:	e429                	bnez	s0,20011b86 <_malloc_r+0x7e>
20011b3e:	5ffef417          	auipc	s0,0x5ffef
20011b42:	f8e40413          	addi	s0,s0,-114 # 80000acc <__malloc_sbrk_start>
20011b46:	401c                	lw	a5,0(s0)
20011b48:	e789                	bnez	a5,20011b52 <_malloc_r+0x4a>
20011b4a:	4581                	li	a1,0
20011b4c:	854a                	mv	a0,s2
20011b4e:	2e61                	jal	20011ee6 <_sbrk_r>
20011b50:	c008                	sw	a0,0(s0)
20011b52:	85a6                	mv	a1,s1
20011b54:	854a                	mv	a0,s2
20011b56:	2e41                	jal	20011ee6 <_sbrk_r>
20011b58:	59fd                	li	s3,-1
20011b5a:	07351a63          	bne	a0,s3,20011bce <_malloc_r+0xc6>
20011b5e:	47b1                	li	a5,12
20011b60:	00f92023          	sw	a5,0(s2)
20011b64:	854a                	mv	a0,s2
20011b66:	193000ef          	jal	ra,200124f8 <__malloc_unlock>
20011b6a:	a031                	j	20011b76 <_malloc_r+0x6e>
20011b6c:	fa04dde3          	bgez	s1,20011b26 <_malloc_r+0x1e>
20011b70:	47b1                	li	a5,12
20011b72:	00f92023          	sw	a5,0(s2)
20011b76:	4501                	li	a0,0
20011b78:	40f2                	lw	ra,28(sp)
20011b7a:	4462                	lw	s0,24(sp)
20011b7c:	44d2                	lw	s1,20(sp)
20011b7e:	4942                	lw	s2,16(sp)
20011b80:	49b2                	lw	s3,12(sp)
20011b82:	6105                	addi	sp,sp,32
20011b84:	8082                	ret
20011b86:	401c                	lw	a5,0(s0)
20011b88:	8f85                	sub	a5,a5,s1
20011b8a:	0207cf63          	bltz	a5,20011bc8 <_malloc_r+0xc0>
20011b8e:	462d                	li	a2,11
20011b90:	00f67663          	bgeu	a2,a5,20011b9c <_malloc_r+0x94>
20011b94:	c01c                	sw	a5,0(s0)
20011b96:	943e                	add	s0,s0,a5
20011b98:	c004                	sw	s1,0(s0)
20011b9a:	a029                	j	20011ba4 <_malloc_r+0x9c>
20011b9c:	405c                	lw	a5,4(s0)
20011b9e:	02871363          	bne	a4,s0,20011bc4 <_malloc_r+0xbc>
20011ba2:	c29c                	sw	a5,0(a3)
20011ba4:	854a                	mv	a0,s2
20011ba6:	153000ef          	jal	ra,200124f8 <__malloc_unlock>
20011baa:	00b40513          	addi	a0,s0,11
20011bae:	00440793          	addi	a5,s0,4
20011bb2:	9961                	andi	a0,a0,-8
20011bb4:	40f50733          	sub	a4,a0,a5
20011bb8:	fcf500e3          	beq	a0,a5,20011b78 <_malloc_r+0x70>
20011bbc:	943a                	add	s0,s0,a4
20011bbe:	8f89                	sub	a5,a5,a0
20011bc0:	c01c                	sw	a5,0(s0)
20011bc2:	bf5d                	j	20011b78 <_malloc_r+0x70>
20011bc4:	c35c                	sw	a5,4(a4)
20011bc6:	bff9                	j	20011ba4 <_malloc_r+0x9c>
20011bc8:	8722                	mv	a4,s0
20011bca:	4040                	lw	s0,4(s0)
20011bcc:	bf85                	j	20011b3c <_malloc_r+0x34>
20011bce:	00350413          	addi	s0,a0,3
20011bd2:	9871                	andi	s0,s0,-4
20011bd4:	fc8502e3          	beq	a0,s0,20011b98 <_malloc_r+0x90>
20011bd8:	40a405b3          	sub	a1,s0,a0
20011bdc:	854a                	mv	a0,s2
20011bde:	2621                	jal	20011ee6 <_sbrk_r>
20011be0:	fb351ce3          	bne	a0,s3,20011b98 <_malloc_r+0x90>
20011be4:	bfad                	j	20011b5e <_malloc_r+0x56>

20011be6 <__sfputc_r>:
__sfputc_r():
20011be6:	461c                	lw	a5,8(a2)
20011be8:	17fd                	addi	a5,a5,-1
20011bea:	c61c                	sw	a5,8(a2)
20011bec:	0007d963          	bgez	a5,20011bfe <__sfputc_r+0x18>
20011bf0:	4e18                	lw	a4,24(a2)
20011bf2:	00e7c563          	blt	a5,a4,20011bfc <__sfputc_r+0x16>
20011bf6:	47a9                	li	a5,10
20011bf8:	00f59363          	bne	a1,a5,20011bfe <__sfputc_r+0x18>
20011bfc:	aed9                	j	20011fd2 <__swbuf_r>
20011bfe:	421c                	lw	a5,0(a2)
20011c00:	852e                	mv	a0,a1
20011c02:	00178713          	addi	a4,a5,1 # ffff0001 <metal_segment_heap_target_end+0x7ffee621>
20011c06:	c218                	sw	a4,0(a2)
20011c08:	00b78023          	sb	a1,0(a5)
20011c0c:	8082                	ret

20011c0e <__sfputs_r>:
__sfputs_r():
20011c0e:	1101                	addi	sp,sp,-32
20011c10:	cc22                	sw	s0,24(sp)
20011c12:	ca26                	sw	s1,20(sp)
20011c14:	c84a                	sw	s2,16(sp)
20011c16:	c64e                	sw	s3,12(sp)
20011c18:	c452                	sw	s4,8(sp)
20011c1a:	ce06                	sw	ra,28(sp)
20011c1c:	892a                	mv	s2,a0
20011c1e:	89ae                	mv	s3,a1
20011c20:	8432                	mv	s0,a2
20011c22:	00d604b3          	add	s1,a2,a3
20011c26:	5a7d                	li	s4,-1
20011c28:	00941463          	bne	s0,s1,20011c30 <__sfputs_r+0x22>
20011c2c:	4501                	li	a0,0
20011c2e:	a809                	j	20011c40 <__sfputs_r+0x32>
20011c30:	00044583          	lbu	a1,0(s0)
20011c34:	864e                	mv	a2,s3
20011c36:	854a                	mv	a0,s2
20011c38:	377d                	jal	20011be6 <__sfputc_r>
20011c3a:	0405                	addi	s0,s0,1
20011c3c:	ff4516e3          	bne	a0,s4,20011c28 <__sfputs_r+0x1a>
20011c40:	40f2                	lw	ra,28(sp)
20011c42:	4462                	lw	s0,24(sp)
20011c44:	44d2                	lw	s1,20(sp)
20011c46:	4942                	lw	s2,16(sp)
20011c48:	49b2                	lw	s3,12(sp)
20011c4a:	4a22                	lw	s4,8(sp)
20011c4c:	6105                	addi	sp,sp,32
20011c4e:	8082                	ret

20011c50 <_vfiprintf_r>:
_vfiprintf_r():
20011c50:	7135                	addi	sp,sp,-160
20011c52:	cd22                	sw	s0,152(sp)
20011c54:	cb26                	sw	s1,148(sp)
20011c56:	c94a                	sw	s2,144(sp)
20011c58:	c74e                	sw	s3,140(sp)
20011c5a:	cf06                	sw	ra,156(sp)
20011c5c:	c552                	sw	s4,136(sp)
20011c5e:	c356                	sw	s5,132(sp)
20011c60:	c15a                	sw	s6,128(sp)
20011c62:	dede                	sw	s7,124(sp)
20011c64:	dce2                	sw	s8,120(sp)
20011c66:	dae6                	sw	s9,116(sp)
20011c68:	89aa                	mv	s3,a0
20011c6a:	84ae                	mv	s1,a1
20011c6c:	8932                	mv	s2,a2
20011c6e:	8436                	mv	s0,a3
20011c70:	c501                	beqz	a0,20011c78 <_vfiprintf_r+0x28>
20011c72:	4d1c                	lw	a5,24(a0)
20011c74:	e391                	bnez	a5,20011c78 <_vfiprintf_r+0x28>
20011c76:	39ad                	jal	200118f0 <__sinit>
20011c78:	ffffe797          	auipc	a5,0xffffe
20011c7c:	77878793          	addi	a5,a5,1912 # 200103f0 <__sf_fake_stdin>
20011c80:	0cf49c63          	bne	s1,a5,20011d58 <_vfiprintf_r+0x108>
20011c84:	0049a483          	lw	s1,4(s3)
20011c88:	00c4d783          	lhu	a5,12(s1)
20011c8c:	8ba1                	andi	a5,a5,8
20011c8e:	c7fd                	beqz	a5,20011d7c <_vfiprintf_r+0x12c>
20011c90:	489c                	lw	a5,16(s1)
20011c92:	c7ed                	beqz	a5,20011d7c <_vfiprintf_r+0x12c>
20011c94:	02000793          	li	a5,32
20011c98:	02f104a3          	sb	a5,41(sp)
20011c9c:	03000793          	li	a5,48
20011ca0:	d202                	sw	zero,36(sp)
20011ca2:	02f10523          	sb	a5,42(sp)
20011ca6:	c622                	sw	s0,12(sp)
20011ca8:	02500b93          	li	s7,37
20011cac:	ffffea97          	auipc	s5,0xffffe
20011cb0:	784a8a93          	addi	s5,s5,1924 # 20010430 <__sf_fake_stdout+0x20>
20011cb4:	4c05                	li	s8,1
20011cb6:	4b29                	li	s6,10
20011cb8:	844a                	mv	s0,s2
20011cba:	00044783          	lbu	a5,0(s0)
20011cbe:	c399                	beqz	a5,20011cc4 <_vfiprintf_r+0x74>
20011cc0:	0f779063          	bne	a5,s7,20011da0 <_vfiprintf_r+0x150>
20011cc4:	41240cb3          	sub	s9,s0,s2
20011cc8:	01240d63          	beq	s0,s2,20011ce2 <_vfiprintf_r+0x92>
20011ccc:	86e6                	mv	a3,s9
20011cce:	864a                	mv	a2,s2
20011cd0:	85a6                	mv	a1,s1
20011cd2:	854e                	mv	a0,s3
20011cd4:	3f2d                	jal	20011c0e <__sfputs_r>
20011cd6:	57fd                	li	a5,-1
20011cd8:	1ef50463          	beq	a0,a5,20011ec0 <_vfiprintf_r+0x270>
20011cdc:	5792                	lw	a5,36(sp)
20011cde:	97e6                	add	a5,a5,s9
20011ce0:	d23e                	sw	a5,36(sp)
20011ce2:	00044783          	lbu	a5,0(s0)
20011ce6:	1c078d63          	beqz	a5,20011ec0 <_vfiprintf_r+0x270>
20011cea:	57fd                	li	a5,-1
20011cec:	00140913          	addi	s2,s0,1
20011cf0:	c802                	sw	zero,16(sp)
20011cf2:	ce02                	sw	zero,28(sp)
20011cf4:	ca3e                	sw	a5,20(sp)
20011cf6:	cc02                	sw	zero,24(sp)
20011cf8:	040109a3          	sb	zero,83(sp)
20011cfc:	d482                	sw	zero,104(sp)
20011cfe:	00094583          	lbu	a1,0(s2)
20011d02:	4615                	li	a2,5
20011d04:	8556                	mv	a0,s5
20011d06:	7d6000ef          	jal	ra,200124dc <memchr>
20011d0a:	47c2                	lw	a5,16(sp)
20011d0c:	00190413          	addi	s0,s2,1
20011d10:	e951                	bnez	a0,20011da4 <_vfiprintf_r+0x154>
20011d12:	0107f713          	andi	a4,a5,16
20011d16:	c709                	beqz	a4,20011d20 <_vfiprintf_r+0xd0>
20011d18:	02000713          	li	a4,32
20011d1c:	04e109a3          	sb	a4,83(sp)
20011d20:	0087f713          	andi	a4,a5,8
20011d24:	c709                	beqz	a4,20011d2e <_vfiprintf_r+0xde>
20011d26:	02b00713          	li	a4,43
20011d2a:	04e109a3          	sb	a4,83(sp)
20011d2e:	00094683          	lbu	a3,0(s2)
20011d32:	02a00713          	li	a4,42
20011d36:	06e68f63          	beq	a3,a4,20011db4 <_vfiprintf_r+0x164>
20011d3a:	47f2                	lw	a5,28(sp)
20011d3c:	844a                	mv	s0,s2
20011d3e:	4681                	li	a3,0
20011d40:	4625                	li	a2,9
20011d42:	00044703          	lbu	a4,0(s0)
20011d46:	00140593          	addi	a1,s0,1
20011d4a:	fd070713          	addi	a4,a4,-48
20011d4e:	0ae67863          	bgeu	a2,a4,20011dfe <_vfiprintf_r+0x1ae>
20011d52:	caad                	beqz	a3,20011dc4 <_vfiprintf_r+0x174>
20011d54:	ce3e                	sw	a5,28(sp)
20011d56:	a0bd                	j	20011dc4 <_vfiprintf_r+0x174>
20011d58:	ffffe797          	auipc	a5,0xffffe
20011d5c:	6b878793          	addi	a5,a5,1720 # 20010410 <__sf_fake_stdout>
20011d60:	00f49563          	bne	s1,a5,20011d6a <_vfiprintf_r+0x11a>
20011d64:	0089a483          	lw	s1,8(s3)
20011d68:	b705                	j	20011c88 <_vfiprintf_r+0x38>
20011d6a:	ffffe797          	auipc	a5,0xffffe
20011d6e:	66678793          	addi	a5,a5,1638 # 200103d0 <__sf_fake_stderr>
20011d72:	f0f49be3          	bne	s1,a5,20011c88 <_vfiprintf_r+0x38>
20011d76:	00c9a483          	lw	s1,12(s3)
20011d7a:	b739                	j	20011c88 <_vfiprintf_r+0x38>
20011d7c:	85a6                	mv	a1,s1
20011d7e:	854e                	mv	a0,s3
20011d80:	26a1                	jal	200120c8 <__swsetup_r>
20011d82:	d909                	beqz	a0,20011c94 <_vfiprintf_r+0x44>
20011d84:	557d                	li	a0,-1
20011d86:	40fa                	lw	ra,156(sp)
20011d88:	446a                	lw	s0,152(sp)
20011d8a:	44da                	lw	s1,148(sp)
20011d8c:	494a                	lw	s2,144(sp)
20011d8e:	49ba                	lw	s3,140(sp)
20011d90:	4a2a                	lw	s4,136(sp)
20011d92:	4a9a                	lw	s5,132(sp)
20011d94:	4b0a                	lw	s6,128(sp)
20011d96:	5bf6                	lw	s7,124(sp)
20011d98:	5c66                	lw	s8,120(sp)
20011d9a:	5cd6                	lw	s9,116(sp)
20011d9c:	610d                	addi	sp,sp,160
20011d9e:	8082                	ret
20011da0:	0405                	addi	s0,s0,1
20011da2:	bf21                	j	20011cba <_vfiprintf_r+0x6a>
20011da4:	41550533          	sub	a0,a0,s5
20011da8:	00ac1533          	sll	a0,s8,a0
20011dac:	8fc9                	or	a5,a5,a0
20011dae:	c83e                	sw	a5,16(sp)
20011db0:	8922                	mv	s2,s0
20011db2:	b7b1                	j	20011cfe <_vfiprintf_r+0xae>
20011db4:	4732                	lw	a4,12(sp)
20011db6:	00470693          	addi	a3,a4,4
20011dba:	4318                	lw	a4,0(a4)
20011dbc:	c636                	sw	a3,12(sp)
20011dbe:	02074963          	bltz	a4,20011df0 <_vfiprintf_r+0x1a0>
20011dc2:	ce3a                	sw	a4,28(sp)
20011dc4:	00044703          	lbu	a4,0(s0)
20011dc8:	02e00793          	li	a5,46
20011dcc:	04f71f63          	bne	a4,a5,20011e2a <_vfiprintf_r+0x1da>
20011dd0:	00144703          	lbu	a4,1(s0)
20011dd4:	02a00793          	li	a5,42
20011dd8:	02f71b63          	bne	a4,a5,20011e0e <_vfiprintf_r+0x1be>
20011ddc:	47b2                	lw	a5,12(sp)
20011dde:	0409                	addi	s0,s0,2
20011de0:	00478713          	addi	a4,a5,4
20011de4:	439c                	lw	a5,0(a5)
20011de6:	c63a                	sw	a4,12(sp)
20011de8:	0207c163          	bltz	a5,20011e0a <_vfiprintf_r+0x1ba>
20011dec:	ca3e                	sw	a5,20(sp)
20011dee:	a835                	j	20011e2a <_vfiprintf_r+0x1da>
20011df0:	40e00733          	neg	a4,a4
20011df4:	0027e793          	ori	a5,a5,2
20011df8:	ce3a                	sw	a4,28(sp)
20011dfa:	c83e                	sw	a5,16(sp)
20011dfc:	b7e1                	j	20011dc4 <_vfiprintf_r+0x174>
20011dfe:	036787b3          	mul	a5,a5,s6
20011e02:	842e                	mv	s0,a1
20011e04:	4685                	li	a3,1
20011e06:	97ba                	add	a5,a5,a4
20011e08:	bf2d                	j	20011d42 <_vfiprintf_r+0xf2>
20011e0a:	57fd                	li	a5,-1
20011e0c:	b7c5                	j	20011dec <_vfiprintf_r+0x19c>
20011e0e:	0405                	addi	s0,s0,1
20011e10:	ca02                	sw	zero,20(sp)
20011e12:	4681                	li	a3,0
20011e14:	4781                	li	a5,0
20011e16:	4625                	li	a2,9
20011e18:	00044703          	lbu	a4,0(s0)
20011e1c:	00140593          	addi	a1,s0,1
20011e20:	fd070713          	addi	a4,a4,-48
20011e24:	06e67463          	bgeu	a2,a4,20011e8c <_vfiprintf_r+0x23c>
20011e28:	f2f1                	bnez	a3,20011dec <_vfiprintf_r+0x19c>
20011e2a:	00044583          	lbu	a1,0(s0)
20011e2e:	460d                	li	a2,3
20011e30:	ffffe517          	auipc	a0,0xffffe
20011e34:	60850513          	addi	a0,a0,1544 # 20010438 <__sf_fake_stdout+0x28>
20011e38:	2555                	jal	200124dc <memchr>
20011e3a:	cd11                	beqz	a0,20011e56 <_vfiprintf_r+0x206>
20011e3c:	ffffe797          	auipc	a5,0xffffe
20011e40:	5fc78793          	addi	a5,a5,1532 # 20010438 <__sf_fake_stdout+0x28>
20011e44:	8d1d                	sub	a0,a0,a5
20011e46:	04000793          	li	a5,64
20011e4a:	00a797b3          	sll	a5,a5,a0
20011e4e:	4542                	lw	a0,16(sp)
20011e50:	0405                	addi	s0,s0,1
20011e52:	8d5d                	or	a0,a0,a5
20011e54:	c82a                	sw	a0,16(sp)
20011e56:	00044583          	lbu	a1,0(s0)
20011e5a:	4619                	li	a2,6
20011e5c:	ffffe517          	auipc	a0,0xffffe
20011e60:	5e050513          	addi	a0,a0,1504 # 2001043c <__sf_fake_stdout+0x2c>
20011e64:	00140913          	addi	s2,s0,1
20011e68:	02b10423          	sb	a1,40(sp)
20011e6c:	2d85                	jal	200124dc <memchr>
20011e6e:	c12d                	beqz	a0,20011ed0 <_vfiprintf_r+0x280>
20011e70:	00000793          	li	a5,0
20011e74:	e795                	bnez	a5,20011ea0 <_vfiprintf_r+0x250>
20011e76:	4742                	lw	a4,16(sp)
20011e78:	47b2                	lw	a5,12(sp)
20011e7a:	10077713          	andi	a4,a4,256
20011e7e:	cf09                	beqz	a4,20011e98 <_vfiprintf_r+0x248>
20011e80:	0791                	addi	a5,a5,4
20011e82:	c63e                	sw	a5,12(sp)
20011e84:	5792                	lw	a5,36(sp)
20011e86:	97d2                	add	a5,a5,s4
20011e88:	d23e                	sw	a5,36(sp)
20011e8a:	b53d                	j	20011cb8 <_vfiprintf_r+0x68>
20011e8c:	036787b3          	mul	a5,a5,s6
20011e90:	842e                	mv	s0,a1
20011e92:	4685                	li	a3,1
20011e94:	97ba                	add	a5,a5,a4
20011e96:	b749                	j	20011e18 <_vfiprintf_r+0x1c8>
20011e98:	079d                	addi	a5,a5,7
20011e9a:	9be1                	andi	a5,a5,-8
20011e9c:	07a1                	addi	a5,a5,8
20011e9e:	b7d5                	j	20011e82 <_vfiprintf_r+0x232>
20011ea0:	0078                	addi	a4,sp,12
20011ea2:	00000697          	auipc	a3,0x0
20011ea6:	d6c68693          	addi	a3,a3,-660 # 20011c0e <__sfputs_r>
20011eaa:	8626                	mv	a2,s1
20011eac:	080c                	addi	a1,sp,16
20011eae:	854e                	mv	a0,s3
20011eb0:	00000097          	auipc	ra,0x0
20011eb4:	000000e7          	jalr	zero # 0 <__metal_boot_hart>
20011eb8:	57fd                	li	a5,-1
20011eba:	8a2a                	mv	s4,a0
20011ebc:	fcf514e3          	bne	a0,a5,20011e84 <_vfiprintf_r+0x234>
20011ec0:	00c4d783          	lhu	a5,12(s1)
20011ec4:	0407f793          	andi	a5,a5,64
20011ec8:	ea079ee3          	bnez	a5,20011d84 <_vfiprintf_r+0x134>
20011ecc:	5512                	lw	a0,36(sp)
20011ece:	bd65                	j	20011d86 <_vfiprintf_r+0x136>
20011ed0:	0078                	addi	a4,sp,12
20011ed2:	00000697          	auipc	a3,0x0
20011ed6:	d3c68693          	addi	a3,a3,-708 # 20011c0e <__sfputs_r>
20011eda:	8626                	mv	a2,s1
20011edc:	080c                	addi	a1,sp,16
20011ede:	854e                	mv	a0,s3
20011ee0:	7c8000ef          	jal	ra,200126a8 <_printf_i>
20011ee4:	bfd1                	j	20011eb8 <_vfiprintf_r+0x268>

20011ee6 <_sbrk_r>:
_sbrk_r():
20011ee6:	1141                	addi	sp,sp,-16
20011ee8:	c422                	sw	s0,8(sp)
20011eea:	842a                	mv	s0,a0
20011eec:	852e                	mv	a0,a1
20011eee:	5ffef797          	auipc	a5,0x5ffef
20011ef2:	be07a123          	sw	zero,-1054(a5) # 80000ad0 <errno>
20011ef6:	c606                	sw	ra,12(sp)
20011ef8:	456010ef          	jal	ra,2001334e <_sbrk>
20011efc:	57fd                	li	a5,-1
20011efe:	00f51863          	bne	a0,a5,20011f0e <_sbrk_r+0x28>
20011f02:	5ffef797          	auipc	a5,0x5ffef
20011f06:	bce7a783          	lw	a5,-1074(a5) # 80000ad0 <errno>
20011f0a:	c391                	beqz	a5,20011f0e <_sbrk_r+0x28>
20011f0c:	c01c                	sw	a5,0(s0)
20011f0e:	40b2                	lw	ra,12(sp)
20011f10:	4422                	lw	s0,8(sp)
20011f12:	0141                	addi	sp,sp,16
20011f14:	8082                	ret

20011f16 <__sread>:
__sread():
20011f16:	1141                	addi	sp,sp,-16
20011f18:	c422                	sw	s0,8(sp)
20011f1a:	842e                	mv	s0,a1
20011f1c:	00e59583          	lh	a1,14(a1)
20011f20:	c606                	sw	ra,12(sp)
20011f22:	1f7000ef          	jal	ra,20012918 <_read_r>
20011f26:	00054963          	bltz	a0,20011f38 <__sread+0x22>
20011f2a:	487c                	lw	a5,84(s0)
20011f2c:	97aa                	add	a5,a5,a0
20011f2e:	c87c                	sw	a5,84(s0)
20011f30:	40b2                	lw	ra,12(sp)
20011f32:	4422                	lw	s0,8(sp)
20011f34:	0141                	addi	sp,sp,16
20011f36:	8082                	ret
20011f38:	00c45783          	lhu	a5,12(s0)
20011f3c:	777d                	lui	a4,0xfffff
20011f3e:	177d                	addi	a4,a4,-1
20011f40:	8ff9                	and	a5,a5,a4
20011f42:	00f41623          	sh	a5,12(s0)
20011f46:	b7ed                	j	20011f30 <__sread+0x1a>

20011f48 <__swrite>:
__swrite():
20011f48:	00c5d783          	lhu	a5,12(a1)
20011f4c:	1101                	addi	sp,sp,-32
20011f4e:	cc22                	sw	s0,24(sp)
20011f50:	ca26                	sw	s1,20(sp)
20011f52:	c84a                	sw	s2,16(sp)
20011f54:	c64e                	sw	s3,12(sp)
20011f56:	ce06                	sw	ra,28(sp)
20011f58:	1007f793          	andi	a5,a5,256
20011f5c:	84aa                	mv	s1,a0
20011f5e:	842e                	mv	s0,a1
20011f60:	8932                	mv	s2,a2
20011f62:	89b6                	mv	s3,a3
20011f64:	c791                	beqz	a5,20011f70 <__swrite+0x28>
20011f66:	00e59583          	lh	a1,14(a1)
20011f6a:	4689                	li	a3,2
20011f6c:	4601                	li	a2,0
20011f6e:	2189                	jal	200123b0 <_lseek_r>
20011f70:	00c45783          	lhu	a5,12(s0)
20011f74:	777d                	lui	a4,0xfffff
20011f76:	177d                	addi	a4,a4,-1
20011f78:	8ff9                	and	a5,a5,a4
20011f7a:	00e41583          	lh	a1,14(s0)
20011f7e:	00f41623          	sh	a5,12(s0)
20011f82:	4462                	lw	s0,24(sp)
20011f84:	40f2                	lw	ra,28(sp)
20011f86:	86ce                	mv	a3,s3
20011f88:	864a                	mv	a2,s2
20011f8a:	49b2                	lw	s3,12(sp)
20011f8c:	4942                	lw	s2,16(sp)
20011f8e:	8526                	mv	a0,s1
20011f90:	44d2                	lw	s1,20(sp)
20011f92:	6105                	addi	sp,sp,32
20011f94:	a201                	j	20012094 <_write_r>

20011f96 <__sseek>:
__sseek():
20011f96:	1141                	addi	sp,sp,-16
20011f98:	c422                	sw	s0,8(sp)
20011f9a:	842e                	mv	s0,a1
20011f9c:	00e59583          	lh	a1,14(a1)
20011fa0:	c606                	sw	ra,12(sp)
20011fa2:	2139                	jal	200123b0 <_lseek_r>
20011fa4:	57fd                	li	a5,-1
20011fa6:	00c45703          	lhu	a4,12(s0)
20011faa:	00f51b63          	bne	a0,a5,20011fc0 <__sseek+0x2a>
20011fae:	77fd                	lui	a5,0xfffff
20011fb0:	17fd                	addi	a5,a5,-1
20011fb2:	8ff9                	and	a5,a5,a4
20011fb4:	00f41623          	sh	a5,12(s0)
20011fb8:	40b2                	lw	ra,12(sp)
20011fba:	4422                	lw	s0,8(sp)
20011fbc:	0141                	addi	sp,sp,16
20011fbe:	8082                	ret
20011fc0:	6785                	lui	a5,0x1
20011fc2:	8fd9                	or	a5,a5,a4
20011fc4:	00f41623          	sh	a5,12(s0)
20011fc8:	c868                	sw	a0,84(s0)
20011fca:	b7fd                	j	20011fb8 <__sseek+0x22>

20011fcc <__sclose>:
__sclose():
20011fcc:	00e59583          	lh	a1,14(a1)
20011fd0:	a411                	j	200121d4 <_close_r>

20011fd2 <__swbuf_r>:
__swbuf_r():
20011fd2:	1101                	addi	sp,sp,-32
20011fd4:	cc22                	sw	s0,24(sp)
20011fd6:	ca26                	sw	s1,20(sp)
20011fd8:	c84a                	sw	s2,16(sp)
20011fda:	ce06                	sw	ra,28(sp)
20011fdc:	c64e                	sw	s3,12(sp)
20011fde:	84aa                	mv	s1,a0
20011fe0:	892e                	mv	s2,a1
20011fe2:	8432                	mv	s0,a2
20011fe4:	c509                	beqz	a0,20011fee <__swbuf_r+0x1c>
20011fe6:	4d1c                	lw	a5,24(a0)
20011fe8:	e399                	bnez	a5,20011fee <__swbuf_r+0x1c>
20011fea:	907ff0ef          	jal	ra,200118f0 <__sinit>
20011fee:	ffffe797          	auipc	a5,0xffffe
20011ff2:	40278793          	addi	a5,a5,1026 # 200103f0 <__sf_fake_stdin>
20011ff6:	06f41963          	bne	s0,a5,20012068 <__swbuf_r+0x96>
20011ffa:	40c0                	lw	s0,4(s1)
20011ffc:	4c1c                	lw	a5,24(s0)
20011ffe:	c41c                	sw	a5,8(s0)
20012000:	00c45783          	lhu	a5,12(s0)
20012004:	8ba1                	andi	a5,a5,8
20012006:	c3c9                	beqz	a5,20012088 <__swbuf_r+0xb6>
20012008:	481c                	lw	a5,16(s0)
2001200a:	cfbd                	beqz	a5,20012088 <__swbuf_r+0xb6>
2001200c:	481c                	lw	a5,16(s0)
2001200e:	4008                	lw	a0,0(s0)
20012010:	0ff97993          	zext.b	s3,s2
20012014:	0ff97913          	zext.b	s2,s2
20012018:	8d1d                	sub	a0,a0,a5
2001201a:	485c                	lw	a5,20(s0)
2001201c:	00f54663          	blt	a0,a5,20012028 <__swbuf_r+0x56>
20012020:	85a2                	mv	a1,s0
20012022:	8526                	mv	a0,s1
20012024:	261d                	jal	2001234a <_fflush_r>
20012026:	e52d                	bnez	a0,20012090 <__swbuf_r+0xbe>
20012028:	441c                	lw	a5,8(s0)
2001202a:	0505                	addi	a0,a0,1
2001202c:	17fd                	addi	a5,a5,-1
2001202e:	c41c                	sw	a5,8(s0)
20012030:	401c                	lw	a5,0(s0)
20012032:	00178713          	addi	a4,a5,1
20012036:	c018                	sw	a4,0(s0)
20012038:	01378023          	sb	s3,0(a5)
2001203c:	485c                	lw	a5,20(s0)
2001203e:	00a78963          	beq	a5,a0,20012050 <__swbuf_r+0x7e>
20012042:	00c45783          	lhu	a5,12(s0)
20012046:	8b85                	andi	a5,a5,1
20012048:	cb81                	beqz	a5,20012058 <__swbuf_r+0x86>
2001204a:	47a9                	li	a5,10
2001204c:	00f91663          	bne	s2,a5,20012058 <__swbuf_r+0x86>
20012050:	85a2                	mv	a1,s0
20012052:	8526                	mv	a0,s1
20012054:	2cdd                	jal	2001234a <_fflush_r>
20012056:	ed0d                	bnez	a0,20012090 <__swbuf_r+0xbe>
20012058:	40f2                	lw	ra,28(sp)
2001205a:	4462                	lw	s0,24(sp)
2001205c:	44d2                	lw	s1,20(sp)
2001205e:	49b2                	lw	s3,12(sp)
20012060:	854a                	mv	a0,s2
20012062:	4942                	lw	s2,16(sp)
20012064:	6105                	addi	sp,sp,32
20012066:	8082                	ret
20012068:	ffffe797          	auipc	a5,0xffffe
2001206c:	3a878793          	addi	a5,a5,936 # 20010410 <__sf_fake_stdout>
20012070:	00f41463          	bne	s0,a5,20012078 <__swbuf_r+0xa6>
20012074:	4480                	lw	s0,8(s1)
20012076:	b759                	j	20011ffc <__swbuf_r+0x2a>
20012078:	ffffe797          	auipc	a5,0xffffe
2001207c:	35878793          	addi	a5,a5,856 # 200103d0 <__sf_fake_stderr>
20012080:	f6f41ee3          	bne	s0,a5,20011ffc <__swbuf_r+0x2a>
20012084:	44c0                	lw	s0,12(s1)
20012086:	bf9d                	j	20011ffc <__swbuf_r+0x2a>
20012088:	85a2                	mv	a1,s0
2001208a:	8526                	mv	a0,s1
2001208c:	2835                	jal	200120c8 <__swsetup_r>
2001208e:	dd3d                	beqz	a0,2001200c <__swbuf_r+0x3a>
20012090:	597d                	li	s2,-1
20012092:	b7d9                	j	20012058 <__swbuf_r+0x86>

20012094 <_write_r>:
_write_r():
20012094:	1141                	addi	sp,sp,-16
20012096:	c422                	sw	s0,8(sp)
20012098:	842a                	mv	s0,a0
2001209a:	852e                	mv	a0,a1
2001209c:	85b2                	mv	a1,a2
2001209e:	8636                	mv	a2,a3
200120a0:	5ffef797          	auipc	a5,0x5ffef
200120a4:	a207a823          	sw	zero,-1488(a5) # 80000ad0 <errno>
200120a8:	c606                	sw	ra,12(sp)
200120aa:	322010ef          	jal	ra,200133cc <_write>
200120ae:	57fd                	li	a5,-1
200120b0:	00f51863          	bne	a0,a5,200120c0 <_write_r+0x2c>
200120b4:	5ffef797          	auipc	a5,0x5ffef
200120b8:	a1c7a783          	lw	a5,-1508(a5) # 80000ad0 <errno>
200120bc:	c391                	beqz	a5,200120c0 <_write_r+0x2c>
200120be:	c01c                	sw	a5,0(s0)
200120c0:	40b2                	lw	ra,12(sp)
200120c2:	4422                	lw	s0,8(sp)
200120c4:	0141                	addi	sp,sp,16
200120c6:	8082                	ret

200120c8 <__swsetup_r>:
__swsetup_r():
200120c8:	1141                	addi	sp,sp,-16
200120ca:	c422                	sw	s0,8(sp)
200120cc:	c226                	sw	s1,4(sp)
200120ce:	c04a                	sw	s2,0(sp)
200120d0:	c606                	sw	ra,12(sp)
200120d2:	5ffef497          	auipc	s1,0x5ffef
200120d6:	9d24a483          	lw	s1,-1582(s1) # 80000aa4 <_impure_ptr>
200120da:	892a                	mv	s2,a0
200120dc:	842e                	mv	s0,a1
200120de:	c491                	beqz	s1,200120ea <__swsetup_r+0x22>
200120e0:	4c9c                	lw	a5,24(s1)
200120e2:	e781                	bnez	a5,200120ea <__swsetup_r+0x22>
200120e4:	8526                	mv	a0,s1
200120e6:	80bff0ef          	jal	ra,200118f0 <__sinit>
200120ea:	ffffe797          	auipc	a5,0xffffe
200120ee:	30678793          	addi	a5,a5,774 # 200103f0 <__sf_fake_stdin>
200120f2:	02f41763          	bne	s0,a5,20012120 <__swsetup_r+0x58>
200120f6:	40c0                	lw	s0,4(s1)
200120f8:	00c41783          	lh	a5,12(s0)
200120fc:	01079713          	slli	a4,a5,0x10
20012100:	0087f693          	andi	a3,a5,8
20012104:	8341                	srli	a4,a4,0x10
20012106:	eaad                	bnez	a3,20012178 <__swsetup_r+0xb0>
20012108:	01077693          	andi	a3,a4,16
2001210c:	ea95                	bnez	a3,20012140 <__swsetup_r+0x78>
2001210e:	4725                	li	a4,9
20012110:	00e92023          	sw	a4,0(s2)
20012114:	0407e793          	ori	a5,a5,64
20012118:	00f41623          	sh	a5,12(s0)
2001211c:	557d                	li	a0,-1
2001211e:	a871                	j	200121ba <__swsetup_r+0xf2>
20012120:	ffffe797          	auipc	a5,0xffffe
20012124:	2f078793          	addi	a5,a5,752 # 20010410 <__sf_fake_stdout>
20012128:	00f41463          	bne	s0,a5,20012130 <__swsetup_r+0x68>
2001212c:	4480                	lw	s0,8(s1)
2001212e:	b7e9                	j	200120f8 <__swsetup_r+0x30>
20012130:	ffffe797          	auipc	a5,0xffffe
20012134:	2a078793          	addi	a5,a5,672 # 200103d0 <__sf_fake_stderr>
20012138:	fcf410e3          	bne	s0,a5,200120f8 <__swsetup_r+0x30>
2001213c:	44c0                	lw	s0,12(s1)
2001213e:	bf6d                	j	200120f8 <__swsetup_r+0x30>
20012140:	8b11                	andi	a4,a4,4
20012142:	c70d                	beqz	a4,2001216c <__swsetup_r+0xa4>
20012144:	584c                	lw	a1,52(s0)
20012146:	c989                	beqz	a1,20012158 <__swsetup_r+0x90>
20012148:	04440793          	addi	a5,s0,68
2001214c:	00f58463          	beq	a1,a5,20012154 <__swsetup_r+0x8c>
20012150:	854a                	mv	a0,s2
20012152:	2665                	jal	200124fa <_free_r>
20012154:	02042a23          	sw	zero,52(s0)
20012158:	00c45783          	lhu	a5,12(s0)
2001215c:	00042223          	sw	zero,4(s0)
20012160:	fdb7f793          	andi	a5,a5,-37
20012164:	00f41623          	sh	a5,12(s0)
20012168:	481c                	lw	a5,16(s0)
2001216a:	c01c                	sw	a5,0(s0)
2001216c:	00c45783          	lhu	a5,12(s0)
20012170:	0087e793          	ori	a5,a5,8
20012174:	00f41623          	sh	a5,12(s0)
20012178:	481c                	lw	a5,16(s0)
2001217a:	ef81                	bnez	a5,20012192 <__swsetup_r+0xca>
2001217c:	00c45783          	lhu	a5,12(s0)
20012180:	20000713          	li	a4,512
20012184:	2807f793          	andi	a5,a5,640
20012188:	00e78563          	beq	a5,a4,20012192 <__swsetup_r+0xca>
2001218c:	85a2                	mv	a1,s0
2001218e:	854a                	mv	a0,s2
20012190:	247d                	jal	2001243e <__smakebuf_r>
20012192:	00c41783          	lh	a5,12(s0)
20012196:	01079713          	slli	a4,a5,0x10
2001219a:	0017f693          	andi	a3,a5,1
2001219e:	8341                	srli	a4,a4,0x10
200121a0:	c29d                	beqz	a3,200121c6 <__swsetup_r+0xfe>
200121a2:	4854                	lw	a3,20(s0)
200121a4:	00042423          	sw	zero,8(s0)
200121a8:	40d006b3          	neg	a3,a3
200121ac:	cc14                	sw	a3,24(s0)
200121ae:	4814                	lw	a3,16(s0)
200121b0:	4501                	li	a0,0
200121b2:	e681                	bnez	a3,200121ba <__swsetup_r+0xf2>
200121b4:	08077713          	andi	a4,a4,128
200121b8:	ff31                	bnez	a4,20012114 <__swsetup_r+0x4c>
200121ba:	40b2                	lw	ra,12(sp)
200121bc:	4422                	lw	s0,8(sp)
200121be:	4492                	lw	s1,4(sp)
200121c0:	4902                	lw	s2,0(sp)
200121c2:	0141                	addi	sp,sp,16
200121c4:	8082                	ret
200121c6:	00277693          	andi	a3,a4,2
200121ca:	4601                	li	a2,0
200121cc:	e291                	bnez	a3,200121d0 <__swsetup_r+0x108>
200121ce:	4850                	lw	a2,20(s0)
200121d0:	c410                	sw	a2,8(s0)
200121d2:	bff1                	j	200121ae <__swsetup_r+0xe6>

200121d4 <_close_r>:
_close_r():
200121d4:	1141                	addi	sp,sp,-16
200121d6:	c422                	sw	s0,8(sp)
200121d8:	842a                	mv	s0,a0
200121da:	852e                	mv	a0,a1
200121dc:	5ffef797          	auipc	a5,0x5ffef
200121e0:	8e07aa23          	sw	zero,-1804(a5) # 80000ad0 <errno>
200121e4:	c606                	sw	ra,12(sp)
200121e6:	0ac010ef          	jal	ra,20013292 <_close>
200121ea:	57fd                	li	a5,-1
200121ec:	00f51863          	bne	a0,a5,200121fc <_close_r+0x28>
200121f0:	5ffef797          	auipc	a5,0x5ffef
200121f4:	8e07a783          	lw	a5,-1824(a5) # 80000ad0 <errno>
200121f8:	c391                	beqz	a5,200121fc <_close_r+0x28>
200121fa:	c01c                	sw	a5,0(s0)
200121fc:	40b2                	lw	ra,12(sp)
200121fe:	4422                	lw	s0,8(sp)
20012200:	0141                	addi	sp,sp,16
20012202:	8082                	ret

20012204 <__sflush_r>:
__sflush_r():
20012204:	00c5d783          	lhu	a5,12(a1)
20012208:	1101                	addi	sp,sp,-32
2001220a:	cc22                	sw	s0,24(sp)
2001220c:	ca26                	sw	s1,20(sp)
2001220e:	ce06                	sw	ra,28(sp)
20012210:	c84a                	sw	s2,16(sp)
20012212:	c64e                	sw	s3,12(sp)
20012214:	0087f713          	andi	a4,a5,8
20012218:	84aa                	mv	s1,a0
2001221a:	842e                	mv	s0,a1
2001221c:	e375                	bnez	a4,20012300 <__sflush_r+0xfc>
2001221e:	41d8                	lw	a4,4(a1)
20012220:	00e04763          	bgtz	a4,2001222e <__sflush_r+0x2a>
20012224:	41b8                	lw	a4,64(a1)
20012226:	00e04463          	bgtz	a4,2001222e <__sflush_r+0x2a>
2001222a:	4501                	li	a0,0
2001222c:	a875                	j	200122e8 <__sflush_r+0xe4>
2001222e:	5458                	lw	a4,44(s0)
20012230:	df6d                	beqz	a4,2001222a <__sflush_r+0x26>
20012232:	6685                	lui	a3,0x1
20012234:	0004a903          	lw	s2,0(s1)
20012238:	8ff5                	and	a5,a5,a3
2001223a:	0004a023          	sw	zero,0(s1)
2001223e:	cfa5                	beqz	a5,200122b6 <__sflush_r+0xb2>
20012240:	4868                	lw	a0,84(s0)
20012242:	00c45783          	lhu	a5,12(s0)
20012246:	8b91                	andi	a5,a5,4
20012248:	c799                	beqz	a5,20012256 <__sflush_r+0x52>
2001224a:	405c                	lw	a5,4(s0)
2001224c:	8d1d                	sub	a0,a0,a5
2001224e:	585c                	lw	a5,52(s0)
20012250:	c399                	beqz	a5,20012256 <__sflush_r+0x52>
20012252:	403c                	lw	a5,64(s0)
20012254:	8d1d                	sub	a0,a0,a5
20012256:	545c                	lw	a5,44(s0)
20012258:	500c                	lw	a1,32(s0)
2001225a:	862a                	mv	a2,a0
2001225c:	4681                	li	a3,0
2001225e:	8526                	mv	a0,s1
20012260:	9782                	jalr	a5
20012262:	57fd                	li	a5,-1
20012264:	00c45703          	lhu	a4,12(s0)
20012268:	00f51d63          	bne	a0,a5,20012282 <__sflush_r+0x7e>
2001226c:	4094                	lw	a3,0(s1)
2001226e:	47f5                	li	a5,29
20012270:	08d7e363          	bltu	a5,a3,200122f6 <__sflush_r+0xf2>
20012274:	204007b7          	lui	a5,0x20400
20012278:	0785                	addi	a5,a5,1
2001227a:	00d7d7b3          	srl	a5,a5,a3
2001227e:	8b85                	andi	a5,a5,1
20012280:	cbbd                	beqz	a5,200122f6 <__sflush_r+0xf2>
20012282:	481c                	lw	a5,16(s0)
20012284:	00042223          	sw	zero,4(s0)
20012288:	c01c                	sw	a5,0(s0)
2001228a:	6785                	lui	a5,0x1
2001228c:	8f7d                	and	a4,a4,a5
2001228e:	c719                	beqz	a4,2001229c <__sflush_r+0x98>
20012290:	57fd                	li	a5,-1
20012292:	00f51463          	bne	a0,a5,2001229a <__sflush_r+0x96>
20012296:	409c                	lw	a5,0(s1)
20012298:	e391                	bnez	a5,2001229c <__sflush_r+0x98>
2001229a:	c868                	sw	a0,84(s0)
2001229c:	584c                	lw	a1,52(s0)
2001229e:	0124a023          	sw	s2,0(s1)
200122a2:	d5c1                	beqz	a1,2001222a <__sflush_r+0x26>
200122a4:	04440793          	addi	a5,s0,68
200122a8:	00f58463          	beq	a1,a5,200122b0 <__sflush_r+0xac>
200122ac:	8526                	mv	a0,s1
200122ae:	24b1                	jal	200124fa <_free_r>
200122b0:	02042a23          	sw	zero,52(s0)
200122b4:	bf9d                	j	2001222a <__sflush_r+0x26>
200122b6:	500c                	lw	a1,32(s0)
200122b8:	4685                	li	a3,1
200122ba:	4601                	li	a2,0
200122bc:	8526                	mv	a0,s1
200122be:	9702                	jalr	a4
200122c0:	57fd                	li	a5,-1
200122c2:	f8f510e3          	bne	a0,a5,20012242 <__sflush_r+0x3e>
200122c6:	409c                	lw	a5,0(s1)
200122c8:	dfad                	beqz	a5,20012242 <__sflush_r+0x3e>
200122ca:	4775                	li	a4,29
200122cc:	00e78563          	beq	a5,a4,200122d6 <__sflush_r+0xd2>
200122d0:	4759                	li	a4,22
200122d2:	00e79563          	bne	a5,a4,200122dc <__sflush_r+0xd8>
200122d6:	0124a023          	sw	s2,0(s1)
200122da:	bf81                	j	2001222a <__sflush_r+0x26>
200122dc:	00c45783          	lhu	a5,12(s0)
200122e0:	0407e793          	ori	a5,a5,64
200122e4:	00f41623          	sh	a5,12(s0)
200122e8:	40f2                	lw	ra,28(sp)
200122ea:	4462                	lw	s0,24(sp)
200122ec:	44d2                	lw	s1,20(sp)
200122ee:	4942                	lw	s2,16(sp)
200122f0:	49b2                	lw	s3,12(sp)
200122f2:	6105                	addi	sp,sp,32
200122f4:	8082                	ret
200122f6:	04076713          	ori	a4,a4,64
200122fa:	00e41623          	sh	a4,12(s0)
200122fe:	b7ed                	j	200122e8 <__sflush_r+0xe4>
20012300:	0105a983          	lw	s3,16(a1)
20012304:	f20983e3          	beqz	s3,2001222a <__sflush_r+0x26>
20012308:	0005a903          	lw	s2,0(a1)
2001230c:	8b8d                	andi	a5,a5,3
2001230e:	0135a023          	sw	s3,0(a1)
20012312:	41390933          	sub	s2,s2,s3
20012316:	4701                	li	a4,0
20012318:	e391                	bnez	a5,2001231c <__sflush_r+0x118>
2001231a:	49d8                	lw	a4,20(a1)
2001231c:	c418                	sw	a4,8(s0)
2001231e:	f12056e3          	blez	s2,2001222a <__sflush_r+0x26>
20012322:	541c                	lw	a5,40(s0)
20012324:	500c                	lw	a1,32(s0)
20012326:	86ca                	mv	a3,s2
20012328:	864e                	mv	a2,s3
2001232a:	8526                	mv	a0,s1
2001232c:	9782                	jalr	a5
2001232e:	00a04a63          	bgtz	a0,20012342 <__sflush_r+0x13e>
20012332:	00c45783          	lhu	a5,12(s0)
20012336:	557d                	li	a0,-1
20012338:	0407e793          	ori	a5,a5,64
2001233c:	00f41623          	sh	a5,12(s0)
20012340:	b765                	j	200122e8 <__sflush_r+0xe4>
20012342:	99aa                	add	s3,s3,a0
20012344:	40a90933          	sub	s2,s2,a0
20012348:	bfd9                	j	2001231e <__sflush_r+0x11a>

2001234a <_fflush_r>:
_fflush_r():
2001234a:	499c                	lw	a5,16(a1)
2001234c:	c3a5                	beqz	a5,200123ac <_fflush_r+0x62>
2001234e:	1101                	addi	sp,sp,-32
20012350:	cc22                	sw	s0,24(sp)
20012352:	ce06                	sw	ra,28(sp)
20012354:	842a                	mv	s0,a0
20012356:	c519                	beqz	a0,20012364 <_fflush_r+0x1a>
20012358:	4d1c                	lw	a5,24(a0)
2001235a:	e789                	bnez	a5,20012364 <_fflush_r+0x1a>
2001235c:	c62e                	sw	a1,12(sp)
2001235e:	d92ff0ef          	jal	ra,200118f0 <__sinit>
20012362:	45b2                	lw	a1,12(sp)
20012364:	ffffe797          	auipc	a5,0xffffe
20012368:	08c78793          	addi	a5,a5,140 # 200103f0 <__sf_fake_stdin>
2001236c:	00f59b63          	bne	a1,a5,20012382 <_fflush_r+0x38>
20012370:	404c                	lw	a1,4(s0)
20012372:	00c59783          	lh	a5,12(a1)
20012376:	c795                	beqz	a5,200123a2 <_fflush_r+0x58>
20012378:	8522                	mv	a0,s0
2001237a:	4462                	lw	s0,24(sp)
2001237c:	40f2                	lw	ra,28(sp)
2001237e:	6105                	addi	sp,sp,32
20012380:	b551                	j	20012204 <__sflush_r>
20012382:	ffffe797          	auipc	a5,0xffffe
20012386:	08e78793          	addi	a5,a5,142 # 20010410 <__sf_fake_stdout>
2001238a:	00f59463          	bne	a1,a5,20012392 <_fflush_r+0x48>
2001238e:	440c                	lw	a1,8(s0)
20012390:	b7cd                	j	20012372 <_fflush_r+0x28>
20012392:	ffffe797          	auipc	a5,0xffffe
20012396:	03e78793          	addi	a5,a5,62 # 200103d0 <__sf_fake_stderr>
2001239a:	fcf59ce3          	bne	a1,a5,20012372 <_fflush_r+0x28>
2001239e:	444c                	lw	a1,12(s0)
200123a0:	bfc9                	j	20012372 <_fflush_r+0x28>
200123a2:	40f2                	lw	ra,28(sp)
200123a4:	4462                	lw	s0,24(sp)
200123a6:	4501                	li	a0,0
200123a8:	6105                	addi	sp,sp,32
200123aa:	8082                	ret
200123ac:	4501                	li	a0,0
200123ae:	8082                	ret

200123b0 <_lseek_r>:
_lseek_r():
200123b0:	1141                	addi	sp,sp,-16
200123b2:	c422                	sw	s0,8(sp)
200123b4:	842a                	mv	s0,a0
200123b6:	852e                	mv	a0,a1
200123b8:	85b2                	mv	a1,a2
200123ba:	8636                	mv	a2,a3
200123bc:	5ffee797          	auipc	a5,0x5ffee
200123c0:	7007aa23          	sw	zero,1812(a5) # 80000ad0 <errno>
200123c4:	c606                	sw	ra,12(sp)
200123c6:	735000ef          	jal	ra,200132fa <_lseek>
200123ca:	57fd                	li	a5,-1
200123cc:	00f51863          	bne	a0,a5,200123dc <_lseek_r+0x2c>
200123d0:	5ffee797          	auipc	a5,0x5ffee
200123d4:	7007a783          	lw	a5,1792(a5) # 80000ad0 <errno>
200123d8:	c391                	beqz	a5,200123dc <_lseek_r+0x2c>
200123da:	c01c                	sw	a5,0(s0)
200123dc:	40b2                	lw	ra,12(sp)
200123de:	4422                	lw	s0,8(sp)
200123e0:	0141                	addi	sp,sp,16
200123e2:	8082                	ret

200123e4 <__swhatbuf_r>:
__swhatbuf_r():
200123e4:	7159                	addi	sp,sp,-112
200123e6:	d0ca                	sw	s2,96(sp)
200123e8:	892e                	mv	s2,a1
200123ea:	00e59583          	lh	a1,14(a1)
200123ee:	d4a2                	sw	s0,104(sp)
200123f0:	d2a6                	sw	s1,100(sp)
200123f2:	d686                	sw	ra,108(sp)
200123f4:	8432                	mv	s0,a2
200123f6:	84b6                	mv	s1,a3
200123f8:	0005dc63          	bgez	a1,20012410 <__swhatbuf_r+0x2c>
200123fc:	00c91783          	lh	a5,12(s2)
20012400:	0004a023          	sw	zero,0(s1)
20012404:	0807f793          	andi	a5,a5,128
20012408:	e38d                	bnez	a5,2001242a <__swhatbuf_r+0x46>
2001240a:	40000793          	li	a5,1024
2001240e:	a005                	j	2001242e <__swhatbuf_r+0x4a>
20012410:	0030                	addi	a2,sp,8
20012412:	2b2d                	jal	2001294c <_fstat_r>
20012414:	fe0544e3          	bltz	a0,200123fc <__swhatbuf_r+0x18>
20012418:	4732                	lw	a4,12(sp)
2001241a:	67bd                	lui	a5,0xf
2001241c:	8ff9                	and	a5,a5,a4
2001241e:	7779                	lui	a4,0xffffe
20012420:	97ba                	add	a5,a5,a4
20012422:	0017b793          	seqz	a5,a5
20012426:	c09c                	sw	a5,0(s1)
20012428:	b7cd                	j	2001240a <__swhatbuf_r+0x26>
2001242a:	04000793          	li	a5,64
2001242e:	50b6                	lw	ra,108(sp)
20012430:	c01c                	sw	a5,0(s0)
20012432:	5426                	lw	s0,104(sp)
20012434:	5496                	lw	s1,100(sp)
20012436:	5906                	lw	s2,96(sp)
20012438:	4501                	li	a0,0
2001243a:	6165                	addi	sp,sp,112
2001243c:	8082                	ret

2001243e <__smakebuf_r>:
__smakebuf_r():
2001243e:	00c5d783          	lhu	a5,12(a1)
20012442:	1101                	addi	sp,sp,-32
20012444:	cc22                	sw	s0,24(sp)
20012446:	ce06                	sw	ra,28(sp)
20012448:	ca26                	sw	s1,20(sp)
2001244a:	c84a                	sw	s2,16(sp)
2001244c:	8b89                	andi	a5,a5,2
2001244e:	842e                	mv	s0,a1
20012450:	cf89                	beqz	a5,2001246a <__smakebuf_r+0x2c>
20012452:	04740793          	addi	a5,s0,71
20012456:	c01c                	sw	a5,0(s0)
20012458:	c81c                	sw	a5,16(s0)
2001245a:	4785                	li	a5,1
2001245c:	c85c                	sw	a5,20(s0)
2001245e:	40f2                	lw	ra,28(sp)
20012460:	4462                	lw	s0,24(sp)
20012462:	44d2                	lw	s1,20(sp)
20012464:	4942                	lw	s2,16(sp)
20012466:	6105                	addi	sp,sp,32
20012468:	8082                	ret
2001246a:	0074                	addi	a3,sp,12
2001246c:	0030                	addi	a2,sp,8
2001246e:	892a                	mv	s2,a0
20012470:	3f95                	jal	200123e4 <__swhatbuf_r>
20012472:	45a2                	lw	a1,8(sp)
20012474:	84aa                	mv	s1,a0
20012476:	854a                	mv	a0,s2
20012478:	e90ff0ef          	jal	ra,20011b08 <_malloc_r>
2001247c:	ed01                	bnez	a0,20012494 <__smakebuf_r+0x56>
2001247e:	00c41783          	lh	a5,12(s0)
20012482:	2007f713          	andi	a4,a5,512
20012486:	ff61                	bnez	a4,2001245e <__smakebuf_r+0x20>
20012488:	9bf1                	andi	a5,a5,-4
2001248a:	0027e793          	ori	a5,a5,2
2001248e:	00f41623          	sh	a5,12(s0)
20012492:	b7c1                	j	20012452 <__smakebuf_r+0x14>
20012494:	fffff797          	auipc	a5,0xfffff
20012498:	40e78793          	addi	a5,a5,1038 # 200118a2 <_cleanup_r>
2001249c:	02f92423          	sw	a5,40(s2)
200124a0:	00c45783          	lhu	a5,12(s0)
200124a4:	c008                	sw	a0,0(s0)
200124a6:	c808                	sw	a0,16(s0)
200124a8:	0807e793          	ori	a5,a5,128
200124ac:	00f41623          	sh	a5,12(s0)
200124b0:	47a2                	lw	a5,8(sp)
200124b2:	c85c                	sw	a5,20(s0)
200124b4:	47b2                	lw	a5,12(sp)
200124b6:	cf89                	beqz	a5,200124d0 <__smakebuf_r+0x92>
200124b8:	00e41583          	lh	a1,14(s0)
200124bc:	854a                	mv	a0,s2
200124be:	21c1                	jal	2001297e <_isatty_r>
200124c0:	c901                	beqz	a0,200124d0 <__smakebuf_r+0x92>
200124c2:	00c45783          	lhu	a5,12(s0)
200124c6:	9bf1                	andi	a5,a5,-4
200124c8:	0017e793          	ori	a5,a5,1
200124cc:	00f41623          	sh	a5,12(s0)
200124d0:	00c45503          	lhu	a0,12(s0)
200124d4:	8cc9                	or	s1,s1,a0
200124d6:	00941623          	sh	s1,12(s0)
200124da:	b751                	j	2001245e <__smakebuf_r+0x20>

200124dc <memchr>:
memchr():
200124dc:	0ff5f593          	zext.b	a1,a1
200124e0:	962a                	add	a2,a2,a0
200124e2:	00c51463          	bne	a0,a2,200124ea <memchr+0xe>
200124e6:	4501                	li	a0,0
200124e8:	8082                	ret
200124ea:	00054783          	lbu	a5,0(a0)
200124ee:	feb78de3          	beq	a5,a1,200124e8 <memchr+0xc>
200124f2:	0505                	addi	a0,a0,1
200124f4:	b7fd                	j	200124e2 <memchr+0x6>

200124f6 <__malloc_lock>:
__malloc_lock():
200124f6:	8082                	ret

200124f8 <__malloc_unlock>:
__malloc_unlock():
200124f8:	8082                	ret

200124fa <_free_r>:
_free_r():
200124fa:	c1c5                	beqz	a1,2001259a <_free_r+0xa0>
200124fc:	ffc5a783          	lw	a5,-4(a1)
20012500:	1101                	addi	sp,sp,-32
20012502:	cc22                	sw	s0,24(sp)
20012504:	ce06                	sw	ra,28(sp)
20012506:	ffc58413          	addi	s0,a1,-4
2001250a:	0007d363          	bgez	a5,20012510 <_free_r+0x16>
2001250e:	943e                	add	s0,s0,a5
20012510:	c62a                	sw	a0,12(sp)
20012512:	37d5                	jal	200124f6 <__malloc_lock>
20012514:	5ffee717          	auipc	a4,0x5ffee
20012518:	5b470713          	addi	a4,a4,1460 # 80000ac8 <__malloc_free_list>
2001251c:	431c                	lw	a5,0(a4)
2001251e:	4532                	lw	a0,12(sp)
20012520:	eb81                	bnez	a5,20012530 <_free_r+0x36>
20012522:	00042223          	sw	zero,4(s0)
20012526:	c300                	sw	s0,0(a4)
20012528:	4462                	lw	s0,24(sp)
2001252a:	40f2                	lw	ra,28(sp)
2001252c:	6105                	addi	sp,sp,32
2001252e:	b7e9                	j	200124f8 <__malloc_unlock>
20012530:	00f47d63          	bgeu	s0,a5,2001254a <_free_r+0x50>
20012534:	4010                	lw	a2,0(s0)
20012536:	00c406b3          	add	a3,s0,a2
2001253a:	00d79663          	bne	a5,a3,20012546 <_free_r+0x4c>
2001253e:	4394                	lw	a3,0(a5)
20012540:	43dc                	lw	a5,4(a5)
20012542:	96b2                	add	a3,a3,a2
20012544:	c014                	sw	a3,0(s0)
20012546:	c05c                	sw	a5,4(s0)
20012548:	bff9                	j	20012526 <_free_r+0x2c>
2001254a:	873e                	mv	a4,a5
2001254c:	43dc                	lw	a5,4(a5)
2001254e:	c399                	beqz	a5,20012554 <_free_r+0x5a>
20012550:	fef47de3          	bgeu	s0,a5,2001254a <_free_r+0x50>
20012554:	4314                	lw	a3,0(a4)
20012556:	00d70633          	add	a2,a4,a3
2001255a:	00861f63          	bne	a2,s0,20012578 <_free_r+0x7e>
2001255e:	4010                	lw	a2,0(s0)
20012560:	96b2                	add	a3,a3,a2
20012562:	c314                	sw	a3,0(a4)
20012564:	00d70633          	add	a2,a4,a3
20012568:	fcc790e3          	bne	a5,a2,20012528 <_free_r+0x2e>
2001256c:	4390                	lw	a2,0(a5)
2001256e:	43dc                	lw	a5,4(a5)
20012570:	96b2                	add	a3,a3,a2
20012572:	c314                	sw	a3,0(a4)
20012574:	c35c                	sw	a5,4(a4)
20012576:	bf4d                	j	20012528 <_free_r+0x2e>
20012578:	00c47563          	bgeu	s0,a2,20012582 <_free_r+0x88>
2001257c:	47b1                	li	a5,12
2001257e:	c11c                	sw	a5,0(a0)
20012580:	b765                	j	20012528 <_free_r+0x2e>
20012582:	4010                	lw	a2,0(s0)
20012584:	00c406b3          	add	a3,s0,a2
20012588:	00d79663          	bne	a5,a3,20012594 <_free_r+0x9a>
2001258c:	4394                	lw	a3,0(a5)
2001258e:	43dc                	lw	a5,4(a5)
20012590:	96b2                	add	a3,a3,a2
20012592:	c014                	sw	a3,0(s0)
20012594:	c05c                	sw	a5,4(s0)
20012596:	c340                	sw	s0,4(a4)
20012598:	bf41                	j	20012528 <_free_r+0x2e>
2001259a:	8082                	ret

2001259c <_printf_common>:
_printf_common():
2001259c:	7179                	addi	sp,sp,-48
2001259e:	cc52                	sw	s4,24(sp)
200125a0:	499c                	lw	a5,16(a1)
200125a2:	8a3a                	mv	s4,a4
200125a4:	4598                	lw	a4,8(a1)
200125a6:	d422                	sw	s0,40(sp)
200125a8:	d226                	sw	s1,36(sp)
200125aa:	ce4e                	sw	s3,28(sp)
200125ac:	ca56                	sw	s5,20(sp)
200125ae:	d606                	sw	ra,44(sp)
200125b0:	d04a                	sw	s2,32(sp)
200125b2:	c85a                	sw	s6,16(sp)
200125b4:	c65e                	sw	s7,12(sp)
200125b6:	89aa                	mv	s3,a0
200125b8:	842e                	mv	s0,a1
200125ba:	84b2                	mv	s1,a2
200125bc:	8ab6                	mv	s5,a3
200125be:	00e7d363          	bge	a5,a4,200125c4 <_printf_common+0x28>
200125c2:	87ba                	mv	a5,a4
200125c4:	c09c                	sw	a5,0(s1)
200125c6:	04344703          	lbu	a4,67(s0)
200125ca:	c319                	beqz	a4,200125d0 <_printf_common+0x34>
200125cc:	0785                	addi	a5,a5,1
200125ce:	c09c                	sw	a5,0(s1)
200125d0:	401c                	lw	a5,0(s0)
200125d2:	0207f793          	andi	a5,a5,32
200125d6:	c781                	beqz	a5,200125de <_printf_common+0x42>
200125d8:	409c                	lw	a5,0(s1)
200125da:	0789                	addi	a5,a5,2
200125dc:	c09c                	sw	a5,0(s1)
200125de:	00042903          	lw	s2,0(s0)
200125e2:	00697913          	andi	s2,s2,6
200125e6:	00091a63          	bnez	s2,200125fa <_printf_common+0x5e>
200125ea:	01940b13          	addi	s6,s0,25
200125ee:	5bfd                	li	s7,-1
200125f0:	445c                	lw	a5,12(s0)
200125f2:	4098                	lw	a4,0(s1)
200125f4:	8f99                	sub	a5,a5,a4
200125f6:	04f94c63          	blt	s2,a5,2001264e <_printf_common+0xb2>
200125fa:	04344783          	lbu	a5,67(s0)
200125fe:	00f036b3          	snez	a3,a5
20012602:	401c                	lw	a5,0(s0)
20012604:	0207f793          	andi	a5,a5,32
20012608:	eba5                	bnez	a5,20012678 <_printf_common+0xdc>
2001260a:	04340613          	addi	a2,s0,67
2001260e:	85d6                	mv	a1,s5
20012610:	854e                	mv	a0,s3
20012612:	9a02                	jalr	s4
20012614:	57fd                	li	a5,-1
20012616:	04f50363          	beq	a0,a5,2001265c <_printf_common+0xc0>
2001261a:	401c                	lw	a5,0(s0)
2001261c:	4611                	li	a2,4
2001261e:	4098                	lw	a4,0(s1)
20012620:	8b99                	andi	a5,a5,6
20012622:	4454                	lw	a3,12(s0)
20012624:	4481                	li	s1,0
20012626:	00c79763          	bne	a5,a2,20012634 <_printf_common+0x98>
2001262a:	40e684b3          	sub	s1,a3,a4
2001262e:	0004d363          	bgez	s1,20012634 <_printf_common+0x98>
20012632:	4481                	li	s1,0
20012634:	441c                	lw	a5,8(s0)
20012636:	4818                	lw	a4,16(s0)
20012638:	00f75463          	bge	a4,a5,20012640 <_printf_common+0xa4>
2001263c:	8f99                	sub	a5,a5,a4
2001263e:	94be                	add	s1,s1,a5
20012640:	4901                	li	s2,0
20012642:	0469                	addi	s0,s0,26
20012644:	5b7d                	li	s6,-1
20012646:	05249863          	bne	s1,s2,20012696 <_printf_common+0xfa>
2001264a:	4501                	li	a0,0
2001264c:	a809                	j	2001265e <_printf_common+0xc2>
2001264e:	4685                	li	a3,1
20012650:	865a                	mv	a2,s6
20012652:	85d6                	mv	a1,s5
20012654:	854e                	mv	a0,s3
20012656:	9a02                	jalr	s4
20012658:	01751e63          	bne	a0,s7,20012674 <_printf_common+0xd8>
2001265c:	557d                	li	a0,-1
2001265e:	50b2                	lw	ra,44(sp)
20012660:	5422                	lw	s0,40(sp)
20012662:	5492                	lw	s1,36(sp)
20012664:	5902                	lw	s2,32(sp)
20012666:	49f2                	lw	s3,28(sp)
20012668:	4a62                	lw	s4,24(sp)
2001266a:	4ad2                	lw	s5,20(sp)
2001266c:	4b42                	lw	s6,16(sp)
2001266e:	4bb2                	lw	s7,12(sp)
20012670:	6145                	addi	sp,sp,48
20012672:	8082                	ret
20012674:	0905                	addi	s2,s2,1
20012676:	bfad                	j	200125f0 <_printf_common+0x54>
20012678:	00d40733          	add	a4,s0,a3
2001267c:	03000613          	li	a2,48
20012680:	04c701a3          	sb	a2,67(a4)
20012684:	04544703          	lbu	a4,69(s0)
20012688:	00168793          	addi	a5,a3,1 # 1001 <__heap_size+0x801>
2001268c:	97a2                	add	a5,a5,s0
2001268e:	0689                	addi	a3,a3,2
20012690:	04e781a3          	sb	a4,67(a5)
20012694:	bf9d                	j	2001260a <_printf_common+0x6e>
20012696:	4685                	li	a3,1
20012698:	8622                	mv	a2,s0
2001269a:	85d6                	mv	a1,s5
2001269c:	854e                	mv	a0,s3
2001269e:	9a02                	jalr	s4
200126a0:	fb650ee3          	beq	a0,s6,2001265c <_printf_common+0xc0>
200126a4:	0905                	addi	s2,s2,1
200126a6:	b745                	j	20012646 <_printf_common+0xaa>

200126a8 <_printf_i>:
_printf_i():
200126a8:	7179                	addi	sp,sp,-48
200126aa:	d422                	sw	s0,40(sp)
200126ac:	d226                	sw	s1,36(sp)
200126ae:	d04a                	sw	s2,32(sp)
200126b0:	ce4e                	sw	s3,28(sp)
200126b2:	d606                	sw	ra,44(sp)
200126b4:	cc52                	sw	s4,24(sp)
200126b6:	ca56                	sw	s5,20(sp)
200126b8:	c85a                	sw	s6,16(sp)
200126ba:	0185c803          	lbu	a6,24(a1)
200126be:	07800793          	li	a5,120
200126c2:	84aa                	mv	s1,a0
200126c4:	842e                	mv	s0,a1
200126c6:	8932                	mv	s2,a2
200126c8:	89b6                	mv	s3,a3
200126ca:	0107ee63          	bltu	a5,a6,200126e6 <_printf_i+0x3e>
200126ce:	06200793          	li	a5,98
200126d2:	04358693          	addi	a3,a1,67
200126d6:	0107ed63          	bltu	a5,a6,200126f0 <_printf_i+0x48>
200126da:	1c080563          	beqz	a6,200128a4 <_printf_i+0x1fc>
200126de:	05800793          	li	a5,88
200126e2:	12f80a63          	beq	a6,a5,20012816 <_printf_i+0x16e>
200126e6:	04240a93          	addi	s5,s0,66
200126ea:	05040123          	sb	a6,66(s0)
200126ee:	a815                	j	20012722 <_printf_i+0x7a>
200126f0:	f9d80793          	addi	a5,a6,-99
200126f4:	0ff7f793          	zext.b	a5,a5
200126f8:	4655                	li	a2,21
200126fa:	fef666e3          	bltu	a2,a5,200126e6 <_printf_i+0x3e>
200126fe:	ffffe617          	auipc	a2,0xffffe
20012702:	d6e60613          	addi	a2,a2,-658 # 2001046c <__sf_fake_stdout+0x5c>
20012706:	078a                	slli	a5,a5,0x2
20012708:	97b2                	add	a5,a5,a2
2001270a:	439c                	lw	a5,0(a5)
2001270c:	97b2                	add	a5,a5,a2
2001270e:	8782                	jr	a5
20012710:	431c                	lw	a5,0(a4)
20012712:	04258a93          	addi	s5,a1,66
20012716:	00478693          	addi	a3,a5,4
2001271a:	439c                	lw	a5,0(a5)
2001271c:	c314                	sw	a3,0(a4)
2001271e:	04f58123          	sb	a5,66(a1)
20012722:	4785                	li	a5,1
20012724:	a25d                	j	200128ca <_printf_i+0x222>
20012726:	419c                	lw	a5,0(a1)
20012728:	4308                	lw	a0,0(a4)
2001272a:	0807f613          	andi	a2,a5,128
2001272e:	00450593          	addi	a1,a0,4
20012732:	c20d                	beqz	a2,20012754 <_printf_i+0xac>
20012734:	411c                	lw	a5,0(a0)
20012736:	c30c                	sw	a1,0(a4)
20012738:	0007d863          	bgez	a5,20012748 <_printf_i+0xa0>
2001273c:	02d00713          	li	a4,45
20012740:	40f007b3          	neg	a5,a5
20012744:	04e401a3          	sb	a4,67(s0)
20012748:	ffffe617          	auipc	a2,0xffffe
2001274c:	cfc60613          	addi	a2,a2,-772 # 20010444 <__sf_fake_stdout+0x34>
20012750:	4829                	li	a6,10
20012752:	a0a1                	j	2001279a <_printf_i+0xf2>
20012754:	0407f613          	andi	a2,a5,64
20012758:	411c                	lw	a5,0(a0)
2001275a:	c30c                	sw	a1,0(a4)
2001275c:	de71                	beqz	a2,20012738 <_printf_i+0x90>
2001275e:	07c2                	slli	a5,a5,0x10
20012760:	87c1                	srai	a5,a5,0x10
20012762:	bfd9                	j	20012738 <_printf_i+0x90>
20012764:	4190                	lw	a2,0(a1)
20012766:	431c                	lw	a5,0(a4)
20012768:	08067513          	andi	a0,a2,128
2001276c:	00478593          	addi	a1,a5,4
20012770:	c501                	beqz	a0,20012778 <_printf_i+0xd0>
20012772:	c30c                	sw	a1,0(a4)
20012774:	439c                	lw	a5,0(a5)
20012776:	a039                	j	20012784 <_printf_i+0xdc>
20012778:	04067613          	andi	a2,a2,64
2001277c:	c30c                	sw	a1,0(a4)
2001277e:	da7d                	beqz	a2,20012774 <_printf_i+0xcc>
20012780:	0007d783          	lhu	a5,0(a5)
20012784:	06f00713          	li	a4,111
20012788:	ffffe617          	auipc	a2,0xffffe
2001278c:	cbc60613          	addi	a2,a2,-836 # 20010444 <__sf_fake_stdout+0x34>
20012790:	0ee80463          	beq	a6,a4,20012878 <_printf_i+0x1d0>
20012794:	4829                	li	a6,10
20012796:	040401a3          	sb	zero,67(s0)
2001279a:	4058                	lw	a4,4(s0)
2001279c:	c418                	sw	a4,8(s0)
2001279e:	00074563          	bltz	a4,200127a8 <_printf_i+0x100>
200127a2:	400c                	lw	a1,0(s0)
200127a4:	99ed                	andi	a1,a1,-5
200127a6:	c00c                	sw	a1,0(s0)
200127a8:	e399                	bnez	a5,200127ae <_printf_i+0x106>
200127aa:	8ab6                	mv	s5,a3
200127ac:	cf19                	beqz	a4,200127ca <_printf_i+0x122>
200127ae:	8ab6                	mv	s5,a3
200127b0:	0307f733          	remu	a4,a5,a6
200127b4:	1afd                	addi	s5,s5,-1
200127b6:	9732                	add	a4,a4,a2
200127b8:	00074703          	lbu	a4,0(a4)
200127bc:	00ea8023          	sb	a4,0(s5)
200127c0:	873e                	mv	a4,a5
200127c2:	0307d7b3          	divu	a5,a5,a6
200127c6:	ff0775e3          	bgeu	a4,a6,200127b0 <_printf_i+0x108>
200127ca:	47a1                	li	a5,8
200127cc:	00f81e63          	bne	a6,a5,200127e8 <_printf_i+0x140>
200127d0:	401c                	lw	a5,0(s0)
200127d2:	8b85                	andi	a5,a5,1
200127d4:	cb91                	beqz	a5,200127e8 <_printf_i+0x140>
200127d6:	4058                	lw	a4,4(s0)
200127d8:	481c                	lw	a5,16(s0)
200127da:	00e7c763          	blt	a5,a4,200127e8 <_printf_i+0x140>
200127de:	03000793          	li	a5,48
200127e2:	fefa8fa3          	sb	a5,-1(s5)
200127e6:	1afd                	addi	s5,s5,-1
200127e8:	415686b3          	sub	a3,a3,s5
200127ec:	c814                	sw	a3,16(s0)
200127ee:	874e                	mv	a4,s3
200127f0:	86ca                	mv	a3,s2
200127f2:	0070                	addi	a2,sp,12
200127f4:	85a2                	mv	a1,s0
200127f6:	8526                	mv	a0,s1
200127f8:	3355                	jal	2001259c <_printf_common>
200127fa:	5a7d                	li	s4,-1
200127fc:	0d451b63          	bne	a0,s4,200128d2 <_printf_i+0x22a>
20012800:	557d                	li	a0,-1
20012802:	50b2                	lw	ra,44(sp)
20012804:	5422                	lw	s0,40(sp)
20012806:	5492                	lw	s1,36(sp)
20012808:	5902                	lw	s2,32(sp)
2001280a:	49f2                	lw	s3,28(sp)
2001280c:	4a62                	lw	s4,24(sp)
2001280e:	4ad2                	lw	s5,20(sp)
20012810:	4b42                	lw	s6,16(sp)
20012812:	6145                	addi	sp,sp,48
20012814:	8082                	ret
20012816:	050582a3          	sb	a6,69(a1)
2001281a:	ffffe617          	auipc	a2,0xffffe
2001281e:	c2a60613          	addi	a2,a2,-982 # 20010444 <__sf_fake_stdout+0x34>
20012822:	400c                	lw	a1,0(s0)
20012824:	4308                	lw	a0,0(a4)
20012826:	0805f813          	andi	a6,a1,128
2001282a:	411c                	lw	a5,0(a0)
2001282c:	0511                	addi	a0,a0,4
2001282e:	02080d63          	beqz	a6,20012868 <_printf_i+0x1c0>
20012832:	c308                	sw	a0,0(a4)
20012834:	0015f713          	andi	a4,a1,1
20012838:	c701                	beqz	a4,20012840 <_printf_i+0x198>
2001283a:	0205e593          	ori	a1,a1,32
2001283e:	c00c                	sw	a1,0(s0)
20012840:	4841                	li	a6,16
20012842:	fbb1                	bnez	a5,20012796 <_printf_i+0xee>
20012844:	4018                	lw	a4,0(s0)
20012846:	fdf77713          	andi	a4,a4,-33
2001284a:	c018                	sw	a4,0(s0)
2001284c:	b7a9                	j	20012796 <_printf_i+0xee>
2001284e:	419c                	lw	a5,0(a1)
20012850:	0207e793          	ori	a5,a5,32
20012854:	c19c                	sw	a5,0(a1)
20012856:	07800793          	li	a5,120
2001285a:	04f402a3          	sb	a5,69(s0)
2001285e:	ffffe617          	auipc	a2,0xffffe
20012862:	bfa60613          	addi	a2,a2,-1030 # 20010458 <__sf_fake_stdout+0x48>
20012866:	bf75                	j	20012822 <_printf_i+0x17a>
20012868:	0405f813          	andi	a6,a1,64
2001286c:	c308                	sw	a0,0(a4)
2001286e:	fc0803e3          	beqz	a6,20012834 <_printf_i+0x18c>
20012872:	07c2                	slli	a5,a5,0x10
20012874:	83c1                	srli	a5,a5,0x10
20012876:	bf7d                	j	20012834 <_printf_i+0x18c>
20012878:	4821                	li	a6,8
2001287a:	bf31                	j	20012796 <_printf_i+0xee>
2001287c:	4190                	lw	a2,0(a1)
2001287e:	431c                	lw	a5,0(a4)
20012880:	49cc                	lw	a1,20(a1)
20012882:	08067813          	andi	a6,a2,128
20012886:	00478513          	addi	a0,a5,4
2001288a:	00080663          	beqz	a6,20012896 <_printf_i+0x1ee>
2001288e:	c308                	sw	a0,0(a4)
20012890:	439c                	lw	a5,0(a5)
20012892:	c38c                	sw	a1,0(a5)
20012894:	a801                	j	200128a4 <_printf_i+0x1fc>
20012896:	c308                	sw	a0,0(a4)
20012898:	04067613          	andi	a2,a2,64
2001289c:	439c                	lw	a5,0(a5)
2001289e:	da75                	beqz	a2,20012892 <_printf_i+0x1ea>
200128a0:	00b79023          	sh	a1,0(a5)
200128a4:	00042823          	sw	zero,16(s0)
200128a8:	8ab6                	mv	s5,a3
200128aa:	b791                	j	200127ee <_printf_i+0x146>
200128ac:	431c                	lw	a5,0(a4)
200128ae:	41d0                	lw	a2,4(a1)
200128b0:	4581                	li	a1,0
200128b2:	00478693          	addi	a3,a5,4
200128b6:	c314                	sw	a3,0(a4)
200128b8:	0007aa83          	lw	s5,0(a5)
200128bc:	8556                	mv	a0,s5
200128be:	3939                	jal	200124dc <memchr>
200128c0:	c501                	beqz	a0,200128c8 <_printf_i+0x220>
200128c2:	41550533          	sub	a0,a0,s5
200128c6:	c048                	sw	a0,4(s0)
200128c8:	405c                	lw	a5,4(s0)
200128ca:	c81c                	sw	a5,16(s0)
200128cc:	040401a3          	sb	zero,67(s0)
200128d0:	bf39                	j	200127ee <_printf_i+0x146>
200128d2:	4814                	lw	a3,16(s0)
200128d4:	8656                	mv	a2,s5
200128d6:	85ca                	mv	a1,s2
200128d8:	8526                	mv	a0,s1
200128da:	9982                	jalr	s3
200128dc:	f34502e3          	beq	a0,s4,20012800 <_printf_i+0x158>
200128e0:	401c                	lw	a5,0(s0)
200128e2:	8b89                	andi	a5,a5,2
200128e4:	e78d                	bnez	a5,2001290e <_printf_i+0x266>
200128e6:	47b2                	lw	a5,12(sp)
200128e8:	4448                	lw	a0,12(s0)
200128ea:	f0f55ce3          	bge	a0,a5,20012802 <_printf_i+0x15a>
200128ee:	853e                	mv	a0,a5
200128f0:	bf09                	j	20012802 <_printf_i+0x15a>
200128f2:	4685                	li	a3,1
200128f4:	8656                	mv	a2,s5
200128f6:	85ca                	mv	a1,s2
200128f8:	8526                	mv	a0,s1
200128fa:	9982                	jalr	s3
200128fc:	f16502e3          	beq	a0,s6,20012800 <_printf_i+0x158>
20012900:	0a05                	addi	s4,s4,1
20012902:	445c                	lw	a5,12(s0)
20012904:	4732                	lw	a4,12(sp)
20012906:	8f99                	sub	a5,a5,a4
20012908:	fefa45e3          	blt	s4,a5,200128f2 <_printf_i+0x24a>
2001290c:	bfe9                	j	200128e6 <_printf_i+0x23e>
2001290e:	4a01                	li	s4,0
20012910:	01940a93          	addi	s5,s0,25
20012914:	5b7d                	li	s6,-1
20012916:	b7f5                	j	20012902 <_printf_i+0x25a>

20012918 <_read_r>:
_read_r():
20012918:	1141                	addi	sp,sp,-16
2001291a:	c422                	sw	s0,8(sp)
2001291c:	842a                	mv	s0,a0
2001291e:	852e                	mv	a0,a1
20012920:	85b2                	mv	a1,a2
20012922:	8636                	mv	a2,a3
20012924:	5ffee797          	auipc	a5,0x5ffee
20012928:	1a07a623          	sw	zero,428(a5) # 80000ad0 <errno>
2001292c:	c606                	sw	ra,12(sp)
2001292e:	1f7000ef          	jal	ra,20013324 <_read>
20012932:	57fd                	li	a5,-1
20012934:	00f51863          	bne	a0,a5,20012944 <_read_r+0x2c>
20012938:	5ffee797          	auipc	a5,0x5ffee
2001293c:	1987a783          	lw	a5,408(a5) # 80000ad0 <errno>
20012940:	c391                	beqz	a5,20012944 <_read_r+0x2c>
20012942:	c01c                	sw	a5,0(s0)
20012944:	40b2                	lw	ra,12(sp)
20012946:	4422                	lw	s0,8(sp)
20012948:	0141                	addi	sp,sp,16
2001294a:	8082                	ret

2001294c <_fstat_r>:
_fstat_r():
2001294c:	1141                	addi	sp,sp,-16
2001294e:	c422                	sw	s0,8(sp)
20012950:	842a                	mv	s0,a0
20012952:	852e                	mv	a0,a1
20012954:	85b2                	mv	a1,a2
20012956:	5ffee797          	auipc	a5,0x5ffee
2001295a:	1607ad23          	sw	zero,378(a5) # 80000ad0 <errno>
2001295e:	c606                	sw	ra,12(sp)
20012960:	155000ef          	jal	ra,200132b4 <_fstat>
20012964:	57fd                	li	a5,-1
20012966:	00f51863          	bne	a0,a5,20012976 <_fstat_r+0x2a>
2001296a:	5ffee797          	auipc	a5,0x5ffee
2001296e:	1667a783          	lw	a5,358(a5) # 80000ad0 <errno>
20012972:	c391                	beqz	a5,20012976 <_fstat_r+0x2a>
20012974:	c01c                	sw	a5,0(s0)
20012976:	40b2                	lw	ra,12(sp)
20012978:	4422                	lw	s0,8(sp)
2001297a:	0141                	addi	sp,sp,16
2001297c:	8082                	ret

2001297e <_isatty_r>:
_isatty_r():
2001297e:	1141                	addi	sp,sp,-16
20012980:	c422                	sw	s0,8(sp)
20012982:	842a                	mv	s0,a0
20012984:	852e                	mv	a0,a1
20012986:	5ffee797          	auipc	a5,0x5ffee
2001298a:	1407a523          	sw	zero,330(a5) # 80000ad0 <errno>
2001298e:	c606                	sw	ra,12(sp)
20012990:	14b000ef          	jal	ra,200132da <_isatty>
20012994:	57fd                	li	a5,-1
20012996:	00f51863          	bne	a0,a5,200129a6 <_isatty_r+0x28>
2001299a:	5ffee797          	auipc	a5,0x5ffee
2001299e:	1367a783          	lw	a5,310(a5) # 80000ad0 <errno>
200129a2:	c391                	beqz	a5,200129a6 <_isatty_r+0x28>
200129a4:	c01c                	sw	a5,0(s0)
200129a6:	40b2                	lw	ra,12(sp)
200129a8:	4422                	lw	s0,8(sp)
200129aa:	0141                	addi	sp,sp,16
200129ac:	8082                	ret

200129ae <__subdf3>:
__subdf3():
/home/scratch/jenkins/workspace/tpp-freedom-tools/tpp04--build-binary-packages--parameterized/obj/x86_64-linux-centos6/build/riscv64-unknown-elf-gcc/build-gcc-stage2/riscv64-unknown-elf/rv32imac/ilp32/libgcc/../../../../../riscv-gcc/libgcc/soft-fp/subdf3.c:44
200129ae:	00100837          	lui	a6,0x100
200129b2:	187d                	addi	a6,a6,-1
/home/scratch/jenkins/workspace/tpp-freedom-tools/tpp04--build-binary-packages--parameterized/obj/x86_64-linux-centos6/build/riscv64-unknown-elf-gcc/build-gcc-stage2/riscv64-unknown-elf/rv32imac/ilp32/libgcc/../../../../../riscv-gcc/libgcc/soft-fp/subdf3.c:36
200129b4:	1101                	addi	sp,sp,-32
/home/scratch/jenkins/workspace/tpp-freedom-tools/tpp04--build-binary-packages--parameterized/obj/x86_64-linux-centos6/build/riscv64-unknown-elf-gcc/build-gcc-stage2/riscv64-unknown-elf/rv32imac/ilp32/libgcc/../../../../../riscv-gcc/libgcc/soft-fp/subdf3.c:44
200129b6:	00b877b3          	and	a5,a6,a1
200129ba:	0145d713          	srli	a4,a1,0x14
/home/scratch/jenkins/workspace/tpp-freedom-tools/tpp04--build-binary-packages--parameterized/obj/x86_64-linux-centos6/build/riscv64-unknown-elf-gcc/build-gcc-stage2/riscv64-unknown-elf/rv32imac/ilp32/libgcc/../../../../../riscv-gcc/libgcc/soft-fp/subdf3.c:45
200129be:	00d87833          	and	a6,a6,a3
200129c2:	0146d313          	srli	t1,a3,0x14
/home/scratch/jenkins/workspace/tpp-freedom-tools/tpp04--build-binary-packages--parameterized/obj/x86_64-linux-centos6/build/riscv64-unknown-elf-gcc/build-gcc-stage2/riscv64-unknown-elf/rv32imac/ilp32/libgcc/../../../../../riscv-gcc/libgcc/soft-fp/subdf3.c:36
200129c6:	cc22                	sw	s0,24(sp)
/home/scratch/jenkins/workspace/tpp-freedom-tools/tpp04--build-binary-packages--parameterized/obj/x86_64-linux-centos6/build/riscv64-unknown-elf-gcc/build-gcc-stage2/riscv64-unknown-elf/rv32imac/ilp32/libgcc/../../../../../riscv-gcc/libgcc/soft-fp/subdf3.c:44
200129c8:	078e                	slli	a5,a5,0x3
200129ca:	7ff77413          	andi	s0,a4,2047
200129ce:	01d55713          	srli	a4,a0,0x1d
/home/scratch/jenkins/workspace/tpp-freedom-tools/tpp04--build-binary-packages--parameterized/obj/x86_64-linux-centos6/build/riscv64-unknown-elf-gcc/build-gcc-stage2/riscv64-unknown-elf/rv32imac/ilp32/libgcc/../../../../../riscv-gcc/libgcc/soft-fp/subdf3.c:36
200129d2:	ca26                	sw	s1,20(sp)
/home/scratch/jenkins/workspace/tpp-freedom-tools/tpp04--build-binary-packages--parameterized/obj/x86_64-linux-centos6/build/riscv64-unknown-elf-gcc/build-gcc-stage2/riscv64-unknown-elf/rv32imac/ilp32/libgcc/../../../../../riscv-gcc/libgcc/soft-fp/subdf3.c:44
200129d4:	8fd9                	or	a5,a5,a4
200129d6:	01f5d493          	srli	s1,a1,0x1f
/home/scratch/jenkins/workspace/tpp-freedom-tools/tpp04--build-binary-packages--parameterized/obj/x86_64-linux-centos6/build/riscv64-unknown-elf-gcc/build-gcc-stage2/riscv64-unknown-elf/rv32imac/ilp32/libgcc/../../../../../riscv-gcc/libgcc/soft-fp/subdf3.c:45
200129da:	01d65713          	srli	a4,a2,0x1d
/home/scratch/jenkins/workspace/tpp-freedom-tools/tpp04--build-binary-packages--parameterized/obj/x86_64-linux-centos6/build/riscv64-unknown-elf-gcc/build-gcc-stage2/riscv64-unknown-elf/rv32imac/ilp32/libgcc/../../../../../riscv-gcc/libgcc/soft-fp/subdf3.c:44
200129de:	00351593          	slli	a1,a0,0x3
/home/scratch/jenkins/workspace/tpp-freedom-tools/tpp04--build-binary-packages--parameterized/obj/x86_64-linux-centos6/build/riscv64-unknown-elf-gcc/build-gcc-stage2/riscv64-unknown-elf/rv32imac/ilp32/libgcc/../../../../../riscv-gcc/libgcc/soft-fp/subdf3.c:45
200129e2:	080e                	slli	a6,a6,0x3
/home/scratch/jenkins/workspace/tpp-freedom-tools/tpp04--build-binary-packages--parameterized/obj/x86_64-linux-centos6/build/riscv64-unknown-elf-gcc/build-gcc-stage2/riscv64-unknown-elf/rv32imac/ilp32/libgcc/../../../../../riscv-gcc/libgcc/soft-fp/subdf3.c:36
200129e4:	ce06                	sw	ra,28(sp)
200129e6:	c84a                	sw	s2,16(sp)
200129e8:	c64e                	sw	s3,12(sp)
/home/scratch/jenkins/workspace/tpp-freedom-tools/tpp04--build-binary-packages--parameterized/obj/x86_64-linux-centos6/build/riscv64-unknown-elf-gcc/build-gcc-stage2/riscv64-unknown-elf/rv32imac/ilp32/libgcc/../../../../../riscv-gcc/libgcc/soft-fp/subdf3.c:45
200129ea:	7ff37313          	andi	t1,t1,2047
/home/scratch/jenkins/workspace/tpp-freedom-tools/tpp04--build-binary-packages--parameterized/obj/x86_64-linux-centos6/build/riscv64-unknown-elf-gcc/build-gcc-stage2/riscv64-unknown-elf/rv32imac/ilp32/libgcc/../../../../../riscv-gcc/libgcc/soft-fp/subdf3.c:46
200129ee:	7ff00513          	li	a0,2047
/home/scratch/jenkins/workspace/tpp-freedom-tools/tpp04--build-binary-packages--parameterized/obj/x86_64-linux-centos6/build/riscv64-unknown-elf-gcc/build-gcc-stage2/riscv64-unknown-elf/rv32imac/ilp32/libgcc/../../../../../riscv-gcc/libgcc/soft-fp/subdf3.c:45
200129f2:	82fd                	srli	a3,a3,0x1f
200129f4:	01076733          	or	a4,a4,a6
200129f8:	060e                	slli	a2,a2,0x3
/home/scratch/jenkins/workspace/tpp-freedom-tools/tpp04--build-binary-packages--parameterized/obj/x86_64-linux-centos6/build/riscv64-unknown-elf-gcc/build-gcc-stage2/riscv64-unknown-elf/rv32imac/ilp32/libgcc/../../../../../riscv-gcc/libgcc/soft-fp/subdf3.c:46
200129fa:	00a31563          	bne	t1,a0,20012a04 <__subdf3+0x56>
/home/scratch/jenkins/workspace/tpp-freedom-tools/tpp04--build-binary-packages--parameterized/obj/x86_64-linux-centos6/build/riscv64-unknown-elf-gcc/build-gcc-stage2/riscv64-unknown-elf/rv32imac/ilp32/libgcc/../../../../../riscv-gcc/libgcc/soft-fp/subdf3.c:46 (discriminator 2)
200129fe:	00c76533          	or	a0,a4,a2
20012a02:	e119                	bnez	a0,20012a08 <__subdf3+0x5a>
/home/scratch/jenkins/workspace/tpp-freedom-tools/tpp04--build-binary-packages--parameterized/obj/x86_64-linux-centos6/build/riscv64-unknown-elf-gcc/build-gcc-stage2/riscv64-unknown-elf/rv32imac/ilp32/libgcc/../../../../../riscv-gcc/libgcc/soft-fp/subdf3.c:46 (discriminator 3)
20012a04:	0016c693          	xori	a3,a3,1
/home/scratch/jenkins/workspace/tpp-freedom-tools/tpp04--build-binary-packages--parameterized/obj/x86_64-linux-centos6/build/riscv64-unknown-elf-gcc/build-gcc-stage2/riscv64-unknown-elf/rv32imac/ilp32/libgcc/../../../../../riscv-gcc/libgcc/soft-fp/subdf3.c:46 (discriminator 11)
20012a08:	40640833          	sub	a6,s0,t1
20012a0c:	22969863          	bne	a3,s1,20012c3c <__subdf3+0x28e>
/home/scratch/jenkins/workspace/tpp-freedom-tools/tpp04--build-binary-packages--parameterized/obj/x86_64-linux-centos6/build/riscv64-unknown-elf-gcc/build-gcc-stage2/riscv64-unknown-elf/rv32imac/ilp32/libgcc/../../../../../riscv-gcc/libgcc/soft-fp/subdf3.c:46 (discriminator 12)
20012a10:	0f005363          	blez	a6,20012af6 <__subdf3+0x148>
/home/scratch/jenkins/workspace/tpp-freedom-tools/tpp04--build-binary-packages--parameterized/obj/x86_64-linux-centos6/build/riscv64-unknown-elf-gcc/build-gcc-stage2/riscv64-unknown-elf/rv32imac/ilp32/libgcc/../../../../../riscv-gcc/libgcc/soft-fp/subdf3.c:46 (discriminator 14)
20012a14:	02031863          	bnez	t1,20012a44 <__subdf3+0x96>
/home/scratch/jenkins/workspace/tpp-freedom-tools/tpp04--build-binary-packages--parameterized/obj/x86_64-linux-centos6/build/riscv64-unknown-elf-gcc/build-gcc-stage2/riscv64-unknown-elf/rv32imac/ilp32/libgcc/../../../../../riscv-gcc/libgcc/soft-fp/subdf3.c:46 (discriminator 16)
20012a18:	00c766b3          	or	a3,a4,a2
20012a1c:	58068163          	beqz	a3,20012f9e <__subdf3+0x5f0>
/home/scratch/jenkins/workspace/tpp-freedom-tools/tpp04--build-binary-packages--parameterized/obj/x86_64-linux-centos6/build/riscv64-unknown-elf-gcc/build-gcc-stage2/riscv64-unknown-elf/rv32imac/ilp32/libgcc/../../../../../riscv-gcc/libgcc/soft-fp/subdf3.c:46 (discriminator 19)
20012a20:	fff80513          	addi	a0,a6,-1 # fffff <__heap_size+0xff7ff>
20012a24:	e909                	bnez	a0,20012a36 <__subdf3+0x88>
/home/scratch/jenkins/workspace/tpp-freedom-tools/tpp04--build-binary-packages--parameterized/obj/x86_64-linux-centos6/build/riscv64-unknown-elf-gcc/build-gcc-stage2/riscv64-unknown-elf/rv32imac/ilp32/libgcc/../../../../../riscv-gcc/libgcc/soft-fp/subdf3.c:46 (discriminator 28)
20012a26:	962e                	add	a2,a2,a1
20012a28:	00b63533          	sltu	a0,a2,a1
20012a2c:	97ba                	add	a5,a5,a4
20012a2e:	97aa                	add	a5,a5,a0
20012a30:	85b2                	mv	a1,a2
/home/scratch/jenkins/workspace/tpp-freedom-tools/tpp04--build-binary-packages--parameterized/obj/x86_64-linux-centos6/build/riscv64-unknown-elf-gcc/build-gcc-stage2/riscv64-unknown-elf/rv32imac/ilp32/libgcc/../../../../../riscv-gcc/libgcc/soft-fp/subdf3.c:45 (discriminator 85)
20012a32:	4405                	li	s0,1
/home/scratch/jenkins/workspace/tpp-freedom-tools/tpp04--build-binary-packages--parameterized/obj/x86_64-linux-centos6/build/riscv64-unknown-elf-gcc/build-gcc-stage2/riscv64-unknown-elf/rv32imac/ilp32/libgcc/../../../../../riscv-gcc/libgcc/soft-fp/subdf3.c:46 (discriminator 85)
20012a34:	a8b9                	j	20012a92 <__subdf3+0xe4>
/home/scratch/jenkins/workspace/tpp-freedom-tools/tpp04--build-binary-packages--parameterized/obj/x86_64-linux-centos6/build/riscv64-unknown-elf-gcc/build-gcc-stage2/riscv64-unknown-elf/rv32imac/ilp32/libgcc/../../../../../riscv-gcc/libgcc/soft-fp/subdf3.c:46 (discriminator 29)
20012a36:	7ff00693          	li	a3,2047
20012a3a:	00d81d63          	bne	a6,a3,20012a54 <__subdf3+0xa6>
/home/scratch/jenkins/workspace/tpp-freedom-tools/tpp04--build-binary-packages--parameterized/obj/x86_64-linux-centos6/build/riscv64-unknown-elf-gcc/build-gcc-stage2/riscv64-unknown-elf/rv32imac/ilp32/libgcc/../../../../../riscv-gcc/libgcc/soft-fp/subdf3.c:46
20012a3e:	7ff00413          	li	s0,2047
20012a42:	a24d                	j	20012be4 <__subdf3+0x236>
/home/scratch/jenkins/workspace/tpp-freedom-tools/tpp04--build-binary-packages--parameterized/obj/x86_64-linux-centos6/build/riscv64-unknown-elf-gcc/build-gcc-stage2/riscv64-unknown-elf/rv32imac/ilp32/libgcc/../../../../../riscv-gcc/libgcc/soft-fp/subdf3.c:46 (discriminator 17)
20012a44:	7ff00693          	li	a3,2047
20012a48:	18d40e63          	beq	s0,a3,20012be4 <__subdf3+0x236>
/home/scratch/jenkins/workspace/tpp-freedom-tools/tpp04--build-binary-packages--parameterized/obj/x86_64-linux-centos6/build/riscv64-unknown-elf-gcc/build-gcc-stage2/riscv64-unknown-elf/rv32imac/ilp32/libgcc/../../../../../riscv-gcc/libgcc/soft-fp/subdf3.c:46 (discriminator 43)
20012a4c:	008006b7          	lui	a3,0x800
20012a50:	8f55                	or	a4,a4,a3
20012a52:	8542                	mv	a0,a6
/home/scratch/jenkins/workspace/tpp-freedom-tools/tpp04--build-binary-packages--parameterized/obj/x86_64-linux-centos6/build/riscv64-unknown-elf-gcc/build-gcc-stage2/riscv64-unknown-elf/rv32imac/ilp32/libgcc/../../../../../riscv-gcc/libgcc/soft-fp/subdf3.c:46 (discriminator 52)
20012a54:	03800693          	li	a3,56
20012a58:	08a6cb63          	blt	a3,a0,20012aee <__subdf3+0x140>
/home/scratch/jenkins/workspace/tpp-freedom-tools/tpp04--build-binary-packages--parameterized/obj/x86_64-linux-centos6/build/riscv64-unknown-elf-gcc/build-gcc-stage2/riscv64-unknown-elf/rv32imac/ilp32/libgcc/../../../../../riscv-gcc/libgcc/soft-fp/subdf3.c:46 (discriminator 53)
20012a5c:	46fd                	li	a3,31
20012a5e:	06a6c263          	blt	a3,a0,20012ac2 <__subdf3+0x114>
/home/scratch/jenkins/workspace/tpp-freedom-tools/tpp04--build-binary-packages--parameterized/obj/x86_64-linux-centos6/build/riscv64-unknown-elf-gcc/build-gcc-stage2/riscv64-unknown-elf/rv32imac/ilp32/libgcc/../../../../../riscv-gcc/libgcc/soft-fp/subdf3.c:46 (discriminator 55)
20012a62:	02000813          	li	a6,32
20012a66:	40a80833          	sub	a6,a6,a0
20012a6a:	010716b3          	sll	a3,a4,a6
20012a6e:	00a658b3          	srl	a7,a2,a0
20012a72:	01061633          	sll	a2,a2,a6
20012a76:	0116e6b3          	or	a3,a3,a7
20012a7a:	00c03633          	snez	a2,a2
20012a7e:	8e55                	or	a2,a2,a3
20012a80:	00a75733          	srl	a4,a4,a0
/home/scratch/jenkins/workspace/tpp-freedom-tools/tpp04--build-binary-packages--parameterized/obj/x86_64-linux-centos6/build/riscv64-unknown-elf-gcc/build-gcc-stage2/riscv64-unknown-elf/rv32imac/ilp32/libgcc/../../../../../riscv-gcc/libgcc/soft-fp/subdf3.c:46 (discriminator 69)
20012a84:	962e                	add	a2,a2,a1
20012a86:	00b63533          	sltu	a0,a2,a1
20012a8a:	973e                	add	a4,a4,a5
20012a8c:	00a707b3          	add	a5,a4,a0
20012a90:	85b2                	mv	a1,a2
/home/scratch/jenkins/workspace/tpp-freedom-tools/tpp04--build-binary-packages--parameterized/obj/x86_64-linux-centos6/build/riscv64-unknown-elf-gcc/build-gcc-stage2/riscv64-unknown-elf/rv32imac/ilp32/libgcc/../../../../../riscv-gcc/libgcc/soft-fp/subdf3.c:46 (discriminator 127)
20012a92:	00800737          	lui	a4,0x800
20012a96:	8f7d                	and	a4,a4,a5
20012a98:	14070663          	beqz	a4,20012be4 <__subdf3+0x236>
/home/scratch/jenkins/workspace/tpp-freedom-tools/tpp04--build-binary-packages--parameterized/obj/x86_64-linux-centos6/build/riscv64-unknown-elf-gcc/build-gcc-stage2/riscv64-unknown-elf/rv32imac/ilp32/libgcc/../../../../../riscv-gcc/libgcc/soft-fp/subdf3.c:46 (discriminator 187)
20012a9c:	0405                	addi	s0,s0,1
20012a9e:	7ff00713          	li	a4,2047
20012aa2:	48e40b63          	beq	s0,a4,20012f38 <__subdf3+0x58a>
/home/scratch/jenkins/workspace/tpp-freedom-tools/tpp04--build-binary-packages--parameterized/obj/x86_64-linux-centos6/build/riscv64-unknown-elf-gcc/build-gcc-stage2/riscv64-unknown-elf/rv32imac/ilp32/libgcc/../../../../../riscv-gcc/libgcc/soft-fp/subdf3.c:46
20012aa6:	ff800737          	lui	a4,0xff800
20012aaa:	177d                	addi	a4,a4,-1
20012aac:	8ff9                	and	a5,a5,a4
20012aae:	0015f513          	andi	a0,a1,1
20012ab2:	0015d713          	srli	a4,a1,0x1
20012ab6:	8d59                	or	a0,a0,a4
20012ab8:	01f79593          	slli	a1,a5,0x1f
20012abc:	8dc9                	or	a1,a1,a0
20012abe:	8385                	srli	a5,a5,0x1
20012ac0:	a215                	j	20012be4 <__subdf3+0x236>
/home/scratch/jenkins/workspace/tpp-freedom-tools/tpp04--build-binary-packages--parameterized/obj/x86_64-linux-centos6/build/riscv64-unknown-elf-gcc/build-gcc-stage2/riscv64-unknown-elf/rv32imac/ilp32/libgcc/../../../../../riscv-gcc/libgcc/soft-fp/subdf3.c:46 (discriminator 56)
20012ac2:	fe050693          	addi	a3,a0,-32
20012ac6:	02000893          	li	a7,32
20012aca:	00d756b3          	srl	a3,a4,a3
20012ace:	4801                	li	a6,0
20012ad0:	01150863          	beq	a0,a7,20012ae0 <__subdf3+0x132>
/home/scratch/jenkins/workspace/tpp-freedom-tools/tpp04--build-binary-packages--parameterized/obj/x86_64-linux-centos6/build/riscv64-unknown-elf-gcc/build-gcc-stage2/riscv64-unknown-elf/rv32imac/ilp32/libgcc/../../../../../riscv-gcc/libgcc/soft-fp/subdf3.c:46 (discriminator 63)
20012ad4:	04000813          	li	a6,64
20012ad8:	40a80533          	sub	a0,a6,a0
20012adc:	00a71833          	sll	a6,a4,a0
/home/scratch/jenkins/workspace/tpp-freedom-tools/tpp04--build-binary-packages--parameterized/obj/x86_64-linux-centos6/build/riscv64-unknown-elf-gcc/build-gcc-stage2/riscv64-unknown-elf/rv32imac/ilp32/libgcc/../../../../../riscv-gcc/libgcc/soft-fp/subdf3.c:46 (discriminator 66)
20012ae0:	00c86633          	or	a2,a6,a2
20012ae4:	00c03633          	snez	a2,a2
20012ae8:	8e55                	or	a2,a2,a3
/home/scratch/jenkins/workspace/tpp-freedom-tools/tpp04--build-binary-packages--parameterized/obj/x86_64-linux-centos6/build/riscv64-unknown-elf-gcc/build-gcc-stage2/riscv64-unknown-elf/rv32imac/ilp32/libgcc/../../../../../riscv-gcc/libgcc/soft-fp/subdf3.c:46 (discriminator 54)
20012aea:	4701                	li	a4,0
20012aec:	bf61                	j	20012a84 <__subdf3+0xd6>
20012aee:	8e59                	or	a2,a2,a4
20012af0:	00c03633          	snez	a2,a2
20012af4:	bfdd                	j	20012aea <__subdf3+0x13c>
/home/scratch/jenkins/workspace/tpp-freedom-tools/tpp04--build-binary-packages--parameterized/obj/x86_64-linux-centos6/build/riscv64-unknown-elf-gcc/build-gcc-stage2/riscv64-unknown-elf/rv32imac/ilp32/libgcc/../../../../../riscv-gcc/libgcc/soft-fp/subdf3.c:46 (discriminator 15)
20012af6:	0a080b63          	beqz	a6,20012bac <__subdf3+0x1fe>
/home/scratch/jenkins/workspace/tpp-freedom-tools/tpp04--build-binary-packages--parameterized/obj/x86_64-linux-centos6/build/riscv64-unknown-elf-gcc/build-gcc-stage2/riscv64-unknown-elf/rv32imac/ilp32/libgcc/../../../../../riscv-gcc/libgcc/soft-fp/subdf3.c:46 (discriminator 71)
20012afa:	40830533          	sub	a0,t1,s0
20012afe:	e40d                	bnez	s0,20012b28 <__subdf3+0x17a>
/home/scratch/jenkins/workspace/tpp-freedom-tools/tpp04--build-binary-packages--parameterized/obj/x86_64-linux-centos6/build/riscv64-unknown-elf-gcc/build-gcc-stage2/riscv64-unknown-elf/rv32imac/ilp32/libgcc/../../../../../riscv-gcc/libgcc/soft-fp/subdf3.c:46 (discriminator 73)
20012b00:	00b7e6b3          	or	a3,a5,a1
20012b04:	42068163          	beqz	a3,20012f26 <__subdf3+0x578>
/home/scratch/jenkins/workspace/tpp-freedom-tools/tpp04--build-binary-packages--parameterized/obj/x86_64-linux-centos6/build/riscv64-unknown-elf-gcc/build-gcc-stage2/riscv64-unknown-elf/rv32imac/ilp32/libgcc/../../../../../riscv-gcc/libgcc/soft-fp/subdf3.c:46 (discriminator 76)
20012b08:	fff50693          	addi	a3,a0,-1
20012b0c:	e699                	bnez	a3,20012b1a <__subdf3+0x16c>
/home/scratch/jenkins/workspace/tpp-freedom-tools/tpp04--build-binary-packages--parameterized/obj/x86_64-linux-centos6/build/riscv64-unknown-elf-gcc/build-gcc-stage2/riscv64-unknown-elf/rv32imac/ilp32/libgcc/../../../../../riscv-gcc/libgcc/soft-fp/subdf3.c:46 (discriminator 85)
20012b0e:	95b2                	add	a1,a1,a2
20012b10:	97ba                	add	a5,a5,a4
20012b12:	00c5b633          	sltu	a2,a1,a2
20012b16:	97b2                	add	a5,a5,a2
20012b18:	bf29                	j	20012a32 <__subdf3+0x84>
/home/scratch/jenkins/workspace/tpp-freedom-tools/tpp04--build-binary-packages--parameterized/obj/x86_64-linux-centos6/build/riscv64-unknown-elf-gcc/build-gcc-stage2/riscv64-unknown-elf/rv32imac/ilp32/libgcc/../../../../../riscv-gcc/libgcc/soft-fp/subdf3.c:46 (discriminator 86)
20012b1a:	7ff00813          	li	a6,2047
20012b1e:	01051d63          	bne	a0,a6,20012b38 <__subdf3+0x18a>
/home/scratch/jenkins/workspace/tpp-freedom-tools/tpp04--build-binary-packages--parameterized/obj/x86_64-linux-centos6/build/riscv64-unknown-elf-gcc/build-gcc-stage2/riscv64-unknown-elf/rv32imac/ilp32/libgcc/../../../../../riscv-gcc/libgcc/soft-fp/subdf3.c:45
20012b22:	87ba                	mv	a5,a4
20012b24:	85b2                	mv	a1,a2
20012b26:	bf21                	j	20012a3e <__subdf3+0x90>
/home/scratch/jenkins/workspace/tpp-freedom-tools/tpp04--build-binary-packages--parameterized/obj/x86_64-linux-centos6/build/riscv64-unknown-elf-gcc/build-gcc-stage2/riscv64-unknown-elf/rv32imac/ilp32/libgcc/../../../../../riscv-gcc/libgcc/soft-fp/subdf3.c:46 (discriminator 74)
20012b28:	7ff00693          	li	a3,2047
20012b2c:	fed30be3          	beq	t1,a3,20012b22 <__subdf3+0x174>
/home/scratch/jenkins/workspace/tpp-freedom-tools/tpp04--build-binary-packages--parameterized/obj/x86_64-linux-centos6/build/riscv64-unknown-elf-gcc/build-gcc-stage2/riscv64-unknown-elf/rv32imac/ilp32/libgcc/../../../../../riscv-gcc/libgcc/soft-fp/subdf3.c:46 (discriminator 100)
20012b30:	008006b7          	lui	a3,0x800
20012b34:	8fd5                	or	a5,a5,a3
20012b36:	86aa                	mv	a3,a0
/home/scratch/jenkins/workspace/tpp-freedom-tools/tpp04--build-binary-packages--parameterized/obj/x86_64-linux-centos6/build/riscv64-unknown-elf-gcc/build-gcc-stage2/riscv64-unknown-elf/rv32imac/ilp32/libgcc/../../../../../riscv-gcc/libgcc/soft-fp/subdf3.c:46 (discriminator 109)
20012b38:	03800513          	li	a0,56
20012b3c:	06d54363          	blt	a0,a3,20012ba2 <__subdf3+0x1f4>
/home/scratch/jenkins/workspace/tpp-freedom-tools/tpp04--build-binary-packages--parameterized/obj/x86_64-linux-centos6/build/riscv64-unknown-elf-gcc/build-gcc-stage2/riscv64-unknown-elf/rv32imac/ilp32/libgcc/../../../../../riscv-gcc/libgcc/soft-fp/subdf3.c:46 (discriminator 110)
20012b40:	457d                	li	a0,31
20012b42:	02d54b63          	blt	a0,a3,20012b78 <__subdf3+0x1ca>
/home/scratch/jenkins/workspace/tpp-freedom-tools/tpp04--build-binary-packages--parameterized/obj/x86_64-linux-centos6/build/riscv64-unknown-elf-gcc/build-gcc-stage2/riscv64-unknown-elf/rv32imac/ilp32/libgcc/../../../../../riscv-gcc/libgcc/soft-fp/subdf3.c:46 (discriminator 112)
20012b46:	02000813          	li	a6,32
20012b4a:	40d80833          	sub	a6,a6,a3
20012b4e:	01079533          	sll	a0,a5,a6
20012b52:	00d5d8b3          	srl	a7,a1,a3
20012b56:	010595b3          	sll	a1,a1,a6
20012b5a:	01156533          	or	a0,a0,a7
20012b5e:	00b035b3          	snez	a1,a1
20012b62:	8d4d                	or	a0,a0,a1
20012b64:	00d7d7b3          	srl	a5,a5,a3
/home/scratch/jenkins/workspace/tpp-freedom-tools/tpp04--build-binary-packages--parameterized/obj/x86_64-linux-centos6/build/riscv64-unknown-elf-gcc/build-gcc-stage2/riscv64-unknown-elf/rv32imac/ilp32/libgcc/../../../../../riscv-gcc/libgcc/soft-fp/subdf3.c:46 (discriminator 126)
20012b68:	00c505b3          	add	a1,a0,a2
20012b6c:	97ba                	add	a5,a5,a4
20012b6e:	00c5b633          	sltu	a2,a1,a2
20012b72:	97b2                	add	a5,a5,a2
/home/scratch/jenkins/workspace/tpp-freedom-tools/tpp04--build-binary-packages--parameterized/obj/x86_64-linux-centos6/build/riscv64-unknown-elf-gcc/build-gcc-stage2/riscv64-unknown-elf/rv32imac/ilp32/libgcc/../../../../../riscv-gcc/libgcc/soft-fp/subdf3.c:45 (discriminator 126)
20012b74:	841a                	mv	s0,t1
20012b76:	bf31                	j	20012a92 <__subdf3+0xe4>
/home/scratch/jenkins/workspace/tpp-freedom-tools/tpp04--build-binary-packages--parameterized/obj/x86_64-linux-centos6/build/riscv64-unknown-elf-gcc/build-gcc-stage2/riscv64-unknown-elf/rv32imac/ilp32/libgcc/../../../../../riscv-gcc/libgcc/soft-fp/subdf3.c:46 (discriminator 113)
20012b78:	fe068513          	addi	a0,a3,-32 # 7fffe0 <__heap_size+0x7ff7e0>
20012b7c:	02000893          	li	a7,32
20012b80:	00a7d833          	srl	a6,a5,a0
20012b84:	4501                	li	a0,0
20012b86:	01168763          	beq	a3,a7,20012b94 <__subdf3+0x1e6>
/home/scratch/jenkins/workspace/tpp-freedom-tools/tpp04--build-binary-packages--parameterized/obj/x86_64-linux-centos6/build/riscv64-unknown-elf-gcc/build-gcc-stage2/riscv64-unknown-elf/rv32imac/ilp32/libgcc/../../../../../riscv-gcc/libgcc/soft-fp/subdf3.c:46 (discriminator 120)
20012b8a:	04000513          	li	a0,64
20012b8e:	8d15                	sub	a0,a0,a3
20012b90:	00a79533          	sll	a0,a5,a0
/home/scratch/jenkins/workspace/tpp-freedom-tools/tpp04--build-binary-packages--parameterized/obj/x86_64-linux-centos6/build/riscv64-unknown-elf-gcc/build-gcc-stage2/riscv64-unknown-elf/rv32imac/ilp32/libgcc/../../../../../riscv-gcc/libgcc/soft-fp/subdf3.c:46 (discriminator 123)
20012b94:	8d4d                	or	a0,a0,a1
20012b96:	00a03533          	snez	a0,a0
20012b9a:	00a86533          	or	a0,a6,a0
/home/scratch/jenkins/workspace/tpp-freedom-tools/tpp04--build-binary-packages--parameterized/obj/x86_64-linux-centos6/build/riscv64-unknown-elf-gcc/build-gcc-stage2/riscv64-unknown-elf/rv32imac/ilp32/libgcc/../../../../../riscv-gcc/libgcc/soft-fp/subdf3.c:46 (discriminator 111)
20012b9e:	4781                	li	a5,0
20012ba0:	b7e1                	j	20012b68 <__subdf3+0x1ba>
20012ba2:	00b7e533          	or	a0,a5,a1
20012ba6:	00a03533          	snez	a0,a0
20012baa:	bfd5                	j	20012b9e <__subdf3+0x1f0>
/home/scratch/jenkins/workspace/tpp-freedom-tools/tpp04--build-binary-packages--parameterized/obj/x86_64-linux-centos6/build/riscv64-unknown-elf-gcc/build-gcc-stage2/riscv64-unknown-elf/rv32imac/ilp32/libgcc/../../../../../riscv-gcc/libgcc/soft-fp/subdf3.c:46 (discriminator 72)
20012bac:	00140693          	addi	a3,s0,1
20012bb0:	7fe6f513          	andi	a0,a3,2046
20012bb4:	e13d                	bnez	a0,20012c1a <__subdf3+0x26c>
/home/scratch/jenkins/workspace/tpp-freedom-tools/tpp04--build-binary-packages--parameterized/obj/x86_64-linux-centos6/build/riscv64-unknown-elf-gcc/build-gcc-stage2/riscv64-unknown-elf/rv32imac/ilp32/libgcc/../../../../../riscv-gcc/libgcc/soft-fp/subdf3.c:46 (discriminator 128)
20012bb6:	00b7e6b3          	or	a3,a5,a1
20012bba:	e429                	bnez	s0,20012c04 <__subdf3+0x256>
/home/scratch/jenkins/workspace/tpp-freedom-tools/tpp04--build-binary-packages--parameterized/obj/x86_64-linux-centos6/build/riscv64-unknown-elf-gcc/build-gcc-stage2/riscv64-unknown-elf/rv32imac/ilp32/libgcc/../../../../../riscv-gcc/libgcc/soft-fp/subdf3.c:46 (discriminator 130)
20012bbc:	36068963          	beqz	a3,20012f2e <__subdf3+0x580>
/home/scratch/jenkins/workspace/tpp-freedom-tools/tpp04--build-binary-packages--parameterized/obj/x86_64-linux-centos6/build/riscv64-unknown-elf-gcc/build-gcc-stage2/riscv64-unknown-elf/rv32imac/ilp32/libgcc/../../../../../riscv-gcc/libgcc/soft-fp/subdf3.c:46 (discriminator 133)
20012bc0:	00c766b3          	or	a3,a4,a2
20012bc4:	c285                	beqz	a3,20012be4 <__subdf3+0x236>
/home/scratch/jenkins/workspace/tpp-freedom-tools/tpp04--build-binary-packages--parameterized/obj/x86_64-linux-centos6/build/riscv64-unknown-elf-gcc/build-gcc-stage2/riscv64-unknown-elf/rv32imac/ilp32/libgcc/../../../../../riscv-gcc/libgcc/soft-fp/subdf3.c:46 (discriminator 139)
20012bc6:	962e                	add	a2,a2,a1
20012bc8:	97ba                	add	a5,a5,a4
20012bca:	00b63533          	sltu	a0,a2,a1
20012bce:	97aa                	add	a5,a5,a0
20012bd0:	00800737          	lui	a4,0x800
20012bd4:	8f7d                	and	a4,a4,a5
20012bd6:	85b2                	mv	a1,a2
20012bd8:	c711                	beqz	a4,20012be4 <__subdf3+0x236>
/home/scratch/jenkins/workspace/tpp-freedom-tools/tpp04--build-binary-packages--parameterized/obj/x86_64-linux-centos6/build/riscv64-unknown-elf-gcc/build-gcc-stage2/riscv64-unknown-elf/rv32imac/ilp32/libgcc/../../../../../riscv-gcc/libgcc/soft-fp/subdf3.c:46 (discriminator 141)
20012bda:	ff800737          	lui	a4,0xff800
20012bde:	177d                	addi	a4,a4,-1
20012be0:	8ff9                	and	a5,a5,a4
20012be2:	4405                	li	s0,1
/home/scratch/jenkins/workspace/tpp-freedom-tools/tpp04--build-binary-packages--parameterized/obj/x86_64-linux-centos6/build/riscv64-unknown-elf-gcc/build-gcc-stage2/riscv64-unknown-elf/rv32imac/ilp32/libgcc/../../../../../riscv-gcc/libgcc/soft-fp/subdf3.c:47 (discriminator 426)
20012be4:	0075f713          	andi	a4,a1,7
20012be8:	34070a63          	beqz	a4,20012f3c <__subdf3+0x58e>
/home/scratch/jenkins/workspace/tpp-freedom-tools/tpp04--build-binary-packages--parameterized/obj/x86_64-linux-centos6/build/riscv64-unknown-elf-gcc/build-gcc-stage2/riscv64-unknown-elf/rv32imac/ilp32/libgcc/../../../../../riscv-gcc/libgcc/soft-fp/subdf3.c:47 (discriminator 37)
20012bec:	00f5f713          	andi	a4,a1,15
20012bf0:	4691                	li	a3,4
20012bf2:	34d70563          	beq	a4,a3,20012f3c <__subdf3+0x58e>
/home/scratch/jenkins/workspace/tpp-freedom-tools/tpp04--build-binary-packages--parameterized/obj/x86_64-linux-centos6/build/riscv64-unknown-elf-gcc/build-gcc-stage2/riscv64-unknown-elf/rv32imac/ilp32/libgcc/../../../../../riscv-gcc/libgcc/soft-fp/subdf3.c:47 (discriminator 44)
20012bf6:	00458713          	addi	a4,a1,4
20012bfa:	00b73533          	sltu	a0,a4,a1
20012bfe:	97aa                	add	a5,a5,a0
20012c00:	85ba                	mv	a1,a4
20012c02:	ae2d                	j	20012f3c <__subdf3+0x58e>
/home/scratch/jenkins/workspace/tpp-freedom-tools/tpp04--build-binary-packages--parameterized/obj/x86_64-linux-centos6/build/riscv64-unknown-elf-gcc/build-gcc-stage2/riscv64-unknown-elf/rv32imac/ilp32/libgcc/../../../../../riscv-gcc/libgcc/soft-fp/subdf3.c:46 (discriminator 158)
20012c04:	de99                	beqz	a3,20012b22 <__subdf3+0x174>
/home/scratch/jenkins/workspace/tpp-freedom-tools/tpp04--build-binary-packages--parameterized/obj/x86_64-linux-centos6/build/riscv64-unknown-elf-gcc/build-gcc-stage2/riscv64-unknown-elf/rv32imac/ilp32/libgcc/../../../../../riscv-gcc/libgcc/soft-fp/subdf3.c:46 (discriminator 160)
20012c06:	8e59                	or	a2,a2,a4
20012c08:	e2060be3          	beqz	a2,20012a3e <__subdf3+0x90>
/home/scratch/jenkins/workspace/tpp-freedom-tools/tpp04--build-binary-packages--parameterized/obj/x86_64-linux-centos6/build/riscv64-unknown-elf-gcc/build-gcc-stage2/riscv64-unknown-elf/rv32imac/ilp32/libgcc/../../../../../riscv-gcc/libgcc/soft-fp/subdf3.c:46
20012c0c:	4481                	li	s1,0
20012c0e:	004007b7          	lui	a5,0x400
20012c12:	4581                	li	a1,0
20012c14:	7ff00413          	li	s0,2047
20012c18:	a615                	j	20012f3c <__subdf3+0x58e>
/home/scratch/jenkins/workspace/tpp-freedom-tools/tpp04--build-binary-packages--parameterized/obj/x86_64-linux-centos6/build/riscv64-unknown-elf-gcc/build-gcc-stage2/riscv64-unknown-elf/rv32imac/ilp32/libgcc/../../../../../riscv-gcc/libgcc/soft-fp/subdf3.c:46 (discriminator 129)
20012c1a:	7ff00513          	li	a0,2047
20012c1e:	30a68b63          	beq	a3,a0,20012f34 <__subdf3+0x586>
/home/scratch/jenkins/workspace/tpp-freedom-tools/tpp04--build-binary-packages--parameterized/obj/x86_64-linux-centos6/build/riscv64-unknown-elf-gcc/build-gcc-stage2/riscv64-unknown-elf/rv32imac/ilp32/libgcc/../../../../../riscv-gcc/libgcc/soft-fp/subdf3.c:46
20012c22:	962e                	add	a2,a2,a1
20012c24:	00b63533          	sltu	a0,a2,a1
20012c28:	97ba                	add	a5,a5,a4
20012c2a:	97aa                	add	a5,a5,a0
20012c2c:	01f79513          	slli	a0,a5,0x1f
20012c30:	8205                	srli	a2,a2,0x1
20012c32:	00c565b3          	or	a1,a0,a2
20012c36:	8385                	srli	a5,a5,0x1
20012c38:	8436                	mv	s0,a3
20012c3a:	b76d                	j	20012be4 <__subdf3+0x236>
/home/scratch/jenkins/workspace/tpp-freedom-tools/tpp04--build-binary-packages--parameterized/obj/x86_64-linux-centos6/build/riscv64-unknown-elf-gcc/build-gcc-stage2/riscv64-unknown-elf/rv32imac/ilp32/libgcc/../../../../../riscv-gcc/libgcc/soft-fp/subdf3.c:46 (discriminator 13)
20012c3c:	0d005663          	blez	a6,20012d08 <__subdf3+0x35a>
/home/scratch/jenkins/workspace/tpp-freedom-tools/tpp04--build-binary-packages--parameterized/obj/x86_64-linux-centos6/build/riscv64-unknown-elf-gcc/build-gcc-stage2/riscv64-unknown-elf/rv32imac/ilp32/libgcc/../../../../../riscv-gcc/libgcc/soft-fp/subdf3.c:46 (discriminator 205)
20012c40:	08031163          	bnez	t1,20012cc2 <__subdf3+0x314>
/home/scratch/jenkins/workspace/tpp-freedom-tools/tpp04--build-binary-packages--parameterized/obj/x86_64-linux-centos6/build/riscv64-unknown-elf-gcc/build-gcc-stage2/riscv64-unknown-elf/rv32imac/ilp32/libgcc/../../../../../riscv-gcc/libgcc/soft-fp/subdf3.c:46 (discriminator 207)
20012c44:	00c766b3          	or	a3,a4,a2
20012c48:	34068b63          	beqz	a3,20012f9e <__subdf3+0x5f0>
/home/scratch/jenkins/workspace/tpp-freedom-tools/tpp04--build-binary-packages--parameterized/obj/x86_64-linux-centos6/build/riscv64-unknown-elf-gcc/build-gcc-stage2/riscv64-unknown-elf/rv32imac/ilp32/libgcc/../../../../../riscv-gcc/libgcc/soft-fp/subdf3.c:46 (discriminator 210)
20012c4c:	fff80513          	addi	a0,a6,-1
20012c50:	e911                	bnez	a0,20012c64 <__subdf3+0x2b6>
/home/scratch/jenkins/workspace/tpp-freedom-tools/tpp04--build-binary-packages--parameterized/obj/x86_64-linux-centos6/build/riscv64-unknown-elf-gcc/build-gcc-stage2/riscv64-unknown-elf/rv32imac/ilp32/libgcc/../../../../../riscv-gcc/libgcc/soft-fp/subdf3.c:46 (discriminator 219)
20012c52:	40c58633          	sub	a2,a1,a2
20012c56:	00c5b533          	sltu	a0,a1,a2
20012c5a:	8f99                	sub	a5,a5,a4
20012c5c:	8f89                	sub	a5,a5,a0
20012c5e:	85b2                	mv	a1,a2
/home/scratch/jenkins/workspace/tpp-freedom-tools/tpp04--build-binary-packages--parameterized/obj/x86_64-linux-centos6/build/riscv64-unknown-elf-gcc/build-gcc-stage2/riscv64-unknown-elf/rv32imac/ilp32/libgcc/../../../../../riscv-gcc/libgcc/soft-fp/subdf3.c:45 (discriminator 276)
20012c60:	4405                	li	s0,1
/home/scratch/jenkins/workspace/tpp-freedom-tools/tpp04--build-binary-packages--parameterized/obj/x86_64-linux-centos6/build/riscv64-unknown-elf-gcc/build-gcc-stage2/riscv64-unknown-elf/rv32imac/ilp32/libgcc/../../../../../riscv-gcc/libgcc/soft-fp/subdf3.c:46 (discriminator 276)
20012c62:	a0b1                	j	20012cae <__subdf3+0x300>
/home/scratch/jenkins/workspace/tpp-freedom-tools/tpp04--build-binary-packages--parameterized/obj/x86_64-linux-centos6/build/riscv64-unknown-elf-gcc/build-gcc-stage2/riscv64-unknown-elf/rv32imac/ilp32/libgcc/../../../../../riscv-gcc/libgcc/soft-fp/subdf3.c:46 (discriminator 220)
20012c64:	7ff00693          	li	a3,2047
20012c68:	dcd80be3          	beq	a6,a3,20012a3e <__subdf3+0x90>
/home/scratch/jenkins/workspace/tpp-freedom-tools/tpp04--build-binary-packages--parameterized/obj/x86_64-linux-centos6/build/riscv64-unknown-elf-gcc/build-gcc-stage2/riscv64-unknown-elf/rv32imac/ilp32/libgcc/../../../../../riscv-gcc/libgcc/soft-fp/subdf3.c:46 (discriminator 243)
20012c6c:	03800693          	li	a3,56
20012c70:	08a6c863          	blt	a3,a0,20012d00 <__subdf3+0x352>
/home/scratch/jenkins/workspace/tpp-freedom-tools/tpp04--build-binary-packages--parameterized/obj/x86_64-linux-centos6/build/riscv64-unknown-elf-gcc/build-gcc-stage2/riscv64-unknown-elf/rv32imac/ilp32/libgcc/../../../../../riscv-gcc/libgcc/soft-fp/subdf3.c:46 (discriminator 244)
20012c74:	46fd                	li	a3,31
20012c76:	04a6cf63          	blt	a3,a0,20012cd4 <__subdf3+0x326>
/home/scratch/jenkins/workspace/tpp-freedom-tools/tpp04--build-binary-packages--parameterized/obj/x86_64-linux-centos6/build/riscv64-unknown-elf-gcc/build-gcc-stage2/riscv64-unknown-elf/rv32imac/ilp32/libgcc/../../../../../riscv-gcc/libgcc/soft-fp/subdf3.c:46 (discriminator 246)
20012c7a:	02000813          	li	a6,32
20012c7e:	40a80833          	sub	a6,a6,a0
20012c82:	010716b3          	sll	a3,a4,a6
20012c86:	00a658b3          	srl	a7,a2,a0
20012c8a:	01061633          	sll	a2,a2,a6
20012c8e:	0116e6b3          	or	a3,a3,a7
20012c92:	00c03633          	snez	a2,a2
20012c96:	8e55                	or	a2,a2,a3
20012c98:	00a75733          	srl	a4,a4,a0
/home/scratch/jenkins/workspace/tpp-freedom-tools/tpp04--build-binary-packages--parameterized/obj/x86_64-linux-centos6/build/riscv64-unknown-elf-gcc/build-gcc-stage2/riscv64-unknown-elf/rv32imac/ilp32/libgcc/../../../../../riscv-gcc/libgcc/soft-fp/subdf3.c:46 (discriminator 260)
20012c9c:	40c58633          	sub	a2,a1,a2
20012ca0:	00c5b533          	sltu	a0,a1,a2
20012ca4:	40e78733          	sub	a4,a5,a4
20012ca8:	40a707b3          	sub	a5,a4,a0
20012cac:	85b2                	mv	a1,a2
/home/scratch/jenkins/workspace/tpp-freedom-tools/tpp04--build-binary-packages--parameterized/obj/x86_64-linux-centos6/build/riscv64-unknown-elf-gcc/build-gcc-stage2/riscv64-unknown-elf/rv32imac/ilp32/libgcc/../../../../../riscv-gcc/libgcc/soft-fp/subdf3.c:46 (discriminator 318)
20012cae:	00800937          	lui	s2,0x800
20012cb2:	0127f733          	and	a4,a5,s2
20012cb6:	d71d                	beqz	a4,20012be4 <__subdf3+0x236>
/home/scratch/jenkins/workspace/tpp-freedom-tools/tpp04--build-binary-packages--parameterized/obj/x86_64-linux-centos6/build/riscv64-unknown-elf-gcc/build-gcc-stage2/riscv64-unknown-elf/rv32imac/ilp32/libgcc/../../../../../riscv-gcc/libgcc/soft-fp/subdf3.c:46 (discriminator 378)
20012cb8:	197d                	addi	s2,s2,-1
20012cba:	0127f933          	and	s2,a5,s2
20012cbe:	89ae                	mv	s3,a1
20012cc0:	aa5d                	j	20012e76 <__subdf3+0x4c8>
/home/scratch/jenkins/workspace/tpp-freedom-tools/tpp04--build-binary-packages--parameterized/obj/x86_64-linux-centos6/build/riscv64-unknown-elf-gcc/build-gcc-stage2/riscv64-unknown-elf/rv32imac/ilp32/libgcc/../../../../../riscv-gcc/libgcc/soft-fp/subdf3.c:46 (discriminator 208)
20012cc2:	7ff00693          	li	a3,2047
20012cc6:	f0d40fe3          	beq	s0,a3,20012be4 <__subdf3+0x236>
/home/scratch/jenkins/workspace/tpp-freedom-tools/tpp04--build-binary-packages--parameterized/obj/x86_64-linux-centos6/build/riscv64-unknown-elf-gcc/build-gcc-stage2/riscv64-unknown-elf/rv32imac/ilp32/libgcc/../../../../../riscv-gcc/libgcc/soft-fp/subdf3.c:46 (discriminator 234)
20012cca:	008006b7          	lui	a3,0x800
20012cce:	8f55                	or	a4,a4,a3
20012cd0:	8542                	mv	a0,a6
20012cd2:	bf69                	j	20012c6c <__subdf3+0x2be>
/home/scratch/jenkins/workspace/tpp-freedom-tools/tpp04--build-binary-packages--parameterized/obj/x86_64-linux-centos6/build/riscv64-unknown-elf-gcc/build-gcc-stage2/riscv64-unknown-elf/rv32imac/ilp32/libgcc/../../../../../riscv-gcc/libgcc/soft-fp/subdf3.c:46 (discriminator 247)
20012cd4:	fe050693          	addi	a3,a0,-32
20012cd8:	02000893          	li	a7,32
20012cdc:	00d756b3          	srl	a3,a4,a3
20012ce0:	4801                	li	a6,0
20012ce2:	01150863          	beq	a0,a7,20012cf2 <__subdf3+0x344>
/home/scratch/jenkins/workspace/tpp-freedom-tools/tpp04--build-binary-packages--parameterized/obj/x86_64-linux-centos6/build/riscv64-unknown-elf-gcc/build-gcc-stage2/riscv64-unknown-elf/rv32imac/ilp32/libgcc/../../../../../riscv-gcc/libgcc/soft-fp/subdf3.c:46 (discriminator 254)
20012ce6:	04000813          	li	a6,64
20012cea:	40a80533          	sub	a0,a6,a0
20012cee:	00a71833          	sll	a6,a4,a0
/home/scratch/jenkins/workspace/tpp-freedom-tools/tpp04--build-binary-packages--parameterized/obj/x86_64-linux-centos6/build/riscv64-unknown-elf-gcc/build-gcc-stage2/riscv64-unknown-elf/rv32imac/ilp32/libgcc/../../../../../riscv-gcc/libgcc/soft-fp/subdf3.c:46 (discriminator 257)
20012cf2:	00c86633          	or	a2,a6,a2
20012cf6:	00c03633          	snez	a2,a2
20012cfa:	8e55                	or	a2,a2,a3
/home/scratch/jenkins/workspace/tpp-freedom-tools/tpp04--build-binary-packages--parameterized/obj/x86_64-linux-centos6/build/riscv64-unknown-elf-gcc/build-gcc-stage2/riscv64-unknown-elf/rv32imac/ilp32/libgcc/../../../../../riscv-gcc/libgcc/soft-fp/subdf3.c:46 (discriminator 245)
20012cfc:	4701                	li	a4,0
20012cfe:	bf79                	j	20012c9c <__subdf3+0x2ee>
20012d00:	8e59                	or	a2,a2,a4
20012d02:	00c03633          	snez	a2,a2
20012d06:	bfdd                	j	20012cfc <__subdf3+0x34e>
/home/scratch/jenkins/workspace/tpp-freedom-tools/tpp04--build-binary-packages--parameterized/obj/x86_64-linux-centos6/build/riscv64-unknown-elf-gcc/build-gcc-stage2/riscv64-unknown-elf/rv32imac/ilp32/libgcc/../../../../../riscv-gcc/libgcc/soft-fp/subdf3.c:46 (discriminator 206)
20012d08:	0c080563          	beqz	a6,20012dd2 <__subdf3+0x424>
/home/scratch/jenkins/workspace/tpp-freedom-tools/tpp04--build-binary-packages--parameterized/obj/x86_64-linux-centos6/build/riscv64-unknown-elf-gcc/build-gcc-stage2/riscv64-unknown-elf/rv32imac/ilp32/libgcc/../../../../../riscv-gcc/libgcc/soft-fp/subdf3.c:46 (discriminator 262)
20012d0c:	40830533          	sub	a0,t1,s0
20012d10:	e81d                	bnez	s0,20012d46 <__subdf3+0x398>
/home/scratch/jenkins/workspace/tpp-freedom-tools/tpp04--build-binary-packages--parameterized/obj/x86_64-linux-centos6/build/riscv64-unknown-elf-gcc/build-gcc-stage2/riscv64-unknown-elf/rv32imac/ilp32/libgcc/../../../../../riscv-gcc/libgcc/soft-fp/subdf3.c:46 (discriminator 264)
20012d12:	00b7e833          	or	a6,a5,a1
20012d16:	28080663          	beqz	a6,20012fa2 <__subdf3+0x5f4>
/home/scratch/jenkins/workspace/tpp-freedom-tools/tpp04--build-binary-packages--parameterized/obj/x86_64-linux-centos6/build/riscv64-unknown-elf-gcc/build-gcc-stage2/riscv64-unknown-elf/rv32imac/ilp32/libgcc/../../../../../riscv-gcc/libgcc/soft-fp/subdf3.c:46 (discriminator 267)
20012d1a:	fff50813          	addi	a6,a0,-1
20012d1e:	00081b63          	bnez	a6,20012d34 <__subdf3+0x386>
/home/scratch/jenkins/workspace/tpp-freedom-tools/tpp04--build-binary-packages--parameterized/obj/x86_64-linux-centos6/build/riscv64-unknown-elf-gcc/build-gcc-stage2/riscv64-unknown-elf/rv32imac/ilp32/libgcc/../../../../../riscv-gcc/libgcc/soft-fp/subdf3.c:46 (discriminator 276)
20012d22:	40b605b3          	sub	a1,a2,a1
20012d26:	40f707b3          	sub	a5,a4,a5
20012d2a:	00b63633          	sltu	a2,a2,a1
20012d2e:	8f91                	sub	a5,a5,a2
20012d30:	84b6                	mv	s1,a3
20012d32:	b73d                	j	20012c60 <__subdf3+0x2b2>
/home/scratch/jenkins/workspace/tpp-freedom-tools/tpp04--build-binary-packages--parameterized/obj/x86_64-linux-centos6/build/riscv64-unknown-elf-gcc/build-gcc-stage2/riscv64-unknown-elf/rv32imac/ilp32/libgcc/../../../../../riscv-gcc/libgcc/soft-fp/subdf3.c:46 (discriminator 277)
20012d34:	7ff00893          	li	a7,2047
20012d38:	03151063          	bne	a0,a7,20012d58 <__subdf3+0x3aa>
/home/scratch/jenkins/workspace/tpp-freedom-tools/tpp04--build-binary-packages--parameterized/obj/x86_64-linux-centos6/build/riscv64-unknown-elf-gcc/build-gcc-stage2/riscv64-unknown-elf/rv32imac/ilp32/libgcc/../../../../../riscv-gcc/libgcc/soft-fp/subdf3.c:45
20012d3c:	87ba                	mv	a5,a4
20012d3e:	85b2                	mv	a1,a2
/home/scratch/jenkins/workspace/tpp-freedom-tools/tpp04--build-binary-packages--parameterized/obj/x86_64-linux-centos6/build/riscv64-unknown-elf-gcc/build-gcc-stage2/riscv64-unknown-elf/rv32imac/ilp32/libgcc/../../../../../riscv-gcc/libgcc/soft-fp/subdf3.c:46
20012d40:	7ff00413          	li	s0,2047
20012d44:	a07d                	j	20012df2 <__subdf3+0x444>
/home/scratch/jenkins/workspace/tpp-freedom-tools/tpp04--build-binary-packages--parameterized/obj/x86_64-linux-centos6/build/riscv64-unknown-elf-gcc/build-gcc-stage2/riscv64-unknown-elf/rv32imac/ilp32/libgcc/../../../../../riscv-gcc/libgcc/soft-fp/subdf3.c:46 (discriminator 265)
20012d46:	7ff00813          	li	a6,2047
20012d4a:	ff0309e3          	beq	t1,a6,20012d3c <__subdf3+0x38e>
/home/scratch/jenkins/workspace/tpp-freedom-tools/tpp04--build-binary-packages--parameterized/obj/x86_64-linux-centos6/build/riscv64-unknown-elf-gcc/build-gcc-stage2/riscv64-unknown-elf/rv32imac/ilp32/libgcc/../../../../../riscv-gcc/libgcc/soft-fp/subdf3.c:46 (discriminator 291)
20012d4e:	00800837          	lui	a6,0x800
20012d52:	0107e7b3          	or	a5,a5,a6
20012d56:	882a                	mv	a6,a0
/home/scratch/jenkins/workspace/tpp-freedom-tools/tpp04--build-binary-packages--parameterized/obj/x86_64-linux-centos6/build/riscv64-unknown-elf-gcc/build-gcc-stage2/riscv64-unknown-elf/rv32imac/ilp32/libgcc/../../../../../riscv-gcc/libgcc/soft-fp/subdf3.c:46 (discriminator 300)
20012d58:	03800513          	li	a0,56
20012d5c:	07054663          	blt	a0,a6,20012dc8 <__subdf3+0x41a>
/home/scratch/jenkins/workspace/tpp-freedom-tools/tpp04--build-binary-packages--parameterized/obj/x86_64-linux-centos6/build/riscv64-unknown-elf-gcc/build-gcc-stage2/riscv64-unknown-elf/rv32imac/ilp32/libgcc/../../../../../riscv-gcc/libgcc/soft-fp/subdf3.c:46 (discriminator 301)
20012d60:	457d                	li	a0,31
20012d62:	03054d63          	blt	a0,a6,20012d9c <__subdf3+0x3ee>
/home/scratch/jenkins/workspace/tpp-freedom-tools/tpp04--build-binary-packages--parameterized/obj/x86_64-linux-centos6/build/riscv64-unknown-elf-gcc/build-gcc-stage2/riscv64-unknown-elf/rv32imac/ilp32/libgcc/../../../../../riscv-gcc/libgcc/soft-fp/subdf3.c:46 (discriminator 303)
20012d66:	02000893          	li	a7,32
20012d6a:	410888b3          	sub	a7,a7,a6
20012d6e:	01179533          	sll	a0,a5,a7
20012d72:	0105de33          	srl	t3,a1,a6
20012d76:	011595b3          	sll	a1,a1,a7
20012d7a:	01c56533          	or	a0,a0,t3
20012d7e:	00b035b3          	snez	a1,a1
20012d82:	8d4d                	or	a0,a0,a1
20012d84:	0107d7b3          	srl	a5,a5,a6
/home/scratch/jenkins/workspace/tpp-freedom-tools/tpp04--build-binary-packages--parameterized/obj/x86_64-linux-centos6/build/riscv64-unknown-elf-gcc/build-gcc-stage2/riscv64-unknown-elf/rv32imac/ilp32/libgcc/../../../../../riscv-gcc/libgcc/soft-fp/subdf3.c:46 (discriminator 317)
20012d88:	40a605b3          	sub	a1,a2,a0
20012d8c:	40f707b3          	sub	a5,a4,a5
20012d90:	00b63633          	sltu	a2,a2,a1
20012d94:	8f91                	sub	a5,a5,a2
/home/scratch/jenkins/workspace/tpp-freedom-tools/tpp04--build-binary-packages--parameterized/obj/x86_64-linux-centos6/build/riscv64-unknown-elf-gcc/build-gcc-stage2/riscv64-unknown-elf/rv32imac/ilp32/libgcc/../../../../../riscv-gcc/libgcc/soft-fp/subdf3.c:45 (discriminator 317)
20012d96:	841a                	mv	s0,t1
20012d98:	84b6                	mv	s1,a3
20012d9a:	bf11                	j	20012cae <__subdf3+0x300>
/home/scratch/jenkins/workspace/tpp-freedom-tools/tpp04--build-binary-packages--parameterized/obj/x86_64-linux-centos6/build/riscv64-unknown-elf-gcc/build-gcc-stage2/riscv64-unknown-elf/rv32imac/ilp32/libgcc/../../../../../riscv-gcc/libgcc/soft-fp/subdf3.c:46 (discriminator 304)
20012d9c:	fe080513          	addi	a0,a6,-32 # 7fffe0 <__heap_size+0x7ff7e0>
20012da0:	02000e13          	li	t3,32
20012da4:	00a7d8b3          	srl	a7,a5,a0
20012da8:	4501                	li	a0,0
20012daa:	01c80863          	beq	a6,t3,20012dba <__subdf3+0x40c>
/home/scratch/jenkins/workspace/tpp-freedom-tools/tpp04--build-binary-packages--parameterized/obj/x86_64-linux-centos6/build/riscv64-unknown-elf-gcc/build-gcc-stage2/riscv64-unknown-elf/rv32imac/ilp32/libgcc/../../../../../riscv-gcc/libgcc/soft-fp/subdf3.c:46 (discriminator 311)
20012dae:	04000513          	li	a0,64
20012db2:	41050533          	sub	a0,a0,a6
20012db6:	00a79533          	sll	a0,a5,a0
/home/scratch/jenkins/workspace/tpp-freedom-tools/tpp04--build-binary-packages--parameterized/obj/x86_64-linux-centos6/build/riscv64-unknown-elf-gcc/build-gcc-stage2/riscv64-unknown-elf/rv32imac/ilp32/libgcc/../../../../../riscv-gcc/libgcc/soft-fp/subdf3.c:46 (discriminator 314)
20012dba:	8d4d                	or	a0,a0,a1
20012dbc:	00a03533          	snez	a0,a0
20012dc0:	00a8e533          	or	a0,a7,a0
/home/scratch/jenkins/workspace/tpp-freedom-tools/tpp04--build-binary-packages--parameterized/obj/x86_64-linux-centos6/build/riscv64-unknown-elf-gcc/build-gcc-stage2/riscv64-unknown-elf/rv32imac/ilp32/libgcc/../../../../../riscv-gcc/libgcc/soft-fp/subdf3.c:46 (discriminator 302)
20012dc4:	4781                	li	a5,0
20012dc6:	b7c9                	j	20012d88 <__subdf3+0x3da>
20012dc8:	00b7e533          	or	a0,a5,a1
20012dcc:	00a03533          	snez	a0,a0
20012dd0:	bfd5                	j	20012dc4 <__subdf3+0x416>
/home/scratch/jenkins/workspace/tpp-freedom-tools/tpp04--build-binary-packages--parameterized/obj/x86_64-linux-centos6/build/riscv64-unknown-elf-gcc/build-gcc-stage2/riscv64-unknown-elf/rv32imac/ilp32/libgcc/../../../../../riscv-gcc/libgcc/soft-fp/subdf3.c:46 (discriminator 263)
20012dd2:	00140513          	addi	a0,s0,1
20012dd6:	7fe57513          	andi	a0,a0,2046
20012dda:	e925                	bnez	a0,20012e4a <__subdf3+0x49c>
/home/scratch/jenkins/workspace/tpp-freedom-tools/tpp04--build-binary-packages--parameterized/obj/x86_64-linux-centos6/build/riscv64-unknown-elf-gcc/build-gcc-stage2/riscv64-unknown-elf/rv32imac/ilp32/libgcc/../../../../../riscv-gcc/libgcc/soft-fp/subdf3.c:46 (discriminator 319)
20012ddc:	00b7e833          	or	a6,a5,a1
20012de0:	00c76533          	or	a0,a4,a2
20012de4:	e821                	bnez	s0,20012e34 <__subdf3+0x486>
/home/scratch/jenkins/workspace/tpp-freedom-tools/tpp04--build-binary-packages--parameterized/obj/x86_64-linux-centos6/build/riscv64-unknown-elf-gcc/build-gcc-stage2/riscv64-unknown-elf/rv32imac/ilp32/libgcc/../../../../../riscv-gcc/libgcc/soft-fp/subdf3.c:46 (discriminator 321)
20012de6:	00081863          	bnez	a6,20012df6 <__subdf3+0x448>
/home/scratch/jenkins/workspace/tpp-freedom-tools/tpp04--build-binary-packages--parameterized/obj/x86_64-linux-centos6/build/riscv64-unknown-elf-gcc/build-gcc-stage2/riscv64-unknown-elf/rv32imac/ilp32/libgcc/../../../../../riscv-gcc/libgcc/soft-fp/subdf3.c:46 (discriminator 323)
20012dea:	1c050063          	beqz	a0,20012faa <__subdf3+0x5fc>
/home/scratch/jenkins/workspace/tpp-freedom-tools/tpp04--build-binary-packages--parameterized/obj/x86_64-linux-centos6/build/riscv64-unknown-elf-gcc/build-gcc-stage2/riscv64-unknown-elf/rv32imac/ilp32/libgcc/../../../../../riscv-gcc/libgcc/soft-fp/subdf3.c:45
20012dee:	87ba                	mv	a5,a4
20012df0:	85b2                	mv	a1,a2
20012df2:	84b6                	mv	s1,a3
20012df4:	bbc5                	j	20012be4 <__subdf3+0x236>
/home/scratch/jenkins/workspace/tpp-freedom-tools/tpp04--build-binary-packages--parameterized/obj/x86_64-linux-centos6/build/riscv64-unknown-elf-gcc/build-gcc-stage2/riscv64-unknown-elf/rv32imac/ilp32/libgcc/../../../../../riscv-gcc/libgcc/soft-fp/subdf3.c:46 (discriminator 324)
20012df6:	de0507e3          	beqz	a0,20012be4 <__subdf3+0x236>
/home/scratch/jenkins/workspace/tpp-freedom-tools/tpp04--build-binary-packages--parameterized/obj/x86_64-linux-centos6/build/riscv64-unknown-elf-gcc/build-gcc-stage2/riscv64-unknown-elf/rv32imac/ilp32/libgcc/../../../../../riscv-gcc/libgcc/soft-fp/subdf3.c:46 (discriminator 331)
20012dfa:	40c58833          	sub	a6,a1,a2
20012dfe:	0105b8b3          	sltu	a7,a1,a6
20012e02:	40e78533          	sub	a0,a5,a4
20012e06:	41150533          	sub	a0,a0,a7
20012e0a:	008008b7          	lui	a7,0x800
20012e0e:	011578b3          	and	a7,a0,a7
20012e12:	00088a63          	beqz	a7,20012e26 <__subdf3+0x478>
/home/scratch/jenkins/workspace/tpp-freedom-tools/tpp04--build-binary-packages--parameterized/obj/x86_64-linux-centos6/build/riscv64-unknown-elf-gcc/build-gcc-stage2/riscv64-unknown-elf/rv32imac/ilp32/libgcc/../../../../../riscv-gcc/libgcc/soft-fp/subdf3.c:46 (discriminator 333)
20012e16:	40b605b3          	sub	a1,a2,a1
20012e1a:	40f707b3          	sub	a5,a4,a5
20012e1e:	00b63633          	sltu	a2,a2,a1
20012e22:	8f91                	sub	a5,a5,a2
20012e24:	b7f9                	j	20012df2 <__subdf3+0x444>
/home/scratch/jenkins/workspace/tpp-freedom-tools/tpp04--build-binary-packages--parameterized/obj/x86_64-linux-centos6/build/riscv64-unknown-elf-gcc/build-gcc-stage2/riscv64-unknown-elf/rv32imac/ilp32/libgcc/../../../../../riscv-gcc/libgcc/soft-fp/subdf3.c:46 (discriminator 334)
20012e26:	00a865b3          	or	a1,a6,a0
20012e2a:	18058463          	beqz	a1,20012fb2 <__subdf3+0x604>
/home/scratch/jenkins/workspace/tpp-freedom-tools/tpp04--build-binary-packages--parameterized/obj/x86_64-linux-centos6/build/riscv64-unknown-elf-gcc/build-gcc-stage2/riscv64-unknown-elf/rv32imac/ilp32/libgcc/../../../../../riscv-gcc/libgcc/soft-fp/subdf3.c:46
20012e2e:	87aa                	mv	a5,a0
20012e30:	85c2                	mv	a1,a6
20012e32:	bb4d                	j	20012be4 <__subdf3+0x236>
/home/scratch/jenkins/workspace/tpp-freedom-tools/tpp04--build-binary-packages--parameterized/obj/x86_64-linux-centos6/build/riscv64-unknown-elf-gcc/build-gcc-stage2/riscv64-unknown-elf/rv32imac/ilp32/libgcc/../../../../../riscv-gcc/libgcc/soft-fp/subdf3.c:46 (discriminator 353)
20012e34:	00081863          	bnez	a6,20012e44 <__subdf3+0x496>
/home/scratch/jenkins/workspace/tpp-freedom-tools/tpp04--build-binary-packages--parameterized/obj/x86_64-linux-centos6/build/riscv64-unknown-elf-gcc/build-gcc-stage2/riscv64-unknown-elf/rv32imac/ilp32/libgcc/../../../../../riscv-gcc/libgcc/soft-fp/subdf3.c:46 (discriminator 354)
20012e38:	16050f63          	beqz	a0,20012fb6 <__subdf3+0x608>
/home/scratch/jenkins/workspace/tpp-freedom-tools/tpp04--build-binary-packages--parameterized/obj/x86_64-linux-centos6/build/riscv64-unknown-elf-gcc/build-gcc-stage2/riscv64-unknown-elf/rv32imac/ilp32/libgcc/../../../../../riscv-gcc/libgcc/soft-fp/subdf3.c:45
20012e3c:	87ba                	mv	a5,a4
20012e3e:	85b2                	mv	a1,a2
/home/scratch/jenkins/workspace/tpp-freedom-tools/tpp04--build-binary-packages--parameterized/obj/x86_64-linux-centos6/build/riscv64-unknown-elf-gcc/build-gcc-stage2/riscv64-unknown-elf/rv32imac/ilp32/libgcc/../../../../../riscv-gcc/libgcc/soft-fp/subdf3.c:46
20012e40:	84b6                	mv	s1,a3
20012e42:	bef5                	j	20012a3e <__subdf3+0x90>
/home/scratch/jenkins/workspace/tpp-freedom-tools/tpp04--build-binary-packages--parameterized/obj/x86_64-linux-centos6/build/riscv64-unknown-elf-gcc/build-gcc-stage2/riscv64-unknown-elf/rv32imac/ilp32/libgcc/../../../../../riscv-gcc/libgcc/soft-fp/subdf3.c:46 (discriminator 355)
20012e44:	be050de3          	beqz	a0,20012a3e <__subdf3+0x90>
20012e48:	b3d1                	j	20012c0c <__subdf3+0x25e>
/home/scratch/jenkins/workspace/tpp-freedom-tools/tpp04--build-binary-packages--parameterized/obj/x86_64-linux-centos6/build/riscv64-unknown-elf-gcc/build-gcc-stage2/riscv64-unknown-elf/rv32imac/ilp32/libgcc/../../../../../riscv-gcc/libgcc/soft-fp/subdf3.c:46 (discriminator 320)
20012e4a:	40c589b3          	sub	s3,a1,a2
20012e4e:	0135b533          	sltu	a0,a1,s3
20012e52:	40e78933          	sub	s2,a5,a4
20012e56:	40a90933          	sub	s2,s2,a0
20012e5a:	00800537          	lui	a0,0x800
20012e5e:	00a97533          	and	a0,s2,a0
20012e62:	c53d                	beqz	a0,20012ed0 <__subdf3+0x522>
/home/scratch/jenkins/workspace/tpp-freedom-tools/tpp04--build-binary-packages--parameterized/obj/x86_64-linux-centos6/build/riscv64-unknown-elf-gcc/build-gcc-stage2/riscv64-unknown-elf/rv32imac/ilp32/libgcc/../../../../../riscv-gcc/libgcc/soft-fp/subdf3.c:46 (discriminator 371)
20012e64:	40b609b3          	sub	s3,a2,a1
20012e68:	40f707b3          	sub	a5,a4,a5
20012e6c:	01363633          	sltu	a2,a2,s3
20012e70:	40c78933          	sub	s2,a5,a2
20012e74:	84b6                	mv	s1,a3
/home/scratch/jenkins/workspace/tpp-freedom-tools/tpp04--build-binary-packages--parameterized/obj/x86_64-linux-centos6/build/riscv64-unknown-elf-gcc/build-gcc-stage2/riscv64-unknown-elf/rv32imac/ilp32/libgcc/../../../../../riscv-gcc/libgcc/soft-fp/subdf3.c:46 (discriminator 380)
20012e76:	06090363          	beqz	s2,20012edc <__subdf3+0x52e>
/home/scratch/jenkins/workspace/tpp-freedom-tools/tpp04--build-binary-packages--parameterized/obj/x86_64-linux-centos6/build/riscv64-unknown-elf-gcc/build-gcc-stage2/riscv64-unknown-elf/rv32imac/ilp32/libgcc/../../../../../riscv-gcc/libgcc/soft-fp/subdf3.c:46 (discriminator 383)
20012e7a:	854a                	mv	a0,s2
20012e7c:	2ae5                	jal	20013074 <__clzsi2>
/home/scratch/jenkins/workspace/tpp-freedom-tools/tpp04--build-binary-packages--parameterized/obj/x86_64-linux-centos6/build/riscv64-unknown-elf-gcc/build-gcc-stage2/riscv64-unknown-elf/rv32imac/ilp32/libgcc/../../../../../riscv-gcc/libgcc/soft-fp/subdf3.c:46 (discriminator 397)
20012e7e:	ff850713          	addi	a4,a0,-8 # 7ffff8 <__heap_size+0x7ff7f8>
20012e82:	47fd                	li	a5,31
20012e84:	06e7c163          	blt	a5,a4,20012ee6 <__subdf3+0x538>
/home/scratch/jenkins/workspace/tpp-freedom-tools/tpp04--build-binary-packages--parameterized/obj/x86_64-linux-centos6/build/riscv64-unknown-elf-gcc/build-gcc-stage2/riscv64-unknown-elf/rv32imac/ilp32/libgcc/../../../../../riscv-gcc/libgcc/soft-fp/subdf3.c:46 (discriminator 403)
20012e88:	02000793          	li	a5,32
20012e8c:	8f99                	sub	a5,a5,a4
20012e8e:	00e91933          	sll	s2,s2,a4
20012e92:	00f9d7b3          	srl	a5,s3,a5
20012e96:	0127e7b3          	or	a5,a5,s2
20012e9a:	00e995b3          	sll	a1,s3,a4
/home/scratch/jenkins/workspace/tpp-freedom-tools/tpp04--build-binary-packages--parameterized/obj/x86_64-linux-centos6/build/riscv64-unknown-elf-gcc/build-gcc-stage2/riscv64-unknown-elf/rv32imac/ilp32/libgcc/../../../../../riscv-gcc/libgcc/soft-fp/subdf3.c:46 (discriminator 407)
20012e9e:	06874e63          	blt	a4,s0,20012f1a <__subdf3+0x56c>
/home/scratch/jenkins/workspace/tpp-freedom-tools/tpp04--build-binary-packages--parameterized/obj/x86_64-linux-centos6/build/riscv64-unknown-elf-gcc/build-gcc-stage2/riscv64-unknown-elf/rv32imac/ilp32/libgcc/../../../../../riscv-gcc/libgcc/soft-fp/subdf3.c:46 (discriminator 408)
20012ea2:	8f01                	sub	a4,a4,s0
20012ea4:	00170693          	addi	a3,a4,1 # ff800001 <metal_segment_heap_target_end+0x7f7fe621>
20012ea8:	467d                	li	a2,31
20012eaa:	04d64463          	blt	a2,a3,20012ef2 <__subdf3+0x544>
/home/scratch/jenkins/workspace/tpp-freedom-tools/tpp04--build-binary-packages--parameterized/obj/x86_64-linux-centos6/build/riscv64-unknown-elf-gcc/build-gcc-stage2/riscv64-unknown-elf/rv32imac/ilp32/libgcc/../../../../../riscv-gcc/libgcc/soft-fp/subdf3.c:46 (discriminator 410)
20012eae:	02000713          	li	a4,32
20012eb2:	8f15                	sub	a4,a4,a3
20012eb4:	00e79633          	sll	a2,a5,a4
20012eb8:	00d5d533          	srl	a0,a1,a3
20012ebc:	00e595b3          	sll	a1,a1,a4
20012ec0:	8e49                	or	a2,a2,a0
20012ec2:	00b035b3          	snez	a1,a1
20012ec6:	8dd1                	or	a1,a1,a2
20012ec8:	00d7d7b3          	srl	a5,a5,a3
/home/scratch/jenkins/workspace/tpp-freedom-tools/tpp04--build-binary-packages--parameterized/obj/x86_64-linux-centos6/build/riscv64-unknown-elf-gcc/build-gcc-stage2/riscv64-unknown-elf/rv32imac/ilp32/libgcc/../../../../../riscv-gcc/libgcc/soft-fp/subdf3.c:46 (discriminator 422)
20012ecc:	4401                	li	s0,0
20012ece:	bb19                	j	20012be4 <__subdf3+0x236>
/home/scratch/jenkins/workspace/tpp-freedom-tools/tpp04--build-binary-packages--parameterized/obj/x86_64-linux-centos6/build/riscv64-unknown-elf-gcc/build-gcc-stage2/riscv64-unknown-elf/rv32imac/ilp32/libgcc/../../../../../riscv-gcc/libgcc/soft-fp/subdf3.c:46 (discriminator 372)
20012ed0:	0129e5b3          	or	a1,s3,s2
20012ed4:	f1cd                	bnez	a1,20012e76 <__subdf3+0x4c8>
20012ed6:	4781                	li	a5,0
/home/scratch/jenkins/workspace/tpp-freedom-tools/tpp04--build-binary-packages--parameterized/obj/x86_64-linux-centos6/build/riscv64-unknown-elf-gcc/build-gcc-stage2/riscv64-unknown-elf/rv32imac/ilp32/libgcc/../../../../../riscv-gcc/libgcc/soft-fp/subdf3.c:46
20012ed8:	4401                	li	s0,0
20012eda:	a8d1                	j	20012fae <__subdf3+0x600>
/home/scratch/jenkins/workspace/tpp-freedom-tools/tpp04--build-binary-packages--parameterized/obj/x86_64-linux-centos6/build/riscv64-unknown-elf-gcc/build-gcc-stage2/riscv64-unknown-elf/rv32imac/ilp32/libgcc/../../../../../riscv-gcc/libgcc/soft-fp/subdf3.c:46 (discriminator 390)
20012edc:	854e                	mv	a0,s3
20012ede:	2a59                	jal	20013074 <__clzsi2>
20012ee0:	02050513          	addi	a0,a0,32
20012ee4:	bf69                	j	20012e7e <__subdf3+0x4d0>
/home/scratch/jenkins/workspace/tpp-freedom-tools/tpp04--build-binary-packages--parameterized/obj/x86_64-linux-centos6/build/riscv64-unknown-elf-gcc/build-gcc-stage2/riscv64-unknown-elf/rv32imac/ilp32/libgcc/../../../../../riscv-gcc/libgcc/soft-fp/subdf3.c:46 (discriminator 399)
20012ee6:	fd850793          	addi	a5,a0,-40
20012eea:	00f997b3          	sll	a5,s3,a5
20012eee:	4581                	li	a1,0
20012ef0:	b77d                	j	20012e9e <__subdf3+0x4f0>
/home/scratch/jenkins/workspace/tpp-freedom-tools/tpp04--build-binary-packages--parameterized/obj/x86_64-linux-centos6/build/riscv64-unknown-elf-gcc/build-gcc-stage2/riscv64-unknown-elf/rv32imac/ilp32/libgcc/../../../../../riscv-gcc/libgcc/soft-fp/subdf3.c:46 (discriminator 411)
20012ef2:	1705                	addi	a4,a4,-31
20012ef4:	02000613          	li	a2,32
20012ef8:	00e7d733          	srl	a4,a5,a4
20012efc:	4501                	li	a0,0
20012efe:	00c68763          	beq	a3,a2,20012f0c <__subdf3+0x55e>
/home/scratch/jenkins/workspace/tpp-freedom-tools/tpp04--build-binary-packages--parameterized/obj/x86_64-linux-centos6/build/riscv64-unknown-elf-gcc/build-gcc-stage2/riscv64-unknown-elf/rv32imac/ilp32/libgcc/../../../../../riscv-gcc/libgcc/soft-fp/subdf3.c:46 (discriminator 419)
20012f02:	04000513          	li	a0,64
20012f06:	8d15                	sub	a0,a0,a3
20012f08:	00a79533          	sll	a0,a5,a0
/home/scratch/jenkins/workspace/tpp-freedom-tools/tpp04--build-binary-packages--parameterized/obj/x86_64-linux-centos6/build/riscv64-unknown-elf-gcc/build-gcc-stage2/riscv64-unknown-elf/rv32imac/ilp32/libgcc/../../../../../riscv-gcc/libgcc/soft-fp/subdf3.c:46 (discriminator 422)
20012f0c:	8d4d                	or	a0,a0,a1
20012f0e:	00a03533          	snez	a0,a0
20012f12:	00a765b3          	or	a1,a4,a0
20012f16:	4781                	li	a5,0
20012f18:	bf55                	j	20012ecc <__subdf3+0x51e>
/home/scratch/jenkins/workspace/tpp-freedom-tools/tpp04--build-binary-packages--parameterized/obj/x86_64-linux-centos6/build/riscv64-unknown-elf-gcc/build-gcc-stage2/riscv64-unknown-elf/rv32imac/ilp32/libgcc/../../../../../riscv-gcc/libgcc/soft-fp/subdf3.c:46 (discriminator 409)
20012f1a:	8c19                	sub	s0,s0,a4
20012f1c:	ff800737          	lui	a4,0xff800
20012f20:	177d                	addi	a4,a4,-1
20012f22:	8ff9                	and	a5,a5,a4
20012f24:	b1c1                	j	20012be4 <__subdf3+0x236>
/home/scratch/jenkins/workspace/tpp-freedom-tools/tpp04--build-binary-packages--parameterized/obj/x86_64-linux-centos6/build/riscv64-unknown-elf-gcc/build-gcc-stage2/riscv64-unknown-elf/rv32imac/ilp32/libgcc/../../../../../riscv-gcc/libgcc/soft-fp/subdf3.c:45
20012f26:	87ba                	mv	a5,a4
20012f28:	85b2                	mv	a1,a2
/home/scratch/jenkins/workspace/tpp-freedom-tools/tpp04--build-binary-packages--parameterized/obj/x86_64-linux-centos6/build/riscv64-unknown-elf-gcc/build-gcc-stage2/riscv64-unknown-elf/rv32imac/ilp32/libgcc/../../../../../riscv-gcc/libgcc/soft-fp/subdf3.c:46
20012f2a:	842a                	mv	s0,a0
20012f2c:	b965                	j	20012be4 <__subdf3+0x236>
/home/scratch/jenkins/workspace/tpp-freedom-tools/tpp04--build-binary-packages--parameterized/obj/x86_64-linux-centos6/build/riscv64-unknown-elf-gcc/build-gcc-stage2/riscv64-unknown-elf/rv32imac/ilp32/libgcc/../../../../../riscv-gcc/libgcc/soft-fp/subdf3.c:45
20012f2e:	87ba                	mv	a5,a4
20012f30:	85b2                	mv	a1,a2
20012f32:	b94d                	j	20012be4 <__subdf3+0x236>
20012f34:	7ff00413          	li	s0,2047
20012f38:	4781                	li	a5,0
20012f3a:	4581                	li	a1,0
/home/scratch/jenkins/workspace/tpp-freedom-tools/tpp04--build-binary-packages--parameterized/obj/x86_64-linux-centos6/build/riscv64-unknown-elf-gcc/build-gcc-stage2/riscv64-unknown-elf/rv32imac/ilp32/libgcc/../../../../../riscv-gcc/libgcc/soft-fp/subdf3.c:47 (discriminator 47)
20012f3c:	00800737          	lui	a4,0x800
20012f40:	8f7d                	and	a4,a4,a5
20012f42:	cb11                	beqz	a4,20012f56 <__subdf3+0x5a8>
/home/scratch/jenkins/workspace/tpp-freedom-tools/tpp04--build-binary-packages--parameterized/obj/x86_64-linux-centos6/build/riscv64-unknown-elf-gcc/build-gcc-stage2/riscv64-unknown-elf/rv32imac/ilp32/libgcc/../../../../../riscv-gcc/libgcc/soft-fp/subdf3.c:47 (discriminator 63)
20012f44:	0405                	addi	s0,s0,1
20012f46:	7ff00713          	li	a4,2047
20012f4a:	06e40b63          	beq	s0,a4,20012fc0 <__subdf3+0x612>
/home/scratch/jenkins/workspace/tpp-freedom-tools/tpp04--build-binary-packages--parameterized/obj/x86_64-linux-centos6/build/riscv64-unknown-elf-gcc/build-gcc-stage2/riscv64-unknown-elf/rv32imac/ilp32/libgcc/../../../../../riscv-gcc/libgcc/soft-fp/subdf3.c:47
20012f4e:	ff800737          	lui	a4,0xff800
20012f52:	177d                	addi	a4,a4,-1
20012f54:	8ff9                	and	a5,a5,a4
/home/scratch/jenkins/workspace/tpp-freedom-tools/tpp04--build-binary-packages--parameterized/obj/x86_64-linux-centos6/build/riscv64-unknown-elf-gcc/build-gcc-stage2/riscv64-unknown-elf/rv32imac/ilp32/libgcc/../../../../../riscv-gcc/libgcc/soft-fp/subdf3.c:47 (discriminator 79)
20012f56:	01d79713          	slli	a4,a5,0x1d
20012f5a:	0035d513          	srli	a0,a1,0x3
20012f5e:	8d59                	or	a0,a0,a4
20012f60:	7ff00713          	li	a4,2047
20012f64:	838d                	srli	a5,a5,0x3
20012f66:	00e41963          	bne	s0,a4,20012f78 <__subdf3+0x5ca>
/home/scratch/jenkins/workspace/tpp-freedom-tools/tpp04--build-binary-packages--parameterized/obj/x86_64-linux-centos6/build/riscv64-unknown-elf-gcc/build-gcc-stage2/riscv64-unknown-elf/rv32imac/ilp32/libgcc/../../../../../riscv-gcc/libgcc/soft-fp/subdf3.c:47 (discriminator 80)
20012f6a:	8d5d                	or	a0,a0,a5
20012f6c:	4781                	li	a5,0
20012f6e:	c509                	beqz	a0,20012f78 <__subdf3+0x5ca>
/home/scratch/jenkins/workspace/tpp-freedom-tools/tpp04--build-binary-packages--parameterized/obj/x86_64-linux-centos6/build/riscv64-unknown-elf-gcc/build-gcc-stage2/riscv64-unknown-elf/rv32imac/ilp32/libgcc/../../../../../riscv-gcc/libgcc/soft-fp/subdf3.c:47
20012f70:	000807b7          	lui	a5,0x80
20012f74:	4501                	li	a0,0
20012f76:	4481                	li	s1,0
/home/scratch/jenkins/workspace/tpp-freedom-tools/tpp04--build-binary-packages--parameterized/obj/x86_64-linux-centos6/build/riscv64-unknown-elf-gcc/build-gcc-stage2/riscv64-unknown-elf/rv32imac/ilp32/libgcc/../../../../../riscv-gcc/libgcc/soft-fp/subdf3.c:47 (discriminator 90)
20012f78:	01441713          	slli	a4,s0,0x14
20012f7c:	7ff006b7          	lui	a3,0x7ff00
20012f80:	07b2                	slli	a5,a5,0xc
/home/scratch/jenkins/workspace/tpp-freedom-tools/tpp04--build-binary-packages--parameterized/obj/x86_64-linux-centos6/build/riscv64-unknown-elf-gcc/build-gcc-stage2/riscv64-unknown-elf/rv32imac/ilp32/libgcc/../../../../../riscv-gcc/libgcc/soft-fp/subdf3.c:51 (discriminator 90)
20012f82:	40f2                	lw	ra,28(sp)
20012f84:	4462                	lw	s0,24(sp)
/home/scratch/jenkins/workspace/tpp-freedom-tools/tpp04--build-binary-packages--parameterized/obj/x86_64-linux-centos6/build/riscv64-unknown-elf-gcc/build-gcc-stage2/riscv64-unknown-elf/rv32imac/ilp32/libgcc/../../../../../riscv-gcc/libgcc/soft-fp/subdf3.c:47 (discriminator 90)
20012f86:	8f75                	and	a4,a4,a3
20012f88:	83b1                	srli	a5,a5,0xc
20012f8a:	04fe                	slli	s1,s1,0x1f
20012f8c:	8fd9                	or	a5,a5,a4
20012f8e:	0097e733          	or	a4,a5,s1
/home/scratch/jenkins/workspace/tpp-freedom-tools/tpp04--build-binary-packages--parameterized/obj/x86_64-linux-centos6/build/riscv64-unknown-elf-gcc/build-gcc-stage2/riscv64-unknown-elf/rv32imac/ilp32/libgcc/../../../../../riscv-gcc/libgcc/soft-fp/subdf3.c:51 (discriminator 90)
20012f92:	4942                	lw	s2,16(sp)
20012f94:	44d2                	lw	s1,20(sp)
20012f96:	49b2                	lw	s3,12(sp)
20012f98:	85ba                	mv	a1,a4
20012f9a:	6105                	addi	sp,sp,32
20012f9c:	8082                	ret
20012f9e:	8442                	mv	s0,a6
20012fa0:	b191                	j	20012be4 <__subdf3+0x236>
/home/scratch/jenkins/workspace/tpp-freedom-tools/tpp04--build-binary-packages--parameterized/obj/x86_64-linux-centos6/build/riscv64-unknown-elf-gcc/build-gcc-stage2/riscv64-unknown-elf/rv32imac/ilp32/libgcc/../../../../../riscv-gcc/libgcc/soft-fp/subdf3.c:45
20012fa2:	87ba                	mv	a5,a4
20012fa4:	85b2                	mv	a1,a2
/home/scratch/jenkins/workspace/tpp-freedom-tools/tpp04--build-binary-packages--parameterized/obj/x86_64-linux-centos6/build/riscv64-unknown-elf-gcc/build-gcc-stage2/riscv64-unknown-elf/rv32imac/ilp32/libgcc/../../../../../riscv-gcc/libgcc/soft-fp/subdf3.c:46
20012fa6:	842a                	mv	s0,a0
20012fa8:	b5a9                	j	20012df2 <__subdf3+0x444>
20012faa:	4781                	li	a5,0
20012fac:	4581                	li	a1,0
20012fae:	4481                	li	s1,0
20012fb0:	b771                	j	20012f3c <__subdf3+0x58e>
20012fb2:	4781                	li	a5,0
20012fb4:	bfed                	j	20012fae <__subdf3+0x600>
20012fb6:	4581                	li	a1,0
20012fb8:	4481                	li	s1,0
20012fba:	004007b7          	lui	a5,0x400
20012fbe:	b999                	j	20012c14 <__subdf3+0x266>
20012fc0:	4781                	li	a5,0
20012fc2:	4581                	li	a1,0
20012fc4:	bf49                	j	20012f56 <__subdf3+0x5a8>

20012fc6 <__fixunsdfsi>:
__fixunsdfsi():
/home/scratch/jenkins/workspace/tpp-freedom-tools/tpp04--build-binary-packages--parameterized/obj/x86_64-linux-centos6/build/riscv64-unknown-elf-gcc/build-gcc-stage2/riscv64-unknown-elf/rv32imac/ilp32/libgcc/../../../../../riscv-gcc/libgcc/soft-fp/fixunsdfsi.c:42
20012fc6:	0145d713          	srli	a4,a1,0x14
20012fca:	00100837          	lui	a6,0x100
20012fce:	fff80793          	addi	a5,a6,-1 # fffff <__heap_size+0xff7ff>
20012fd2:	7ff77713          	andi	a4,a4,2047
/home/scratch/jenkins/workspace/tpp-freedom-tools/tpp04--build-binary-packages--parameterized/obj/x86_64-linux-centos6/build/riscv64-unknown-elf-gcc/build-gcc-stage2/riscv64-unknown-elf/rv32imac/ilp32/libgcc/../../../../../riscv-gcc/libgcc/soft-fp/fixunsdfsi.c:43
20012fd6:	3fe00613          	li	a2,1022
/home/scratch/jenkins/workspace/tpp-freedom-tools/tpp04--build-binary-packages--parameterized/obj/x86_64-linux-centos6/build/riscv64-unknown-elf-gcc/build-gcc-stage2/riscv64-unknown-elf/rv32imac/ilp32/libgcc/../../../../../riscv-gcc/libgcc/soft-fp/fixunsdfsi.c:42
20012fda:	8fed                	and	a5,a5,a1
/home/scratch/jenkins/workspace/tpp-freedom-tools/tpp04--build-binary-packages--parameterized/obj/x86_64-linux-centos6/build/riscv64-unknown-elf-gcc/build-gcc-stage2/riscv64-unknown-elf/rv32imac/ilp32/libgcc/../../../../../riscv-gcc/libgcc/soft-fp/fixunsdfsi.c:36
20012fdc:	86aa                	mv	a3,a0
/home/scratch/jenkins/workspace/tpp-freedom-tools/tpp04--build-binary-packages--parameterized/obj/x86_64-linux-centos6/build/riscv64-unknown-elf-gcc/build-gcc-stage2/riscv64-unknown-elf/rv32imac/ilp32/libgcc/../../../../../riscv-gcc/libgcc/soft-fp/fixunsdfsi.c:42
20012fde:	81fd                	srli	a1,a1,0x1f
/home/scratch/jenkins/workspace/tpp-freedom-tools/tpp04--build-binary-packages--parameterized/obj/x86_64-linux-centos6/build/riscv64-unknown-elf-gcc/build-gcc-stage2/riscv64-unknown-elf/rv32imac/ilp32/libgcc/../../../../../riscv-gcc/libgcc/soft-fp/fixunsdfsi.c:43
20012fe0:	04e65163          	bge	a2,a4,20013022 <__fixunsdfsi+0x5c>
/home/scratch/jenkins/workspace/tpp-freedom-tools/tpp04--build-binary-packages--parameterized/obj/x86_64-linux-centos6/build/riscv64-unknown-elf-gcc/build-gcc-stage2/riscv64-unknown-elf/rv32imac/ilp32/libgcc/../../../../../riscv-gcc/libgcc/soft-fp/fixunsdfsi.c:43 (discriminator 10)
20012fe4:	41f00613          	li	a2,1055
20012fe8:	8e0d                	sub	a2,a2,a1
20012fea:	fff58513          	addi	a0,a1,-1
20012fee:	02c75b63          	bge	a4,a2,20013024 <__fixunsdfsi+0x5e>
/home/scratch/jenkins/workspace/tpp-freedom-tools/tpp04--build-binary-packages--parameterized/obj/x86_64-linux-centos6/build/riscv64-unknown-elf-gcc/build-gcc-stage2/riscv64-unknown-elf/rv32imac/ilp32/libgcc/../../../../../riscv-gcc/libgcc/soft-fp/fixunsdfsi.c:43 (discriminator 17)
20012ff2:	4501                	li	a0,0
20012ff4:	e985                	bnez	a1,20013024 <__fixunsdfsi+0x5e>
/home/scratch/jenkins/workspace/tpp-freedom-tools/tpp04--build-binary-packages--parameterized/obj/x86_64-linux-centos6/build/riscv64-unknown-elf-gcc/build-gcc-stage2/riscv64-unknown-elf/rv32imac/ilp32/libgcc/../../../../../riscv-gcc/libgcc/soft-fp/fixunsdfsi.c:43 (discriminator 19)
20012ff6:	43300513          	li	a0,1075
20012ffa:	8d19                	sub	a0,a0,a4
20012ffc:	467d                	li	a2,31
20012ffe:	0107e7b3          	or	a5,a5,a6
20013002:	00a64a63          	blt	a2,a0,20013016 <__fixunsdfsi+0x50>
/home/scratch/jenkins/workspace/tpp-freedom-tools/tpp04--build-binary-packages--parameterized/obj/x86_64-linux-centos6/build/riscv64-unknown-elf-gcc/build-gcc-stage2/riscv64-unknown-elf/rv32imac/ilp32/libgcc/../../../../../riscv-gcc/libgcc/soft-fp/fixunsdfsi.c:43 (discriminator 34)
20013006:	bed70713          	addi	a4,a4,-1043 # ff7ffbed <metal_segment_heap_target_end+0x7f7fe20d>
2001300a:	00e797b3          	sll	a5,a5,a4
2001300e:	00a6d533          	srl	a0,a3,a0
20013012:	8d5d                	or	a0,a0,a5
20013014:	8082                	ret
/home/scratch/jenkins/workspace/tpp-freedom-tools/tpp04--build-binary-packages--parameterized/obj/x86_64-linux-centos6/build/riscv64-unknown-elf-gcc/build-gcc-stage2/riscv64-unknown-elf/rv32imac/ilp32/libgcc/../../../../../riscv-gcc/libgcc/soft-fp/fixunsdfsi.c:43 (discriminator 46)
20013016:	41300513          	li	a0,1043
2001301a:	8d19                	sub	a0,a0,a4
2001301c:	00a7d533          	srl	a0,a5,a0
20013020:	8082                	ret
/home/scratch/jenkins/workspace/tpp-freedom-tools/tpp04--build-binary-packages--parameterized/obj/x86_64-linux-centos6/build/riscv64-unknown-elf-gcc/build-gcc-stage2/riscv64-unknown-elf/rv32imac/ilp32/libgcc/../../../../../riscv-gcc/libgcc/soft-fp/fixunsdfsi.c:43
20013022:	4501                	li	a0,0
/home/scratch/jenkins/workspace/tpp-freedom-tools/tpp04--build-binary-packages--parameterized/obj/x86_64-linux-centos6/build/riscv64-unknown-elf-gcc/build-gcc-stage2/riscv64-unknown-elf/rv32imac/ilp32/libgcc/../../../../../riscv-gcc/libgcc/soft-fp/fixunsdfsi.c:47
20013024:	8082                	ret

20013026 <__floatunsidf>:
__floatunsidf():
/home/scratch/jenkins/workspace/tpp-freedom-tools/tpp04--build-binary-packages--parameterized/obj/x86_64-linux-centos6/build/riscv64-unknown-elf-gcc/build-gcc-stage2/riscv64-unknown-elf/rv32imac/ilp32/libgcc/../../../../../riscv-gcc/libgcc/soft-fp/floatunsidf.c:37
20013026:	1141                	addi	sp,sp,-16
20013028:	c422                	sw	s0,8(sp)
2001302a:	c606                	sw	ra,12(sp)
2001302c:	842a                	mv	s0,a0
/home/scratch/jenkins/workspace/tpp-freedom-tools/tpp04--build-binary-packages--parameterized/obj/x86_64-linux-centos6/build/riscv64-unknown-elf-gcc/build-gcc-stage2/riscv64-unknown-elf/rv32imac/ilp32/libgcc/../../../../../riscv-gcc/libgcc/soft-fp/floatunsidf.c:41
2001302e:	c121                	beqz	a0,2001306e <__floatunsidf+0x48>
/home/scratch/jenkins/workspace/tpp-freedom-tools/tpp04--build-binary-packages--parameterized/obj/x86_64-linux-centos6/build/riscv64-unknown-elf-gcc/build-gcc-stage2/riscv64-unknown-elf/rv32imac/ilp32/libgcc/../../../../../riscv-gcc/libgcc/soft-fp/floatunsidf.c:41 (discriminator 6)
20013030:	2091                	jal	20013074 <__clzsi2>
20013032:	41e00713          	li	a4,1054
20013036:	47a9                	li	a5,10
20013038:	8f09                	sub	a4,a4,a0
2001303a:	02a7c463          	blt	a5,a0,20013062 <__floatunsidf+0x3c>
/home/scratch/jenkins/workspace/tpp-freedom-tools/tpp04--build-binary-packages--parameterized/obj/x86_64-linux-centos6/build/riscv64-unknown-elf-gcc/build-gcc-stage2/riscv64-unknown-elf/rv32imac/ilp32/libgcc/../../../../../riscv-gcc/libgcc/soft-fp/floatunsidf.c:41 (discriminator 23)
2001303e:	47ad                	li	a5,11
20013040:	8f89                	sub	a5,a5,a0
20013042:	0555                	addi	a0,a0,21
20013044:	00f457b3          	srl	a5,s0,a5
20013048:	00a41433          	sll	s0,s0,a0
/home/scratch/jenkins/workspace/tpp-freedom-tools/tpp04--build-binary-packages--parameterized/obj/x86_64-linux-centos6/build/riscv64-unknown-elf-gcc/build-gcc-stage2/riscv64-unknown-elf/rv32imac/ilp32/libgcc/../../../../../riscv-gcc/libgcc/soft-fp/floatunsidf.c:45 (discriminator 126)
2001304c:	40b2                	lw	ra,12(sp)
2001304e:	8522                	mv	a0,s0
/home/scratch/jenkins/workspace/tpp-freedom-tools/tpp04--build-binary-packages--parameterized/obj/x86_64-linux-centos6/build/riscv64-unknown-elf-gcc/build-gcc-stage2/riscv64-unknown-elf/rv32imac/ilp32/libgcc/../../../../../riscv-gcc/libgcc/soft-fp/floatunsidf.c:42 (discriminator 126)
20013050:	07b2                	slli	a5,a5,0xc
/home/scratch/jenkins/workspace/tpp-freedom-tools/tpp04--build-binary-packages--parameterized/obj/x86_64-linux-centos6/build/riscv64-unknown-elf-gcc/build-gcc-stage2/riscv64-unknown-elf/rv32imac/ilp32/libgcc/../../../../../riscv-gcc/libgcc/soft-fp/floatunsidf.c:45 (discriminator 126)
20013052:	4422                	lw	s0,8(sp)
/home/scratch/jenkins/workspace/tpp-freedom-tools/tpp04--build-binary-packages--parameterized/obj/x86_64-linux-centos6/build/riscv64-unknown-elf-gcc/build-gcc-stage2/riscv64-unknown-elf/rv32imac/ilp32/libgcc/../../../../../riscv-gcc/libgcc/soft-fp/floatunsidf.c:42 (discriminator 126)
20013054:	0752                	slli	a4,a4,0x14
20013056:	83b1                	srli	a5,a5,0xc
20013058:	00f766b3          	or	a3,a4,a5
/home/scratch/jenkins/workspace/tpp-freedom-tools/tpp04--build-binary-packages--parameterized/obj/x86_64-linux-centos6/build/riscv64-unknown-elf-gcc/build-gcc-stage2/riscv64-unknown-elf/rv32imac/ilp32/libgcc/../../../../../riscv-gcc/libgcc/soft-fp/floatunsidf.c:45 (discriminator 126)
2001305c:	85b6                	mv	a1,a3
2001305e:	0141                	addi	sp,sp,16
20013060:	8082                	ret
/home/scratch/jenkins/workspace/tpp-freedom-tools/tpp04--build-binary-packages--parameterized/obj/x86_64-linux-centos6/build/riscv64-unknown-elf-gcc/build-gcc-stage2/riscv64-unknown-elf/rv32imac/ilp32/libgcc/../../../../../riscv-gcc/libgcc/soft-fp/floatunsidf.c:41 (discriminator 24)
20013062:	ff550793          	addi	a5,a0,-11
20013066:	00f417b3          	sll	a5,s0,a5
2001306a:	4401                	li	s0,0
2001306c:	b7c5                	j	2001304c <__floatunsidf+0x26>
/home/scratch/jenkins/workspace/tpp-freedom-tools/tpp04--build-binary-packages--parameterized/obj/x86_64-linux-centos6/build/riscv64-unknown-elf-gcc/build-gcc-stage2/riscv64-unknown-elf/rv32imac/ilp32/libgcc/../../../../../riscv-gcc/libgcc/soft-fp/floatunsidf.c:41
2001306e:	4781                	li	a5,0
20013070:	4701                	li	a4,0
20013072:	bfe9                	j	2001304c <__floatunsidf+0x26>

20013074 <__clzsi2>:
__clzsi2():
/home/scratch/jenkins/workspace/tpp-freedom-tools/tpp04--build-binary-packages--parameterized/obj/x86_64-linux-centos6/build/riscv64-unknown-elf-gcc/build-gcc-stage2/riscv64-unknown-elf/rv32imac/ilp32/libgcc/../../../../../riscv-gcc/libgcc/libgcc2.c:710
20013074:	67c1                	lui	a5,0x10
20013076:	02f57663          	bgeu	a0,a5,200130a2 <__clzsi2+0x2e>
/home/scratch/jenkins/workspace/tpp-freedom-tools/tpp04--build-binary-packages--parameterized/obj/x86_64-linux-centos6/build/riscv64-unknown-elf-gcc/build-gcc-stage2/riscv64-unknown-elf/rv32imac/ilp32/libgcc/../../../../../riscv-gcc/libgcc/libgcc2.c:710 (discriminator 3)
2001307a:	0ff00793          	li	a5,255
2001307e:	00a7b7b3          	sltu	a5,a5,a0
20013082:	078e                	slli	a5,a5,0x3
/home/scratch/jenkins/workspace/tpp-freedom-tools/tpp04--build-binary-packages--parameterized/obj/x86_64-linux-centos6/build/riscv64-unknown-elf-gcc/build-gcc-stage2/riscv64-unknown-elf/rv32imac/ilp32/libgcc/../../../../../riscv-gcc/libgcc/libgcc2.c:710 (discriminator 14)
20013084:	02000713          	li	a4,32
20013088:	8f1d                	sub	a4,a4,a5
2001308a:	00f55533          	srl	a0,a0,a5
2001308e:	ffffd797          	auipc	a5,0xffffd
20013092:	43678793          	addi	a5,a5,1078 # 200104c4 <__clz_tab>
20013096:	953e                	add	a0,a0,a5
20013098:	00054503          	lbu	a0,0(a0)
/home/scratch/jenkins/workspace/tpp-freedom-tools/tpp04--build-binary-packages--parameterized/obj/x86_64-linux-centos6/build/riscv64-unknown-elf-gcc/build-gcc-stage2/riscv64-unknown-elf/rv32imac/ilp32/libgcc/../../../../../riscv-gcc/libgcc/libgcc2.c:713 (discriminator 14)
2001309c:	40a70533          	sub	a0,a4,a0
200130a0:	8082                	ret
/home/scratch/jenkins/workspace/tpp-freedom-tools/tpp04--build-binary-packages--parameterized/obj/x86_64-linux-centos6/build/riscv64-unknown-elf-gcc/build-gcc-stage2/riscv64-unknown-elf/rv32imac/ilp32/libgcc/../../../../../riscv-gcc/libgcc/libgcc2.c:710 (discriminator 4)
200130a2:	01000737          	lui	a4,0x1000
200130a6:	47c1                	li	a5,16
200130a8:	fce56ee3          	bltu	a0,a4,20013084 <__clzsi2+0x10>
/home/scratch/jenkins/workspace/tpp-freedom-tools/tpp04--build-binary-packages--parameterized/obj/x86_64-linux-centos6/build/riscv64-unknown-elf-gcc/build-gcc-stage2/riscv64-unknown-elf/rv32imac/ilp32/libgcc/../../../../../riscv-gcc/libgcc/libgcc2.c:710
200130ac:	47e1                	li	a5,24
200130ae:	bfd9                	j	20013084 <__clzsi2+0x10>

200130b0 <sqrt>:
sqrt():
200130b0:	1101                	addi	sp,sp,-32
200130b2:	cc22                	sw	s0,24(sp)
200130b4:	ca26                	sw	s1,20(sp)
200130b6:	c84a                	sw	s2,16(sp)
200130b8:	c64e                	sw	s3,12(sp)
200130ba:	892e                	mv	s2,a1
200130bc:	89aa                	mv	s3,a0
200130be:	ce06                	sw	ra,28(sp)
200130c0:	20b9                	jal	2001310e <__ieee754_sqrt>
200130c2:	84aa                	mv	s1,a0
200130c4:	842e                	mv	s0,a1
200130c6:	864e                	mv	a2,s3
200130c8:	86ca                	mv	a3,s2
200130ca:	854e                	mv	a0,s3
200130cc:	85ca                	mv	a1,s2
200130ce:	5b6010ef          	jal	ra,20014684 <__unorddf2>
200130d2:	e50d                	bnez	a0,200130fc <sqrt+0x4c>
200130d4:	4601                	li	a2,0
200130d6:	4681                	li	a3,0
200130d8:	854e                	mv	a0,s3
200130da:	85ca                	mv	a1,s2
200130dc:	0c0010ef          	jal	ra,2001419c <__ledf2>
200130e0:	00055e63          	bgez	a0,200130fc <sqrt+0x4c>
200130e4:	268d                	jal	20013446 <__errno>
200130e6:	02100793          	li	a5,33
200130ea:	4601                	li	a2,0
200130ec:	4681                	li	a3,0
200130ee:	c11c                	sw	a5,0(a0)
200130f0:	85b6                	mv	a1,a3
200130f2:	8532                	mv	a0,a2
200130f4:	369000ef          	jal	ra,20013c5c <__divdf3>
200130f8:	84aa                	mv	s1,a0
200130fa:	842e                	mv	s0,a1
200130fc:	40f2                	lw	ra,28(sp)
200130fe:	85a2                	mv	a1,s0
20013100:	4462                	lw	s0,24(sp)
20013102:	4942                	lw	s2,16(sp)
20013104:	49b2                	lw	s3,12(sp)
20013106:	8526                	mv	a0,s1
20013108:	44d2                	lw	s1,20(sp)
2001310a:	6105                	addi	sp,sp,32
2001310c:	8082                	ret

2001310e <__ieee754_sqrt>:
__ieee754_sqrt():
2001310e:	1141                	addi	sp,sp,-16
20013110:	7ff00837          	lui	a6,0x7ff00
20013114:	c422                	sw	s0,8(sp)
20013116:	c226                	sw	s1,4(sp)
20013118:	c606                	sw	ra,12(sp)
2001311a:	00b876b3          	and	a3,a6,a1
2001311e:	84aa                	mv	s1,a0
20013120:	842e                	mv	s0,a1
20013122:	03069463          	bne	a3,a6,2001314a <__ieee754_sqrt+0x3c>
20013126:	862a                	mv	a2,a0
20013128:	86ae                	mv	a3,a1
2001312a:	118010ef          	jal	ra,20014242 <__muldf3>
2001312e:	862a                	mv	a2,a0
20013130:	86ae                	mv	a3,a1
20013132:	8526                	mv	a0,s1
20013134:	85a2                	mv	a1,s0
20013136:	2b31                	jal	20013652 <__adddf3>
20013138:	84aa                	mv	s1,a0
2001313a:	842e                	mv	s0,a1
2001313c:	40b2                	lw	ra,12(sp)
2001313e:	85a2                	mv	a1,s0
20013140:	4422                	lw	s0,8(sp)
20013142:	8526                	mv	a0,s1
20013144:	4492                	lw	s1,4(sp)
20013146:	0141                	addi	sp,sp,16
20013148:	8082                	ret
2001314a:	87ae                	mv	a5,a1
2001314c:	872a                	mv	a4,a0
2001314e:	02b04163          	bgtz	a1,20013170 <__ieee754_sqrt+0x62>
20013152:	00159693          	slli	a3,a1,0x1
20013156:	8285                	srli	a3,a3,0x1
20013158:	8ec9                	or	a3,a3,a0
2001315a:	d2ed                	beqz	a3,2001313c <__ieee754_sqrt+0x2e>
2001315c:	c991                	beqz	a1,20013170 <__ieee754_sqrt+0x62>
2001315e:	862a                	mv	a2,a0
20013160:	86ae                	mv	a3,a1
20013162:	84dff0ef          	jal	ra,200129ae <__subdf3>
20013166:	862a                	mv	a2,a0
20013168:	86ae                	mv	a3,a1
2001316a:	2f3000ef          	jal	ra,20013c5c <__divdf3>
2001316e:	b7e9                	j	20013138 <__ieee754_sqrt+0x2a>
20013170:	4147d693          	srai	a3,a5,0x14
20013174:	10068763          	beqz	a3,20013282 <__ieee754_sqrt+0x174>
20013178:	00100637          	lui	a2,0x100
2001317c:	fff60593          	addi	a1,a2,-1 # fffff <__heap_size+0xff7ff>
20013180:	c0168693          	addi	a3,a3,-1023 # 7feffc01 <metal_segment_data_source_start+0x5fee6b39>
20013184:	8fed                	and	a5,a5,a1
20013186:	8fd1                	or	a5,a5,a2
20013188:	0016f613          	andi	a2,a3,1
2001318c:	c611                	beqz	a2,20013198 <__ieee754_sqrt+0x8a>
2001318e:	01f75613          	srli	a2,a4,0x1f
20013192:	0786                	slli	a5,a5,0x1
20013194:	97b2                	add	a5,a5,a2
20013196:	0706                	slli	a4,a4,0x1
20013198:	4016de13          	srai	t3,a3,0x1
2001319c:	0786                	slli	a5,a5,0x1
2001319e:	01f75693          	srli	a3,a4,0x1f
200131a2:	97b6                	add	a5,a5,a3
200131a4:	0706                	slli	a4,a4,0x1
200131a6:	4559                	li	a0,22
200131a8:	4601                	li	a2,0
200131aa:	4581                	li	a1,0
200131ac:	00200837          	lui	a6,0x200
200131b0:	010588b3          	add	a7,a1,a6
200131b4:	0117c763          	blt	a5,a7,200131c2 <__ieee754_sqrt+0xb4>
200131b8:	010885b3          	add	a1,a7,a6
200131bc:	411787b3          	sub	a5,a5,a7
200131c0:	9642                	add	a2,a2,a6
200131c2:	01f75693          	srli	a3,a4,0x1f
200131c6:	0786                	slli	a5,a5,0x1
200131c8:	157d                	addi	a0,a0,-1
200131ca:	97b6                	add	a5,a5,a3
200131cc:	0706                	slli	a4,a4,0x1
200131ce:	00185813          	srli	a6,a6,0x1
200131d2:	fd79                	bnez	a0,200131b0 <__ieee754_sqrt+0xa2>
200131d4:	4681                	li	a3,0
200131d6:	02000313          	li	t1,32
200131da:	80000837          	lui	a6,0x80000
200131de:	00a808b3          	add	a7,a6,a0
200131e2:	00f5c663          	blt	a1,a5,200131ee <__ieee754_sqrt+0xe0>
200131e6:	02b79563          	bne	a5,a1,20013210 <__ieee754_sqrt+0x102>
200131ea:	03176363          	bltu	a4,a7,20013210 <__ieee754_sqrt+0x102>
200131ee:	01088533          	add	a0,a7,a6
200131f2:	8eae                	mv	t4,a1
200131f4:	0008d663          	bgez	a7,20013200 <__ieee754_sqrt+0xf2>
200131f8:	00054463          	bltz	a0,20013200 <__ieee754_sqrt+0xf2>
200131fc:	00158e93          	addi	t4,a1,1
20013200:	8f8d                	sub	a5,a5,a1
20013202:	01177363          	bgeu	a4,a7,20013208 <__ieee754_sqrt+0xfa>
20013206:	17fd                	addi	a5,a5,-1
20013208:	41170733          	sub	a4,a4,a7
2001320c:	96c2                	add	a3,a3,a6
2001320e:	85f6                	mv	a1,t4
20013210:	01f75893          	srli	a7,a4,0x1f
20013214:	0786                	slli	a5,a5,0x1
20013216:	137d                	addi	t1,t1,-1
20013218:	97c6                	add	a5,a5,a7
2001321a:	0706                	slli	a4,a4,0x1
2001321c:	00185813          	srli	a6,a6,0x1
20013220:	fa031fe3          	bnez	t1,200131de <__ieee754_sqrt+0xd0>
20013224:	8fd9                	or	a5,a5,a4
20013226:	c791                	beqz	a5,20013232 <__ieee754_sqrt+0x124>
20013228:	57fd                	li	a5,-1
2001322a:	06f69163          	bne	a3,a5,2001328c <__ieee754_sqrt+0x17e>
2001322e:	0605                	addi	a2,a2,1
20013230:	4681                	li	a3,0
20013232:	40165793          	srai	a5,a2,0x1
20013236:	3fe00737          	lui	a4,0x3fe00
2001323a:	8a05                	andi	a2,a2,1
2001323c:	97ba                	add	a5,a5,a4
2001323e:	8285                	srli	a3,a3,0x1
20013240:	c601                	beqz	a2,20013248 <__ieee754_sqrt+0x13a>
20013242:	80000737          	lui	a4,0x80000
20013246:	8ed9                	or	a3,a3,a4
20013248:	014e1713          	slli	a4,t3,0x14
2001324c:	84b6                	mv	s1,a3
2001324e:	00f70433          	add	s0,a4,a5
20013252:	b5ed                	j	2001313c <__ieee754_sqrt+0x2e>
20013254:	00b75793          	srli	a5,a4,0xb
20013258:	15ad                	addi	a1,a1,-21
2001325a:	0756                	slli	a4,a4,0x15
2001325c:	dfe5                	beqz	a5,20013254 <__ieee754_sqrt+0x146>
2001325e:	00100537          	lui	a0,0x100
20013262:	00a7f633          	and	a2,a5,a0
20013266:	c205                	beqz	a2,20013286 <__ieee754_sqrt+0x178>
20013268:	02000613          	li	a2,32
2001326c:	8e15                	sub	a2,a2,a3
2001326e:	00c75633          	srl	a2,a4,a2
20013272:	fff68513          	addi	a0,a3,-1
20013276:	00d71733          	sll	a4,a4,a3
2001327a:	8fd1                	or	a5,a5,a2
2001327c:	40a586b3          	sub	a3,a1,a0
20013280:	bde5                	j	20013178 <__ieee754_sqrt+0x6a>
20013282:	4581                	li	a1,0
20013284:	bfe1                	j	2001325c <__ieee754_sqrt+0x14e>
20013286:	0786                	slli	a5,a5,0x1
20013288:	0685                	addi	a3,a3,1
2001328a:	bfe1                	j	20013262 <__ieee754_sqrt+0x154>
2001328c:	0685                	addi	a3,a3,1
2001328e:	9af9                	andi	a3,a3,-2
20013290:	b74d                	j	20013232 <__ieee754_sqrt+0x124>

20013292 <_close>:
_close():
/home/nicoladgg/wsFreedomStudio/sifive_hifive1_revb_hello/freedom-metal/gloss/sys_close.c:3
20013292:	1101                	addi	sp,sp,-32
20013294:	ce06                	sw	ra,28(sp)
20013296:	cc22                	sw	s0,24(sp)
20013298:	1000                	addi	s0,sp,32
2001329a:	fea42623          	sw	a0,-20(s0)
/home/nicoladgg/wsFreedomStudio/sifive_hifive1_revb_hello/freedom-metal/gloss/sys_close.c:4
2001329e:	2265                	jal	20013446 <__errno>
200132a0:	872a                	mv	a4,a0
200132a2:	05800793          	li	a5,88
200132a6:	c31c                	sw	a5,0(a4)
/home/nicoladgg/wsFreedomStudio/sifive_hifive1_revb_hello/freedom-metal/gloss/sys_close.c:5
200132a8:	57fd                	li	a5,-1
/home/nicoladgg/wsFreedomStudio/sifive_hifive1_revb_hello/freedom-metal/gloss/sys_close.c:6
200132aa:	853e                	mv	a0,a5
200132ac:	40f2                	lw	ra,28(sp)
200132ae:	4462                	lw	s0,24(sp)
200132b0:	6105                	addi	sp,sp,32
200132b2:	8082                	ret

200132b4 <_fstat>:
_fstat():
/home/nicoladgg/wsFreedomStudio/sifive_hifive1_revb_hello/freedom-metal/gloss/sys_fstat.c:4
200132b4:	1101                	addi	sp,sp,-32
200132b6:	ce06                	sw	ra,28(sp)
200132b8:	cc22                	sw	s0,24(sp)
200132ba:	1000                	addi	s0,sp,32
200132bc:	fea42623          	sw	a0,-20(s0)
200132c0:	feb42423          	sw	a1,-24(s0)
/home/nicoladgg/wsFreedomStudio/sifive_hifive1_revb_hello/freedom-metal/gloss/sys_fstat.c:5
200132c4:	2249                	jal	20013446 <__errno>
200132c6:	872a                	mv	a4,a0
200132c8:	fa800793          	li	a5,-88
200132cc:	c31c                	sw	a5,0(a4)
/home/nicoladgg/wsFreedomStudio/sifive_hifive1_revb_hello/freedom-metal/gloss/sys_fstat.c:6
200132ce:	57fd                	li	a5,-1
/home/nicoladgg/wsFreedomStudio/sifive_hifive1_revb_hello/freedom-metal/gloss/sys_fstat.c:7
200132d0:	853e                	mv	a0,a5
200132d2:	40f2                	lw	ra,28(sp)
200132d4:	4462                	lw	s0,24(sp)
200132d6:	6105                	addi	sp,sp,32
200132d8:	8082                	ret

200132da <_isatty>:
_isatty():
/home/nicoladgg/wsFreedomStudio/sifive_hifive1_revb_hello/freedom-metal/gloss/sys_isatty.c:3
200132da:	1101                	addi	sp,sp,-32
200132dc:	ce22                	sw	s0,28(sp)
200132de:	1000                	addi	s0,sp,32
200132e0:	fea42623          	sw	a0,-20(s0)
200132e4:	fec42783          	lw	a5,-20(s0)
200132e8:	17fd                	addi	a5,a5,-1
200132ea:	0017b793          	seqz	a5,a5
200132ee:	0ff7f793          	zext.b	a5,a5
200132f2:	853e                	mv	a0,a5
200132f4:	4472                	lw	s0,28(sp)
200132f6:	6105                	addi	sp,sp,32
200132f8:	8082                	ret

200132fa <_lseek>:
_lseek():
/home/nicoladgg/wsFreedomStudio/sifive_hifive1_revb_hello/freedom-metal/gloss/sys_lseek.c:4
200132fa:	1101                	addi	sp,sp,-32
200132fc:	ce06                	sw	ra,28(sp)
200132fe:	cc22                	sw	s0,24(sp)
20013300:	1000                	addi	s0,sp,32
20013302:	fea42623          	sw	a0,-20(s0)
20013306:	feb42423          	sw	a1,-24(s0)
2001330a:	fec42223          	sw	a2,-28(s0)
/home/nicoladgg/wsFreedomStudio/sifive_hifive1_revb_hello/freedom-metal/gloss/sys_lseek.c:5
2001330e:	2a25                	jal	20013446 <__errno>
20013310:	872a                	mv	a4,a0
20013312:	05800793          	li	a5,88
20013316:	c31c                	sw	a5,0(a4)
/home/nicoladgg/wsFreedomStudio/sifive_hifive1_revb_hello/freedom-metal/gloss/sys_lseek.c:6
20013318:	57fd                	li	a5,-1
/home/nicoladgg/wsFreedomStudio/sifive_hifive1_revb_hello/freedom-metal/gloss/sys_lseek.c:7
2001331a:	853e                	mv	a0,a5
2001331c:	40f2                	lw	ra,28(sp)
2001331e:	4462                	lw	s0,24(sp)
20013320:	6105                	addi	sp,sp,32
20013322:	8082                	ret

20013324 <_read>:
_read():
/home/nicoladgg/wsFreedomStudio/sifive_hifive1_revb_hello/freedom-metal/gloss/sys_read.c:4
20013324:	1101                	addi	sp,sp,-32
20013326:	ce06                	sw	ra,28(sp)
20013328:	cc22                	sw	s0,24(sp)
2001332a:	1000                	addi	s0,sp,32
2001332c:	fea42623          	sw	a0,-20(s0)
20013330:	feb42423          	sw	a1,-24(s0)
20013334:	fec42223          	sw	a2,-28(s0)
/home/nicoladgg/wsFreedomStudio/sifive_hifive1_revb_hello/freedom-metal/gloss/sys_read.c:5
20013338:	2239                	jal	20013446 <__errno>
2001333a:	872a                	mv	a4,a0
2001333c:	05800793          	li	a5,88
20013340:	c31c                	sw	a5,0(a4)
/home/nicoladgg/wsFreedomStudio/sifive_hifive1_revb_hello/freedom-metal/gloss/sys_read.c:6
20013342:	57fd                	li	a5,-1
/home/nicoladgg/wsFreedomStudio/sifive_hifive1_revb_hello/freedom-metal/gloss/sys_read.c:7
20013344:	853e                	mv	a0,a5
20013346:	40f2                	lw	ra,28(sp)
20013348:	4462                	lw	s0,24(sp)
2001334a:	6105                	addi	sp,sp,32
2001334c:	8082                	ret

2001334e <_sbrk>:
_sbrk():
/home/nicoladgg/wsFreedomStudio/sifive_hifive1_revb_hello/freedom-metal/gloss/sys_sbrk.c:24
2001334e:	7179                	addi	sp,sp,-48
20013350:	d606                	sw	ra,44(sp)
20013352:	d422                	sw	s0,40(sp)
20013354:	1800                	addi	s0,sp,48
20013356:	fca42e23          	sw	a0,-36(s0)
/home/nicoladgg/wsFreedomStudio/sifive_hifive1_revb_hello/freedom-metal/gloss/sys_sbrk.c:25
2001335a:	800017b7          	lui	a5,0x80001
2001335e:	aa87a783          	lw	a5,-1368(a5) # 80000aa8 <metal_segment_heap_target_end+0xfffff0c8>
20013362:	fef42623          	sw	a5,-20(s0)
/home/nicoladgg/wsFreedomStudio/sifive_hifive1_revb_hello/freedom-metal/gloss/sys_sbrk.c:28
20013366:	f4018713          	addi	a4,gp,-192 # 800011e0 <_sp>
2001336a:	74018793          	addi	a5,gp,1856 # 800019e0 <metal_segment_heap_target_end>
2001336e:	00f71463          	bne	a4,a5,20013376 <_sbrk+0x28>
/home/nicoladgg/wsFreedomStudio/sifive_hifive1_revb_hello/freedom-metal/gloss/sys_sbrk.c:29
20013372:	57fd                	li	a5,-1
20013374:	a0b9                	j	200133c2 <_sbrk+0x74>
/home/nicoladgg/wsFreedomStudio/sifive_hifive1_revb_hello/freedom-metal/gloss/sys_sbrk.c:33
20013376:	800017b7          	lui	a5,0x80001
2001337a:	aa87a703          	lw	a4,-1368(a5) # 80000aa8 <metal_segment_heap_target_end+0xfffff0c8>
2001337e:	fdc42783          	lw	a5,-36(s0)
20013382:	973e                	add	a4,a4,a5
20013384:	74018793          	addi	a5,gp,1856 # 800019e0 <metal_segment_heap_target_end>
20013388:	02f77663          	bgeu	a4,a5,200133b4 <_sbrk+0x66>
/home/nicoladgg/wsFreedomStudio/sifive_hifive1_revb_hello/freedom-metal/gloss/sys_sbrk.c:34
2001338c:	800017b7          	lui	a5,0x80001
20013390:	aa87a703          	lw	a4,-1368(a5) # 80000aa8 <metal_segment_heap_target_end+0xfffff0c8>
20013394:	fdc42783          	lw	a5,-36(s0)
20013398:	973e                	add	a4,a4,a5
2001339a:	800017b7          	lui	a5,0x80001
2001339e:	aae7a423          	sw	a4,-1368(a5) # 80000aa8 <metal_segment_heap_target_end+0xfffff0c8>
/home/nicoladgg/wsFreedomStudio/sifive_hifive1_revb_hello/freedom-metal/gloss/sys_sbrk.c:40
200133a2:	fdc42583          	lw	a1,-36(s0)
200133a6:	fec42503          	lw	a0,-20(s0)
200133aa:	ce1fc0ef          	jal	ra,2001008a <metal_mem_scrub>
/home/nicoladgg/wsFreedomStudio/sifive_hifive1_revb_hello/freedom-metal/gloss/sys_sbrk.c:42
200133ae:	fec42783          	lw	a5,-20(s0)
200133b2:	a801                	j	200133c2 <_sbrk+0x74>
/home/nicoladgg/wsFreedomStudio/sifive_hifive1_revb_hello/freedom-metal/gloss/sys_sbrk.c:36
200133b4:	800017b7          	lui	a5,0x80001
200133b8:	74018713          	addi	a4,gp,1856 # 800019e0 <metal_segment_heap_target_end>
200133bc:	aae7a423          	sw	a4,-1368(a5) # 80000aa8 <metal_segment_heap_target_end+0xfffff0c8>
/home/nicoladgg/wsFreedomStudio/sifive_hifive1_revb_hello/freedom-metal/gloss/sys_sbrk.c:37
200133c0:	57fd                	li	a5,-1
/home/nicoladgg/wsFreedomStudio/sifive_hifive1_revb_hello/freedom-metal/gloss/sys_sbrk.c:43
200133c2:	853e                	mv	a0,a5
200133c4:	50b2                	lw	ra,44(sp)
200133c6:	5422                	lw	s0,40(sp)
200133c8:	6145                	addi	sp,sp,48
200133ca:	8082                	ret

200133cc <_write>:
_write():
/home/nicoladgg/wsFreedomStudio/sifive_hifive1_revb_hello/freedom-metal/gloss/sys_write.c:7
200133cc:	7179                	addi	sp,sp,-48
200133ce:	d606                	sw	ra,44(sp)
200133d0:	d422                	sw	s0,40(sp)
200133d2:	1800                	addi	s0,sp,48
200133d4:	fca42e23          	sw	a0,-36(s0)
200133d8:	fcb42c23          	sw	a1,-40(s0)
200133dc:	fcc42a23          	sw	a2,-44(s0)
/home/nicoladgg/wsFreedomStudio/sifive_hifive1_revb_hello/freedom-metal/gloss/sys_write.c:8
200133e0:	fdc42703          	lw	a4,-36(s0)
200133e4:	4785                	li	a5,1
200133e6:	00f70963          	beq	a4,a5,200133f8 <_write+0x2c>
/home/nicoladgg/wsFreedomStudio/sifive_hifive1_revb_hello/freedom-metal/gloss/sys_write.c:9
200133ea:	28b1                	jal	20013446 <__errno>
200133ec:	872a                	mv	a4,a0
200133ee:	05800793          	li	a5,88
200133f2:	c31c                	sw	a5,0(a4)
/home/nicoladgg/wsFreedomStudio/sifive_hifive1_revb_hello/freedom-metal/gloss/sys_write.c:10
200133f4:	57fd                	li	a5,-1
200133f6:	a835                	j	20013432 <_write+0x66>
/home/nicoladgg/wsFreedomStudio/sifive_hifive1_revb_hello/freedom-metal/gloss/sys_write.c:13
200133f8:	fd842783          	lw	a5,-40(s0)
200133fc:	fef42423          	sw	a5,-24(s0)
/home/nicoladgg/wsFreedomStudio/sifive_hifive1_revb_hello/freedom-metal/gloss/sys_write.c:14
20013400:	fe042623          	sw	zero,-20(s0)
20013404:	a005                	j	20013424 <_write+0x58>
/home/nicoladgg/wsFreedomStudio/sifive_hifive1_revb_hello/freedom-metal/gloss/sys_write.c:15 (discriminator 3)
20013406:	fe842703          	lw	a4,-24(s0)
2001340a:	fec42783          	lw	a5,-20(s0)
2001340e:	97ba                	add	a5,a5,a4
20013410:	0007c783          	lbu	a5,0(a5)
20013414:	853e                	mv	a0,a5
20013416:	3c0010ef          	jal	ra,200147d6 <metal_tty_putc>
/home/nicoladgg/wsFreedomStudio/sifive_hifive1_revb_hello/freedom-metal/gloss/sys_write.c:14 (discriminator 3)
2001341a:	fec42783          	lw	a5,-20(s0)
2001341e:	0785                	addi	a5,a5,1
20013420:	fef42623          	sw	a5,-20(s0)
/home/nicoladgg/wsFreedomStudio/sifive_hifive1_revb_hello/freedom-metal/gloss/sys_write.c:14 (discriminator 1)
20013424:	fec42703          	lw	a4,-20(s0)
20013428:	fd442783          	lw	a5,-44(s0)
2001342c:	fcf76de3          	bltu	a4,a5,20013406 <_write+0x3a>
/home/nicoladgg/wsFreedomStudio/sifive_hifive1_revb_hello/freedom-metal/gloss/sys_write.c:16
20013430:	4781                	li	a5,0
/home/nicoladgg/wsFreedomStudio/sifive_hifive1_revb_hello/freedom-metal/gloss/sys_write.c:17
20013432:	853e                	mv	a0,a5
20013434:	50b2                	lw	ra,44(sp)
20013436:	5422                	lw	s0,40(sp)
20013438:	6145                	addi	sp,sp,48
2001343a:	8082                	ret

2001343c <atexit>:
atexit():
2001343c:	85aa                	mv	a1,a0
2001343e:	4681                	li	a3,0
20013440:	4601                	li	a2,0
20013442:	4501                	li	a0,0
20013444:	a0e9                	j	2001350e <__register_exitproc>

20013446 <__errno>:
__errno():
20013446:	5ffed517          	auipc	a0,0x5ffed
2001344a:	65e52503          	lw	a0,1630(a0) # 80000aa4 <_impure_ptr>
2001344e:	8082                	ret

20013450 <exit>:
exit():
20013450:	1141                	addi	sp,sp,-16
20013452:	c422                	sw	s0,8(sp)
20013454:	c606                	sw	ra,12(sp)
20013456:	00000797          	auipc	a5,0x0
2001345a:	13478793          	addi	a5,a5,308 # 2001358a <__call_exitprocs>
2001345e:	842a                	mv	s0,a0
20013460:	c399                	beqz	a5,20013466 <exit+0x16>
20013462:	4581                	li	a1,0
20013464:	221d                	jal	2001358a <__call_exitprocs>
20013466:	ffffe517          	auipc	a0,0xffffe
2001346a:	d2252503          	lw	a0,-734(a0) # 20011188 <_global_impure_ptr>
2001346e:	551c                	lw	a5,40(a0)
20013470:	c391                	beqz	a5,20013474 <exit+0x24>
20013472:	9782                	jalr	a5
20013474:	8522                	mv	a0,s0
20013476:	43b050ef          	jal	ra,200190b0 <_exit>

2001347a <__libc_fini_array>:
__libc_fini_array():
2001347a:	1141                	addi	sp,sp,-16
2001347c:	c422                	sw	s0,8(sp)
2001347e:	c226                	sw	s1,4(sp)
20013480:	ffffd417          	auipc	s0,0xffffd
20013484:	e7040413          	addi	s0,s0,-400 # 200102f0 <__fini_array_end>
20013488:	ffffd497          	auipc	s1,0xffffd
2001348c:	e6848493          	addi	s1,s1,-408 # 200102f0 <__fini_array_end>
20013490:	8c05                	sub	s0,s0,s1
20013492:	c606                	sw	ra,12(sp)
20013494:	8409                	srai	s0,s0,0x2
20013496:	e411                	bnez	s0,200134a2 <__libc_fini_array+0x28>
20013498:	40b2                	lw	ra,12(sp)
2001349a:	4422                	lw	s0,8(sp)
2001349c:	4492                	lw	s1,4(sp)
2001349e:	0141                	addi	sp,sp,16
200134a0:	8082                	ret
200134a2:	147d                	addi	s0,s0,-1
200134a4:	00241793          	slli	a5,s0,0x2
200134a8:	97a6                	add	a5,a5,s1
200134aa:	439c                	lw	a5,0(a5)
200134ac:	9782                	jalr	a5
200134ae:	b7e5                	j	20013496 <__libc_fini_array+0x1c>

200134b0 <__libc_init_array>:
__libc_init_array():
200134b0:	1141                	addi	sp,sp,-16
200134b2:	c422                	sw	s0,8(sp)
200134b4:	c226                	sw	s1,4(sp)
200134b6:	ffffd417          	auipc	s0,0xffffd
200134ba:	e2a40413          	addi	s0,s0,-470 # 200102e0 <_metal_tty_init_ptr>
200134be:	ffffd497          	auipc	s1,0xffffd
200134c2:	e2248493          	addi	s1,s1,-478 # 200102e0 <_metal_tty_init_ptr>
200134c6:	8c81                	sub	s1,s1,s0
200134c8:	c04a                	sw	s2,0(sp)
200134ca:	c606                	sw	ra,12(sp)
200134cc:	8489                	srai	s1,s1,0x2
200134ce:	4901                	li	s2,0
200134d0:	02991563          	bne	s2,s1,200134fa <__libc_init_array+0x4a>
200134d4:	ffffd417          	auipc	s0,0xffffd
200134d8:	e0c40413          	addi	s0,s0,-500 # 200102e0 <_metal_tty_init_ptr>
200134dc:	ffffd497          	auipc	s1,0xffffd
200134e0:	e0448493          	addi	s1,s1,-508 # 200102e0 <_metal_tty_init_ptr>
200134e4:	8c81                	sub	s1,s1,s0
200134e6:	8489                	srai	s1,s1,0x2
200134e8:	4901                	li	s2,0
200134ea:	00991d63          	bne	s2,s1,20013504 <__libc_init_array+0x54>
200134ee:	40b2                	lw	ra,12(sp)
200134f0:	4422                	lw	s0,8(sp)
200134f2:	4492                	lw	s1,4(sp)
200134f4:	4902                	lw	s2,0(sp)
200134f6:	0141                	addi	sp,sp,16
200134f8:	8082                	ret
200134fa:	401c                	lw	a5,0(s0)
200134fc:	0905                	addi	s2,s2,1
200134fe:	0411                	addi	s0,s0,4
20013500:	9782                	jalr	a5
20013502:	b7f9                	j	200134d0 <__libc_init_array+0x20>
20013504:	401c                	lw	a5,0(s0)
20013506:	0905                	addi	s2,s2,1
20013508:	0411                	addi	s0,s0,4
2001350a:	9782                	jalr	a5
2001350c:	bff9                	j	200134ea <__libc_init_array+0x3a>

2001350e <__register_exitproc>:
__register_exitproc():
2001350e:	88aa                	mv	a7,a0
20013510:	5ffed517          	auipc	a0,0x5ffed
20013514:	5c450513          	addi	a0,a0,1476 # 80000ad4 <_global_atexit>
20013518:	411c                	lw	a5,0(a0)
2001351a:	ef91                	bnez	a5,20013536 <__register_exitproc+0x28>
2001351c:	5ffed717          	auipc	a4,0x5ffed
20013520:	5c470713          	addi	a4,a4,1476 # 80000ae0 <_global_atexit0>
20013524:	c118                	sw	a4,0(a0)
20013526:	00000513          	li	a0,0
2001352a:	87ba                	mv	a5,a4
2001352c:	c509                	beqz	a0,20013536 <__register_exitproc+0x28>
2001352e:	411c                	lw	a5,0(a0)
20013530:	08f72423          	sw	a5,136(a4)
20013534:	87ba                	mv	a5,a4
20013536:	43d8                	lw	a4,4(a5)
20013538:	487d                	li	a6,31
2001353a:	557d                	li	a0,-1
2001353c:	04e84663          	blt	a6,a4,20013588 <__register_exitproc+0x7a>
20013540:	02088d63          	beqz	a7,2001357a <__register_exitproc+0x6c>
20013544:	0887a803          	lw	a6,136(a5)
20013548:	04080063          	beqz	a6,20013588 <__register_exitproc+0x7a>
2001354c:	00271513          	slli	a0,a4,0x2
20013550:	9542                	add	a0,a0,a6
20013552:	c110                	sw	a2,0(a0)
20013554:	10082303          	lw	t1,256(a6) # 80000100 <metal_segment_heap_target_end+0xffffe720>
20013558:	4605                	li	a2,1
2001355a:	00e61633          	sll	a2,a2,a4
2001355e:	00c36333          	or	t1,t1,a2
20013562:	10682023          	sw	t1,256(a6)
20013566:	08d52023          	sw	a3,128(a0)
2001356a:	4689                	li	a3,2
2001356c:	00d89763          	bne	a7,a3,2001357a <__register_exitproc+0x6c>
20013570:	10482683          	lw	a3,260(a6)
20013574:	8e55                	or	a2,a2,a3
20013576:	10c82223          	sw	a2,260(a6)
2001357a:	00170693          	addi	a3,a4,1
2001357e:	070a                	slli	a4,a4,0x2
20013580:	c3d4                	sw	a3,4(a5)
20013582:	97ba                	add	a5,a5,a4
20013584:	c78c                	sw	a1,8(a5)
20013586:	4501                	li	a0,0
20013588:	8082                	ret

2001358a <__call_exitprocs>:
__call_exitprocs():
2001358a:	7179                	addi	sp,sp,-48
2001358c:	ca56                	sw	s5,20(sp)
2001358e:	c85a                	sw	s6,16(sp)
20013590:	c65e                	sw	s7,12(sp)
20013592:	c462                	sw	s8,8(sp)
20013594:	d606                	sw	ra,44(sp)
20013596:	d422                	sw	s0,40(sp)
20013598:	d226                	sw	s1,36(sp)
2001359a:	d04a                	sw	s2,32(sp)
2001359c:	ce4e                	sw	s3,28(sp)
2001359e:	cc52                	sw	s4,24(sp)
200135a0:	c266                	sw	s9,4(sp)
200135a2:	8b2a                	mv	s6,a0
200135a4:	8aae                	mv	s5,a1
200135a6:	5ffedb97          	auipc	s7,0x5ffed
200135aa:	52eb8b93          	addi	s7,s7,1326 # 80000ad4 <_global_atexit>
200135ae:	4c05                	li	s8,1
200135b0:	000ba483          	lw	s1,0(s7)
200135b4:	cc81                	beqz	s1,200135cc <__call_exitprocs+0x42>
200135b6:	40c0                	lw	s0,4(s1)
200135b8:	0884a983          	lw	s3,136(s1)
200135bc:	fff40913          	addi	s2,s0,-1
200135c0:	040a                	slli	s0,s0,0x2
200135c2:	00898a33          	add	s4,s3,s0
200135c6:	9426                	add	s0,s0,s1
200135c8:	00095f63          	bgez	s2,200135e6 <__call_exitprocs+0x5c>
200135cc:	50b2                	lw	ra,44(sp)
200135ce:	5422                	lw	s0,40(sp)
200135d0:	5492                	lw	s1,36(sp)
200135d2:	5902                	lw	s2,32(sp)
200135d4:	49f2                	lw	s3,28(sp)
200135d6:	4a62                	lw	s4,24(sp)
200135d8:	4ad2                	lw	s5,20(sp)
200135da:	4b42                	lw	s6,16(sp)
200135dc:	4bb2                	lw	s7,12(sp)
200135de:	4c22                	lw	s8,8(sp)
200135e0:	4c92                	lw	s9,4(sp)
200135e2:	6145                	addi	sp,sp,48
200135e4:	8082                	ret
200135e6:	000a8c63          	beqz	s5,200135fe <__call_exitprocs+0x74>
200135ea:	00099663          	bnez	s3,200135f6 <__call_exitprocs+0x6c>
200135ee:	197d                	addi	s2,s2,-1
200135f0:	1a71                	addi	s4,s4,-4
200135f2:	1471                	addi	s0,s0,-4
200135f4:	bfd1                	j	200135c8 <__call_exitprocs+0x3e>
200135f6:	07ca2783          	lw	a5,124(s4)
200135fa:	ff579ae3          	bne	a5,s5,200135ee <__call_exitprocs+0x64>
200135fe:	40d8                	lw	a4,4(s1)
20013600:	405c                	lw	a5,4(s0)
20013602:	177d                	addi	a4,a4,-1
20013604:	03271863          	bne	a4,s2,20013634 <__call_exitprocs+0xaa>
20013608:	0124a223          	sw	s2,4(s1)
2001360c:	d3ed                	beqz	a5,200135ee <__call_exitprocs+0x64>
2001360e:	0044ac83          	lw	s9,4(s1)
20013612:	00098863          	beqz	s3,20013622 <__call_exitprocs+0x98>
20013616:	1009a683          	lw	a3,256(s3)
2001361a:	012c1733          	sll	a4,s8,s2
2001361e:	8ef9                	and	a3,a3,a4
20013620:	ee89                	bnez	a3,2001363a <__call_exitprocs+0xb0>
20013622:	9782                	jalr	a5
20013624:	40d8                	lw	a4,4(s1)
20013626:	000ba783          	lw	a5,0(s7)
2001362a:	f99713e3          	bne	a4,s9,200135b0 <__call_exitprocs+0x26>
2001362e:	fcf480e3          	beq	s1,a5,200135ee <__call_exitprocs+0x64>
20013632:	bfbd                	j	200135b0 <__call_exitprocs+0x26>
20013634:	00042223          	sw	zero,4(s0)
20013638:	bfd1                	j	2001360c <__call_exitprocs+0x82>
2001363a:	1049a683          	lw	a3,260(s3)
2001363e:	ffca2583          	lw	a1,-4(s4)
20013642:	8f75                	and	a4,a4,a3
20013644:	e701                	bnez	a4,2001364c <__call_exitprocs+0xc2>
20013646:	855a                	mv	a0,s6
20013648:	9782                	jalr	a5
2001364a:	bfe9                	j	20013624 <__call_exitprocs+0x9a>
2001364c:	852e                	mv	a0,a1
2001364e:	9782                	jalr	a5
20013650:	bfd1                	j	20013624 <__call_exitprocs+0x9a>

20013652 <__adddf3>:
__adddf3():
/home/scratch/jenkins/workspace/tpp-freedom-tools/tpp04--build-binary-packages--parameterized/obj/x86_64-linux-centos6/build/riscv64-unknown-elf-gcc/build-gcc-stage2/riscv64-unknown-elf/rv32imac/ilp32/libgcc/../../../../../riscv-gcc/libgcc/soft-fp/adddf3.c:44
20013652:	00100837          	lui	a6,0x100
20013656:	187d                	addi	a6,a6,-1
/home/scratch/jenkins/workspace/tpp-freedom-tools/tpp04--build-binary-packages--parameterized/obj/x86_64-linux-centos6/build/riscv64-unknown-elf-gcc/build-gcc-stage2/riscv64-unknown-elf/rv32imac/ilp32/libgcc/../../../../../riscv-gcc/libgcc/soft-fp/adddf3.c:36
20013658:	1101                	addi	sp,sp,-32
/home/scratch/jenkins/workspace/tpp-freedom-tools/tpp04--build-binary-packages--parameterized/obj/x86_64-linux-centos6/build/riscv64-unknown-elf-gcc/build-gcc-stage2/riscv64-unknown-elf/rv32imac/ilp32/libgcc/../../../../../riscv-gcc/libgcc/soft-fp/adddf3.c:44
2001365a:	00b877b3          	and	a5,a6,a1
2001365e:	0145d713          	srli	a4,a1,0x14
/home/scratch/jenkins/workspace/tpp-freedom-tools/tpp04--build-binary-packages--parameterized/obj/x86_64-linux-centos6/build/riscv64-unknown-elf-gcc/build-gcc-stage2/riscv64-unknown-elf/rv32imac/ilp32/libgcc/../../../../../riscv-gcc/libgcc/soft-fp/adddf3.c:45
20013662:	00d87833          	and	a6,a6,a3
20013666:	0146d313          	srli	t1,a3,0x14
/home/scratch/jenkins/workspace/tpp-freedom-tools/tpp04--build-binary-packages--parameterized/obj/x86_64-linux-centos6/build/riscv64-unknown-elf-gcc/build-gcc-stage2/riscv64-unknown-elf/rv32imac/ilp32/libgcc/../../../../../riscv-gcc/libgcc/soft-fp/adddf3.c:36
2001366a:	cc22                	sw	s0,24(sp)
/home/scratch/jenkins/workspace/tpp-freedom-tools/tpp04--build-binary-packages--parameterized/obj/x86_64-linux-centos6/build/riscv64-unknown-elf-gcc/build-gcc-stage2/riscv64-unknown-elf/rv32imac/ilp32/libgcc/../../../../../riscv-gcc/libgcc/soft-fp/adddf3.c:44
2001366c:	078e                	slli	a5,a5,0x3
2001366e:	7ff77413          	andi	s0,a4,2047
20013672:	01d55713          	srli	a4,a0,0x1d
/home/scratch/jenkins/workspace/tpp-freedom-tools/tpp04--build-binary-packages--parameterized/obj/x86_64-linux-centos6/build/riscv64-unknown-elf-gcc/build-gcc-stage2/riscv64-unknown-elf/rv32imac/ilp32/libgcc/../../../../../riscv-gcc/libgcc/soft-fp/adddf3.c:45
20013676:	080e                	slli	a6,a6,0x3
/home/scratch/jenkins/workspace/tpp-freedom-tools/tpp04--build-binary-packages--parameterized/obj/x86_64-linux-centos6/build/riscv64-unknown-elf-gcc/build-gcc-stage2/riscv64-unknown-elf/rv32imac/ilp32/libgcc/../../../../../riscv-gcc/libgcc/soft-fp/adddf3.c:36
20013678:	ca26                	sw	s1,20(sp)
/home/scratch/jenkins/workspace/tpp-freedom-tools/tpp04--build-binary-packages--parameterized/obj/x86_64-linux-centos6/build/riscv64-unknown-elf-gcc/build-gcc-stage2/riscv64-unknown-elf/rv32imac/ilp32/libgcc/../../../../../riscv-gcc/libgcc/soft-fp/adddf3.c:44
2001367a:	8fd9                	or	a5,a5,a4
2001367c:	01f5d493          	srli	s1,a1,0x1f
/home/scratch/jenkins/workspace/tpp-freedom-tools/tpp04--build-binary-packages--parameterized/obj/x86_64-linux-centos6/build/riscv64-unknown-elf-gcc/build-gcc-stage2/riscv64-unknown-elf/rv32imac/ilp32/libgcc/../../../../../riscv-gcc/libgcc/soft-fp/adddf3.c:45
20013680:	01d65713          	srli	a4,a2,0x1d
20013684:	7ff37313          	andi	t1,t1,2047
/home/scratch/jenkins/workspace/tpp-freedom-tools/tpp04--build-binary-packages--parameterized/obj/x86_64-linux-centos6/build/riscv64-unknown-elf-gcc/build-gcc-stage2/riscv64-unknown-elf/rv32imac/ilp32/libgcc/../../../../../riscv-gcc/libgcc/soft-fp/adddf3.c:36
20013688:	ce06                	sw	ra,28(sp)
2001368a:	c84a                	sw	s2,16(sp)
2001368c:	c64e                	sw	s3,12(sp)
/home/scratch/jenkins/workspace/tpp-freedom-tools/tpp04--build-binary-packages--parameterized/obj/x86_64-linux-centos6/build/riscv64-unknown-elf-gcc/build-gcc-stage2/riscv64-unknown-elf/rv32imac/ilp32/libgcc/../../../../../riscv-gcc/libgcc/soft-fp/adddf3.c:45
2001368e:	82fd                	srli	a3,a3,0x1f
20013690:	01076733          	or	a4,a4,a6
/home/scratch/jenkins/workspace/tpp-freedom-tools/tpp04--build-binary-packages--parameterized/obj/x86_64-linux-centos6/build/riscv64-unknown-elf-gcc/build-gcc-stage2/riscv64-unknown-elf/rv32imac/ilp32/libgcc/../../../../../riscv-gcc/libgcc/soft-fp/adddf3.c:44
20013694:	00351593          	slli	a1,a0,0x3
/home/scratch/jenkins/workspace/tpp-freedom-tools/tpp04--build-binary-packages--parameterized/obj/x86_64-linux-centos6/build/riscv64-unknown-elf-gcc/build-gcc-stage2/riscv64-unknown-elf/rv32imac/ilp32/libgcc/../../../../../riscv-gcc/libgcc/soft-fp/adddf3.c:45
20013698:	060e                	slli	a2,a2,0x3
/home/scratch/jenkins/workspace/tpp-freedom-tools/tpp04--build-binary-packages--parameterized/obj/x86_64-linux-centos6/build/riscv64-unknown-elf-gcc/build-gcc-stage2/riscv64-unknown-elf/rv32imac/ilp32/libgcc/../../../../../riscv-gcc/libgcc/soft-fp/adddf3.c:46
2001369a:	40640833          	sub	a6,s0,t1
2001369e:	22d49863          	bne	s1,a3,200138ce <__adddf3+0x27c>
/home/scratch/jenkins/workspace/tpp-freedom-tools/tpp04--build-binary-packages--parameterized/obj/x86_64-linux-centos6/build/riscv64-unknown-elf-gcc/build-gcc-stage2/riscv64-unknown-elf/rv32imac/ilp32/libgcc/../../../../../riscv-gcc/libgcc/soft-fp/adddf3.c:46 (discriminator 7)
200136a2:	0f005363          	blez	a6,20013788 <__adddf3+0x136>
/home/scratch/jenkins/workspace/tpp-freedom-tools/tpp04--build-binary-packages--parameterized/obj/x86_64-linux-centos6/build/riscv64-unknown-elf-gcc/build-gcc-stage2/riscv64-unknown-elf/rv32imac/ilp32/libgcc/../../../../../riscv-gcc/libgcc/soft-fp/adddf3.c:46 (discriminator 9)
200136a6:	02031863          	bnez	t1,200136d6 <__adddf3+0x84>
/home/scratch/jenkins/workspace/tpp-freedom-tools/tpp04--build-binary-packages--parameterized/obj/x86_64-linux-centos6/build/riscv64-unknown-elf-gcc/build-gcc-stage2/riscv64-unknown-elf/rv32imac/ilp32/libgcc/../../../../../riscv-gcc/libgcc/soft-fp/adddf3.c:46 (discriminator 11)
200136aa:	00c766b3          	or	a3,a4,a2
200136ae:	58068363          	beqz	a3,20013c34 <__adddf3+0x5e2>
/home/scratch/jenkins/workspace/tpp-freedom-tools/tpp04--build-binary-packages--parameterized/obj/x86_64-linux-centos6/build/riscv64-unknown-elf-gcc/build-gcc-stage2/riscv64-unknown-elf/rv32imac/ilp32/libgcc/../../../../../riscv-gcc/libgcc/soft-fp/adddf3.c:46 (discriminator 14)
200136b2:	fff80513          	addi	a0,a6,-1 # fffff <__heap_size+0xff7ff>
200136b6:	e909                	bnez	a0,200136c8 <__adddf3+0x76>
/home/scratch/jenkins/workspace/tpp-freedom-tools/tpp04--build-binary-packages--parameterized/obj/x86_64-linux-centos6/build/riscv64-unknown-elf-gcc/build-gcc-stage2/riscv64-unknown-elf/rv32imac/ilp32/libgcc/../../../../../riscv-gcc/libgcc/soft-fp/adddf3.c:46 (discriminator 23)
200136b8:	962e                	add	a2,a2,a1
200136ba:	00b63533          	sltu	a0,a2,a1
200136be:	97ba                	add	a5,a5,a4
200136c0:	97aa                	add	a5,a5,a0
200136c2:	85b2                	mv	a1,a2
/home/scratch/jenkins/workspace/tpp-freedom-tools/tpp04--build-binary-packages--parameterized/obj/x86_64-linux-centos6/build/riscv64-unknown-elf-gcc/build-gcc-stage2/riscv64-unknown-elf/rv32imac/ilp32/libgcc/../../../../../riscv-gcc/libgcc/soft-fp/adddf3.c:45 (discriminator 80)
200136c4:	4405                	li	s0,1
/home/scratch/jenkins/workspace/tpp-freedom-tools/tpp04--build-binary-packages--parameterized/obj/x86_64-linux-centos6/build/riscv64-unknown-elf-gcc/build-gcc-stage2/riscv64-unknown-elf/rv32imac/ilp32/libgcc/../../../../../riscv-gcc/libgcc/soft-fp/adddf3.c:46 (discriminator 80)
200136c6:	a8b9                	j	20013724 <__adddf3+0xd2>
/home/scratch/jenkins/workspace/tpp-freedom-tools/tpp04--build-binary-packages--parameterized/obj/x86_64-linux-centos6/build/riscv64-unknown-elf-gcc/build-gcc-stage2/riscv64-unknown-elf/rv32imac/ilp32/libgcc/../../../../../riscv-gcc/libgcc/soft-fp/adddf3.c:46 (discriminator 24)
200136c8:	7ff00693          	li	a3,2047
200136cc:	00d81d63          	bne	a6,a3,200136e6 <__adddf3+0x94>
/home/scratch/jenkins/workspace/tpp-freedom-tools/tpp04--build-binary-packages--parameterized/obj/x86_64-linux-centos6/build/riscv64-unknown-elf-gcc/build-gcc-stage2/riscv64-unknown-elf/rv32imac/ilp32/libgcc/../../../../../riscv-gcc/libgcc/soft-fp/adddf3.c:46
200136d0:	7ff00413          	li	s0,2047
200136d4:	a24d                	j	20013876 <__adddf3+0x224>
/home/scratch/jenkins/workspace/tpp-freedom-tools/tpp04--build-binary-packages--parameterized/obj/x86_64-linux-centos6/build/riscv64-unknown-elf-gcc/build-gcc-stage2/riscv64-unknown-elf/rv32imac/ilp32/libgcc/../../../../../riscv-gcc/libgcc/soft-fp/adddf3.c:46 (discriminator 12)
200136d6:	7ff00693          	li	a3,2047
200136da:	18d40e63          	beq	s0,a3,20013876 <__adddf3+0x224>
/home/scratch/jenkins/workspace/tpp-freedom-tools/tpp04--build-binary-packages--parameterized/obj/x86_64-linux-centos6/build/riscv64-unknown-elf-gcc/build-gcc-stage2/riscv64-unknown-elf/rv32imac/ilp32/libgcc/../../../../../riscv-gcc/libgcc/soft-fp/adddf3.c:46 (discriminator 38)
200136de:	008006b7          	lui	a3,0x800
200136e2:	8f55                	or	a4,a4,a3
200136e4:	8542                	mv	a0,a6
/home/scratch/jenkins/workspace/tpp-freedom-tools/tpp04--build-binary-packages--parameterized/obj/x86_64-linux-centos6/build/riscv64-unknown-elf-gcc/build-gcc-stage2/riscv64-unknown-elf/rv32imac/ilp32/libgcc/../../../../../riscv-gcc/libgcc/soft-fp/adddf3.c:46 (discriminator 47)
200136e6:	03800693          	li	a3,56
200136ea:	08a6cb63          	blt	a3,a0,20013780 <__adddf3+0x12e>
/home/scratch/jenkins/workspace/tpp-freedom-tools/tpp04--build-binary-packages--parameterized/obj/x86_64-linux-centos6/build/riscv64-unknown-elf-gcc/build-gcc-stage2/riscv64-unknown-elf/rv32imac/ilp32/libgcc/../../../../../riscv-gcc/libgcc/soft-fp/adddf3.c:46 (discriminator 48)
200136ee:	46fd                	li	a3,31
200136f0:	06a6c263          	blt	a3,a0,20013754 <__adddf3+0x102>
/home/scratch/jenkins/workspace/tpp-freedom-tools/tpp04--build-binary-packages--parameterized/obj/x86_64-linux-centos6/build/riscv64-unknown-elf-gcc/build-gcc-stage2/riscv64-unknown-elf/rv32imac/ilp32/libgcc/../../../../../riscv-gcc/libgcc/soft-fp/adddf3.c:46 (discriminator 50)
200136f4:	02000813          	li	a6,32
200136f8:	40a80833          	sub	a6,a6,a0
200136fc:	010716b3          	sll	a3,a4,a6
20013700:	00a658b3          	srl	a7,a2,a0
20013704:	01061633          	sll	a2,a2,a6
20013708:	0116e6b3          	or	a3,a3,a7
2001370c:	00c03633          	snez	a2,a2
20013710:	8e55                	or	a2,a2,a3
20013712:	00a75733          	srl	a4,a4,a0
/home/scratch/jenkins/workspace/tpp-freedom-tools/tpp04--build-binary-packages--parameterized/obj/x86_64-linux-centos6/build/riscv64-unknown-elf-gcc/build-gcc-stage2/riscv64-unknown-elf/rv32imac/ilp32/libgcc/../../../../../riscv-gcc/libgcc/soft-fp/adddf3.c:46 (discriminator 64)
20013716:	962e                	add	a2,a2,a1
20013718:	00b63533          	sltu	a0,a2,a1
2001371c:	973e                	add	a4,a4,a5
2001371e:	00a707b3          	add	a5,a4,a0
20013722:	85b2                	mv	a1,a2
/home/scratch/jenkins/workspace/tpp-freedom-tools/tpp04--build-binary-packages--parameterized/obj/x86_64-linux-centos6/build/riscv64-unknown-elf-gcc/build-gcc-stage2/riscv64-unknown-elf/rv32imac/ilp32/libgcc/../../../../../riscv-gcc/libgcc/soft-fp/adddf3.c:46 (discriminator 122)
20013724:	00800737          	lui	a4,0x800
20013728:	8f7d                	and	a4,a4,a5
2001372a:	14070663          	beqz	a4,20013876 <__adddf3+0x224>
/home/scratch/jenkins/workspace/tpp-freedom-tools/tpp04--build-binary-packages--parameterized/obj/x86_64-linux-centos6/build/riscv64-unknown-elf-gcc/build-gcc-stage2/riscv64-unknown-elf/rv32imac/ilp32/libgcc/../../../../../riscv-gcc/libgcc/soft-fp/adddf3.c:46 (discriminator 182)
2001372e:	0405                	addi	s0,s0,1
20013730:	7ff00713          	li	a4,2047
20013734:	48e40d63          	beq	s0,a4,20013bce <__adddf3+0x57c>
/home/scratch/jenkins/workspace/tpp-freedom-tools/tpp04--build-binary-packages--parameterized/obj/x86_64-linux-centos6/build/riscv64-unknown-elf-gcc/build-gcc-stage2/riscv64-unknown-elf/rv32imac/ilp32/libgcc/../../../../../riscv-gcc/libgcc/soft-fp/adddf3.c:46
20013738:	ff800737          	lui	a4,0xff800
2001373c:	177d                	addi	a4,a4,-1
2001373e:	8ff9                	and	a5,a5,a4
20013740:	0015f513          	andi	a0,a1,1
20013744:	0015d713          	srli	a4,a1,0x1
20013748:	8d59                	or	a0,a0,a4
2001374a:	01f79593          	slli	a1,a5,0x1f
2001374e:	8dc9                	or	a1,a1,a0
20013750:	8385                	srli	a5,a5,0x1
20013752:	a215                	j	20013876 <__adddf3+0x224>
/home/scratch/jenkins/workspace/tpp-freedom-tools/tpp04--build-binary-packages--parameterized/obj/x86_64-linux-centos6/build/riscv64-unknown-elf-gcc/build-gcc-stage2/riscv64-unknown-elf/rv32imac/ilp32/libgcc/../../../../../riscv-gcc/libgcc/soft-fp/adddf3.c:46 (discriminator 51)
20013754:	fe050693          	addi	a3,a0,-32
20013758:	02000893          	li	a7,32
2001375c:	00d756b3          	srl	a3,a4,a3
20013760:	4801                	li	a6,0
20013762:	01150863          	beq	a0,a7,20013772 <__adddf3+0x120>
/home/scratch/jenkins/workspace/tpp-freedom-tools/tpp04--build-binary-packages--parameterized/obj/x86_64-linux-centos6/build/riscv64-unknown-elf-gcc/build-gcc-stage2/riscv64-unknown-elf/rv32imac/ilp32/libgcc/../../../../../riscv-gcc/libgcc/soft-fp/adddf3.c:46 (discriminator 58)
20013766:	04000813          	li	a6,64
2001376a:	40a80533          	sub	a0,a6,a0
2001376e:	00a71833          	sll	a6,a4,a0
/home/scratch/jenkins/workspace/tpp-freedom-tools/tpp04--build-binary-packages--parameterized/obj/x86_64-linux-centos6/build/riscv64-unknown-elf-gcc/build-gcc-stage2/riscv64-unknown-elf/rv32imac/ilp32/libgcc/../../../../../riscv-gcc/libgcc/soft-fp/adddf3.c:46 (discriminator 61)
20013772:	00c86633          	or	a2,a6,a2
20013776:	00c03633          	snez	a2,a2
2001377a:	8e55                	or	a2,a2,a3
/home/scratch/jenkins/workspace/tpp-freedom-tools/tpp04--build-binary-packages--parameterized/obj/x86_64-linux-centos6/build/riscv64-unknown-elf-gcc/build-gcc-stage2/riscv64-unknown-elf/rv32imac/ilp32/libgcc/../../../../../riscv-gcc/libgcc/soft-fp/adddf3.c:46 (discriminator 49)
2001377c:	4701                	li	a4,0
2001377e:	bf61                	j	20013716 <__adddf3+0xc4>
20013780:	8e59                	or	a2,a2,a4
20013782:	00c03633          	snez	a2,a2
20013786:	bfdd                	j	2001377c <__adddf3+0x12a>
/home/scratch/jenkins/workspace/tpp-freedom-tools/tpp04--build-binary-packages--parameterized/obj/x86_64-linux-centos6/build/riscv64-unknown-elf-gcc/build-gcc-stage2/riscv64-unknown-elf/rv32imac/ilp32/libgcc/../../../../../riscv-gcc/libgcc/soft-fp/adddf3.c:46 (discriminator 10)
20013788:	0a080b63          	beqz	a6,2001383e <__adddf3+0x1ec>
/home/scratch/jenkins/workspace/tpp-freedom-tools/tpp04--build-binary-packages--parameterized/obj/x86_64-linux-centos6/build/riscv64-unknown-elf-gcc/build-gcc-stage2/riscv64-unknown-elf/rv32imac/ilp32/libgcc/../../../../../riscv-gcc/libgcc/soft-fp/adddf3.c:46 (discriminator 66)
2001378c:	40830533          	sub	a0,t1,s0
20013790:	e40d                	bnez	s0,200137ba <__adddf3+0x168>
/home/scratch/jenkins/workspace/tpp-freedom-tools/tpp04--build-binary-packages--parameterized/obj/x86_64-linux-centos6/build/riscv64-unknown-elf-gcc/build-gcc-stage2/riscv64-unknown-elf/rv32imac/ilp32/libgcc/../../../../../riscv-gcc/libgcc/soft-fp/adddf3.c:46 (discriminator 68)
20013792:	00b7e6b3          	or	a3,a5,a1
20013796:	42068363          	beqz	a3,20013bbc <__adddf3+0x56a>
/home/scratch/jenkins/workspace/tpp-freedom-tools/tpp04--build-binary-packages--parameterized/obj/x86_64-linux-centos6/build/riscv64-unknown-elf-gcc/build-gcc-stage2/riscv64-unknown-elf/rv32imac/ilp32/libgcc/../../../../../riscv-gcc/libgcc/soft-fp/adddf3.c:46 (discriminator 71)
2001379a:	fff50693          	addi	a3,a0,-1
2001379e:	e699                	bnez	a3,200137ac <__adddf3+0x15a>
/home/scratch/jenkins/workspace/tpp-freedom-tools/tpp04--build-binary-packages--parameterized/obj/x86_64-linux-centos6/build/riscv64-unknown-elf-gcc/build-gcc-stage2/riscv64-unknown-elf/rv32imac/ilp32/libgcc/../../../../../riscv-gcc/libgcc/soft-fp/adddf3.c:46 (discriminator 80)
200137a0:	95b2                	add	a1,a1,a2
200137a2:	97ba                	add	a5,a5,a4
200137a4:	00c5b633          	sltu	a2,a1,a2
200137a8:	97b2                	add	a5,a5,a2
200137aa:	bf29                	j	200136c4 <__adddf3+0x72>
/home/scratch/jenkins/workspace/tpp-freedom-tools/tpp04--build-binary-packages--parameterized/obj/x86_64-linux-centos6/build/riscv64-unknown-elf-gcc/build-gcc-stage2/riscv64-unknown-elf/rv32imac/ilp32/libgcc/../../../../../riscv-gcc/libgcc/soft-fp/adddf3.c:46 (discriminator 81)
200137ac:	7ff00813          	li	a6,2047
200137b0:	01051d63          	bne	a0,a6,200137ca <__adddf3+0x178>
/home/scratch/jenkins/workspace/tpp-freedom-tools/tpp04--build-binary-packages--parameterized/obj/x86_64-linux-centos6/build/riscv64-unknown-elf-gcc/build-gcc-stage2/riscv64-unknown-elf/rv32imac/ilp32/libgcc/../../../../../riscv-gcc/libgcc/soft-fp/adddf3.c:45
200137b4:	87ba                	mv	a5,a4
200137b6:	85b2                	mv	a1,a2
200137b8:	bf21                	j	200136d0 <__adddf3+0x7e>
/home/scratch/jenkins/workspace/tpp-freedom-tools/tpp04--build-binary-packages--parameterized/obj/x86_64-linux-centos6/build/riscv64-unknown-elf-gcc/build-gcc-stage2/riscv64-unknown-elf/rv32imac/ilp32/libgcc/../../../../../riscv-gcc/libgcc/soft-fp/adddf3.c:46 (discriminator 69)
200137ba:	7ff00693          	li	a3,2047
200137be:	fed30be3          	beq	t1,a3,200137b4 <__adddf3+0x162>
/home/scratch/jenkins/workspace/tpp-freedom-tools/tpp04--build-binary-packages--parameterized/obj/x86_64-linux-centos6/build/riscv64-unknown-elf-gcc/build-gcc-stage2/riscv64-unknown-elf/rv32imac/ilp32/libgcc/../../../../../riscv-gcc/libgcc/soft-fp/adddf3.c:46 (discriminator 95)
200137c2:	008006b7          	lui	a3,0x800
200137c6:	8fd5                	or	a5,a5,a3
200137c8:	86aa                	mv	a3,a0
/home/scratch/jenkins/workspace/tpp-freedom-tools/tpp04--build-binary-packages--parameterized/obj/x86_64-linux-centos6/build/riscv64-unknown-elf-gcc/build-gcc-stage2/riscv64-unknown-elf/rv32imac/ilp32/libgcc/../../../../../riscv-gcc/libgcc/soft-fp/adddf3.c:46 (discriminator 104)
200137ca:	03800513          	li	a0,56
200137ce:	06d54363          	blt	a0,a3,20013834 <__adddf3+0x1e2>
/home/scratch/jenkins/workspace/tpp-freedom-tools/tpp04--build-binary-packages--parameterized/obj/x86_64-linux-centos6/build/riscv64-unknown-elf-gcc/build-gcc-stage2/riscv64-unknown-elf/rv32imac/ilp32/libgcc/../../../../../riscv-gcc/libgcc/soft-fp/adddf3.c:46 (discriminator 105)
200137d2:	457d                	li	a0,31
200137d4:	02d54b63          	blt	a0,a3,2001380a <__adddf3+0x1b8>
/home/scratch/jenkins/workspace/tpp-freedom-tools/tpp04--build-binary-packages--parameterized/obj/x86_64-linux-centos6/build/riscv64-unknown-elf-gcc/build-gcc-stage2/riscv64-unknown-elf/rv32imac/ilp32/libgcc/../../../../../riscv-gcc/libgcc/soft-fp/adddf3.c:46 (discriminator 107)
200137d8:	02000813          	li	a6,32
200137dc:	40d80833          	sub	a6,a6,a3
200137e0:	01079533          	sll	a0,a5,a6
200137e4:	00d5d8b3          	srl	a7,a1,a3
200137e8:	010595b3          	sll	a1,a1,a6
200137ec:	01156533          	or	a0,a0,a7
200137f0:	00b035b3          	snez	a1,a1
200137f4:	8d4d                	or	a0,a0,a1
200137f6:	00d7d7b3          	srl	a5,a5,a3
/home/scratch/jenkins/workspace/tpp-freedom-tools/tpp04--build-binary-packages--parameterized/obj/x86_64-linux-centos6/build/riscv64-unknown-elf-gcc/build-gcc-stage2/riscv64-unknown-elf/rv32imac/ilp32/libgcc/../../../../../riscv-gcc/libgcc/soft-fp/adddf3.c:46 (discriminator 121)
200137fa:	00c505b3          	add	a1,a0,a2
200137fe:	97ba                	add	a5,a5,a4
20013800:	00c5b633          	sltu	a2,a1,a2
20013804:	97b2                	add	a5,a5,a2
/home/scratch/jenkins/workspace/tpp-freedom-tools/tpp04--build-binary-packages--parameterized/obj/x86_64-linux-centos6/build/riscv64-unknown-elf-gcc/build-gcc-stage2/riscv64-unknown-elf/rv32imac/ilp32/libgcc/../../../../../riscv-gcc/libgcc/soft-fp/adddf3.c:45 (discriminator 121)
20013806:	841a                	mv	s0,t1
20013808:	bf31                	j	20013724 <__adddf3+0xd2>
/home/scratch/jenkins/workspace/tpp-freedom-tools/tpp04--build-binary-packages--parameterized/obj/x86_64-linux-centos6/build/riscv64-unknown-elf-gcc/build-gcc-stage2/riscv64-unknown-elf/rv32imac/ilp32/libgcc/../../../../../riscv-gcc/libgcc/soft-fp/adddf3.c:46 (discriminator 108)
2001380a:	fe068513          	addi	a0,a3,-32 # 7fffe0 <__heap_size+0x7ff7e0>
2001380e:	02000893          	li	a7,32
20013812:	00a7d833          	srl	a6,a5,a0
20013816:	4501                	li	a0,0
20013818:	01168763          	beq	a3,a7,20013826 <__adddf3+0x1d4>
/home/scratch/jenkins/workspace/tpp-freedom-tools/tpp04--build-binary-packages--parameterized/obj/x86_64-linux-centos6/build/riscv64-unknown-elf-gcc/build-gcc-stage2/riscv64-unknown-elf/rv32imac/ilp32/libgcc/../../../../../riscv-gcc/libgcc/soft-fp/adddf3.c:46 (discriminator 115)
2001381c:	04000513          	li	a0,64
20013820:	8d15                	sub	a0,a0,a3
20013822:	00a79533          	sll	a0,a5,a0
/home/scratch/jenkins/workspace/tpp-freedom-tools/tpp04--build-binary-packages--parameterized/obj/x86_64-linux-centos6/build/riscv64-unknown-elf-gcc/build-gcc-stage2/riscv64-unknown-elf/rv32imac/ilp32/libgcc/../../../../../riscv-gcc/libgcc/soft-fp/adddf3.c:46 (discriminator 118)
20013826:	8d4d                	or	a0,a0,a1
20013828:	00a03533          	snez	a0,a0
2001382c:	00a86533          	or	a0,a6,a0
/home/scratch/jenkins/workspace/tpp-freedom-tools/tpp04--build-binary-packages--parameterized/obj/x86_64-linux-centos6/build/riscv64-unknown-elf-gcc/build-gcc-stage2/riscv64-unknown-elf/rv32imac/ilp32/libgcc/../../../../../riscv-gcc/libgcc/soft-fp/adddf3.c:46 (discriminator 106)
20013830:	4781                	li	a5,0
20013832:	b7e1                	j	200137fa <__adddf3+0x1a8>
20013834:	00b7e533          	or	a0,a5,a1
20013838:	00a03533          	snez	a0,a0
2001383c:	bfd5                	j	20013830 <__adddf3+0x1de>
/home/scratch/jenkins/workspace/tpp-freedom-tools/tpp04--build-binary-packages--parameterized/obj/x86_64-linux-centos6/build/riscv64-unknown-elf-gcc/build-gcc-stage2/riscv64-unknown-elf/rv32imac/ilp32/libgcc/../../../../../riscv-gcc/libgcc/soft-fp/adddf3.c:46 (discriminator 67)
2001383e:	00140693          	addi	a3,s0,1
20013842:	7fe6f513          	andi	a0,a3,2046
20013846:	e13d                	bnez	a0,200138ac <__adddf3+0x25a>
/home/scratch/jenkins/workspace/tpp-freedom-tools/tpp04--build-binary-packages--parameterized/obj/x86_64-linux-centos6/build/riscv64-unknown-elf-gcc/build-gcc-stage2/riscv64-unknown-elf/rv32imac/ilp32/libgcc/../../../../../riscv-gcc/libgcc/soft-fp/adddf3.c:46 (discriminator 123)
20013848:	00b7e6b3          	or	a3,a5,a1
2001384c:	e429                	bnez	s0,20013896 <__adddf3+0x244>
/home/scratch/jenkins/workspace/tpp-freedom-tools/tpp04--build-binary-packages--parameterized/obj/x86_64-linux-centos6/build/riscv64-unknown-elf-gcc/build-gcc-stage2/riscv64-unknown-elf/rv32imac/ilp32/libgcc/../../../../../riscv-gcc/libgcc/soft-fp/adddf3.c:46 (discriminator 125)
2001384e:	36068b63          	beqz	a3,20013bc4 <__adddf3+0x572>
/home/scratch/jenkins/workspace/tpp-freedom-tools/tpp04--build-binary-packages--parameterized/obj/x86_64-linux-centos6/build/riscv64-unknown-elf-gcc/build-gcc-stage2/riscv64-unknown-elf/rv32imac/ilp32/libgcc/../../../../../riscv-gcc/libgcc/soft-fp/adddf3.c:46 (discriminator 128)
20013852:	00c766b3          	or	a3,a4,a2
20013856:	c285                	beqz	a3,20013876 <__adddf3+0x224>
/home/scratch/jenkins/workspace/tpp-freedom-tools/tpp04--build-binary-packages--parameterized/obj/x86_64-linux-centos6/build/riscv64-unknown-elf-gcc/build-gcc-stage2/riscv64-unknown-elf/rv32imac/ilp32/libgcc/../../../../../riscv-gcc/libgcc/soft-fp/adddf3.c:46 (discriminator 134)
20013858:	962e                	add	a2,a2,a1
2001385a:	97ba                	add	a5,a5,a4
2001385c:	00b63533          	sltu	a0,a2,a1
20013860:	97aa                	add	a5,a5,a0
20013862:	00800737          	lui	a4,0x800
20013866:	8f7d                	and	a4,a4,a5
20013868:	85b2                	mv	a1,a2
2001386a:	c711                	beqz	a4,20013876 <__adddf3+0x224>
/home/scratch/jenkins/workspace/tpp-freedom-tools/tpp04--build-binary-packages--parameterized/obj/x86_64-linux-centos6/build/riscv64-unknown-elf-gcc/build-gcc-stage2/riscv64-unknown-elf/rv32imac/ilp32/libgcc/../../../../../riscv-gcc/libgcc/soft-fp/adddf3.c:46 (discriminator 136)
2001386c:	ff800737          	lui	a4,0xff800
20013870:	177d                	addi	a4,a4,-1
20013872:	8ff9                	and	a5,a5,a4
20013874:	4405                	li	s0,1
/home/scratch/jenkins/workspace/tpp-freedom-tools/tpp04--build-binary-packages--parameterized/obj/x86_64-linux-centos6/build/riscv64-unknown-elf-gcc/build-gcc-stage2/riscv64-unknown-elf/rv32imac/ilp32/libgcc/../../../../../riscv-gcc/libgcc/soft-fp/adddf3.c:47 (discriminator 421)
20013876:	0075f713          	andi	a4,a1,7
2001387a:	34070c63          	beqz	a4,20013bd2 <__adddf3+0x580>
/home/scratch/jenkins/workspace/tpp-freedom-tools/tpp04--build-binary-packages--parameterized/obj/x86_64-linux-centos6/build/riscv64-unknown-elf-gcc/build-gcc-stage2/riscv64-unknown-elf/rv32imac/ilp32/libgcc/../../../../../riscv-gcc/libgcc/soft-fp/adddf3.c:47 (discriminator 37)
2001387e:	00f5f713          	andi	a4,a1,15
20013882:	4691                	li	a3,4
20013884:	34d70763          	beq	a4,a3,20013bd2 <__adddf3+0x580>
/home/scratch/jenkins/workspace/tpp-freedom-tools/tpp04--build-binary-packages--parameterized/obj/x86_64-linux-centos6/build/riscv64-unknown-elf-gcc/build-gcc-stage2/riscv64-unknown-elf/rv32imac/ilp32/libgcc/../../../../../riscv-gcc/libgcc/soft-fp/adddf3.c:47 (discriminator 44)
20013888:	00458713          	addi	a4,a1,4
2001388c:	00b73533          	sltu	a0,a4,a1
20013890:	97aa                	add	a5,a5,a0
20013892:	85ba                	mv	a1,a4
20013894:	ae3d                	j	20013bd2 <__adddf3+0x580>
/home/scratch/jenkins/workspace/tpp-freedom-tools/tpp04--build-binary-packages--parameterized/obj/x86_64-linux-centos6/build/riscv64-unknown-elf-gcc/build-gcc-stage2/riscv64-unknown-elf/rv32imac/ilp32/libgcc/../../../../../riscv-gcc/libgcc/soft-fp/adddf3.c:46 (discriminator 153)
20013896:	de99                	beqz	a3,200137b4 <__adddf3+0x162>
/home/scratch/jenkins/workspace/tpp-freedom-tools/tpp04--build-binary-packages--parameterized/obj/x86_64-linux-centos6/build/riscv64-unknown-elf-gcc/build-gcc-stage2/riscv64-unknown-elf/rv32imac/ilp32/libgcc/../../../../../riscv-gcc/libgcc/soft-fp/adddf3.c:46 (discriminator 155)
20013898:	8e59                	or	a2,a2,a4
2001389a:	e2060be3          	beqz	a2,200136d0 <__adddf3+0x7e>
/home/scratch/jenkins/workspace/tpp-freedom-tools/tpp04--build-binary-packages--parameterized/obj/x86_64-linux-centos6/build/riscv64-unknown-elf-gcc/build-gcc-stage2/riscv64-unknown-elf/rv32imac/ilp32/libgcc/../../../../../riscv-gcc/libgcc/soft-fp/adddf3.c:46
2001389e:	4481                	li	s1,0
200138a0:	004007b7          	lui	a5,0x400
200138a4:	4581                	li	a1,0
200138a6:	7ff00413          	li	s0,2047
200138aa:	a625                	j	20013bd2 <__adddf3+0x580>
/home/scratch/jenkins/workspace/tpp-freedom-tools/tpp04--build-binary-packages--parameterized/obj/x86_64-linux-centos6/build/riscv64-unknown-elf-gcc/build-gcc-stage2/riscv64-unknown-elf/rv32imac/ilp32/libgcc/../../../../../riscv-gcc/libgcc/soft-fp/adddf3.c:46 (discriminator 124)
200138ac:	7ff00513          	li	a0,2047
200138b0:	30a68d63          	beq	a3,a0,20013bca <__adddf3+0x578>
/home/scratch/jenkins/workspace/tpp-freedom-tools/tpp04--build-binary-packages--parameterized/obj/x86_64-linux-centos6/build/riscv64-unknown-elf-gcc/build-gcc-stage2/riscv64-unknown-elf/rv32imac/ilp32/libgcc/../../../../../riscv-gcc/libgcc/soft-fp/adddf3.c:46
200138b4:	962e                	add	a2,a2,a1
200138b6:	00b63533          	sltu	a0,a2,a1
200138ba:	97ba                	add	a5,a5,a4
200138bc:	97aa                	add	a5,a5,a0
200138be:	01f79513          	slli	a0,a5,0x1f
200138c2:	8205                	srli	a2,a2,0x1
200138c4:	00c565b3          	or	a1,a0,a2
200138c8:	8385                	srli	a5,a5,0x1
200138ca:	8436                	mv	s0,a3
200138cc:	b76d                	j	20013876 <__adddf3+0x224>
/home/scratch/jenkins/workspace/tpp-freedom-tools/tpp04--build-binary-packages--parameterized/obj/x86_64-linux-centos6/build/riscv64-unknown-elf-gcc/build-gcc-stage2/riscv64-unknown-elf/rv32imac/ilp32/libgcc/../../../../../riscv-gcc/libgcc/soft-fp/adddf3.c:46 (discriminator 8)
200138ce:	0d005663          	blez	a6,2001399a <__adddf3+0x348>
/home/scratch/jenkins/workspace/tpp-freedom-tools/tpp04--build-binary-packages--parameterized/obj/x86_64-linux-centos6/build/riscv64-unknown-elf-gcc/build-gcc-stage2/riscv64-unknown-elf/rv32imac/ilp32/libgcc/../../../../../riscv-gcc/libgcc/soft-fp/adddf3.c:46 (discriminator 200)
200138d2:	08031163          	bnez	t1,20013954 <__adddf3+0x302>
/home/scratch/jenkins/workspace/tpp-freedom-tools/tpp04--build-binary-packages--parameterized/obj/x86_64-linux-centos6/build/riscv64-unknown-elf-gcc/build-gcc-stage2/riscv64-unknown-elf/rv32imac/ilp32/libgcc/../../../../../riscv-gcc/libgcc/soft-fp/adddf3.c:46 (discriminator 202)
200138d6:	00c766b3          	or	a3,a4,a2
200138da:	34068d63          	beqz	a3,20013c34 <__adddf3+0x5e2>
/home/scratch/jenkins/workspace/tpp-freedom-tools/tpp04--build-binary-packages--parameterized/obj/x86_64-linux-centos6/build/riscv64-unknown-elf-gcc/build-gcc-stage2/riscv64-unknown-elf/rv32imac/ilp32/libgcc/../../../../../riscv-gcc/libgcc/soft-fp/adddf3.c:46 (discriminator 205)
200138de:	fff80513          	addi	a0,a6,-1
200138e2:	e911                	bnez	a0,200138f6 <__adddf3+0x2a4>
/home/scratch/jenkins/workspace/tpp-freedom-tools/tpp04--build-binary-packages--parameterized/obj/x86_64-linux-centos6/build/riscv64-unknown-elf-gcc/build-gcc-stage2/riscv64-unknown-elf/rv32imac/ilp32/libgcc/../../../../../riscv-gcc/libgcc/soft-fp/adddf3.c:46 (discriminator 214)
200138e4:	40c58633          	sub	a2,a1,a2
200138e8:	00c5b533          	sltu	a0,a1,a2
200138ec:	8f99                	sub	a5,a5,a4
200138ee:	8f89                	sub	a5,a5,a0
200138f0:	85b2                	mv	a1,a2
/home/scratch/jenkins/workspace/tpp-freedom-tools/tpp04--build-binary-packages--parameterized/obj/x86_64-linux-centos6/build/riscv64-unknown-elf-gcc/build-gcc-stage2/riscv64-unknown-elf/rv32imac/ilp32/libgcc/../../../../../riscv-gcc/libgcc/soft-fp/adddf3.c:45 (discriminator 271)
200138f2:	4405                	li	s0,1
/home/scratch/jenkins/workspace/tpp-freedom-tools/tpp04--build-binary-packages--parameterized/obj/x86_64-linux-centos6/build/riscv64-unknown-elf-gcc/build-gcc-stage2/riscv64-unknown-elf/rv32imac/ilp32/libgcc/../../../../../riscv-gcc/libgcc/soft-fp/adddf3.c:46 (discriminator 271)
200138f4:	a0b1                	j	20013940 <__adddf3+0x2ee>
/home/scratch/jenkins/workspace/tpp-freedom-tools/tpp04--build-binary-packages--parameterized/obj/x86_64-linux-centos6/build/riscv64-unknown-elf-gcc/build-gcc-stage2/riscv64-unknown-elf/rv32imac/ilp32/libgcc/../../../../../riscv-gcc/libgcc/soft-fp/adddf3.c:46 (discriminator 215)
200138f6:	7ff00693          	li	a3,2047
200138fa:	dcd80be3          	beq	a6,a3,200136d0 <__adddf3+0x7e>
/home/scratch/jenkins/workspace/tpp-freedom-tools/tpp04--build-binary-packages--parameterized/obj/x86_64-linux-centos6/build/riscv64-unknown-elf-gcc/build-gcc-stage2/riscv64-unknown-elf/rv32imac/ilp32/libgcc/../../../../../riscv-gcc/libgcc/soft-fp/adddf3.c:46 (discriminator 238)
200138fe:	03800693          	li	a3,56
20013902:	08a6c863          	blt	a3,a0,20013992 <__adddf3+0x340>
/home/scratch/jenkins/workspace/tpp-freedom-tools/tpp04--build-binary-packages--parameterized/obj/x86_64-linux-centos6/build/riscv64-unknown-elf-gcc/build-gcc-stage2/riscv64-unknown-elf/rv32imac/ilp32/libgcc/../../../../../riscv-gcc/libgcc/soft-fp/adddf3.c:46 (discriminator 239)
20013906:	46fd                	li	a3,31
20013908:	04a6cf63          	blt	a3,a0,20013966 <__adddf3+0x314>
/home/scratch/jenkins/workspace/tpp-freedom-tools/tpp04--build-binary-packages--parameterized/obj/x86_64-linux-centos6/build/riscv64-unknown-elf-gcc/build-gcc-stage2/riscv64-unknown-elf/rv32imac/ilp32/libgcc/../../../../../riscv-gcc/libgcc/soft-fp/adddf3.c:46 (discriminator 241)
2001390c:	02000813          	li	a6,32
20013910:	40a80833          	sub	a6,a6,a0
20013914:	010716b3          	sll	a3,a4,a6
20013918:	00a658b3          	srl	a7,a2,a0
2001391c:	01061633          	sll	a2,a2,a6
20013920:	0116e6b3          	or	a3,a3,a7
20013924:	00c03633          	snez	a2,a2
20013928:	8e55                	or	a2,a2,a3
2001392a:	00a75733          	srl	a4,a4,a0
/home/scratch/jenkins/workspace/tpp-freedom-tools/tpp04--build-binary-packages--parameterized/obj/x86_64-linux-centos6/build/riscv64-unknown-elf-gcc/build-gcc-stage2/riscv64-unknown-elf/rv32imac/ilp32/libgcc/../../../../../riscv-gcc/libgcc/soft-fp/adddf3.c:46 (discriminator 255)
2001392e:	40c58633          	sub	a2,a1,a2
20013932:	00c5b533          	sltu	a0,a1,a2
20013936:	40e78733          	sub	a4,a5,a4
2001393a:	40a707b3          	sub	a5,a4,a0
2001393e:	85b2                	mv	a1,a2
/home/scratch/jenkins/workspace/tpp-freedom-tools/tpp04--build-binary-packages--parameterized/obj/x86_64-linux-centos6/build/riscv64-unknown-elf-gcc/build-gcc-stage2/riscv64-unknown-elf/rv32imac/ilp32/libgcc/../../../../../riscv-gcc/libgcc/soft-fp/adddf3.c:46 (discriminator 313)
20013940:	00800937          	lui	s2,0x800
20013944:	0127f733          	and	a4,a5,s2
20013948:	d71d                	beqz	a4,20013876 <__adddf3+0x224>
/home/scratch/jenkins/workspace/tpp-freedom-tools/tpp04--build-binary-packages--parameterized/obj/x86_64-linux-centos6/build/riscv64-unknown-elf-gcc/build-gcc-stage2/riscv64-unknown-elf/rv32imac/ilp32/libgcc/../../../../../riscv-gcc/libgcc/soft-fp/adddf3.c:46 (discriminator 373)
2001394a:	197d                	addi	s2,s2,-1
2001394c:	0127f933          	and	s2,a5,s2
20013950:	89ae                	mv	s3,a1
20013952:	aa5d                	j	20013b08 <__adddf3+0x4b6>
/home/scratch/jenkins/workspace/tpp-freedom-tools/tpp04--build-binary-packages--parameterized/obj/x86_64-linux-centos6/build/riscv64-unknown-elf-gcc/build-gcc-stage2/riscv64-unknown-elf/rv32imac/ilp32/libgcc/../../../../../riscv-gcc/libgcc/soft-fp/adddf3.c:46 (discriminator 203)
20013954:	7ff00693          	li	a3,2047
20013958:	f0d40fe3          	beq	s0,a3,20013876 <__adddf3+0x224>
/home/scratch/jenkins/workspace/tpp-freedom-tools/tpp04--build-binary-packages--parameterized/obj/x86_64-linux-centos6/build/riscv64-unknown-elf-gcc/build-gcc-stage2/riscv64-unknown-elf/rv32imac/ilp32/libgcc/../../../../../riscv-gcc/libgcc/soft-fp/adddf3.c:46 (discriminator 229)
2001395c:	008006b7          	lui	a3,0x800
20013960:	8f55                	or	a4,a4,a3
20013962:	8542                	mv	a0,a6
20013964:	bf69                	j	200138fe <__adddf3+0x2ac>
/home/scratch/jenkins/workspace/tpp-freedom-tools/tpp04--build-binary-packages--parameterized/obj/x86_64-linux-centos6/build/riscv64-unknown-elf-gcc/build-gcc-stage2/riscv64-unknown-elf/rv32imac/ilp32/libgcc/../../../../../riscv-gcc/libgcc/soft-fp/adddf3.c:46 (discriminator 242)
20013966:	fe050693          	addi	a3,a0,-32
2001396a:	02000893          	li	a7,32
2001396e:	00d756b3          	srl	a3,a4,a3
20013972:	4801                	li	a6,0
20013974:	01150863          	beq	a0,a7,20013984 <__adddf3+0x332>
/home/scratch/jenkins/workspace/tpp-freedom-tools/tpp04--build-binary-packages--parameterized/obj/x86_64-linux-centos6/build/riscv64-unknown-elf-gcc/build-gcc-stage2/riscv64-unknown-elf/rv32imac/ilp32/libgcc/../../../../../riscv-gcc/libgcc/soft-fp/adddf3.c:46 (discriminator 249)
20013978:	04000813          	li	a6,64
2001397c:	40a80533          	sub	a0,a6,a0
20013980:	00a71833          	sll	a6,a4,a0
/home/scratch/jenkins/workspace/tpp-freedom-tools/tpp04--build-binary-packages--parameterized/obj/x86_64-linux-centos6/build/riscv64-unknown-elf-gcc/build-gcc-stage2/riscv64-unknown-elf/rv32imac/ilp32/libgcc/../../../../../riscv-gcc/libgcc/soft-fp/adddf3.c:46 (discriminator 252)
20013984:	00c86633          	or	a2,a6,a2
20013988:	00c03633          	snez	a2,a2
2001398c:	8e55                	or	a2,a2,a3
/home/scratch/jenkins/workspace/tpp-freedom-tools/tpp04--build-binary-packages--parameterized/obj/x86_64-linux-centos6/build/riscv64-unknown-elf-gcc/build-gcc-stage2/riscv64-unknown-elf/rv32imac/ilp32/libgcc/../../../../../riscv-gcc/libgcc/soft-fp/adddf3.c:46 (discriminator 240)
2001398e:	4701                	li	a4,0
20013990:	bf79                	j	2001392e <__adddf3+0x2dc>
20013992:	8e59                	or	a2,a2,a4
20013994:	00c03633          	snez	a2,a2
20013998:	bfdd                	j	2001398e <__adddf3+0x33c>
/home/scratch/jenkins/workspace/tpp-freedom-tools/tpp04--build-binary-packages--parameterized/obj/x86_64-linux-centos6/build/riscv64-unknown-elf-gcc/build-gcc-stage2/riscv64-unknown-elf/rv32imac/ilp32/libgcc/../../../../../riscv-gcc/libgcc/soft-fp/adddf3.c:46 (discriminator 201)
2001399a:	0c080563          	beqz	a6,20013a64 <__adddf3+0x412>
/home/scratch/jenkins/workspace/tpp-freedom-tools/tpp04--build-binary-packages--parameterized/obj/x86_64-linux-centos6/build/riscv64-unknown-elf-gcc/build-gcc-stage2/riscv64-unknown-elf/rv32imac/ilp32/libgcc/../../../../../riscv-gcc/libgcc/soft-fp/adddf3.c:46 (discriminator 257)
2001399e:	40830533          	sub	a0,t1,s0
200139a2:	e81d                	bnez	s0,200139d8 <__adddf3+0x386>
/home/scratch/jenkins/workspace/tpp-freedom-tools/tpp04--build-binary-packages--parameterized/obj/x86_64-linux-centos6/build/riscv64-unknown-elf-gcc/build-gcc-stage2/riscv64-unknown-elf/rv32imac/ilp32/libgcc/../../../../../riscv-gcc/libgcc/soft-fp/adddf3.c:46 (discriminator 259)
200139a4:	00b7e833          	or	a6,a5,a1
200139a8:	28080863          	beqz	a6,20013c38 <__adddf3+0x5e6>
/home/scratch/jenkins/workspace/tpp-freedom-tools/tpp04--build-binary-packages--parameterized/obj/x86_64-linux-centos6/build/riscv64-unknown-elf-gcc/build-gcc-stage2/riscv64-unknown-elf/rv32imac/ilp32/libgcc/../../../../../riscv-gcc/libgcc/soft-fp/adddf3.c:46 (discriminator 262)
200139ac:	fff50813          	addi	a6,a0,-1
200139b0:	00081b63          	bnez	a6,200139c6 <__adddf3+0x374>
/home/scratch/jenkins/workspace/tpp-freedom-tools/tpp04--build-binary-packages--parameterized/obj/x86_64-linux-centos6/build/riscv64-unknown-elf-gcc/build-gcc-stage2/riscv64-unknown-elf/rv32imac/ilp32/libgcc/../../../../../riscv-gcc/libgcc/soft-fp/adddf3.c:46 (discriminator 271)
200139b4:	40b605b3          	sub	a1,a2,a1
200139b8:	40f707b3          	sub	a5,a4,a5
200139bc:	00b63633          	sltu	a2,a2,a1
200139c0:	8f91                	sub	a5,a5,a2
200139c2:	84b6                	mv	s1,a3
200139c4:	b73d                	j	200138f2 <__adddf3+0x2a0>
/home/scratch/jenkins/workspace/tpp-freedom-tools/tpp04--build-binary-packages--parameterized/obj/x86_64-linux-centos6/build/riscv64-unknown-elf-gcc/build-gcc-stage2/riscv64-unknown-elf/rv32imac/ilp32/libgcc/../../../../../riscv-gcc/libgcc/soft-fp/adddf3.c:46 (discriminator 272)
200139c6:	7ff00893          	li	a7,2047
200139ca:	03151063          	bne	a0,a7,200139ea <__adddf3+0x398>
/home/scratch/jenkins/workspace/tpp-freedom-tools/tpp04--build-binary-packages--parameterized/obj/x86_64-linux-centos6/build/riscv64-unknown-elf-gcc/build-gcc-stage2/riscv64-unknown-elf/rv32imac/ilp32/libgcc/../../../../../riscv-gcc/libgcc/soft-fp/adddf3.c:45
200139ce:	87ba                	mv	a5,a4
200139d0:	85b2                	mv	a1,a2
/home/scratch/jenkins/workspace/tpp-freedom-tools/tpp04--build-binary-packages--parameterized/obj/x86_64-linux-centos6/build/riscv64-unknown-elf-gcc/build-gcc-stage2/riscv64-unknown-elf/rv32imac/ilp32/libgcc/../../../../../riscv-gcc/libgcc/soft-fp/adddf3.c:46
200139d2:	7ff00413          	li	s0,2047
200139d6:	a07d                	j	20013a84 <__adddf3+0x432>
/home/scratch/jenkins/workspace/tpp-freedom-tools/tpp04--build-binary-packages--parameterized/obj/x86_64-linux-centos6/build/riscv64-unknown-elf-gcc/build-gcc-stage2/riscv64-unknown-elf/rv32imac/ilp32/libgcc/../../../../../riscv-gcc/libgcc/soft-fp/adddf3.c:46 (discriminator 260)
200139d8:	7ff00813          	li	a6,2047
200139dc:	ff0309e3          	beq	t1,a6,200139ce <__adddf3+0x37c>
/home/scratch/jenkins/workspace/tpp-freedom-tools/tpp04--build-binary-packages--parameterized/obj/x86_64-linux-centos6/build/riscv64-unknown-elf-gcc/build-gcc-stage2/riscv64-unknown-elf/rv32imac/ilp32/libgcc/../../../../../riscv-gcc/libgcc/soft-fp/adddf3.c:46 (discriminator 286)
200139e0:	00800837          	lui	a6,0x800
200139e4:	0107e7b3          	or	a5,a5,a6
200139e8:	882a                	mv	a6,a0
/home/scratch/jenkins/workspace/tpp-freedom-tools/tpp04--build-binary-packages--parameterized/obj/x86_64-linux-centos6/build/riscv64-unknown-elf-gcc/build-gcc-stage2/riscv64-unknown-elf/rv32imac/ilp32/libgcc/../../../../../riscv-gcc/libgcc/soft-fp/adddf3.c:46 (discriminator 295)
200139ea:	03800513          	li	a0,56
200139ee:	07054663          	blt	a0,a6,20013a5a <__adddf3+0x408>
/home/scratch/jenkins/workspace/tpp-freedom-tools/tpp04--build-binary-packages--parameterized/obj/x86_64-linux-centos6/build/riscv64-unknown-elf-gcc/build-gcc-stage2/riscv64-unknown-elf/rv32imac/ilp32/libgcc/../../../../../riscv-gcc/libgcc/soft-fp/adddf3.c:46 (discriminator 296)
200139f2:	457d                	li	a0,31
200139f4:	03054d63          	blt	a0,a6,20013a2e <__adddf3+0x3dc>
/home/scratch/jenkins/workspace/tpp-freedom-tools/tpp04--build-binary-packages--parameterized/obj/x86_64-linux-centos6/build/riscv64-unknown-elf-gcc/build-gcc-stage2/riscv64-unknown-elf/rv32imac/ilp32/libgcc/../../../../../riscv-gcc/libgcc/soft-fp/adddf3.c:46 (discriminator 298)
200139f8:	02000893          	li	a7,32
200139fc:	410888b3          	sub	a7,a7,a6
20013a00:	01179533          	sll	a0,a5,a7
20013a04:	0105de33          	srl	t3,a1,a6
20013a08:	011595b3          	sll	a1,a1,a7
20013a0c:	01c56533          	or	a0,a0,t3
20013a10:	00b035b3          	snez	a1,a1
20013a14:	8d4d                	or	a0,a0,a1
20013a16:	0107d7b3          	srl	a5,a5,a6
/home/scratch/jenkins/workspace/tpp-freedom-tools/tpp04--build-binary-packages--parameterized/obj/x86_64-linux-centos6/build/riscv64-unknown-elf-gcc/build-gcc-stage2/riscv64-unknown-elf/rv32imac/ilp32/libgcc/../../../../../riscv-gcc/libgcc/soft-fp/adddf3.c:46 (discriminator 312)
20013a1a:	40a605b3          	sub	a1,a2,a0
20013a1e:	40f707b3          	sub	a5,a4,a5
20013a22:	00b63633          	sltu	a2,a2,a1
20013a26:	8f91                	sub	a5,a5,a2
/home/scratch/jenkins/workspace/tpp-freedom-tools/tpp04--build-binary-packages--parameterized/obj/x86_64-linux-centos6/build/riscv64-unknown-elf-gcc/build-gcc-stage2/riscv64-unknown-elf/rv32imac/ilp32/libgcc/../../../../../riscv-gcc/libgcc/soft-fp/adddf3.c:45 (discriminator 312)
20013a28:	841a                	mv	s0,t1
20013a2a:	84b6                	mv	s1,a3
20013a2c:	bf11                	j	20013940 <__adddf3+0x2ee>
/home/scratch/jenkins/workspace/tpp-freedom-tools/tpp04--build-binary-packages--parameterized/obj/x86_64-linux-centos6/build/riscv64-unknown-elf-gcc/build-gcc-stage2/riscv64-unknown-elf/rv32imac/ilp32/libgcc/../../../../../riscv-gcc/libgcc/soft-fp/adddf3.c:46 (discriminator 299)
20013a2e:	fe080513          	addi	a0,a6,-32 # 7fffe0 <__heap_size+0x7ff7e0>
20013a32:	02000e13          	li	t3,32
20013a36:	00a7d8b3          	srl	a7,a5,a0
20013a3a:	4501                	li	a0,0
20013a3c:	01c80863          	beq	a6,t3,20013a4c <__adddf3+0x3fa>
/home/scratch/jenkins/workspace/tpp-freedom-tools/tpp04--build-binary-packages--parameterized/obj/x86_64-linux-centos6/build/riscv64-unknown-elf-gcc/build-gcc-stage2/riscv64-unknown-elf/rv32imac/ilp32/libgcc/../../../../../riscv-gcc/libgcc/soft-fp/adddf3.c:46 (discriminator 306)
20013a40:	04000513          	li	a0,64
20013a44:	41050533          	sub	a0,a0,a6
20013a48:	00a79533          	sll	a0,a5,a0
/home/scratch/jenkins/workspace/tpp-freedom-tools/tpp04--build-binary-packages--parameterized/obj/x86_64-linux-centos6/build/riscv64-unknown-elf-gcc/build-gcc-stage2/riscv64-unknown-elf/rv32imac/ilp32/libgcc/../../../../../riscv-gcc/libgcc/soft-fp/adddf3.c:46 (discriminator 309)
20013a4c:	8d4d                	or	a0,a0,a1
20013a4e:	00a03533          	snez	a0,a0
20013a52:	00a8e533          	or	a0,a7,a0
/home/scratch/jenkins/workspace/tpp-freedom-tools/tpp04--build-binary-packages--parameterized/obj/x86_64-linux-centos6/build/riscv64-unknown-elf-gcc/build-gcc-stage2/riscv64-unknown-elf/rv32imac/ilp32/libgcc/../../../../../riscv-gcc/libgcc/soft-fp/adddf3.c:46 (discriminator 297)
20013a56:	4781                	li	a5,0
20013a58:	b7c9                	j	20013a1a <__adddf3+0x3c8>
20013a5a:	00b7e533          	or	a0,a5,a1
20013a5e:	00a03533          	snez	a0,a0
20013a62:	bfd5                	j	20013a56 <__adddf3+0x404>
/home/scratch/jenkins/workspace/tpp-freedom-tools/tpp04--build-binary-packages--parameterized/obj/x86_64-linux-centos6/build/riscv64-unknown-elf-gcc/build-gcc-stage2/riscv64-unknown-elf/rv32imac/ilp32/libgcc/../../../../../riscv-gcc/libgcc/soft-fp/adddf3.c:46 (discriminator 258)
20013a64:	00140513          	addi	a0,s0,1
20013a68:	7fe57513          	andi	a0,a0,2046
20013a6c:	e925                	bnez	a0,20013adc <__adddf3+0x48a>
/home/scratch/jenkins/workspace/tpp-freedom-tools/tpp04--build-binary-packages--parameterized/obj/x86_64-linux-centos6/build/riscv64-unknown-elf-gcc/build-gcc-stage2/riscv64-unknown-elf/rv32imac/ilp32/libgcc/../../../../../riscv-gcc/libgcc/soft-fp/adddf3.c:46 (discriminator 314)
20013a6e:	00b7e833          	or	a6,a5,a1
20013a72:	00c76533          	or	a0,a4,a2
20013a76:	e821                	bnez	s0,20013ac6 <__adddf3+0x474>
/home/scratch/jenkins/workspace/tpp-freedom-tools/tpp04--build-binary-packages--parameterized/obj/x86_64-linux-centos6/build/riscv64-unknown-elf-gcc/build-gcc-stage2/riscv64-unknown-elf/rv32imac/ilp32/libgcc/../../../../../riscv-gcc/libgcc/soft-fp/adddf3.c:46 (discriminator 316)
20013a78:	00081863          	bnez	a6,20013a88 <__adddf3+0x436>
/home/scratch/jenkins/workspace/tpp-freedom-tools/tpp04--build-binary-packages--parameterized/obj/x86_64-linux-centos6/build/riscv64-unknown-elf-gcc/build-gcc-stage2/riscv64-unknown-elf/rv32imac/ilp32/libgcc/../../../../../riscv-gcc/libgcc/soft-fp/adddf3.c:46 (discriminator 318)
20013a7c:	1c050263          	beqz	a0,20013c40 <__adddf3+0x5ee>
/home/scratch/jenkins/workspace/tpp-freedom-tools/tpp04--build-binary-packages--parameterized/obj/x86_64-linux-centos6/build/riscv64-unknown-elf-gcc/build-gcc-stage2/riscv64-unknown-elf/rv32imac/ilp32/libgcc/../../../../../riscv-gcc/libgcc/soft-fp/adddf3.c:45
20013a80:	87ba                	mv	a5,a4
20013a82:	85b2                	mv	a1,a2
20013a84:	84b6                	mv	s1,a3
20013a86:	bbc5                	j	20013876 <__adddf3+0x224>
/home/scratch/jenkins/workspace/tpp-freedom-tools/tpp04--build-binary-packages--parameterized/obj/x86_64-linux-centos6/build/riscv64-unknown-elf-gcc/build-gcc-stage2/riscv64-unknown-elf/rv32imac/ilp32/libgcc/../../../../../riscv-gcc/libgcc/soft-fp/adddf3.c:46 (discriminator 319)
20013a88:	de0507e3          	beqz	a0,20013876 <__adddf3+0x224>
/home/scratch/jenkins/workspace/tpp-freedom-tools/tpp04--build-binary-packages--parameterized/obj/x86_64-linux-centos6/build/riscv64-unknown-elf-gcc/build-gcc-stage2/riscv64-unknown-elf/rv32imac/ilp32/libgcc/../../../../../riscv-gcc/libgcc/soft-fp/adddf3.c:46 (discriminator 326)
20013a8c:	40c58833          	sub	a6,a1,a2
20013a90:	0105b8b3          	sltu	a7,a1,a6
20013a94:	40e78533          	sub	a0,a5,a4
20013a98:	41150533          	sub	a0,a0,a7
20013a9c:	008008b7          	lui	a7,0x800
20013aa0:	011578b3          	and	a7,a0,a7
20013aa4:	00088a63          	beqz	a7,20013ab8 <__adddf3+0x466>
/home/scratch/jenkins/workspace/tpp-freedom-tools/tpp04--build-binary-packages--parameterized/obj/x86_64-linux-centos6/build/riscv64-unknown-elf-gcc/build-gcc-stage2/riscv64-unknown-elf/rv32imac/ilp32/libgcc/../../../../../riscv-gcc/libgcc/soft-fp/adddf3.c:46 (discriminator 328)
20013aa8:	40b605b3          	sub	a1,a2,a1
20013aac:	40f707b3          	sub	a5,a4,a5
20013ab0:	00b63633          	sltu	a2,a2,a1
20013ab4:	8f91                	sub	a5,a5,a2
20013ab6:	b7f9                	j	20013a84 <__adddf3+0x432>
/home/scratch/jenkins/workspace/tpp-freedom-tools/tpp04--build-binary-packages--parameterized/obj/x86_64-linux-centos6/build/riscv64-unknown-elf-gcc/build-gcc-stage2/riscv64-unknown-elf/rv32imac/ilp32/libgcc/../../../../../riscv-gcc/libgcc/soft-fp/adddf3.c:46 (discriminator 329)
20013ab8:	00a865b3          	or	a1,a6,a0
20013abc:	18058663          	beqz	a1,20013c48 <__adddf3+0x5f6>
/home/scratch/jenkins/workspace/tpp-freedom-tools/tpp04--build-binary-packages--parameterized/obj/x86_64-linux-centos6/build/riscv64-unknown-elf-gcc/build-gcc-stage2/riscv64-unknown-elf/rv32imac/ilp32/libgcc/../../../../../riscv-gcc/libgcc/soft-fp/adddf3.c:46
20013ac0:	87aa                	mv	a5,a0
20013ac2:	85c2                	mv	a1,a6
20013ac4:	bb4d                	j	20013876 <__adddf3+0x224>
/home/scratch/jenkins/workspace/tpp-freedom-tools/tpp04--build-binary-packages--parameterized/obj/x86_64-linux-centos6/build/riscv64-unknown-elf-gcc/build-gcc-stage2/riscv64-unknown-elf/rv32imac/ilp32/libgcc/../../../../../riscv-gcc/libgcc/soft-fp/adddf3.c:46 (discriminator 348)
20013ac6:	00081863          	bnez	a6,20013ad6 <__adddf3+0x484>
/home/scratch/jenkins/workspace/tpp-freedom-tools/tpp04--build-binary-packages--parameterized/obj/x86_64-linux-centos6/build/riscv64-unknown-elf-gcc/build-gcc-stage2/riscv64-unknown-elf/rv32imac/ilp32/libgcc/../../../../../riscv-gcc/libgcc/soft-fp/adddf3.c:46 (discriminator 349)
20013aca:	18050163          	beqz	a0,20013c4c <__adddf3+0x5fa>
/home/scratch/jenkins/workspace/tpp-freedom-tools/tpp04--build-binary-packages--parameterized/obj/x86_64-linux-centos6/build/riscv64-unknown-elf-gcc/build-gcc-stage2/riscv64-unknown-elf/rv32imac/ilp32/libgcc/../../../../../riscv-gcc/libgcc/soft-fp/adddf3.c:45
20013ace:	87ba                	mv	a5,a4
20013ad0:	85b2                	mv	a1,a2
/home/scratch/jenkins/workspace/tpp-freedom-tools/tpp04--build-binary-packages--parameterized/obj/x86_64-linux-centos6/build/riscv64-unknown-elf-gcc/build-gcc-stage2/riscv64-unknown-elf/rv32imac/ilp32/libgcc/../../../../../riscv-gcc/libgcc/soft-fp/adddf3.c:46
20013ad2:	84b6                	mv	s1,a3
20013ad4:	bef5                	j	200136d0 <__adddf3+0x7e>
/home/scratch/jenkins/workspace/tpp-freedom-tools/tpp04--build-binary-packages--parameterized/obj/x86_64-linux-centos6/build/riscv64-unknown-elf-gcc/build-gcc-stage2/riscv64-unknown-elf/rv32imac/ilp32/libgcc/../../../../../riscv-gcc/libgcc/soft-fp/adddf3.c:46 (discriminator 350)
20013ad6:	be050de3          	beqz	a0,200136d0 <__adddf3+0x7e>
20013ada:	b3d1                	j	2001389e <__adddf3+0x24c>
/home/scratch/jenkins/workspace/tpp-freedom-tools/tpp04--build-binary-packages--parameterized/obj/x86_64-linux-centos6/build/riscv64-unknown-elf-gcc/build-gcc-stage2/riscv64-unknown-elf/rv32imac/ilp32/libgcc/../../../../../riscv-gcc/libgcc/soft-fp/adddf3.c:46 (discriminator 315)
20013adc:	40c589b3          	sub	s3,a1,a2
20013ae0:	0135b533          	sltu	a0,a1,s3
20013ae4:	40e78933          	sub	s2,a5,a4
20013ae8:	40a90933          	sub	s2,s2,a0
20013aec:	00800537          	lui	a0,0x800
20013af0:	00a97533          	and	a0,s2,a0
20013af4:	c925                	beqz	a0,20013b64 <__adddf3+0x512>
/home/scratch/jenkins/workspace/tpp-freedom-tools/tpp04--build-binary-packages--parameterized/obj/x86_64-linux-centos6/build/riscv64-unknown-elf-gcc/build-gcc-stage2/riscv64-unknown-elf/rv32imac/ilp32/libgcc/../../../../../riscv-gcc/libgcc/soft-fp/adddf3.c:46 (discriminator 366)
20013af6:	40b609b3          	sub	s3,a2,a1
20013afa:	40f707b3          	sub	a5,a4,a5
20013afe:	01363633          	sltu	a2,a2,s3
20013b02:	40c78933          	sub	s2,a5,a2
20013b06:	84b6                	mv	s1,a3
/home/scratch/jenkins/workspace/tpp-freedom-tools/tpp04--build-binary-packages--parameterized/obj/x86_64-linux-centos6/build/riscv64-unknown-elf-gcc/build-gcc-stage2/riscv64-unknown-elf/rv32imac/ilp32/libgcc/../../../../../riscv-gcc/libgcc/soft-fp/adddf3.c:46 (discriminator 375)
20013b08:	06090463          	beqz	s2,20013b70 <__adddf3+0x51e>
/home/scratch/jenkins/workspace/tpp-freedom-tools/tpp04--build-binary-packages--parameterized/obj/x86_64-linux-centos6/build/riscv64-unknown-elf-gcc/build-gcc-stage2/riscv64-unknown-elf/rv32imac/ilp32/libgcc/../../../../../riscv-gcc/libgcc/soft-fp/adddf3.c:46 (discriminator 378)
20013b0c:	854a                	mv	a0,s2
20013b0e:	d66ff0ef          	jal	ra,20013074 <__clzsi2>
/home/scratch/jenkins/workspace/tpp-freedom-tools/tpp04--build-binary-packages--parameterized/obj/x86_64-linux-centos6/build/riscv64-unknown-elf-gcc/build-gcc-stage2/riscv64-unknown-elf/rv32imac/ilp32/libgcc/../../../../../riscv-gcc/libgcc/soft-fp/adddf3.c:46 (discriminator 392)
20013b12:	ff850713          	addi	a4,a0,-8 # 7ffff8 <__heap_size+0x7ff7f8>
20013b16:	47fd                	li	a5,31
20013b18:	06e7c263          	blt	a5,a4,20013b7c <__adddf3+0x52a>
/home/scratch/jenkins/workspace/tpp-freedom-tools/tpp04--build-binary-packages--parameterized/obj/x86_64-linux-centos6/build/riscv64-unknown-elf-gcc/build-gcc-stage2/riscv64-unknown-elf/rv32imac/ilp32/libgcc/../../../../../riscv-gcc/libgcc/soft-fp/adddf3.c:46 (discriminator 398)
20013b1c:	02000793          	li	a5,32
20013b20:	8f99                	sub	a5,a5,a4
20013b22:	00e91933          	sll	s2,s2,a4
20013b26:	00f9d7b3          	srl	a5,s3,a5
20013b2a:	0127e7b3          	or	a5,a5,s2
20013b2e:	00e995b3          	sll	a1,s3,a4
/home/scratch/jenkins/workspace/tpp-freedom-tools/tpp04--build-binary-packages--parameterized/obj/x86_64-linux-centos6/build/riscv64-unknown-elf-gcc/build-gcc-stage2/riscv64-unknown-elf/rv32imac/ilp32/libgcc/../../../../../riscv-gcc/libgcc/soft-fp/adddf3.c:46 (discriminator 402)
20013b32:	06874f63          	blt	a4,s0,20013bb0 <__adddf3+0x55e>
/home/scratch/jenkins/workspace/tpp-freedom-tools/tpp04--build-binary-packages--parameterized/obj/x86_64-linux-centos6/build/riscv64-unknown-elf-gcc/build-gcc-stage2/riscv64-unknown-elf/rv32imac/ilp32/libgcc/../../../../../riscv-gcc/libgcc/soft-fp/adddf3.c:46 (discriminator 403)
20013b36:	8f01                	sub	a4,a4,s0
20013b38:	00170693          	addi	a3,a4,1 # ff800001 <metal_segment_heap_target_end+0x7f7fe621>
20013b3c:	467d                	li	a2,31
20013b3e:	04d64563          	blt	a2,a3,20013b88 <__adddf3+0x536>
/home/scratch/jenkins/workspace/tpp-freedom-tools/tpp04--build-binary-packages--parameterized/obj/x86_64-linux-centos6/build/riscv64-unknown-elf-gcc/build-gcc-stage2/riscv64-unknown-elf/rv32imac/ilp32/libgcc/../../../../../riscv-gcc/libgcc/soft-fp/adddf3.c:46 (discriminator 405)
20013b42:	02000713          	li	a4,32
20013b46:	8f15                	sub	a4,a4,a3
20013b48:	00e79633          	sll	a2,a5,a4
20013b4c:	00d5d533          	srl	a0,a1,a3
20013b50:	00e595b3          	sll	a1,a1,a4
20013b54:	8e49                	or	a2,a2,a0
20013b56:	00b035b3          	snez	a1,a1
20013b5a:	8dd1                	or	a1,a1,a2
20013b5c:	00d7d7b3          	srl	a5,a5,a3
/home/scratch/jenkins/workspace/tpp-freedom-tools/tpp04--build-binary-packages--parameterized/obj/x86_64-linux-centos6/build/riscv64-unknown-elf-gcc/build-gcc-stage2/riscv64-unknown-elf/rv32imac/ilp32/libgcc/../../../../../riscv-gcc/libgcc/soft-fp/adddf3.c:46 (discriminator 417)
20013b60:	4401                	li	s0,0
20013b62:	bb11                	j	20013876 <__adddf3+0x224>
/home/scratch/jenkins/workspace/tpp-freedom-tools/tpp04--build-binary-packages--parameterized/obj/x86_64-linux-centos6/build/riscv64-unknown-elf-gcc/build-gcc-stage2/riscv64-unknown-elf/rv32imac/ilp32/libgcc/../../../../../riscv-gcc/libgcc/soft-fp/adddf3.c:46 (discriminator 367)
20013b64:	0129e5b3          	or	a1,s3,s2
20013b68:	f1c5                	bnez	a1,20013b08 <__adddf3+0x4b6>
20013b6a:	4781                	li	a5,0
/home/scratch/jenkins/workspace/tpp-freedom-tools/tpp04--build-binary-packages--parameterized/obj/x86_64-linux-centos6/build/riscv64-unknown-elf-gcc/build-gcc-stage2/riscv64-unknown-elf/rv32imac/ilp32/libgcc/../../../../../riscv-gcc/libgcc/soft-fp/adddf3.c:46
20013b6c:	4401                	li	s0,0
20013b6e:	a8d9                	j	20013c44 <__adddf3+0x5f2>
/home/scratch/jenkins/workspace/tpp-freedom-tools/tpp04--build-binary-packages--parameterized/obj/x86_64-linux-centos6/build/riscv64-unknown-elf-gcc/build-gcc-stage2/riscv64-unknown-elf/rv32imac/ilp32/libgcc/../../../../../riscv-gcc/libgcc/soft-fp/adddf3.c:46 (discriminator 385)
20013b70:	854e                	mv	a0,s3
20013b72:	d02ff0ef          	jal	ra,20013074 <__clzsi2>
20013b76:	02050513          	addi	a0,a0,32
20013b7a:	bf61                	j	20013b12 <__adddf3+0x4c0>
/home/scratch/jenkins/workspace/tpp-freedom-tools/tpp04--build-binary-packages--parameterized/obj/x86_64-linux-centos6/build/riscv64-unknown-elf-gcc/build-gcc-stage2/riscv64-unknown-elf/rv32imac/ilp32/libgcc/../../../../../riscv-gcc/libgcc/soft-fp/adddf3.c:46 (discriminator 394)
20013b7c:	fd850793          	addi	a5,a0,-40
20013b80:	00f997b3          	sll	a5,s3,a5
20013b84:	4581                	li	a1,0
20013b86:	b775                	j	20013b32 <__adddf3+0x4e0>
/home/scratch/jenkins/workspace/tpp-freedom-tools/tpp04--build-binary-packages--parameterized/obj/x86_64-linux-centos6/build/riscv64-unknown-elf-gcc/build-gcc-stage2/riscv64-unknown-elf/rv32imac/ilp32/libgcc/../../../../../riscv-gcc/libgcc/soft-fp/adddf3.c:46 (discriminator 406)
20013b88:	1705                	addi	a4,a4,-31
20013b8a:	02000613          	li	a2,32
20013b8e:	00e7d733          	srl	a4,a5,a4
20013b92:	4501                	li	a0,0
20013b94:	00c68763          	beq	a3,a2,20013ba2 <__adddf3+0x550>
/home/scratch/jenkins/workspace/tpp-freedom-tools/tpp04--build-binary-packages--parameterized/obj/x86_64-linux-centos6/build/riscv64-unknown-elf-gcc/build-gcc-stage2/riscv64-unknown-elf/rv32imac/ilp32/libgcc/../../../../../riscv-gcc/libgcc/soft-fp/adddf3.c:46 (discriminator 414)
20013b98:	04000513          	li	a0,64
20013b9c:	8d15                	sub	a0,a0,a3
20013b9e:	00a79533          	sll	a0,a5,a0
/home/scratch/jenkins/workspace/tpp-freedom-tools/tpp04--build-binary-packages--parameterized/obj/x86_64-linux-centos6/build/riscv64-unknown-elf-gcc/build-gcc-stage2/riscv64-unknown-elf/rv32imac/ilp32/libgcc/../../../../../riscv-gcc/libgcc/soft-fp/adddf3.c:46 (discriminator 417)
20013ba2:	8d4d                	or	a0,a0,a1
20013ba4:	00a03533          	snez	a0,a0
20013ba8:	00a765b3          	or	a1,a4,a0
20013bac:	4781                	li	a5,0
20013bae:	bf4d                	j	20013b60 <__adddf3+0x50e>
/home/scratch/jenkins/workspace/tpp-freedom-tools/tpp04--build-binary-packages--parameterized/obj/x86_64-linux-centos6/build/riscv64-unknown-elf-gcc/build-gcc-stage2/riscv64-unknown-elf/rv32imac/ilp32/libgcc/../../../../../riscv-gcc/libgcc/soft-fp/adddf3.c:46 (discriminator 404)
20013bb0:	8c19                	sub	s0,s0,a4
20013bb2:	ff800737          	lui	a4,0xff800
20013bb6:	177d                	addi	a4,a4,-1
20013bb8:	8ff9                	and	a5,a5,a4
20013bba:	b975                	j	20013876 <__adddf3+0x224>
/home/scratch/jenkins/workspace/tpp-freedom-tools/tpp04--build-binary-packages--parameterized/obj/x86_64-linux-centos6/build/riscv64-unknown-elf-gcc/build-gcc-stage2/riscv64-unknown-elf/rv32imac/ilp32/libgcc/../../../../../riscv-gcc/libgcc/soft-fp/adddf3.c:45
20013bbc:	87ba                	mv	a5,a4
20013bbe:	85b2                	mv	a1,a2
/home/scratch/jenkins/workspace/tpp-freedom-tools/tpp04--build-binary-packages--parameterized/obj/x86_64-linux-centos6/build/riscv64-unknown-elf-gcc/build-gcc-stage2/riscv64-unknown-elf/rv32imac/ilp32/libgcc/../../../../../riscv-gcc/libgcc/soft-fp/adddf3.c:46
20013bc0:	842a                	mv	s0,a0
20013bc2:	b955                	j	20013876 <__adddf3+0x224>
/home/scratch/jenkins/workspace/tpp-freedom-tools/tpp04--build-binary-packages--parameterized/obj/x86_64-linux-centos6/build/riscv64-unknown-elf-gcc/build-gcc-stage2/riscv64-unknown-elf/rv32imac/ilp32/libgcc/../../../../../riscv-gcc/libgcc/soft-fp/adddf3.c:45
20013bc4:	87ba                	mv	a5,a4
20013bc6:	85b2                	mv	a1,a2
20013bc8:	b17d                	j	20013876 <__adddf3+0x224>
20013bca:	7ff00413          	li	s0,2047
20013bce:	4781                	li	a5,0
20013bd0:	4581                	li	a1,0
/home/scratch/jenkins/workspace/tpp-freedom-tools/tpp04--build-binary-packages--parameterized/obj/x86_64-linux-centos6/build/riscv64-unknown-elf-gcc/build-gcc-stage2/riscv64-unknown-elf/rv32imac/ilp32/libgcc/../../../../../riscv-gcc/libgcc/soft-fp/adddf3.c:47 (discriminator 47)
20013bd2:	00800737          	lui	a4,0x800
20013bd6:	8f7d                	and	a4,a4,a5
20013bd8:	cb11                	beqz	a4,20013bec <__adddf3+0x59a>
/home/scratch/jenkins/workspace/tpp-freedom-tools/tpp04--build-binary-packages--parameterized/obj/x86_64-linux-centos6/build/riscv64-unknown-elf-gcc/build-gcc-stage2/riscv64-unknown-elf/rv32imac/ilp32/libgcc/../../../../../riscv-gcc/libgcc/soft-fp/adddf3.c:47 (discriminator 63)
20013bda:	0405                	addi	s0,s0,1
20013bdc:	7ff00713          	li	a4,2047
20013be0:	06e40b63          	beq	s0,a4,20013c56 <__adddf3+0x604>
/home/scratch/jenkins/workspace/tpp-freedom-tools/tpp04--build-binary-packages--parameterized/obj/x86_64-linux-centos6/build/riscv64-unknown-elf-gcc/build-gcc-stage2/riscv64-unknown-elf/rv32imac/ilp32/libgcc/../../../../../riscv-gcc/libgcc/soft-fp/adddf3.c:47
20013be4:	ff800737          	lui	a4,0xff800
20013be8:	177d                	addi	a4,a4,-1
20013bea:	8ff9                	and	a5,a5,a4
/home/scratch/jenkins/workspace/tpp-freedom-tools/tpp04--build-binary-packages--parameterized/obj/x86_64-linux-centos6/build/riscv64-unknown-elf-gcc/build-gcc-stage2/riscv64-unknown-elf/rv32imac/ilp32/libgcc/../../../../../riscv-gcc/libgcc/soft-fp/adddf3.c:47 (discriminator 79)
20013bec:	01d79713          	slli	a4,a5,0x1d
20013bf0:	0035d513          	srli	a0,a1,0x3
20013bf4:	8d59                	or	a0,a0,a4
20013bf6:	7ff00713          	li	a4,2047
20013bfa:	838d                	srli	a5,a5,0x3
20013bfc:	00e41963          	bne	s0,a4,20013c0e <__adddf3+0x5bc>
/home/scratch/jenkins/workspace/tpp-freedom-tools/tpp04--build-binary-packages--parameterized/obj/x86_64-linux-centos6/build/riscv64-unknown-elf-gcc/build-gcc-stage2/riscv64-unknown-elf/rv32imac/ilp32/libgcc/../../../../../riscv-gcc/libgcc/soft-fp/adddf3.c:47 (discriminator 80)
20013c00:	8d5d                	or	a0,a0,a5
20013c02:	4781                	li	a5,0
20013c04:	c509                	beqz	a0,20013c0e <__adddf3+0x5bc>
/home/scratch/jenkins/workspace/tpp-freedom-tools/tpp04--build-binary-packages--parameterized/obj/x86_64-linux-centos6/build/riscv64-unknown-elf-gcc/build-gcc-stage2/riscv64-unknown-elf/rv32imac/ilp32/libgcc/../../../../../riscv-gcc/libgcc/soft-fp/adddf3.c:47
20013c06:	000807b7          	lui	a5,0x80
20013c0a:	4501                	li	a0,0
20013c0c:	4481                	li	s1,0
/home/scratch/jenkins/workspace/tpp-freedom-tools/tpp04--build-binary-packages--parameterized/obj/x86_64-linux-centos6/build/riscv64-unknown-elf-gcc/build-gcc-stage2/riscv64-unknown-elf/rv32imac/ilp32/libgcc/../../../../../riscv-gcc/libgcc/soft-fp/adddf3.c:47 (discriminator 90)
20013c0e:	01441713          	slli	a4,s0,0x14
20013c12:	7ff006b7          	lui	a3,0x7ff00
20013c16:	07b2                	slli	a5,a5,0xc
/home/scratch/jenkins/workspace/tpp-freedom-tools/tpp04--build-binary-packages--parameterized/obj/x86_64-linux-centos6/build/riscv64-unknown-elf-gcc/build-gcc-stage2/riscv64-unknown-elf/rv32imac/ilp32/libgcc/../../../../../riscv-gcc/libgcc/soft-fp/adddf3.c:51 (discriminator 90)
20013c18:	40f2                	lw	ra,28(sp)
20013c1a:	4462                	lw	s0,24(sp)
/home/scratch/jenkins/workspace/tpp-freedom-tools/tpp04--build-binary-packages--parameterized/obj/x86_64-linux-centos6/build/riscv64-unknown-elf-gcc/build-gcc-stage2/riscv64-unknown-elf/rv32imac/ilp32/libgcc/../../../../../riscv-gcc/libgcc/soft-fp/adddf3.c:47 (discriminator 90)
20013c1c:	8f75                	and	a4,a4,a3
20013c1e:	83b1                	srli	a5,a5,0xc
20013c20:	04fe                	slli	s1,s1,0x1f
20013c22:	8fd9                	or	a5,a5,a4
20013c24:	0097e733          	or	a4,a5,s1
/home/scratch/jenkins/workspace/tpp-freedom-tools/tpp04--build-binary-packages--parameterized/obj/x86_64-linux-centos6/build/riscv64-unknown-elf-gcc/build-gcc-stage2/riscv64-unknown-elf/rv32imac/ilp32/libgcc/../../../../../riscv-gcc/libgcc/soft-fp/adddf3.c:51 (discriminator 90)
20013c28:	4942                	lw	s2,16(sp)
20013c2a:	44d2                	lw	s1,20(sp)
20013c2c:	49b2                	lw	s3,12(sp)
20013c2e:	85ba                	mv	a1,a4
20013c30:	6105                	addi	sp,sp,32
20013c32:	8082                	ret
20013c34:	8442                	mv	s0,a6
20013c36:	b181                	j	20013876 <__adddf3+0x224>
/home/scratch/jenkins/workspace/tpp-freedom-tools/tpp04--build-binary-packages--parameterized/obj/x86_64-linux-centos6/build/riscv64-unknown-elf-gcc/build-gcc-stage2/riscv64-unknown-elf/rv32imac/ilp32/libgcc/../../../../../riscv-gcc/libgcc/soft-fp/adddf3.c:45
20013c38:	87ba                	mv	a5,a4
20013c3a:	85b2                	mv	a1,a2
/home/scratch/jenkins/workspace/tpp-freedom-tools/tpp04--build-binary-packages--parameterized/obj/x86_64-linux-centos6/build/riscv64-unknown-elf-gcc/build-gcc-stage2/riscv64-unknown-elf/rv32imac/ilp32/libgcc/../../../../../riscv-gcc/libgcc/soft-fp/adddf3.c:46
20013c3c:	842a                	mv	s0,a0
20013c3e:	b599                	j	20013a84 <__adddf3+0x432>
20013c40:	4781                	li	a5,0
20013c42:	4581                	li	a1,0
20013c44:	4481                	li	s1,0
20013c46:	b771                	j	20013bd2 <__adddf3+0x580>
20013c48:	4781                	li	a5,0
20013c4a:	bfed                	j	20013c44 <__adddf3+0x5f2>
20013c4c:	4581                	li	a1,0
20013c4e:	4481                	li	s1,0
20013c50:	004007b7          	lui	a5,0x400
20013c54:	b989                	j	200138a6 <__adddf3+0x254>
20013c56:	4781                	li	a5,0
20013c58:	4581                	li	a1,0
20013c5a:	bf49                	j	20013bec <__adddf3+0x59a>

20013c5c <__divdf3>:
__divdf3():
/home/scratch/jenkins/workspace/tpp-freedom-tools/tpp04--build-binary-packages--parameterized/obj/x86_64-linux-centos6/build/riscv64-unknown-elf-gcc/build-gcc-stage2/riscv64-unknown-elf/rv32imac/ilp32/libgcc/../../../../../riscv-gcc/libgcc/soft-fp/divdf3.c:36
20013c5c:	7179                	addi	sp,sp,-48
20013c5e:	d04a                	sw	s2,32(sp)
/home/scratch/jenkins/workspace/tpp-freedom-tools/tpp04--build-binary-packages--parameterized/obj/x86_64-linux-centos6/build/riscv64-unknown-elf-gcc/build-gcc-stage2/riscv64-unknown-elf/rv32imac/ilp32/libgcc/../../../../../riscv-gcc/libgcc/soft-fp/divdf3.c:44
20013c60:	0145d913          	srli	s2,a1,0x14
/home/scratch/jenkins/workspace/tpp-freedom-tools/tpp04--build-binary-packages--parameterized/obj/x86_64-linux-centos6/build/riscv64-unknown-elf-gcc/build-gcc-stage2/riscv64-unknown-elf/rv32imac/ilp32/libgcc/../../../../../riscv-gcc/libgcc/soft-fp/divdf3.c:36
20013c64:	d226                	sw	s1,36(sp)
20013c66:	ce4e                	sw	s3,28(sp)
20013c68:	cc52                	sw	s4,24(sp)
20013c6a:	c85a                	sw	s6,16(sp)
20013c6c:	c462                	sw	s8,8(sp)
/home/scratch/jenkins/workspace/tpp-freedom-tools/tpp04--build-binary-packages--parameterized/obj/x86_64-linux-centos6/build/riscv64-unknown-elf-gcc/build-gcc-stage2/riscv64-unknown-elf/rv32imac/ilp32/libgcc/../../../../../riscv-gcc/libgcc/soft-fp/divdf3.c:44
20013c6e:	00c59493          	slli	s1,a1,0xc
/home/scratch/jenkins/workspace/tpp-freedom-tools/tpp04--build-binary-packages--parameterized/obj/x86_64-linux-centos6/build/riscv64-unknown-elf-gcc/build-gcc-stage2/riscv64-unknown-elf/rv32imac/ilp32/libgcc/../../../../../riscv-gcc/libgcc/soft-fp/divdf3.c:36
20013c72:	d606                	sw	ra,44(sp)
20013c74:	d422                	sw	s0,40(sp)
20013c76:	ca56                	sw	s5,20(sp)
20013c78:	c65e                	sw	s7,12(sp)
/home/scratch/jenkins/workspace/tpp-freedom-tools/tpp04--build-binary-packages--parameterized/obj/x86_64-linux-centos6/build/riscv64-unknown-elf-gcc/build-gcc-stage2/riscv64-unknown-elf/rv32imac/ilp32/libgcc/../../../../../riscv-gcc/libgcc/soft-fp/divdf3.c:44
20013c7a:	7ff97913          	andi	s2,s2,2047
/home/scratch/jenkins/workspace/tpp-freedom-tools/tpp04--build-binary-packages--parameterized/obj/x86_64-linux-centos6/build/riscv64-unknown-elf-gcc/build-gcc-stage2/riscv64-unknown-elf/rv32imac/ilp32/libgcc/../../../../../riscv-gcc/libgcc/soft-fp/divdf3.c:36
20013c7e:	8a2a                	mv	s4,a0
20013c80:	8b32                	mv	s6,a2
20013c82:	8c36                	mv	s8,a3
/home/scratch/jenkins/workspace/tpp-freedom-tools/tpp04--build-binary-packages--parameterized/obj/x86_64-linux-centos6/build/riscv64-unknown-elf-gcc/build-gcc-stage2/riscv64-unknown-elf/rv32imac/ilp32/libgcc/../../../../../riscv-gcc/libgcc/soft-fp/divdf3.c:44
20013c84:	80b1                	srli	s1,s1,0xc
20013c86:	01f5d993          	srli	s3,a1,0x1f
20013c8a:	08090463          	beqz	s2,20013d12 <__divdf3+0xb6>
20013c8e:	7ff00793          	li	a5,2047
20013c92:	0cf90a63          	beq	s2,a5,20013d66 <__divdf3+0x10a>
/home/scratch/jenkins/workspace/tpp-freedom-tools/tpp04--build-binary-packages--parameterized/obj/x86_64-linux-centos6/build/riscv64-unknown-elf-gcc/build-gcc-stage2/riscv64-unknown-elf/rv32imac/ilp32/libgcc/../../../../../riscv-gcc/libgcc/soft-fp/divdf3.c:44 (discriminator 1)
20013c96:	01d55a93          	srli	s5,a0,0x1d
20013c9a:	048e                	slli	s1,s1,0x3
20013c9c:	009ae4b3          	or	s1,s5,s1
20013ca0:	00800ab7          	lui	s5,0x800
20013ca4:	0154eab3          	or	s5,s1,s5
20013ca8:	00351413          	slli	s0,a0,0x3
20013cac:	c0190913          	addi	s2,s2,-1023 # 7ffc01 <__heap_size+0x7ff401>
/home/scratch/jenkins/workspace/tpp-freedom-tools/tpp04--build-binary-packages--parameterized/obj/x86_64-linux-centos6/build/riscv64-unknown-elf-gcc/build-gcc-stage2/riscv64-unknown-elf/rv32imac/ilp32/libgcc/../../../../../riscv-gcc/libgcc/soft-fp/divdf3.c:44 (discriminator 41)
20013cb0:	4b81                	li	s7,0
/home/scratch/jenkins/workspace/tpp-freedom-tools/tpp04--build-binary-packages--parameterized/obj/x86_64-linux-centos6/build/riscv64-unknown-elf-gcc/build-gcc-stage2/riscv64-unknown-elf/rv32imac/ilp32/libgcc/../../../../../riscv-gcc/libgcc/soft-fp/divdf3.c:45 (discriminator 8)
20013cb2:	00cc1513          	slli	a0,s8,0xc
20013cb6:	00c55493          	srli	s1,a0,0xc
20013cba:	014c5513          	srli	a0,s8,0x14
20013cbe:	7ff57593          	andi	a1,a0,2047
20013cc2:	01fc5c13          	srli	s8,s8,0x1f
20013cc6:	c1f9                	beqz	a1,20013d8c <__divdf3+0x130>
/home/scratch/jenkins/workspace/tpp-freedom-tools/tpp04--build-binary-packages--parameterized/obj/x86_64-linux-centos6/build/riscv64-unknown-elf-gcc/build-gcc-stage2/riscv64-unknown-elf/rv32imac/ilp32/libgcc/../../../../../riscv-gcc/libgcc/soft-fp/divdf3.c:45
20013cc8:	7ff00793          	li	a5,2047
20013ccc:	10f58b63          	beq	a1,a5,20013de2 <__divdf3+0x186>
/home/scratch/jenkins/workspace/tpp-freedom-tools/tpp04--build-binary-packages--parameterized/obj/x86_64-linux-centos6/build/riscv64-unknown-elf-gcc/build-gcc-stage2/riscv64-unknown-elf/rv32imac/ilp32/libgcc/../../../../../riscv-gcc/libgcc/soft-fp/divdf3.c:45 (discriminator 1)
20013cd0:	00349513          	slli	a0,s1,0x3
20013cd4:	01db5793          	srli	a5,s6,0x1d
20013cd8:	8d5d                	or	a0,a0,a5
20013cda:	008004b7          	lui	s1,0x800
20013cde:	8cc9                	or	s1,s1,a0
20013ce0:	003b1f93          	slli	t6,s6,0x3
20013ce4:	c0158513          	addi	a0,a1,-1023
/home/scratch/jenkins/workspace/tpp-freedom-tools/tpp04--build-binary-packages--parameterized/obj/x86_64-linux-centos6/build/riscv64-unknown-elf-gcc/build-gcc-stage2/riscv64-unknown-elf/rv32imac/ilp32/libgcc/../../../../../riscv-gcc/libgcc/soft-fp/divdf3.c:45 (discriminator 41)
20013ce8:	4781                	li	a5,0
/home/scratch/jenkins/workspace/tpp-freedom-tools/tpp04--build-binary-packages--parameterized/obj/x86_64-linux-centos6/build/riscv64-unknown-elf-gcc/build-gcc-stage2/riscv64-unknown-elf/rv32imac/ilp32/libgcc/../../../../../riscv-gcc/libgcc/soft-fp/divdf3.c:46 (discriminator 8)
20013cea:	002b9713          	slli	a4,s7,0x2
20013cee:	8f5d                	or	a4,a4,a5
20013cf0:	177d                	addi	a4,a4,-1
20013cf2:	4639                	li	a2,14
20013cf4:	0189c6b3          	xor	a3,s3,s8
20013cf8:	40a905b3          	sub	a1,s2,a0
20013cfc:	10e66563          	bltu	a2,a4,20013e06 <__divdf3+0x1aa>
20013d00:	ffffd617          	auipc	a2,0xffffd
20013d04:	8d860613          	addi	a2,a2,-1832 # 200105d8 <name+0xc>
20013d08:	070a                	slli	a4,a4,0x2
20013d0a:	9732                	add	a4,a4,a2
20013d0c:	4318                	lw	a4,0(a4)
20013d0e:	9732                	add	a4,a4,a2
20013d10:	8702                	jr	a4
/home/scratch/jenkins/workspace/tpp-freedom-tools/tpp04--build-binary-packages--parameterized/obj/x86_64-linux-centos6/build/riscv64-unknown-elf-gcc/build-gcc-stage2/riscv64-unknown-elf/rv32imac/ilp32/libgcc/../../../../../riscv-gcc/libgcc/soft-fp/divdf3.c:44 (discriminator 2)
20013d12:	00a4eab3          	or	s5,s1,a0
20013d16:	060a8263          	beqz	s5,20013d7a <__divdf3+0x11e>
/home/scratch/jenkins/workspace/tpp-freedom-tools/tpp04--build-binary-packages--parameterized/obj/x86_64-linux-centos6/build/riscv64-unknown-elf-gcc/build-gcc-stage2/riscv64-unknown-elf/rv32imac/ilp32/libgcc/../../../../../riscv-gcc/libgcc/soft-fp/divdf3.c:44 (discriminator 13)
20013d1a:	c89d                	beqz	s1,20013d50 <__divdf3+0xf4>
/home/scratch/jenkins/workspace/tpp-freedom-tools/tpp04--build-binary-packages--parameterized/obj/x86_64-linux-centos6/build/riscv64-unknown-elf-gcc/build-gcc-stage2/riscv64-unknown-elf/rv32imac/ilp32/libgcc/../../../../../riscv-gcc/libgcc/soft-fp/divdf3.c:44 (discriminator 17)
20013d1c:	8526                	mv	a0,s1
20013d1e:	b56ff0ef          	jal	ra,20013074 <__clzsi2>
/home/scratch/jenkins/workspace/tpp-freedom-tools/tpp04--build-binary-packages--parameterized/obj/x86_64-linux-centos6/build/riscv64-unknown-elf-gcc/build-gcc-stage2/riscv64-unknown-elf/rv32imac/ilp32/libgcc/../../../../../riscv-gcc/libgcc/soft-fp/divdf3.c:44 (discriminator 31)
20013d22:	ff550793          	addi	a5,a0,-11
20013d26:	4771                	li	a4,28
20013d28:	02f74963          	blt	a4,a5,20013d5a <__divdf3+0xfe>
/home/scratch/jenkins/workspace/tpp-freedom-tools/tpp04--build-binary-packages--parameterized/obj/x86_64-linux-centos6/build/riscv64-unknown-elf-gcc/build-gcc-stage2/riscv64-unknown-elf/rv32imac/ilp32/libgcc/../../../../../riscv-gcc/libgcc/soft-fp/divdf3.c:44 (discriminator 32)
20013d2c:	4af5                	li	s5,29
20013d2e:	ff850413          	addi	s0,a0,-8
20013d32:	40fa8ab3          	sub	s5,s5,a5
20013d36:	008494b3          	sll	s1,s1,s0
20013d3a:	015a5ab3          	srl	s5,s4,s5
20013d3e:	009aeab3          	or	s5,s5,s1
20013d42:	008a1433          	sll	s0,s4,s0
/home/scratch/jenkins/workspace/tpp-freedom-tools/tpp04--build-binary-packages--parameterized/obj/x86_64-linux-centos6/build/riscv64-unknown-elf-gcc/build-gcc-stage2/riscv64-unknown-elf/rv32imac/ilp32/libgcc/../../../../../riscv-gcc/libgcc/soft-fp/divdf3.c:44 (discriminator 41)
20013d46:	c0d00593          	li	a1,-1011
20013d4a:	40a58933          	sub	s2,a1,a0
20013d4e:	b78d                	j	20013cb0 <__divdf3+0x54>
/home/scratch/jenkins/workspace/tpp-freedom-tools/tpp04--build-binary-packages--parameterized/obj/x86_64-linux-centos6/build/riscv64-unknown-elf-gcc/build-gcc-stage2/riscv64-unknown-elf/rv32imac/ilp32/libgcc/../../../../../riscv-gcc/libgcc/soft-fp/divdf3.c:44 (discriminator 24)
20013d50:	b24ff0ef          	jal	ra,20013074 <__clzsi2>
20013d54:	02050513          	addi	a0,a0,32
20013d58:	b7e9                	j	20013d22 <__divdf3+0xc6>
/home/scratch/jenkins/workspace/tpp-freedom-tools/tpp04--build-binary-packages--parameterized/obj/x86_64-linux-centos6/build/riscv64-unknown-elf-gcc/build-gcc-stage2/riscv64-unknown-elf/rv32imac/ilp32/libgcc/../../../../../riscv-gcc/libgcc/soft-fp/divdf3.c:44 (discriminator 33)
20013d5a:	fd850493          	addi	s1,a0,-40
20013d5e:	009a1ab3          	sll	s5,s4,s1
20013d62:	4401                	li	s0,0
20013d64:	b7cd                	j	20013d46 <__divdf3+0xea>
/home/scratch/jenkins/workspace/tpp-freedom-tools/tpp04--build-binary-packages--parameterized/obj/x86_64-linux-centos6/build/riscv64-unknown-elf-gcc/build-gcc-stage2/riscv64-unknown-elf/rv32imac/ilp32/libgcc/../../../../../riscv-gcc/libgcc/soft-fp/divdf3.c:44 (discriminator 3)
20013d66:	00a4eab3          	or	s5,s1,a0
20013d6a:	000a8c63          	beqz	s5,20013d82 <__divdf3+0x126>
20013d6e:	842a                	mv	s0,a0
/home/scratch/jenkins/workspace/tpp-freedom-tools/tpp04--build-binary-packages--parameterized/obj/x86_64-linux-centos6/build/riscv64-unknown-elf-gcc/build-gcc-stage2/riscv64-unknown-elf/rv32imac/ilp32/libgcc/../../../../../riscv-gcc/libgcc/soft-fp/divdf3.c:44
20013d70:	8aa6                	mv	s5,s1
20013d72:	7ff00913          	li	s2,2047
20013d76:	4b8d                	li	s7,3
20013d78:	bf2d                	j	20013cb2 <__divdf3+0x56>
20013d7a:	4401                	li	s0,0
20013d7c:	4901                	li	s2,0
20013d7e:	4b85                	li	s7,1
20013d80:	bf0d                	j	20013cb2 <__divdf3+0x56>
20013d82:	4401                	li	s0,0
20013d84:	7ff00913          	li	s2,2047
20013d88:	4b89                	li	s7,2
20013d8a:	b725                	j	20013cb2 <__divdf3+0x56>
/home/scratch/jenkins/workspace/tpp-freedom-tools/tpp04--build-binary-packages--parameterized/obj/x86_64-linux-centos6/build/riscv64-unknown-elf-gcc/build-gcc-stage2/riscv64-unknown-elf/rv32imac/ilp32/libgcc/../../../../../riscv-gcc/libgcc/soft-fp/divdf3.c:45 (discriminator 2)
20013d8c:	0164efb3          	or	t6,s1,s6
20013d90:	060f8263          	beqz	t6,20013df4 <__divdf3+0x198>
/home/scratch/jenkins/workspace/tpp-freedom-tools/tpp04--build-binary-packages--parameterized/obj/x86_64-linux-centos6/build/riscv64-unknown-elf-gcc/build-gcc-stage2/riscv64-unknown-elf/rv32imac/ilp32/libgcc/../../../../../riscv-gcc/libgcc/soft-fp/divdf3.c:45 (discriminator 13)
20013d94:	c89d                	beqz	s1,20013dca <__divdf3+0x16e>
/home/scratch/jenkins/workspace/tpp-freedom-tools/tpp04--build-binary-packages--parameterized/obj/x86_64-linux-centos6/build/riscv64-unknown-elf-gcc/build-gcc-stage2/riscv64-unknown-elf/rv32imac/ilp32/libgcc/../../../../../riscv-gcc/libgcc/soft-fp/divdf3.c:45 (discriminator 17)
20013d96:	8526                	mv	a0,s1
20013d98:	adcff0ef          	jal	ra,20013074 <__clzsi2>
20013d9c:	85aa                	mv	a1,a0
/home/scratch/jenkins/workspace/tpp-freedom-tools/tpp04--build-binary-packages--parameterized/obj/x86_64-linux-centos6/build/riscv64-unknown-elf-gcc/build-gcc-stage2/riscv64-unknown-elf/rv32imac/ilp32/libgcc/../../../../../riscv-gcc/libgcc/soft-fp/divdf3.c:45 (discriminator 31)
20013d9e:	ff558793          	addi	a5,a1,-11
20013da2:	4771                	li	a4,28
20013da4:	02f74963          	blt	a4,a5,20013dd6 <__divdf3+0x17a>
/home/scratch/jenkins/workspace/tpp-freedom-tools/tpp04--build-binary-packages--parameterized/obj/x86_64-linux-centos6/build/riscv64-unknown-elf-gcc/build-gcc-stage2/riscv64-unknown-elf/rv32imac/ilp32/libgcc/../../../../../riscv-gcc/libgcc/soft-fp/divdf3.c:45 (discriminator 32)
20013da8:	46f5                	li	a3,29
20013daa:	ff858f93          	addi	t6,a1,-8
20013dae:	8e9d                	sub	a3,a3,a5
20013db0:	01f49533          	sll	a0,s1,t6
20013db4:	00db56b3          	srl	a3,s6,a3
20013db8:	00a6e4b3          	or	s1,a3,a0
20013dbc:	01fb1fb3          	sll	t6,s6,t6
/home/scratch/jenkins/workspace/tpp-freedom-tools/tpp04--build-binary-packages--parameterized/obj/x86_64-linux-centos6/build/riscv64-unknown-elf-gcc/build-gcc-stage2/riscv64-unknown-elf/rv32imac/ilp32/libgcc/../../../../../riscv-gcc/libgcc/soft-fp/divdf3.c:45 (discriminator 41)
20013dc0:	c0d00693          	li	a3,-1011
20013dc4:	40b68533          	sub	a0,a3,a1
20013dc8:	b705                	j	20013ce8 <__divdf3+0x8c>
/home/scratch/jenkins/workspace/tpp-freedom-tools/tpp04--build-binary-packages--parameterized/obj/x86_64-linux-centos6/build/riscv64-unknown-elf-gcc/build-gcc-stage2/riscv64-unknown-elf/rv32imac/ilp32/libgcc/../../../../../riscv-gcc/libgcc/soft-fp/divdf3.c:45 (discriminator 24)
20013dca:	855a                	mv	a0,s6
20013dcc:	aa8ff0ef          	jal	ra,20013074 <__clzsi2>
20013dd0:	02050593          	addi	a1,a0,32
20013dd4:	b7e9                	j	20013d9e <__divdf3+0x142>
/home/scratch/jenkins/workspace/tpp-freedom-tools/tpp04--build-binary-packages--parameterized/obj/x86_64-linux-centos6/build/riscv64-unknown-elf-gcc/build-gcc-stage2/riscv64-unknown-elf/rv32imac/ilp32/libgcc/../../../../../riscv-gcc/libgcc/soft-fp/divdf3.c:45 (discriminator 33)
20013dd6:	fd858513          	addi	a0,a1,-40
20013dda:	00ab14b3          	sll	s1,s6,a0
20013dde:	4f81                	li	t6,0
20013de0:	b7c5                	j	20013dc0 <__divdf3+0x164>
/home/scratch/jenkins/workspace/tpp-freedom-tools/tpp04--build-binary-packages--parameterized/obj/x86_64-linux-centos6/build/riscv64-unknown-elf-gcc/build-gcc-stage2/riscv64-unknown-elf/rv32imac/ilp32/libgcc/../../../../../riscv-gcc/libgcc/soft-fp/divdf3.c:45 (discriminator 3)
20013de2:	0164efb3          	or	t6,s1,s6
20013de6:	000f8b63          	beqz	t6,20013dfc <__divdf3+0x1a0>
/home/scratch/jenkins/workspace/tpp-freedom-tools/tpp04--build-binary-packages--parameterized/obj/x86_64-linux-centos6/build/riscv64-unknown-elf-gcc/build-gcc-stage2/riscv64-unknown-elf/rv32imac/ilp32/libgcc/../../../../../riscv-gcc/libgcc/soft-fp/divdf3.c:45
20013dea:	8fda                	mv	t6,s6
20013dec:	7ff00513          	li	a0,2047
20013df0:	478d                	li	a5,3
20013df2:	bde5                	j	20013cea <__divdf3+0x8e>
20013df4:	4481                	li	s1,0
20013df6:	4501                	li	a0,0
20013df8:	4785                	li	a5,1
20013dfa:	bdc5                	j	20013cea <__divdf3+0x8e>
20013dfc:	4481                	li	s1,0
20013dfe:	7ff00513          	li	a0,2047
20013e02:	4789                	li	a5,2
20013e04:	b5dd                	j	20013cea <__divdf3+0x8e>
/home/scratch/jenkins/workspace/tpp-freedom-tools/tpp04--build-binary-packages--parameterized/obj/x86_64-linux-centos6/build/riscv64-unknown-elf-gcc/build-gcc-stage2/riscv64-unknown-elf/rv32imac/ilp32/libgcc/../../../../../riscv-gcc/libgcc/soft-fp/divdf3.c:46 (discriminator 2)
20013e06:	0154e663          	bltu	s1,s5,20013e12 <__divdf3+0x1b6>
/home/scratch/jenkins/workspace/tpp-freedom-tools/tpp04--build-binary-packages--parameterized/obj/x86_64-linux-centos6/build/riscv64-unknown-elf-gcc/build-gcc-stage2/riscv64-unknown-elf/rv32imac/ilp32/libgcc/../../../../../riscv-gcc/libgcc/soft-fp/divdf3.c:46 (discriminator 11)
20013e0a:	2a9a9663          	bne	s5,s1,200140b6 <__divdf3+0x45a>
/home/scratch/jenkins/workspace/tpp-freedom-tools/tpp04--build-binary-packages--parameterized/obj/x86_64-linux-centos6/build/riscv64-unknown-elf-gcc/build-gcc-stage2/riscv64-unknown-elf/rv32imac/ilp32/libgcc/../../../../../riscv-gcc/libgcc/soft-fp/divdf3.c:46 (discriminator 12)
20013e0e:	2bf46463          	bltu	s0,t6,200140b6 <__divdf3+0x45a>
/home/scratch/jenkins/workspace/tpp-freedom-tools/tpp04--build-binary-packages--parameterized/obj/x86_64-linux-centos6/build/riscv64-unknown-elf-gcc/build-gcc-stage2/riscv64-unknown-elf/rv32imac/ilp32/libgcc/../../../../../riscv-gcc/libgcc/soft-fp/divdf3.c:46 (discriminator 14)
20013e12:	01fa9613          	slli	a2,s5,0x1f
20013e16:	00145713          	srli	a4,s0,0x1
20013e1a:	01f41793          	slli	a5,s0,0x1f
20013e1e:	001ada93          	srli	s5,s5,0x1
20013e22:	00e66433          	or	s0,a2,a4
/home/scratch/jenkins/workspace/tpp-freedom-tools/tpp04--build-binary-packages--parameterized/obj/x86_64-linux-centos6/build/riscv64-unknown-elf-gcc/build-gcc-stage2/riscv64-unknown-elf/rv32imac/ilp32/libgcc/../../../../../riscv-gcc/libgcc/soft-fp/divdf3.c:46 (discriminator 19)
20013e26:	00849513          	slli	a0,s1,0x8
20013e2a:	018fd893          	srli	a7,t6,0x18
20013e2e:	00a8e8b3          	or	a7,a7,a0
20013e32:	8141                	srli	a0,a0,0x10
20013e34:	02aade33          	divu	t3,s5,a0
20013e38:	01089e93          	slli	t4,a7,0x10
20013e3c:	010ede93          	srli	t4,t4,0x10
20013e40:	01045713          	srli	a4,s0,0x10
20013e44:	008f9313          	slli	t1,t6,0x8
20013e48:	02aafab3          	remu	s5,s5,a0
20013e4c:	8672                	mv	a2,t3
20013e4e:	03ce8833          	mul	a6,t4,t3
20013e52:	0ac2                	slli	s5,s5,0x10
20013e54:	01576733          	or	a4,a4,s5
20013e58:	01077c63          	bgeu	a4,a6,20013e70 <__divdf3+0x214>
/home/scratch/jenkins/workspace/tpp-freedom-tools/tpp04--build-binary-packages--parameterized/obj/x86_64-linux-centos6/build/riscv64-unknown-elf-gcc/build-gcc-stage2/riscv64-unknown-elf/rv32imac/ilp32/libgcc/../../../../../riscv-gcc/libgcc/soft-fp/divdf3.c:46 (discriminator 22)
20013e5c:	9746                	add	a4,a4,a7
20013e5e:	fffe0613          	addi	a2,t3,-1
20013e62:	01176763          	bltu	a4,a7,20013e70 <__divdf3+0x214>
/home/scratch/jenkins/workspace/tpp-freedom-tools/tpp04--build-binary-packages--parameterized/obj/x86_64-linux-centos6/build/riscv64-unknown-elf-gcc/build-gcc-stage2/riscv64-unknown-elf/rv32imac/ilp32/libgcc/../../../../../riscv-gcc/libgcc/soft-fp/divdf3.c:46 (discriminator 24)
20013e66:	01077563          	bgeu	a4,a6,20013e70 <__divdf3+0x214>
/home/scratch/jenkins/workspace/tpp-freedom-tools/tpp04--build-binary-packages--parameterized/obj/x86_64-linux-centos6/build/riscv64-unknown-elf-gcc/build-gcc-stage2/riscv64-unknown-elf/rv32imac/ilp32/libgcc/../../../../../riscv-gcc/libgcc/soft-fp/divdf3.c:46 (discriminator 26)
20013e6a:	ffee0613          	addi	a2,t3,-2
20013e6e:	9746                	add	a4,a4,a7
/home/scratch/jenkins/workspace/tpp-freedom-tools/tpp04--build-binary-packages--parameterized/obj/x86_64-linux-centos6/build/riscv64-unknown-elf-gcc/build-gcc-stage2/riscv64-unknown-elf/rv32imac/ilp32/libgcc/../../../../../riscv-gcc/libgcc/soft-fp/divdf3.c:46 (discriminator 28)
20013e70:	41070733          	sub	a4,a4,a6
20013e74:	02a75e33          	divu	t3,a4,a0
20013e78:	0442                	slli	s0,s0,0x10
20013e7a:	8041                	srli	s0,s0,0x10
20013e7c:	02a77733          	remu	a4,a4,a0
20013e80:	82f2                	mv	t0,t3
20013e82:	03ce8833          	mul	a6,t4,t3
20013e86:	0742                	slli	a4,a4,0x10
20013e88:	8f41                	or	a4,a4,s0
20013e8a:	01077c63          	bgeu	a4,a6,20013ea2 <__divdf3+0x246>
/home/scratch/jenkins/workspace/tpp-freedom-tools/tpp04--build-binary-packages--parameterized/obj/x86_64-linux-centos6/build/riscv64-unknown-elf-gcc/build-gcc-stage2/riscv64-unknown-elf/rv32imac/ilp32/libgcc/../../../../../riscv-gcc/libgcc/soft-fp/divdf3.c:46 (discriminator 29)
20013e8e:	9746                	add	a4,a4,a7
20013e90:	fffe0293          	addi	t0,t3,-1
20013e94:	01176763          	bltu	a4,a7,20013ea2 <__divdf3+0x246>
/home/scratch/jenkins/workspace/tpp-freedom-tools/tpp04--build-binary-packages--parameterized/obj/x86_64-linux-centos6/build/riscv64-unknown-elf-gcc/build-gcc-stage2/riscv64-unknown-elf/rv32imac/ilp32/libgcc/../../../../../riscv-gcc/libgcc/soft-fp/divdf3.c:46 (discriminator 31)
20013e98:	01077563          	bgeu	a4,a6,20013ea2 <__divdf3+0x246>
/home/scratch/jenkins/workspace/tpp-freedom-tools/tpp04--build-binary-packages--parameterized/obj/x86_64-linux-centos6/build/riscv64-unknown-elf-gcc/build-gcc-stage2/riscv64-unknown-elf/rv32imac/ilp32/libgcc/../../../../../riscv-gcc/libgcc/soft-fp/divdf3.c:46 (discriminator 33)
20013e9c:	ffee0293          	addi	t0,t3,-2
20013ea0:	9746                	add	a4,a4,a7
/home/scratch/jenkins/workspace/tpp-freedom-tools/tpp04--build-binary-packages--parameterized/obj/x86_64-linux-centos6/build/riscv64-unknown-elf-gcc/build-gcc-stage2/riscv64-unknown-elf/rv32imac/ilp32/libgcc/../../../../../riscv-gcc/libgcc/soft-fp/divdf3.c:46 (discriminator 35)
20013ea2:	41070433          	sub	s0,a4,a6
20013ea6:	0642                	slli	a2,a2,0x10
20013ea8:	6841                	lui	a6,0x10
20013eaa:	005662b3          	or	t0,a2,t0
20013eae:	fff80e13          	addi	t3,a6,-1 # ffff <__heap_size+0xf7ff>
20013eb2:	0102d613          	srli	a2,t0,0x10
20013eb6:	01c2f733          	and	a4,t0,t3
20013eba:	01035f13          	srli	t5,t1,0x10
20013ebe:	01c37e33          	and	t3,t1,t3
20013ec2:	02ee03b3          	mul	t2,t3,a4
20013ec6:	03c604b3          	mul	s1,a2,t3
20013eca:	02ef0733          	mul	a4,t5,a4
20013ece:	03e60fb3          	mul	t6,a2,t5
20013ed2:	00970633          	add	a2,a4,s1
20013ed6:	0103d713          	srli	a4,t2,0x10
20013eda:	9732                	add	a4,a4,a2
20013edc:	00977363          	bgeu	a4,s1,20013ee2 <__divdf3+0x286>
/home/scratch/jenkins/workspace/tpp-freedom-tools/tpp04--build-binary-packages--parameterized/obj/x86_64-linux-centos6/build/riscv64-unknown-elf-gcc/build-gcc-stage2/riscv64-unknown-elf/rv32imac/ilp32/libgcc/../../../../../riscv-gcc/libgcc/soft-fp/divdf3.c:46 (discriminator 36)
20013ee0:	9fc2                	add	t6,t6,a6
/home/scratch/jenkins/workspace/tpp-freedom-tools/tpp04--build-binary-packages--parameterized/obj/x86_64-linux-centos6/build/riscv64-unknown-elf-gcc/build-gcc-stage2/riscv64-unknown-elf/rv32imac/ilp32/libgcc/../../../../../riscv-gcc/libgcc/soft-fp/divdf3.c:46 (discriminator 38)
20013ee2:	01075613          	srli	a2,a4,0x10
20013ee6:	967e                	add	a2,a2,t6
20013ee8:	6fc1                	lui	t6,0x10
20013eea:	1ffd                	addi	t6,t6,-1
20013eec:	01f77833          	and	a6,a4,t6
20013ef0:	0842                	slli	a6,a6,0x10
20013ef2:	01f3f3b3          	and	t2,t2,t6
20013ef6:	981e                	add	a6,a6,t2
20013ef8:	00c46763          	bltu	s0,a2,20013f06 <__divdf3+0x2aa>
/home/scratch/jenkins/workspace/tpp-freedom-tools/tpp04--build-binary-packages--parameterized/obj/x86_64-linux-centos6/build/riscv64-unknown-elf-gcc/build-gcc-stage2/riscv64-unknown-elf/rv32imac/ilp32/libgcc/../../../../../riscv-gcc/libgcc/soft-fp/divdf3.c:46 (discriminator 40)
20013efc:	8496                	mv	s1,t0
20013efe:	02c41e63          	bne	s0,a2,20013f3a <__divdf3+0x2de>
/home/scratch/jenkins/workspace/tpp-freedom-tools/tpp04--build-binary-packages--parameterized/obj/x86_64-linux-centos6/build/riscv64-unknown-elf-gcc/build-gcc-stage2/riscv64-unknown-elf/rv32imac/ilp32/libgcc/../../../../../riscv-gcc/libgcc/soft-fp/divdf3.c:46 (discriminator 41)
20013f02:	0307fc63          	bgeu	a5,a6,20013f3a <__divdf3+0x2de>
/home/scratch/jenkins/workspace/tpp-freedom-tools/tpp04--build-binary-packages--parameterized/obj/x86_64-linux-centos6/build/riscv64-unknown-elf-gcc/build-gcc-stage2/riscv64-unknown-elf/rv32imac/ilp32/libgcc/../../../../../riscv-gcc/libgcc/soft-fp/divdf3.c:46 (discriminator 43)
20013f06:	979a                	add	a5,a5,t1
20013f08:	0067b733          	sltu	a4,a5,t1
20013f0c:	9746                	add	a4,a4,a7
20013f0e:	943a                	add	s0,s0,a4
20013f10:	fff28493          	addi	s1,t0,-1 # 20011aed <memset+0x8d>
20013f14:	0088e663          	bltu	a7,s0,20013f20 <__divdf3+0x2c4>
/home/scratch/jenkins/workspace/tpp-freedom-tools/tpp04--build-binary-packages--parameterized/obj/x86_64-linux-centos6/build/riscv64-unknown-elf-gcc/build-gcc-stage2/riscv64-unknown-elf/rv32imac/ilp32/libgcc/../../../../../riscv-gcc/libgcc/soft-fp/divdf3.c:46 (discriminator 46)
20013f18:	02889163          	bne	a7,s0,20013f3a <__divdf3+0x2de>
/home/scratch/jenkins/workspace/tpp-freedom-tools/tpp04--build-binary-packages--parameterized/obj/x86_64-linux-centos6/build/riscv64-unknown-elf-gcc/build-gcc-stage2/riscv64-unknown-elf/rv32imac/ilp32/libgcc/../../../../../riscv-gcc/libgcc/soft-fp/divdf3.c:46 (discriminator 47)
20013f1c:	0067ef63          	bltu	a5,t1,20013f3a <__divdf3+0x2de>
/home/scratch/jenkins/workspace/tpp-freedom-tools/tpp04--build-binary-packages--parameterized/obj/x86_64-linux-centos6/build/riscv64-unknown-elf-gcc/build-gcc-stage2/riscv64-unknown-elf/rv32imac/ilp32/libgcc/../../../../../riscv-gcc/libgcc/soft-fp/divdf3.c:46 (discriminator 49)
20013f20:	00c46663          	bltu	s0,a2,20013f2c <__divdf3+0x2d0>
/home/scratch/jenkins/workspace/tpp-freedom-tools/tpp04--build-binary-packages--parameterized/obj/x86_64-linux-centos6/build/riscv64-unknown-elf-gcc/build-gcc-stage2/riscv64-unknown-elf/rv32imac/ilp32/libgcc/../../../../../riscv-gcc/libgcc/soft-fp/divdf3.c:46 (discriminator 52)
20013f24:	00861b63          	bne	a2,s0,20013f3a <__divdf3+0x2de>
/home/scratch/jenkins/workspace/tpp-freedom-tools/tpp04--build-binary-packages--parameterized/obj/x86_64-linux-centos6/build/riscv64-unknown-elf-gcc/build-gcc-stage2/riscv64-unknown-elf/rv32imac/ilp32/libgcc/../../../../../riscv-gcc/libgcc/soft-fp/divdf3.c:46 (discriminator 53)
20013f28:	0107f963          	bgeu	a5,a6,20013f3a <__divdf3+0x2de>
/home/scratch/jenkins/workspace/tpp-freedom-tools/tpp04--build-binary-packages--parameterized/obj/x86_64-linux-centos6/build/riscv64-unknown-elf-gcc/build-gcc-stage2/riscv64-unknown-elf/rv32imac/ilp32/libgcc/../../../../../riscv-gcc/libgcc/soft-fp/divdf3.c:46 (discriminator 55)
20013f2c:	979a                	add	a5,a5,t1
20013f2e:	0067b733          	sltu	a4,a5,t1
20013f32:	9746                	add	a4,a4,a7
20013f34:	ffe28493          	addi	s1,t0,-2
20013f38:	943a                	add	s0,s0,a4
/home/scratch/jenkins/workspace/tpp-freedom-tools/tpp04--build-binary-packages--parameterized/obj/x86_64-linux-centos6/build/riscv64-unknown-elf-gcc/build-gcc-stage2/riscv64-unknown-elf/rv32imac/ilp32/libgcc/../../../../../riscv-gcc/libgcc/soft-fp/divdf3.c:46 (discriminator 57)
20013f3a:	41078833          	sub	a6,a5,a6
20013f3e:	8c11                	sub	s0,s0,a2
20013f40:	0107b7b3          	sltu	a5,a5,a6
20013f44:	8c1d                	sub	s0,s0,a5
20013f46:	5ffd                	li	t6,-1
20013f48:	0e888763          	beq	a7,s0,20014036 <__divdf3+0x3da>
/home/scratch/jenkins/workspace/tpp-freedom-tools/tpp04--build-binary-packages--parameterized/obj/x86_64-linux-centos6/build/riscv64-unknown-elf-gcc/build-gcc-stage2/riscv64-unknown-elf/rv32imac/ilp32/libgcc/../../../../../riscv-gcc/libgcc/soft-fp/divdf3.c:46 (discriminator 59)
20013f4c:	02a45fb3          	divu	t6,s0,a0
20013f50:	01085713          	srli	a4,a6,0x10
20013f54:	02a47433          	remu	s0,s0,a0
20013f58:	867e                	mv	a2,t6
20013f5a:	03fe87b3          	mul	a5,t4,t6
20013f5e:	0442                	slli	s0,s0,0x10
20013f60:	8c59                	or	s0,s0,a4
20013f62:	00f47c63          	bgeu	s0,a5,20013f7a <__divdf3+0x31e>
/home/scratch/jenkins/workspace/tpp-freedom-tools/tpp04--build-binary-packages--parameterized/obj/x86_64-linux-centos6/build/riscv64-unknown-elf-gcc/build-gcc-stage2/riscv64-unknown-elf/rv32imac/ilp32/libgcc/../../../../../riscv-gcc/libgcc/soft-fp/divdf3.c:46 (discriminator 61)
20013f66:	9446                	add	s0,s0,a7
20013f68:	ffff8613          	addi	a2,t6,-1 # ffff <__heap_size+0xf7ff>
20013f6c:	01146763          	bltu	s0,a7,20013f7a <__divdf3+0x31e>
/home/scratch/jenkins/workspace/tpp-freedom-tools/tpp04--build-binary-packages--parameterized/obj/x86_64-linux-centos6/build/riscv64-unknown-elf-gcc/build-gcc-stage2/riscv64-unknown-elf/rv32imac/ilp32/libgcc/../../../../../riscv-gcc/libgcc/soft-fp/divdf3.c:46 (discriminator 63)
20013f70:	00f47563          	bgeu	s0,a5,20013f7a <__divdf3+0x31e>
/home/scratch/jenkins/workspace/tpp-freedom-tools/tpp04--build-binary-packages--parameterized/obj/x86_64-linux-centos6/build/riscv64-unknown-elf-gcc/build-gcc-stage2/riscv64-unknown-elf/rv32imac/ilp32/libgcc/../../../../../riscv-gcc/libgcc/soft-fp/divdf3.c:46 (discriminator 65)
20013f74:	ffef8613          	addi	a2,t6,-2
20013f78:	9446                	add	s0,s0,a7
/home/scratch/jenkins/workspace/tpp-freedom-tools/tpp04--build-binary-packages--parameterized/obj/x86_64-linux-centos6/build/riscv64-unknown-elf-gcc/build-gcc-stage2/riscv64-unknown-elf/rv32imac/ilp32/libgcc/../../../../../riscv-gcc/libgcc/soft-fp/divdf3.c:46 (discriminator 67)
20013f7a:	8c1d                	sub	s0,s0,a5
20013f7c:	02a45733          	divu	a4,s0,a0
20013f80:	0842                	slli	a6,a6,0x10
20013f82:	01085813          	srli	a6,a6,0x10
20013f86:	02a47433          	remu	s0,s0,a0
20013f8a:	87ba                	mv	a5,a4
20013f8c:	02ee8eb3          	mul	t4,t4,a4
20013f90:	0442                	slli	s0,s0,0x10
20013f92:	00886433          	or	s0,a6,s0
20013f96:	01d47c63          	bgeu	s0,t4,20013fae <__divdf3+0x352>
/home/scratch/jenkins/workspace/tpp-freedom-tools/tpp04--build-binary-packages--parameterized/obj/x86_64-linux-centos6/build/riscv64-unknown-elf-gcc/build-gcc-stage2/riscv64-unknown-elf/rv32imac/ilp32/libgcc/../../../../../riscv-gcc/libgcc/soft-fp/divdf3.c:46 (discriminator 68)
20013f9a:	9446                	add	s0,s0,a7
20013f9c:	fff70793          	addi	a5,a4,-1 # ff7fffff <metal_segment_heap_target_end+0x7f7fe61f>
20013fa0:	01146763          	bltu	s0,a7,20013fae <__divdf3+0x352>
/home/scratch/jenkins/workspace/tpp-freedom-tools/tpp04--build-binary-packages--parameterized/obj/x86_64-linux-centos6/build/riscv64-unknown-elf-gcc/build-gcc-stage2/riscv64-unknown-elf/rv32imac/ilp32/libgcc/../../../../../riscv-gcc/libgcc/soft-fp/divdf3.c:46 (discriminator 70)
20013fa4:	01d47563          	bgeu	s0,t4,20013fae <__divdf3+0x352>
/home/scratch/jenkins/workspace/tpp-freedom-tools/tpp04--build-binary-packages--parameterized/obj/x86_64-linux-centos6/build/riscv64-unknown-elf-gcc/build-gcc-stage2/riscv64-unknown-elf/rv32imac/ilp32/libgcc/../../../../../riscv-gcc/libgcc/soft-fp/divdf3.c:46 (discriminator 72)
20013fa8:	ffe70793          	addi	a5,a4,-2
20013fac:	9446                	add	s0,s0,a7
/home/scratch/jenkins/workspace/tpp-freedom-tools/tpp04--build-binary-packages--parameterized/obj/x86_64-linux-centos6/build/riscv64-unknown-elf-gcc/build-gcc-stage2/riscv64-unknown-elf/rv32imac/ilp32/libgcc/../../../../../riscv-gcc/libgcc/soft-fp/divdf3.c:46 (discriminator 74)
20013fae:	0642                	slli	a2,a2,0x10
20013fb0:	8e5d                	or	a2,a2,a5
20013fb2:	01061793          	slli	a5,a2,0x10
20013fb6:	83c1                	srli	a5,a5,0x10
20013fb8:	01065713          	srli	a4,a2,0x10
20013fbc:	02ef0833          	mul	a6,t5,a4
20013fc0:	41d40433          	sub	s0,s0,t4
20013fc4:	02ff0f33          	mul	t5,t5,a5
20013fc8:	03c78eb3          	mul	t4,a5,t3
20013fcc:	03c70e33          	mul	t3,a4,t3
20013fd0:	010ed793          	srli	a5,t4,0x10
20013fd4:	9f72                	add	t5,t5,t3
20013fd6:	97fa                	add	a5,a5,t5
20013fd8:	01c7f463          	bgeu	a5,t3,20013fe0 <__divdf3+0x384>
/home/scratch/jenkins/workspace/tpp-freedom-tools/tpp04--build-binary-packages--parameterized/obj/x86_64-linux-centos6/build/riscv64-unknown-elf-gcc/build-gcc-stage2/riscv64-unknown-elf/rv32imac/ilp32/libgcc/../../../../../riscv-gcc/libgcc/soft-fp/divdf3.c:46 (discriminator 75)
20013fdc:	6741                	lui	a4,0x10
20013fde:	983a                	add	a6,a6,a4
/home/scratch/jenkins/workspace/tpp-freedom-tools/tpp04--build-binary-packages--parameterized/obj/x86_64-linux-centos6/build/riscv64-unknown-elf-gcc/build-gcc-stage2/riscv64-unknown-elf/rv32imac/ilp32/libgcc/../../../../../riscv-gcc/libgcc/soft-fp/divdf3.c:46 (discriminator 77)
20013fe0:	0107d713          	srli	a4,a5,0x10
20013fe4:	9742                	add	a4,a4,a6
20013fe6:	6841                	lui	a6,0x10
20013fe8:	187d                	addi	a6,a6,-1
20013fea:	0107f533          	and	a0,a5,a6
20013fee:	0542                	slli	a0,a0,0x10
20013ff0:	010efeb3          	and	t4,t4,a6
20013ff4:	9576                	add	a0,a0,t4
20013ff6:	00e46663          	bltu	s0,a4,20014002 <__divdf3+0x3a6>
/home/scratch/jenkins/workspace/tpp-freedom-tools/tpp04--build-binary-packages--parameterized/obj/x86_64-linux-centos6/build/riscv64-unknown-elf-gcc/build-gcc-stage2/riscv64-unknown-elf/rv32imac/ilp32/libgcc/../../../../../riscv-gcc/libgcc/soft-fp/divdf3.c:46 (discriminator 79)
20013ffa:	18e41f63          	bne	s0,a4,20014198 <__divdf3+0x53c>
/home/scratch/jenkins/workspace/tpp-freedom-tools/tpp04--build-binary-packages--parameterized/obj/x86_64-linux-centos6/build/riscv64-unknown-elf-gcc/build-gcc-stage2/riscv64-unknown-elf/rv32imac/ilp32/libgcc/../../../../../riscv-gcc/libgcc/soft-fp/divdf3.c:46 (discriminator 80)
20013ffe:	8fb2                	mv	t6,a2
20014000:	c91d                	beqz	a0,20014036 <__divdf3+0x3da>
/home/scratch/jenkins/workspace/tpp-freedom-tools/tpp04--build-binary-packages--parameterized/obj/x86_64-linux-centos6/build/riscv64-unknown-elf-gcc/build-gcc-stage2/riscv64-unknown-elf/rv32imac/ilp32/libgcc/../../../../../riscv-gcc/libgcc/soft-fp/divdf3.c:46 (discriminator 82)
20014002:	9446                	add	s0,s0,a7
20014004:	fff60f93          	addi	t6,a2,-1
20014008:	03146163          	bltu	s0,a7,2001402a <__divdf3+0x3ce>
/home/scratch/jenkins/workspace/tpp-freedom-tools/tpp04--build-binary-packages--parameterized/obj/x86_64-linux-centos6/build/riscv64-unknown-elf-gcc/build-gcc-stage2/riscv64-unknown-elf/rv32imac/ilp32/libgcc/../../../../../riscv-gcc/libgcc/soft-fp/divdf3.c:46 (discriminator 88)
2001400c:	00e46663          	bltu	s0,a4,20014018 <__divdf3+0x3bc>
/home/scratch/jenkins/workspace/tpp-freedom-tools/tpp04--build-binary-packages--parameterized/obj/x86_64-linux-centos6/build/riscv64-unknown-elf-gcc/build-gcc-stage2/riscv64-unknown-elf/rv32imac/ilp32/libgcc/../../../../../riscv-gcc/libgcc/soft-fp/divdf3.c:46 (discriminator 91)
20014010:	18e41363          	bne	s0,a4,20014196 <__divdf3+0x53a>
/home/scratch/jenkins/workspace/tpp-freedom-tools/tpp04--build-binary-packages--parameterized/obj/x86_64-linux-centos6/build/riscv64-unknown-elf-gcc/build-gcc-stage2/riscv64-unknown-elf/rv32imac/ilp32/libgcc/../../../../../riscv-gcc/libgcc/soft-fp/divdf3.c:46 (discriminator 92)
20014014:	00a37d63          	bgeu	t1,a0,2001402e <__divdf3+0x3d2>
/home/scratch/jenkins/workspace/tpp-freedom-tools/tpp04--build-binary-packages--parameterized/obj/x86_64-linux-centos6/build/riscv64-unknown-elf-gcc/build-gcc-stage2/riscv64-unknown-elf/rv32imac/ilp32/libgcc/../../../../../riscv-gcc/libgcc/soft-fp/divdf3.c:46 (discriminator 94)
20014018:	00131793          	slli	a5,t1,0x1
2001401c:	0067b333          	sltu	t1,a5,t1
20014020:	989a                	add	a7,a7,t1
20014022:	ffe60f93          	addi	t6,a2,-2
20014026:	9446                	add	s0,s0,a7
20014028:	833e                	mv	t1,a5
/home/scratch/jenkins/workspace/tpp-freedom-tools/tpp04--build-binary-packages--parameterized/obj/x86_64-linux-centos6/build/riscv64-unknown-elf-gcc/build-gcc-stage2/riscv64-unknown-elf/rv32imac/ilp32/libgcc/../../../../../riscv-gcc/libgcc/soft-fp/divdf3.c:46 (discriminator 96)
2001402a:	00e41463          	bne	s0,a4,20014032 <__divdf3+0x3d6>
/home/scratch/jenkins/workspace/tpp-freedom-tools/tpp04--build-binary-packages--parameterized/obj/x86_64-linux-centos6/build/riscv64-unknown-elf-gcc/build-gcc-stage2/riscv64-unknown-elf/rv32imac/ilp32/libgcc/../../../../../riscv-gcc/libgcc/soft-fp/divdf3.c:46 (discriminator 98)
2001402e:	00650463          	beq	a0,t1,20014036 <__divdf3+0x3da>
/home/scratch/jenkins/workspace/tpp-freedom-tools/tpp04--build-binary-packages--parameterized/obj/x86_64-linux-centos6/build/riscv64-unknown-elf-gcc/build-gcc-stage2/riscv64-unknown-elf/rv32imac/ilp32/libgcc/../../../../../riscv-gcc/libgcc/soft-fp/divdf3.c:46 (discriminator 99)
20014032:	001fef93          	ori	t6,t6,1
/home/scratch/jenkins/workspace/tpp-freedom-tools/tpp04--build-binary-packages--parameterized/obj/x86_64-linux-centos6/build/riscv64-unknown-elf-gcc/build-gcc-stage2/riscv64-unknown-elf/rv32imac/ilp32/libgcc/../../../../../riscv-gcc/libgcc/soft-fp/divdf3.c:47 (discriminator 2)
20014036:	3ff58793          	addi	a5,a1,1023
2001403a:	0af05b63          	blez	a5,200140f0 <__divdf3+0x494>
/home/scratch/jenkins/workspace/tpp-freedom-tools/tpp04--build-binary-packages--parameterized/obj/x86_64-linux-centos6/build/riscv64-unknown-elf-gcc/build-gcc-stage2/riscv64-unknown-elf/rv32imac/ilp32/libgcc/../../../../../riscv-gcc/libgcc/soft-fp/divdf3.c:47 (discriminator 6)
2001403e:	007ff713          	andi	a4,t6,7
20014042:	cf01                	beqz	a4,2001405a <__divdf3+0x3fe>
/home/scratch/jenkins/workspace/tpp-freedom-tools/tpp04--build-binary-packages--parameterized/obj/x86_64-linux-centos6/build/riscv64-unknown-elf-gcc/build-gcc-stage2/riscv64-unknown-elf/rv32imac/ilp32/libgcc/../../../../../riscv-gcc/libgcc/soft-fp/divdf3.c:47 (discriminator 8)
20014044:	00fff713          	andi	a4,t6,15
20014048:	4611                	li	a2,4
2001404a:	00c70863          	beq	a4,a2,2001405a <__divdf3+0x3fe>
/home/scratch/jenkins/workspace/tpp-freedom-tools/tpp04--build-binary-packages--parameterized/obj/x86_64-linux-centos6/build/riscv64-unknown-elf-gcc/build-gcc-stage2/riscv64-unknown-elf/rv32imac/ilp32/libgcc/../../../../../riscv-gcc/libgcc/soft-fp/divdf3.c:47 (discriminator 10)
2001404e:	004f8613          	addi	a2,t6,4
20014052:	01f63fb3          	sltu	t6,a2,t6
20014056:	94fe                	add	s1,s1,t6
20014058:	8fb2                	mv	t6,a2
/home/scratch/jenkins/workspace/tpp-freedom-tools/tpp04--build-binary-packages--parameterized/obj/x86_64-linux-centos6/build/riscv64-unknown-elf-gcc/build-gcc-stage2/riscv64-unknown-elf/rv32imac/ilp32/libgcc/../../../../../riscv-gcc/libgcc/soft-fp/divdf3.c:47 (discriminator 9)
2001405a:	01000737          	lui	a4,0x1000
2001405e:	8f65                	and	a4,a4,s1
20014060:	c719                	beqz	a4,2001406e <__divdf3+0x412>
/home/scratch/jenkins/workspace/tpp-freedom-tools/tpp04--build-binary-packages--parameterized/obj/x86_64-linux-centos6/build/riscv64-unknown-elf-gcc/build-gcc-stage2/riscv64-unknown-elf/rv32imac/ilp32/libgcc/../../../../../riscv-gcc/libgcc/soft-fp/divdf3.c:47 (discriminator 24)
20014062:	ff0007b7          	lui	a5,0xff000
20014066:	17fd                	addi	a5,a5,-1
20014068:	8cfd                	and	s1,s1,a5
2001406a:	40058793          	addi	a5,a1,1024
/home/scratch/jenkins/workspace/tpp-freedom-tools/tpp04--build-binary-packages--parameterized/obj/x86_64-linux-centos6/build/riscv64-unknown-elf-gcc/build-gcc-stage2/riscv64-unknown-elf/rv32imac/ilp32/libgcc/../../../../../riscv-gcc/libgcc/soft-fp/divdf3.c:47 (discriminator 26)
2001406e:	7fe00713          	li	a4,2046
20014072:	06f74263          	blt	a4,a5,200140d6 <__divdf3+0x47a>
/home/scratch/jenkins/workspace/tpp-freedom-tools/tpp04--build-binary-packages--parameterized/obj/x86_64-linux-centos6/build/riscv64-unknown-elf-gcc/build-gcc-stage2/riscv64-unknown-elf/rv32imac/ilp32/libgcc/../../../../../riscv-gcc/libgcc/soft-fp/divdf3.c:47
20014076:	003fdf93          	srli	t6,t6,0x3
2001407a:	01d49713          	slli	a4,s1,0x1d
2001407e:	01f76733          	or	a4,a4,t6
20014082:	0034d513          	srli	a0,s1,0x3
/home/scratch/jenkins/workspace/tpp-freedom-tools/tpp04--build-binary-packages--parameterized/obj/x86_64-linux-centos6/build/riscv64-unknown-elf-gcc/build-gcc-stage2/riscv64-unknown-elf/rv32imac/ilp32/libgcc/../../../../../riscv-gcc/libgcc/soft-fp/divdf3.c:47 (discriminator 119)
20014086:	07d2                	slli	a5,a5,0x14
20014088:	7ff00637          	lui	a2,0x7ff00
2001408c:	0532                	slli	a0,a0,0xc
/home/scratch/jenkins/workspace/tpp-freedom-tools/tpp04--build-binary-packages--parameterized/obj/x86_64-linux-centos6/build/riscv64-unknown-elf-gcc/build-gcc-stage2/riscv64-unknown-elf/rv32imac/ilp32/libgcc/../../../../../riscv-gcc/libgcc/soft-fp/divdf3.c:51 (discriminator 119)
2001408e:	50b2                	lw	ra,44(sp)
20014090:	5422                	lw	s0,40(sp)
/home/scratch/jenkins/workspace/tpp-freedom-tools/tpp04--build-binary-packages--parameterized/obj/x86_64-linux-centos6/build/riscv64-unknown-elf-gcc/build-gcc-stage2/riscv64-unknown-elf/rv32imac/ilp32/libgcc/../../../../../riscv-gcc/libgcc/soft-fp/divdf3.c:47 (discriminator 119)
20014092:	8ff1                	and	a5,a5,a2
20014094:	8131                	srli	a0,a0,0xc
20014096:	8d5d                	or	a0,a0,a5
20014098:	06fe                	slli	a3,a3,0x1f
2001409a:	00d567b3          	or	a5,a0,a3
/home/scratch/jenkins/workspace/tpp-freedom-tools/tpp04--build-binary-packages--parameterized/obj/x86_64-linux-centos6/build/riscv64-unknown-elf-gcc/build-gcc-stage2/riscv64-unknown-elf/rv32imac/ilp32/libgcc/../../../../../riscv-gcc/libgcc/soft-fp/divdf3.c:51 (discriminator 119)
2001409e:	5492                	lw	s1,36(sp)
200140a0:	5902                	lw	s2,32(sp)
200140a2:	49f2                	lw	s3,28(sp)
200140a4:	4a62                	lw	s4,24(sp)
200140a6:	4ad2                	lw	s5,20(sp)
200140a8:	4b42                	lw	s6,16(sp)
200140aa:	4bb2                	lw	s7,12(sp)
200140ac:	4c22                	lw	s8,8(sp)
200140ae:	853a                	mv	a0,a4
200140b0:	85be                	mv	a1,a5
200140b2:	6145                	addi	sp,sp,48
200140b4:	8082                	ret
/home/scratch/jenkins/workspace/tpp-freedom-tools/tpp04--build-binary-packages--parameterized/obj/x86_64-linux-centos6/build/riscv64-unknown-elf-gcc/build-gcc-stage2/riscv64-unknown-elf/rv32imac/ilp32/libgcc/../../../../../riscv-gcc/libgcc/soft-fp/divdf3.c:46 (discriminator 15)
200140b6:	15fd                	addi	a1,a1,-1
200140b8:	4781                	li	a5,0
200140ba:	b3b5                	j	20013e26 <__divdf3+0x1ca>
/home/scratch/jenkins/workspace/tpp-freedom-tools/tpp04--build-binary-packages--parameterized/obj/x86_64-linux-centos6/build/riscv64-unknown-elf-gcc/build-gcc-stage2/riscv64-unknown-elf/rv32imac/ilp32/libgcc/../../../../../riscv-gcc/libgcc/soft-fp/divdf3.c:44 (discriminator 8)
200140bc:	86ce                	mv	a3,s3
/home/scratch/jenkins/workspace/tpp-freedom-tools/tpp04--build-binary-packages--parameterized/obj/x86_64-linux-centos6/build/riscv64-unknown-elf-gcc/build-gcc-stage2/riscv64-unknown-elf/rv32imac/ilp32/libgcc/../../../../../riscv-gcc/libgcc/soft-fp/divdf3.c:46 (discriminator 8)
200140be:	84d6                	mv	s1,s5
200140c0:	8fa2                	mv	t6,s0
200140c2:	87de                	mv	a5,s7
/home/scratch/jenkins/workspace/tpp-freedom-tools/tpp04--build-binary-packages--parameterized/obj/x86_64-linux-centos6/build/riscv64-unknown-elf-gcc/build-gcc-stage2/riscv64-unknown-elf/rv32imac/ilp32/libgcc/../../../../../riscv-gcc/libgcc/soft-fp/divdf3.c:47 (discriminator 108)
200140c4:	470d                	li	a4,3
200140c6:	0ae78a63          	beq	a5,a4,2001417a <__divdf3+0x51e>
/home/scratch/jenkins/workspace/tpp-freedom-tools/tpp04--build-binary-packages--parameterized/obj/x86_64-linux-centos6/build/riscv64-unknown-elf-gcc/build-gcc-stage2/riscv64-unknown-elf/rv32imac/ilp32/libgcc/../../../../../riscv-gcc/libgcc/soft-fp/divdf3.c:47
200140ca:	4705                	li	a4,1
200140cc:	0ae78e63          	beq	a5,a4,20014188 <__divdf3+0x52c>
200140d0:	4709                	li	a4,2
200140d2:	f6e792e3          	bne	a5,a4,20014036 <__divdf3+0x3da>
200140d6:	4501                	li	a0,0
200140d8:	4701                	li	a4,0
200140da:	7ff00793          	li	a5,2047
200140de:	b765                	j	20014086 <__divdf3+0x42a>
/home/scratch/jenkins/workspace/tpp-freedom-tools/tpp04--build-binary-packages--parameterized/obj/x86_64-linux-centos6/build/riscv64-unknown-elf-gcc/build-gcc-stage2/riscv64-unknown-elf/rv32imac/ilp32/libgcc/../../../../../riscv-gcc/libgcc/soft-fp/divdf3.c:45 (discriminator 5)
200140e0:	86e2                	mv	a3,s8
/home/scratch/jenkins/workspace/tpp-freedom-tools/tpp04--build-binary-packages--parameterized/obj/x86_64-linux-centos6/build/riscv64-unknown-elf-gcc/build-gcc-stage2/riscv64-unknown-elf/rv32imac/ilp32/libgcc/../../../../../riscv-gcc/libgcc/soft-fp/divdf3.c:46 (discriminator 5)
200140e2:	b7cd                	j	200140c4 <__divdf3+0x468>
/home/scratch/jenkins/workspace/tpp-freedom-tools/tpp04--build-binary-packages--parameterized/obj/x86_64-linux-centos6/build/riscv64-unknown-elf-gcc/build-gcc-stage2/riscv64-unknown-elf/rv32imac/ilp32/libgcc/../../../../../riscv-gcc/libgcc/soft-fp/divdf3.c:46
200140e4:	000804b7          	lui	s1,0x80
200140e8:	4f81                	li	t6,0
200140ea:	4681                	li	a3,0
200140ec:	478d                	li	a5,3
200140ee:	bfd9                	j	200140c4 <__divdf3+0x468>
/home/scratch/jenkins/workspace/tpp-freedom-tools/tpp04--build-binary-packages--parameterized/obj/x86_64-linux-centos6/build/riscv64-unknown-elf-gcc/build-gcc-stage2/riscv64-unknown-elf/rv32imac/ilp32/libgcc/../../../../../riscv-gcc/libgcc/soft-fp/divdf3.c:47 (discriminator 59)
200140f0:	4505                	li	a0,1
200140f2:	8d1d                	sub	a0,a0,a5
200140f4:	03800713          	li	a4,56
200140f8:	08a74863          	blt	a4,a0,20014188 <__divdf3+0x52c>
/home/scratch/jenkins/workspace/tpp-freedom-tools/tpp04--build-binary-packages--parameterized/obj/x86_64-linux-centos6/build/riscv64-unknown-elf-gcc/build-gcc-stage2/riscv64-unknown-elf/rv32imac/ilp32/libgcc/../../../../../riscv-gcc/libgcc/soft-fp/divdf3.c:47 (discriminator 60)
200140fc:	477d                	li	a4,31
200140fe:	04a74963          	blt	a4,a0,20014150 <__divdf3+0x4f4>
/home/scratch/jenkins/workspace/tpp-freedom-tools/tpp04--build-binary-packages--parameterized/obj/x86_64-linux-centos6/build/riscv64-unknown-elf-gcc/build-gcc-stage2/riscv64-unknown-elf/rv32imac/ilp32/libgcc/../../../../../riscv-gcc/libgcc/soft-fp/divdf3.c:47 (discriminator 62)
20014102:	41e58593          	addi	a1,a1,1054
20014106:	00b497b3          	sll	a5,s1,a1
2001410a:	00afd733          	srl	a4,t6,a0
2001410e:	00bf95b3          	sll	a1,t6,a1
20014112:	8fd9                	or	a5,a5,a4
20014114:	00b035b3          	snez	a1,a1
20014118:	8fcd                	or	a5,a5,a1
2001411a:	00a4d533          	srl	a0,s1,a0
/home/scratch/jenkins/workspace/tpp-freedom-tools/tpp04--build-binary-packages--parameterized/obj/x86_64-linux-centos6/build/riscv64-unknown-elf-gcc/build-gcc-stage2/riscv64-unknown-elf/rv32imac/ilp32/libgcc/../../../../../riscv-gcc/libgcc/soft-fp/divdf3.c:47 (discriminator 75)
2001411e:	0077f713          	andi	a4,a5,7
20014122:	cf01                	beqz	a4,2001413a <__divdf3+0x4de>
/home/scratch/jenkins/workspace/tpp-freedom-tools/tpp04--build-binary-packages--parameterized/obj/x86_64-linux-centos6/build/riscv64-unknown-elf-gcc/build-gcc-stage2/riscv64-unknown-elf/rv32imac/ilp32/libgcc/../../../../../riscv-gcc/libgcc/soft-fp/divdf3.c:47 (discriminator 76)
20014124:	00f7f713          	andi	a4,a5,15
20014128:	4611                	li	a2,4
2001412a:	00c70863          	beq	a4,a2,2001413a <__divdf3+0x4de>
/home/scratch/jenkins/workspace/tpp-freedom-tools/tpp04--build-binary-packages--parameterized/obj/x86_64-linux-centos6/build/riscv64-unknown-elf-gcc/build-gcc-stage2/riscv64-unknown-elf/rv32imac/ilp32/libgcc/../../../../../riscv-gcc/libgcc/soft-fp/divdf3.c:47 (discriminator 78)
2001412e:	00478713          	addi	a4,a5,4 # ff000004 <metal_segment_heap_target_end+0x7effe624>
20014132:	00f737b3          	sltu	a5,a4,a5
20014136:	953e                	add	a0,a0,a5
20014138:	87ba                	mv	a5,a4
/home/scratch/jenkins/workspace/tpp-freedom-tools/tpp04--build-binary-packages--parameterized/obj/x86_64-linux-centos6/build/riscv64-unknown-elf-gcc/build-gcc-stage2/riscv64-unknown-elf/rv32imac/ilp32/libgcc/../../../../../riscv-gcc/libgcc/soft-fp/divdf3.c:47 (discriminator 77)
2001413a:	00800737          	lui	a4,0x800
2001413e:	8f69                	and	a4,a4,a0
20014140:	e739                	bnez	a4,2001418e <__divdf3+0x532>
/home/scratch/jenkins/workspace/tpp-freedom-tools/tpp04--build-binary-packages--parameterized/obj/x86_64-linux-centos6/build/riscv64-unknown-elf-gcc/build-gcc-stage2/riscv64-unknown-elf/rv32imac/ilp32/libgcc/../../../../../riscv-gcc/libgcc/soft-fp/divdf3.c:47 (discriminator 93)
20014142:	01d51713          	slli	a4,a0,0x1d
20014146:	838d                	srli	a5,a5,0x3
20014148:	8f5d                	or	a4,a4,a5
2001414a:	810d                	srli	a0,a0,0x3
/home/scratch/jenkins/workspace/tpp-freedom-tools/tpp04--build-binary-packages--parameterized/obj/x86_64-linux-centos6/build/riscv64-unknown-elf-gcc/build-gcc-stage2/riscv64-unknown-elf/rv32imac/ilp32/libgcc/../../../../../riscv-gcc/libgcc/soft-fp/divdf3.c:47
2001414c:	4781                	li	a5,0
2001414e:	bf25                	j	20014086 <__divdf3+0x42a>
/home/scratch/jenkins/workspace/tpp-freedom-tools/tpp04--build-binary-packages--parameterized/obj/x86_64-linux-centos6/build/riscv64-unknown-elf-gcc/build-gcc-stage2/riscv64-unknown-elf/rv32imac/ilp32/libgcc/../../../../../riscv-gcc/libgcc/soft-fp/divdf3.c:47 (discriminator 63)
20014150:	5705                	li	a4,-31
20014152:	40f707b3          	sub	a5,a4,a5
20014156:	02000613          	li	a2,32
2001415a:	00f4d7b3          	srl	a5,s1,a5
2001415e:	4701                	li	a4,0
20014160:	00c50663          	beq	a0,a2,2001416c <__divdf3+0x510>
/home/scratch/jenkins/workspace/tpp-freedom-tools/tpp04--build-binary-packages--parameterized/obj/x86_64-linux-centos6/build/riscv64-unknown-elf-gcc/build-gcc-stage2/riscv64-unknown-elf/rv32imac/ilp32/libgcc/../../../../../riscv-gcc/libgcc/soft-fp/divdf3.c:47 (discriminator 71)
20014164:	43e58713          	addi	a4,a1,1086
20014168:	00e49733          	sll	a4,s1,a4
/home/scratch/jenkins/workspace/tpp-freedom-tools/tpp04--build-binary-packages--parameterized/obj/x86_64-linux-centos6/build/riscv64-unknown-elf-gcc/build-gcc-stage2/riscv64-unknown-elf/rv32imac/ilp32/libgcc/../../../../../riscv-gcc/libgcc/soft-fp/divdf3.c:47 (discriminator 74)
2001416c:	01f76733          	or	a4,a4,t6
20014170:	00e03733          	snez	a4,a4
20014174:	8fd9                	or	a5,a5,a4
20014176:	4501                	li	a0,0
20014178:	b75d                	j	2001411e <__divdf3+0x4c2>
/home/scratch/jenkins/workspace/tpp-freedom-tools/tpp04--build-binary-packages--parameterized/obj/x86_64-linux-centos6/build/riscv64-unknown-elf-gcc/build-gcc-stage2/riscv64-unknown-elf/rv32imac/ilp32/libgcc/../../../../../riscv-gcc/libgcc/soft-fp/divdf3.c:47
2001417a:	00080537          	lui	a0,0x80
2001417e:	4701                	li	a4,0
20014180:	7ff00793          	li	a5,2047
20014184:	4681                	li	a3,0
20014186:	b701                	j	20014086 <__divdf3+0x42a>
20014188:	4501                	li	a0,0
2001418a:	4701                	li	a4,0
2001418c:	b7c1                	j	2001414c <__divdf3+0x4f0>
2001418e:	4501                	li	a0,0
20014190:	4701                	li	a4,0
20014192:	4785                	li	a5,1
20014194:	bdcd                	j	20014086 <__divdf3+0x42a>
/home/scratch/jenkins/workspace/tpp-freedom-tools/tpp04--build-binary-packages--parameterized/obj/x86_64-linux-centos6/build/riscv64-unknown-elf-gcc/build-gcc-stage2/riscv64-unknown-elf/rv32imac/ilp32/libgcc/../../../../../riscv-gcc/libgcc/soft-fp/divdf3.c:46
20014196:	867e                	mv	a2,t6
20014198:	8fb2                	mv	t6,a2
2001419a:	bd61                	j	20014032 <__divdf3+0x3d6>

2001419c <__ledf2>:
__ledf2():
/home/scratch/jenkins/workspace/tpp-freedom-tools/tpp04--build-binary-packages--parameterized/obj/x86_64-linux-centos6/build/riscv64-unknown-elf-gcc/build-gcc-stage2/riscv64-unknown-elf/rv32imac/ilp32/libgcc/../../../../../riscv-gcc/libgcc/soft-fp/ledf2.c:43
2001419c:	00100737          	lui	a4,0x100
200141a0:	177d                	addi	a4,a4,-1
200141a2:	0145d813          	srli	a6,a1,0x14
200141a6:	00b778b3          	and	a7,a4,a1
/home/scratch/jenkins/workspace/tpp-freedom-tools/tpp04--build-binary-packages--parameterized/obj/x86_64-linux-centos6/build/riscv64-unknown-elf-gcc/build-gcc-stage2/riscv64-unknown-elf/rv32imac/ilp32/libgcc/../../../../../riscv-gcc/libgcc/soft-fp/ledf2.c:36
200141aa:	87aa                	mv	a5,a0
200141ac:	832a                	mv	t1,a0
/home/scratch/jenkins/workspace/tpp-freedom-tools/tpp04--build-binary-packages--parameterized/obj/x86_64-linux-centos6/build/riscv64-unknown-elf-gcc/build-gcc-stage2/riscv64-unknown-elf/rv32imac/ilp32/libgcc/../../../../../riscv-gcc/libgcc/soft-fp/ledf2.c:43
200141ae:	7ff87813          	andi	a6,a6,2047
200141b2:	01f5d513          	srli	a0,a1,0x1f
/home/scratch/jenkins/workspace/tpp-freedom-tools/tpp04--build-binary-packages--parameterized/obj/x86_64-linux-centos6/build/riscv64-unknown-elf-gcc/build-gcc-stage2/riscv64-unknown-elf/rv32imac/ilp32/libgcc/../../../../../riscv-gcc/libgcc/soft-fp/ledf2.c:45
200141b6:	7ff00e93          	li	t4,2047
/home/scratch/jenkins/workspace/tpp-freedom-tools/tpp04--build-binary-packages--parameterized/obj/x86_64-linux-centos6/build/riscv64-unknown-elf-gcc/build-gcc-stage2/riscv64-unknown-elf/rv32imac/ilp32/libgcc/../../../../../riscv-gcc/libgcc/soft-fp/ledf2.c:44
200141ba:	0146d593          	srli	a1,a3,0x14
200141be:	8f75                	and	a4,a4,a3
200141c0:	8e32                	mv	t3,a2
200141c2:	7ff5f593          	andi	a1,a1,2047
200141c6:	82fd                	srli	a3,a3,0x1f
/home/scratch/jenkins/workspace/tpp-freedom-tools/tpp04--build-binary-packages--parameterized/obj/x86_64-linux-centos6/build/riscv64-unknown-elf-gcc/build-gcc-stage2/riscv64-unknown-elf/rv32imac/ilp32/libgcc/../../../../../riscv-gcc/libgcc/soft-fp/ledf2.c:45
200141c8:	01d81863          	bne	a6,t4,200141d8 <__ledf2+0x3c>
/home/scratch/jenkins/workspace/tpp-freedom-tools/tpp04--build-binary-packages--parameterized/obj/x86_64-linux-centos6/build/riscv64-unknown-elf-gcc/build-gcc-stage2/riscv64-unknown-elf/rv32imac/ilp32/libgcc/../../../../../riscv-gcc/libgcc/soft-fp/ledf2.c:45 (discriminator 20)
200141cc:	00f8eeb3          	or	t4,a7,a5
200141d0:	060e8463          	beqz	t4,20014238 <__ledf2+0x9c>
/home/scratch/jenkins/workspace/tpp-freedom-tools/tpp04--build-binary-packages--parameterized/obj/x86_64-linux-centos6/build/riscv64-unknown-elf-gcc/build-gcc-stage2/riscv64-unknown-elf/rv32imac/ilp32/libgcc/../../../../../riscv-gcc/libgcc/soft-fp/ledf2.c:45
200141d4:	4509                	li	a0,2
200141d6:	8082                	ret
/home/scratch/jenkins/workspace/tpp-freedom-tools/tpp04--build-binary-packages--parameterized/obj/x86_64-linux-centos6/build/riscv64-unknown-elf-gcc/build-gcc-stage2/riscv64-unknown-elf/rv32imac/ilp32/libgcc/../../../../../riscv-gcc/libgcc/soft-fp/ledf2.c:45 (discriminator 23)
200141d8:	01d59663          	bne	a1,t4,200141e4 <__ledf2+0x48>
/home/scratch/jenkins/workspace/tpp-freedom-tools/tpp04--build-binary-packages--parameterized/obj/x86_64-linux-centos6/build/riscv64-unknown-elf-gcc/build-gcc-stage2/riscv64-unknown-elf/rv32imac/ilp32/libgcc/../../../../../riscv-gcc/libgcc/soft-fp/ledf2.c:45 (discriminator 24)
200141dc:	00c76eb3          	or	t4,a4,a2
200141e0:	fe0e9ae3          	bnez	t4,200141d4 <__ledf2+0x38>
/home/scratch/jenkins/workspace/tpp-freedom-tools/tpp04--build-binary-packages--parameterized/obj/x86_64-linux-centos6/build/riscv64-unknown-elf-gcc/build-gcc-stage2/riscv64-unknown-elf/rv32imac/ilp32/libgcc/../../../../../riscv-gcc/libgcc/soft-fp/ledf2.c:45 (discriminator 62)
200141e4:	04081c63          	bnez	a6,2001423c <__ledf2+0xa0>
/home/scratch/jenkins/workspace/tpp-freedom-tools/tpp04--build-binary-packages--parameterized/obj/x86_64-linux-centos6/build/riscv64-unknown-elf-gcc/build-gcc-stage2/riscv64-unknown-elf/rv32imac/ilp32/libgcc/../../../../../riscv-gcc/libgcc/soft-fp/ledf2.c:45 (discriminator 63)
200141e8:	00f8e7b3          	or	a5,a7,a5
200141ec:	0017b793          	seqz	a5,a5
200141f0:	e199                	bnez	a1,200141f6 <__ledf2+0x5a>
/home/scratch/jenkins/workspace/tpp-freedom-tools/tpp04--build-binary-packages--parameterized/obj/x86_64-linux-centos6/build/riscv64-unknown-elf-gcc/build-gcc-stage2/riscv64-unknown-elf/rv32imac/ilp32/libgcc/../../../../../riscv-gcc/libgcc/soft-fp/ledf2.c:45 (discriminator 69)
200141f2:	8e59                	or	a2,a2,a4
200141f4:	ce0d                	beqz	a2,2001422e <__ledf2+0x92>
/home/scratch/jenkins/workspace/tpp-freedom-tools/tpp04--build-binary-packages--parameterized/obj/x86_64-linux-centos6/build/riscv64-unknown-elf-gcc/build-gcc-stage2/riscv64-unknown-elf/rv32imac/ilp32/libgcc/../../../../../riscv-gcc/libgcc/soft-fp/ledf2.c:45
200141f6:	eb81                	bnez	a5,20014206 <__ledf2+0x6a>
200141f8:	00d51463          	bne	a0,a3,20014200 <__ledf2+0x64>
/home/scratch/jenkins/workspace/tpp-freedom-tools/tpp04--build-binary-packages--parameterized/obj/x86_64-linux-centos6/build/riscv64-unknown-elf-gcc/build-gcc-stage2/riscv64-unknown-elf/rv32imac/ilp32/libgcc/../../../../../riscv-gcc/libgcc/soft-fp/ledf2.c:45 (discriminator 95)
200141fc:	0105d963          	bge	a1,a6,2001420e <__ledf2+0x72>
/home/scratch/jenkins/workspace/tpp-freedom-tools/tpp04--build-binary-packages--parameterized/obj/x86_64-linux-centos6/build/riscv64-unknown-elf-gcc/build-gcc-stage2/riscv64-unknown-elf/rv32imac/ilp32/libgcc/../../../../../riscv-gcc/libgcc/soft-fp/ledf2.c:45 (discriminator 119)
20014200:	c50d                	beqz	a0,2001422a <__ledf2+0x8e>
/home/scratch/jenkins/workspace/tpp-freedom-tools/tpp04--build-binary-packages--parameterized/obj/x86_64-linux-centos6/build/riscv64-unknown-elf-gcc/build-gcc-stage2/riscv64-unknown-elf/rv32imac/ilp32/libgcc/../../../../../riscv-gcc/libgcc/soft-fp/ledf2.c:45
20014202:	557d                	li	a0,-1
20014204:	8082                	ret
/home/scratch/jenkins/workspace/tpp-freedom-tools/tpp04--build-binary-packages--parameterized/obj/x86_64-linux-centos6/build/riscv64-unknown-elf-gcc/build-gcc-stage2/riscv64-unknown-elf/rv32imac/ilp32/libgcc/../../../../../riscv-gcc/libgcc/soft-fp/ledf2.c:45 (discriminator 80)
20014206:	557d                	li	a0,-1
20014208:	c691                	beqz	a3,20014214 <__ledf2+0x78>
/home/scratch/jenkins/workspace/tpp-freedom-tools/tpp04--build-binary-packages--parameterized/obj/x86_64-linux-centos6/build/riscv64-unknown-elf-gcc/build-gcc-stage2/riscv64-unknown-elf/rv32imac/ilp32/libgcc/../../../../../riscv-gcc/libgcc/soft-fp/ledf2.c:45
2001420a:	8536                	mv	a0,a3
2001420c:	8082                	ret
/home/scratch/jenkins/workspace/tpp-freedom-tools/tpp04--build-binary-packages--parameterized/obj/x86_64-linux-centos6/build/riscv64-unknown-elf-gcc/build-gcc-stage2/riscv64-unknown-elf/rv32imac/ilp32/libgcc/../../../../../riscv-gcc/libgcc/soft-fp/ledf2.c:45 (discriminator 102)
2001420e:	00b85463          	bge	a6,a1,20014216 <__ledf2+0x7a>
/home/scratch/jenkins/workspace/tpp-freedom-tools/tpp04--build-binary-packages--parameterized/obj/x86_64-linux-centos6/build/riscv64-unknown-elf-gcc/build-gcc-stage2/riscv64-unknown-elf/rv32imac/ilp32/libgcc/../../../../../riscv-gcc/libgcc/soft-fp/ledf2.c:45 (discriminator 130)
20014212:	d965                	beqz	a0,20014202 <__ledf2+0x66>
/home/scratch/jenkins/workspace/tpp-freedom-tools/tpp04--build-binary-packages--parameterized/obj/x86_64-linux-centos6/build/riscv64-unknown-elf-gcc/build-gcc-stage2/riscv64-unknown-elf/rv32imac/ilp32/libgcc/../../../../../riscv-gcc/libgcc/soft-fp/ledf2.c:49
20014214:	8082                	ret
/home/scratch/jenkins/workspace/tpp-freedom-tools/tpp04--build-binary-packages--parameterized/obj/x86_64-linux-centos6/build/riscv64-unknown-elf-gcc/build-gcc-stage2/riscv64-unknown-elf/rv32imac/ilp32/libgcc/../../../../../riscv-gcc/libgcc/soft-fp/ledf2.c:45 (discriminator 109)
20014216:	ff1765e3          	bltu	a4,a7,20014200 <__ledf2+0x64>
/home/scratch/jenkins/workspace/tpp-freedom-tools/tpp04--build-binary-packages--parameterized/obj/x86_64-linux-centos6/build/riscv64-unknown-elf-gcc/build-gcc-stage2/riscv64-unknown-elf/rv32imac/ilp32/libgcc/../../../../../riscv-gcc/libgcc/soft-fp/ledf2.c:45 (discriminator 116)
2001421a:	00e89c63          	bne	a7,a4,20014232 <__ledf2+0x96>
/home/scratch/jenkins/workspace/tpp-freedom-tools/tpp04--build-binary-packages--parameterized/obj/x86_64-linux-centos6/build/riscv64-unknown-elf-gcc/build-gcc-stage2/riscv64-unknown-elf/rv32imac/ilp32/libgcc/../../../../../riscv-gcc/libgcc/soft-fp/ledf2.c:45 (discriminator 117)
2001421e:	fe6e61e3          	bltu	t3,t1,20014200 <__ledf2+0x64>
/home/scratch/jenkins/workspace/tpp-freedom-tools/tpp04--build-binary-packages--parameterized/obj/x86_64-linux-centos6/build/riscv64-unknown-elf-gcc/build-gcc-stage2/riscv64-unknown-elf/rv32imac/ilp32/libgcc/../../../../../riscv-gcc/libgcc/soft-fp/ledf2.c:45 (discriminator 128)
20014222:	ffc368e3          	bltu	t1,t3,20014212 <__ledf2+0x76>
/home/scratch/jenkins/workspace/tpp-freedom-tools/tpp04--build-binary-packages--parameterized/obj/x86_64-linux-centos6/build/riscv64-unknown-elf-gcc/build-gcc-stage2/riscv64-unknown-elf/rv32imac/ilp32/libgcc/../../../../../riscv-gcc/libgcc/soft-fp/ledf2.c:45
20014226:	4501                	li	a0,0
20014228:	8082                	ret
2001422a:	4505                	li	a0,1
2001422c:	8082                	ret
2001422e:	ffe5                	bnez	a5,20014226 <__ledf2+0x8a>
20014230:	bfc1                	j	20014200 <__ledf2+0x64>
20014232:	fee8e0e3          	bltu	a7,a4,20014212 <__ledf2+0x76>
20014236:	bfc5                	j	20014226 <__ledf2+0x8a>
20014238:	fb0582e3          	beq	a1,a6,200141dc <__ledf2+0x40>
2001423c:	fdd5                	bnez	a1,200141f8 <__ledf2+0x5c>
2001423e:	4781                	li	a5,0
20014240:	bf4d                	j	200141f2 <__ledf2+0x56>

20014242 <__muldf3>:
__muldf3():
/home/scratch/jenkins/workspace/tpp-freedom-tools/tpp04--build-binary-packages--parameterized/obj/x86_64-linux-centos6/build/riscv64-unknown-elf-gcc/build-gcc-stage2/riscv64-unknown-elf/rv32imac/ilp32/libgcc/../../../../../riscv-gcc/libgcc/soft-fp/muldf3.c:36
20014242:	7179                	addi	sp,sp,-48
20014244:	ce4e                	sw	s3,28(sp)
/home/scratch/jenkins/workspace/tpp-freedom-tools/tpp04--build-binary-packages--parameterized/obj/x86_64-linux-centos6/build/riscv64-unknown-elf-gcc/build-gcc-stage2/riscv64-unknown-elf/rv32imac/ilp32/libgcc/../../../../../riscv-gcc/libgcc/soft-fp/muldf3.c:44
20014246:	0145d993          	srli	s3,a1,0x14
/home/scratch/jenkins/workspace/tpp-freedom-tools/tpp04--build-binary-packages--parameterized/obj/x86_64-linux-centos6/build/riscv64-unknown-elf-gcc/build-gcc-stage2/riscv64-unknown-elf/rv32imac/ilp32/libgcc/../../../../../riscv-gcc/libgcc/soft-fp/muldf3.c:36
2001424a:	d422                	sw	s0,40(sp)
2001424c:	d226                	sw	s1,36(sp)
2001424e:	cc52                	sw	s4,24(sp)
20014250:	ca56                	sw	s5,20(sp)
20014252:	c65e                	sw	s7,12(sp)
/home/scratch/jenkins/workspace/tpp-freedom-tools/tpp04--build-binary-packages--parameterized/obj/x86_64-linux-centos6/build/riscv64-unknown-elf-gcc/build-gcc-stage2/riscv64-unknown-elf/rv32imac/ilp32/libgcc/../../../../../riscv-gcc/libgcc/soft-fp/muldf3.c:44
20014254:	00c59493          	slli	s1,a1,0xc
/home/scratch/jenkins/workspace/tpp-freedom-tools/tpp04--build-binary-packages--parameterized/obj/x86_64-linux-centos6/build/riscv64-unknown-elf-gcc/build-gcc-stage2/riscv64-unknown-elf/rv32imac/ilp32/libgcc/../../../../../riscv-gcc/libgcc/soft-fp/muldf3.c:36
20014258:	d606                	sw	ra,44(sp)
2001425a:	d04a                	sw	s2,32(sp)
2001425c:	c85a                	sw	s6,16(sp)
/home/scratch/jenkins/workspace/tpp-freedom-tools/tpp04--build-binary-packages--parameterized/obj/x86_64-linux-centos6/build/riscv64-unknown-elf-gcc/build-gcc-stage2/riscv64-unknown-elf/rv32imac/ilp32/libgcc/../../../../../riscv-gcc/libgcc/soft-fp/muldf3.c:44
2001425e:	7ff9f993          	andi	s3,s3,2047
/home/scratch/jenkins/workspace/tpp-freedom-tools/tpp04--build-binary-packages--parameterized/obj/x86_64-linux-centos6/build/riscv64-unknown-elf-gcc/build-gcc-stage2/riscv64-unknown-elf/rv32imac/ilp32/libgcc/../../../../../riscv-gcc/libgcc/soft-fp/muldf3.c:36
20014262:	842a                	mv	s0,a0
20014264:	8bb2                	mv	s7,a2
20014266:	8ab6                	mv	s5,a3
/home/scratch/jenkins/workspace/tpp-freedom-tools/tpp04--build-binary-packages--parameterized/obj/x86_64-linux-centos6/build/riscv64-unknown-elf-gcc/build-gcc-stage2/riscv64-unknown-elf/rv32imac/ilp32/libgcc/../../../../../riscv-gcc/libgcc/soft-fp/muldf3.c:44
20014268:	80b1                	srli	s1,s1,0xc
2001426a:	01f5da13          	srli	s4,a1,0x1f
2001426e:	08098163          	beqz	s3,200142f0 <__muldf3+0xae>
20014272:	7ff00793          	li	a5,2047
20014276:	0cf98563          	beq	s3,a5,20014340 <__muldf3+0xfe>
/home/scratch/jenkins/workspace/tpp-freedom-tools/tpp04--build-binary-packages--parameterized/obj/x86_64-linux-centos6/build/riscv64-unknown-elf-gcc/build-gcc-stage2/riscv64-unknown-elf/rv32imac/ilp32/libgcc/../../../../../riscv-gcc/libgcc/soft-fp/muldf3.c:44 (discriminator 1)
2001427a:	01d55793          	srli	a5,a0,0x1d
2001427e:	048e                	slli	s1,s1,0x3
20014280:	8cdd                	or	s1,s1,a5
20014282:	008007b7          	lui	a5,0x800
20014286:	8cdd                	or	s1,s1,a5
20014288:	00351913          	slli	s2,a0,0x3
2001428c:	c0198993          	addi	s3,s3,-1023
/home/scratch/jenkins/workspace/tpp-freedom-tools/tpp04--build-binary-packages--parameterized/obj/x86_64-linux-centos6/build/riscv64-unknown-elf-gcc/build-gcc-stage2/riscv64-unknown-elf/rv32imac/ilp32/libgcc/../../../../../riscv-gcc/libgcc/soft-fp/muldf3.c:44 (discriminator 41)
20014290:	4b01                	li	s6,0
/home/scratch/jenkins/workspace/tpp-freedom-tools/tpp04--build-binary-packages--parameterized/obj/x86_64-linux-centos6/build/riscv64-unknown-elf-gcc/build-gcc-stage2/riscv64-unknown-elf/rv32imac/ilp32/libgcc/../../../../../riscv-gcc/libgcc/soft-fp/muldf3.c:45 (discriminator 8)
20014292:	014ad513          	srli	a0,s5,0x14
20014296:	00ca9413          	slli	s0,s5,0xc
2001429a:	7ff57513          	andi	a0,a0,2047
2001429e:	8031                	srli	s0,s0,0xc
200142a0:	01fada93          	srli	s5,s5,0x1f
200142a4:	c161                	beqz	a0,20014364 <__muldf3+0x122>
/home/scratch/jenkins/workspace/tpp-freedom-tools/tpp04--build-binary-packages--parameterized/obj/x86_64-linux-centos6/build/riscv64-unknown-elf-gcc/build-gcc-stage2/riscv64-unknown-elf/rv32imac/ilp32/libgcc/../../../../../riscv-gcc/libgcc/soft-fp/muldf3.c:45
200142a6:	7ff00793          	li	a5,2047
200142aa:	10f50563          	beq	a0,a5,200143b4 <__muldf3+0x172>
/home/scratch/jenkins/workspace/tpp-freedom-tools/tpp04--build-binary-packages--parameterized/obj/x86_64-linux-centos6/build/riscv64-unknown-elf-gcc/build-gcc-stage2/riscv64-unknown-elf/rv32imac/ilp32/libgcc/../../../../../riscv-gcc/libgcc/soft-fp/muldf3.c:45 (discriminator 1)
200142ae:	01dbd793          	srli	a5,s7,0x1d
200142b2:	040e                	slli	s0,s0,0x3
200142b4:	8c5d                	or	s0,s0,a5
200142b6:	008007b7          	lui	a5,0x800
200142ba:	8c5d                	or	s0,s0,a5
200142bc:	c0150513          	addi	a0,a0,-1023 # 7fc01 <__heap_size+0x7f401>
200142c0:	003b9793          	slli	a5,s7,0x3
/home/scratch/jenkins/workspace/tpp-freedom-tools/tpp04--build-binary-packages--parameterized/obj/x86_64-linux-centos6/build/riscv64-unknown-elf-gcc/build-gcc-stage2/riscv64-unknown-elf/rv32imac/ilp32/libgcc/../../../../../riscv-gcc/libgcc/soft-fp/muldf3.c:45 (discriminator 41)
200142c4:	4701                	li	a4,0
/home/scratch/jenkins/workspace/tpp-freedom-tools/tpp04--build-binary-packages--parameterized/obj/x86_64-linux-centos6/build/riscv64-unknown-elf-gcc/build-gcc-stage2/riscv64-unknown-elf/rv32imac/ilp32/libgcc/../../../../../riscv-gcc/libgcc/soft-fp/muldf3.c:46 (discriminator 8)
200142c6:	002b1693          	slli	a3,s6,0x2
200142ca:	8ed9                	or	a3,a3,a4
200142cc:	954e                	add	a0,a0,s3
200142ce:	16fd                	addi	a3,a3,-1
200142d0:	4839                	li	a6,14
200142d2:	015a4633          	xor	a2,s4,s5
200142d6:	00150593          	addi	a1,a0,1
200142da:	0ed86e63          	bltu	a6,a3,200143d6 <__muldf3+0x194>
200142de:	ffffc517          	auipc	a0,0xffffc
200142e2:	33650513          	addi	a0,a0,822 # 20010614 <name+0x48>
200142e6:	068a                	slli	a3,a3,0x2
200142e8:	96aa                	add	a3,a3,a0
200142ea:	4294                	lw	a3,0(a3)
200142ec:	96aa                	add	a3,a3,a0
200142ee:	8682                	jr	a3
/home/scratch/jenkins/workspace/tpp-freedom-tools/tpp04--build-binary-packages--parameterized/obj/x86_64-linux-centos6/build/riscv64-unknown-elf-gcc/build-gcc-stage2/riscv64-unknown-elf/rv32imac/ilp32/libgcc/../../../../../riscv-gcc/libgcc/soft-fp/muldf3.c:44 (discriminator 2)
200142f0:	00a4e933          	or	s2,s1,a0
200142f4:	04090f63          	beqz	s2,20014352 <__muldf3+0x110>
/home/scratch/jenkins/workspace/tpp-freedom-tools/tpp04--build-binary-packages--parameterized/obj/x86_64-linux-centos6/build/riscv64-unknown-elf-gcc/build-gcc-stage2/riscv64-unknown-elf/rv32imac/ilp32/libgcc/../../../../../riscv-gcc/libgcc/soft-fp/muldf3.c:44 (discriminator 13)
200142f8:	c88d                	beqz	s1,2001432a <__muldf3+0xe8>
/home/scratch/jenkins/workspace/tpp-freedom-tools/tpp04--build-binary-packages--parameterized/obj/x86_64-linux-centos6/build/riscv64-unknown-elf-gcc/build-gcc-stage2/riscv64-unknown-elf/rv32imac/ilp32/libgcc/../../../../../riscv-gcc/libgcc/soft-fp/muldf3.c:44 (discriminator 17)
200142fa:	8526                	mv	a0,s1
200142fc:	d79fe0ef          	jal	ra,20013074 <__clzsi2>
/home/scratch/jenkins/workspace/tpp-freedom-tools/tpp04--build-binary-packages--parameterized/obj/x86_64-linux-centos6/build/riscv64-unknown-elf-gcc/build-gcc-stage2/riscv64-unknown-elf/rv32imac/ilp32/libgcc/../../../../../riscv-gcc/libgcc/soft-fp/muldf3.c:44 (discriminator 31)
20014300:	ff550713          	addi	a4,a0,-11
20014304:	47f1                	li	a5,28
20014306:	02e7c763          	blt	a5,a4,20014334 <__muldf3+0xf2>
/home/scratch/jenkins/workspace/tpp-freedom-tools/tpp04--build-binary-packages--parameterized/obj/x86_64-linux-centos6/build/riscv64-unknown-elf-gcc/build-gcc-stage2/riscv64-unknown-elf/rv32imac/ilp32/libgcc/../../../../../riscv-gcc/libgcc/soft-fp/muldf3.c:44 (discriminator 32)
2001430a:	47f5                	li	a5,29
2001430c:	ff850913          	addi	s2,a0,-8
20014310:	8f99                	sub	a5,a5,a4
20014312:	012494b3          	sll	s1,s1,s2
20014316:	00f457b3          	srl	a5,s0,a5
2001431a:	8cdd                	or	s1,s1,a5
2001431c:	01241933          	sll	s2,s0,s2
/home/scratch/jenkins/workspace/tpp-freedom-tools/tpp04--build-binary-packages--parameterized/obj/x86_64-linux-centos6/build/riscv64-unknown-elf-gcc/build-gcc-stage2/riscv64-unknown-elf/rv32imac/ilp32/libgcc/../../../../../riscv-gcc/libgcc/soft-fp/muldf3.c:44 (discriminator 41)
20014320:	c0d00993          	li	s3,-1011
20014324:	40a989b3          	sub	s3,s3,a0
20014328:	b7a5                	j	20014290 <__muldf3+0x4e>
/home/scratch/jenkins/workspace/tpp-freedom-tools/tpp04--build-binary-packages--parameterized/obj/x86_64-linux-centos6/build/riscv64-unknown-elf-gcc/build-gcc-stage2/riscv64-unknown-elf/rv32imac/ilp32/libgcc/../../../../../riscv-gcc/libgcc/soft-fp/muldf3.c:44 (discriminator 24)
2001432a:	d4bfe0ef          	jal	ra,20013074 <__clzsi2>
2001432e:	02050513          	addi	a0,a0,32
20014332:	b7f9                	j	20014300 <__muldf3+0xbe>
/home/scratch/jenkins/workspace/tpp-freedom-tools/tpp04--build-binary-packages--parameterized/obj/x86_64-linux-centos6/build/riscv64-unknown-elf-gcc/build-gcc-stage2/riscv64-unknown-elf/rv32imac/ilp32/libgcc/../../../../../riscv-gcc/libgcc/soft-fp/muldf3.c:44 (discriminator 33)
20014334:	fd850493          	addi	s1,a0,-40
20014338:	009414b3          	sll	s1,s0,s1
2001433c:	4901                	li	s2,0
2001433e:	b7cd                	j	20014320 <__muldf3+0xde>
/home/scratch/jenkins/workspace/tpp-freedom-tools/tpp04--build-binary-packages--parameterized/obj/x86_64-linux-centos6/build/riscv64-unknown-elf-gcc/build-gcc-stage2/riscv64-unknown-elf/rv32imac/ilp32/libgcc/../../../../../riscv-gcc/libgcc/soft-fp/muldf3.c:44 (discriminator 3)
20014340:	00a4e933          	or	s2,s1,a0
20014344:	00090b63          	beqz	s2,2001435a <__muldf3+0x118>
/home/scratch/jenkins/workspace/tpp-freedom-tools/tpp04--build-binary-packages--parameterized/obj/x86_64-linux-centos6/build/riscv64-unknown-elf-gcc/build-gcc-stage2/riscv64-unknown-elf/rv32imac/ilp32/libgcc/../../../../../riscv-gcc/libgcc/soft-fp/muldf3.c:44
20014348:	892a                	mv	s2,a0
2001434a:	7ff00993          	li	s3,2047
2001434e:	4b0d                	li	s6,3
20014350:	b789                	j	20014292 <__muldf3+0x50>
20014352:	4481                	li	s1,0
20014354:	4981                	li	s3,0
20014356:	4b05                	li	s6,1
20014358:	bf2d                	j	20014292 <__muldf3+0x50>
2001435a:	4481                	li	s1,0
2001435c:	7ff00993          	li	s3,2047
20014360:	4b09                	li	s6,2
20014362:	bf05                	j	20014292 <__muldf3+0x50>
/home/scratch/jenkins/workspace/tpp-freedom-tools/tpp04--build-binary-packages--parameterized/obj/x86_64-linux-centos6/build/riscv64-unknown-elf-gcc/build-gcc-stage2/riscv64-unknown-elf/rv32imac/ilp32/libgcc/../../../../../riscv-gcc/libgcc/soft-fp/muldf3.c:45 (discriminator 2)
20014364:	017467b3          	or	a5,s0,s7
20014368:	cfb1                	beqz	a5,200143c4 <__muldf3+0x182>
/home/scratch/jenkins/workspace/tpp-freedom-tools/tpp04--build-binary-packages--parameterized/obj/x86_64-linux-centos6/build/riscv64-unknown-elf-gcc/build-gcc-stage2/riscv64-unknown-elf/rv32imac/ilp32/libgcc/../../../../../riscv-gcc/libgcc/soft-fp/muldf3.c:45 (discriminator 13)
2001436a:	c80d                	beqz	s0,2001439c <__muldf3+0x15a>
/home/scratch/jenkins/workspace/tpp-freedom-tools/tpp04--build-binary-packages--parameterized/obj/x86_64-linux-centos6/build/riscv64-unknown-elf-gcc/build-gcc-stage2/riscv64-unknown-elf/rv32imac/ilp32/libgcc/../../../../../riscv-gcc/libgcc/soft-fp/muldf3.c:45 (discriminator 17)
2001436c:	8522                	mv	a0,s0
2001436e:	d07fe0ef          	jal	ra,20013074 <__clzsi2>
/home/scratch/jenkins/workspace/tpp-freedom-tools/tpp04--build-binary-packages--parameterized/obj/x86_64-linux-centos6/build/riscv64-unknown-elf-gcc/build-gcc-stage2/riscv64-unknown-elf/rv32imac/ilp32/libgcc/../../../../../riscv-gcc/libgcc/soft-fp/muldf3.c:45 (discriminator 31)
20014372:	ff550693          	addi	a3,a0,-11
20014376:	47f1                	li	a5,28
20014378:	02d7c863          	blt	a5,a3,200143a8 <__muldf3+0x166>
/home/scratch/jenkins/workspace/tpp-freedom-tools/tpp04--build-binary-packages--parameterized/obj/x86_64-linux-centos6/build/riscv64-unknown-elf-gcc/build-gcc-stage2/riscv64-unknown-elf/rv32imac/ilp32/libgcc/../../../../../riscv-gcc/libgcc/soft-fp/muldf3.c:45 (discriminator 32)
2001437c:	4775                	li	a4,29
2001437e:	ff850793          	addi	a5,a0,-8
20014382:	8f15                	sub	a4,a4,a3
20014384:	00f41433          	sll	s0,s0,a5
20014388:	00ebd733          	srl	a4,s7,a4
2001438c:	8c59                	or	s0,s0,a4
2001438e:	00fb97b3          	sll	a5,s7,a5
/home/scratch/jenkins/workspace/tpp-freedom-tools/tpp04--build-binary-packages--parameterized/obj/x86_64-linux-centos6/build/riscv64-unknown-elf-gcc/build-gcc-stage2/riscv64-unknown-elf/rv32imac/ilp32/libgcc/../../../../../riscv-gcc/libgcc/soft-fp/muldf3.c:45 (discriminator 41)
20014392:	c0d00713          	li	a4,-1011
20014396:	40a70533          	sub	a0,a4,a0
2001439a:	b72d                	j	200142c4 <__muldf3+0x82>
/home/scratch/jenkins/workspace/tpp-freedom-tools/tpp04--build-binary-packages--parameterized/obj/x86_64-linux-centos6/build/riscv64-unknown-elf-gcc/build-gcc-stage2/riscv64-unknown-elf/rv32imac/ilp32/libgcc/../../../../../riscv-gcc/libgcc/soft-fp/muldf3.c:45 (discriminator 24)
2001439c:	855e                	mv	a0,s7
2001439e:	cd7fe0ef          	jal	ra,20013074 <__clzsi2>
200143a2:	02050513          	addi	a0,a0,32
200143a6:	b7f1                	j	20014372 <__muldf3+0x130>
/home/scratch/jenkins/workspace/tpp-freedom-tools/tpp04--build-binary-packages--parameterized/obj/x86_64-linux-centos6/build/riscv64-unknown-elf-gcc/build-gcc-stage2/riscv64-unknown-elf/rv32imac/ilp32/libgcc/../../../../../riscv-gcc/libgcc/soft-fp/muldf3.c:45 (discriminator 33)
200143a8:	fd850413          	addi	s0,a0,-40
200143ac:	008b9433          	sll	s0,s7,s0
200143b0:	4781                	li	a5,0
200143b2:	b7c5                	j	20014392 <__muldf3+0x150>
/home/scratch/jenkins/workspace/tpp-freedom-tools/tpp04--build-binary-packages--parameterized/obj/x86_64-linux-centos6/build/riscv64-unknown-elf-gcc/build-gcc-stage2/riscv64-unknown-elf/rv32imac/ilp32/libgcc/../../../../../riscv-gcc/libgcc/soft-fp/muldf3.c:45 (discriminator 3)
200143b4:	017467b3          	or	a5,s0,s7
200143b8:	cb91                	beqz	a5,200143cc <__muldf3+0x18a>
/home/scratch/jenkins/workspace/tpp-freedom-tools/tpp04--build-binary-packages--parameterized/obj/x86_64-linux-centos6/build/riscv64-unknown-elf-gcc/build-gcc-stage2/riscv64-unknown-elf/rv32imac/ilp32/libgcc/../../../../../riscv-gcc/libgcc/soft-fp/muldf3.c:45
200143ba:	87de                	mv	a5,s7
200143bc:	7ff00513          	li	a0,2047
200143c0:	470d                	li	a4,3
200143c2:	b711                	j	200142c6 <__muldf3+0x84>
200143c4:	4401                	li	s0,0
200143c6:	4501                	li	a0,0
200143c8:	4705                	li	a4,1
200143ca:	bdf5                	j	200142c6 <__muldf3+0x84>
200143cc:	4401                	li	s0,0
200143ce:	7ff00513          	li	a0,2047
200143d2:	4709                	li	a4,2
200143d4:	bdcd                	j	200142c6 <__muldf3+0x84>
/home/scratch/jenkins/workspace/tpp-freedom-tools/tpp04--build-binary-packages--parameterized/obj/x86_64-linux-centos6/build/riscv64-unknown-elf-gcc/build-gcc-stage2/riscv64-unknown-elf/rv32imac/ilp32/libgcc/../../../../../riscv-gcc/libgcc/soft-fp/muldf3.c:46 (discriminator 2)
200143d6:	6f41                	lui	t5,0x10
200143d8:	ffff0e93          	addi	t4,t5,-1 # ffff <__heap_size+0xf7ff>
200143dc:	01095713          	srli	a4,s2,0x10
200143e0:	0107d893          	srli	a7,a5,0x10
200143e4:	01d97933          	and	s2,s2,t4
200143e8:	01d7f7b3          	and	a5,a5,t4
200143ec:	03288833          	mul	a6,a7,s2
200143f0:	02f906b3          	mul	a3,s2,a5
200143f4:	02f70fb3          	mul	t6,a4,a5
200143f8:	01f80333          	add	t1,a6,t6
200143fc:	0106d813          	srli	a6,a3,0x10
20014400:	981a                	add	a6,a6,t1
20014402:	03170e33          	mul	t3,a4,a7
20014406:	01f87363          	bgeu	a6,t6,2001440c <__muldf3+0x1ca>
/home/scratch/jenkins/workspace/tpp-freedom-tools/tpp04--build-binary-packages--parameterized/obj/x86_64-linux-centos6/build/riscv64-unknown-elf-gcc/build-gcc-stage2/riscv64-unknown-elf/rv32imac/ilp32/libgcc/../../../../../riscv-gcc/libgcc/soft-fp/muldf3.c:46 (discriminator 9)
2001440a:	9e7a                	add	t3,t3,t5
/home/scratch/jenkins/workspace/tpp-freedom-tools/tpp04--build-binary-packages--parameterized/obj/x86_64-linux-centos6/build/riscv64-unknown-elf-gcc/build-gcc-stage2/riscv64-unknown-elf/rv32imac/ilp32/libgcc/../../../../../riscv-gcc/libgcc/soft-fp/muldf3.c:46 (discriminator 11)
2001440c:	01085393          	srli	t2,a6,0x10
20014410:	01d87833          	and	a6,a6,t4
20014414:	01d6f6b3          	and	a3,a3,t4
20014418:	01045f13          	srli	t5,s0,0x10
2001441c:	01d472b3          	and	t0,s0,t4
20014420:	0842                	slli	a6,a6,0x10
20014422:	9836                	add	a6,a6,a3
20014424:	02570eb3          	mul	t4,a4,t0
20014428:	025906b3          	mul	a3,s2,t0
2001442c:	032f0933          	mul	s2,t5,s2
20014430:	01d90333          	add	t1,s2,t4
20014434:	0106d913          	srli	s2,a3,0x10
20014438:	991a                	add	s2,s2,t1
2001443a:	03e70733          	mul	a4,a4,t5
2001443e:	01d97463          	bgeu	s2,t4,20014446 <__muldf3+0x204>
/home/scratch/jenkins/workspace/tpp-freedom-tools/tpp04--build-binary-packages--parameterized/obj/x86_64-linux-centos6/build/riscv64-unknown-elf-gcc/build-gcc-stage2/riscv64-unknown-elf/rv32imac/ilp32/libgcc/../../../../../riscv-gcc/libgcc/soft-fp/muldf3.c:46 (discriminator 12)
20014442:	6341                	lui	t1,0x10
20014444:	971a                	add	a4,a4,t1
/home/scratch/jenkins/workspace/tpp-freedom-tools/tpp04--build-binary-packages--parameterized/obj/x86_64-linux-centos6/build/riscv64-unknown-elf-gcc/build-gcc-stage2/riscv64-unknown-elf/rv32imac/ilp32/libgcc/../../../../../riscv-gcc/libgcc/soft-fp/muldf3.c:46 (discriminator 14)
20014446:	01095e93          	srli	t4,s2,0x10
2001444a:	69c1                	lui	s3,0x10
2001444c:	9eba                	add	t4,t4,a4
2001444e:	fff98713          	addi	a4,s3,-1 # ffff <__heap_size+0xf7ff>
20014452:	00e97933          	and	s2,s2,a4
20014456:	8ef9                	and	a3,a3,a4
20014458:	0104d413          	srli	s0,s1,0x10
2001445c:	0942                	slli	s2,s2,0x10
2001445e:	8cf9                	and	s1,s1,a4
20014460:	02978733          	mul	a4,a5,s1
20014464:	9936                	add	s2,s2,a3
20014466:	93ca                	add	t2,t2,s2
20014468:	02f40333          	mul	t1,s0,a5
2001446c:	029886b3          	mul	a3,a7,s1
20014470:	028887b3          	mul	a5,a7,s0
20014474:	006688b3          	add	a7,a3,t1
20014478:	01075693          	srli	a3,a4,0x10
2001447c:	96c6                	add	a3,a3,a7
2001447e:	0066f363          	bgeu	a3,t1,20014484 <__muldf3+0x242>
/home/scratch/jenkins/workspace/tpp-freedom-tools/tpp04--build-binary-packages--parameterized/obj/x86_64-linux-centos6/build/riscv64-unknown-elf-gcc/build-gcc-stage2/riscv64-unknown-elf/rv32imac/ilp32/libgcc/../../../../../riscv-gcc/libgcc/soft-fp/muldf3.c:46 (discriminator 15)
20014482:	97ce                	add	a5,a5,s3
/home/scratch/jenkins/workspace/tpp-freedom-tools/tpp04--build-binary-packages--parameterized/obj/x86_64-linux-centos6/build/riscv64-unknown-elf-gcc/build-gcc-stage2/riscv64-unknown-elf/rv32imac/ilp32/libgcc/../../../../../riscv-gcc/libgcc/soft-fp/muldf3.c:46 (discriminator 17)
20014484:	0106d893          	srli	a7,a3,0x10
20014488:	69c1                	lui	s3,0x10
2001448a:	00f88fb3          	add	t6,a7,a5
2001448e:	fff98793          	addi	a5,s3,-1 # ffff <__heap_size+0xf7ff>
20014492:	029288b3          	mul	a7,t0,s1
20014496:	8efd                	and	a3,a3,a5
20014498:	8f7d                	and	a4,a4,a5
2001449a:	06c2                	slli	a3,a3,0x10
2001449c:	96ba                	add	a3,a3,a4
2001449e:	025407b3          	mul	a5,s0,t0
200144a2:	029f04b3          	mul	s1,t5,s1
200144a6:	028f0333          	mul	t1,t5,s0
200144aa:	94be                	add	s1,s1,a5
200144ac:	0108d413          	srli	s0,a7,0x10
200144b0:	94a2                	add	s1,s1,s0
200144b2:	00f4f363          	bgeu	s1,a5,200144b8 <__muldf3+0x276>
/home/scratch/jenkins/workspace/tpp-freedom-tools/tpp04--build-binary-packages--parameterized/obj/x86_64-linux-centos6/build/riscv64-unknown-elf-gcc/build-gcc-stage2/riscv64-unknown-elf/rv32imac/ilp32/libgcc/../../../../../riscv-gcc/libgcc/soft-fp/muldf3.c:46 (discriminator 18)
200144b6:	934e                	add	t1,t1,s3
/home/scratch/jenkins/workspace/tpp-freedom-tools/tpp04--build-binary-packages--parameterized/obj/x86_64-linux-centos6/build/riscv64-unknown-elf-gcc/build-gcc-stage2/riscv64-unknown-elf/rv32imac/ilp32/libgcc/../../../../../riscv-gcc/libgcc/soft-fp/muldf3.c:46 (discriminator 20)
200144b8:	67c1                	lui	a5,0x10
200144ba:	17fd                	addi	a5,a5,-1
200144bc:	00f4f733          	and	a4,s1,a5
200144c0:	00f8f8b3          	and	a7,a7,a5
200144c4:	0742                	slli	a4,a4,0x10
200144c6:	9e1e                	add	t3,t3,t2
200144c8:	9746                	add	a4,a4,a7
200144ca:	012e3933          	sltu	s2,t3,s2
200144ce:	9776                	add	a4,a4,t4
200144d0:	01270433          	add	s0,a4,s2
200144d4:	9e36                	add	t3,t3,a3
200144d6:	00de36b3          	sltu	a3,t3,a3
200144da:	01f408b3          	add	a7,s0,t6
200144de:	00d88f33          	add	t5,a7,a3
200144e2:	01d73733          	sltu	a4,a4,t4
200144e6:	01243433          	sltu	s0,s0,s2
200144ea:	8c59                	or	s0,s0,a4
200144ec:	80c1                	srli	s1,s1,0x10
200144ee:	01f8b8b3          	sltu	a7,a7,t6
200144f2:	00df36b3          	sltu	a3,t5,a3
200144f6:	9426                	add	s0,s0,s1
200144f8:	00d8e6b3          	or	a3,a7,a3
200144fc:	9436                	add	s0,s0,a3
200144fe:	941a                	add	s0,s0,t1
20014500:	017f5793          	srli	a5,t5,0x17
20014504:	0426                	slli	s0,s0,0x9
20014506:	8c5d                	or	s0,s0,a5
20014508:	009e1793          	slli	a5,t3,0x9
2001450c:	0107e7b3          	or	a5,a5,a6
20014510:	00f037b3          	snez	a5,a5
20014514:	017e5e13          	srli	t3,t3,0x17
20014518:	009f1713          	slli	a4,t5,0x9
2001451c:	01c7e7b3          	or	a5,a5,t3
20014520:	8fd9                	or	a5,a5,a4
20014522:	01000737          	lui	a4,0x1000
20014526:	8f61                	and	a4,a4,s0
20014528:	cb4d                	beqz	a4,200145da <__muldf3+0x398>
/home/scratch/jenkins/workspace/tpp-freedom-tools/tpp04--build-binary-packages--parameterized/obj/x86_64-linux-centos6/build/riscv64-unknown-elf-gcc/build-gcc-stage2/riscv64-unknown-elf/rv32imac/ilp32/libgcc/../../../../../riscv-gcc/libgcc/soft-fp/muldf3.c:46 (discriminator 38)
2001452a:	0017d713          	srli	a4,a5,0x1
2001452e:	8b85                	andi	a5,a5,1
20014530:	8fd9                	or	a5,a5,a4
20014532:	01f41713          	slli	a4,s0,0x1f
20014536:	8fd9                	or	a5,a5,a4
20014538:	8005                	srli	s0,s0,0x1
/home/scratch/jenkins/workspace/tpp-freedom-tools/tpp04--build-binary-packages--parameterized/obj/x86_64-linux-centos6/build/riscv64-unknown-elf-gcc/build-gcc-stage2/riscv64-unknown-elf/rv32imac/ilp32/libgcc/../../../../../riscv-gcc/libgcc/soft-fp/muldf3.c:47 (discriminator 2)
2001453a:	3ff58693          	addi	a3,a1,1023
2001453e:	0ad05063          	blez	a3,200145de <__muldf3+0x39c>
/home/scratch/jenkins/workspace/tpp-freedom-tools/tpp04--build-binary-packages--parameterized/obj/x86_64-linux-centos6/build/riscv64-unknown-elf-gcc/build-gcc-stage2/riscv64-unknown-elf/rv32imac/ilp32/libgcc/../../../../../riscv-gcc/libgcc/soft-fp/muldf3.c:47 (discriminator 6)
20014542:	0077f713          	andi	a4,a5,7
20014546:	cf01                	beqz	a4,2001455e <__muldf3+0x31c>
/home/scratch/jenkins/workspace/tpp-freedom-tools/tpp04--build-binary-packages--parameterized/obj/x86_64-linux-centos6/build/riscv64-unknown-elf-gcc/build-gcc-stage2/riscv64-unknown-elf/rv32imac/ilp32/libgcc/../../../../../riscv-gcc/libgcc/soft-fp/muldf3.c:47 (discriminator 8)
20014548:	00f7f713          	andi	a4,a5,15
2001454c:	4511                	li	a0,4
2001454e:	00a70863          	beq	a4,a0,2001455e <__muldf3+0x31c>
/home/scratch/jenkins/workspace/tpp-freedom-tools/tpp04--build-binary-packages--parameterized/obj/x86_64-linux-centos6/build/riscv64-unknown-elf-gcc/build-gcc-stage2/riscv64-unknown-elf/rv32imac/ilp32/libgcc/../../../../../riscv-gcc/libgcc/soft-fp/muldf3.c:47 (discriminator 10)
20014552:	00478713          	addi	a4,a5,4 # 10004 <__heap_size+0xf804>
20014556:	00f737b3          	sltu	a5,a4,a5
2001455a:	943e                	add	s0,s0,a5
2001455c:	87ba                	mv	a5,a4
/home/scratch/jenkins/workspace/tpp-freedom-tools/tpp04--build-binary-packages--parameterized/obj/x86_64-linux-centos6/build/riscv64-unknown-elf-gcc/build-gcc-stage2/riscv64-unknown-elf/rv32imac/ilp32/libgcc/../../../../../riscv-gcc/libgcc/soft-fp/muldf3.c:47 (discriminator 9)
2001455e:	01000737          	lui	a4,0x1000
20014562:	8f61                	and	a4,a4,s0
20014564:	c719                	beqz	a4,20014572 <__muldf3+0x330>
/home/scratch/jenkins/workspace/tpp-freedom-tools/tpp04--build-binary-packages--parameterized/obj/x86_64-linux-centos6/build/riscv64-unknown-elf-gcc/build-gcc-stage2/riscv64-unknown-elf/rv32imac/ilp32/libgcc/../../../../../riscv-gcc/libgcc/soft-fp/muldf3.c:47 (discriminator 24)
20014566:	ff000737          	lui	a4,0xff000
2001456a:	177d                	addi	a4,a4,-1
2001456c:	8c79                	and	s0,s0,a4
2001456e:	40058693          	addi	a3,a1,1024
/home/scratch/jenkins/workspace/tpp-freedom-tools/tpp04--build-binary-packages--parameterized/obj/x86_64-linux-centos6/build/riscv64-unknown-elf-gcc/build-gcc-stage2/riscv64-unknown-elf/rv32imac/ilp32/libgcc/../../../../../riscv-gcc/libgcc/soft-fp/muldf3.c:47 (discriminator 26)
20014572:	7fe00713          	li	a4,2046
20014576:	0ed74e63          	blt	a4,a3,20014672 <__muldf3+0x430>
/home/scratch/jenkins/workspace/tpp-freedom-tools/tpp04--build-binary-packages--parameterized/obj/x86_64-linux-centos6/build/riscv64-unknown-elf-gcc/build-gcc-stage2/riscv64-unknown-elf/rv32imac/ilp32/libgcc/../../../../../riscv-gcc/libgcc/soft-fp/muldf3.c:47
2001457a:	0037d713          	srli	a4,a5,0x3
2001457e:	01d41793          	slli	a5,s0,0x1d
20014582:	8fd9                	or	a5,a5,a4
20014584:	800d                	srli	s0,s0,0x3
/home/scratch/jenkins/workspace/tpp-freedom-tools/tpp04--build-binary-packages--parameterized/obj/x86_64-linux-centos6/build/riscv64-unknown-elf-gcc/build-gcc-stage2/riscv64-unknown-elf/rv32imac/ilp32/libgcc/../../../../../riscv-gcc/libgcc/soft-fp/muldf3.c:47 (discriminator 119)
20014586:	01469713          	slli	a4,a3,0x14
2001458a:	0432                	slli	s0,s0,0xc
2001458c:	7ff006b7          	lui	a3,0x7ff00
20014590:	8f75                	and	a4,a4,a3
20014592:	8031                	srli	s0,s0,0xc
20014594:	8c59                	or	s0,s0,a4
20014596:	067e                	slli	a2,a2,0x1f
/home/scratch/jenkins/workspace/tpp-freedom-tools/tpp04--build-binary-packages--parameterized/obj/x86_64-linux-centos6/build/riscv64-unknown-elf-gcc/build-gcc-stage2/riscv64-unknown-elf/rv32imac/ilp32/libgcc/../../../../../riscv-gcc/libgcc/soft-fp/muldf3.c:51 (discriminator 119)
20014598:	50b2                	lw	ra,44(sp)
/home/scratch/jenkins/workspace/tpp-freedom-tools/tpp04--build-binary-packages--parameterized/obj/x86_64-linux-centos6/build/riscv64-unknown-elf-gcc/build-gcc-stage2/riscv64-unknown-elf/rv32imac/ilp32/libgcc/../../../../../riscv-gcc/libgcc/soft-fp/muldf3.c:47 (discriminator 119)
2001459a:	00c46733          	or	a4,s0,a2
/home/scratch/jenkins/workspace/tpp-freedom-tools/tpp04--build-binary-packages--parameterized/obj/x86_64-linux-centos6/build/riscv64-unknown-elf-gcc/build-gcc-stage2/riscv64-unknown-elf/rv32imac/ilp32/libgcc/../../../../../riscv-gcc/libgcc/soft-fp/muldf3.c:51 (discriminator 119)
2001459e:	5422                	lw	s0,40(sp)
200145a0:	5492                	lw	s1,36(sp)
200145a2:	5902                	lw	s2,32(sp)
200145a4:	49f2                	lw	s3,28(sp)
200145a6:	4a62                	lw	s4,24(sp)
200145a8:	4ad2                	lw	s5,20(sp)
200145aa:	4b42                	lw	s6,16(sp)
200145ac:	4bb2                	lw	s7,12(sp)
200145ae:	853e                	mv	a0,a5
200145b0:	85ba                	mv	a1,a4
200145b2:	6145                	addi	sp,sp,48
200145b4:	8082                	ret
/home/scratch/jenkins/workspace/tpp-freedom-tools/tpp04--build-binary-packages--parameterized/obj/x86_64-linux-centos6/build/riscv64-unknown-elf-gcc/build-gcc-stage2/riscv64-unknown-elf/rv32imac/ilp32/libgcc/../../../../../riscv-gcc/libgcc/soft-fp/muldf3.c:44 (discriminator 7)
200145b6:	8652                	mv	a2,s4
/home/scratch/jenkins/workspace/tpp-freedom-tools/tpp04--build-binary-packages--parameterized/obj/x86_64-linux-centos6/build/riscv64-unknown-elf-gcc/build-gcc-stage2/riscv64-unknown-elf/rv32imac/ilp32/libgcc/../../../../../riscv-gcc/libgcc/soft-fp/muldf3.c:46 (discriminator 7)
200145b8:	8426                	mv	s0,s1
200145ba:	87ca                	mv	a5,s2
200145bc:	875a                	mv	a4,s6
/home/scratch/jenkins/workspace/tpp-freedom-tools/tpp04--build-binary-packages--parameterized/obj/x86_64-linux-centos6/build/riscv64-unknown-elf-gcc/build-gcc-stage2/riscv64-unknown-elf/rv32imac/ilp32/libgcc/../../../../../riscv-gcc/libgcc/soft-fp/muldf3.c:47 (discriminator 47)
200145be:	4689                	li	a3,2
200145c0:	0ad70963          	beq	a4,a3,20014672 <__muldf3+0x430>
/home/scratch/jenkins/workspace/tpp-freedom-tools/tpp04--build-binary-packages--parameterized/obj/x86_64-linux-centos6/build/riscv64-unknown-elf-gcc/build-gcc-stage2/riscv64-unknown-elf/rv32imac/ilp32/libgcc/../../../../../riscv-gcc/libgcc/soft-fp/muldf3.c:47
200145c4:	468d                	li	a3,3
200145c6:	08d70f63          	beq	a4,a3,20014664 <__muldf3+0x422>
200145ca:	4685                	li	a3,1
200145cc:	f6d717e3          	bne	a4,a3,2001453a <__muldf3+0x2f8>
200145d0:	4401                	li	s0,0
200145d2:	4781                	li	a5,0
200145d4:	a09d                	j	2001463a <__muldf3+0x3f8>
/home/scratch/jenkins/workspace/tpp-freedom-tools/tpp04--build-binary-packages--parameterized/obj/x86_64-linux-centos6/build/riscv64-unknown-elf-gcc/build-gcc-stage2/riscv64-unknown-elf/rv32imac/ilp32/libgcc/../../../../../riscv-gcc/libgcc/soft-fp/muldf3.c:45 (discriminator 4)
200145d6:	8656                	mv	a2,s5
/home/scratch/jenkins/workspace/tpp-freedom-tools/tpp04--build-binary-packages--parameterized/obj/x86_64-linux-centos6/build/riscv64-unknown-elf-gcc/build-gcc-stage2/riscv64-unknown-elf/rv32imac/ilp32/libgcc/../../../../../riscv-gcc/libgcc/soft-fp/muldf3.c:46 (discriminator 4)
200145d8:	b7dd                	j	200145be <__muldf3+0x37c>
/home/scratch/jenkins/workspace/tpp-freedom-tools/tpp04--build-binary-packages--parameterized/obj/x86_64-linux-centos6/build/riscv64-unknown-elf-gcc/build-gcc-stage2/riscv64-unknown-elf/rv32imac/ilp32/libgcc/../../../../../riscv-gcc/libgcc/soft-fp/muldf3.c:46
200145da:	85aa                	mv	a1,a0
200145dc:	bfb9                	j	2001453a <__muldf3+0x2f8>
/home/scratch/jenkins/workspace/tpp-freedom-tools/tpp04--build-binary-packages--parameterized/obj/x86_64-linux-centos6/build/riscv64-unknown-elf-gcc/build-gcc-stage2/riscv64-unknown-elf/rv32imac/ilp32/libgcc/../../../../../riscv-gcc/libgcc/soft-fp/muldf3.c:47 (discriminator 59)
200145de:	4505                	li	a0,1
200145e0:	8d15                	sub	a0,a0,a3
200145e2:	03800713          	li	a4,56
200145e6:	fea745e3          	blt	a4,a0,200145d0 <__muldf3+0x38e>
/home/scratch/jenkins/workspace/tpp-freedom-tools/tpp04--build-binary-packages--parameterized/obj/x86_64-linux-centos6/build/riscv64-unknown-elf-gcc/build-gcc-stage2/riscv64-unknown-elf/rv32imac/ilp32/libgcc/../../../../../riscv-gcc/libgcc/soft-fp/muldf3.c:47 (discriminator 60)
200145ea:	477d                	li	a4,31
200145ec:	04a74963          	blt	a4,a0,2001463e <__muldf3+0x3fc>
/home/scratch/jenkins/workspace/tpp-freedom-tools/tpp04--build-binary-packages--parameterized/obj/x86_64-linux-centos6/build/riscv64-unknown-elf-gcc/build-gcc-stage2/riscv64-unknown-elf/rv32imac/ilp32/libgcc/../../../../../riscv-gcc/libgcc/soft-fp/muldf3.c:47 (discriminator 62)
200145f0:	41e58593          	addi	a1,a1,1054
200145f4:	00b41733          	sll	a4,s0,a1
200145f8:	00a7d6b3          	srl	a3,a5,a0
200145fc:	00b797b3          	sll	a5,a5,a1
20014600:	8f55                	or	a4,a4,a3
20014602:	00f037b3          	snez	a5,a5
20014606:	8fd9                	or	a5,a5,a4
20014608:	00a45433          	srl	s0,s0,a0
/home/scratch/jenkins/workspace/tpp-freedom-tools/tpp04--build-binary-packages--parameterized/obj/x86_64-linux-centos6/build/riscv64-unknown-elf-gcc/build-gcc-stage2/riscv64-unknown-elf/rv32imac/ilp32/libgcc/../../../../../riscv-gcc/libgcc/soft-fp/muldf3.c:47 (discriminator 75)
2001460c:	0077f713          	andi	a4,a5,7
20014610:	cf01                	beqz	a4,20014628 <__muldf3+0x3e6>
/home/scratch/jenkins/workspace/tpp-freedom-tools/tpp04--build-binary-packages--parameterized/obj/x86_64-linux-centos6/build/riscv64-unknown-elf-gcc/build-gcc-stage2/riscv64-unknown-elf/rv32imac/ilp32/libgcc/../../../../../riscv-gcc/libgcc/soft-fp/muldf3.c:47 (discriminator 76)
20014612:	00f7f713          	andi	a4,a5,15
20014616:	4691                	li	a3,4
20014618:	00d70863          	beq	a4,a3,20014628 <__muldf3+0x3e6>
/home/scratch/jenkins/workspace/tpp-freedom-tools/tpp04--build-binary-packages--parameterized/obj/x86_64-linux-centos6/build/riscv64-unknown-elf-gcc/build-gcc-stage2/riscv64-unknown-elf/rv32imac/ilp32/libgcc/../../../../../riscv-gcc/libgcc/soft-fp/muldf3.c:47 (discriminator 78)
2001461c:	00478713          	addi	a4,a5,4
20014620:	00f737b3          	sltu	a5,a4,a5
20014624:	943e                	add	s0,s0,a5
20014626:	87ba                	mv	a5,a4
/home/scratch/jenkins/workspace/tpp-freedom-tools/tpp04--build-binary-packages--parameterized/obj/x86_64-linux-centos6/build/riscv64-unknown-elf-gcc/build-gcc-stage2/riscv64-unknown-elf/rv32imac/ilp32/libgcc/../../../../../riscv-gcc/libgcc/soft-fp/muldf3.c:47 (discriminator 77)
20014628:	00800737          	lui	a4,0x800
2001462c:	8f61                	and	a4,a4,s0
2001462e:	e739                	bnez	a4,2001467c <__muldf3+0x43a>
/home/scratch/jenkins/workspace/tpp-freedom-tools/tpp04--build-binary-packages--parameterized/obj/x86_64-linux-centos6/build/riscv64-unknown-elf-gcc/build-gcc-stage2/riscv64-unknown-elf/rv32imac/ilp32/libgcc/../../../../../riscv-gcc/libgcc/soft-fp/muldf3.c:47 (discriminator 93)
20014630:	01d41713          	slli	a4,s0,0x1d
20014634:	838d                	srli	a5,a5,0x3
20014636:	8fd9                	or	a5,a5,a4
20014638:	800d                	srli	s0,s0,0x3
/home/scratch/jenkins/workspace/tpp-freedom-tools/tpp04--build-binary-packages--parameterized/obj/x86_64-linux-centos6/build/riscv64-unknown-elf-gcc/build-gcc-stage2/riscv64-unknown-elf/rv32imac/ilp32/libgcc/../../../../../riscv-gcc/libgcc/soft-fp/muldf3.c:47
2001463a:	4681                	li	a3,0
2001463c:	b7a9                	j	20014586 <__muldf3+0x344>
/home/scratch/jenkins/workspace/tpp-freedom-tools/tpp04--build-binary-packages--parameterized/obj/x86_64-linux-centos6/build/riscv64-unknown-elf-gcc/build-gcc-stage2/riscv64-unknown-elf/rv32imac/ilp32/libgcc/../../../../../riscv-gcc/libgcc/soft-fp/muldf3.c:47 (discriminator 63)
2001463e:	5705                	li	a4,-31
20014640:	8f15                	sub	a4,a4,a3
20014642:	02000813          	li	a6,32
20014646:	00e45733          	srl	a4,s0,a4
2001464a:	4681                	li	a3,0
2001464c:	01050663          	beq	a0,a6,20014658 <__muldf3+0x416>
/home/scratch/jenkins/workspace/tpp-freedom-tools/tpp04--build-binary-packages--parameterized/obj/x86_64-linux-centos6/build/riscv64-unknown-elf-gcc/build-gcc-stage2/riscv64-unknown-elf/rv32imac/ilp32/libgcc/../../../../../riscv-gcc/libgcc/soft-fp/muldf3.c:47 (discriminator 71)
20014650:	43e58593          	addi	a1,a1,1086
20014654:	00b416b3          	sll	a3,s0,a1
/home/scratch/jenkins/workspace/tpp-freedom-tools/tpp04--build-binary-packages--parameterized/obj/x86_64-linux-centos6/build/riscv64-unknown-elf-gcc/build-gcc-stage2/riscv64-unknown-elf/rv32imac/ilp32/libgcc/../../../../../riscv-gcc/libgcc/soft-fp/muldf3.c:47 (discriminator 74)
20014658:	8fd5                	or	a5,a5,a3
2001465a:	00f037b3          	snez	a5,a5
2001465e:	8fd9                	or	a5,a5,a4
20014660:	4401                	li	s0,0
20014662:	b76d                	j	2001460c <__muldf3+0x3ca>
/home/scratch/jenkins/workspace/tpp-freedom-tools/tpp04--build-binary-packages--parameterized/obj/x86_64-linux-centos6/build/riscv64-unknown-elf-gcc/build-gcc-stage2/riscv64-unknown-elf/rv32imac/ilp32/libgcc/../../../../../riscv-gcc/libgcc/soft-fp/muldf3.c:47
20014664:	00080437          	lui	s0,0x80
20014668:	4781                	li	a5,0
2001466a:	7ff00693          	li	a3,2047
2001466e:	4601                	li	a2,0
20014670:	bf19                	j	20014586 <__muldf3+0x344>
20014672:	4401                	li	s0,0
20014674:	4781                	li	a5,0
20014676:	7ff00693          	li	a3,2047
2001467a:	b731                	j	20014586 <__muldf3+0x344>
2001467c:	4401                	li	s0,0
2001467e:	4781                	li	a5,0
20014680:	4685                	li	a3,1
20014682:	b711                	j	20014586 <__muldf3+0x344>

20014684 <__unorddf2>:
__unorddf2():
/home/scratch/jenkins/workspace/tpp-freedom-tools/tpp04--build-binary-packages--parameterized/obj/x86_64-linux-centos6/build/riscv64-unknown-elf-gcc/build-gcc-stage2/riscv64-unknown-elf/rv32imac/ilp32/libgcc/../../../../../riscv-gcc/libgcc/soft-fp/unorddf2.c:42
20014684:	00100737          	lui	a4,0x100
20014688:	fff70793          	addi	a5,a4,-1 # fffff <__heap_size+0xff7ff>
2001468c:	00b7f733          	and	a4,a5,a1
20014690:	81d1                	srli	a1,a1,0x14
/home/scratch/jenkins/workspace/tpp-freedom-tools/tpp04--build-binary-packages--parameterized/obj/x86_64-linux-centos6/build/riscv64-unknown-elf-gcc/build-gcc-stage2/riscv64-unknown-elf/rv32imac/ilp32/libgcc/../../../../../riscv-gcc/libgcc/soft-fp/unorddf2.c:43
20014692:	8ff5                	and	a5,a5,a3
/home/scratch/jenkins/workspace/tpp-freedom-tools/tpp04--build-binary-packages--parameterized/obj/x86_64-linux-centos6/build/riscv64-unknown-elf-gcc/build-gcc-stage2/riscv64-unknown-elf/rv32imac/ilp32/libgcc/../../../../../riscv-gcc/libgcc/soft-fp/unorddf2.c:42
20014694:	7ff5f593          	andi	a1,a1,2047
/home/scratch/jenkins/workspace/tpp-freedom-tools/tpp04--build-binary-packages--parameterized/obj/x86_64-linux-centos6/build/riscv64-unknown-elf-gcc/build-gcc-stage2/riscv64-unknown-elf/rv32imac/ilp32/libgcc/../../../../../riscv-gcc/libgcc/soft-fp/unorddf2.c:43
20014698:	82d1                	srli	a3,a3,0x14
/home/scratch/jenkins/workspace/tpp-freedom-tools/tpp04--build-binary-packages--parameterized/obj/x86_64-linux-centos6/build/riscv64-unknown-elf-gcc/build-gcc-stage2/riscv64-unknown-elf/rv32imac/ilp32/libgcc/../../../../../riscv-gcc/libgcc/soft-fp/unorddf2.c:44
2001469a:	7ff00813          	li	a6,2047
/home/scratch/jenkins/workspace/tpp-freedom-tools/tpp04--build-binary-packages--parameterized/obj/x86_64-linux-centos6/build/riscv64-unknown-elf-gcc/build-gcc-stage2/riscv64-unknown-elf/rv32imac/ilp32/libgcc/../../../../../riscv-gcc/libgcc/soft-fp/unorddf2.c:43
2001469e:	7ff6f693          	andi	a3,a3,2047
/home/scratch/jenkins/workspace/tpp-freedom-tools/tpp04--build-binary-packages--parameterized/obj/x86_64-linux-centos6/build/riscv64-unknown-elf-gcc/build-gcc-stage2/riscv64-unknown-elf/rv32imac/ilp32/libgcc/../../../../../riscv-gcc/libgcc/soft-fp/unorddf2.c:44
200146a2:	01059563          	bne	a1,a6,200146ac <__unorddf2+0x28>
/home/scratch/jenkins/workspace/tpp-freedom-tools/tpp04--build-binary-packages--parameterized/obj/x86_64-linux-centos6/build/riscv64-unknown-elf-gcc/build-gcc-stage2/riscv64-unknown-elf/rv32imac/ilp32/libgcc/../../../../../riscv-gcc/libgcc/soft-fp/unorddf2.c:44 (discriminator 20)
200146a6:	8f49                	or	a4,a4,a0
200146a8:	4505                	li	a0,1
200146aa:	eb09                	bnez	a4,200146bc <__unorddf2+0x38>
/home/scratch/jenkins/workspace/tpp-freedom-tools/tpp04--build-binary-packages--parameterized/obj/x86_64-linux-centos6/build/riscv64-unknown-elf-gcc/build-gcc-stage2/riscv64-unknown-elf/rv32imac/ilp32/libgcc/../../../../../riscv-gcc/libgcc/soft-fp/unorddf2.c:44 (discriminator 23)
200146ac:	7ff00713          	li	a4,2047
200146b0:	4501                	li	a0,0
200146b2:	00e69563          	bne	a3,a4,200146bc <__unorddf2+0x38>
/home/scratch/jenkins/workspace/tpp-freedom-tools/tpp04--build-binary-packages--parameterized/obj/x86_64-linux-centos6/build/riscv64-unknown-elf-gcc/build-gcc-stage2/riscv64-unknown-elf/rv32imac/ilp32/libgcc/../../../../../riscv-gcc/libgcc/soft-fp/unorddf2.c:44 (discriminator 24)
200146b6:	8fd1                	or	a5,a5,a2
200146b8:	00f03533          	snez	a0,a5
/home/scratch/jenkins/workspace/tpp-freedom-tools/tpp04--build-binary-packages--parameterized/obj/x86_64-linux-centos6/build/riscv64-unknown-elf-gcc/build-gcc-stage2/riscv64-unknown-elf/rv32imac/ilp32/libgcc/../../../../../riscv-gcc/libgcc/soft-fp/unorddf2.c:48
200146bc:	8082                	ret

200146be <metal_init>:
metal_init():
/home/nicoladgg/wsFreedomStudio/sifive_hifive1_revb_hello/freedom-metal/src/init.c:17
200146be:	1101                	addi	sp,sp,-32
200146c0:	ce06                	sw	ra,28(sp)
200146c2:	cc22                	sw	s0,24(sp)
200146c4:	1000                	addi	s0,sp,32
/home/nicoladgg/wsFreedomStudio/sifive_hifive1_revb_hello/freedom-metal/src/init.c:20
200146c6:	800017b7          	lui	a5,0x80001
200146ca:	ad87a783          	lw	a5,-1320(a5) # 80000ad8 <metal_segment_heap_target_end+0xfffff0f8>
200146ce:	efa9                	bnez	a5,20014728 <metal_init+0x6a>
/home/nicoladgg/wsFreedomStudio/sifive_hifive1_revb_hello/freedom-metal/src/init.c:23
200146d0:	800017b7          	lui	a5,0x80001
200146d4:	4705                	li	a4,1
200146d6:	ace7ac23          	sw	a4,-1320(a5) # 80000ad8 <metal_segment_heap_target_end+0xfffff0f8>
/home/nicoladgg/wsFreedomStudio/sifive_hifive1_revb_hello/freedom-metal/src/init.c:25
200146da:	200107b7          	lui	a5,0x20010
200146de:	2ec78713          	addi	a4,a5,748 # 200102ec <metal_tty_init>
200146e2:	200107b7          	lui	a5,0x20010
200146e6:	2e078793          	addi	a5,a5,736 # 200102e0 <_metal_tty_init_ptr>
200146ea:	04e7f163          	bgeu	a5,a4,2001472c <metal_init+0x6e>
/home/nicoladgg/wsFreedomStudio/sifive_hifive1_revb_hello/freedom-metal/src/init.c:29
200146ee:	200107b7          	lui	a5,0x20010
200146f2:	2e078793          	addi	a5,a5,736 # 200102e0 <_metal_tty_init_ptr>
200146f6:	fef42623          	sw	a5,-20(s0) # 7ffec <__heap_size+0x7f7ec>
/home/nicoladgg/wsFreedomStudio/sifive_hifive1_revb_hello/freedom-metal/src/init.c:30
200146fa:	a831                	j	20014716 <metal_init+0x58>
/home/nicoladgg/wsFreedomStudio/sifive_hifive1_revb_hello/freedom-metal/src/init.c:31
200146fc:	fec42783          	lw	a5,-20(s0)
20014700:	439c                	lw	a5,0(a5)
20014702:	fef42423          	sw	a5,-24(s0)
/home/nicoladgg/wsFreedomStudio/sifive_hifive1_revb_hello/freedom-metal/src/init.c:33
20014706:	fe842783          	lw	a5,-24(s0)
2001470a:	9782                	jalr	a5
/home/nicoladgg/wsFreedomStudio/sifive_hifive1_revb_hello/freedom-metal/src/init.c:35
2001470c:	fec42783          	lw	a5,-20(s0)
20014710:	0791                	addi	a5,a5,4
20014712:	fef42623          	sw	a5,-20(s0)
/home/nicoladgg/wsFreedomStudio/sifive_hifive1_revb_hello/freedom-metal/src/init.c:30
20014716:	fec42703          	lw	a4,-20(s0)
2001471a:	200107b7          	lui	a5,0x20010
2001471e:	2ec78793          	addi	a5,a5,748 # 200102ec <metal_tty_init>
20014722:	fcf71de3          	bne	a4,a5,200146fc <metal_init+0x3e>
20014726:	a021                	j	2001472e <metal_init+0x70>
/home/nicoladgg/wsFreedomStudio/sifive_hifive1_revb_hello/freedom-metal/src/init.c:21
20014728:	0001                	nop
2001472a:	a011                	j	2001472e <metal_init+0x70>
/home/nicoladgg/wsFreedomStudio/sifive_hifive1_revb_hello/freedom-metal/src/init.c:26
2001472c:	0001                	nop
/home/nicoladgg/wsFreedomStudio/sifive_hifive1_revb_hello/freedom-metal/src/init.c:37
2001472e:	40f2                	lw	ra,28(sp)
20014730:	4462                	lw	s0,24(sp)
20014732:	6105                	addi	sp,sp,32
20014734:	8082                	ret

20014736 <metal_fini>:
metal_fini():
/home/nicoladgg/wsFreedomStudio/sifive_hifive1_revb_hello/freedom-metal/src/init.c:39
20014736:	1101                	addi	sp,sp,-32
20014738:	ce06                	sw	ra,28(sp)
2001473a:	cc22                	sw	s0,24(sp)
2001473c:	1000                	addi	s0,sp,32
/home/nicoladgg/wsFreedomStudio/sifive_hifive1_revb_hello/freedom-metal/src/init.c:42
2001473e:	800017b7          	lui	a5,0x80001
20014742:	adc7a783          	lw	a5,-1316(a5) # 80000adc <metal_segment_heap_target_end+0xfffff0fc>
20014746:	efa9                	bnez	a5,200147a0 <metal_fini+0x6a>
/home/nicoladgg/wsFreedomStudio/sifive_hifive1_revb_hello/freedom-metal/src/init.c:45
20014748:	800017b7          	lui	a5,0x80001
2001474c:	4705                	li	a4,1
2001474e:	ace7ae23          	sw	a4,-1316(a5) # 80000adc <metal_segment_heap_target_end+0xfffff0fc>
/home/nicoladgg/wsFreedomStudio/sifive_hifive1_revb_hello/freedom-metal/src/init.c:47
20014752:	200107b7          	lui	a5,0x20010
20014756:	2f078713          	addi	a4,a5,752 # 200102f0 <__fini_array_end>
2001475a:	200107b7          	lui	a5,0x20010
2001475e:	2f078793          	addi	a5,a5,752 # 200102f0 <__fini_array_end>
20014762:	04e7f163          	bgeu	a5,a4,200147a4 <metal_fini+0x6e>
/home/nicoladgg/wsFreedomStudio/sifive_hifive1_revb_hello/freedom-metal/src/init.c:51
20014766:	200107b7          	lui	a5,0x20010
2001476a:	2f078793          	addi	a5,a5,752 # 200102f0 <__fini_array_end>
2001476e:	fef42623          	sw	a5,-20(s0)
/home/nicoladgg/wsFreedomStudio/sifive_hifive1_revb_hello/freedom-metal/src/init.c:52
20014772:	a831                	j	2001478e <metal_fini+0x58>
/home/nicoladgg/wsFreedomStudio/sifive_hifive1_revb_hello/freedom-metal/src/init.c:53
20014774:	fec42783          	lw	a5,-20(s0)
20014778:	439c                	lw	a5,0(a5)
2001477a:	fef42423          	sw	a5,-24(s0)
/home/nicoladgg/wsFreedomStudio/sifive_hifive1_revb_hello/freedom-metal/src/init.c:55
2001477e:	fe842783          	lw	a5,-24(s0)
20014782:	9782                	jalr	a5
/home/nicoladgg/wsFreedomStudio/sifive_hifive1_revb_hello/freedom-metal/src/init.c:57
20014784:	fec42783          	lw	a5,-20(s0)
20014788:	0791                	addi	a5,a5,4
2001478a:	fef42623          	sw	a5,-20(s0)
/home/nicoladgg/wsFreedomStudio/sifive_hifive1_revb_hello/freedom-metal/src/init.c:52
2001478e:	fec42703          	lw	a4,-20(s0)
20014792:	200107b7          	lui	a5,0x20010
20014796:	2f078793          	addi	a5,a5,752 # 200102f0 <__fini_array_end>
2001479a:	fcf71de3          	bne	a4,a5,20014774 <metal_fini+0x3e>
2001479e:	a021                	j	200147a6 <metal_fini+0x70>
/home/nicoladgg/wsFreedomStudio/sifive_hifive1_revb_hello/freedom-metal/src/init.c:43
200147a0:	0001                	nop
200147a2:	a011                	j	200147a6 <metal_fini+0x70>
/home/nicoladgg/wsFreedomStudio/sifive_hifive1_revb_hello/freedom-metal/src/init.c:48
200147a4:	0001                	nop
/home/nicoladgg/wsFreedomStudio/sifive_hifive1_revb_hello/freedom-metal/src/init.c:59
200147a6:	40f2                	lw	ra,28(sp)
200147a8:	4462                	lw	s0,24(sp)
200147aa:	6105                	addi	sp,sp,32
200147ac:	8082                	ret

200147ae <metal_init_run>:
metal_init_run():
/home/nicoladgg/wsFreedomStudio/sifive_hifive1_revb_hello/freedom-metal/src/init.c:69
200147ae:	1141                	addi	sp,sp,-16
200147b0:	c606                	sw	ra,12(sp)
200147b2:	c422                	sw	s0,8(sp)
200147b4:	0800                	addi	s0,sp,16
200147b6:	3721                	jal	200146be <metal_init>
200147b8:	0001                	nop
200147ba:	40b2                	lw	ra,12(sp)
200147bc:	4422                	lw	s0,8(sp)
200147be:	0141                	addi	sp,sp,16
200147c0:	8082                	ret

200147c2 <metal_fini_run>:
metal_fini_run():
/home/nicoladgg/wsFreedomStudio/sifive_hifive1_revb_hello/freedom-metal/src/init.c:72
200147c2:	1141                	addi	sp,sp,-16
200147c4:	c606                	sw	ra,12(sp)
200147c6:	c422                	sw	s0,8(sp)
200147c8:	0800                	addi	s0,sp,16
200147ca:	37b5                	jal	20014736 <metal_fini>
200147cc:	0001                	nop
200147ce:	40b2                	lw	ra,12(sp)
200147d0:	4422                	lw	s0,8(sp)
200147d2:	0141                	addi	sp,sp,16
200147d4:	8082                	ret

200147d6 <metal_tty_putc>:
metal_tty_putc():
/home/nicoladgg/wsFreedomStudio/sifive_hifive1_revb_hello/freedom-metal/src/tty.c:12
200147d6:	1101                	addi	sp,sp,-32
200147d8:	ce06                	sw	ra,28(sp)
200147da:	cc22                	sw	s0,24(sp)
200147dc:	1000                	addi	s0,sp,32
200147de:	fea42623          	sw	a0,-20(s0)
/home/nicoladgg/wsFreedomStudio/sifive_hifive1_revb_hello/freedom-metal/src/tty.c:13
200147e2:	fec42583          	lw	a1,-20(s0)
200147e6:	800017b7          	lui	a5,0x80001
200147ea:	a3878513          	addi	a0,a5,-1480 # 80000a38 <metal_segment_heap_target_end+0xfffff058>
200147ee:	282d                	jal	20014828 <metal_uart_putc>
200147f0:	87aa                	mv	a5,a0
/home/nicoladgg/wsFreedomStudio/sifive_hifive1_revb_hello/freedom-metal/src/tty.c:14
200147f2:	853e                	mv	a0,a5
200147f4:	40f2                	lw	ra,28(sp)
200147f6:	4462                	lw	s0,24(sp)
200147f8:	6105                	addi	sp,sp,32
200147fa:	8082                	ret

200147fc <metal_uart_init>:
metal_uart_init():
/home/nicoladgg/wsFreedomStudio/sifive_hifive1_revb_hello/freedom-metal/metal/uart.h:59
200147fc:	1101                	addi	sp,sp,-32
200147fe:	ce06                	sw	ra,28(sp)
20014800:	cc22                	sw	s0,24(sp)
20014802:	1000                	addi	s0,sp,32
20014804:	fea42623          	sw	a0,-20(s0)
20014808:	feb42423          	sw	a1,-24(s0)
/home/nicoladgg/wsFreedomStudio/sifive_hifive1_revb_hello/freedom-metal/metal/uart.h:60
2001480c:	fec42783          	lw	a5,-20(s0)
20014810:	439c                	lw	a5,0(a5)
20014812:	439c                	lw	a5,0(a5)
20014814:	fe842583          	lw	a1,-24(s0)
20014818:	fec42503          	lw	a0,-20(s0)
2001481c:	9782                	jalr	a5
/home/nicoladgg/wsFreedomStudio/sifive_hifive1_revb_hello/freedom-metal/metal/uart.h:61
2001481e:	0001                	nop
20014820:	40f2                	lw	ra,28(sp)
20014822:	4462                	lw	s0,24(sp)
20014824:	6105                	addi	sp,sp,32
20014826:	8082                	ret

20014828 <metal_uart_putc>:
metal_uart_putc():
/home/nicoladgg/wsFreedomStudio/sifive_hifive1_revb_hello/freedom-metal/metal/uart.h:69
20014828:	1101                	addi	sp,sp,-32
2001482a:	ce06                	sw	ra,28(sp)
2001482c:	cc22                	sw	s0,24(sp)
2001482e:	1000                	addi	s0,sp,32
20014830:	fea42623          	sw	a0,-20(s0)
20014834:	feb42423          	sw	a1,-24(s0)
/home/nicoladgg/wsFreedomStudio/sifive_hifive1_revb_hello/freedom-metal/metal/uart.h:70
20014838:	fec42783          	lw	a5,-20(s0)
2001483c:	439c                	lw	a5,0(a5)
2001483e:	43dc                	lw	a5,4(a5)
20014840:	fe842583          	lw	a1,-24(s0)
20014844:	fec42503          	lw	a0,-20(s0)
20014848:	9782                	jalr	a5
2001484a:	87aa                	mv	a5,a0
/home/nicoladgg/wsFreedomStudio/sifive_hifive1_revb_hello/freedom-metal/metal/uart.h:71
2001484c:	853e                	mv	a0,a5
2001484e:	40f2                	lw	ra,28(sp)
20014850:	4462                	lw	s0,24(sp)
20014852:	6105                	addi	sp,sp,32
20014854:	8082                	ret

20014856 <metal_uart_set_baud_rate>:
metal_uart_set_baud_rate():
/home/nicoladgg/wsFreedomStudio/sifive_hifive1_revb_hello/freedom-metal/metal/uart.h:111
20014856:	1101                	addi	sp,sp,-32
20014858:	ce06                	sw	ra,28(sp)
2001485a:	cc22                	sw	s0,24(sp)
2001485c:	1000                	addi	s0,sp,32
2001485e:	fea42623          	sw	a0,-20(s0)
20014862:	feb42423          	sw	a1,-24(s0)
/home/nicoladgg/wsFreedomStudio/sifive_hifive1_revb_hello/freedom-metal/metal/uart.h:112
20014866:	fec42783          	lw	a5,-20(s0)
2001486a:	439c                	lw	a5,0(a5)
2001486c:	4bdc                	lw	a5,20(a5)
2001486e:	fe842583          	lw	a1,-24(s0)
20014872:	fec42503          	lw	a0,-20(s0)
20014876:	9782                	jalr	a5
20014878:	87aa                	mv	a5,a0
/home/nicoladgg/wsFreedomStudio/sifive_hifive1_revb_hello/freedom-metal/metal/uart.h:113
2001487a:	853e                	mv	a0,a5
2001487c:	40f2                	lw	ra,28(sp)
2001487e:	4462                	lw	s0,24(sp)
20014880:	6105                	addi	sp,sp,32
20014882:	8082                	ret

20014884 <__metal_driver_sifive_clint0_control_base>:
__metal_driver_sifive_clint0_control_base():
/home/nicoladgg/wsFreedomStudio/sifive_hifive1_revb_hello/bsp/build/debug/./metal/machine.h:233
20014884:	1101                	addi	sp,sp,-32
20014886:	ce22                	sw	s0,28(sp)
20014888:	1000                	addi	s0,sp,32
2001488a:	fea42623          	sw	a0,-20(s0)
/home/nicoladgg/wsFreedomStudio/sifive_hifive1_revb_hello/bsp/build/debug/./metal/machine.h:234
2001488e:	fec42703          	lw	a4,-20(s0)
20014892:	81018793          	addi	a5,gp,-2032 # 80000ab0 <__metal_dt_clint_2000000>
20014896:	00f71563          	bne	a4,a5,200148a0 <__metal_driver_sifive_clint0_control_base+0x1c>
/home/nicoladgg/wsFreedomStudio/sifive_hifive1_revb_hello/bsp/build/debug/./metal/machine.h:235
2001489a:	020007b7          	lui	a5,0x2000
2001489e:	a011                	j	200148a2 <__metal_driver_sifive_clint0_control_base+0x1e>
/home/nicoladgg/wsFreedomStudio/sifive_hifive1_revb_hello/bsp/build/debug/./metal/machine.h:238
200148a0:	4781                	li	a5,0
/home/nicoladgg/wsFreedomStudio/sifive_hifive1_revb_hello/bsp/build/debug/./metal/machine.h:240
200148a2:	853e                	mv	a0,a5
200148a4:	4472                	lw	s0,28(sp)
200148a6:	6105                	addi	sp,sp,32
200148a8:	8082                	ret

200148aa <__metal_driver_sifive_clint0_num_interrupts>:
__metal_driver_sifive_clint0_num_interrupts():
/home/nicoladgg/wsFreedomStudio/sifive_hifive1_revb_hello/bsp/build/debug/./metal/machine.h:253
200148aa:	1101                	addi	sp,sp,-32
200148ac:	ce22                	sw	s0,28(sp)
200148ae:	1000                	addi	s0,sp,32
200148b0:	fea42623          	sw	a0,-20(s0)
/home/nicoladgg/wsFreedomStudio/sifive_hifive1_revb_hello/bsp/build/debug/./metal/machine.h:254
200148b4:	fec42703          	lw	a4,-20(s0)
200148b8:	81018793          	addi	a5,gp,-2032 # 80000ab0 <__metal_dt_clint_2000000>
200148bc:	00f71463          	bne	a4,a5,200148c4 <__metal_driver_sifive_clint0_num_interrupts+0x1a>
/home/nicoladgg/wsFreedomStudio/sifive_hifive1_revb_hello/bsp/build/debug/./metal/machine.h:255
200148c0:	4789                	li	a5,2
200148c2:	a011                	j	200148c6 <__metal_driver_sifive_clint0_num_interrupts+0x1c>
/home/nicoladgg/wsFreedomStudio/sifive_hifive1_revb_hello/bsp/build/debug/./metal/machine.h:258
200148c4:	4781                	li	a5,0
/home/nicoladgg/wsFreedomStudio/sifive_hifive1_revb_hello/bsp/build/debug/./metal/machine.h:260
200148c6:	853e                	mv	a0,a5
200148c8:	4472                	lw	s0,28(sp)
200148ca:	6105                	addi	sp,sp,32
200148cc:	8082                	ret

200148ce <__metal_driver_sifive_clint0_interrupt_parents>:
__metal_driver_sifive_clint0_interrupt_parents():
/home/nicoladgg/wsFreedomStudio/sifive_hifive1_revb_hello/bsp/build/debug/./metal/machine.h:263
200148ce:	1101                	addi	sp,sp,-32
200148d0:	ce22                	sw	s0,28(sp)
200148d2:	1000                	addi	s0,sp,32
200148d4:	fea42623          	sw	a0,-20(s0)
200148d8:	feb42423          	sw	a1,-24(s0)
/home/nicoladgg/wsFreedomStudio/sifive_hifive1_revb_hello/bsp/build/debug/./metal/machine.h:264
200148dc:	fe842783          	lw	a5,-24(s0)
200148e0:	e791                	bnez	a5,200148ec <__metal_driver_sifive_clint0_interrupt_parents+0x1e>
/home/nicoladgg/wsFreedomStudio/sifive_hifive1_revb_hello/bsp/build/debug/./metal/machine.h:265
200148e2:	800007b7          	lui	a5,0x80000
200148e6:	09078793          	addi	a5,a5,144 # 80000090 <metal_segment_heap_target_end+0xffffe6b0>
200148ea:	a821                	j	20014902 <__metal_driver_sifive_clint0_interrupt_parents+0x34>
/home/nicoladgg/wsFreedomStudio/sifive_hifive1_revb_hello/bsp/build/debug/./metal/machine.h:267
200148ec:	fe842703          	lw	a4,-24(s0)
200148f0:	4785                	li	a5,1
200148f2:	00f71763          	bne	a4,a5,20014900 <__metal_driver_sifive_clint0_interrupt_parents+0x32>
/home/nicoladgg/wsFreedomStudio/sifive_hifive1_revb_hello/bsp/build/debug/./metal/machine.h:268
200148f6:	800007b7          	lui	a5,0x80000
200148fa:	09078793          	addi	a5,a5,144 # 80000090 <metal_segment_heap_target_end+0xffffe6b0>
200148fe:	a011                	j	20014902 <__metal_driver_sifive_clint0_interrupt_parents+0x34>
/home/nicoladgg/wsFreedomStudio/sifive_hifive1_revb_hello/bsp/build/debug/./metal/machine.h:271
20014900:	4781                	li	a5,0
/home/nicoladgg/wsFreedomStudio/sifive_hifive1_revb_hello/bsp/build/debug/./metal/machine.h:273
20014902:	853e                	mv	a0,a5
20014904:	4472                	lw	s0,28(sp)
20014906:	6105                	addi	sp,sp,32
20014908:	8082                	ret

2001490a <__metal_driver_sifive_clint0_interrupt_lines>:
__metal_driver_sifive_clint0_interrupt_lines():
/home/nicoladgg/wsFreedomStudio/sifive_hifive1_revb_hello/bsp/build/debug/./metal/machine.h:276
2001490a:	1101                	addi	sp,sp,-32
2001490c:	ce22                	sw	s0,28(sp)
2001490e:	1000                	addi	s0,sp,32
20014910:	fea42623          	sw	a0,-20(s0)
20014914:	feb42423          	sw	a1,-24(s0)
/home/nicoladgg/wsFreedomStudio/sifive_hifive1_revb_hello/bsp/build/debug/./metal/machine.h:277
20014918:	fe842783          	lw	a5,-24(s0)
2001491c:	e399                	bnez	a5,20014922 <__metal_driver_sifive_clint0_interrupt_lines+0x18>
/home/nicoladgg/wsFreedomStudio/sifive_hifive1_revb_hello/bsp/build/debug/./metal/machine.h:278
2001491e:	478d                	li	a5,3
20014920:	a809                	j	20014932 <__metal_driver_sifive_clint0_interrupt_lines+0x28>
/home/nicoladgg/wsFreedomStudio/sifive_hifive1_revb_hello/bsp/build/debug/./metal/machine.h:280
20014922:	fe842703          	lw	a4,-24(s0)
20014926:	4785                	li	a5,1
20014928:	00f71463          	bne	a4,a5,20014930 <__metal_driver_sifive_clint0_interrupt_lines+0x26>
/home/nicoladgg/wsFreedomStudio/sifive_hifive1_revb_hello/bsp/build/debug/./metal/machine.h:281
2001492c:	479d                	li	a5,7
2001492e:	a011                	j	20014932 <__metal_driver_sifive_clint0_interrupt_lines+0x28>
/home/nicoladgg/wsFreedomStudio/sifive_hifive1_revb_hello/bsp/build/debug/./metal/machine.h:284
20014930:	4781                	li	a5,0
/home/nicoladgg/wsFreedomStudio/sifive_hifive1_revb_hello/bsp/build/debug/./metal/machine.h:286
20014932:	853e                	mv	a0,a5
20014934:	4472                	lw	s0,28(sp)
20014936:	6105                	addi	sp,sp,32
20014938:	8082                	ret

2001493a <__metal_clint0_mtime_get>:
__metal_clint0_mtime_get():
/home/nicoladgg/wsFreedomStudio/sifive_hifive1_revb_hello/freedom-metal/src/drivers/riscv_clint0.c:14
2001493a:	715d                	addi	sp,sp,-80
2001493c:	c686                	sw	ra,76(sp)
2001493e:	c4a2                	sw	s0,72(sp)
20014940:	c2ca                	sw	s2,68(sp)
20014942:	c0ce                	sw	s3,64(sp)
20014944:	de52                	sw	s4,60(sp)
20014946:	dc56                	sw	s5,56(sp)
20014948:	da5a                	sw	s6,52(sp)
2001494a:	d85e                	sw	s7,48(sp)
2001494c:	d662                	sw	s8,44(sp)
2001494e:	d466                	sw	s9,40(sp)
20014950:	0880                	addi	s0,sp,80
20014952:	faa42e23          	sw	a0,-68(s0)
/home/nicoladgg/wsFreedomStudio/sifive_hifive1_revb_hello/freedom-metal/src/drivers/riscv_clint0.c:17
20014956:	fbc42783          	lw	a5,-68(s0)
2001495a:	853e                	mv	a0,a5
2001495c:	3725                	jal	20014884 <__metal_driver_sifive_clint0_control_base>
2001495e:	fca42623          	sw	a0,-52(s0)
/home/nicoladgg/wsFreedomStudio/sifive_hifive1_revb_hello/freedom-metal/src/drivers/riscv_clint0.c:21 (discriminator 1)
20014962:	fcc42703          	lw	a4,-52(s0)
20014966:	67b1                	lui	a5,0xc
20014968:	17f1                	addi	a5,a5,-4
2001496a:	97ba                	add	a5,a5,a4
2001496c:	439c                	lw	a5,0(a5)
2001496e:	fcf42423          	sw	a5,-56(s0)
/home/nicoladgg/wsFreedomStudio/sifive_hifive1_revb_hello/freedom-metal/src/drivers/riscv_clint0.c:23 (discriminator 1)
20014972:	fcc42703          	lw	a4,-52(s0)
20014976:	67b1                	lui	a5,0xc
20014978:	17e1                	addi	a5,a5,-8
2001497a:	97ba                	add	a5,a5,a4
2001497c:	439c                	lw	a5,0(a5)
2001497e:	fcf42223          	sw	a5,-60(s0)
/home/nicoladgg/wsFreedomStudio/sifive_hifive1_revb_hello/freedom-metal/src/drivers/riscv_clint0.c:25 (discriminator 1)
20014982:	fcc42703          	lw	a4,-52(s0)
20014986:	67b1                	lui	a5,0xc
20014988:	17f1                	addi	a5,a5,-4
2001498a:	97ba                	add	a5,a5,a4
2001498c:	439c                	lw	a5,0(a5)
2001498e:	fc842703          	lw	a4,-56(s0)
20014992:	fcf718e3          	bne	a4,a5,20014962 <__metal_clint0_mtime_get+0x28>
/home/nicoladgg/wsFreedomStudio/sifive_hifive1_revb_hello/freedom-metal/src/drivers/riscv_clint0.c:29
20014996:	fc842783          	lw	a5,-56(s0)
2001499a:	8c3e                	mv	s8,a5
2001499c:	4c81                	li	s9,0
2001499e:	000c1993          	slli	s3,s8,0x0
200149a2:	4901                	li	s2,0
200149a4:	fc442783          	lw	a5,-60(s0)
200149a8:	8a3e                	mv	s4,a5
200149aa:	4a81                	li	s5,0
200149ac:	01496b33          	or	s6,s2,s4
200149b0:	0159ebb3          	or	s7,s3,s5
200149b4:	875a                	mv	a4,s6
200149b6:	87de                	mv	a5,s7
/home/nicoladgg/wsFreedomStudio/sifive_hifive1_revb_hello/freedom-metal/src/drivers/riscv_clint0.c:30
200149b8:	853a                	mv	a0,a4
200149ba:	85be                	mv	a1,a5
200149bc:	40b6                	lw	ra,76(sp)
200149be:	4426                	lw	s0,72(sp)
200149c0:	4916                	lw	s2,68(sp)
200149c2:	4986                	lw	s3,64(sp)
200149c4:	5a72                	lw	s4,60(sp)
200149c6:	5ae2                	lw	s5,56(sp)
200149c8:	5b52                	lw	s6,52(sp)
200149ca:	5bc2                	lw	s7,48(sp)
200149cc:	5c32                	lw	s8,44(sp)
200149ce:	5ca2                	lw	s9,40(sp)
200149d0:	6161                	addi	sp,sp,80
200149d2:	8082                	ret

200149d4 <__metal_driver_riscv_clint0_mtimecmp_set>:
__metal_driver_riscv_clint0_mtimecmp_set():
/home/nicoladgg/wsFreedomStudio/sifive_hifive1_revb_hello/freedom-metal/src/drivers/riscv_clint0.c:34
200149d4:	7179                	addi	sp,sp,-48
200149d6:	d606                	sw	ra,44(sp)
200149d8:	d422                	sw	s0,40(sp)
200149da:	d24a                	sw	s2,36(sp)
200149dc:	d04e                	sw	s3,32(sp)
200149de:	1800                	addi	s0,sp,48
200149e0:	fca42e23          	sw	a0,-36(s0)
200149e4:	fcb42c23          	sw	a1,-40(s0)
200149e8:	fcc42823          	sw	a2,-48(s0)
200149ec:	fcd42a23          	sw	a3,-44(s0)
/home/nicoladgg/wsFreedomStudio/sifive_hifive1_revb_hello/freedom-metal/src/drivers/riscv_clint0.c:35
200149f0:	fdc42783          	lw	a5,-36(s0)
200149f4:	fef42623          	sw	a5,-20(s0)
/home/nicoladgg/wsFreedomStudio/sifive_hifive1_revb_hello/freedom-metal/src/drivers/riscv_clint0.c:38
200149f8:	fec42783          	lw	a5,-20(s0)
200149fc:	853e                	mv	a0,a5
200149fe:	3559                	jal	20014884 <__metal_driver_sifive_clint0_control_base>
20014a00:	fea42423          	sw	a0,-24(s0)
/home/nicoladgg/wsFreedomStudio/sifive_hifive1_revb_hello/freedom-metal/src/drivers/riscv_clint0.c:45
20014a04:	fd842783          	lw	a5,-40(s0)
20014a08:	078e                	slli	a5,a5,0x3
20014a0a:	873e                	mv	a4,a5
20014a0c:	fe842783          	lw	a5,-24(s0)
20014a10:	973e                	add	a4,a4,a5
20014a12:	6791                	lui	a5,0x4
20014a14:	0791                	addi	a5,a5,4
20014a16:	97ba                	add	a5,a5,a4
20014a18:	873e                	mv	a4,a5
/home/nicoladgg/wsFreedomStudio/sifive_hifive1_revb_hello/freedom-metal/src/drivers/riscv_clint0.c:47
20014a1a:	57fd                	li	a5,-1
20014a1c:	c31c                	sw	a5,0(a4)
/home/nicoladgg/wsFreedomStudio/sifive_hifive1_revb_hello/freedom-metal/src/drivers/riscv_clint0.c:48
20014a1e:	fd842783          	lw	a5,-40(s0)
20014a22:	078e                	slli	a5,a5,0x3
20014a24:	873e                	mv	a4,a5
20014a26:	fe842783          	lw	a5,-24(s0)
20014a2a:	973e                	add	a4,a4,a5
20014a2c:	6791                	lui	a5,0x4
20014a2e:	97ba                	add	a5,a5,a4
20014a30:	873e                	mv	a4,a5
/home/nicoladgg/wsFreedomStudio/sifive_hifive1_revb_hello/freedom-metal/src/drivers/riscv_clint0.c:50
20014a32:	fd042783          	lw	a5,-48(s0)
/home/nicoladgg/wsFreedomStudio/sifive_hifive1_revb_hello/freedom-metal/src/drivers/riscv_clint0.c:49
20014a36:	c31c                	sw	a5,0(a4)
/home/nicoladgg/wsFreedomStudio/sifive_hifive1_revb_hello/freedom-metal/src/drivers/riscv_clint0.c:53
20014a38:	fd442783          	lw	a5,-44(s0)
20014a3c:	0007d913          	srli	s2,a5,0x0
20014a40:	4981                	li	s3,0
/home/nicoladgg/wsFreedomStudio/sifive_hifive1_revb_hello/freedom-metal/src/drivers/riscv_clint0.c:51
20014a42:	fd842783          	lw	a5,-40(s0)
20014a46:	078e                	slli	a5,a5,0x3
20014a48:	873e                	mv	a4,a5
20014a4a:	fe842783          	lw	a5,-24(s0)
20014a4e:	973e                	add	a4,a4,a5
20014a50:	6791                	lui	a5,0x4
20014a52:	0791                	addi	a5,a5,4
20014a54:	97ba                	add	a5,a5,a4
/home/nicoladgg/wsFreedomStudio/sifive_hifive1_revb_hello/freedom-metal/src/drivers/riscv_clint0.c:53
20014a56:	874a                	mv	a4,s2
20014a58:	c398                	sw	a4,0(a5)
/home/nicoladgg/wsFreedomStudio/sifive_hifive1_revb_hello/freedom-metal/src/drivers/riscv_clint0.c:54
20014a5a:	4781                	li	a5,0
/home/nicoladgg/wsFreedomStudio/sifive_hifive1_revb_hello/freedom-metal/src/drivers/riscv_clint0.c:55
20014a5c:	853e                	mv	a0,a5
20014a5e:	50b2                	lw	ra,44(sp)
20014a60:	5422                	lw	s0,40(sp)
20014a62:	5912                	lw	s2,36(sp)
20014a64:	5982                	lw	s3,32(sp)
20014a66:	6145                	addi	sp,sp,48
20014a68:	8082                	ret

20014a6a <_get_cpu_intc>:
_get_cpu_intc():
/home/nicoladgg/wsFreedomStudio/sifive_hifive1_revb_hello/freedom-metal/src/drivers/riscv_clint0.c:57
20014a6a:	1101                	addi	sp,sp,-32
20014a6c:	ce06                	sw	ra,28(sp)
20014a6e:	cc22                	sw	s0,24(sp)
20014a70:	1000                	addi	s0,sp,32
/home/nicoladgg/wsFreedomStudio/sifive_hifive1_revb_hello/freedom-metal/src/drivers/riscv_clint0.c:58
20014a72:	fe042623          	sw	zero,-20(s0)
/home/nicoladgg/wsFreedomStudio/sifive_hifive1_revb_hello/freedom-metal/src/drivers/riscv_clint0.c:59
20014a76:	f14027f3          	csrr	a5,mhartid
20014a7a:	fef42623          	sw	a5,-20(s0)
/home/nicoladgg/wsFreedomStudio/sifive_hifive1_revb_hello/freedom-metal/src/drivers/riscv_clint0.c:62
20014a7e:	fec42783          	lw	a5,-20(s0)
20014a82:	853e                	mv	a0,a5
20014a84:	458040ef          	jal	ra,20018edc <metal_cpu_get>
20014a88:	fea42423          	sw	a0,-24(s0)
/home/nicoladgg/wsFreedomStudio/sifive_hifive1_revb_hello/freedom-metal/src/drivers/riscv_clint0.c:64
20014a8c:	fe842503          	lw	a0,-24(s0)
20014a90:	426040ef          	jal	ra,20018eb6 <metal_cpu_interrupt_controller>
20014a94:	87aa                	mv	a5,a0
/home/nicoladgg/wsFreedomStudio/sifive_hifive1_revb_hello/freedom-metal/src/drivers/riscv_clint0.c:65
20014a96:	853e                	mv	a0,a5
20014a98:	40f2                	lw	ra,28(sp)
20014a9a:	4462                	lw	s0,24(sp)
20014a9c:	6105                	addi	sp,sp,32
20014a9e:	8082                	ret

20014aa0 <__metal_driver_riscv_clint0_init>:
__metal_driver_riscv_clint0_init():
/home/nicoladgg/wsFreedomStudio/sifive_hifive1_revb_hello/freedom-metal/src/drivers/riscv_clint0.c:67
20014aa0:	7139                	addi	sp,sp,-64
20014aa2:	de06                	sw	ra,60(sp)
20014aa4:	dc22                	sw	s0,56(sp)
20014aa6:	0080                	addi	s0,sp,64
20014aa8:	fca42623          	sw	a0,-52(s0)
/home/nicoladgg/wsFreedomStudio/sifive_hifive1_revb_hello/freedom-metal/src/drivers/riscv_clint0.c:69
20014aac:	fcc42503          	lw	a0,-52(s0)
20014ab0:	3bed                	jal	200148aa <__metal_driver_sifive_clint0_num_interrupts>
20014ab2:	fea42423          	sw	a0,-24(s0)
/home/nicoladgg/wsFreedomStudio/sifive_hifive1_revb_hello/freedom-metal/src/drivers/riscv_clint0.c:70
20014ab6:	fcc42783          	lw	a5,-52(s0)
20014aba:	fef42223          	sw	a5,-28(s0)
/home/nicoladgg/wsFreedomStudio/sifive_hifive1_revb_hello/freedom-metal/src/drivers/riscv_clint0.c:73
20014abe:	fe442783          	lw	a5,-28(s0)
20014ac2:	43dc                	lw	a5,4(a5)
20014ac4:	efa9                	bnez	a5,20014b1e <__metal_driver_riscv_clint0_init+0x7e>
/home/nicoladgg/wsFreedomStudio/sifive_hifive1_revb_hello/freedom-metal/src/drivers/riscv_clint0.c:76
20014ac6:	fe042623          	sw	zero,-20(s0)
20014aca:	a081                	j	20014b0a <__metal_driver_riscv_clint0_init+0x6a>
/home/nicoladgg/wsFreedomStudio/sifive_hifive1_revb_hello/freedom-metal/src/drivers/riscv_clint0.c:78 (discriminator 3)
20014acc:	fec42583          	lw	a1,-20(s0)
20014ad0:	fcc42503          	lw	a0,-52(s0)
20014ad4:	3bed                	jal	200148ce <__metal_driver_sifive_clint0_interrupt_parents>
20014ad6:	fea42023          	sw	a0,-32(s0)
/home/nicoladgg/wsFreedomStudio/sifive_hifive1_revb_hello/freedom-metal/src/drivers/riscv_clint0.c:80 (discriminator 3)
20014ada:	fec42583          	lw	a1,-20(s0)
20014ade:	fcc42503          	lw	a0,-52(s0)
20014ae2:	3525                	jal	2001490a <__metal_driver_sifive_clint0_interrupt_lines>
20014ae4:	fca42e23          	sw	a0,-36(s0)
/home/nicoladgg/wsFreedomStudio/sifive_hifive1_revb_hello/freedom-metal/src/drivers/riscv_clint0.c:81 (discriminator 3)
20014ae8:	fe042783          	lw	a5,-32(s0)
20014aec:	439c                	lw	a5,0(a5)
20014aee:	4fdc                	lw	a5,28(a5)
20014af0:	fcc42683          	lw	a3,-52(s0)
20014af4:	4601                	li	a2,0
20014af6:	fdc42583          	lw	a1,-36(s0)
20014afa:	fe042503          	lw	a0,-32(s0)
20014afe:	9782                	jalr	a5
/home/nicoladgg/wsFreedomStudio/sifive_hifive1_revb_hello/freedom-metal/src/drivers/riscv_clint0.c:76 (discriminator 3)
20014b00:	fec42783          	lw	a5,-20(s0)
20014b04:	0785                	addi	a5,a5,1
20014b06:	fef42623          	sw	a5,-20(s0)
/home/nicoladgg/wsFreedomStudio/sifive_hifive1_revb_hello/freedom-metal/src/drivers/riscv_clint0.c:76 (discriminator 1)
20014b0a:	fec42703          	lw	a4,-20(s0)
20014b0e:	fe842783          	lw	a5,-24(s0)
20014b12:	faf74de3          	blt	a4,a5,20014acc <__metal_driver_riscv_clint0_init+0x2c>
/home/nicoladgg/wsFreedomStudio/sifive_hifive1_revb_hello/freedom-metal/src/drivers/riscv_clint0.c:83
20014b16:	fe442783          	lw	a5,-28(s0)
20014b1a:	4705                	li	a4,1
20014b1c:	c3d8                	sw	a4,4(a5)
/home/nicoladgg/wsFreedomStudio/sifive_hifive1_revb_hello/freedom-metal/src/drivers/riscv_clint0.c:85
20014b1e:	0001                	nop
20014b20:	50f2                	lw	ra,60(sp)
20014b22:	5462                	lw	s0,56(sp)
20014b24:	6121                	addi	sp,sp,64
20014b26:	8082                	ret

20014b28 <__metal_driver_riscv_clint0_register>:
__metal_driver_riscv_clint0_register():
/home/nicoladgg/wsFreedomStudio/sifive_hifive1_revb_hello/freedom-metal/src/drivers/riscv_clint0.c:89
20014b28:	7139                	addi	sp,sp,-64
20014b2a:	de06                	sw	ra,60(sp)
20014b2c:	dc22                	sw	s0,56(sp)
20014b2e:	0080                	addi	s0,sp,64
20014b30:	fca42623          	sw	a0,-52(s0)
20014b34:	fcb42423          	sw	a1,-56(s0)
20014b38:	fcc42223          	sw	a2,-60(s0)
20014b3c:	fcd42023          	sw	a3,-64(s0)
/home/nicoladgg/wsFreedomStudio/sifive_hifive1_revb_hello/freedom-metal/src/drivers/riscv_clint0.c:90
20014b40:	57fd                	li	a5,-1
20014b42:	fef42623          	sw	a5,-20(s0)
/home/nicoladgg/wsFreedomStudio/sifive_hifive1_revb_hello/freedom-metal/src/drivers/riscv_clint0.c:91
20014b46:	44e010ef          	jal	ra,20015f94 <__metal_controller_interrupt_vector_mode>
20014b4a:	fea42023          	sw	a0,-32(s0)
/home/nicoladgg/wsFreedomStudio/sifive_hifive1_revb_hello/freedom-metal/src/drivers/riscv_clint0.c:92
20014b4e:	fe042423          	sw	zero,-24(s0)
/home/nicoladgg/wsFreedomStudio/sifive_hifive1_revb_hello/freedom-metal/src/drivers/riscv_clint0.c:93
20014b52:	3f21                	jal	20014a6a <_get_cpu_intc>
20014b54:	fca42e23          	sw	a0,-36(s0)
/home/nicoladgg/wsFreedomStudio/sifive_hifive1_revb_hello/freedom-metal/src/drivers/riscv_clint0.c:95
20014b58:	fcc42503          	lw	a0,-52(s0)
20014b5c:	33b9                	jal	200148aa <__metal_driver_sifive_clint0_num_interrupts>
20014b5e:	fca42c23          	sw	a0,-40(s0)
/home/nicoladgg/wsFreedomStudio/sifive_hifive1_revb_hello/freedom-metal/src/drivers/riscv_clint0.c:97
20014b62:	fe042703          	lw	a4,-32(s0)
20014b66:	4785                	li	a5,1
20014b68:	00f70863          	beq	a4,a5,20014b78 <__metal_driver_riscv_clint0_register+0x50>
/home/nicoladgg/wsFreedomStudio/sifive_hifive1_revb_hello/freedom-metal/src/drivers/riscv_clint0.c:97 (discriminator 1)
20014b6c:	fe042783          	lw	a5,-32(s0)
20014b70:	c781                	beqz	a5,20014b78 <__metal_driver_riscv_clint0_register+0x50>
/home/nicoladgg/wsFreedomStudio/sifive_hifive1_revb_hello/freedom-metal/src/drivers/riscv_clint0.c:98
20014b72:	fec42783          	lw	a5,-20(s0)
20014b76:	a049                	j	20014bf8 <__metal_driver_riscv_clint0_register+0xd0>
/home/nicoladgg/wsFreedomStudio/sifive_hifive1_revb_hello/freedom-metal/src/drivers/riscv_clint0.c:101
20014b78:	fe042223          	sw	zero,-28(s0)
20014b7c:	a091                	j	20014bc0 <__metal_driver_riscv_clint0_register+0x98>
/home/nicoladgg/wsFreedomStudio/sifive_hifive1_revb_hello/freedom-metal/src/drivers/riscv_clint0.c:102
20014b7e:	fe442583          	lw	a1,-28(s0)
20014b82:	fcc42503          	lw	a0,-52(s0)
20014b86:	3351                	jal	2001490a <__metal_driver_sifive_clint0_interrupt_lines>
20014b88:	fca42a23          	sw	a0,-44(s0)
/home/nicoladgg/wsFreedomStudio/sifive_hifive1_revb_hello/freedom-metal/src/drivers/riscv_clint0.c:103
20014b8c:	fe442583          	lw	a1,-28(s0)
20014b90:	fcc42503          	lw	a0,-52(s0)
20014b94:	3b2d                	jal	200148ce <__metal_driver_sifive_clint0_interrupt_parents>
20014b96:	fea42423          	sw	a0,-24(s0)
/home/nicoladgg/wsFreedomStudio/sifive_hifive1_revb_hello/freedom-metal/src/drivers/riscv_clint0.c:104
20014b9a:	fdc42703          	lw	a4,-36(s0)
20014b9e:	fe842783          	lw	a5,-24(s0)
20014ba2:	00f71863          	bne	a4,a5,20014bb2 <__metal_driver_riscv_clint0_register+0x8a>
/home/nicoladgg/wsFreedomStudio/sifive_hifive1_revb_hello/freedom-metal/src/drivers/riscv_clint0.c:104 (discriminator 1)
20014ba6:	fc842703          	lw	a4,-56(s0)
20014baa:	fd442783          	lw	a5,-44(s0)
20014bae:	02f70063          	beq	a4,a5,20014bce <__metal_driver_riscv_clint0_register+0xa6>
/home/nicoladgg/wsFreedomStudio/sifive_hifive1_revb_hello/freedom-metal/src/drivers/riscv_clint0.c:107 (discriminator 2)
20014bb2:	fe042423          	sw	zero,-24(s0)
/home/nicoladgg/wsFreedomStudio/sifive_hifive1_revb_hello/freedom-metal/src/drivers/riscv_clint0.c:101 (discriminator 2)
20014bb6:	fe442783          	lw	a5,-28(s0)
20014bba:	0785                	addi	a5,a5,1
20014bbc:	fef42223          	sw	a5,-28(s0)
/home/nicoladgg/wsFreedomStudio/sifive_hifive1_revb_hello/freedom-metal/src/drivers/riscv_clint0.c:101 (discriminator 1)
20014bc0:	fe442703          	lw	a4,-28(s0)
20014bc4:	fd842783          	lw	a5,-40(s0)
20014bc8:	faf74be3          	blt	a4,a5,20014b7e <__metal_driver_riscv_clint0_register+0x56>
20014bcc:	a011                	j	20014bd0 <__metal_driver_riscv_clint0_register+0xa8>
/home/nicoladgg/wsFreedomStudio/sifive_hifive1_revb_hello/freedom-metal/src/drivers/riscv_clint0.c:105
20014bce:	0001                	nop
/home/nicoladgg/wsFreedomStudio/sifive_hifive1_revb_hello/freedom-metal/src/drivers/riscv_clint0.c:111
20014bd0:	fe842783          	lw	a5,-24(s0)
20014bd4:	c385                	beqz	a5,20014bf4 <__metal_driver_riscv_clint0_register+0xcc>
/home/nicoladgg/wsFreedomStudio/sifive_hifive1_revb_hello/freedom-metal/src/drivers/riscv_clint0.c:112
20014bd6:	fe842783          	lw	a5,-24(s0)
20014bda:	439c                	lw	a5,0(a5)
20014bdc:	4fdc                	lw	a5,28(a5)
20014bde:	fc042683          	lw	a3,-64(s0)
20014be2:	fc442603          	lw	a2,-60(s0)
20014be6:	fc842583          	lw	a1,-56(s0)
20014bea:	fe842503          	lw	a0,-24(s0)
20014bee:	9782                	jalr	a5
20014bf0:	fea42623          	sw	a0,-20(s0)
/home/nicoladgg/wsFreedomStudio/sifive_hifive1_revb_hello/freedom-metal/src/drivers/riscv_clint0.c:114
20014bf4:	fec42783          	lw	a5,-20(s0)
/home/nicoladgg/wsFreedomStudio/sifive_hifive1_revb_hello/freedom-metal/src/drivers/riscv_clint0.c:115
20014bf8:	853e                	mv	a0,a5
20014bfa:	50f2                	lw	ra,60(sp)
20014bfc:	5462                	lw	s0,56(sp)
20014bfe:	6121                	addi	sp,sp,64
20014c00:	8082                	ret

20014c02 <__metal_driver_riscv_clint0_vector_register>:
__metal_driver_riscv_clint0_vector_register():
/home/nicoladgg/wsFreedomStudio/sifive_hifive1_revb_hello/freedom-metal/src/drivers/riscv_clint0.c:119
20014c02:	7179                	addi	sp,sp,-48
20014c04:	d622                	sw	s0,44(sp)
20014c06:	1800                	addi	s0,sp,48
20014c08:	fca42e23          	sw	a0,-36(s0)
20014c0c:	fcb42c23          	sw	a1,-40(s0)
20014c10:	fcc42a23          	sw	a2,-44(s0)
20014c14:	fcd42823          	sw	a3,-48(s0)
/home/nicoladgg/wsFreedomStudio/sifive_hifive1_revb_hello/freedom-metal/src/drivers/riscv_clint0.c:121
20014c18:	57fd                	li	a5,-1
20014c1a:	fef42623          	sw	a5,-20(s0)
/home/nicoladgg/wsFreedomStudio/sifive_hifive1_revb_hello/freedom-metal/src/drivers/riscv_clint0.c:122
20014c1e:	fec42783          	lw	a5,-20(s0)
/home/nicoladgg/wsFreedomStudio/sifive_hifive1_revb_hello/freedom-metal/src/drivers/riscv_clint0.c:123
20014c22:	853e                	mv	a0,a5
20014c24:	5432                	lw	s0,44(sp)
20014c26:	6145                	addi	sp,sp,48
20014c28:	8082                	ret

20014c2a <__metal_driver_riscv_clint0_get_vector_mode>:
__metal_driver_riscv_clint0_get_vector_mode():
/home/nicoladgg/wsFreedomStudio/sifive_hifive1_revb_hello/freedom-metal/src/drivers/riscv_clint0.c:126
20014c2a:	1101                	addi	sp,sp,-32
20014c2c:	ce06                	sw	ra,28(sp)
20014c2e:	cc22                	sw	s0,24(sp)
20014c30:	1000                	addi	s0,sp,32
20014c32:	fea42623          	sw	a0,-20(s0)
/home/nicoladgg/wsFreedomStudio/sifive_hifive1_revb_hello/freedom-metal/src/drivers/riscv_clint0.c:127
20014c36:	35e010ef          	jal	ra,20015f94 <__metal_controller_interrupt_vector_mode>
20014c3a:	87aa                	mv	a5,a0
/home/nicoladgg/wsFreedomStudio/sifive_hifive1_revb_hello/freedom-metal/src/drivers/riscv_clint0.c:128
20014c3c:	853e                	mv	a0,a5
20014c3e:	40f2                	lw	ra,28(sp)
20014c40:	4462                	lw	s0,24(sp)
20014c42:	6105                	addi	sp,sp,32
20014c44:	8082                	ret

20014c46 <__metal_driver_riscv_clint0_set_vector_mode>:
__metal_driver_riscv_clint0_set_vector_mode():
/home/nicoladgg/wsFreedomStudio/sifive_hifive1_revb_hello/freedom-metal/src/drivers/riscv_clint0.c:131
20014c46:	7179                	addi	sp,sp,-48
20014c48:	d606                	sw	ra,44(sp)
20014c4a:	d422                	sw	s0,40(sp)
20014c4c:	1800                	addi	s0,sp,48
20014c4e:	fca42e23          	sw	a0,-36(s0)
20014c52:	fcb42c23          	sw	a1,-40(s0)
/home/nicoladgg/wsFreedomStudio/sifive_hifive1_revb_hello/freedom-metal/src/drivers/riscv_clint0.c:132
20014c56:	57fd                	li	a5,-1
20014c58:	fef42623          	sw	a5,-20(s0)
/home/nicoladgg/wsFreedomStudio/sifive_hifive1_revb_hello/freedom-metal/src/drivers/riscv_clint0.c:133
20014c5c:	3539                	jal	20014a6a <_get_cpu_intc>
20014c5e:	fea42423          	sw	a0,-24(s0)
/home/nicoladgg/wsFreedomStudio/sifive_hifive1_revb_hello/freedom-metal/src/drivers/riscv_clint0.c:135
20014c62:	fe842783          	lw	a5,-24(s0)
20014c66:	c395                	beqz	a5,20014c8a <__metal_driver_riscv_clint0_set_vector_mode+0x44>
/home/nicoladgg/wsFreedomStudio/sifive_hifive1_revb_hello/freedom-metal/src/drivers/riscv_clint0.c:138
20014c68:	fd842703          	lw	a4,-40(s0)
20014c6c:	4785                	li	a5,1
20014c6e:	02e7e063          	bltu	a5,a4,20014c8e <__metal_driver_riscv_clint0_set_vector_mode+0x48>
/home/nicoladgg/wsFreedomStudio/sifive_hifive1_revb_hello/freedom-metal/src/drivers/riscv_clint0.c:141
20014c72:	fe842783          	lw	a5,-24(s0)
20014c76:	439c                	lw	a5,0(a5)
20014c78:	43dc                	lw	a5,4(a5)
20014c7a:	fd842583          	lw	a1,-40(s0)
20014c7e:	fe842503          	lw	a0,-24(s0)
20014c82:	9782                	jalr	a5
20014c84:	fea42623          	sw	a0,-20(s0)
/home/nicoladgg/wsFreedomStudio/sifive_hifive1_revb_hello/freedom-metal/src/drivers/riscv_clint0.c:142
20014c88:	a021                	j	20014c90 <__metal_driver_riscv_clint0_set_vector_mode+0x4a>
/home/nicoladgg/wsFreedomStudio/sifive_hifive1_revb_hello/freedom-metal/src/drivers/riscv_clint0.c:146
20014c8a:	0001                	nop
20014c8c:	a011                	j	20014c90 <__metal_driver_riscv_clint0_set_vector_mode+0x4a>
/home/nicoladgg/wsFreedomStudio/sifive_hifive1_revb_hello/freedom-metal/src/drivers/riscv_clint0.c:144
20014c8e:	0001                	nop
/home/nicoladgg/wsFreedomStudio/sifive_hifive1_revb_hello/freedom-metal/src/drivers/riscv_clint0.c:147
20014c90:	fec42783          	lw	a5,-20(s0)
/home/nicoladgg/wsFreedomStudio/sifive_hifive1_revb_hello/freedom-metal/src/drivers/riscv_clint0.c:148
20014c94:	853e                	mv	a0,a5
20014c96:	50b2                	lw	ra,44(sp)
20014c98:	5422                	lw	s0,40(sp)
20014c9a:	6145                	addi	sp,sp,48
20014c9c:	8082                	ret

20014c9e <__metal_driver_riscv_clint0_enable>:
__metal_driver_riscv_clint0_enable():
/home/nicoladgg/wsFreedomStudio/sifive_hifive1_revb_hello/freedom-metal/src/drivers/riscv_clint0.c:151
20014c9e:	7139                	addi	sp,sp,-64
20014ca0:	de06                	sw	ra,60(sp)
20014ca2:	dc22                	sw	s0,56(sp)
20014ca4:	0080                	addi	s0,sp,64
20014ca6:	fca42623          	sw	a0,-52(s0)
20014caa:	fcb42423          	sw	a1,-56(s0)
/home/nicoladgg/wsFreedomStudio/sifive_hifive1_revb_hello/freedom-metal/src/drivers/riscv_clint0.c:152
20014cae:	57fd                	li	a5,-1
20014cb0:	fef42623          	sw	a5,-20(s0)
/home/nicoladgg/wsFreedomStudio/sifive_hifive1_revb_hello/freedom-metal/src/drivers/riscv_clint0.c:154
20014cb4:	fc842783          	lw	a5,-56(s0)
20014cb8:	c7c9                	beqz	a5,20014d42 <__metal_driver_riscv_clint0_enable+0xa4>
/home/nicoladgg/wsFreedomStudio/sifive_hifive1_revb_hello/freedom-metal/src/drivers/riscv_clint0.c:155
20014cba:	fe042423          	sw	zero,-24(s0)
/home/nicoladgg/wsFreedomStudio/sifive_hifive1_revb_hello/freedom-metal/src/drivers/riscv_clint0.c:156
20014cbe:	3375                	jal	20014a6a <_get_cpu_intc>
20014cc0:	fea42023          	sw	a0,-32(s0)
/home/nicoladgg/wsFreedomStudio/sifive_hifive1_revb_hello/freedom-metal/src/drivers/riscv_clint0.c:158
20014cc4:	fcc42503          	lw	a0,-52(s0)
20014cc8:	36cd                	jal	200148aa <__metal_driver_sifive_clint0_num_interrupts>
20014cca:	fca42e23          	sw	a0,-36(s0)
/home/nicoladgg/wsFreedomStudio/sifive_hifive1_revb_hello/freedom-metal/src/drivers/riscv_clint0.c:160
20014cce:	fe042223          	sw	zero,-28(s0)
20014cd2:	a091                	j	20014d16 <__metal_driver_riscv_clint0_enable+0x78>
/home/nicoladgg/wsFreedomStudio/sifive_hifive1_revb_hello/freedom-metal/src/drivers/riscv_clint0.c:162
20014cd4:	fe442583          	lw	a1,-28(s0)
20014cd8:	fcc42503          	lw	a0,-52(s0)
20014cdc:	313d                	jal	2001490a <__metal_driver_sifive_clint0_interrupt_lines>
20014cde:	fca42c23          	sw	a0,-40(s0)
/home/nicoladgg/wsFreedomStudio/sifive_hifive1_revb_hello/freedom-metal/src/drivers/riscv_clint0.c:164
20014ce2:	fe442583          	lw	a1,-28(s0)
20014ce6:	fcc42503          	lw	a0,-52(s0)
20014cea:	36d5                	jal	200148ce <__metal_driver_sifive_clint0_interrupt_parents>
20014cec:	fea42423          	sw	a0,-24(s0)
/home/nicoladgg/wsFreedomStudio/sifive_hifive1_revb_hello/freedom-metal/src/drivers/riscv_clint0.c:165
20014cf0:	fe042703          	lw	a4,-32(s0)
20014cf4:	fe842783          	lw	a5,-24(s0)
20014cf8:	00f71863          	bne	a4,a5,20014d08 <__metal_driver_riscv_clint0_enable+0x6a>
/home/nicoladgg/wsFreedomStudio/sifive_hifive1_revb_hello/freedom-metal/src/drivers/riscv_clint0.c:165 (discriminator 1)
20014cfc:	fc842703          	lw	a4,-56(s0)
20014d00:	fd842783          	lw	a5,-40(s0)
20014d04:	02f70063          	beq	a4,a5,20014d24 <__metal_driver_riscv_clint0_enable+0x86>
/home/nicoladgg/wsFreedomStudio/sifive_hifive1_revb_hello/freedom-metal/src/drivers/riscv_clint0.c:168 (discriminator 2)
20014d08:	fe042423          	sw	zero,-24(s0)
/home/nicoladgg/wsFreedomStudio/sifive_hifive1_revb_hello/freedom-metal/src/drivers/riscv_clint0.c:160 (discriminator 2)
20014d0c:	fe442783          	lw	a5,-28(s0)
20014d10:	0785                	addi	a5,a5,1
20014d12:	fef42223          	sw	a5,-28(s0)
/home/nicoladgg/wsFreedomStudio/sifive_hifive1_revb_hello/freedom-metal/src/drivers/riscv_clint0.c:160 (discriminator 1)
20014d16:	fe442703          	lw	a4,-28(s0)
20014d1a:	fdc42783          	lw	a5,-36(s0)
20014d1e:	faf74be3          	blt	a4,a5,20014cd4 <__metal_driver_riscv_clint0_enable+0x36>
20014d22:	a011                	j	20014d26 <__metal_driver_riscv_clint0_enable+0x88>
/home/nicoladgg/wsFreedomStudio/sifive_hifive1_revb_hello/freedom-metal/src/drivers/riscv_clint0.c:166
20014d24:	0001                	nop
/home/nicoladgg/wsFreedomStudio/sifive_hifive1_revb_hello/freedom-metal/src/drivers/riscv_clint0.c:172
20014d26:	fe842783          	lw	a5,-24(s0)
20014d2a:	cf81                	beqz	a5,20014d42 <__metal_driver_riscv_clint0_enable+0xa4>
/home/nicoladgg/wsFreedomStudio/sifive_hifive1_revb_hello/freedom-metal/src/drivers/riscv_clint0.c:173
20014d2c:	fe842783          	lw	a5,-24(s0)
20014d30:	439c                	lw	a5,0(a5)
20014d32:	53dc                	lw	a5,36(a5)
20014d34:	fc842583          	lw	a1,-56(s0)
20014d38:	fe842503          	lw	a0,-24(s0)
20014d3c:	9782                	jalr	a5
20014d3e:	fea42623          	sw	a0,-20(s0)
/home/nicoladgg/wsFreedomStudio/sifive_hifive1_revb_hello/freedom-metal/src/drivers/riscv_clint0.c:177
20014d42:	fec42783          	lw	a5,-20(s0)
/home/nicoladgg/wsFreedomStudio/sifive_hifive1_revb_hello/freedom-metal/src/drivers/riscv_clint0.c:178
20014d46:	853e                	mv	a0,a5
20014d48:	50f2                	lw	ra,60(sp)
20014d4a:	5462                	lw	s0,56(sp)
20014d4c:	6121                	addi	sp,sp,64
20014d4e:	8082                	ret

20014d50 <__metal_driver_riscv_clint0_disable>:
__metal_driver_riscv_clint0_disable():
/home/nicoladgg/wsFreedomStudio/sifive_hifive1_revb_hello/freedom-metal/src/drivers/riscv_clint0.c:181
20014d50:	7139                	addi	sp,sp,-64
20014d52:	de06                	sw	ra,60(sp)
20014d54:	dc22                	sw	s0,56(sp)
20014d56:	0080                	addi	s0,sp,64
20014d58:	fca42623          	sw	a0,-52(s0)
20014d5c:	fcb42423          	sw	a1,-56(s0)
/home/nicoladgg/wsFreedomStudio/sifive_hifive1_revb_hello/freedom-metal/src/drivers/riscv_clint0.c:182
20014d60:	57fd                	li	a5,-1
20014d62:	fef42623          	sw	a5,-20(s0)
/home/nicoladgg/wsFreedomStudio/sifive_hifive1_revb_hello/freedom-metal/src/drivers/riscv_clint0.c:184
20014d66:	fc842783          	lw	a5,-56(s0)
20014d6a:	c7c9                	beqz	a5,20014df4 <__metal_driver_riscv_clint0_disable+0xa4>
/home/nicoladgg/wsFreedomStudio/sifive_hifive1_revb_hello/freedom-metal/src/drivers/riscv_clint0.c:185
20014d6c:	fe042423          	sw	zero,-24(s0)
/home/nicoladgg/wsFreedomStudio/sifive_hifive1_revb_hello/freedom-metal/src/drivers/riscv_clint0.c:186
20014d70:	39ed                	jal	20014a6a <_get_cpu_intc>
20014d72:	fea42023          	sw	a0,-32(s0)
/home/nicoladgg/wsFreedomStudio/sifive_hifive1_revb_hello/freedom-metal/src/drivers/riscv_clint0.c:188
20014d76:	fcc42503          	lw	a0,-52(s0)
20014d7a:	3e05                	jal	200148aa <__metal_driver_sifive_clint0_num_interrupts>
20014d7c:	fca42e23          	sw	a0,-36(s0)
/home/nicoladgg/wsFreedomStudio/sifive_hifive1_revb_hello/freedom-metal/src/drivers/riscv_clint0.c:190
20014d80:	fe042223          	sw	zero,-28(s0)
20014d84:	a091                	j	20014dc8 <__metal_driver_riscv_clint0_disable+0x78>
/home/nicoladgg/wsFreedomStudio/sifive_hifive1_revb_hello/freedom-metal/src/drivers/riscv_clint0.c:192
20014d86:	fe442583          	lw	a1,-28(s0)
20014d8a:	fcc42503          	lw	a0,-52(s0)
20014d8e:	3eb5                	jal	2001490a <__metal_driver_sifive_clint0_interrupt_lines>
20014d90:	fca42c23          	sw	a0,-40(s0)
/home/nicoladgg/wsFreedomStudio/sifive_hifive1_revb_hello/freedom-metal/src/drivers/riscv_clint0.c:194
20014d94:	fe442583          	lw	a1,-28(s0)
20014d98:	fcc42503          	lw	a0,-52(s0)
20014d9c:	3e0d                	jal	200148ce <__metal_driver_sifive_clint0_interrupt_parents>
20014d9e:	fea42423          	sw	a0,-24(s0)
/home/nicoladgg/wsFreedomStudio/sifive_hifive1_revb_hello/freedom-metal/src/drivers/riscv_clint0.c:195
20014da2:	fe042703          	lw	a4,-32(s0)
20014da6:	fe842783          	lw	a5,-24(s0)
20014daa:	00f71863          	bne	a4,a5,20014dba <__metal_driver_riscv_clint0_disable+0x6a>
/home/nicoladgg/wsFreedomStudio/sifive_hifive1_revb_hello/freedom-metal/src/drivers/riscv_clint0.c:195 (discriminator 1)
20014dae:	fc842703          	lw	a4,-56(s0)
20014db2:	fd842783          	lw	a5,-40(s0)
20014db6:	02f70063          	beq	a4,a5,20014dd6 <__metal_driver_riscv_clint0_disable+0x86>
/home/nicoladgg/wsFreedomStudio/sifive_hifive1_revb_hello/freedom-metal/src/drivers/riscv_clint0.c:198 (discriminator 2)
20014dba:	fe042423          	sw	zero,-24(s0)
/home/nicoladgg/wsFreedomStudio/sifive_hifive1_revb_hello/freedom-metal/src/drivers/riscv_clint0.c:190 (discriminator 2)
20014dbe:	fe442783          	lw	a5,-28(s0)
20014dc2:	0785                	addi	a5,a5,1
20014dc4:	fef42223          	sw	a5,-28(s0)
/home/nicoladgg/wsFreedomStudio/sifive_hifive1_revb_hello/freedom-metal/src/drivers/riscv_clint0.c:190 (discriminator 1)
20014dc8:	fe442703          	lw	a4,-28(s0)
20014dcc:	fdc42783          	lw	a5,-36(s0)
20014dd0:	faf74be3          	blt	a4,a5,20014d86 <__metal_driver_riscv_clint0_disable+0x36>
20014dd4:	a011                	j	20014dd8 <__metal_driver_riscv_clint0_disable+0x88>
/home/nicoladgg/wsFreedomStudio/sifive_hifive1_revb_hello/freedom-metal/src/drivers/riscv_clint0.c:196
20014dd6:	0001                	nop
/home/nicoladgg/wsFreedomStudio/sifive_hifive1_revb_hello/freedom-metal/src/drivers/riscv_clint0.c:202
20014dd8:	fe842783          	lw	a5,-24(s0)
20014ddc:	cf81                	beqz	a5,20014df4 <__metal_driver_riscv_clint0_disable+0xa4>
/home/nicoladgg/wsFreedomStudio/sifive_hifive1_revb_hello/freedom-metal/src/drivers/riscv_clint0.c:203
20014dde:	fe842783          	lw	a5,-24(s0)
20014de2:	439c                	lw	a5,0(a5)
20014de4:	579c                	lw	a5,40(a5)
20014de6:	fc842583          	lw	a1,-56(s0)
20014dea:	fe842503          	lw	a0,-24(s0)
20014dee:	9782                	jalr	a5
20014df0:	fea42623          	sw	a0,-20(s0)
/home/nicoladgg/wsFreedomStudio/sifive_hifive1_revb_hello/freedom-metal/src/drivers/riscv_clint0.c:207
20014df4:	fec42783          	lw	a5,-20(s0)
/home/nicoladgg/wsFreedomStudio/sifive_hifive1_revb_hello/freedom-metal/src/drivers/riscv_clint0.c:208
20014df8:	853e                	mv	a0,a5
20014dfa:	50f2                	lw	ra,60(sp)
20014dfc:	5462                	lw	s0,56(sp)
20014dfe:	6121                	addi	sp,sp,64
20014e00:	8082                	ret

20014e02 <__metal_driver_riscv_clint0_command_request>:
__metal_driver_riscv_clint0_command_request():
/home/nicoladgg/wsFreedomStudio/sifive_hifive1_revb_hello/freedom-metal/src/drivers/riscv_clint0.c:211
20014e02:	7179                	addi	sp,sp,-48
20014e04:	d606                	sw	ra,44(sp)
20014e06:	d422                	sw	s0,40(sp)
20014e08:	1800                	addi	s0,sp,48
20014e0a:	fca42e23          	sw	a0,-36(s0)
20014e0e:	fcb42c23          	sw	a1,-40(s0)
20014e12:	fcc42a23          	sw	a2,-44(s0)
/home/nicoladgg/wsFreedomStudio/sifive_hifive1_revb_hello/freedom-metal/src/drivers/riscv_clint0.c:213
20014e16:	57fd                	li	a5,-1
20014e18:	fef42623          	sw	a5,-20(s0)
/home/nicoladgg/wsFreedomStudio/sifive_hifive1_revb_hello/freedom-metal/src/drivers/riscv_clint0.c:214
20014e1c:	fdc42783          	lw	a5,-36(s0)
20014e20:	fef42423          	sw	a5,-24(s0)
/home/nicoladgg/wsFreedomStudio/sifive_hifive1_revb_hello/freedom-metal/src/drivers/riscv_clint0.c:217
20014e24:	fdc42503          	lw	a0,-36(s0)
20014e28:	a5dff0ef          	jal	ra,20014884 <__metal_driver_sifive_clint0_control_base>
20014e2c:	fea42223          	sw	a0,-28(s0)
/home/nicoladgg/wsFreedomStudio/sifive_hifive1_revb_hello/freedom-metal/src/drivers/riscv_clint0.c:219
20014e30:	fd842703          	lw	a4,-40(s0)
20014e34:	4791                	li	a5,4
20014e36:	0cf70163          	beq	a4,a5,20014ef8 <__metal_driver_riscv_clint0_command_request+0xf6>
20014e3a:	fd842703          	lw	a4,-40(s0)
20014e3e:	4791                	li	a5,4
20014e40:	0ee7c163          	blt	a5,a4,20014f22 <__metal_driver_riscv_clint0_command_request+0x120>
20014e44:	fd842703          	lw	a4,-40(s0)
20014e48:	478d                	li	a5,3
20014e4a:	06f70663          	beq	a4,a5,20014eb6 <__metal_driver_riscv_clint0_command_request+0xb4>
20014e4e:	fd842703          	lw	a4,-40(s0)
20014e52:	478d                	li	a5,3
20014e54:	0ce7c763          	blt	a5,a4,20014f22 <__metal_driver_riscv_clint0_command_request+0x120>
20014e58:	fd842703          	lw	a4,-40(s0)
20014e5c:	4785                	li	a5,1
20014e5e:	00f70863          	beq	a4,a5,20014e6e <__metal_driver_riscv_clint0_command_request+0x6c>
20014e62:	fd842703          	lw	a4,-40(s0)
20014e66:	4789                	li	a5,2
20014e68:	02f70363          	beq	a4,a5,20014e8e <__metal_driver_riscv_clint0_command_request+0x8c>
/home/nicoladgg/wsFreedomStudio/sifive_hifive1_revb_hello/freedom-metal/src/drivers/riscv_clint0.c:263
20014e6c:	a85d                	j	20014f22 <__metal_driver_riscv_clint0_command_request+0x120>
/home/nicoladgg/wsFreedomStudio/sifive_hifive1_revb_hello/freedom-metal/src/drivers/riscv_clint0.c:221
20014e6e:	fd442783          	lw	a5,-44(s0)
20014e72:	cbd5                	beqz	a5,20014f26 <__metal_driver_riscv_clint0_command_request+0x124>
/home/nicoladgg/wsFreedomStudio/sifive_hifive1_revb_hello/freedom-metal/src/drivers/riscv_clint0.c:222
20014e74:	fe842503          	lw	a0,-24(s0)
20014e78:	ac3ff0ef          	jal	ra,2001493a <__metal_clint0_mtime_get>
20014e7c:	872a                	mv	a4,a0
20014e7e:	87ae                	mv	a5,a1
20014e80:	fd442683          	lw	a3,-44(s0)
20014e84:	c298                	sw	a4,0(a3)
20014e86:	c2dc                	sw	a5,4(a3)
/home/nicoladgg/wsFreedomStudio/sifive_hifive1_revb_hello/freedom-metal/src/drivers/riscv_clint0.c:223
20014e88:	fe042623          	sw	zero,-20(s0)
/home/nicoladgg/wsFreedomStudio/sifive_hifive1_revb_hello/freedom-metal/src/drivers/riscv_clint0.c:225
20014e8c:	a869                	j	20014f26 <__metal_driver_riscv_clint0_command_request+0x124>
/home/nicoladgg/wsFreedomStudio/sifive_hifive1_revb_hello/freedom-metal/src/drivers/riscv_clint0.c:227
20014e8e:	fd442783          	lw	a5,-44(s0)
20014e92:	cfc1                	beqz	a5,20014f2a <__metal_driver_riscv_clint0_command_request+0x128>
/home/nicoladgg/wsFreedomStudio/sifive_hifive1_revb_hello/freedom-metal/src/drivers/riscv_clint0.c:228
20014e94:	fd442783          	lw	a5,-44(s0)
20014e98:	439c                	lw	a5,0(a5)
20014e9a:	fef42023          	sw	a5,-32(s0)
/home/nicoladgg/wsFreedomStudio/sifive_hifive1_revb_hello/freedom-metal/src/drivers/riscv_clint0.c:229
20014e9e:	fe042783          	lw	a5,-32(s0)
20014ea2:	078a                	slli	a5,a5,0x2
20014ea4:	873e                	mv	a4,a5
20014ea6:	fe442783          	lw	a5,-28(s0)
20014eaa:	97ba                	add	a5,a5,a4
/home/nicoladgg/wsFreedomStudio/sifive_hifive1_revb_hello/freedom-metal/src/drivers/riscv_clint0.c:230
20014eac:	0007a023          	sw	zero,0(a5) # 4000 <__heap_size+0x3800>
/home/nicoladgg/wsFreedomStudio/sifive_hifive1_revb_hello/freedom-metal/src/drivers/riscv_clint0.c:231
20014eb0:	fe042623          	sw	zero,-20(s0)
/home/nicoladgg/wsFreedomStudio/sifive_hifive1_revb_hello/freedom-metal/src/drivers/riscv_clint0.c:233
20014eb4:	a89d                	j	20014f2a <__metal_driver_riscv_clint0_command_request+0x128>
/home/nicoladgg/wsFreedomStudio/sifive_hifive1_revb_hello/freedom-metal/src/drivers/riscv_clint0.c:235
20014eb6:	fd442783          	lw	a5,-44(s0)
20014eba:	cbb5                	beqz	a5,20014f2e <__metal_driver_riscv_clint0_command_request+0x12c>
/home/nicoladgg/wsFreedomStudio/sifive_hifive1_revb_hello/freedom-metal/src/drivers/riscv_clint0.c:236
20014ebc:	fd442783          	lw	a5,-44(s0)
20014ec0:	439c                	lw	a5,0(a5)
20014ec2:	fef42023          	sw	a5,-32(s0)
/home/nicoladgg/wsFreedomStudio/sifive_hifive1_revb_hello/freedom-metal/src/drivers/riscv_clint0.c:237
20014ec6:	fe042783          	lw	a5,-32(s0)
20014eca:	078a                	slli	a5,a5,0x2
20014ecc:	873e                	mv	a4,a5
20014ece:	fe442783          	lw	a5,-28(s0)
20014ed2:	97ba                	add	a5,a5,a4
20014ed4:	873e                	mv	a4,a5
/home/nicoladgg/wsFreedomStudio/sifive_hifive1_revb_hello/freedom-metal/src/drivers/riscv_clint0.c:238
20014ed6:	4785                	li	a5,1
20014ed8:	c31c                	sw	a5,0(a4)
/home/nicoladgg/wsFreedomStudio/sifive_hifive1_revb_hello/freedom-metal/src/drivers/riscv_clint0.c:248
20014eda:	0480000f          	fence	o,i
/home/nicoladgg/wsFreedomStudio/sifive_hifive1_revb_hello/freedom-metal/src/drivers/riscv_clint0.c:249
20014ede:	fe042783          	lw	a5,-32(s0)
20014ee2:	078a                	slli	a5,a5,0x2
20014ee4:	873e                	mv	a4,a5
20014ee6:	fe442783          	lw	a5,-28(s0)
20014eea:	97ba                	add	a5,a5,a4
20014eec:	439c                	lw	a5,0(a5)
20014eee:	fef42623          	sw	a5,-20(s0)
/home/nicoladgg/wsFreedomStudio/sifive_hifive1_revb_hello/freedom-metal/src/drivers/riscv_clint0.c:251
20014ef2:	fe042623          	sw	zero,-20(s0)
/home/nicoladgg/wsFreedomStudio/sifive_hifive1_revb_hello/freedom-metal/src/drivers/riscv_clint0.c:253
20014ef6:	a825                	j	20014f2e <__metal_driver_riscv_clint0_command_request+0x12c>
/home/nicoladgg/wsFreedomStudio/sifive_hifive1_revb_hello/freedom-metal/src/drivers/riscv_clint0.c:255
20014ef8:	fe042623          	sw	zero,-20(s0)
/home/nicoladgg/wsFreedomStudio/sifive_hifive1_revb_hello/freedom-metal/src/drivers/riscv_clint0.c:256
20014efc:	fd442783          	lw	a5,-44(s0)
20014f00:	cb8d                	beqz	a5,20014f32 <__metal_driver_riscv_clint0_command_request+0x130>
/home/nicoladgg/wsFreedomStudio/sifive_hifive1_revb_hello/freedom-metal/src/drivers/riscv_clint0.c:257
20014f02:	fd442783          	lw	a5,-44(s0)
20014f06:	439c                	lw	a5,0(a5)
20014f08:	fef42023          	sw	a5,-32(s0)
/home/nicoladgg/wsFreedomStudio/sifive_hifive1_revb_hello/freedom-metal/src/drivers/riscv_clint0.c:258
20014f0c:	fe042783          	lw	a5,-32(s0)
20014f10:	078a                	slli	a5,a5,0x2
20014f12:	873e                	mv	a4,a5
20014f14:	fe442783          	lw	a5,-28(s0)
20014f18:	97ba                	add	a5,a5,a4
20014f1a:	439c                	lw	a5,0(a5)
20014f1c:	fef42623          	sw	a5,-20(s0)
/home/nicoladgg/wsFreedomStudio/sifive_hifive1_revb_hello/freedom-metal/src/drivers/riscv_clint0.c:261
20014f20:	a809                	j	20014f32 <__metal_driver_riscv_clint0_command_request+0x130>
/home/nicoladgg/wsFreedomStudio/sifive_hifive1_revb_hello/freedom-metal/src/drivers/riscv_clint0.c:263
20014f22:	0001                	nop
20014f24:	a801                	j	20014f34 <__metal_driver_riscv_clint0_command_request+0x132>
/home/nicoladgg/wsFreedomStudio/sifive_hifive1_revb_hello/freedom-metal/src/drivers/riscv_clint0.c:225
20014f26:	0001                	nop
20014f28:	a031                	j	20014f34 <__metal_driver_riscv_clint0_command_request+0x132>
/home/nicoladgg/wsFreedomStudio/sifive_hifive1_revb_hello/freedom-metal/src/drivers/riscv_clint0.c:233
20014f2a:	0001                	nop
20014f2c:	a021                	j	20014f34 <__metal_driver_riscv_clint0_command_request+0x132>
/home/nicoladgg/wsFreedomStudio/sifive_hifive1_revb_hello/freedom-metal/src/drivers/riscv_clint0.c:253
20014f2e:	0001                	nop
20014f30:	a011                	j	20014f34 <__metal_driver_riscv_clint0_command_request+0x132>
/home/nicoladgg/wsFreedomStudio/sifive_hifive1_revb_hello/freedom-metal/src/drivers/riscv_clint0.c:261
20014f32:	0001                	nop
/home/nicoladgg/wsFreedomStudio/sifive_hifive1_revb_hello/freedom-metal/src/drivers/riscv_clint0.c:266
20014f34:	fec42783          	lw	a5,-20(s0)
/home/nicoladgg/wsFreedomStudio/sifive_hifive1_revb_hello/freedom-metal/src/drivers/riscv_clint0.c:267
20014f38:	853e                	mv	a0,a5
20014f3a:	50b2                	lw	ra,44(sp)
20014f3c:	5422                	lw	s0,40(sp)
20014f3e:	6145                	addi	sp,sp,48
20014f40:	8082                	ret

20014f42 <__metal_driver_riscv_clint0_clear_interrupt>:
__metal_driver_riscv_clint0_clear_interrupt():
/home/nicoladgg/wsFreedomStudio/sifive_hifive1_revb_hello/freedom-metal/src/drivers/riscv_clint0.c:270
20014f42:	7179                	addi	sp,sp,-48
20014f44:	d606                	sw	ra,44(sp)
20014f46:	d422                	sw	s0,40(sp)
20014f48:	1800                	addi	s0,sp,48
20014f4a:	fca42e23          	sw	a0,-36(s0)
20014f4e:	fcb42c23          	sw	a1,-40(s0)
/home/nicoladgg/wsFreedomStudio/sifive_hifive1_revb_hello/freedom-metal/src/drivers/riscv_clint0.c:271
20014f52:	7b5030ef          	jal	ra,20018f06 <metal_cpu_get_current_hartid>
20014f56:	87aa                	mv	a5,a0
20014f58:	fef42623          	sw	a5,-20(s0)
/home/nicoladgg/wsFreedomStudio/sifive_hifive1_revb_hello/freedom-metal/src/drivers/riscv_clint0.c:272
20014f5c:	fec40793          	addi	a5,s0,-20
20014f60:	863e                	mv	a2,a5
20014f62:	4589                	li	a1,2
20014f64:	fdc42503          	lw	a0,-36(s0)
20014f68:	3d69                	jal	20014e02 <__metal_driver_riscv_clint0_command_request>
20014f6a:	87aa                	mv	a5,a0
/home/nicoladgg/wsFreedomStudio/sifive_hifive1_revb_hello/freedom-metal/src/drivers/riscv_clint0.c:274
20014f6c:	853e                	mv	a0,a5
20014f6e:	50b2                	lw	ra,44(sp)
20014f70:	5422                	lw	s0,40(sp)
20014f72:	6145                	addi	sp,sp,48
20014f74:	8082                	ret

20014f76 <__metal_driver_riscv_clint0_set_interrupt>:
__metal_driver_riscv_clint0_set_interrupt():
/home/nicoladgg/wsFreedomStudio/sifive_hifive1_revb_hello/freedom-metal/src/drivers/riscv_clint0.c:277
20014f76:	7179                	addi	sp,sp,-48
20014f78:	d606                	sw	ra,44(sp)
20014f7a:	d422                	sw	s0,40(sp)
20014f7c:	1800                	addi	s0,sp,48
20014f7e:	fca42e23          	sw	a0,-36(s0)
20014f82:	fcb42c23          	sw	a1,-40(s0)
/home/nicoladgg/wsFreedomStudio/sifive_hifive1_revb_hello/freedom-metal/src/drivers/riscv_clint0.c:278
20014f86:	781030ef          	jal	ra,20018f06 <metal_cpu_get_current_hartid>
20014f8a:	87aa                	mv	a5,a0
20014f8c:	fef42623          	sw	a5,-20(s0)
/home/nicoladgg/wsFreedomStudio/sifive_hifive1_revb_hello/freedom-metal/src/drivers/riscv_clint0.c:279
20014f90:	fec40793          	addi	a5,s0,-20
20014f94:	863e                	mv	a2,a5
20014f96:	458d                	li	a1,3
20014f98:	fdc42503          	lw	a0,-36(s0)
20014f9c:	359d                	jal	20014e02 <__metal_driver_riscv_clint0_command_request>
20014f9e:	87aa                	mv	a5,a0
/home/nicoladgg/wsFreedomStudio/sifive_hifive1_revb_hello/freedom-metal/src/drivers/riscv_clint0.c:281
20014fa0:	853e                	mv	a0,a5
20014fa2:	50b2                	lw	ra,44(sp)
20014fa4:	5422                	lw	s0,40(sp)
20014fa6:	6145                	addi	sp,sp,48
20014fa8:	8082                	ret

20014faa <__metal_driver_cpu_hartid>:
__metal_driver_cpu_hartid():
/home/nicoladgg/wsFreedomStudio/sifive_hifive1_revb_hello/bsp/build/debug/./metal/machine.h:292
20014faa:	1101                	addi	sp,sp,-32
20014fac:	ce22                	sw	s0,28(sp)
20014fae:	1000                	addi	s0,sp,32
20014fb0:	fea42623          	sw	a0,-20(s0)
/home/nicoladgg/wsFreedomStudio/sifive_hifive1_revb_hello/bsp/build/debug/./metal/machine.h:293
20014fb4:	fec42703          	lw	a4,-20(s0)
20014fb8:	81818793          	addi	a5,gp,-2024 # 80000ab8 <__metal_dt_cpu_0>
20014fbc:	00f71463          	bne	a4,a5,20014fc4 <__metal_driver_cpu_hartid+0x1a>
/home/nicoladgg/wsFreedomStudio/sifive_hifive1_revb_hello/bsp/build/debug/./metal/machine.h:294
20014fc0:	4781                	li	a5,0
20014fc2:	a011                	j	20014fc6 <__metal_driver_cpu_hartid+0x1c>
/home/nicoladgg/wsFreedomStudio/sifive_hifive1_revb_hello/bsp/build/debug/./metal/machine.h:297
20014fc4:	57fd                	li	a5,-1
/home/nicoladgg/wsFreedomStudio/sifive_hifive1_revb_hello/bsp/build/debug/./metal/machine.h:299
20014fc6:	853e                	mv	a0,a5
20014fc8:	4472                	lw	s0,28(sp)
20014fca:	6105                	addi	sp,sp,32
20014fcc:	8082                	ret

20014fce <__metal_driver_cpu_timebase>:
__metal_driver_cpu_timebase():
/home/nicoladgg/wsFreedomStudio/sifive_hifive1_revb_hello/bsp/build/debug/./metal/machine.h:302
20014fce:	1101                	addi	sp,sp,-32
20014fd0:	ce22                	sw	s0,28(sp)
20014fd2:	1000                	addi	s0,sp,32
20014fd4:	fea42623          	sw	a0,-20(s0)
/home/nicoladgg/wsFreedomStudio/sifive_hifive1_revb_hello/bsp/build/debug/./metal/machine.h:303
20014fd8:	fec42703          	lw	a4,-20(s0)
20014fdc:	81818793          	addi	a5,gp,-2024 # 80000ab8 <__metal_dt_cpu_0>
20014fe0:	00f71763          	bne	a4,a5,20014fee <__metal_driver_cpu_timebase+0x20>
/home/nicoladgg/wsFreedomStudio/sifive_hifive1_revb_hello/bsp/build/debug/./metal/machine.h:304
20014fe4:	00f427b7          	lui	a5,0xf42
20014fe8:	40078793          	addi	a5,a5,1024 # f42400 <__heap_size+0xf41c00>
20014fec:	a011                	j	20014ff0 <__metal_driver_cpu_timebase+0x22>
/home/nicoladgg/wsFreedomStudio/sifive_hifive1_revb_hello/bsp/build/debug/./metal/machine.h:307
20014fee:	4781                	li	a5,0
/home/nicoladgg/wsFreedomStudio/sifive_hifive1_revb_hello/bsp/build/debug/./metal/machine.h:309
20014ff0:	853e                	mv	a0,a5
20014ff2:	4472                	lw	s0,28(sp)
20014ff4:	6105                	addi	sp,sp,32
20014ff6:	8082                	ret

20014ff8 <__metal_driver_cpu_interrupt_controller>:
__metal_driver_cpu_interrupt_controller():
/home/nicoladgg/wsFreedomStudio/sifive_hifive1_revb_hello/bsp/build/debug/./metal/machine.h:312
20014ff8:	1101                	addi	sp,sp,-32
20014ffa:	ce22                	sw	s0,28(sp)
20014ffc:	1000                	addi	s0,sp,32
20014ffe:	fea42623          	sw	a0,-20(s0)
/home/nicoladgg/wsFreedomStudio/sifive_hifive1_revb_hello/bsp/build/debug/./metal/machine.h:313
20015002:	fec42703          	lw	a4,-20(s0)
20015006:	81818793          	addi	a5,gp,-2024 # 80000ab8 <__metal_dt_cpu_0>
2001500a:	00f71763          	bne	a4,a5,20015018 <__metal_driver_cpu_interrupt_controller+0x20>
/home/nicoladgg/wsFreedomStudio/sifive_hifive1_revb_hello/bsp/build/debug/./metal/machine.h:314
2001500e:	800007b7          	lui	a5,0x80000
20015012:	09078793          	addi	a5,a5,144 # 80000090 <metal_segment_heap_target_end+0xffffe6b0>
20015016:	a011                	j	2001501a <__metal_driver_cpu_interrupt_controller+0x22>
/home/nicoladgg/wsFreedomStudio/sifive_hifive1_revb_hello/bsp/build/debug/./metal/machine.h:317
20015018:	4781                	li	a5,0
/home/nicoladgg/wsFreedomStudio/sifive_hifive1_revb_hello/bsp/build/debug/./metal/machine.h:319
2001501a:	853e                	mv	a0,a5
2001501c:	4472                	lw	s0,28(sp)
2001501e:	6105                	addi	sp,sp,32
20015020:	8082                	ret

20015022 <__metal_driver_cpu_buserror>:
__metal_driver_cpu_buserror():
/home/nicoladgg/wsFreedomStudio/sifive_hifive1_revb_hello/bsp/build/debug/./metal/machine.h:332
20015022:	1101                	addi	sp,sp,-32
20015024:	ce22                	sw	s0,28(sp)
20015026:	1000                	addi	s0,sp,32
20015028:	fea42623          	sw	a0,-20(s0)
/home/nicoladgg/wsFreedomStudio/sifive_hifive1_revb_hello/bsp/build/debug/./metal/machine.h:333
2001502c:	fec42703          	lw	a4,-20(s0)
20015030:	81818793          	addi	a5,gp,-2024 # 80000ab8 <__metal_dt_cpu_0>
20015034:	00f71463          	bne	a4,a5,2001503c <__metal_driver_cpu_buserror+0x1a>
/home/nicoladgg/wsFreedomStudio/sifive_hifive1_revb_hello/bsp/build/debug/./metal/machine.h:334
20015038:	4781                	li	a5,0
2001503a:	a011                	j	2001503e <__metal_driver_cpu_buserror+0x1c>
/home/nicoladgg/wsFreedomStudio/sifive_hifive1_revb_hello/bsp/build/debug/./metal/machine.h:337
2001503c:	4781                	li	a5,0
/home/nicoladgg/wsFreedomStudio/sifive_hifive1_revb_hello/bsp/build/debug/./metal/machine.h:339
2001503e:	853e                	mv	a0,a5
20015040:	4472                	lw	s0,28(sp)
20015042:	6105                	addi	sp,sp,32
20015044:	8082                	ret

20015046 <__metal_driver_cpu_get>:
__metal_driver_cpu_get():
/home/nicoladgg/wsFreedomStudio/sifive_hifive1_revb_hello/freedom-metal/src/drivers/riscv_cpu.c:25
20015046:	1101                	addi	sp,sp,-32
20015048:	ce22                	sw	s0,28(sp)
2001504a:	1000                	addi	s0,sp,32
2001504c:	fea42623          	sw	a0,-20(s0)
/home/nicoladgg/wsFreedomStudio/sifive_hifive1_revb_hello/freedom-metal/src/drivers/riscv_cpu.c:26
20015050:	fec42783          	lw	a5,-20(s0)
20015054:	00f04a63          	bgtz	a5,20015068 <__metal_driver_cpu_get+0x22>
/home/nicoladgg/wsFreedomStudio/sifive_hifive1_revb_hello/freedom-metal/src/drivers/riscv_cpu.c:27
20015058:	fec42703          	lw	a4,-20(s0)
2001505c:	070a                	slli	a4,a4,0x2
2001505e:	80c18793          	addi	a5,gp,-2036 # 80000aac <__metal_cpu_table>
20015062:	97ba                	add	a5,a5,a4
20015064:	439c                	lw	a5,0(a5)
20015066:	a011                	j	2001506a <__metal_driver_cpu_get+0x24>
/home/nicoladgg/wsFreedomStudio/sifive_hifive1_revb_hello/freedom-metal/src/drivers/riscv_cpu.c:29
20015068:	4781                	li	a5,0
/home/nicoladgg/wsFreedomStudio/sifive_hifive1_revb_hello/freedom-metal/src/drivers/riscv_cpu.c:30
2001506a:	853e                	mv	a0,a5
2001506c:	4472                	lw	s0,28(sp)
2001506e:	6105                	addi	sp,sp,32
20015070:	8082                	ret

20015072 <__metal_myhart_id>:
__metal_myhart_id():
/home/nicoladgg/wsFreedomStudio/sifive_hifive1_revb_hello/freedom-metal/src/drivers/riscv_cpu.c:32
20015072:	1101                	addi	sp,sp,-32
20015074:	ce22                	sw	s0,28(sp)
20015076:	1000                	addi	s0,sp,32
/home/nicoladgg/wsFreedomStudio/sifive_hifive1_revb_hello/freedom-metal/src/drivers/riscv_cpu.c:34
20015078:	f14027f3          	csrr	a5,mhartid
2001507c:	fef42623          	sw	a5,-20(s0)
/home/nicoladgg/wsFreedomStudio/sifive_hifive1_revb_hello/freedom-metal/src/drivers/riscv_cpu.c:35
20015080:	fec42783          	lw	a5,-20(s0)
/home/nicoladgg/wsFreedomStudio/sifive_hifive1_revb_hello/freedom-metal/src/drivers/riscv_cpu.c:36
20015084:	853e                	mv	a0,a5
20015086:	4472                	lw	s0,28(sp)
20015088:	6105                	addi	sp,sp,32
2001508a:	8082                	ret

2001508c <__metal_interrupt_global_enable>:
__metal_interrupt_global_enable():
/home/nicoladgg/wsFreedomStudio/sifive_hifive1_revb_hello/freedom-metal/src/drivers/riscv_cpu.c:45
2001508c:	1101                	addi	sp,sp,-32
2001508e:	ce22                	sw	s0,28(sp)
20015090:	1000                	addi	s0,sp,32
/home/nicoladgg/wsFreedomStudio/sifive_hifive1_revb_hello/freedom-metal/src/drivers/riscv_cpu.c:47
20015092:	47a1                	li	a5,8
20015094:	3007a7f3          	csrrs	a5,mstatus,a5
20015098:	fef42623          	sw	a5,-20(s0)
/home/nicoladgg/wsFreedomStudio/sifive_hifive1_revb_hello/freedom-metal/src/drivers/riscv_cpu.c:50
2001509c:	0001                	nop
2001509e:	4472                	lw	s0,28(sp)
200150a0:	6105                	addi	sp,sp,32
200150a2:	8082                	ret

200150a4 <__metal_interrupt_global_disable>:
__metal_interrupt_global_disable():
/home/nicoladgg/wsFreedomStudio/sifive_hifive1_revb_hello/freedom-metal/src/drivers/riscv_cpu.c:52
200150a4:	1101                	addi	sp,sp,-32
200150a6:	ce22                	sw	s0,28(sp)
200150a8:	1000                	addi	s0,sp,32
/home/nicoladgg/wsFreedomStudio/sifive_hifive1_revb_hello/freedom-metal/src/drivers/riscv_cpu.c:54
200150aa:	47a1                	li	a5,8
200150ac:	3007b7f3          	csrrc	a5,mstatus,a5
200150b0:	fef42623          	sw	a5,-20(s0)
/home/nicoladgg/wsFreedomStudio/sifive_hifive1_revb_hello/freedom-metal/src/drivers/riscv_cpu.c:57
200150b4:	0001                	nop
200150b6:	4472                	lw	s0,28(sp)
200150b8:	6105                	addi	sp,sp,32
200150ba:	8082                	ret

200150bc <__metal_interrupt_software_enable>:
__metal_interrupt_software_enable():
/home/nicoladgg/wsFreedomStudio/sifive_hifive1_revb_hello/freedom-metal/src/drivers/riscv_cpu.c:59
200150bc:	1101                	addi	sp,sp,-32
200150be:	ce22                	sw	s0,28(sp)
200150c0:	1000                	addi	s0,sp,32
/home/nicoladgg/wsFreedomStudio/sifive_hifive1_revb_hello/freedom-metal/src/drivers/riscv_cpu.c:61
200150c2:	47a1                	li	a5,8
200150c4:	3047a7f3          	csrrs	a5,mie,a5
200150c8:	fef42623          	sw	a5,-20(s0)
/home/nicoladgg/wsFreedomStudio/sifive_hifive1_revb_hello/freedom-metal/src/drivers/riscv_cpu.c:64
200150cc:	0001                	nop
200150ce:	4472                	lw	s0,28(sp)
200150d0:	6105                	addi	sp,sp,32
200150d2:	8082                	ret

200150d4 <__metal_interrupt_software_disable>:
__metal_interrupt_software_disable():
/home/nicoladgg/wsFreedomStudio/sifive_hifive1_revb_hello/freedom-metal/src/drivers/riscv_cpu.c:66
200150d4:	1101                	addi	sp,sp,-32
200150d6:	ce22                	sw	s0,28(sp)
200150d8:	1000                	addi	s0,sp,32
/home/nicoladgg/wsFreedomStudio/sifive_hifive1_revb_hello/freedom-metal/src/drivers/riscv_cpu.c:68
200150da:	47a1                	li	a5,8
200150dc:	3047b7f3          	csrrc	a5,mie,a5
200150e0:	fef42623          	sw	a5,-20(s0)
/home/nicoladgg/wsFreedomStudio/sifive_hifive1_revb_hello/freedom-metal/src/drivers/riscv_cpu.c:71
200150e4:	0001                	nop
200150e6:	4472                	lw	s0,28(sp)
200150e8:	6105                	addi	sp,sp,32
200150ea:	8082                	ret

200150ec <__metal_interrupt_timer_enable>:
__metal_interrupt_timer_enable():
/home/nicoladgg/wsFreedomStudio/sifive_hifive1_revb_hello/freedom-metal/src/drivers/riscv_cpu.c:73
200150ec:	1101                	addi	sp,sp,-32
200150ee:	ce22                	sw	s0,28(sp)
200150f0:	1000                	addi	s0,sp,32
/home/nicoladgg/wsFreedomStudio/sifive_hifive1_revb_hello/freedom-metal/src/drivers/riscv_cpu.c:75
200150f2:	08000793          	li	a5,128
200150f6:	3047a7f3          	csrrs	a5,mie,a5
200150fa:	fef42623          	sw	a5,-20(s0)
/home/nicoladgg/wsFreedomStudio/sifive_hifive1_revb_hello/freedom-metal/src/drivers/riscv_cpu.c:78
200150fe:	0001                	nop
20015100:	4472                	lw	s0,28(sp)
20015102:	6105                	addi	sp,sp,32
20015104:	8082                	ret

20015106 <__metal_interrupt_timer_disable>:
__metal_interrupt_timer_disable():
/home/nicoladgg/wsFreedomStudio/sifive_hifive1_revb_hello/freedom-metal/src/drivers/riscv_cpu.c:80
20015106:	1101                	addi	sp,sp,-32
20015108:	ce22                	sw	s0,28(sp)
2001510a:	1000                	addi	s0,sp,32
/home/nicoladgg/wsFreedomStudio/sifive_hifive1_revb_hello/freedom-metal/src/drivers/riscv_cpu.c:82
2001510c:	08000793          	li	a5,128
20015110:	3047b7f3          	csrrc	a5,mie,a5
20015114:	fef42623          	sw	a5,-20(s0)
/home/nicoladgg/wsFreedomStudio/sifive_hifive1_revb_hello/freedom-metal/src/drivers/riscv_cpu.c:85
20015118:	0001                	nop
2001511a:	4472                	lw	s0,28(sp)
2001511c:	6105                	addi	sp,sp,32
2001511e:	8082                	ret

20015120 <__metal_interrupt_external_enable>:
__metal_interrupt_external_enable():
/home/nicoladgg/wsFreedomStudio/sifive_hifive1_revb_hello/freedom-metal/src/drivers/riscv_cpu.c:87
20015120:	1101                	addi	sp,sp,-32
20015122:	ce22                	sw	s0,28(sp)
20015124:	1000                	addi	s0,sp,32
/home/nicoladgg/wsFreedomStudio/sifive_hifive1_revb_hello/freedom-metal/src/drivers/riscv_cpu.c:89
20015126:	6785                	lui	a5,0x1
20015128:	80078793          	addi	a5,a5,-2048 # 800 <__heap_size>
2001512c:	3047a7f3          	csrrs	a5,mie,a5
20015130:	fef42623          	sw	a5,-20(s0)
/home/nicoladgg/wsFreedomStudio/sifive_hifive1_revb_hello/freedom-metal/src/drivers/riscv_cpu.c:92
20015134:	0001                	nop
20015136:	4472                	lw	s0,28(sp)
20015138:	6105                	addi	sp,sp,32
2001513a:	8082                	ret

2001513c <__metal_interrupt_external_disable>:
__metal_interrupt_external_disable():
/home/nicoladgg/wsFreedomStudio/sifive_hifive1_revb_hello/freedom-metal/src/drivers/riscv_cpu.c:94
2001513c:	1101                	addi	sp,sp,-32
2001513e:	ce22                	sw	s0,28(sp)
20015140:	1000                	addi	s0,sp,32
/home/nicoladgg/wsFreedomStudio/sifive_hifive1_revb_hello/freedom-metal/src/drivers/riscv_cpu.c:96
20015142:	6785                	lui	a5,0x1
20015144:	80078793          	addi	a5,a5,-2048 # 800 <__heap_size>
20015148:	3047b7f3          	csrrc	a5,mie,a5
2001514c:	fef42623          	sw	a5,-20(s0)
/home/nicoladgg/wsFreedomStudio/sifive_hifive1_revb_hello/freedom-metal/src/drivers/riscv_cpu.c:99
20015150:	0001                	nop
20015152:	4472                	lw	s0,28(sp)
20015154:	6105                	addi	sp,sp,32
20015156:	8082                	ret

20015158 <__metal_interrupt_local_enable>:
__metal_interrupt_local_enable():
/home/nicoladgg/wsFreedomStudio/sifive_hifive1_revb_hello/freedom-metal/src/drivers/riscv_cpu.c:101
20015158:	7179                	addi	sp,sp,-48
2001515a:	d622                	sw	s0,44(sp)
2001515c:	1800                	addi	s0,sp,48
2001515e:	fca42e23          	sw	a0,-36(s0)
/home/nicoladgg/wsFreedomStudio/sifive_hifive1_revb_hello/freedom-metal/src/drivers/riscv_cpu.c:102
20015162:	fdc42783          	lw	a5,-36(s0)
20015166:	4705                	li	a4,1
20015168:	00f717b3          	sll	a5,a4,a5
2001516c:	fef42623          	sw	a5,-20(s0)
/home/nicoladgg/wsFreedomStudio/sifive_hifive1_revb_hello/freedom-metal/src/drivers/riscv_cpu.c:104
20015170:	fec42783          	lw	a5,-20(s0)
20015174:	3047a7f3          	csrrs	a5,mie,a5
20015178:	fef42423          	sw	a5,-24(s0)
/home/nicoladgg/wsFreedomStudio/sifive_hifive1_revb_hello/freedom-metal/src/drivers/riscv_cpu.c:105
2001517c:	0001                	nop
2001517e:	5432                	lw	s0,44(sp)
20015180:	6145                	addi	sp,sp,48
20015182:	8082                	ret

20015184 <__metal_interrupt_local_disable>:
__metal_interrupt_local_disable():
/home/nicoladgg/wsFreedomStudio/sifive_hifive1_revb_hello/freedom-metal/src/drivers/riscv_cpu.c:107
20015184:	7179                	addi	sp,sp,-48
20015186:	d622                	sw	s0,44(sp)
20015188:	1800                	addi	s0,sp,48
2001518a:	fca42e23          	sw	a0,-36(s0)
/home/nicoladgg/wsFreedomStudio/sifive_hifive1_revb_hello/freedom-metal/src/drivers/riscv_cpu.c:108
2001518e:	fdc42783          	lw	a5,-36(s0)
20015192:	4705                	li	a4,1
20015194:	00f717b3          	sll	a5,a4,a5
20015198:	fef42623          	sw	a5,-20(s0)
/home/nicoladgg/wsFreedomStudio/sifive_hifive1_revb_hello/freedom-metal/src/drivers/riscv_cpu.c:110
2001519c:	fec42783          	lw	a5,-20(s0)
200151a0:	3047b7f3          	csrrc	a5,mie,a5
200151a4:	fef42423          	sw	a5,-24(s0)
/home/nicoladgg/wsFreedomStudio/sifive_hifive1_revb_hello/freedom-metal/src/drivers/riscv_cpu.c:111
200151a8:	0001                	nop
200151aa:	5432                	lw	s0,44(sp)
200151ac:	6145                	addi	sp,sp,48
200151ae:	8082                	ret

200151b0 <__metal_default_exception_handler>:
__metal_default_exception_handler():
/home/nicoladgg/wsFreedomStudio/sifive_hifive1_revb_hello/freedom-metal/src/drivers/riscv_cpu.c:113
200151b0:	1101                	addi	sp,sp,-32
200151b2:	ce06                	sw	ra,28(sp)
200151b4:	cc22                	sw	s0,24(sp)
200151b6:	1000                	addi	s0,sp,32
200151b8:	fea42623          	sw	a0,-20(s0)
200151bc:	feb42423          	sw	a1,-24(s0)
/home/nicoladgg/wsFreedomStudio/sifive_hifive1_revb_hello/freedom-metal/src/drivers/riscv_cpu.c:114
200151c0:	06400513          	li	a0,100
200151c4:	55d030ef          	jal	ra,20018f20 <metal_shutdown>

200151c8 <__metal_default_interrupt_handler>:
__metal_default_interrupt_handler():
/home/nicoladgg/wsFreedomStudio/sifive_hifive1_revb_hello/freedom-metal/src/drivers/riscv_cpu.c:117
200151c8:	1101                	addi	sp,sp,-32
200151ca:	ce06                	sw	ra,28(sp)
200151cc:	cc22                	sw	s0,24(sp)
200151ce:	1000                	addi	s0,sp,32
200151d0:	fea42623          	sw	a0,-20(s0)
200151d4:	feb42423          	sw	a1,-24(s0)
/home/nicoladgg/wsFreedomStudio/sifive_hifive1_revb_hello/freedom-metal/src/drivers/riscv_cpu.c:118
200151d8:	0c800513          	li	a0,200
200151dc:	545030ef          	jal	ra,20018f20 <metal_shutdown>

200151e0 <metal_interrupt_vector_handler>:
metal_interrupt_vector_handler():
/home/nicoladgg/wsFreedomStudio/sifive_hifive1_revb_hello/freedom-metal/src/drivers/riscv_cpu.c:122
200151e0:	715d                	addi	sp,sp,-80
200151e2:	c686                	sw	ra,76(sp)
200151e4:	c496                	sw	t0,72(sp)
200151e6:	c29a                	sw	t1,68(sp)
200151e8:	c09e                	sw	t2,64(sp)
200151ea:	de22                	sw	s0,60(sp)
200151ec:	dc2a                	sw	a0,56(sp)
200151ee:	da2e                	sw	a1,52(sp)
200151f0:	d832                	sw	a2,48(sp)
200151f2:	d636                	sw	a3,44(sp)
200151f4:	d43a                	sw	a4,40(sp)
200151f6:	d23e                	sw	a5,36(sp)
200151f8:	d042                	sw	a6,32(sp)
200151fa:	ce46                	sw	a7,28(sp)
200151fc:	cc72                	sw	t3,24(sp)
200151fe:	ca76                	sw	t4,20(sp)
20015200:	c87a                	sw	t5,16(sp)
20015202:	c67e                	sw	t6,12(sp)
20015204:	0880                	addi	s0,sp,80
/home/nicoladgg/wsFreedomStudio/sifive_hifive1_revb_hello/freedom-metal/src/drivers/riscv_cpu.c:123
20015206:	12c00513          	li	a0,300
2001520a:	517030ef          	jal	ra,20018f20 <metal_shutdown>

2001520e <metal_software_interrupt_vector_handler>:
metal_software_interrupt_vector_handler():
/home/nicoladgg/wsFreedomStudio/sifive_hifive1_revb_hello/freedom-metal/src/drivers/riscv_cpu.c:128
2001520e:	711d                	addi	sp,sp,-96
20015210:	ce86                	sw	ra,92(sp)
20015212:	cc96                	sw	t0,88(sp)
20015214:	ca9a                	sw	t1,84(sp)
20015216:	c89e                	sw	t2,80(sp)
20015218:	c6a2                	sw	s0,76(sp)
2001521a:	c4aa                	sw	a0,72(sp)
2001521c:	c2ae                	sw	a1,68(sp)
2001521e:	c0b2                	sw	a2,64(sp)
20015220:	de36                	sw	a3,60(sp)
20015222:	dc3a                	sw	a4,56(sp)
20015224:	da3e                	sw	a5,52(sp)
20015226:	d842                	sw	a6,48(sp)
20015228:	d646                	sw	a7,44(sp)
2001522a:	d472                	sw	t3,40(sp)
2001522c:	d276                	sw	t4,36(sp)
2001522e:	d07a                	sw	t5,32(sp)
20015230:	ce7e                	sw	t6,28(sp)
20015232:	1080                	addi	s0,sp,96
/home/nicoladgg/wsFreedomStudio/sifive_hifive1_revb_hello/freedom-metal/src/drivers/riscv_cpu.c:129
20015234:	3d3d                	jal	20015072 <__metal_myhart_id>
20015236:	872a                	mv	a4,a0
20015238:	070a                	slli	a4,a4,0x2
2001523a:	80c18793          	addi	a5,gp,-2036 # 80000aac <__metal_cpu_table>
2001523e:	97ba                	add	a5,a5,a4
20015240:	439c                	lw	a5,0(a5)
20015242:	faf42623          	sw	a5,-84(s0)
20015246:	fac42783          	lw	a5,-84(s0)
2001524a:	c785                	beqz	a5,20015272 <metal_software_interrupt_vector_handler+0x64>
/home/nicoladgg/wsFreedomStudio/sifive_hifive1_revb_hello/freedom-metal/src/drivers/riscv_cpu.c:129 (discriminator 1)
2001524c:	fac42503          	lw	a0,-84(s0)
20015250:	3365                	jal	20014ff8 <__metal_driver_cpu_interrupt_controller>
20015252:	faa42423          	sw	a0,-88(s0)
20015256:	fa842783          	lw	a5,-88(s0)
2001525a:	0e07a783          	lw	a5,224(a5)
2001525e:	faf42223          	sw	a5,-92(s0)
20015262:	fa842783          	lw	a5,-88(s0)
20015266:	0d87a783          	lw	a5,216(a5)
2001526a:	fa442583          	lw	a1,-92(s0)
2001526e:	450d                	li	a0,3
20015270:	9782                	jalr	a5
/home/nicoladgg/wsFreedomStudio/sifive_hifive1_revb_hello/freedom-metal/src/drivers/riscv_cpu.c:130
20015272:	0001                	nop
20015274:	40f6                	lw	ra,92(sp)
20015276:	42e6                	lw	t0,88(sp)
20015278:	4356                	lw	t1,84(sp)
2001527a:	43c6                	lw	t2,80(sp)
2001527c:	4436                	lw	s0,76(sp)
2001527e:	4526                	lw	a0,72(sp)
20015280:	4596                	lw	a1,68(sp)
20015282:	4606                	lw	a2,64(sp)
20015284:	56f2                	lw	a3,60(sp)
20015286:	5762                	lw	a4,56(sp)
20015288:	57d2                	lw	a5,52(sp)
2001528a:	5842                	lw	a6,48(sp)
2001528c:	58b2                	lw	a7,44(sp)
2001528e:	5e22                	lw	t3,40(sp)
20015290:	5e92                	lw	t4,36(sp)
20015292:	5f02                	lw	t5,32(sp)
20015294:	4ff2                	lw	t6,28(sp)
20015296:	6125                	addi	sp,sp,96
20015298:	30200073          	mret

2001529c <__metal_default_sw_handler>:
__metal_default_sw_handler():
/home/nicoladgg/wsFreedomStudio/sifive_hifive1_revb_hello/freedom-metal/src/drivers/riscv_cpu.c:132
2001529c:	7179                	addi	sp,sp,-48
2001529e:	d606                	sw	ra,44(sp)
200152a0:	d422                	sw	s0,40(sp)
200152a2:	1800                	addi	s0,sp,48
200152a4:	fca42e23          	sw	a0,-36(s0)
200152a8:	fcb42c23          	sw	a1,-40(s0)
/home/nicoladgg/wsFreedomStudio/sifive_hifive1_revb_hello/freedom-metal/src/drivers/riscv_cpu.c:135
200152ac:	33d9                	jal	20015072 <__metal_myhart_id>
200152ae:	872a                	mv	a4,a0
200152b0:	070a                	slli	a4,a4,0x2
200152b2:	80c18793          	addi	a5,gp,-2036 # 80000aac <__metal_cpu_table>
200152b6:	97ba                	add	a5,a5,a4
200152b8:	439c                	lw	a5,0(a5)
200152ba:	fef42623          	sw	a5,-20(s0)
/home/nicoladgg/wsFreedomStudio/sifive_hifive1_revb_hello/freedom-metal/src/drivers/riscv_cpu.c:137
200152be:	342027f3          	csrr	a5,mcause
200152c2:	fef42423          	sw	a5,-24(s0)
/home/nicoladgg/wsFreedomStudio/sifive_hifive1_revb_hello/freedom-metal/src/drivers/riscv_cpu.c:138
200152c6:	fec42783          	lw	a5,-20(s0)
200152ca:	c795                	beqz	a5,200152f6 <__metal_default_sw_handler+0x5a>
/home/nicoladgg/wsFreedomStudio/sifive_hifive1_revb_hello/freedom-metal/src/drivers/riscv_cpu.c:140
200152cc:	fec42503          	lw	a0,-20(s0)
200152d0:	3325                	jal	20014ff8 <__metal_driver_cpu_interrupt_controller>
200152d2:	fea42223          	sw	a0,-28(s0)
/home/nicoladgg/wsFreedomStudio/sifive_hifive1_revb_hello/freedom-metal/src/drivers/riscv_cpu.c:141
200152d6:	fe842783          	lw	a5,-24(s0)
200152da:	3ff7f793          	andi	a5,a5,1023
200152de:	fe442703          	lw	a4,-28(s0)
200152e2:	0e878793          	addi	a5,a5,232
200152e6:	078a                	slli	a5,a5,0x2
200152e8:	97ba                	add	a5,a5,a4
200152ea:	439c                	lw	a5,0(a5)
200152ec:	fdc42583          	lw	a1,-36(s0)
200152f0:	fec42503          	lw	a0,-20(s0)
200152f4:	9782                	jalr	a5
/home/nicoladgg/wsFreedomStudio/sifive_hifive1_revb_hello/freedom-metal/src/drivers/riscv_cpu.c:144
200152f6:	0001                	nop
200152f8:	50b2                	lw	ra,44(sp)
200152fa:	5422                	lw	s0,40(sp)
200152fc:	6145                	addi	sp,sp,48
200152fe:	8082                	ret

20015300 <metal_timer_interrupt_vector_handler>:
metal_timer_interrupt_vector_handler():
/home/nicoladgg/wsFreedomStudio/sifive_hifive1_revb_hello/freedom-metal/src/drivers/riscv_cpu.c:148
20015300:	711d                	addi	sp,sp,-96
20015302:	ce86                	sw	ra,92(sp)
20015304:	cc96                	sw	t0,88(sp)
20015306:	ca9a                	sw	t1,84(sp)
20015308:	c89e                	sw	t2,80(sp)
2001530a:	c6a2                	sw	s0,76(sp)
2001530c:	c4aa                	sw	a0,72(sp)
2001530e:	c2ae                	sw	a1,68(sp)
20015310:	c0b2                	sw	a2,64(sp)
20015312:	de36                	sw	a3,60(sp)
20015314:	dc3a                	sw	a4,56(sp)
20015316:	da3e                	sw	a5,52(sp)
20015318:	d842                	sw	a6,48(sp)
2001531a:	d646                	sw	a7,44(sp)
2001531c:	d472                	sw	t3,40(sp)
2001531e:	d276                	sw	t4,36(sp)
20015320:	d07a                	sw	t5,32(sp)
20015322:	ce7e                	sw	t6,28(sp)
20015324:	1080                	addi	s0,sp,96
/home/nicoladgg/wsFreedomStudio/sifive_hifive1_revb_hello/freedom-metal/src/drivers/riscv_cpu.c:149
20015326:	33b1                	jal	20015072 <__metal_myhart_id>
20015328:	872a                	mv	a4,a0
2001532a:	070a                	slli	a4,a4,0x2
2001532c:	80c18793          	addi	a5,gp,-2036 # 80000aac <__metal_cpu_table>
20015330:	97ba                	add	a5,a5,a4
20015332:	439c                	lw	a5,0(a5)
20015334:	faf42623          	sw	a5,-84(s0)
20015338:	fac42783          	lw	a5,-84(s0)
2001533c:	c785                	beqz	a5,20015364 <metal_timer_interrupt_vector_handler+0x64>
/home/nicoladgg/wsFreedomStudio/sifive_hifive1_revb_hello/freedom-metal/src/drivers/riscv_cpu.c:149 (discriminator 1)
2001533e:	fac42503          	lw	a0,-84(s0)
20015342:	395d                	jal	20014ff8 <__metal_driver_cpu_interrupt_controller>
20015344:	faa42423          	sw	a0,-88(s0)
20015348:	fa842783          	lw	a5,-88(s0)
2001534c:	1407a783          	lw	a5,320(a5)
20015350:	faf42223          	sw	a5,-92(s0)
20015354:	fa842783          	lw	a5,-88(s0)
20015358:	1387a783          	lw	a5,312(a5)
2001535c:	fa442583          	lw	a1,-92(s0)
20015360:	451d                	li	a0,7
20015362:	9782                	jalr	a5
/home/nicoladgg/wsFreedomStudio/sifive_hifive1_revb_hello/freedom-metal/src/drivers/riscv_cpu.c:150
20015364:	0001                	nop
20015366:	40f6                	lw	ra,92(sp)
20015368:	42e6                	lw	t0,88(sp)
2001536a:	4356                	lw	t1,84(sp)
2001536c:	43c6                	lw	t2,80(sp)
2001536e:	4436                	lw	s0,76(sp)
20015370:	4526                	lw	a0,72(sp)
20015372:	4596                	lw	a1,68(sp)
20015374:	4606                	lw	a2,64(sp)
20015376:	56f2                	lw	a3,60(sp)
20015378:	5762                	lw	a4,56(sp)
2001537a:	57d2                	lw	a5,52(sp)
2001537c:	5842                	lw	a6,48(sp)
2001537e:	58b2                	lw	a7,44(sp)
20015380:	5e22                	lw	t3,40(sp)
20015382:	5e92                	lw	t4,36(sp)
20015384:	5f02                	lw	t5,32(sp)
20015386:	4ff2                	lw	t6,28(sp)
20015388:	6125                	addi	sp,sp,96
2001538a:	30200073          	mret

2001538e <__metal_default_beu_handler>:
__metal_default_beu_handler():
/home/nicoladgg/wsFreedomStudio/sifive_hifive1_revb_hello/freedom-metal/src/drivers/riscv_cpu.c:152
2001538e:	1101                	addi	sp,sp,-32
20015390:	ce22                	sw	s0,28(sp)
20015392:	1000                	addi	s0,sp,32
20015394:	fea42623          	sw	a0,-20(s0)
20015398:	feb42423          	sw	a1,-24(s0)
2001539c:	0001                	nop
2001539e:	4472                	lw	s0,28(sp)
200153a0:	6105                	addi	sp,sp,32
200153a2:	8082                	ret

200153a4 <__metal_default_timer_handler>:
__metal_default_timer_handler():
/home/nicoladgg/wsFreedomStudio/sifive_hifive1_revb_hello/freedom-metal/src/drivers/riscv_cpu.c:154
200153a4:	7179                	addi	sp,sp,-48
200153a6:	d606                	sw	ra,44(sp)
200153a8:	d422                	sw	s0,40(sp)
200153aa:	1800                	addi	s0,sp,48
200153ac:	fca42e23          	sw	a0,-36(s0)
200153b0:	fcb42c23          	sw	a1,-40(s0)
/home/nicoladgg/wsFreedomStudio/sifive_hifive1_revb_hello/freedom-metal/src/drivers/riscv_cpu.c:155
200153b4:	397d                	jal	20015072 <__metal_myhart_id>
200153b6:	87aa                	mv	a5,a0
200153b8:	853e                	mv	a0,a5
200153ba:	3171                	jal	20015046 <__metal_driver_cpu_get>
200153bc:	fea42623          	sw	a0,-20(s0)
/home/nicoladgg/wsFreedomStudio/sifive_hifive1_revb_hello/freedom-metal/src/drivers/riscv_cpu.c:156
200153c0:	fec42503          	lw	a0,-20(s0)
200153c4:	29a010ef          	jal	ra,2001665e <__metal_driver_cpu_mtime_get>
200153c8:	fea42023          	sw	a0,-32(s0)
200153cc:	feb42223          	sw	a1,-28(s0)
/home/nicoladgg/wsFreedomStudio/sifive_hifive1_revb_hello/freedom-metal/src/drivers/riscv_cpu.c:159
200153d0:	fe042703          	lw	a4,-32(s0)
200153d4:	fe442783          	lw	a5,-28(s0)
200153d8:	4529                	li	a0,10
200153da:	4581                	li	a1,0
200153dc:	00a70633          	add	a2,a4,a0
200153e0:	8832                	mv	a6,a2
200153e2:	00e83833          	sltu	a6,a6,a4
200153e6:	00b786b3          	add	a3,a5,a1
200153ea:	00d807b3          	add	a5,a6,a3
200153ee:	86be                	mv	a3,a5
200153f0:	8732                	mv	a4,a2
200153f2:	87b6                	mv	a5,a3
200153f4:	85ba                	mv	a1,a4
200153f6:	863e                	mv	a2,a5
200153f8:	fec42503          	lw	a0,-20(s0)
200153fc:	2c8010ef          	jal	ra,200166c4 <__metal_driver_cpu_mtimecmp_set>
/home/nicoladgg/wsFreedomStudio/sifive_hifive1_revb_hello/freedom-metal/src/drivers/riscv_cpu.c:160
20015400:	0001                	nop
20015402:	50b2                	lw	ra,44(sp)
20015404:	5422                	lw	s0,40(sp)
20015406:	6145                	addi	sp,sp,48
20015408:	8082                	ret
	...

20015480 <__metal_exception_handler>:
__metal_exception_handler():
/home/nicoladgg/wsFreedomStudio/sifive_hifive1_revb_hello/freedom-metal/src/drivers/riscv_cpu.c:169
20015480:	7119                	addi	sp,sp,-128
20015482:	de86                	sw	ra,124(sp)
20015484:	dc96                	sw	t0,120(sp)
20015486:	da9a                	sw	t1,116(sp)
20015488:	d89e                	sw	t2,112(sp)
2001548a:	d6a2                	sw	s0,108(sp)
2001548c:	d4aa                	sw	a0,104(sp)
2001548e:	d2ae                	sw	a1,100(sp)
20015490:	d0b2                	sw	a2,96(sp)
20015492:	ceb6                	sw	a3,92(sp)
20015494:	ccba                	sw	a4,88(sp)
20015496:	cabe                	sw	a5,84(sp)
20015498:	c8c2                	sw	a6,80(sp)
2001549a:	c6c6                	sw	a7,76(sp)
2001549c:	c4f2                	sw	t3,72(sp)
2001549e:	c2f6                	sw	t4,68(sp)
200154a0:	c0fa                	sw	t5,64(sp)
200154a2:	de7e                	sw	t6,60(sp)
200154a4:	0100                	addi	s0,sp,128
/home/nicoladgg/wsFreedomStudio/sifive_hifive1_revb_hello/freedom-metal/src/drivers/riscv_cpu.c:174
200154a6:	36f1                	jal	20015072 <__metal_myhart_id>
200154a8:	872a                	mv	a4,a0
200154aa:	070a                	slli	a4,a4,0x2
200154ac:	80c18793          	addi	a5,gp,-2036 # 80000aac <__metal_cpu_table>
200154b0:	97ba                	add	a5,a5,a4
200154b2:	439c                	lw	a5,0(a5)
200154b4:	faf42623          	sw	a5,-84(s0)
/home/nicoladgg/wsFreedomStudio/sifive_hifive1_revb_hello/freedom-metal/src/drivers/riscv_cpu.c:176
200154b8:	342027f3          	csrr	a5,mcause
200154bc:	faf42423          	sw	a5,-88(s0)
/home/nicoladgg/wsFreedomStudio/sifive_hifive1_revb_hello/freedom-metal/src/drivers/riscv_cpu.c:177
200154c0:	341027f3          	csrr	a5,mepc
200154c4:	faf42223          	sw	a5,-92(s0)
/home/nicoladgg/wsFreedomStudio/sifive_hifive1_revb_hello/freedom-metal/src/drivers/riscv_cpu.c:178
200154c8:	343027f3          	csrr	a5,mtval
200154cc:	faf42023          	sw	a5,-96(s0)
/home/nicoladgg/wsFreedomStudio/sifive_hifive1_revb_hello/freedom-metal/src/drivers/riscv_cpu.c:179
200154d0:	305027f3          	csrr	a5,mtvec
200154d4:	f8f42e23          	sw	a5,-100(s0)
/home/nicoladgg/wsFreedomStudio/sifive_hifive1_revb_hello/freedom-metal/src/drivers/riscv_cpu.c:181
200154d8:	fac42783          	lw	a5,-84(s0)
200154dc:	cbfd                	beqz	a5,200155d2 <__metal_exception_handler+0x152>
/home/nicoladgg/wsFreedomStudio/sifive_hifive1_revb_hello/freedom-metal/src/drivers/riscv_cpu.c:183
200154de:	fac42503          	lw	a0,-84(s0)
200154e2:	b17ff0ef          	jal	ra,20014ff8 <__metal_driver_cpu_interrupt_controller>
200154e6:	f8a42c23          	sw	a0,-104(s0)
/home/nicoladgg/wsFreedomStudio/sifive_hifive1_revb_hello/freedom-metal/src/drivers/riscv_cpu.c:184
200154ea:	fa842783          	lw	a5,-88(s0)
200154ee:	3ff7f793          	andi	a5,a5,1023
200154f2:	f8f42a23          	sw	a5,-108(s0)
/home/nicoladgg/wsFreedomStudio/sifive_hifive1_revb_hello/freedom-metal/src/drivers/riscv_cpu.c:185
200154f6:	fa842783          	lw	a5,-88(s0)
200154fa:	0a07de63          	bgez	a5,200155b6 <__metal_exception_handler+0x136>
/home/nicoladgg/wsFreedomStudio/sifive_hifive1_revb_hello/freedom-metal/src/drivers/riscv_cpu.c:186
200154fe:	f9442703          	lw	a4,-108(s0)
20015502:	08000793          	li	a5,128
20015506:	02f71263          	bne	a4,a5,2001552a <__metal_exception_handler+0xaa>
/home/nicoladgg/wsFreedomStudio/sifive_hifive1_revb_hello/freedom-metal/src/drivers/riscv_cpu.c:187
2001550a:	f9842783          	lw	a5,-104(s0)
2001550e:	3987a783          	lw	a5,920(a5)
20015512:	f8f42623          	sw	a5,-116(s0)
/home/nicoladgg/wsFreedomStudio/sifive_hifive1_revb_hello/freedom-metal/src/drivers/riscv_cpu.c:188
20015516:	f9842783          	lw	a5,-104(s0)
2001551a:	3907a783          	lw	a5,912(a5)
2001551e:	f8c42583          	lw	a1,-116(s0)
20015522:	f9442503          	lw	a0,-108(s0)
20015526:	9782                	jalr	a5
/home/nicoladgg/wsFreedomStudio/sifive_hifive1_revb_hello/freedom-metal/src/drivers/riscv_cpu.c:189
20015528:	a06d                	j	200155d2 <__metal_exception_handler+0x152>
/home/nicoladgg/wsFreedomStudio/sifive_hifive1_revb_hello/freedom-metal/src/drivers/riscv_cpu.c:191
2001552a:	f9442703          	lw	a4,-108(s0)
2001552e:	47ad                	li	a5,11
20015530:	00e7d763          	bge	a5,a4,2001553e <__metal_exception_handler+0xbe>
/home/nicoladgg/wsFreedomStudio/sifive_hifive1_revb_hello/freedom-metal/src/drivers/riscv_cpu.c:192 (discriminator 1)
20015534:	f9c42783          	lw	a5,-100(s0)
20015538:	03f7f793          	andi	a5,a5,63
/home/nicoladgg/wsFreedomStudio/sifive_hifive1_revb_hello/freedom-metal/src/drivers/riscv_cpu.c:191 (discriminator 1)
2001553c:	ef9d                	bnez	a5,2001557a <__metal_exception_handler+0xfa>
/home/nicoladgg/wsFreedomStudio/sifive_hifive1_revb_hello/freedom-metal/src/drivers/riscv_cpu.c:193
2001553e:	f9842683          	lw	a3,-104(s0)
20015542:	f9442703          	lw	a4,-108(s0)
20015546:	87ba                	mv	a5,a4
20015548:	0786                	slli	a5,a5,0x1
2001554a:	97ba                	add	a5,a5,a4
2001554c:	078e                	slli	a5,a5,0x3
2001554e:	97b6                	add	a5,a5,a3
20015550:	0987a783          	lw	a5,152(a5)
20015554:	f8f42623          	sw	a5,-116(s0)
/home/nicoladgg/wsFreedomStudio/sifive_hifive1_revb_hello/freedom-metal/src/drivers/riscv_cpu.c:194
20015558:	f9842683          	lw	a3,-104(s0)
2001555c:	f9442703          	lw	a4,-108(s0)
20015560:	87ba                	mv	a5,a4
20015562:	0786                	slli	a5,a5,0x1
20015564:	97ba                	add	a5,a5,a4
20015566:	078e                	slli	a5,a5,0x3
20015568:	97b6                	add	a5,a5,a3
2001556a:	0907a783          	lw	a5,144(a5)
2001556e:	f8c42583          	lw	a1,-116(s0)
20015572:	f9442503          	lw	a0,-108(s0)
20015576:	9782                	jalr	a5
/home/nicoladgg/wsFreedomStudio/sifive_hifive1_revb_hello/freedom-metal/src/drivers/riscv_cpu.c:195
20015578:	a8a9                	j	200155d2 <__metal_exception_handler+0x152>
/home/nicoladgg/wsFreedomStudio/sifive_hifive1_revb_hello/freedom-metal/src/drivers/riscv_cpu.c:197
2001557a:	f9c42783          	lw	a5,-100(s0)
2001557e:	03f7f713          	andi	a4,a5,63
20015582:	4789                	li	a5,2
20015584:	04f71763          	bne	a4,a5,200155d2 <__metal_exception_handler+0x152>
/home/nicoladgg/wsFreedomStudio/sifive_hifive1_revb_hello/freedom-metal/src/drivers/riscv_cpu.c:201
20015588:	307027f3          	csrr	a5,mtvt
2001558c:	f8f42823          	sw	a5,-112(s0)
/home/nicoladgg/wsFreedomStudio/sifive_hifive1_revb_hello/freedom-metal/src/drivers/riscv_cpu.c:202
20015590:	f9842783          	lw	a5,-104(s0)
20015594:	0dc7a783          	lw	a5,220(a5)
20015598:	f8f42623          	sw	a5,-116(s0)
/home/nicoladgg/wsFreedomStudio/sifive_hifive1_revb_hello/freedom-metal/src/drivers/riscv_cpu.c:203
2001559c:	f9042783          	lw	a5,-112(s0)
200155a0:	439c                	lw	a5,0(a5)
200155a2:	f8f42423          	sw	a5,-120(s0)
/home/nicoladgg/wsFreedomStudio/sifive_hifive1_revb_hello/freedom-metal/src/drivers/riscv_cpu.c:204
200155a6:	f8842783          	lw	a5,-120(s0)
200155aa:	f8c42583          	lw	a1,-116(s0)
200155ae:	f9442503          	lw	a0,-108(s0)
200155b2:	9782                	jalr	a5
/home/nicoladgg/wsFreedomStudio/sifive_hifive1_revb_hello/freedom-metal/src/drivers/riscv_cpu.c:205
200155b4:	a839                	j	200155d2 <__metal_exception_handler+0x152>
/home/nicoladgg/wsFreedomStudio/sifive_hifive1_revb_hello/freedom-metal/src/drivers/riscv_cpu.c:208
200155b6:	f9842703          	lw	a4,-104(s0)
200155ba:	f9442783          	lw	a5,-108(s0)
200155be:	0e878793          	addi	a5,a5,232
200155c2:	078a                	slli	a5,a5,0x2
200155c4:	97ba                	add	a5,a5,a4
200155c6:	439c                	lw	a5,0(a5)
200155c8:	f9442583          	lw	a1,-108(s0)
200155cc:	fac42503          	lw	a0,-84(s0)
200155d0:	9782                	jalr	a5
/home/nicoladgg/wsFreedomStudio/sifive_hifive1_revb_hello/freedom-metal/src/drivers/riscv_cpu.c:211
200155d2:	50f6                	lw	ra,124(sp)
200155d4:	52e6                	lw	t0,120(sp)
200155d6:	5356                	lw	t1,116(sp)
200155d8:	53c6                	lw	t2,112(sp)
200155da:	5436                	lw	s0,108(sp)
200155dc:	5526                	lw	a0,104(sp)
200155de:	5596                	lw	a1,100(sp)
200155e0:	5606                	lw	a2,96(sp)
200155e2:	46f6                	lw	a3,92(sp)
200155e4:	4766                	lw	a4,88(sp)
200155e6:	47d6                	lw	a5,84(sp)
200155e8:	4846                	lw	a6,80(sp)
200155ea:	48b6                	lw	a7,76(sp)
200155ec:	4e26                	lw	t3,72(sp)
200155ee:	4e96                	lw	t4,68(sp)
200155f0:	4f06                	lw	t5,64(sp)
200155f2:	5ff2                	lw	t6,60(sp)
200155f4:	6109                	addi	sp,sp,128
200155f6:	30200073          	mret
	...

20015674 <metal_lc0_interrupt_vector_handler>:
metal_lc0_interrupt_vector_handler():
/home/nicoladgg/wsFreedomStudio/sifive_hifive1_revb_hello/freedom-metal/src/drivers/riscv_cpu.c:214
20015674:	711d                	addi	sp,sp,-96
20015676:	ce86                	sw	ra,92(sp)
20015678:	cc96                	sw	t0,88(sp)
2001567a:	ca9a                	sw	t1,84(sp)
2001567c:	c89e                	sw	t2,80(sp)
2001567e:	c6a2                	sw	s0,76(sp)
20015680:	c4aa                	sw	a0,72(sp)
20015682:	c2ae                	sw	a1,68(sp)
20015684:	c0b2                	sw	a2,64(sp)
20015686:	de36                	sw	a3,60(sp)
20015688:	dc3a                	sw	a4,56(sp)
2001568a:	da3e                	sw	a5,52(sp)
2001568c:	d842                	sw	a6,48(sp)
2001568e:	d646                	sw	a7,44(sp)
20015690:	d472                	sw	t3,40(sp)
20015692:	d276                	sw	t4,36(sp)
20015694:	d07a                	sw	t5,32(sp)
20015696:	ce7e                	sw	t6,28(sp)
20015698:	1080                	addi	s0,sp,96
/home/nicoladgg/wsFreedomStudio/sifive_hifive1_revb_hello/freedom-metal/src/drivers/riscv_cpu.c:215
2001569a:	9d9ff0ef          	jal	ra,20015072 <__metal_myhart_id>
2001569e:	872a                	mv	a4,a0
200156a0:	070a                	slli	a4,a4,0x2
200156a2:	80c18793          	addi	a5,gp,-2036 # 80000aac <__metal_cpu_table>
200156a6:	97ba                	add	a5,a5,a4
200156a8:	439c                	lw	a5,0(a5)
200156aa:	faf42623          	sw	a5,-84(s0)
200156ae:	fac42783          	lw	a5,-84(s0)
200156b2:	c78d                	beqz	a5,200156dc <metal_lc0_interrupt_vector_handler+0x68>
/home/nicoladgg/wsFreedomStudio/sifive_hifive1_revb_hello/freedom-metal/src/drivers/riscv_cpu.c:215 (discriminator 1)
200156b4:	fac42503          	lw	a0,-84(s0)
200156b8:	941ff0ef          	jal	ra,20014ff8 <__metal_driver_cpu_interrupt_controller>
200156bc:	faa42423          	sw	a0,-88(s0)
200156c0:	fa842783          	lw	a5,-88(s0)
200156c4:	2187a783          	lw	a5,536(a5)
200156c8:	faf42223          	sw	a5,-92(s0)
200156cc:	fa842783          	lw	a5,-88(s0)
200156d0:	2107a783          	lw	a5,528(a5)
200156d4:	fa442583          	lw	a1,-92(s0)
200156d8:	4541                	li	a0,16
200156da:	9782                	jalr	a5
/home/nicoladgg/wsFreedomStudio/sifive_hifive1_revb_hello/freedom-metal/src/drivers/riscv_cpu.c:216
200156dc:	0001                	nop
200156de:	40f6                	lw	ra,92(sp)
200156e0:	42e6                	lw	t0,88(sp)
200156e2:	4356                	lw	t1,84(sp)
200156e4:	43c6                	lw	t2,80(sp)
200156e6:	4436                	lw	s0,76(sp)
200156e8:	4526                	lw	a0,72(sp)
200156ea:	4596                	lw	a1,68(sp)
200156ec:	4606                	lw	a2,64(sp)
200156ee:	56f2                	lw	a3,60(sp)
200156f0:	5762                	lw	a4,56(sp)
200156f2:	57d2                	lw	a5,52(sp)
200156f4:	5842                	lw	a6,48(sp)
200156f6:	58b2                	lw	a7,44(sp)
200156f8:	5e22                	lw	t3,40(sp)
200156fa:	5e92                	lw	t4,36(sp)
200156fc:	5f02                	lw	t5,32(sp)
200156fe:	4ff2                	lw	t6,28(sp)
20015700:	6125                	addi	sp,sp,96
20015702:	30200073          	mret

20015706 <metal_lc1_interrupt_vector_handler>:
metal_lc1_interrupt_vector_handler():
/home/nicoladgg/wsFreedomStudio/sifive_hifive1_revb_hello/freedom-metal/src/drivers/riscv_cpu.c:219
20015706:	711d                	addi	sp,sp,-96
20015708:	ce86                	sw	ra,92(sp)
2001570a:	cc96                	sw	t0,88(sp)
2001570c:	ca9a                	sw	t1,84(sp)
2001570e:	c89e                	sw	t2,80(sp)
20015710:	c6a2                	sw	s0,76(sp)
20015712:	c4aa                	sw	a0,72(sp)
20015714:	c2ae                	sw	a1,68(sp)
20015716:	c0b2                	sw	a2,64(sp)
20015718:	de36                	sw	a3,60(sp)
2001571a:	dc3a                	sw	a4,56(sp)
2001571c:	da3e                	sw	a5,52(sp)
2001571e:	d842                	sw	a6,48(sp)
20015720:	d646                	sw	a7,44(sp)
20015722:	d472                	sw	t3,40(sp)
20015724:	d276                	sw	t4,36(sp)
20015726:	d07a                	sw	t5,32(sp)
20015728:	ce7e                	sw	t6,28(sp)
2001572a:	1080                	addi	s0,sp,96
/home/nicoladgg/wsFreedomStudio/sifive_hifive1_revb_hello/freedom-metal/src/drivers/riscv_cpu.c:220
2001572c:	947ff0ef          	jal	ra,20015072 <__metal_myhart_id>
20015730:	872a                	mv	a4,a0
20015732:	070a                	slli	a4,a4,0x2
20015734:	80c18793          	addi	a5,gp,-2036 # 80000aac <__metal_cpu_table>
20015738:	97ba                	add	a5,a5,a4
2001573a:	439c                	lw	a5,0(a5)
2001573c:	faf42623          	sw	a5,-84(s0)
20015740:	fac42783          	lw	a5,-84(s0)
20015744:	c78d                	beqz	a5,2001576e <metal_lc1_interrupt_vector_handler+0x68>
/home/nicoladgg/wsFreedomStudio/sifive_hifive1_revb_hello/freedom-metal/src/drivers/riscv_cpu.c:220 (discriminator 1)
20015746:	fac42503          	lw	a0,-84(s0)
2001574a:	8afff0ef          	jal	ra,20014ff8 <__metal_driver_cpu_interrupt_controller>
2001574e:	faa42423          	sw	a0,-88(s0)
20015752:	fa842783          	lw	a5,-88(s0)
20015756:	2307a783          	lw	a5,560(a5)
2001575a:	faf42223          	sw	a5,-92(s0)
2001575e:	fa842783          	lw	a5,-88(s0)
20015762:	2287a783          	lw	a5,552(a5)
20015766:	fa442583          	lw	a1,-92(s0)
2001576a:	4545                	li	a0,17
2001576c:	9782                	jalr	a5
/home/nicoladgg/wsFreedomStudio/sifive_hifive1_revb_hello/freedom-metal/src/drivers/riscv_cpu.c:221
2001576e:	0001                	nop
20015770:	40f6                	lw	ra,92(sp)
20015772:	42e6                	lw	t0,88(sp)
20015774:	4356                	lw	t1,84(sp)
20015776:	43c6                	lw	t2,80(sp)
20015778:	4436                	lw	s0,76(sp)
2001577a:	4526                	lw	a0,72(sp)
2001577c:	4596                	lw	a1,68(sp)
2001577e:	4606                	lw	a2,64(sp)
20015780:	56f2                	lw	a3,60(sp)
20015782:	5762                	lw	a4,56(sp)
20015784:	57d2                	lw	a5,52(sp)
20015786:	5842                	lw	a6,48(sp)
20015788:	58b2                	lw	a7,44(sp)
2001578a:	5e22                	lw	t3,40(sp)
2001578c:	5e92                	lw	t4,36(sp)
2001578e:	5f02                	lw	t5,32(sp)
20015790:	4ff2                	lw	t6,28(sp)
20015792:	6125                	addi	sp,sp,96
20015794:	30200073          	mret

20015798 <metal_lc2_interrupt_vector_handler>:
metal_lc2_interrupt_vector_handler():
/home/nicoladgg/wsFreedomStudio/sifive_hifive1_revb_hello/freedom-metal/src/drivers/riscv_cpu.c:224
20015798:	711d                	addi	sp,sp,-96
2001579a:	ce86                	sw	ra,92(sp)
2001579c:	cc96                	sw	t0,88(sp)
2001579e:	ca9a                	sw	t1,84(sp)
200157a0:	c89e                	sw	t2,80(sp)
200157a2:	c6a2                	sw	s0,76(sp)
200157a4:	c4aa                	sw	a0,72(sp)
200157a6:	c2ae                	sw	a1,68(sp)
200157a8:	c0b2                	sw	a2,64(sp)
200157aa:	de36                	sw	a3,60(sp)
200157ac:	dc3a                	sw	a4,56(sp)
200157ae:	da3e                	sw	a5,52(sp)
200157b0:	d842                	sw	a6,48(sp)
200157b2:	d646                	sw	a7,44(sp)
200157b4:	d472                	sw	t3,40(sp)
200157b6:	d276                	sw	t4,36(sp)
200157b8:	d07a                	sw	t5,32(sp)
200157ba:	ce7e                	sw	t6,28(sp)
200157bc:	1080                	addi	s0,sp,96
/home/nicoladgg/wsFreedomStudio/sifive_hifive1_revb_hello/freedom-metal/src/drivers/riscv_cpu.c:225
200157be:	8b5ff0ef          	jal	ra,20015072 <__metal_myhart_id>
200157c2:	872a                	mv	a4,a0
200157c4:	070a                	slli	a4,a4,0x2
200157c6:	80c18793          	addi	a5,gp,-2036 # 80000aac <__metal_cpu_table>
200157ca:	97ba                	add	a5,a5,a4
200157cc:	439c                	lw	a5,0(a5)
200157ce:	faf42623          	sw	a5,-84(s0)
200157d2:	fac42783          	lw	a5,-84(s0)
200157d6:	c78d                	beqz	a5,20015800 <metal_lc2_interrupt_vector_handler+0x68>
/home/nicoladgg/wsFreedomStudio/sifive_hifive1_revb_hello/freedom-metal/src/drivers/riscv_cpu.c:225 (discriminator 1)
200157d8:	fac42503          	lw	a0,-84(s0)
200157dc:	81dff0ef          	jal	ra,20014ff8 <__metal_driver_cpu_interrupt_controller>
200157e0:	faa42423          	sw	a0,-88(s0)
200157e4:	fa842783          	lw	a5,-88(s0)
200157e8:	2487a783          	lw	a5,584(a5)
200157ec:	faf42223          	sw	a5,-92(s0)
200157f0:	fa842783          	lw	a5,-88(s0)
200157f4:	2407a783          	lw	a5,576(a5)
200157f8:	fa442583          	lw	a1,-92(s0)
200157fc:	4549                	li	a0,18
200157fe:	9782                	jalr	a5
/home/nicoladgg/wsFreedomStudio/sifive_hifive1_revb_hello/freedom-metal/src/drivers/riscv_cpu.c:226
20015800:	0001                	nop
20015802:	40f6                	lw	ra,92(sp)
20015804:	42e6                	lw	t0,88(sp)
20015806:	4356                	lw	t1,84(sp)
20015808:	43c6                	lw	t2,80(sp)
2001580a:	4436                	lw	s0,76(sp)
2001580c:	4526                	lw	a0,72(sp)
2001580e:	4596                	lw	a1,68(sp)
20015810:	4606                	lw	a2,64(sp)
20015812:	56f2                	lw	a3,60(sp)
20015814:	5762                	lw	a4,56(sp)
20015816:	57d2                	lw	a5,52(sp)
20015818:	5842                	lw	a6,48(sp)
2001581a:	58b2                	lw	a7,44(sp)
2001581c:	5e22                	lw	t3,40(sp)
2001581e:	5e92                	lw	t4,36(sp)
20015820:	5f02                	lw	t5,32(sp)
20015822:	4ff2                	lw	t6,28(sp)
20015824:	6125                	addi	sp,sp,96
20015826:	30200073          	mret

2001582a <metal_lc3_interrupt_vector_handler>:
metal_lc3_interrupt_vector_handler():
/home/nicoladgg/wsFreedomStudio/sifive_hifive1_revb_hello/freedom-metal/src/drivers/riscv_cpu.c:229
2001582a:	711d                	addi	sp,sp,-96
2001582c:	ce86                	sw	ra,92(sp)
2001582e:	cc96                	sw	t0,88(sp)
20015830:	ca9a                	sw	t1,84(sp)
20015832:	c89e                	sw	t2,80(sp)
20015834:	c6a2                	sw	s0,76(sp)
20015836:	c4aa                	sw	a0,72(sp)
20015838:	c2ae                	sw	a1,68(sp)
2001583a:	c0b2                	sw	a2,64(sp)
2001583c:	de36                	sw	a3,60(sp)
2001583e:	dc3a                	sw	a4,56(sp)
20015840:	da3e                	sw	a5,52(sp)
20015842:	d842                	sw	a6,48(sp)
20015844:	d646                	sw	a7,44(sp)
20015846:	d472                	sw	t3,40(sp)
20015848:	d276                	sw	t4,36(sp)
2001584a:	d07a                	sw	t5,32(sp)
2001584c:	ce7e                	sw	t6,28(sp)
2001584e:	1080                	addi	s0,sp,96
/home/nicoladgg/wsFreedomStudio/sifive_hifive1_revb_hello/freedom-metal/src/drivers/riscv_cpu.c:230
20015850:	823ff0ef          	jal	ra,20015072 <__metal_myhart_id>
20015854:	872a                	mv	a4,a0
20015856:	070a                	slli	a4,a4,0x2
20015858:	80c18793          	addi	a5,gp,-2036 # 80000aac <__metal_cpu_table>
2001585c:	97ba                	add	a5,a5,a4
2001585e:	439c                	lw	a5,0(a5)
20015860:	faf42623          	sw	a5,-84(s0)
20015864:	fac42783          	lw	a5,-84(s0)
20015868:	c78d                	beqz	a5,20015892 <metal_lc3_interrupt_vector_handler+0x68>
/home/nicoladgg/wsFreedomStudio/sifive_hifive1_revb_hello/freedom-metal/src/drivers/riscv_cpu.c:230 (discriminator 1)
2001586a:	fac42503          	lw	a0,-84(s0)
2001586e:	f8aff0ef          	jal	ra,20014ff8 <__metal_driver_cpu_interrupt_controller>
20015872:	faa42423          	sw	a0,-88(s0)
20015876:	fa842783          	lw	a5,-88(s0)
2001587a:	2607a783          	lw	a5,608(a5)
2001587e:	faf42223          	sw	a5,-92(s0)
20015882:	fa842783          	lw	a5,-88(s0)
20015886:	2587a783          	lw	a5,600(a5)
2001588a:	fa442583          	lw	a1,-92(s0)
2001588e:	454d                	li	a0,19
20015890:	9782                	jalr	a5
/home/nicoladgg/wsFreedomStudio/sifive_hifive1_revb_hello/freedom-metal/src/drivers/riscv_cpu.c:231
20015892:	0001                	nop
20015894:	40f6                	lw	ra,92(sp)
20015896:	42e6                	lw	t0,88(sp)
20015898:	4356                	lw	t1,84(sp)
2001589a:	43c6                	lw	t2,80(sp)
2001589c:	4436                	lw	s0,76(sp)
2001589e:	4526                	lw	a0,72(sp)
200158a0:	4596                	lw	a1,68(sp)
200158a2:	4606                	lw	a2,64(sp)
200158a4:	56f2                	lw	a3,60(sp)
200158a6:	5762                	lw	a4,56(sp)
200158a8:	57d2                	lw	a5,52(sp)
200158aa:	5842                	lw	a6,48(sp)
200158ac:	58b2                	lw	a7,44(sp)
200158ae:	5e22                	lw	t3,40(sp)
200158b0:	5e92                	lw	t4,36(sp)
200158b2:	5f02                	lw	t5,32(sp)
200158b4:	4ff2                	lw	t6,28(sp)
200158b6:	6125                	addi	sp,sp,96
200158b8:	30200073          	mret

200158bc <metal_lc4_interrupt_vector_handler>:
metal_lc4_interrupt_vector_handler():
/home/nicoladgg/wsFreedomStudio/sifive_hifive1_revb_hello/freedom-metal/src/drivers/riscv_cpu.c:234
200158bc:	711d                	addi	sp,sp,-96
200158be:	ce86                	sw	ra,92(sp)
200158c0:	cc96                	sw	t0,88(sp)
200158c2:	ca9a                	sw	t1,84(sp)
200158c4:	c89e                	sw	t2,80(sp)
200158c6:	c6a2                	sw	s0,76(sp)
200158c8:	c4aa                	sw	a0,72(sp)
200158ca:	c2ae                	sw	a1,68(sp)
200158cc:	c0b2                	sw	a2,64(sp)
200158ce:	de36                	sw	a3,60(sp)
200158d0:	dc3a                	sw	a4,56(sp)
200158d2:	da3e                	sw	a5,52(sp)
200158d4:	d842                	sw	a6,48(sp)
200158d6:	d646                	sw	a7,44(sp)
200158d8:	d472                	sw	t3,40(sp)
200158da:	d276                	sw	t4,36(sp)
200158dc:	d07a                	sw	t5,32(sp)
200158de:	ce7e                	sw	t6,28(sp)
200158e0:	1080                	addi	s0,sp,96
/home/nicoladgg/wsFreedomStudio/sifive_hifive1_revb_hello/freedom-metal/src/drivers/riscv_cpu.c:235
200158e2:	f90ff0ef          	jal	ra,20015072 <__metal_myhart_id>
200158e6:	872a                	mv	a4,a0
200158e8:	070a                	slli	a4,a4,0x2
200158ea:	80c18793          	addi	a5,gp,-2036 # 80000aac <__metal_cpu_table>
200158ee:	97ba                	add	a5,a5,a4
200158f0:	439c                	lw	a5,0(a5)
200158f2:	faf42623          	sw	a5,-84(s0)
200158f6:	fac42783          	lw	a5,-84(s0)
200158fa:	c78d                	beqz	a5,20015924 <metal_lc4_interrupt_vector_handler+0x68>
/home/nicoladgg/wsFreedomStudio/sifive_hifive1_revb_hello/freedom-metal/src/drivers/riscv_cpu.c:235 (discriminator 1)
200158fc:	fac42503          	lw	a0,-84(s0)
20015900:	ef8ff0ef          	jal	ra,20014ff8 <__metal_driver_cpu_interrupt_controller>
20015904:	faa42423          	sw	a0,-88(s0)
20015908:	fa842783          	lw	a5,-88(s0)
2001590c:	2787a783          	lw	a5,632(a5)
20015910:	faf42223          	sw	a5,-92(s0)
20015914:	fa842783          	lw	a5,-88(s0)
20015918:	2707a783          	lw	a5,624(a5)
2001591c:	fa442583          	lw	a1,-92(s0)
20015920:	4551                	li	a0,20
20015922:	9782                	jalr	a5
/home/nicoladgg/wsFreedomStudio/sifive_hifive1_revb_hello/freedom-metal/src/drivers/riscv_cpu.c:236
20015924:	0001                	nop
20015926:	40f6                	lw	ra,92(sp)
20015928:	42e6                	lw	t0,88(sp)
2001592a:	4356                	lw	t1,84(sp)
2001592c:	43c6                	lw	t2,80(sp)
2001592e:	4436                	lw	s0,76(sp)
20015930:	4526                	lw	a0,72(sp)
20015932:	4596                	lw	a1,68(sp)
20015934:	4606                	lw	a2,64(sp)
20015936:	56f2                	lw	a3,60(sp)
20015938:	5762                	lw	a4,56(sp)
2001593a:	57d2                	lw	a5,52(sp)
2001593c:	5842                	lw	a6,48(sp)
2001593e:	58b2                	lw	a7,44(sp)
20015940:	5e22                	lw	t3,40(sp)
20015942:	5e92                	lw	t4,36(sp)
20015944:	5f02                	lw	t5,32(sp)
20015946:	4ff2                	lw	t6,28(sp)
20015948:	6125                	addi	sp,sp,96
2001594a:	30200073          	mret

2001594e <metal_lc5_interrupt_vector_handler>:
metal_lc5_interrupt_vector_handler():
/home/nicoladgg/wsFreedomStudio/sifive_hifive1_revb_hello/freedom-metal/src/drivers/riscv_cpu.c:239
2001594e:	711d                	addi	sp,sp,-96
20015950:	ce86                	sw	ra,92(sp)
20015952:	cc96                	sw	t0,88(sp)
20015954:	ca9a                	sw	t1,84(sp)
20015956:	c89e                	sw	t2,80(sp)
20015958:	c6a2                	sw	s0,76(sp)
2001595a:	c4aa                	sw	a0,72(sp)
2001595c:	c2ae                	sw	a1,68(sp)
2001595e:	c0b2                	sw	a2,64(sp)
20015960:	de36                	sw	a3,60(sp)
20015962:	dc3a                	sw	a4,56(sp)
20015964:	da3e                	sw	a5,52(sp)
20015966:	d842                	sw	a6,48(sp)
20015968:	d646                	sw	a7,44(sp)
2001596a:	d472                	sw	t3,40(sp)
2001596c:	d276                	sw	t4,36(sp)
2001596e:	d07a                	sw	t5,32(sp)
20015970:	ce7e                	sw	t6,28(sp)
20015972:	1080                	addi	s0,sp,96
/home/nicoladgg/wsFreedomStudio/sifive_hifive1_revb_hello/freedom-metal/src/drivers/riscv_cpu.c:240
20015974:	efeff0ef          	jal	ra,20015072 <__metal_myhart_id>
20015978:	872a                	mv	a4,a0
2001597a:	070a                	slli	a4,a4,0x2
2001597c:	80c18793          	addi	a5,gp,-2036 # 80000aac <__metal_cpu_table>
20015980:	97ba                	add	a5,a5,a4
20015982:	439c                	lw	a5,0(a5)
20015984:	faf42623          	sw	a5,-84(s0)
20015988:	fac42783          	lw	a5,-84(s0)
2001598c:	c78d                	beqz	a5,200159b6 <metal_lc5_interrupt_vector_handler+0x68>
/home/nicoladgg/wsFreedomStudio/sifive_hifive1_revb_hello/freedom-metal/src/drivers/riscv_cpu.c:240 (discriminator 1)
2001598e:	fac42503          	lw	a0,-84(s0)
20015992:	e66ff0ef          	jal	ra,20014ff8 <__metal_driver_cpu_interrupt_controller>
20015996:	faa42423          	sw	a0,-88(s0)
2001599a:	fa842783          	lw	a5,-88(s0)
2001599e:	2907a783          	lw	a5,656(a5)
200159a2:	faf42223          	sw	a5,-92(s0)
200159a6:	fa842783          	lw	a5,-88(s0)
200159aa:	2887a783          	lw	a5,648(a5)
200159ae:	fa442583          	lw	a1,-92(s0)
200159b2:	4555                	li	a0,21
200159b4:	9782                	jalr	a5
/home/nicoladgg/wsFreedomStudio/sifive_hifive1_revb_hello/freedom-metal/src/drivers/riscv_cpu.c:241
200159b6:	0001                	nop
200159b8:	40f6                	lw	ra,92(sp)
200159ba:	42e6                	lw	t0,88(sp)
200159bc:	4356                	lw	t1,84(sp)
200159be:	43c6                	lw	t2,80(sp)
200159c0:	4436                	lw	s0,76(sp)
200159c2:	4526                	lw	a0,72(sp)
200159c4:	4596                	lw	a1,68(sp)
200159c6:	4606                	lw	a2,64(sp)
200159c8:	56f2                	lw	a3,60(sp)
200159ca:	5762                	lw	a4,56(sp)
200159cc:	57d2                	lw	a5,52(sp)
200159ce:	5842                	lw	a6,48(sp)
200159d0:	58b2                	lw	a7,44(sp)
200159d2:	5e22                	lw	t3,40(sp)
200159d4:	5e92                	lw	t4,36(sp)
200159d6:	5f02                	lw	t5,32(sp)
200159d8:	4ff2                	lw	t6,28(sp)
200159da:	6125                	addi	sp,sp,96
200159dc:	30200073          	mret

200159e0 <metal_lc6_interrupt_vector_handler>:
metal_lc6_interrupt_vector_handler():
/home/nicoladgg/wsFreedomStudio/sifive_hifive1_revb_hello/freedom-metal/src/drivers/riscv_cpu.c:244
200159e0:	711d                	addi	sp,sp,-96
200159e2:	ce86                	sw	ra,92(sp)
200159e4:	cc96                	sw	t0,88(sp)
200159e6:	ca9a                	sw	t1,84(sp)
200159e8:	c89e                	sw	t2,80(sp)
200159ea:	c6a2                	sw	s0,76(sp)
200159ec:	c4aa                	sw	a0,72(sp)
200159ee:	c2ae                	sw	a1,68(sp)
200159f0:	c0b2                	sw	a2,64(sp)
200159f2:	de36                	sw	a3,60(sp)
200159f4:	dc3a                	sw	a4,56(sp)
200159f6:	da3e                	sw	a5,52(sp)
200159f8:	d842                	sw	a6,48(sp)
200159fa:	d646                	sw	a7,44(sp)
200159fc:	d472                	sw	t3,40(sp)
200159fe:	d276                	sw	t4,36(sp)
20015a00:	d07a                	sw	t5,32(sp)
20015a02:	ce7e                	sw	t6,28(sp)
20015a04:	1080                	addi	s0,sp,96
/home/nicoladgg/wsFreedomStudio/sifive_hifive1_revb_hello/freedom-metal/src/drivers/riscv_cpu.c:245
20015a06:	e6cff0ef          	jal	ra,20015072 <__metal_myhart_id>
20015a0a:	872a                	mv	a4,a0
20015a0c:	070a                	slli	a4,a4,0x2
20015a0e:	80c18793          	addi	a5,gp,-2036 # 80000aac <__metal_cpu_table>
20015a12:	97ba                	add	a5,a5,a4
20015a14:	439c                	lw	a5,0(a5)
20015a16:	faf42623          	sw	a5,-84(s0)
20015a1a:	fac42783          	lw	a5,-84(s0)
20015a1e:	c78d                	beqz	a5,20015a48 <metal_lc6_interrupt_vector_handler+0x68>
/home/nicoladgg/wsFreedomStudio/sifive_hifive1_revb_hello/freedom-metal/src/drivers/riscv_cpu.c:245 (discriminator 1)
20015a20:	fac42503          	lw	a0,-84(s0)
20015a24:	dd4ff0ef          	jal	ra,20014ff8 <__metal_driver_cpu_interrupt_controller>
20015a28:	faa42423          	sw	a0,-88(s0)
20015a2c:	fa842783          	lw	a5,-88(s0)
20015a30:	2a87a783          	lw	a5,680(a5)
20015a34:	faf42223          	sw	a5,-92(s0)
20015a38:	fa842783          	lw	a5,-88(s0)
20015a3c:	2a07a783          	lw	a5,672(a5)
20015a40:	fa442583          	lw	a1,-92(s0)
20015a44:	4559                	li	a0,22
20015a46:	9782                	jalr	a5
/home/nicoladgg/wsFreedomStudio/sifive_hifive1_revb_hello/freedom-metal/src/drivers/riscv_cpu.c:246
20015a48:	0001                	nop
20015a4a:	40f6                	lw	ra,92(sp)
20015a4c:	42e6                	lw	t0,88(sp)
20015a4e:	4356                	lw	t1,84(sp)
20015a50:	43c6                	lw	t2,80(sp)
20015a52:	4436                	lw	s0,76(sp)
20015a54:	4526                	lw	a0,72(sp)
20015a56:	4596                	lw	a1,68(sp)
20015a58:	4606                	lw	a2,64(sp)
20015a5a:	56f2                	lw	a3,60(sp)
20015a5c:	5762                	lw	a4,56(sp)
20015a5e:	57d2                	lw	a5,52(sp)
20015a60:	5842                	lw	a6,48(sp)
20015a62:	58b2                	lw	a7,44(sp)
20015a64:	5e22                	lw	t3,40(sp)
20015a66:	5e92                	lw	t4,36(sp)
20015a68:	5f02                	lw	t5,32(sp)
20015a6a:	4ff2                	lw	t6,28(sp)
20015a6c:	6125                	addi	sp,sp,96
20015a6e:	30200073          	mret

20015a72 <metal_lc7_interrupt_vector_handler>:
metal_lc7_interrupt_vector_handler():
/home/nicoladgg/wsFreedomStudio/sifive_hifive1_revb_hello/freedom-metal/src/drivers/riscv_cpu.c:249
20015a72:	711d                	addi	sp,sp,-96
20015a74:	ce86                	sw	ra,92(sp)
20015a76:	cc96                	sw	t0,88(sp)
20015a78:	ca9a                	sw	t1,84(sp)
20015a7a:	c89e                	sw	t2,80(sp)
20015a7c:	c6a2                	sw	s0,76(sp)
20015a7e:	c4aa                	sw	a0,72(sp)
20015a80:	c2ae                	sw	a1,68(sp)
20015a82:	c0b2                	sw	a2,64(sp)
20015a84:	de36                	sw	a3,60(sp)
20015a86:	dc3a                	sw	a4,56(sp)
20015a88:	da3e                	sw	a5,52(sp)
20015a8a:	d842                	sw	a6,48(sp)
20015a8c:	d646                	sw	a7,44(sp)
20015a8e:	d472                	sw	t3,40(sp)
20015a90:	d276                	sw	t4,36(sp)
20015a92:	d07a                	sw	t5,32(sp)
20015a94:	ce7e                	sw	t6,28(sp)
20015a96:	1080                	addi	s0,sp,96
/home/nicoladgg/wsFreedomStudio/sifive_hifive1_revb_hello/freedom-metal/src/drivers/riscv_cpu.c:250
20015a98:	ddaff0ef          	jal	ra,20015072 <__metal_myhart_id>
20015a9c:	872a                	mv	a4,a0
20015a9e:	070a                	slli	a4,a4,0x2
20015aa0:	80c18793          	addi	a5,gp,-2036 # 80000aac <__metal_cpu_table>
20015aa4:	97ba                	add	a5,a5,a4
20015aa6:	439c                	lw	a5,0(a5)
20015aa8:	faf42623          	sw	a5,-84(s0)
20015aac:	fac42783          	lw	a5,-84(s0)
20015ab0:	c78d                	beqz	a5,20015ada <metal_lc7_interrupt_vector_handler+0x68>
/home/nicoladgg/wsFreedomStudio/sifive_hifive1_revb_hello/freedom-metal/src/drivers/riscv_cpu.c:250 (discriminator 1)
20015ab2:	fac42503          	lw	a0,-84(s0)
20015ab6:	d42ff0ef          	jal	ra,20014ff8 <__metal_driver_cpu_interrupt_controller>
20015aba:	faa42423          	sw	a0,-88(s0)
20015abe:	fa842783          	lw	a5,-88(s0)
20015ac2:	2c07a783          	lw	a5,704(a5)
20015ac6:	faf42223          	sw	a5,-92(s0)
20015aca:	fa842783          	lw	a5,-88(s0)
20015ace:	2b87a783          	lw	a5,696(a5)
20015ad2:	fa442583          	lw	a1,-92(s0)
20015ad6:	455d                	li	a0,23
20015ad8:	9782                	jalr	a5
/home/nicoladgg/wsFreedomStudio/sifive_hifive1_revb_hello/freedom-metal/src/drivers/riscv_cpu.c:251
20015ada:	0001                	nop
20015adc:	40f6                	lw	ra,92(sp)
20015ade:	42e6                	lw	t0,88(sp)
20015ae0:	4356                	lw	t1,84(sp)
20015ae2:	43c6                	lw	t2,80(sp)
20015ae4:	4436                	lw	s0,76(sp)
20015ae6:	4526                	lw	a0,72(sp)
20015ae8:	4596                	lw	a1,68(sp)
20015aea:	4606                	lw	a2,64(sp)
20015aec:	56f2                	lw	a3,60(sp)
20015aee:	5762                	lw	a4,56(sp)
20015af0:	57d2                	lw	a5,52(sp)
20015af2:	5842                	lw	a6,48(sp)
20015af4:	58b2                	lw	a7,44(sp)
20015af6:	5e22                	lw	t3,40(sp)
20015af8:	5e92                	lw	t4,36(sp)
20015afa:	5f02                	lw	t5,32(sp)
20015afc:	4ff2                	lw	t6,28(sp)
20015afe:	6125                	addi	sp,sp,96
20015b00:	30200073          	mret

20015b04 <metal_lc8_interrupt_vector_handler>:
metal_lc8_interrupt_vector_handler():
/home/nicoladgg/wsFreedomStudio/sifive_hifive1_revb_hello/freedom-metal/src/drivers/riscv_cpu.c:254
20015b04:	711d                	addi	sp,sp,-96
20015b06:	ce86                	sw	ra,92(sp)
20015b08:	cc96                	sw	t0,88(sp)
20015b0a:	ca9a                	sw	t1,84(sp)
20015b0c:	c89e                	sw	t2,80(sp)
20015b0e:	c6a2                	sw	s0,76(sp)
20015b10:	c4aa                	sw	a0,72(sp)
20015b12:	c2ae                	sw	a1,68(sp)
20015b14:	c0b2                	sw	a2,64(sp)
20015b16:	de36                	sw	a3,60(sp)
20015b18:	dc3a                	sw	a4,56(sp)
20015b1a:	da3e                	sw	a5,52(sp)
20015b1c:	d842                	sw	a6,48(sp)
20015b1e:	d646                	sw	a7,44(sp)
20015b20:	d472                	sw	t3,40(sp)
20015b22:	d276                	sw	t4,36(sp)
20015b24:	d07a                	sw	t5,32(sp)
20015b26:	ce7e                	sw	t6,28(sp)
20015b28:	1080                	addi	s0,sp,96
/home/nicoladgg/wsFreedomStudio/sifive_hifive1_revb_hello/freedom-metal/src/drivers/riscv_cpu.c:255
20015b2a:	d48ff0ef          	jal	ra,20015072 <__metal_myhart_id>
20015b2e:	872a                	mv	a4,a0
20015b30:	070a                	slli	a4,a4,0x2
20015b32:	80c18793          	addi	a5,gp,-2036 # 80000aac <__metal_cpu_table>
20015b36:	97ba                	add	a5,a5,a4
20015b38:	439c                	lw	a5,0(a5)
20015b3a:	faf42623          	sw	a5,-84(s0)
20015b3e:	fac42783          	lw	a5,-84(s0)
20015b42:	c78d                	beqz	a5,20015b6c <metal_lc8_interrupt_vector_handler+0x68>
/home/nicoladgg/wsFreedomStudio/sifive_hifive1_revb_hello/freedom-metal/src/drivers/riscv_cpu.c:255 (discriminator 1)
20015b44:	fac42503          	lw	a0,-84(s0)
20015b48:	cb0ff0ef          	jal	ra,20014ff8 <__metal_driver_cpu_interrupt_controller>
20015b4c:	faa42423          	sw	a0,-88(s0)
20015b50:	fa842783          	lw	a5,-88(s0)
20015b54:	2d87a783          	lw	a5,728(a5)
20015b58:	faf42223          	sw	a5,-92(s0)
20015b5c:	fa842783          	lw	a5,-88(s0)
20015b60:	2d07a783          	lw	a5,720(a5)
20015b64:	fa442583          	lw	a1,-92(s0)
20015b68:	4561                	li	a0,24
20015b6a:	9782                	jalr	a5
/home/nicoladgg/wsFreedomStudio/sifive_hifive1_revb_hello/freedom-metal/src/drivers/riscv_cpu.c:256
20015b6c:	0001                	nop
20015b6e:	40f6                	lw	ra,92(sp)
20015b70:	42e6                	lw	t0,88(sp)
20015b72:	4356                	lw	t1,84(sp)
20015b74:	43c6                	lw	t2,80(sp)
20015b76:	4436                	lw	s0,76(sp)
20015b78:	4526                	lw	a0,72(sp)
20015b7a:	4596                	lw	a1,68(sp)
20015b7c:	4606                	lw	a2,64(sp)
20015b7e:	56f2                	lw	a3,60(sp)
20015b80:	5762                	lw	a4,56(sp)
20015b82:	57d2                	lw	a5,52(sp)
20015b84:	5842                	lw	a6,48(sp)
20015b86:	58b2                	lw	a7,44(sp)
20015b88:	5e22                	lw	t3,40(sp)
20015b8a:	5e92                	lw	t4,36(sp)
20015b8c:	5f02                	lw	t5,32(sp)
20015b8e:	4ff2                	lw	t6,28(sp)
20015b90:	6125                	addi	sp,sp,96
20015b92:	30200073          	mret

20015b96 <metal_lc9_interrupt_vector_handler>:
metal_lc9_interrupt_vector_handler():
/home/nicoladgg/wsFreedomStudio/sifive_hifive1_revb_hello/freedom-metal/src/drivers/riscv_cpu.c:259
20015b96:	711d                	addi	sp,sp,-96
20015b98:	ce86                	sw	ra,92(sp)
20015b9a:	cc96                	sw	t0,88(sp)
20015b9c:	ca9a                	sw	t1,84(sp)
20015b9e:	c89e                	sw	t2,80(sp)
20015ba0:	c6a2                	sw	s0,76(sp)
20015ba2:	c4aa                	sw	a0,72(sp)
20015ba4:	c2ae                	sw	a1,68(sp)
20015ba6:	c0b2                	sw	a2,64(sp)
20015ba8:	de36                	sw	a3,60(sp)
20015baa:	dc3a                	sw	a4,56(sp)
20015bac:	da3e                	sw	a5,52(sp)
20015bae:	d842                	sw	a6,48(sp)
20015bb0:	d646                	sw	a7,44(sp)
20015bb2:	d472                	sw	t3,40(sp)
20015bb4:	d276                	sw	t4,36(sp)
20015bb6:	d07a                	sw	t5,32(sp)
20015bb8:	ce7e                	sw	t6,28(sp)
20015bba:	1080                	addi	s0,sp,96
/home/nicoladgg/wsFreedomStudio/sifive_hifive1_revb_hello/freedom-metal/src/drivers/riscv_cpu.c:260
20015bbc:	cb6ff0ef          	jal	ra,20015072 <__metal_myhart_id>
20015bc0:	872a                	mv	a4,a0
20015bc2:	070a                	slli	a4,a4,0x2
20015bc4:	80c18793          	addi	a5,gp,-2036 # 80000aac <__metal_cpu_table>
20015bc8:	97ba                	add	a5,a5,a4
20015bca:	439c                	lw	a5,0(a5)
20015bcc:	faf42623          	sw	a5,-84(s0)
20015bd0:	fac42783          	lw	a5,-84(s0)
20015bd4:	c78d                	beqz	a5,20015bfe <metal_lc9_interrupt_vector_handler+0x68>
/home/nicoladgg/wsFreedomStudio/sifive_hifive1_revb_hello/freedom-metal/src/drivers/riscv_cpu.c:260 (discriminator 1)
20015bd6:	fac42503          	lw	a0,-84(s0)
20015bda:	c1eff0ef          	jal	ra,20014ff8 <__metal_driver_cpu_interrupt_controller>
20015bde:	faa42423          	sw	a0,-88(s0)
20015be2:	fa842783          	lw	a5,-88(s0)
20015be6:	2f07a783          	lw	a5,752(a5)
20015bea:	faf42223          	sw	a5,-92(s0)
20015bee:	fa842783          	lw	a5,-88(s0)
20015bf2:	2e87a783          	lw	a5,744(a5)
20015bf6:	fa442583          	lw	a1,-92(s0)
20015bfa:	4565                	li	a0,25
20015bfc:	9782                	jalr	a5
/home/nicoladgg/wsFreedomStudio/sifive_hifive1_revb_hello/freedom-metal/src/drivers/riscv_cpu.c:261
20015bfe:	0001                	nop
20015c00:	40f6                	lw	ra,92(sp)
20015c02:	42e6                	lw	t0,88(sp)
20015c04:	4356                	lw	t1,84(sp)
20015c06:	43c6                	lw	t2,80(sp)
20015c08:	4436                	lw	s0,76(sp)
20015c0a:	4526                	lw	a0,72(sp)
20015c0c:	4596                	lw	a1,68(sp)
20015c0e:	4606                	lw	a2,64(sp)
20015c10:	56f2                	lw	a3,60(sp)
20015c12:	5762                	lw	a4,56(sp)
20015c14:	57d2                	lw	a5,52(sp)
20015c16:	5842                	lw	a6,48(sp)
20015c18:	58b2                	lw	a7,44(sp)
20015c1a:	5e22                	lw	t3,40(sp)
20015c1c:	5e92                	lw	t4,36(sp)
20015c1e:	5f02                	lw	t5,32(sp)
20015c20:	4ff2                	lw	t6,28(sp)
20015c22:	6125                	addi	sp,sp,96
20015c24:	30200073          	mret

20015c28 <metal_lc10_interrupt_vector_handler>:
metal_lc10_interrupt_vector_handler():
/home/nicoladgg/wsFreedomStudio/sifive_hifive1_revb_hello/freedom-metal/src/drivers/riscv_cpu.c:265
20015c28:	711d                	addi	sp,sp,-96
20015c2a:	ce86                	sw	ra,92(sp)
20015c2c:	cc96                	sw	t0,88(sp)
20015c2e:	ca9a                	sw	t1,84(sp)
20015c30:	c89e                	sw	t2,80(sp)
20015c32:	c6a2                	sw	s0,76(sp)
20015c34:	c4aa                	sw	a0,72(sp)
20015c36:	c2ae                	sw	a1,68(sp)
20015c38:	c0b2                	sw	a2,64(sp)
20015c3a:	de36                	sw	a3,60(sp)
20015c3c:	dc3a                	sw	a4,56(sp)
20015c3e:	da3e                	sw	a5,52(sp)
20015c40:	d842                	sw	a6,48(sp)
20015c42:	d646                	sw	a7,44(sp)
20015c44:	d472                	sw	t3,40(sp)
20015c46:	d276                	sw	t4,36(sp)
20015c48:	d07a                	sw	t5,32(sp)
20015c4a:	ce7e                	sw	t6,28(sp)
20015c4c:	1080                	addi	s0,sp,96
/home/nicoladgg/wsFreedomStudio/sifive_hifive1_revb_hello/freedom-metal/src/drivers/riscv_cpu.c:266
20015c4e:	c24ff0ef          	jal	ra,20015072 <__metal_myhart_id>
20015c52:	872a                	mv	a4,a0
20015c54:	070a                	slli	a4,a4,0x2
20015c56:	80c18793          	addi	a5,gp,-2036 # 80000aac <__metal_cpu_table>
20015c5a:	97ba                	add	a5,a5,a4
20015c5c:	439c                	lw	a5,0(a5)
20015c5e:	faf42623          	sw	a5,-84(s0)
20015c62:	fac42783          	lw	a5,-84(s0)
20015c66:	c78d                	beqz	a5,20015c90 <metal_lc10_interrupt_vector_handler+0x68>
/home/nicoladgg/wsFreedomStudio/sifive_hifive1_revb_hello/freedom-metal/src/drivers/riscv_cpu.c:266 (discriminator 1)
20015c68:	fac42503          	lw	a0,-84(s0)
20015c6c:	b8cff0ef          	jal	ra,20014ff8 <__metal_driver_cpu_interrupt_controller>
20015c70:	faa42423          	sw	a0,-88(s0)
20015c74:	fa842783          	lw	a5,-88(s0)
20015c78:	3087a783          	lw	a5,776(a5)
20015c7c:	faf42223          	sw	a5,-92(s0)
20015c80:	fa842783          	lw	a5,-88(s0)
20015c84:	3007a783          	lw	a5,768(a5)
20015c88:	fa442583          	lw	a1,-92(s0)
20015c8c:	4569                	li	a0,26
20015c8e:	9782                	jalr	a5
/home/nicoladgg/wsFreedomStudio/sifive_hifive1_revb_hello/freedom-metal/src/drivers/riscv_cpu.c:267
20015c90:	0001                	nop
20015c92:	40f6                	lw	ra,92(sp)
20015c94:	42e6                	lw	t0,88(sp)
20015c96:	4356                	lw	t1,84(sp)
20015c98:	43c6                	lw	t2,80(sp)
20015c9a:	4436                	lw	s0,76(sp)
20015c9c:	4526                	lw	a0,72(sp)
20015c9e:	4596                	lw	a1,68(sp)
20015ca0:	4606                	lw	a2,64(sp)
20015ca2:	56f2                	lw	a3,60(sp)
20015ca4:	5762                	lw	a4,56(sp)
20015ca6:	57d2                	lw	a5,52(sp)
20015ca8:	5842                	lw	a6,48(sp)
20015caa:	58b2                	lw	a7,44(sp)
20015cac:	5e22                	lw	t3,40(sp)
20015cae:	5e92                	lw	t4,36(sp)
20015cb0:	5f02                	lw	t5,32(sp)
20015cb2:	4ff2                	lw	t6,28(sp)
20015cb4:	6125                	addi	sp,sp,96
20015cb6:	30200073          	mret

20015cba <metal_lc11_interrupt_vector_handler>:
metal_lc11_interrupt_vector_handler():
/home/nicoladgg/wsFreedomStudio/sifive_hifive1_revb_hello/freedom-metal/src/drivers/riscv_cpu.c:271
20015cba:	711d                	addi	sp,sp,-96
20015cbc:	ce86                	sw	ra,92(sp)
20015cbe:	cc96                	sw	t0,88(sp)
20015cc0:	ca9a                	sw	t1,84(sp)
20015cc2:	c89e                	sw	t2,80(sp)
20015cc4:	c6a2                	sw	s0,76(sp)
20015cc6:	c4aa                	sw	a0,72(sp)
20015cc8:	c2ae                	sw	a1,68(sp)
20015cca:	c0b2                	sw	a2,64(sp)
20015ccc:	de36                	sw	a3,60(sp)
20015cce:	dc3a                	sw	a4,56(sp)
20015cd0:	da3e                	sw	a5,52(sp)
20015cd2:	d842                	sw	a6,48(sp)
20015cd4:	d646                	sw	a7,44(sp)
20015cd6:	d472                	sw	t3,40(sp)
20015cd8:	d276                	sw	t4,36(sp)
20015cda:	d07a                	sw	t5,32(sp)
20015cdc:	ce7e                	sw	t6,28(sp)
20015cde:	1080                	addi	s0,sp,96
/home/nicoladgg/wsFreedomStudio/sifive_hifive1_revb_hello/freedom-metal/src/drivers/riscv_cpu.c:272
20015ce0:	b92ff0ef          	jal	ra,20015072 <__metal_myhart_id>
20015ce4:	872a                	mv	a4,a0
20015ce6:	070a                	slli	a4,a4,0x2
20015ce8:	80c18793          	addi	a5,gp,-2036 # 80000aac <__metal_cpu_table>
20015cec:	97ba                	add	a5,a5,a4
20015cee:	439c                	lw	a5,0(a5)
20015cf0:	faf42623          	sw	a5,-84(s0)
20015cf4:	fac42783          	lw	a5,-84(s0)
20015cf8:	c78d                	beqz	a5,20015d22 <metal_lc11_interrupt_vector_handler+0x68>
/home/nicoladgg/wsFreedomStudio/sifive_hifive1_revb_hello/freedom-metal/src/drivers/riscv_cpu.c:272 (discriminator 1)
20015cfa:	fac42503          	lw	a0,-84(s0)
20015cfe:	afaff0ef          	jal	ra,20014ff8 <__metal_driver_cpu_interrupt_controller>
20015d02:	faa42423          	sw	a0,-88(s0)
20015d06:	fa842783          	lw	a5,-88(s0)
20015d0a:	3207a783          	lw	a5,800(a5)
20015d0e:	faf42223          	sw	a5,-92(s0)
20015d12:	fa842783          	lw	a5,-88(s0)
20015d16:	3187a783          	lw	a5,792(a5)
20015d1a:	fa442583          	lw	a1,-92(s0)
20015d1e:	456d                	li	a0,27
20015d20:	9782                	jalr	a5
/home/nicoladgg/wsFreedomStudio/sifive_hifive1_revb_hello/freedom-metal/src/drivers/riscv_cpu.c:273
20015d22:	0001                	nop
20015d24:	40f6                	lw	ra,92(sp)
20015d26:	42e6                	lw	t0,88(sp)
20015d28:	4356                	lw	t1,84(sp)
20015d2a:	43c6                	lw	t2,80(sp)
20015d2c:	4436                	lw	s0,76(sp)
20015d2e:	4526                	lw	a0,72(sp)
20015d30:	4596                	lw	a1,68(sp)
20015d32:	4606                	lw	a2,64(sp)
20015d34:	56f2                	lw	a3,60(sp)
20015d36:	5762                	lw	a4,56(sp)
20015d38:	57d2                	lw	a5,52(sp)
20015d3a:	5842                	lw	a6,48(sp)
20015d3c:	58b2                	lw	a7,44(sp)
20015d3e:	5e22                	lw	t3,40(sp)
20015d40:	5e92                	lw	t4,36(sp)
20015d42:	5f02                	lw	t5,32(sp)
20015d44:	4ff2                	lw	t6,28(sp)
20015d46:	6125                	addi	sp,sp,96
20015d48:	30200073          	mret

20015d4c <metal_lc12_interrupt_vector_handler>:
metal_lc12_interrupt_vector_handler():
/home/nicoladgg/wsFreedomStudio/sifive_hifive1_revb_hello/freedom-metal/src/drivers/riscv_cpu.c:277
20015d4c:	711d                	addi	sp,sp,-96
20015d4e:	ce86                	sw	ra,92(sp)
20015d50:	cc96                	sw	t0,88(sp)
20015d52:	ca9a                	sw	t1,84(sp)
20015d54:	c89e                	sw	t2,80(sp)
20015d56:	c6a2                	sw	s0,76(sp)
20015d58:	c4aa                	sw	a0,72(sp)
20015d5a:	c2ae                	sw	a1,68(sp)
20015d5c:	c0b2                	sw	a2,64(sp)
20015d5e:	de36                	sw	a3,60(sp)
20015d60:	dc3a                	sw	a4,56(sp)
20015d62:	da3e                	sw	a5,52(sp)
20015d64:	d842                	sw	a6,48(sp)
20015d66:	d646                	sw	a7,44(sp)
20015d68:	d472                	sw	t3,40(sp)
20015d6a:	d276                	sw	t4,36(sp)
20015d6c:	d07a                	sw	t5,32(sp)
20015d6e:	ce7e                	sw	t6,28(sp)
20015d70:	1080                	addi	s0,sp,96
/home/nicoladgg/wsFreedomStudio/sifive_hifive1_revb_hello/freedom-metal/src/drivers/riscv_cpu.c:278
20015d72:	b00ff0ef          	jal	ra,20015072 <__metal_myhart_id>
20015d76:	872a                	mv	a4,a0
20015d78:	070a                	slli	a4,a4,0x2
20015d7a:	80c18793          	addi	a5,gp,-2036 # 80000aac <__metal_cpu_table>
20015d7e:	97ba                	add	a5,a5,a4
20015d80:	439c                	lw	a5,0(a5)
20015d82:	faf42623          	sw	a5,-84(s0)
20015d86:	fac42783          	lw	a5,-84(s0)
20015d8a:	c78d                	beqz	a5,20015db4 <metal_lc12_interrupt_vector_handler+0x68>
/home/nicoladgg/wsFreedomStudio/sifive_hifive1_revb_hello/freedom-metal/src/drivers/riscv_cpu.c:278 (discriminator 1)
20015d8c:	fac42503          	lw	a0,-84(s0)
20015d90:	a68ff0ef          	jal	ra,20014ff8 <__metal_driver_cpu_interrupt_controller>
20015d94:	faa42423          	sw	a0,-88(s0)
20015d98:	fa842783          	lw	a5,-88(s0)
20015d9c:	3387a783          	lw	a5,824(a5)
20015da0:	faf42223          	sw	a5,-92(s0)
20015da4:	fa842783          	lw	a5,-88(s0)
20015da8:	3307a783          	lw	a5,816(a5)
20015dac:	fa442583          	lw	a1,-92(s0)
20015db0:	4571                	li	a0,28
20015db2:	9782                	jalr	a5
/home/nicoladgg/wsFreedomStudio/sifive_hifive1_revb_hello/freedom-metal/src/drivers/riscv_cpu.c:279
20015db4:	0001                	nop
20015db6:	40f6                	lw	ra,92(sp)
20015db8:	42e6                	lw	t0,88(sp)
20015dba:	4356                	lw	t1,84(sp)
20015dbc:	43c6                	lw	t2,80(sp)
20015dbe:	4436                	lw	s0,76(sp)
20015dc0:	4526                	lw	a0,72(sp)
20015dc2:	4596                	lw	a1,68(sp)
20015dc4:	4606                	lw	a2,64(sp)
20015dc6:	56f2                	lw	a3,60(sp)
20015dc8:	5762                	lw	a4,56(sp)
20015dca:	57d2                	lw	a5,52(sp)
20015dcc:	5842                	lw	a6,48(sp)
20015dce:	58b2                	lw	a7,44(sp)
20015dd0:	5e22                	lw	t3,40(sp)
20015dd2:	5e92                	lw	t4,36(sp)
20015dd4:	5f02                	lw	t5,32(sp)
20015dd6:	4ff2                	lw	t6,28(sp)
20015dd8:	6125                	addi	sp,sp,96
20015dda:	30200073          	mret

20015dde <metal_lc13_interrupt_vector_handler>:
metal_lc13_interrupt_vector_handler():
/home/nicoladgg/wsFreedomStudio/sifive_hifive1_revb_hello/freedom-metal/src/drivers/riscv_cpu.c:283
20015dde:	711d                	addi	sp,sp,-96
20015de0:	ce86                	sw	ra,92(sp)
20015de2:	cc96                	sw	t0,88(sp)
20015de4:	ca9a                	sw	t1,84(sp)
20015de6:	c89e                	sw	t2,80(sp)
20015de8:	c6a2                	sw	s0,76(sp)
20015dea:	c4aa                	sw	a0,72(sp)
20015dec:	c2ae                	sw	a1,68(sp)
20015dee:	c0b2                	sw	a2,64(sp)
20015df0:	de36                	sw	a3,60(sp)
20015df2:	dc3a                	sw	a4,56(sp)
20015df4:	da3e                	sw	a5,52(sp)
20015df6:	d842                	sw	a6,48(sp)
20015df8:	d646                	sw	a7,44(sp)
20015dfa:	d472                	sw	t3,40(sp)
20015dfc:	d276                	sw	t4,36(sp)
20015dfe:	d07a                	sw	t5,32(sp)
20015e00:	ce7e                	sw	t6,28(sp)
20015e02:	1080                	addi	s0,sp,96
/home/nicoladgg/wsFreedomStudio/sifive_hifive1_revb_hello/freedom-metal/src/drivers/riscv_cpu.c:284
20015e04:	a6eff0ef          	jal	ra,20015072 <__metal_myhart_id>
20015e08:	872a                	mv	a4,a0
20015e0a:	070a                	slli	a4,a4,0x2
20015e0c:	80c18793          	addi	a5,gp,-2036 # 80000aac <__metal_cpu_table>
20015e10:	97ba                	add	a5,a5,a4
20015e12:	439c                	lw	a5,0(a5)
20015e14:	faf42623          	sw	a5,-84(s0)
20015e18:	fac42783          	lw	a5,-84(s0)
20015e1c:	c78d                	beqz	a5,20015e46 <metal_lc13_interrupt_vector_handler+0x68>
/home/nicoladgg/wsFreedomStudio/sifive_hifive1_revb_hello/freedom-metal/src/drivers/riscv_cpu.c:284 (discriminator 1)
20015e1e:	fac42503          	lw	a0,-84(s0)
20015e22:	9d6ff0ef          	jal	ra,20014ff8 <__metal_driver_cpu_interrupt_controller>
20015e26:	faa42423          	sw	a0,-88(s0)
20015e2a:	fa842783          	lw	a5,-88(s0)
20015e2e:	3507a783          	lw	a5,848(a5)
20015e32:	faf42223          	sw	a5,-92(s0)
20015e36:	fa842783          	lw	a5,-88(s0)
20015e3a:	3487a783          	lw	a5,840(a5)
20015e3e:	fa442583          	lw	a1,-92(s0)
20015e42:	4575                	li	a0,29
20015e44:	9782                	jalr	a5
/home/nicoladgg/wsFreedomStudio/sifive_hifive1_revb_hello/freedom-metal/src/drivers/riscv_cpu.c:285
20015e46:	0001                	nop
20015e48:	40f6                	lw	ra,92(sp)
20015e4a:	42e6                	lw	t0,88(sp)
20015e4c:	4356                	lw	t1,84(sp)
20015e4e:	43c6                	lw	t2,80(sp)
20015e50:	4436                	lw	s0,76(sp)
20015e52:	4526                	lw	a0,72(sp)
20015e54:	4596                	lw	a1,68(sp)
20015e56:	4606                	lw	a2,64(sp)
20015e58:	56f2                	lw	a3,60(sp)
20015e5a:	5762                	lw	a4,56(sp)
20015e5c:	57d2                	lw	a5,52(sp)
20015e5e:	5842                	lw	a6,48(sp)
20015e60:	58b2                	lw	a7,44(sp)
20015e62:	5e22                	lw	t3,40(sp)
20015e64:	5e92                	lw	t4,36(sp)
20015e66:	5f02                	lw	t5,32(sp)
20015e68:	4ff2                	lw	t6,28(sp)
20015e6a:	6125                	addi	sp,sp,96
20015e6c:	30200073          	mret

20015e70 <metal_lc14_interrupt_vector_handler>:
metal_lc14_interrupt_vector_handler():
/home/nicoladgg/wsFreedomStudio/sifive_hifive1_revb_hello/freedom-metal/src/drivers/riscv_cpu.c:289
20015e70:	711d                	addi	sp,sp,-96
20015e72:	ce86                	sw	ra,92(sp)
20015e74:	cc96                	sw	t0,88(sp)
20015e76:	ca9a                	sw	t1,84(sp)
20015e78:	c89e                	sw	t2,80(sp)
20015e7a:	c6a2                	sw	s0,76(sp)
20015e7c:	c4aa                	sw	a0,72(sp)
20015e7e:	c2ae                	sw	a1,68(sp)
20015e80:	c0b2                	sw	a2,64(sp)
20015e82:	de36                	sw	a3,60(sp)
20015e84:	dc3a                	sw	a4,56(sp)
20015e86:	da3e                	sw	a5,52(sp)
20015e88:	d842                	sw	a6,48(sp)
20015e8a:	d646                	sw	a7,44(sp)
20015e8c:	d472                	sw	t3,40(sp)
20015e8e:	d276                	sw	t4,36(sp)
20015e90:	d07a                	sw	t5,32(sp)
20015e92:	ce7e                	sw	t6,28(sp)
20015e94:	1080                	addi	s0,sp,96
/home/nicoladgg/wsFreedomStudio/sifive_hifive1_revb_hello/freedom-metal/src/drivers/riscv_cpu.c:290
20015e96:	9dcff0ef          	jal	ra,20015072 <__metal_myhart_id>
20015e9a:	872a                	mv	a4,a0
20015e9c:	070a                	slli	a4,a4,0x2
20015e9e:	80c18793          	addi	a5,gp,-2036 # 80000aac <__metal_cpu_table>
20015ea2:	97ba                	add	a5,a5,a4
20015ea4:	439c                	lw	a5,0(a5)
20015ea6:	faf42623          	sw	a5,-84(s0)
20015eaa:	fac42783          	lw	a5,-84(s0)
20015eae:	c78d                	beqz	a5,20015ed8 <metal_lc14_interrupt_vector_handler+0x68>
/home/nicoladgg/wsFreedomStudio/sifive_hifive1_revb_hello/freedom-metal/src/drivers/riscv_cpu.c:290 (discriminator 1)
20015eb0:	fac42503          	lw	a0,-84(s0)
20015eb4:	944ff0ef          	jal	ra,20014ff8 <__metal_driver_cpu_interrupt_controller>
20015eb8:	faa42423          	sw	a0,-88(s0)
20015ebc:	fa842783          	lw	a5,-88(s0)
20015ec0:	3687a783          	lw	a5,872(a5)
20015ec4:	faf42223          	sw	a5,-92(s0)
20015ec8:	fa842783          	lw	a5,-88(s0)
20015ecc:	3607a783          	lw	a5,864(a5)
20015ed0:	fa442583          	lw	a1,-92(s0)
20015ed4:	4579                	li	a0,30
20015ed6:	9782                	jalr	a5
/home/nicoladgg/wsFreedomStudio/sifive_hifive1_revb_hello/freedom-metal/src/drivers/riscv_cpu.c:291
20015ed8:	0001                	nop
20015eda:	40f6                	lw	ra,92(sp)
20015edc:	42e6                	lw	t0,88(sp)
20015ede:	4356                	lw	t1,84(sp)
20015ee0:	43c6                	lw	t2,80(sp)
20015ee2:	4436                	lw	s0,76(sp)
20015ee4:	4526                	lw	a0,72(sp)
20015ee6:	4596                	lw	a1,68(sp)
20015ee8:	4606                	lw	a2,64(sp)
20015eea:	56f2                	lw	a3,60(sp)
20015eec:	5762                	lw	a4,56(sp)
20015eee:	57d2                	lw	a5,52(sp)
20015ef0:	5842                	lw	a6,48(sp)
20015ef2:	58b2                	lw	a7,44(sp)
20015ef4:	5e22                	lw	t3,40(sp)
20015ef6:	5e92                	lw	t4,36(sp)
20015ef8:	5f02                	lw	t5,32(sp)
20015efa:	4ff2                	lw	t6,28(sp)
20015efc:	6125                	addi	sp,sp,96
20015efe:	30200073          	mret

20015f02 <metal_lc15_interrupt_vector_handler>:
metal_lc15_interrupt_vector_handler():
/home/nicoladgg/wsFreedomStudio/sifive_hifive1_revb_hello/freedom-metal/src/drivers/riscv_cpu.c:295
20015f02:	711d                	addi	sp,sp,-96
20015f04:	ce86                	sw	ra,92(sp)
20015f06:	cc96                	sw	t0,88(sp)
20015f08:	ca9a                	sw	t1,84(sp)
20015f0a:	c89e                	sw	t2,80(sp)
20015f0c:	c6a2                	sw	s0,76(sp)
20015f0e:	c4aa                	sw	a0,72(sp)
20015f10:	c2ae                	sw	a1,68(sp)
20015f12:	c0b2                	sw	a2,64(sp)
20015f14:	de36                	sw	a3,60(sp)
20015f16:	dc3a                	sw	a4,56(sp)
20015f18:	da3e                	sw	a5,52(sp)
20015f1a:	d842                	sw	a6,48(sp)
20015f1c:	d646                	sw	a7,44(sp)
20015f1e:	d472                	sw	t3,40(sp)
20015f20:	d276                	sw	t4,36(sp)
20015f22:	d07a                	sw	t5,32(sp)
20015f24:	ce7e                	sw	t6,28(sp)
20015f26:	1080                	addi	s0,sp,96
/home/nicoladgg/wsFreedomStudio/sifive_hifive1_revb_hello/freedom-metal/src/drivers/riscv_cpu.c:296
20015f28:	94aff0ef          	jal	ra,20015072 <__metal_myhart_id>
20015f2c:	872a                	mv	a4,a0
20015f2e:	070a                	slli	a4,a4,0x2
20015f30:	80c18793          	addi	a5,gp,-2036 # 80000aac <__metal_cpu_table>
20015f34:	97ba                	add	a5,a5,a4
20015f36:	439c                	lw	a5,0(a5)
20015f38:	faf42623          	sw	a5,-84(s0)
20015f3c:	fac42783          	lw	a5,-84(s0)
20015f40:	c78d                	beqz	a5,20015f6a <metal_lc15_interrupt_vector_handler+0x68>
/home/nicoladgg/wsFreedomStudio/sifive_hifive1_revb_hello/freedom-metal/src/drivers/riscv_cpu.c:296 (discriminator 1)
20015f42:	fac42503          	lw	a0,-84(s0)
20015f46:	8b2ff0ef          	jal	ra,20014ff8 <__metal_driver_cpu_interrupt_controller>
20015f4a:	faa42423          	sw	a0,-88(s0)
20015f4e:	fa842783          	lw	a5,-88(s0)
20015f52:	3807a783          	lw	a5,896(a5)
20015f56:	faf42223          	sw	a5,-92(s0)
20015f5a:	fa842783          	lw	a5,-88(s0)
20015f5e:	3787a783          	lw	a5,888(a5)
20015f62:	fa442583          	lw	a1,-92(s0)
20015f66:	457d                	li	a0,31
20015f68:	9782                	jalr	a5
/home/nicoladgg/wsFreedomStudio/sifive_hifive1_revb_hello/freedom-metal/src/drivers/riscv_cpu.c:297
20015f6a:	0001                	nop
20015f6c:	40f6                	lw	ra,92(sp)
20015f6e:	42e6                	lw	t0,88(sp)
20015f70:	4356                	lw	t1,84(sp)
20015f72:	43c6                	lw	t2,80(sp)
20015f74:	4436                	lw	s0,76(sp)
20015f76:	4526                	lw	a0,72(sp)
20015f78:	4596                	lw	a1,68(sp)
20015f7a:	4606                	lw	a2,64(sp)
20015f7c:	56f2                	lw	a3,60(sp)
20015f7e:	5762                	lw	a4,56(sp)
20015f80:	57d2                	lw	a5,52(sp)
20015f82:	5842                	lw	a6,48(sp)
20015f84:	58b2                	lw	a7,44(sp)
20015f86:	5e22                	lw	t3,40(sp)
20015f88:	5e92                	lw	t4,36(sp)
20015f8a:	5f02                	lw	t5,32(sp)
20015f8c:	4ff2                	lw	t6,28(sp)
20015f8e:	6125                	addi	sp,sp,96
20015f90:	30200073          	mret

20015f94 <__metal_controller_interrupt_vector_mode>:
__metal_controller_interrupt_vector_mode():
/home/nicoladgg/wsFreedomStudio/sifive_hifive1_revb_hello/freedom-metal/src/drivers/riscv_cpu.c:299
20015f94:	1101                	addi	sp,sp,-32
20015f96:	ce22                	sw	s0,28(sp)
20015f98:	1000                	addi	s0,sp,32
/home/nicoladgg/wsFreedomStudio/sifive_hifive1_revb_hello/freedom-metal/src/drivers/riscv_cpu.c:302
20015f9a:	305027f3          	csrr	a5,mtvec
20015f9e:	fef42623          	sw	a5,-20(s0)
/home/nicoladgg/wsFreedomStudio/sifive_hifive1_revb_hello/freedom-metal/src/drivers/riscv_cpu.c:303
20015fa2:	fec42783          	lw	a5,-20(s0)
20015fa6:	03f7f793          	andi	a5,a5,63
20015faa:	fef42623          	sw	a5,-20(s0)
/home/nicoladgg/wsFreedomStudio/sifive_hifive1_revb_hello/freedom-metal/src/drivers/riscv_cpu.c:305
20015fae:	fec42703          	lw	a4,-20(s0)
20015fb2:	478d                	li	a5,3
20015fb4:	02f70363          	beq	a4,a5,20015fda <__metal_controller_interrupt_vector_mode+0x46>
20015fb8:	fec42703          	lw	a4,-20(s0)
20015fbc:	478d                	li	a5,3
20015fbe:	02e7e263          	bltu	a5,a4,20015fe2 <__metal_controller_interrupt_vector_mode+0x4e>
20015fc2:	fec42703          	lw	a4,-20(s0)
20015fc6:	4785                	li	a5,1
20015fc8:	00f70b63          	beq	a4,a5,20015fde <__metal_controller_interrupt_vector_mode+0x4a>
20015fcc:	fec42703          	lw	a4,-20(s0)
20015fd0:	4789                	li	a5,2
20015fd2:	00f71863          	bne	a4,a5,20015fe2 <__metal_controller_interrupt_vector_mode+0x4e>
/home/nicoladgg/wsFreedomStudio/sifive_hifive1_revb_hello/freedom-metal/src/drivers/riscv_cpu.c:307
20015fd6:	478d                	li	a5,3
20015fd8:	a031                	j	20015fe4 <__metal_controller_interrupt_vector_mode+0x50>
/home/nicoladgg/wsFreedomStudio/sifive_hifive1_revb_hello/freedom-metal/src/drivers/riscv_cpu.c:309
20015fda:	4791                	li	a5,4
20015fdc:	a021                	j	20015fe4 <__metal_controller_interrupt_vector_mode+0x50>
/home/nicoladgg/wsFreedomStudio/sifive_hifive1_revb_hello/freedom-metal/src/drivers/riscv_cpu.c:311
20015fde:	4785                	li	a5,1
20015fe0:	a011                	j	20015fe4 <__metal_controller_interrupt_vector_mode+0x50>
/home/nicoladgg/wsFreedomStudio/sifive_hifive1_revb_hello/freedom-metal/src/drivers/riscv_cpu.c:313
20015fe2:	4781                	li	a5,0
/home/nicoladgg/wsFreedomStudio/sifive_hifive1_revb_hello/freedom-metal/src/drivers/riscv_cpu.c:314
20015fe4:	853e                	mv	a0,a5
20015fe6:	4472                	lw	s0,28(sp)
20015fe8:	6105                	addi	sp,sp,32
20015fea:	8082                	ret

20015fec <__metal_controller_interrupt_vector>:
__metal_controller_interrupt_vector():
/home/nicoladgg/wsFreedomStudio/sifive_hifive1_revb_hello/freedom-metal/src/drivers/riscv_cpu.c:317
20015fec:	7179                	addi	sp,sp,-48
20015fee:	d622                	sw	s0,44(sp)
20015ff0:	1800                	addi	s0,sp,48
20015ff2:	fca42e23          	sw	a0,-36(s0)
20015ff6:	fcb42c23          	sw	a1,-40(s0)
/home/nicoladgg/wsFreedomStudio/sifive_hifive1_revb_hello/freedom-metal/src/drivers/riscv_cpu.c:320
20015ffa:	305027f3          	csrr	a5,mtvec
20015ffe:	fef42623          	sw	a5,-20(s0)
/home/nicoladgg/wsFreedomStudio/sifive_hifive1_revb_hello/freedom-metal/src/drivers/riscv_cpu.c:321
20016002:	fec42783          	lw	a5,-20(s0)
20016006:	fc07f793          	andi	a5,a5,-64
2001600a:	fef42623          	sw	a5,-20(s0)
/home/nicoladgg/wsFreedomStudio/sifive_hifive1_revb_hello/freedom-metal/src/drivers/riscv_cpu.c:322
2001600e:	fd842783          	lw	a5,-40(s0)
20016012:	fef42423          	sw	a5,-24(s0)
/home/nicoladgg/wsFreedomStudio/sifive_hifive1_revb_hello/freedom-metal/src/drivers/riscv_cpu.c:324
20016016:	fdc42703          	lw	a4,-36(s0)
2001601a:	4791                	li	a5,4
2001601c:	04f70563          	beq	a4,a5,20016066 <__metal_controller_interrupt_vector+0x7a>
20016020:	fdc42703          	lw	a4,-36(s0)
20016024:	4791                	li	a5,4
20016026:	06e7e863          	bltu	a5,a4,20016096 <__metal_controller_interrupt_vector+0xaa>
2001602a:	fdc42703          	lw	a4,-36(s0)
2001602e:	478d                	li	a5,3
20016030:	06e7e363          	bltu	a5,a4,20016096 <__metal_controller_interrupt_vector+0xaa>
20016034:	fdc42703          	lw	a4,-36(s0)
20016038:	4789                	li	a5,2
2001603a:	00f77b63          	bgeu	a4,a5,20016050 <__metal_controller_interrupt_vector+0x64>
2001603e:	fdc42783          	lw	a5,-36(s0)
20016042:	c7a1                	beqz	a5,2001608a <__metal_controller_interrupt_vector+0x9e>
20016044:	fdc42703          	lw	a4,-36(s0)
20016048:	4785                	li	a5,1
2001604a:	02f70963          	beq	a4,a5,2001607c <__metal_controller_interrupt_vector+0x90>
/home/nicoladgg/wsFreedomStudio/sifive_hifive1_revb_hello/freedom-metal/src/drivers/riscv_cpu.c:344
2001604e:	a0a1                	j	20016096 <__metal_controller_interrupt_vector+0xaa>
/home/nicoladgg/wsFreedomStudio/sifive_hifive1_revb_hello/freedom-metal/src/drivers/riscv_cpu.c:327
20016050:	fe842783          	lw	a5,-24(s0)
20016054:	30779073          	csrw	mtvt,a5
/home/nicoladgg/wsFreedomStudio/sifive_hifive1_revb_hello/freedom-metal/src/drivers/riscv_cpu.c:328
20016058:	fec42783          	lw	a5,-20(s0)
2001605c:	0027e793          	ori	a5,a5,2
20016060:	30579073          	csrw	mtvec,a5
/home/nicoladgg/wsFreedomStudio/sifive_hifive1_revb_hello/freedom-metal/src/drivers/riscv_cpu.c:329
20016064:	a80d                	j	20016096 <__metal_controller_interrupt_vector+0xaa>
/home/nicoladgg/wsFreedomStudio/sifive_hifive1_revb_hello/freedom-metal/src/drivers/riscv_cpu.c:331
20016066:	fe842783          	lw	a5,-24(s0)
2001606a:	30779073          	csrw	mtvt,a5
/home/nicoladgg/wsFreedomStudio/sifive_hifive1_revb_hello/freedom-metal/src/drivers/riscv_cpu.c:333
2001606e:	fec42783          	lw	a5,-20(s0)
20016072:	0037e793          	ori	a5,a5,3
/home/nicoladgg/wsFreedomStudio/sifive_hifive1_revb_hello/freedom-metal/src/drivers/riscv_cpu.c:332
20016076:	30579073          	csrw	mtvec,a5
/home/nicoladgg/wsFreedomStudio/sifive_hifive1_revb_hello/freedom-metal/src/drivers/riscv_cpu.c:334
2001607a:	a831                	j	20016096 <__metal_controller_interrupt_vector+0xaa>
/home/nicoladgg/wsFreedomStudio/sifive_hifive1_revb_hello/freedom-metal/src/drivers/riscv_cpu.c:337
2001607c:	fe842783          	lw	a5,-24(s0)
20016080:	0017e793          	ori	a5,a5,1
/home/nicoladgg/wsFreedomStudio/sifive_hifive1_revb_hello/freedom-metal/src/drivers/riscv_cpu.c:336
20016084:	30579073          	csrw	mtvec,a5
/home/nicoladgg/wsFreedomStudio/sifive_hifive1_revb_hello/freedom-metal/src/drivers/riscv_cpu.c:338
20016088:	a039                	j	20016096 <__metal_controller_interrupt_vector+0xaa>
/home/nicoladgg/wsFreedomStudio/sifive_hifive1_revb_hello/freedom-metal/src/drivers/riscv_cpu.c:341
2001608a:	fe842783          	lw	a5,-24(s0)
2001608e:	9bf1                	andi	a5,a5,-4
/home/nicoladgg/wsFreedomStudio/sifive_hifive1_revb_hello/freedom-metal/src/drivers/riscv_cpu.c:340
20016090:	30579073          	csrw	mtvec,a5
/home/nicoladgg/wsFreedomStudio/sifive_hifive1_revb_hello/freedom-metal/src/drivers/riscv_cpu.c:342
20016094:	0001                	nop
/home/nicoladgg/wsFreedomStudio/sifive_hifive1_revb_hello/freedom-metal/src/drivers/riscv_cpu.c:344
20016096:	0001                	nop
20016098:	5432                	lw	s0,44(sp)
2001609a:	6145                	addi	sp,sp,48
2001609c:	8082                	ret

2001609e <__metal_valid_interrupt_id>:
__metal_valid_interrupt_id():
/home/nicoladgg/wsFreedomStudio/sifive_hifive1_revb_hello/freedom-metal/src/drivers/riscv_cpu.c:346
2001609e:	1101                	addi	sp,sp,-32
200160a0:	ce22                	sw	s0,28(sp)
200160a2:	1000                	addi	s0,sp,32
200160a4:	fea42623          	sw	a0,-20(s0)
/home/nicoladgg/wsFreedomStudio/sifive_hifive1_revb_hello/freedom-metal/src/drivers/riscv_cpu.c:347
200160a8:	fec42703          	lw	a4,-20(s0)
200160ac:	47fd                	li	a5,31
200160ae:	02e7c663          	blt	a5,a4,200160da <__metal_valid_interrupt_id+0x3c>
200160b2:	fec42703          	lw	a4,-20(s0)
200160b6:	478d                	li	a5,3
200160b8:	02f74963          	blt	a4,a5,200160ea <__metal_valid_interrupt_id+0x4c>
200160bc:	fec42783          	lw	a5,-20(s0)
200160c0:	4705                	li	a4,1
200160c2:	00f71733          	sll	a4,a4,a5
200160c6:	77c5                	lui	a5,0xffff1
200160c8:	88878793          	addi	a5,a5,-1912 # ffff0888 <metal_segment_heap_target_end+0x7ffeeea8>
200160cc:	8ff9                	and	a5,a5,a4
200160ce:	00f037b3          	snez	a5,a5
200160d2:	0ff7f793          	zext.b	a5,a5
200160d6:	eb81                	bnez	a5,200160e6 <__metal_valid_interrupt_id+0x48>
/home/nicoladgg/wsFreedomStudio/sifive_hifive1_revb_hello/freedom-metal/src/drivers/riscv_cpu.c:370
200160d8:	a809                	j	200160ea <__metal_valid_interrupt_id+0x4c>
/home/nicoladgg/wsFreedomStudio/sifive_hifive1_revb_hello/freedom-metal/src/drivers/riscv_cpu.c:347
200160da:	fec42703          	lw	a4,-20(s0)
200160de:	08000793          	li	a5,128
200160e2:	00f71463          	bne	a4,a5,200160ea <__metal_valid_interrupt_id+0x4c>
/home/nicoladgg/wsFreedomStudio/sifive_hifive1_revb_hello/freedom-metal/src/drivers/riscv_cpu.c:368
200160e6:	4785                	li	a5,1
200160e8:	a019                	j	200160ee <__metal_valid_interrupt_id+0x50>
/home/nicoladgg/wsFreedomStudio/sifive_hifive1_revb_hello/freedom-metal/src/drivers/riscv_cpu.c:370
200160ea:	0001                	nop
/home/nicoladgg/wsFreedomStudio/sifive_hifive1_revb_hello/freedom-metal/src/drivers/riscv_cpu.c:373
200160ec:	4781                	li	a5,0
/home/nicoladgg/wsFreedomStudio/sifive_hifive1_revb_hello/freedom-metal/src/drivers/riscv_cpu.c:374
200160ee:	853e                	mv	a0,a5
200160f0:	4472                	lw	s0,28(sp)
200160f2:	6105                	addi	sp,sp,32
200160f4:	8082                	ret

200160f6 <__metal_local_interrupt_enable>:
__metal_local_interrupt_enable():
/home/nicoladgg/wsFreedomStudio/sifive_hifive1_revb_hello/freedom-metal/src/drivers/riscv_cpu.c:377
200160f6:	7179                	addi	sp,sp,-48
200160f8:	d606                	sw	ra,44(sp)
200160fa:	d422                	sw	s0,40(sp)
200160fc:	1800                	addi	s0,sp,48
200160fe:	fca42e23          	sw	a0,-36(s0)
20016102:	fcb42c23          	sw	a1,-40(s0)
20016106:	fcc42a23          	sw	a2,-44(s0)
/home/nicoladgg/wsFreedomStudio/sifive_hifive1_revb_hello/freedom-metal/src/drivers/riscv_cpu.c:378
2001610a:	fe042623          	sw	zero,-20(s0)
/home/nicoladgg/wsFreedomStudio/sifive_hifive1_revb_hello/freedom-metal/src/drivers/riscv_cpu.c:380
2001610e:	fdc42783          	lw	a5,-36(s0)
20016112:	e399                	bnez	a5,20016118 <__metal_local_interrupt_enable+0x22>
/home/nicoladgg/wsFreedomStudio/sifive_hifive1_revb_hello/freedom-metal/src/drivers/riscv_cpu.c:381
20016114:	57fd                	li	a5,-1
20016116:	a849                	j	200161a8 <__metal_local_interrupt_enable+0xb2>
20016118:	fd842703          	lw	a4,-40(s0)
2001611c:	47fd                	li	a5,31
2001611e:	08e7e063          	bltu	a5,a4,2001619e <__metal_local_interrupt_enable+0xa8>
20016122:	fd842783          	lw	a5,-40(s0)
20016126:	00279713          	slli	a4,a5,0x2
2001612a:	200107b7          	lui	a5,0x20010
2001612e:	6b478793          	addi	a5,a5,1716 # 200106b4 <__metal_driver_vtable_riscv_clint0+0x64>
20016132:	97ba                	add	a5,a5,a4
20016134:	439c                	lw	a5,0(a5)
20016136:	8782                	jr	a5
/home/nicoladgg/wsFreedomStudio/sifive_hifive1_revb_hello/freedom-metal/src/drivers/riscv_cpu.c:386
20016138:	fd442783          	lw	a5,-44(s0)
2001613c:	c781                	beqz	a5,20016144 <__metal_local_interrupt_enable+0x4e>
/home/nicoladgg/wsFreedomStudio/sifive_hifive1_revb_hello/freedom-metal/src/drivers/riscv_cpu.c:387
2001613e:	f4ffe0ef          	jal	ra,2001508c <__metal_interrupt_global_enable>
/home/nicoladgg/wsFreedomStudio/sifive_hifive1_revb_hello/freedom-metal/src/drivers/riscv_cpu.c:391
20016142:	a08d                	j	200161a4 <__metal_local_interrupt_enable+0xae>
/home/nicoladgg/wsFreedomStudio/sifive_hifive1_revb_hello/freedom-metal/src/drivers/riscv_cpu.c:389
20016144:	f61fe0ef          	jal	ra,200150a4 <__metal_interrupt_global_disable>
/home/nicoladgg/wsFreedomStudio/sifive_hifive1_revb_hello/freedom-metal/src/drivers/riscv_cpu.c:391
20016148:	a8b1                	j	200161a4 <__metal_local_interrupt_enable+0xae>
/home/nicoladgg/wsFreedomStudio/sifive_hifive1_revb_hello/freedom-metal/src/drivers/riscv_cpu.c:393
2001614a:	fd442783          	lw	a5,-44(s0)
2001614e:	c781                	beqz	a5,20016156 <__metal_local_interrupt_enable+0x60>
/home/nicoladgg/wsFreedomStudio/sifive_hifive1_revb_hello/freedom-metal/src/drivers/riscv_cpu.c:394
20016150:	f6dfe0ef          	jal	ra,200150bc <__metal_interrupt_software_enable>
/home/nicoladgg/wsFreedomStudio/sifive_hifive1_revb_hello/freedom-metal/src/drivers/riscv_cpu.c:398
20016154:	a881                	j	200161a4 <__metal_local_interrupt_enable+0xae>
/home/nicoladgg/wsFreedomStudio/sifive_hifive1_revb_hello/freedom-metal/src/drivers/riscv_cpu.c:396
20016156:	f7ffe0ef          	jal	ra,200150d4 <__metal_interrupt_software_disable>
/home/nicoladgg/wsFreedomStudio/sifive_hifive1_revb_hello/freedom-metal/src/drivers/riscv_cpu.c:398
2001615a:	a0a9                	j	200161a4 <__metal_local_interrupt_enable+0xae>
/home/nicoladgg/wsFreedomStudio/sifive_hifive1_revb_hello/freedom-metal/src/drivers/riscv_cpu.c:400
2001615c:	fd442783          	lw	a5,-44(s0)
20016160:	c781                	beqz	a5,20016168 <__metal_local_interrupt_enable+0x72>
/home/nicoladgg/wsFreedomStudio/sifive_hifive1_revb_hello/freedom-metal/src/drivers/riscv_cpu.c:401
20016162:	f8bfe0ef          	jal	ra,200150ec <__metal_interrupt_timer_enable>
/home/nicoladgg/wsFreedomStudio/sifive_hifive1_revb_hello/freedom-metal/src/drivers/riscv_cpu.c:405
20016166:	a83d                	j	200161a4 <__metal_local_interrupt_enable+0xae>
/home/nicoladgg/wsFreedomStudio/sifive_hifive1_revb_hello/freedom-metal/src/drivers/riscv_cpu.c:403
20016168:	f9ffe0ef          	jal	ra,20015106 <__metal_interrupt_timer_disable>
/home/nicoladgg/wsFreedomStudio/sifive_hifive1_revb_hello/freedom-metal/src/drivers/riscv_cpu.c:405
2001616c:	a825                	j	200161a4 <__metal_local_interrupt_enable+0xae>
/home/nicoladgg/wsFreedomStudio/sifive_hifive1_revb_hello/freedom-metal/src/drivers/riscv_cpu.c:407
2001616e:	fd442783          	lw	a5,-44(s0)
20016172:	c781                	beqz	a5,2001617a <__metal_local_interrupt_enable+0x84>
/home/nicoladgg/wsFreedomStudio/sifive_hifive1_revb_hello/freedom-metal/src/drivers/riscv_cpu.c:408
20016174:	fadfe0ef          	jal	ra,20015120 <__metal_interrupt_external_enable>
/home/nicoladgg/wsFreedomStudio/sifive_hifive1_revb_hello/freedom-metal/src/drivers/riscv_cpu.c:412
20016178:	a035                	j	200161a4 <__metal_local_interrupt_enable+0xae>
/home/nicoladgg/wsFreedomStudio/sifive_hifive1_revb_hello/freedom-metal/src/drivers/riscv_cpu.c:410
2001617a:	fc3fe0ef          	jal	ra,2001513c <__metal_interrupt_external_disable>
/home/nicoladgg/wsFreedomStudio/sifive_hifive1_revb_hello/freedom-metal/src/drivers/riscv_cpu.c:412
2001617e:	a01d                	j	200161a4 <__metal_local_interrupt_enable+0xae>
/home/nicoladgg/wsFreedomStudio/sifive_hifive1_revb_hello/freedom-metal/src/drivers/riscv_cpu.c:429
20016180:	fd442783          	lw	a5,-44(s0)
20016184:	c799                	beqz	a5,20016192 <__metal_local_interrupt_enable+0x9c>
/home/nicoladgg/wsFreedomStudio/sifive_hifive1_revb_hello/freedom-metal/src/drivers/riscv_cpu.c:430
20016186:	fd842783          	lw	a5,-40(s0)
2001618a:	853e                	mv	a0,a5
2001618c:	fcdfe0ef          	jal	ra,20015158 <__metal_interrupt_local_enable>
/home/nicoladgg/wsFreedomStudio/sifive_hifive1_revb_hello/freedom-metal/src/drivers/riscv_cpu.c:434
20016190:	a811                	j	200161a4 <__metal_local_interrupt_enable+0xae>
/home/nicoladgg/wsFreedomStudio/sifive_hifive1_revb_hello/freedom-metal/src/drivers/riscv_cpu.c:432
20016192:	fd842783          	lw	a5,-40(s0)
20016196:	853e                	mv	a0,a5
20016198:	fedfe0ef          	jal	ra,20015184 <__metal_interrupt_local_disable>
/home/nicoladgg/wsFreedomStudio/sifive_hifive1_revb_hello/freedom-metal/src/drivers/riscv_cpu.c:434
2001619c:	a021                	j	200161a4 <__metal_local_interrupt_enable+0xae>
/home/nicoladgg/wsFreedomStudio/sifive_hifive1_revb_hello/freedom-metal/src/drivers/riscv_cpu.c:436
2001619e:	57fd                	li	a5,-1
200161a0:	fef42623          	sw	a5,-20(s0)
/home/nicoladgg/wsFreedomStudio/sifive_hifive1_revb_hello/freedom-metal/src/drivers/riscv_cpu.c:438
200161a4:	fec42783          	lw	a5,-20(s0)
/home/nicoladgg/wsFreedomStudio/sifive_hifive1_revb_hello/freedom-metal/src/drivers/riscv_cpu.c:439
200161a8:	853e                	mv	a0,a5
200161aa:	50b2                	lw	ra,44(sp)
200161ac:	5422                	lw	s0,40(sp)
200161ae:	6145                	addi	sp,sp,48
200161b0:	8082                	ret

200161b2 <__metal_exception_register>:
__metal_exception_register():
/home/nicoladgg/wsFreedomStudio/sifive_hifive1_revb_hello/freedom-metal/src/drivers/riscv_cpu.c:442
200161b2:	7179                	addi	sp,sp,-48
200161b4:	d622                	sw	s0,44(sp)
200161b6:	1800                	addi	s0,sp,48
200161b8:	fca42e23          	sw	a0,-36(s0)
200161bc:	fcb42c23          	sw	a1,-40(s0)
200161c0:	fcc42a23          	sw	a2,-44(s0)
/home/nicoladgg/wsFreedomStudio/sifive_hifive1_revb_hello/freedom-metal/src/drivers/riscv_cpu.c:443
200161c4:	fdc42783          	lw	a5,-36(s0)
200161c8:	fef42623          	sw	a5,-20(s0)
/home/nicoladgg/wsFreedomStudio/sifive_hifive1_revb_hello/freedom-metal/src/drivers/riscv_cpu.c:445
200161cc:	fd842703          	lw	a4,-40(s0)
200161d0:	47ad                	li	a5,11
200161d2:	02e7c263          	blt	a5,a4,200161f6 <__metal_exception_register+0x44>
/home/nicoladgg/wsFreedomStudio/sifive_hifive1_revb_hello/freedom-metal/src/drivers/riscv_cpu.c:445 (discriminator 1)
200161d6:	fd442783          	lw	a5,-44(s0)
200161da:	cf91                	beqz	a5,200161f6 <__metal_exception_register+0x44>
/home/nicoladgg/wsFreedomStudio/sifive_hifive1_revb_hello/freedom-metal/src/drivers/riscv_cpu.c:446
200161dc:	fec42703          	lw	a4,-20(s0)
200161e0:	fd842783          	lw	a5,-40(s0)
200161e4:	0e878793          	addi	a5,a5,232
200161e8:	078a                	slli	a5,a5,0x2
200161ea:	97ba                	add	a5,a5,a4
200161ec:	fd442703          	lw	a4,-44(s0)
200161f0:	c398                	sw	a4,0(a5)
/home/nicoladgg/wsFreedomStudio/sifive_hifive1_revb_hello/freedom-metal/src/drivers/riscv_cpu.c:447
200161f2:	4781                	li	a5,0
200161f4:	a011                	j	200161f8 <__metal_exception_register+0x46>
/home/nicoladgg/wsFreedomStudio/sifive_hifive1_revb_hello/freedom-metal/src/drivers/riscv_cpu.c:449
200161f6:	57fd                	li	a5,-1
/home/nicoladgg/wsFreedomStudio/sifive_hifive1_revb_hello/freedom-metal/src/drivers/riscv_cpu.c:450
200161f8:	853e                	mv	a0,a5
200161fa:	5432                	lw	s0,44(sp)
200161fc:	6145                	addi	sp,sp,48
200161fe:	8082                	ret

20016200 <__metal_driver_riscv_cpu_controller_interrupt_init>:
__metal_driver_riscv_cpu_controller_interrupt_init():
/home/nicoladgg/wsFreedomStudio/sifive_hifive1_revb_hello/freedom-metal/src/drivers/riscv_cpu.c:454
20016200:	7179                	addi	sp,sp,-48
20016202:	d606                	sw	ra,44(sp)
20016204:	d422                	sw	s0,40(sp)
20016206:	1800                	addi	s0,sp,48
20016208:	fca42e23          	sw	a0,-36(s0)
/home/nicoladgg/wsFreedomStudio/sifive_hifive1_revb_hello/freedom-metal/src/drivers/riscv_cpu.c:455
2001620c:	fdc42783          	lw	a5,-36(s0)
20016210:	fef42223          	sw	a5,-28(s0)
/home/nicoladgg/wsFreedomStudio/sifive_hifive1_revb_hello/freedom-metal/src/drivers/riscv_cpu.c:457
20016214:	fe442783          	lw	a5,-28(s0)
20016218:	43dc                	lw	a5,4(a5)
2001621a:	efdd                	bnez	a5,200162d8 <__metal_driver_riscv_cpu_controller_interrupt_init+0xd8>
/home/nicoladgg/wsFreedomStudio/sifive_hifive1_revb_hello/freedom-metal/src/drivers/riscv_cpu.c:459
2001621c:	fe042623          	sw	zero,-20(s0)
20016220:	a0b9                	j	2001626e <__metal_driver_riscv_cpu_controller_interrupt_init+0x6e>
/home/nicoladgg/wsFreedomStudio/sifive_hifive1_revb_hello/freedom-metal/src/drivers/riscv_cpu.c:460 (discriminator 3)
20016222:	fe442683          	lw	a3,-28(s0)
20016226:	fec42703          	lw	a4,-20(s0)
2001622a:	87ba                	mv	a5,a4
2001622c:	0786                	slli	a5,a5,0x1
2001622e:	97ba                	add	a5,a5,a4
20016230:	078e                	slli	a5,a5,0x3
20016232:	97b6                	add	a5,a5,a3
20016234:	0807a823          	sw	zero,144(a5)
/home/nicoladgg/wsFreedomStudio/sifive_hifive1_revb_hello/freedom-metal/src/drivers/riscv_cpu.c:461 (discriminator 3)
20016238:	fe442683          	lw	a3,-28(s0)
2001623c:	fec42703          	lw	a4,-20(s0)
20016240:	87ba                	mv	a5,a4
20016242:	0786                	slli	a5,a5,0x1
20016244:	97ba                	add	a5,a5,a4
20016246:	078e                	slli	a5,a5,0x3
20016248:	97b6                	add	a5,a5,a3
2001624a:	0807aa23          	sw	zero,148(a5)
/home/nicoladgg/wsFreedomStudio/sifive_hifive1_revb_hello/freedom-metal/src/drivers/riscv_cpu.c:462 (discriminator 3)
2001624e:	fe442683          	lw	a3,-28(s0)
20016252:	fec42703          	lw	a4,-20(s0)
20016256:	87ba                	mv	a5,a4
20016258:	0786                	slli	a5,a5,0x1
2001625a:	97ba                	add	a5,a5,a4
2001625c:	078e                	slli	a5,a5,0x3
2001625e:	97b6                	add	a5,a5,a3
20016260:	0807ac23          	sw	zero,152(a5)
/home/nicoladgg/wsFreedomStudio/sifive_hifive1_revb_hello/freedom-metal/src/drivers/riscv_cpu.c:459 (discriminator 3)
20016264:	fec42783          	lw	a5,-20(s0)
20016268:	0785                	addi	a5,a5,1
2001626a:	fef42623          	sw	a5,-20(s0)
/home/nicoladgg/wsFreedomStudio/sifive_hifive1_revb_hello/freedom-metal/src/drivers/riscv_cpu.c:459 (discriminator 1)
2001626e:	fec42703          	lw	a4,-20(s0)
20016272:	47fd                	li	a5,31
20016274:	fae7d7e3          	bge	a5,a4,20016222 <__metal_driver_riscv_cpu_controller_interrupt_init+0x22>
/home/nicoladgg/wsFreedomStudio/sifive_hifive1_revb_hello/freedom-metal/src/drivers/riscv_cpu.c:465
20016278:	fe042423          	sw	zero,-24(s0)
2001627c:	a01d                	j	200162a2 <__metal_driver_riscv_cpu_controller_interrupt_init+0xa2>
/home/nicoladgg/wsFreedomStudio/sifive_hifive1_revb_hello/freedom-metal/src/drivers/riscv_cpu.c:466 (discriminator 3)
2001627e:	fe442703          	lw	a4,-28(s0)
20016282:	fe842783          	lw	a5,-24(s0)
20016286:	0e878793          	addi	a5,a5,232
2001628a:	078a                	slli	a5,a5,0x2
2001628c:	97ba                	add	a5,a5,a4
2001628e:	20015737          	lui	a4,0x20015
20016292:	1b070713          	addi	a4,a4,432 # 200151b0 <__metal_default_exception_handler>
20016296:	c398                	sw	a4,0(a5)
/home/nicoladgg/wsFreedomStudio/sifive_hifive1_revb_hello/freedom-metal/src/drivers/riscv_cpu.c:465 (discriminator 3)
20016298:	fe842783          	lw	a5,-24(s0)
2001629c:	0785                	addi	a5,a5,1
2001629e:	fef42423          	sw	a5,-24(s0)
/home/nicoladgg/wsFreedomStudio/sifive_hifive1_revb_hello/freedom-metal/src/drivers/riscv_cpu.c:465 (discriminator 1)
200162a2:	fe842703          	lw	a4,-24(s0)
200162a6:	47ad                	li	a5,11
200162a8:	fce7dbe3          	bge	a5,a4,2001627e <__metal_driver_riscv_cpu_controller_interrupt_init+0x7e>
/home/nicoladgg/wsFreedomStudio/sifive_hifive1_revb_hello/freedom-metal/src/drivers/riscv_cpu.c:475
200162ac:	305027f3          	csrr	a5,mtvec
200162b0:	fef42023          	sw	a5,-32(s0)
/home/nicoladgg/wsFreedomStudio/sifive_hifive1_revb_hello/freedom-metal/src/drivers/riscv_cpu.c:476
200162b4:	200107b7          	lui	a5,0x20010
200162b8:	13478793          	addi	a5,a5,308 # 20010134 <early_trap_vector>
200162bc:	fe042703          	lw	a4,-32(s0)
200162c0:	00f71863          	bne	a4,a5,200162d0 <__metal_driver_riscv_cpu_controller_interrupt_init+0xd0>
/home/nicoladgg/wsFreedomStudio/sifive_hifive1_revb_hello/freedom-metal/src/drivers/riscv_cpu.c:477
200162c4:	200157b7          	lui	a5,0x20015
200162c8:	48078593          	addi	a1,a5,1152 # 20015480 <__metal_exception_handler>
200162cc:	4501                	li	a0,0
200162ce:	3b39                	jal	20015fec <__metal_controller_interrupt_vector>
/home/nicoladgg/wsFreedomStudio/sifive_hifive1_revb_hello/freedom-metal/src/drivers/riscv_cpu.c:481
200162d0:	fe442783          	lw	a5,-28(s0)
200162d4:	4705                	li	a4,1
200162d6:	c3d8                	sw	a4,4(a5)
/home/nicoladgg/wsFreedomStudio/sifive_hifive1_revb_hello/freedom-metal/src/drivers/riscv_cpu.c:483
200162d8:	0001                	nop
200162da:	50b2                	lw	ra,44(sp)
200162dc:	5422                	lw	s0,40(sp)
200162de:	6145                	addi	sp,sp,48
200162e0:	8082                	ret

200162e2 <__metal_driver_riscv_cpu_controller_interrupt_register>:
__metal_driver_riscv_cpu_controller_interrupt_register():
/home/nicoladgg/wsFreedomStudio/sifive_hifive1_revb_hello/freedom-metal/src/drivers/riscv_cpu.c:487
200162e2:	7179                	addi	sp,sp,-48
200162e4:	d606                	sw	ra,44(sp)
200162e6:	d422                	sw	s0,40(sp)
200162e8:	1800                	addi	s0,sp,48
200162ea:	fca42e23          	sw	a0,-36(s0)
200162ee:	fcb42c23          	sw	a1,-40(s0)
200162f2:	fcc42a23          	sw	a2,-44(s0)
200162f6:	fcd42823          	sw	a3,-48(s0)
/home/nicoladgg/wsFreedomStudio/sifive_hifive1_revb_hello/freedom-metal/src/drivers/riscv_cpu.c:488
200162fa:	fe042623          	sw	zero,-20(s0)
/home/nicoladgg/wsFreedomStudio/sifive_hifive1_revb_hello/freedom-metal/src/drivers/riscv_cpu.c:489
200162fe:	fdc42783          	lw	a5,-36(s0)
20016302:	fef42423          	sw	a5,-24(s0)
/home/nicoladgg/wsFreedomStudio/sifive_hifive1_revb_hello/freedom-metal/src/drivers/riscv_cpu.c:491
20016306:	fd842503          	lw	a0,-40(s0)
2001630a:	3b51                	jal	2001609e <__metal_valid_interrupt_id>
2001630c:	87aa                	mv	a5,a0
2001630e:	e399                	bnez	a5,20016314 <__metal_driver_riscv_cpu_controller_interrupt_register+0x32>
/home/nicoladgg/wsFreedomStudio/sifive_hifive1_revb_hello/freedom-metal/src/drivers/riscv_cpu.c:492
20016310:	57d5                	li	a5,-11
20016312:	a265                	j	200164ba <__metal_driver_riscv_cpu_controller_interrupt_register+0x1d8>
/home/nicoladgg/wsFreedomStudio/sifive_hifive1_revb_hello/freedom-metal/src/drivers/riscv_cpu.c:494
20016314:	fd842703          	lw	a4,-40(s0)
20016318:	08000793          	li	a5,128
2001631c:	00f71863          	bne	a4,a5,2001632c <__metal_driver_riscv_cpu_controller_interrupt_register+0x4a>
/home/nicoladgg/wsFreedomStudio/sifive_hifive1_revb_hello/freedom-metal/src/drivers/riscv_cpu.c:495 (discriminator 1)
20016320:	c75ff0ef          	jal	ra,20015f94 <__metal_controller_interrupt_vector_mode>
20016324:	87aa                	mv	a5,a0
/home/nicoladgg/wsFreedomStudio/sifive_hifive1_revb_hello/freedom-metal/src/drivers/riscv_cpu.c:494 (discriminator 1)
20016326:	c399                	beqz	a5,2001632c <__metal_driver_riscv_cpu_controller_interrupt_register+0x4a>
/home/nicoladgg/wsFreedomStudio/sifive_hifive1_revb_hello/freedom-metal/src/drivers/riscv_cpu.c:498
20016328:	57cd                	li	a5,-13
2001632a:	aa41                	j	200164ba <__metal_driver_riscv_cpu_controller_interrupt_register+0x1d8>
/home/nicoladgg/wsFreedomStudio/sifive_hifive1_revb_hello/freedom-metal/src/drivers/riscv_cpu.c:501
2001632c:	fd442783          	lw	a5,-44(s0)
20016330:	cfb9                	beqz	a5,2001638e <__metal_driver_riscv_cpu_controller_interrupt_register+0xac>
/home/nicoladgg/wsFreedomStudio/sifive_hifive1_revb_hello/freedom-metal/src/drivers/riscv_cpu.c:502
20016332:	fd842703          	lw	a4,-40(s0)
20016336:	08000793          	li	a5,128
2001633a:	00f71f63          	bne	a4,a5,20016358 <__metal_driver_riscv_cpu_controller_interrupt_register+0x76>
/home/nicoladgg/wsFreedomStudio/sifive_hifive1_revb_hello/freedom-metal/src/drivers/riscv_cpu.c:503
2001633e:	fe842783          	lw	a5,-24(s0)
20016342:	fd442703          	lw	a4,-44(s0)
20016346:	38e7a823          	sw	a4,912(a5)
/home/nicoladgg/wsFreedomStudio/sifive_hifive1_revb_hello/freedom-metal/src/drivers/riscv_cpu.c:504
2001634a:	fe842783          	lw	a5,-24(s0)
2001634e:	fd042703          	lw	a4,-48(s0)
20016352:	38e7ac23          	sw	a4,920(a5)
20016356:	a285                	j	200164b6 <__metal_driver_riscv_cpu_controller_interrupt_register+0x1d4>
/home/nicoladgg/wsFreedomStudio/sifive_hifive1_revb_hello/freedom-metal/src/drivers/riscv_cpu.c:506
20016358:	fe842683          	lw	a3,-24(s0)
2001635c:	fd842703          	lw	a4,-40(s0)
20016360:	87ba                	mv	a5,a4
20016362:	0786                	slli	a5,a5,0x1
20016364:	97ba                	add	a5,a5,a4
20016366:	078e                	slli	a5,a5,0x3
20016368:	97b6                	add	a5,a5,a3
2001636a:	fd442703          	lw	a4,-44(s0)
2001636e:	08e7a823          	sw	a4,144(a5)
/home/nicoladgg/wsFreedomStudio/sifive_hifive1_revb_hello/freedom-metal/src/drivers/riscv_cpu.c:507
20016372:	fe842683          	lw	a3,-24(s0)
20016376:	fd842703          	lw	a4,-40(s0)
2001637a:	87ba                	mv	a5,a4
2001637c:	0786                	slli	a5,a5,0x1
2001637e:	97ba                	add	a5,a5,a4
20016380:	078e                	slli	a5,a5,0x3
20016382:	97b6                	add	a5,a5,a3
20016384:	fd042703          	lw	a4,-48(s0)
20016388:	08e7ac23          	sw	a4,152(a5)
2001638c:	a22d                	j	200164b6 <__metal_driver_riscv_cpu_controller_interrupt_register+0x1d4>
/home/nicoladgg/wsFreedomStudio/sifive_hifive1_revb_hello/freedom-metal/src/drivers/riscv_cpu.c:510
2001638e:	fd842703          	lw	a4,-40(s0)
20016392:	08000793          	li	a5,128
20016396:	0cf70163          	beq	a4,a5,20016458 <__metal_driver_riscv_cpu_controller_interrupt_register+0x176>
2001639a:	fd842703          	lw	a4,-40(s0)
2001639e:	08000793          	li	a5,128
200163a2:	10e7c763          	blt	a5,a4,200164b0 <__metal_driver_riscv_cpu_controller_interrupt_register+0x1ce>
200163a6:	fd842703          	lw	a4,-40(s0)
200163aa:	47fd                	li	a5,31
200163ac:	10e7c263          	blt	a5,a4,200164b0 <__metal_driver_riscv_cpu_controller_interrupt_register+0x1ce>
200163b0:	fd842703          	lw	a4,-40(s0)
200163b4:	47c1                	li	a5,16
200163b6:	0cf75063          	bge	a4,a5,20016476 <__metal_driver_riscv_cpu_controller_interrupt_register+0x194>
200163ba:	fd842703          	lw	a4,-40(s0)
200163be:	47ad                	li	a5,11
200163c0:	0af70b63          	beq	a4,a5,20016476 <__metal_driver_riscv_cpu_controller_interrupt_register+0x194>
200163c4:	fd842703          	lw	a4,-40(s0)
200163c8:	47ad                	li	a5,11
200163ca:	0ee7c363          	blt	a5,a4,200164b0 <__metal_driver_riscv_cpu_controller_interrupt_register+0x1ce>
200163ce:	fd842703          	lw	a4,-40(s0)
200163d2:	478d                	li	a5,3
200163d4:	00f70863          	beq	a4,a5,200163e4 <__metal_driver_riscv_cpu_controller_interrupt_register+0x102>
200163d8:	fd842703          	lw	a4,-40(s0)
200163dc:	479d                	li	a5,7
200163de:	04f70063          	beq	a4,a5,2001641e <__metal_driver_riscv_cpu_controller_interrupt_register+0x13c>
200163e2:	a0f9                	j	200164b0 <__metal_driver_riscv_cpu_controller_interrupt_register+0x1ce>
/home/nicoladgg/wsFreedomStudio/sifive_hifive1_revb_hello/freedom-metal/src/drivers/riscv_cpu.c:512
200163e4:	fe842683          	lw	a3,-24(s0)
200163e8:	fd842703          	lw	a4,-40(s0)
200163ec:	87ba                	mv	a5,a4
200163ee:	0786                	slli	a5,a5,0x1
200163f0:	97ba                	add	a5,a5,a4
200163f2:	078e                	slli	a5,a5,0x3
200163f4:	97b6                	add	a5,a5,a3
200163f6:	20015737          	lui	a4,0x20015
200163fa:	29c70713          	addi	a4,a4,668 # 2001529c <__metal_default_sw_handler>
200163fe:	08e7a823          	sw	a4,144(a5)
/home/nicoladgg/wsFreedomStudio/sifive_hifive1_revb_hello/freedom-metal/src/drivers/riscv_cpu.c:513
20016402:	fe842683          	lw	a3,-24(s0)
20016406:	fd842703          	lw	a4,-40(s0)
2001640a:	87ba                	mv	a5,a4
2001640c:	0786                	slli	a5,a5,0x1
2001640e:	97ba                	add	a5,a5,a4
20016410:	078e                	slli	a5,a5,0x3
20016412:	97b6                	add	a5,a5,a3
20016414:	fd042703          	lw	a4,-48(s0)
20016418:	08e7aa23          	sw	a4,148(a5)
/home/nicoladgg/wsFreedomStudio/sifive_hifive1_revb_hello/freedom-metal/src/drivers/riscv_cpu.c:514
2001641c:	a869                	j	200164b6 <__metal_driver_riscv_cpu_controller_interrupt_register+0x1d4>
/home/nicoladgg/wsFreedomStudio/sifive_hifive1_revb_hello/freedom-metal/src/drivers/riscv_cpu.c:516
2001641e:	fe842683          	lw	a3,-24(s0)
20016422:	fd842703          	lw	a4,-40(s0)
20016426:	87ba                	mv	a5,a4
20016428:	0786                	slli	a5,a5,0x1
2001642a:	97ba                	add	a5,a5,a4
2001642c:	078e                	slli	a5,a5,0x3
2001642e:	97b6                	add	a5,a5,a3
20016430:	20015737          	lui	a4,0x20015
20016434:	3a470713          	addi	a4,a4,932 # 200153a4 <__metal_default_timer_handler>
20016438:	08e7a823          	sw	a4,144(a5)
/home/nicoladgg/wsFreedomStudio/sifive_hifive1_revb_hello/freedom-metal/src/drivers/riscv_cpu.c:517
2001643c:	fe842683          	lw	a3,-24(s0)
20016440:	fd842703          	lw	a4,-40(s0)
20016444:	87ba                	mv	a5,a4
20016446:	0786                	slli	a5,a5,0x1
20016448:	97ba                	add	a5,a5,a4
2001644a:	078e                	slli	a5,a5,0x3
2001644c:	97b6                	add	a5,a5,a3
2001644e:	fd042703          	lw	a4,-48(s0)
20016452:	08e7aa23          	sw	a4,148(a5)
/home/nicoladgg/wsFreedomStudio/sifive_hifive1_revb_hello/freedom-metal/src/drivers/riscv_cpu.c:518
20016456:	a085                	j	200164b6 <__metal_driver_riscv_cpu_controller_interrupt_register+0x1d4>
/home/nicoladgg/wsFreedomStudio/sifive_hifive1_revb_hello/freedom-metal/src/drivers/riscv_cpu.c:520
20016458:	fe842783          	lw	a5,-24(s0)
2001645c:	20015737          	lui	a4,0x20015
20016460:	38e70713          	addi	a4,a4,910 # 2001538e <__metal_default_beu_handler>
20016464:	38e7a823          	sw	a4,912(a5)
/home/nicoladgg/wsFreedomStudio/sifive_hifive1_revb_hello/freedom-metal/src/drivers/riscv_cpu.c:521
20016468:	fe842783          	lw	a5,-24(s0)
2001646c:	fd042703          	lw	a4,-48(s0)
20016470:	38e7ac23          	sw	a4,920(a5)
/home/nicoladgg/wsFreedomStudio/sifive_hifive1_revb_hello/freedom-metal/src/drivers/riscv_cpu.c:522
20016474:	a089                	j	200164b6 <__metal_driver_riscv_cpu_controller_interrupt_register+0x1d4>
/home/nicoladgg/wsFreedomStudio/sifive_hifive1_revb_hello/freedom-metal/src/drivers/riscv_cpu.c:540
20016476:	fe842683          	lw	a3,-24(s0)
2001647a:	fd842703          	lw	a4,-40(s0)
2001647e:	87ba                	mv	a5,a4
20016480:	0786                	slli	a5,a5,0x1
20016482:	97ba                	add	a5,a5,a4
20016484:	078e                	slli	a5,a5,0x3
20016486:	97b6                	add	a5,a5,a3
20016488:	20015737          	lui	a4,0x20015
2001648c:	1c870713          	addi	a4,a4,456 # 200151c8 <__metal_default_interrupt_handler>
20016490:	08e7a823          	sw	a4,144(a5)
/home/nicoladgg/wsFreedomStudio/sifive_hifive1_revb_hello/freedom-metal/src/drivers/riscv_cpu.c:542
20016494:	fe842683          	lw	a3,-24(s0)
20016498:	fd842703          	lw	a4,-40(s0)
2001649c:	87ba                	mv	a5,a4
2001649e:	0786                	slli	a5,a5,0x1
200164a0:	97ba                	add	a5,a5,a4
200164a2:	078e                	slli	a5,a5,0x3
200164a4:	97b6                	add	a5,a5,a3
200164a6:	fd042703          	lw	a4,-48(s0)
200164aa:	08e7aa23          	sw	a4,148(a5)
/home/nicoladgg/wsFreedomStudio/sifive_hifive1_revb_hello/freedom-metal/src/drivers/riscv_cpu.c:543
200164ae:	a021                	j	200164b6 <__metal_driver_riscv_cpu_controller_interrupt_register+0x1d4>
/home/nicoladgg/wsFreedomStudio/sifive_hifive1_revb_hello/freedom-metal/src/drivers/riscv_cpu.c:545
200164b0:	57d1                	li	a5,-12
200164b2:	fef42623          	sw	a5,-20(s0)
/home/nicoladgg/wsFreedomStudio/sifive_hifive1_revb_hello/freedom-metal/src/drivers/riscv_cpu.c:548
200164b6:	fec42783          	lw	a5,-20(s0)
/home/nicoladgg/wsFreedomStudio/sifive_hifive1_revb_hello/freedom-metal/src/drivers/riscv_cpu.c:549
200164ba:	853e                	mv	a0,a5
200164bc:	50b2                	lw	ra,44(sp)
200164be:	5422                	lw	s0,40(sp)
200164c0:	6145                	addi	sp,sp,48
200164c2:	8082                	ret

200164c4 <__metal_driver_riscv_cpu_controller_interrupt_enable>:
__metal_driver_riscv_cpu_controller_interrupt_enable():
/home/nicoladgg/wsFreedomStudio/sifive_hifive1_revb_hello/freedom-metal/src/drivers/riscv_cpu.c:552
200164c4:	1101                	addi	sp,sp,-32
200164c6:	ce06                	sw	ra,28(sp)
200164c8:	cc22                	sw	s0,24(sp)
200164ca:	1000                	addi	s0,sp,32
200164cc:	fea42623          	sw	a0,-20(s0)
200164d0:	feb42423          	sw	a1,-24(s0)
/home/nicoladgg/wsFreedomStudio/sifive_hifive1_revb_hello/freedom-metal/src/drivers/riscv_cpu.c:553
200164d4:	fe842783          	lw	a5,-24(s0)
200164d8:	4605                	li	a2,1
200164da:	85be                	mv	a1,a5
200164dc:	fec42503          	lw	a0,-20(s0)
200164e0:	c17ff0ef          	jal	ra,200160f6 <__metal_local_interrupt_enable>
200164e4:	87aa                	mv	a5,a0
/home/nicoladgg/wsFreedomStudio/sifive_hifive1_revb_hello/freedom-metal/src/drivers/riscv_cpu.c:554
200164e6:	853e                	mv	a0,a5
200164e8:	40f2                	lw	ra,28(sp)
200164ea:	4462                	lw	s0,24(sp)
200164ec:	6105                	addi	sp,sp,32
200164ee:	8082                	ret

200164f0 <__metal_driver_riscv_cpu_controller_interrupt_disable>:
__metal_driver_riscv_cpu_controller_interrupt_disable():
/home/nicoladgg/wsFreedomStudio/sifive_hifive1_revb_hello/freedom-metal/src/drivers/riscv_cpu.c:557
200164f0:	1101                	addi	sp,sp,-32
200164f2:	ce06                	sw	ra,28(sp)
200164f4:	cc22                	sw	s0,24(sp)
200164f6:	1000                	addi	s0,sp,32
200164f8:	fea42623          	sw	a0,-20(s0)
200164fc:	feb42423          	sw	a1,-24(s0)
/home/nicoladgg/wsFreedomStudio/sifive_hifive1_revb_hello/freedom-metal/src/drivers/riscv_cpu.c:558
20016500:	fe842783          	lw	a5,-24(s0)
20016504:	4601                	li	a2,0
20016506:	85be                	mv	a1,a5
20016508:	fec42503          	lw	a0,-20(s0)
2001650c:	bebff0ef          	jal	ra,200160f6 <__metal_local_interrupt_enable>
20016510:	87aa                	mv	a5,a0
/home/nicoladgg/wsFreedomStudio/sifive_hifive1_revb_hello/freedom-metal/src/drivers/riscv_cpu.c:559
20016512:	853e                	mv	a0,a5
20016514:	40f2                	lw	ra,28(sp)
20016516:	4462                	lw	s0,24(sp)
20016518:	6105                	addi	sp,sp,32
2001651a:	8082                	ret

2001651c <__metal_driver_riscv_cpu_controller_get_vector_mode>:
__metal_driver_riscv_cpu_controller_get_vector_mode():
/home/nicoladgg/wsFreedomStudio/sifive_hifive1_revb_hello/freedom-metal/src/drivers/riscv_cpu.c:591
2001651c:	1101                	addi	sp,sp,-32
2001651e:	ce06                	sw	ra,28(sp)
20016520:	cc22                	sw	s0,24(sp)
20016522:	1000                	addi	s0,sp,32
20016524:	fea42623          	sw	a0,-20(s0)
/home/nicoladgg/wsFreedomStudio/sifive_hifive1_revb_hello/freedom-metal/src/drivers/riscv_cpu.c:592
20016528:	a6dff0ef          	jal	ra,20015f94 <__metal_controller_interrupt_vector_mode>
2001652c:	87aa                	mv	a5,a0
/home/nicoladgg/wsFreedomStudio/sifive_hifive1_revb_hello/freedom-metal/src/drivers/riscv_cpu.c:593
2001652e:	853e                	mv	a0,a5
20016530:	40f2                	lw	ra,28(sp)
20016532:	4462                	lw	s0,24(sp)
20016534:	6105                	addi	sp,sp,32
20016536:	8082                	ret

20016538 <__metal_driver_riscv_cpu_controller_set_vector_mode>:
__metal_driver_riscv_cpu_controller_set_vector_mode():
/home/nicoladgg/wsFreedomStudio/sifive_hifive1_revb_hello/freedom-metal/src/drivers/riscv_cpu.c:596
20016538:	1101                	addi	sp,sp,-32
2001653a:	ce06                	sw	ra,28(sp)
2001653c:	cc22                	sw	s0,24(sp)
2001653e:	1000                	addi	s0,sp,32
20016540:	fea42623          	sw	a0,-20(s0)
20016544:	feb42423          	sw	a1,-24(s0)
/home/nicoladgg/wsFreedomStudio/sifive_hifive1_revb_hello/freedom-metal/src/drivers/riscv_cpu.c:598
20016548:	fe842783          	lw	a5,-24(s0)
2001654c:	eb99                	bnez	a5,20016562 <__metal_driver_riscv_cpu_controller_set_vector_mode+0x2a>
/home/nicoladgg/wsFreedomStudio/sifive_hifive1_revb_hello/freedom-metal/src/drivers/riscv_cpu.c:599
2001654e:	200157b7          	lui	a5,0x20015
20016552:	48078593          	addi	a1,a5,1152 # 20015480 <__metal_exception_handler>
20016556:	fe842503          	lw	a0,-24(s0)
2001655a:	a93ff0ef          	jal	ra,20015fec <__metal_controller_interrupt_vector>
/home/nicoladgg/wsFreedomStudio/sifive_hifive1_revb_hello/freedom-metal/src/drivers/riscv_cpu.c:601
2001655e:	4781                	li	a5,0
20016560:	a00d                	j	20016582 <__metal_driver_riscv_cpu_controller_set_vector_mode+0x4a>
/home/nicoladgg/wsFreedomStudio/sifive_hifive1_revb_hello/freedom-metal/src/drivers/riscv_cpu.c:603
20016562:	fe842703          	lw	a4,-24(s0)
20016566:	4785                	li	a5,1
20016568:	00f71c63          	bne	a4,a5,20016580 <__metal_driver_riscv_cpu_controller_set_vector_mode+0x48>
/home/nicoladgg/wsFreedomStudio/sifive_hifive1_revb_hello/freedom-metal/src/drivers/riscv_cpu.c:604
2001656c:	200197b7          	lui	a5,0x20019
20016570:	f8078593          	addi	a1,a5,-128 # 20018f80 <__metal_vector_table>
20016574:	fe842503          	lw	a0,-24(s0)
20016578:	a75ff0ef          	jal	ra,20015fec <__metal_controller_interrupt_vector>
/home/nicoladgg/wsFreedomStudio/sifive_hifive1_revb_hello/freedom-metal/src/drivers/riscv_cpu.c:606
2001657c:	4781                	li	a5,0
2001657e:	a011                	j	20016582 <__metal_driver_riscv_cpu_controller_set_vector_mode+0x4a>
/home/nicoladgg/wsFreedomStudio/sifive_hifive1_revb_hello/freedom-metal/src/drivers/riscv_cpu.c:608
20016580:	57fd                	li	a5,-1
/home/nicoladgg/wsFreedomStudio/sifive_hifive1_revb_hello/freedom-metal/src/drivers/riscv_cpu.c:609
20016582:	853e                	mv	a0,a5
20016584:	40f2                	lw	ra,28(sp)
20016586:	4462                	lw	s0,24(sp)
20016588:	6105                	addi	sp,sp,32
2001658a:	8082                	ret

2001658c <__metal_driver_riscv_cpu_controller_command_request>:
__metal_driver_riscv_cpu_controller_command_request():
/home/nicoladgg/wsFreedomStudio/sifive_hifive1_revb_hello/freedom-metal/src/drivers/riscv_cpu.c:612
2001658c:	1101                	addi	sp,sp,-32
2001658e:	ce22                	sw	s0,28(sp)
20016590:	1000                	addi	s0,sp,32
20016592:	fea42623          	sw	a0,-20(s0)
20016596:	feb42423          	sw	a1,-24(s0)
2001659a:	fec42223          	sw	a2,-28(s0)
/home/nicoladgg/wsFreedomStudio/sifive_hifive1_revb_hello/freedom-metal/src/drivers/riscv_cpu.c:615
2001659e:	4781                	li	a5,0
/home/nicoladgg/wsFreedomStudio/sifive_hifive1_revb_hello/freedom-metal/src/drivers/riscv_cpu.c:616
200165a0:	853e                	mv	a0,a5
200165a2:	4472                	lw	s0,28(sp)
200165a4:	6105                	addi	sp,sp,32
200165a6:	8082                	ret

200165a8 <__metal_driver_cpu_mcycle_get>:
__metal_driver_cpu_mcycle_get():
/home/nicoladgg/wsFreedomStudio/sifive_hifive1_revb_hello/freedom-metal/src/drivers/riscv_cpu.c:620
200165a8:	7139                	addi	sp,sp,-64
200165aa:	de22                	sw	s0,60(sp)
200165ac:	0080                	addi	s0,sp,64
200165ae:	fca42623          	sw	a0,-52(s0)
/home/nicoladgg/wsFreedomStudio/sifive_hifive1_revb_hello/freedom-metal/src/drivers/riscv_cpu.c:621
200165b2:	4501                	li	a0,0
200165b4:	4581                	li	a1,0
200165b6:	fea42423          	sw	a0,-24(s0)
200165ba:	feb42623          	sw	a1,-20(s0)
/home/nicoladgg/wsFreedomStudio/sifive_hifive1_revb_hello/freedom-metal/src/drivers/riscv_cpu.c:627 (discriminator 1)
200165be:	b80025f3          	csrr	a1,mcycleh
200165c2:	feb42223          	sw	a1,-28(s0)
/home/nicoladgg/wsFreedomStudio/sifive_hifive1_revb_hello/freedom-metal/src/drivers/riscv_cpu.c:628 (discriminator 1)
200165c6:	b00025f3          	csrr	a1,mcycle
200165ca:	feb42023          	sw	a1,-32(s0)
/home/nicoladgg/wsFreedomStudio/sifive_hifive1_revb_hello/freedom-metal/src/drivers/riscv_cpu.c:629 (discriminator 1)
200165ce:	b80025f3          	csrr	a1,mcycleh
200165d2:	fcb42e23          	sw	a1,-36(s0)
/home/nicoladgg/wsFreedomStudio/sifive_hifive1_revb_hello/freedom-metal/src/drivers/riscv_cpu.c:632 (discriminator 1)
200165d6:	fe442503          	lw	a0,-28(s0)
200165da:	fdc42583          	lw	a1,-36(s0)
200165de:	feb510e3          	bne	a0,a1,200165be <__metal_driver_cpu_mcycle_get+0x16>
/home/nicoladgg/wsFreedomStudio/sifive_hifive1_revb_hello/freedom-metal/src/drivers/riscv_cpu.c:634
200165e2:	fe442583          	lw	a1,-28(s0)
200165e6:	882e                	mv	a6,a1
200165e8:	4881                	li	a7,0
200165ea:	00081793          	slli	a5,a6,0x0
200165ee:	4701                	li	a4,0
200165f0:	fe042583          	lw	a1,-32(s0)
200165f4:	862e                	mv	a2,a1
200165f6:	4681                	li	a3,0
200165f8:	00c765b3          	or	a1,a4,a2
200165fc:	feb42423          	sw	a1,-24(s0)
20016600:	8fd5                	or	a5,a5,a3
20016602:	fef42623          	sw	a5,-20(s0)
/home/nicoladgg/wsFreedomStudio/sifive_hifive1_revb_hello/freedom-metal/src/drivers/riscv_cpu.c:639
20016606:	fe842703          	lw	a4,-24(s0)
2001660a:	fec42783          	lw	a5,-20(s0)
/home/nicoladgg/wsFreedomStudio/sifive_hifive1_revb_hello/freedom-metal/src/drivers/riscv_cpu.c:640
2001660e:	853a                	mv	a0,a4
20016610:	85be                	mv	a1,a5
20016612:	5472                	lw	s0,60(sp)
20016614:	6121                	addi	sp,sp,64
20016616:	8082                	ret

20016618 <__metal_driver_cpu_timebase_get>:
__metal_driver_cpu_timebase_get():
/home/nicoladgg/wsFreedomStudio/sifive_hifive1_revb_hello/freedom-metal/src/drivers/riscv_cpu.c:642
20016618:	7179                	addi	sp,sp,-48
2001661a:	d606                	sw	ra,44(sp)
2001661c:	d422                	sw	s0,40(sp)
2001661e:	d24a                	sw	s2,36(sp)
20016620:	d04e                	sw	s3,32(sp)
20016622:	1800                	addi	s0,sp,48
20016624:	fca42e23          	sw	a0,-36(s0)
/home/nicoladgg/wsFreedomStudio/sifive_hifive1_revb_hello/freedom-metal/src/drivers/riscv_cpu.c:644
20016628:	fdc42783          	lw	a5,-36(s0)
2001662c:	e781                	bnez	a5,20016634 <__metal_driver_cpu_timebase_get+0x1c>
/home/nicoladgg/wsFreedomStudio/sifive_hifive1_revb_hello/freedom-metal/src/drivers/riscv_cpu.c:645
2001662e:	4901                	li	s2,0
20016630:	4981                	li	s3,0
20016632:	a821                	j	2001664a <__metal_driver_cpu_timebase_get+0x32>
/home/nicoladgg/wsFreedomStudio/sifive_hifive1_revb_hello/freedom-metal/src/drivers/riscv_cpu.c:648
20016634:	fdc42503          	lw	a0,-36(s0)
20016638:	997fe0ef          	jal	ra,20014fce <__metal_driver_cpu_timebase>
2001663c:	fea42623          	sw	a0,-20(s0)
/home/nicoladgg/wsFreedomStudio/sifive_hifive1_revb_hello/freedom-metal/src/drivers/riscv_cpu.c:649
20016640:	fec42783          	lw	a5,-20(s0)
20016644:	893e                	mv	s2,a5
20016646:	87fd                	srai	a5,a5,0x1f
20016648:	89be                	mv	s3,a5
/home/nicoladgg/wsFreedomStudio/sifive_hifive1_revb_hello/freedom-metal/src/drivers/riscv_cpu.c:650
2001664a:	874a                	mv	a4,s2
2001664c:	87ce                	mv	a5,s3
2001664e:	853a                	mv	a0,a4
20016650:	85be                	mv	a1,a5
20016652:	50b2                	lw	ra,44(sp)
20016654:	5422                	lw	s0,40(sp)
20016656:	5912                	lw	s2,36(sp)
20016658:	5982                	lw	s3,32(sp)
2001665a:	6145                	addi	sp,sp,48
2001665c:	8082                	ret

2001665e <__metal_driver_cpu_mtime_get>:
__metal_driver_cpu_mtime_get():
/home/nicoladgg/wsFreedomStudio/sifive_hifive1_revb_hello/freedom-metal/src/drivers/riscv_cpu.c:652
2001665e:	7179                	addi	sp,sp,-48
20016660:	d606                	sw	ra,44(sp)
20016662:	d422                	sw	s0,40(sp)
20016664:	1800                	addi	s0,sp,48
20016666:	fca42e23          	sw	a0,-36(s0)
/home/nicoladgg/wsFreedomStudio/sifive_hifive1_revb_hello/freedom-metal/src/drivers/riscv_cpu.c:653
2001666a:	4781                	li	a5,0
2001666c:	4801                	li	a6,0
2001666e:	fef42023          	sw	a5,-32(s0)
20016672:	ff042223          	sw	a6,-28(s0)
/home/nicoladgg/wsFreedomStudio/sifive_hifive1_revb_hello/freedom-metal/src/drivers/riscv_cpu.c:657
20016676:	fdc42503          	lw	a0,-36(s0)
2001667a:	97ffe0ef          	jal	ra,20014ff8 <__metal_driver_cpu_interrupt_controller>
2001667e:	fea42623          	sw	a0,-20(s0)
/home/nicoladgg/wsFreedomStudio/sifive_hifive1_revb_hello/freedom-metal/src/drivers/riscv_cpu.c:659
20016682:	fec42783          	lw	a5,-20(s0)
20016686:	c78d                	beqz	a5,200166b0 <__metal_driver_cpu_mtime_get+0x52>
/home/nicoladgg/wsFreedomStudio/sifive_hifive1_revb_hello/freedom-metal/src/drivers/riscv_cpu.c:660
20016688:	fec42783          	lw	a5,-20(s0)
2001668c:	13c7a783          	lw	a5,316(a5)
20016690:	fef42423          	sw	a5,-24(s0)
/home/nicoladgg/wsFreedomStudio/sifive_hifive1_revb_hello/freedom-metal/src/drivers/riscv_cpu.c:661
20016694:	fe842783          	lw	a5,-24(s0)
20016698:	cf81                	beqz	a5,200166b0 <__metal_driver_cpu_mtime_get+0x52>
/home/nicoladgg/wsFreedomStudio/sifive_hifive1_revb_hello/freedom-metal/src/drivers/riscv_cpu.c:662
2001669a:	fe842783          	lw	a5,-24(s0)
2001669e:	439c                	lw	a5,0(a5)
200166a0:	47f8                	lw	a4,76(a5)
200166a2:	fe040793          	addi	a5,s0,-32
200166a6:	863e                	mv	a2,a5
200166a8:	4585                	li	a1,1
200166aa:	fe842503          	lw	a0,-24(s0)
200166ae:	9702                	jalr	a4
/home/nicoladgg/wsFreedomStudio/sifive_hifive1_revb_hello/freedom-metal/src/drivers/riscv_cpu.c:666
200166b0:	fe042703          	lw	a4,-32(s0)
200166b4:	fe442783          	lw	a5,-28(s0)
/home/nicoladgg/wsFreedomStudio/sifive_hifive1_revb_hello/freedom-metal/src/drivers/riscv_cpu.c:667
200166b8:	853a                	mv	a0,a4
200166ba:	85be                	mv	a1,a5
200166bc:	50b2                	lw	ra,44(sp)
200166be:	5422                	lw	s0,40(sp)
200166c0:	6145                	addi	sp,sp,48
200166c2:	8082                	ret

200166c4 <__metal_driver_cpu_mtimecmp_set>:
__metal_driver_cpu_mtimecmp_set():
/home/nicoladgg/wsFreedomStudio/sifive_hifive1_revb_hello/freedom-metal/src/drivers/riscv_cpu.c:670
200166c4:	7179                	addi	sp,sp,-48
200166c6:	d606                	sw	ra,44(sp)
200166c8:	d422                	sw	s0,40(sp)
200166ca:	d226                	sw	s1,36(sp)
200166cc:	1800                	addi	s0,sp,48
200166ce:	fca42e23          	sw	a0,-36(s0)
200166d2:	fcb42823          	sw	a1,-48(s0)
200166d6:	fcc42a23          	sw	a2,-44(s0)
/home/nicoladgg/wsFreedomStudio/sifive_hifive1_revb_hello/freedom-metal/src/drivers/riscv_cpu.c:671
200166da:	57fd                	li	a5,-1
200166dc:	fef42623          	sw	a5,-20(s0)
/home/nicoladgg/wsFreedomStudio/sifive_hifive1_revb_hello/freedom-metal/src/drivers/riscv_cpu.c:675
200166e0:	fdc42503          	lw	a0,-36(s0)
200166e4:	915fe0ef          	jal	ra,20014ff8 <__metal_driver_cpu_interrupt_controller>
200166e8:	fea42423          	sw	a0,-24(s0)
/home/nicoladgg/wsFreedomStudio/sifive_hifive1_revb_hello/freedom-metal/src/drivers/riscv_cpu.c:677
200166ec:	fe842783          	lw	a5,-24(s0)
200166f0:	cf8d                	beqz	a5,2001672a <__metal_driver_cpu_mtimecmp_set+0x66>
/home/nicoladgg/wsFreedomStudio/sifive_hifive1_revb_hello/freedom-metal/src/drivers/riscv_cpu.c:678
200166f2:	fe842783          	lw	a5,-24(s0)
200166f6:	13c7a783          	lw	a5,316(a5)
200166fa:	fef42223          	sw	a5,-28(s0)
/home/nicoladgg/wsFreedomStudio/sifive_hifive1_revb_hello/freedom-metal/src/drivers/riscv_cpu.c:679
200166fe:	fe442783          	lw	a5,-28(s0)
20016702:	c785                	beqz	a5,2001672a <__metal_driver_cpu_mtimecmp_set+0x66>
/home/nicoladgg/wsFreedomStudio/sifive_hifive1_revb_hello/freedom-metal/src/drivers/riscv_cpu.c:680
20016704:	fe442783          	lw	a5,-28(s0)
20016708:	439c                	lw	a5,0(a5)
2001670a:	4ba4                	lw	s1,80(a5)
2001670c:	fdc42503          	lw	a0,-36(s0)
20016710:	89bfe0ef          	jal	ra,20014faa <__metal_driver_cpu_hartid>
20016714:	87aa                	mv	a5,a0
20016716:	fd042603          	lw	a2,-48(s0)
2001671a:	fd442683          	lw	a3,-44(s0)
2001671e:	85be                	mv	a1,a5
20016720:	fe442503          	lw	a0,-28(s0)
20016724:	9482                	jalr	s1
20016726:	fea42623          	sw	a0,-20(s0)
/home/nicoladgg/wsFreedomStudio/sifive_hifive1_revb_hello/freedom-metal/src/drivers/riscv_cpu.c:684
2001672a:	fec42783          	lw	a5,-20(s0)
/home/nicoladgg/wsFreedomStudio/sifive_hifive1_revb_hello/freedom-metal/src/drivers/riscv_cpu.c:685
2001672e:	853e                	mv	a0,a5
20016730:	50b2                	lw	ra,44(sp)
20016732:	5422                	lw	s0,40(sp)
20016734:	5492                	lw	s1,36(sp)
20016736:	6145                	addi	sp,sp,48
20016738:	8082                	ret

2001673a <__metal_driver_cpu_timer_controller_interrupt>:
__metal_driver_cpu_timer_controller_interrupt():
/home/nicoladgg/wsFreedomStudio/sifive_hifive1_revb_hello/freedom-metal/src/drivers/riscv_cpu.c:688
2001673a:	1101                	addi	sp,sp,-32
2001673c:	ce22                	sw	s0,28(sp)
2001673e:	1000                	addi	s0,sp,32
20016740:	fea42623          	sw	a0,-20(s0)
/home/nicoladgg/wsFreedomStudio/sifive_hifive1_revb_hello/freedom-metal/src/drivers/riscv_cpu.c:690
20016744:	81018793          	addi	a5,gp,-2032 # 80000ab0 <__metal_dt_clint_2000000>
/home/nicoladgg/wsFreedomStudio/sifive_hifive1_revb_hello/freedom-metal/src/drivers/riscv_cpu.c:699
20016748:	853e                	mv	a0,a5
2001674a:	4472                	lw	s0,28(sp)
2001674c:	6105                	addi	sp,sp,32
2001674e:	8082                	ret

20016750 <__metal_driver_cpu_get_timer_interrupt_id>:
__metal_driver_cpu_get_timer_interrupt_id():
/home/nicoladgg/wsFreedomStudio/sifive_hifive1_revb_hello/freedom-metal/src/drivers/riscv_cpu.c:701
20016750:	1101                	addi	sp,sp,-32
20016752:	ce22                	sw	s0,28(sp)
20016754:	1000                	addi	s0,sp,32
20016756:	fea42623          	sw	a0,-20(s0)
/home/nicoladgg/wsFreedomStudio/sifive_hifive1_revb_hello/freedom-metal/src/drivers/riscv_cpu.c:702
2001675a:	479d                	li	a5,7
/home/nicoladgg/wsFreedomStudio/sifive_hifive1_revb_hello/freedom-metal/src/drivers/riscv_cpu.c:703
2001675c:	853e                	mv	a0,a5
2001675e:	4472                	lw	s0,28(sp)
20016760:	6105                	addi	sp,sp,32
20016762:	8082                	ret

20016764 <__metal_driver_cpu_sw_controller_interrupt>:
__metal_driver_cpu_sw_controller_interrupt():
/home/nicoladgg/wsFreedomStudio/sifive_hifive1_revb_hello/freedom-metal/src/drivers/riscv_cpu.c:706
20016764:	1101                	addi	sp,sp,-32
20016766:	ce22                	sw	s0,28(sp)
20016768:	1000                	addi	s0,sp,32
2001676a:	fea42623          	sw	a0,-20(s0)
/home/nicoladgg/wsFreedomStudio/sifive_hifive1_revb_hello/freedom-metal/src/drivers/riscv_cpu.c:708
2001676e:	81018793          	addi	a5,gp,-2032 # 80000ab0 <__metal_dt_clint_2000000>
/home/nicoladgg/wsFreedomStudio/sifive_hifive1_revb_hello/freedom-metal/src/drivers/riscv_cpu.c:717
20016772:	853e                	mv	a0,a5
20016774:	4472                	lw	s0,28(sp)
20016776:	6105                	addi	sp,sp,32
20016778:	8082                	ret

2001677a <__metal_driver_cpu_get_sw_interrupt_id>:
__metal_driver_cpu_get_sw_interrupt_id():
/home/nicoladgg/wsFreedomStudio/sifive_hifive1_revb_hello/freedom-metal/src/drivers/riscv_cpu.c:719
2001677a:	1101                	addi	sp,sp,-32
2001677c:	ce22                	sw	s0,28(sp)
2001677e:	1000                	addi	s0,sp,32
20016780:	fea42623          	sw	a0,-20(s0)
/home/nicoladgg/wsFreedomStudio/sifive_hifive1_revb_hello/freedom-metal/src/drivers/riscv_cpu.c:720
20016784:	478d                	li	a5,3
/home/nicoladgg/wsFreedomStudio/sifive_hifive1_revb_hello/freedom-metal/src/drivers/riscv_cpu.c:721
20016786:	853e                	mv	a0,a5
20016788:	4472                	lw	s0,28(sp)
2001678a:	6105                	addi	sp,sp,32
2001678c:	8082                	ret

2001678e <__metal_driver_cpu_set_sw_ipi>:
__metal_driver_cpu_set_sw_ipi():
/home/nicoladgg/wsFreedomStudio/sifive_hifive1_revb_hello/freedom-metal/src/drivers/riscv_cpu.c:723
2001678e:	7179                	addi	sp,sp,-48
20016790:	d606                	sw	ra,44(sp)
20016792:	d422                	sw	s0,40(sp)
20016794:	1800                	addi	s0,sp,48
20016796:	fca42e23          	sw	a0,-36(s0)
2001679a:	fcb42c23          	sw	a1,-40(s0)
/home/nicoladgg/wsFreedomStudio/sifive_hifive1_revb_hello/freedom-metal/src/drivers/riscv_cpu.c:724
2001679e:	57fd                	li	a5,-1
200167a0:	fef42623          	sw	a5,-20(s0)
/home/nicoladgg/wsFreedomStudio/sifive_hifive1_revb_hello/freedom-metal/src/drivers/riscv_cpu.c:728
200167a4:	fdc42503          	lw	a0,-36(s0)
200167a8:	851fe0ef          	jal	ra,20014ff8 <__metal_driver_cpu_interrupt_controller>
200167ac:	fea42423          	sw	a0,-24(s0)
/home/nicoladgg/wsFreedomStudio/sifive_hifive1_revb_hello/freedom-metal/src/drivers/riscv_cpu.c:730
200167b0:	fe842783          	lw	a5,-24(s0)
200167b4:	c79d                	beqz	a5,200167e2 <__metal_driver_cpu_set_sw_ipi+0x54>
/home/nicoladgg/wsFreedomStudio/sifive_hifive1_revb_hello/freedom-metal/src/drivers/riscv_cpu.c:731
200167b6:	fe842783          	lw	a5,-24(s0)
200167ba:	0dc7a783          	lw	a5,220(a5)
200167be:	fef42223          	sw	a5,-28(s0)
/home/nicoladgg/wsFreedomStudio/sifive_hifive1_revb_hello/freedom-metal/src/drivers/riscv_cpu.c:732
200167c2:	fe442783          	lw	a5,-28(s0)
200167c6:	cf91                	beqz	a5,200167e2 <__metal_driver_cpu_set_sw_ipi+0x54>
/home/nicoladgg/wsFreedomStudio/sifive_hifive1_revb_hello/freedom-metal/src/drivers/riscv_cpu.c:733
200167c8:	fe442783          	lw	a5,-28(s0)
200167cc:	439c                	lw	a5,0(a5)
200167ce:	47f8                	lw	a4,76(a5)
200167d0:	fd840793          	addi	a5,s0,-40
200167d4:	863e                	mv	a2,a5
200167d6:	458d                	li	a1,3
200167d8:	fe442503          	lw	a0,-28(s0)
200167dc:	9702                	jalr	a4
200167de:	fea42623          	sw	a0,-20(s0)
/home/nicoladgg/wsFreedomStudio/sifive_hifive1_revb_hello/freedom-metal/src/drivers/riscv_cpu.c:737
200167e2:	fec42783          	lw	a5,-20(s0)
/home/nicoladgg/wsFreedomStudio/sifive_hifive1_revb_hello/freedom-metal/src/drivers/riscv_cpu.c:738
200167e6:	853e                	mv	a0,a5
200167e8:	50b2                	lw	ra,44(sp)
200167ea:	5422                	lw	s0,40(sp)
200167ec:	6145                	addi	sp,sp,48
200167ee:	8082                	ret

200167f0 <__metal_driver_cpu_clear_sw_ipi>:
__metal_driver_cpu_clear_sw_ipi():
/home/nicoladgg/wsFreedomStudio/sifive_hifive1_revb_hello/freedom-metal/src/drivers/riscv_cpu.c:740
200167f0:	7179                	addi	sp,sp,-48
200167f2:	d606                	sw	ra,44(sp)
200167f4:	d422                	sw	s0,40(sp)
200167f6:	1800                	addi	s0,sp,48
200167f8:	fca42e23          	sw	a0,-36(s0)
200167fc:	fcb42c23          	sw	a1,-40(s0)
/home/nicoladgg/wsFreedomStudio/sifive_hifive1_revb_hello/freedom-metal/src/drivers/riscv_cpu.c:741
20016800:	57fd                	li	a5,-1
20016802:	fef42623          	sw	a5,-20(s0)
/home/nicoladgg/wsFreedomStudio/sifive_hifive1_revb_hello/freedom-metal/src/drivers/riscv_cpu.c:745
20016806:	fdc42503          	lw	a0,-36(s0)
2001680a:	feefe0ef          	jal	ra,20014ff8 <__metal_driver_cpu_interrupt_controller>
2001680e:	fea42423          	sw	a0,-24(s0)
/home/nicoladgg/wsFreedomStudio/sifive_hifive1_revb_hello/freedom-metal/src/drivers/riscv_cpu.c:747
20016812:	fe842783          	lw	a5,-24(s0)
20016816:	c79d                	beqz	a5,20016844 <__metal_driver_cpu_clear_sw_ipi+0x54>
/home/nicoladgg/wsFreedomStudio/sifive_hifive1_revb_hello/freedom-metal/src/drivers/riscv_cpu.c:748
20016818:	fe842783          	lw	a5,-24(s0)
2001681c:	0dc7a783          	lw	a5,220(a5)
20016820:	fef42223          	sw	a5,-28(s0)
/home/nicoladgg/wsFreedomStudio/sifive_hifive1_revb_hello/freedom-metal/src/drivers/riscv_cpu.c:749
20016824:	fe442783          	lw	a5,-28(s0)
20016828:	cf91                	beqz	a5,20016844 <__metal_driver_cpu_clear_sw_ipi+0x54>
/home/nicoladgg/wsFreedomStudio/sifive_hifive1_revb_hello/freedom-metal/src/drivers/riscv_cpu.c:750
2001682a:	fe442783          	lw	a5,-28(s0)
2001682e:	439c                	lw	a5,0(a5)
20016830:	47f8                	lw	a4,76(a5)
20016832:	fd840793          	addi	a5,s0,-40
20016836:	863e                	mv	a2,a5
20016838:	4589                	li	a1,2
2001683a:	fe442503          	lw	a0,-28(s0)
2001683e:	9702                	jalr	a4
20016840:	fea42623          	sw	a0,-20(s0)
/home/nicoladgg/wsFreedomStudio/sifive_hifive1_revb_hello/freedom-metal/src/drivers/riscv_cpu.c:754
20016844:	fec42783          	lw	a5,-20(s0)
/home/nicoladgg/wsFreedomStudio/sifive_hifive1_revb_hello/freedom-metal/src/drivers/riscv_cpu.c:755
20016848:	853e                	mv	a0,a5
2001684a:	50b2                	lw	ra,44(sp)
2001684c:	5422                	lw	s0,40(sp)
2001684e:	6145                	addi	sp,sp,48
20016850:	8082                	ret

20016852 <__metal_driver_cpu_get_msip>:
__metal_driver_cpu_get_msip():
/home/nicoladgg/wsFreedomStudio/sifive_hifive1_revb_hello/freedom-metal/src/drivers/riscv_cpu.c:757
20016852:	7179                	addi	sp,sp,-48
20016854:	d606                	sw	ra,44(sp)
20016856:	d422                	sw	s0,40(sp)
20016858:	1800                	addi	s0,sp,48
2001685a:	fca42e23          	sw	a0,-36(s0)
2001685e:	fcb42c23          	sw	a1,-40(s0)
/home/nicoladgg/wsFreedomStudio/sifive_hifive1_revb_hello/freedom-metal/src/drivers/riscv_cpu.c:758
20016862:	fe042623          	sw	zero,-20(s0)
/home/nicoladgg/wsFreedomStudio/sifive_hifive1_revb_hello/freedom-metal/src/drivers/riscv_cpu.c:762
20016866:	fdc42503          	lw	a0,-36(s0)
2001686a:	f8efe0ef          	jal	ra,20014ff8 <__metal_driver_cpu_interrupt_controller>
2001686e:	fea42423          	sw	a0,-24(s0)
/home/nicoladgg/wsFreedomStudio/sifive_hifive1_revb_hello/freedom-metal/src/drivers/riscv_cpu.c:764
20016872:	fe842783          	lw	a5,-24(s0)
20016876:	c79d                	beqz	a5,200168a4 <__metal_driver_cpu_get_msip+0x52>
/home/nicoladgg/wsFreedomStudio/sifive_hifive1_revb_hello/freedom-metal/src/drivers/riscv_cpu.c:765
20016878:	fe842783          	lw	a5,-24(s0)
2001687c:	0dc7a783          	lw	a5,220(a5)
20016880:	fef42223          	sw	a5,-28(s0)
/home/nicoladgg/wsFreedomStudio/sifive_hifive1_revb_hello/freedom-metal/src/drivers/riscv_cpu.c:766
20016884:	fe442783          	lw	a5,-28(s0)
20016888:	cf91                	beqz	a5,200168a4 <__metal_driver_cpu_get_msip+0x52>
/home/nicoladgg/wsFreedomStudio/sifive_hifive1_revb_hello/freedom-metal/src/drivers/riscv_cpu.c:767
2001688a:	fe442783          	lw	a5,-28(s0)
2001688e:	439c                	lw	a5,0(a5)
20016890:	47f8                	lw	a4,76(a5)
20016892:	fd840793          	addi	a5,s0,-40
20016896:	863e                	mv	a2,a5
20016898:	4591                	li	a1,4
2001689a:	fe442503          	lw	a0,-28(s0)
2001689e:	9702                	jalr	a4
200168a0:	fea42623          	sw	a0,-20(s0)
/home/nicoladgg/wsFreedomStudio/sifive_hifive1_revb_hello/freedom-metal/src/drivers/riscv_cpu.c:771
200168a4:	fec42783          	lw	a5,-20(s0)
/home/nicoladgg/wsFreedomStudio/sifive_hifive1_revb_hello/freedom-metal/src/drivers/riscv_cpu.c:772
200168a8:	853e                	mv	a0,a5
200168aa:	50b2                	lw	ra,44(sp)
200168ac:	5422                	lw	s0,40(sp)
200168ae:	6145                	addi	sp,sp,48
200168b0:	8082                	ret

200168b2 <__metal_driver_cpu_controller_interrupt>:
__metal_driver_cpu_controller_interrupt():
/home/nicoladgg/wsFreedomStudio/sifive_hifive1_revb_hello/freedom-metal/src/drivers/riscv_cpu.c:775
200168b2:	1101                	addi	sp,sp,-32
200168b4:	ce06                	sw	ra,28(sp)
200168b6:	cc22                	sw	s0,24(sp)
200168b8:	1000                	addi	s0,sp,32
200168ba:	fea42623          	sw	a0,-20(s0)
/home/nicoladgg/wsFreedomStudio/sifive_hifive1_revb_hello/freedom-metal/src/drivers/riscv_cpu.c:776
200168be:	fec42503          	lw	a0,-20(s0)
200168c2:	f36fe0ef          	jal	ra,20014ff8 <__metal_driver_cpu_interrupt_controller>
200168c6:	87aa                	mv	a5,a0
/home/nicoladgg/wsFreedomStudio/sifive_hifive1_revb_hello/freedom-metal/src/drivers/riscv_cpu.c:777
200168c8:	853e                	mv	a0,a5
200168ca:	40f2                	lw	ra,28(sp)
200168cc:	4462                	lw	s0,24(sp)
200168ce:	6105                	addi	sp,sp,32
200168d0:	8082                	ret

200168d2 <__metal_driver_cpu_exception_register>:
__metal_driver_cpu_exception_register():
/home/nicoladgg/wsFreedomStudio/sifive_hifive1_revb_hello/freedom-metal/src/drivers/riscv_cpu.c:798
200168d2:	7179                	addi	sp,sp,-48
200168d4:	d606                	sw	ra,44(sp)
200168d6:	d422                	sw	s0,40(sp)
200168d8:	1800                	addi	s0,sp,48
200168da:	fca42e23          	sw	a0,-36(s0)
200168de:	fcb42c23          	sw	a1,-40(s0)
200168e2:	fcc42a23          	sw	a2,-44(s0)
/home/nicoladgg/wsFreedomStudio/sifive_hifive1_revb_hello/freedom-metal/src/drivers/riscv_cpu.c:801
200168e6:	fdc42503          	lw	a0,-36(s0)
200168ea:	f0efe0ef          	jal	ra,20014ff8 <__metal_driver_cpu_interrupt_controller>
200168ee:	fea42623          	sw	a0,-20(s0)
/home/nicoladgg/wsFreedomStudio/sifive_hifive1_revb_hello/freedom-metal/src/drivers/riscv_cpu.c:803
200168f2:	fec42783          	lw	a5,-20(s0)
200168f6:	cb99                	beqz	a5,2001690c <__metal_driver_cpu_exception_register+0x3a>
/home/nicoladgg/wsFreedomStudio/sifive_hifive1_revb_hello/freedom-metal/src/drivers/riscv_cpu.c:804
200168f8:	fd442603          	lw	a2,-44(s0)
200168fc:	fd842583          	lw	a1,-40(s0)
20016900:	fec42503          	lw	a0,-20(s0)
20016904:	8afff0ef          	jal	ra,200161b2 <__metal_exception_register>
20016908:	87aa                	mv	a5,a0
2001690a:	a011                	j	2001690e <__metal_driver_cpu_exception_register+0x3c>
/home/nicoladgg/wsFreedomStudio/sifive_hifive1_revb_hello/freedom-metal/src/drivers/riscv_cpu.c:807
2001690c:	57fd                	li	a5,-1
/home/nicoladgg/wsFreedomStudio/sifive_hifive1_revb_hello/freedom-metal/src/drivers/riscv_cpu.c:808
2001690e:	853e                	mv	a0,a5
20016910:	50b2                	lw	ra,44(sp)
20016912:	5422                	lw	s0,40(sp)
20016914:	6145                	addi	sp,sp,48
20016916:	8082                	ret

20016918 <__metal_driver_cpu_get_instruction_length>:
__metal_driver_cpu_get_instruction_length():
/home/nicoladgg/wsFreedomStudio/sifive_hifive1_revb_hello/freedom-metal/src/drivers/riscv_cpu.c:811
20016918:	1101                	addi	sp,sp,-32
2001691a:	ce22                	sw	s0,28(sp)
2001691c:	1000                	addi	s0,sp,32
2001691e:	fea42623          	sw	a0,-20(s0)
20016922:	feb42423          	sw	a1,-24(s0)
/home/nicoladgg/wsFreedomStudio/sifive_hifive1_revb_hello/freedom-metal/src/drivers/riscv_cpu.c:817
20016926:	fe842783          	lw	a5,-24(s0)
2001692a:	0007d783          	lhu	a5,0(a5)
2001692e:	0037f713          	andi	a4,a5,3
/home/nicoladgg/wsFreedomStudio/sifive_hifive1_revb_hello/freedom-metal/src/drivers/riscv_cpu.c:820
20016932:	478d                	li	a5,3
20016934:	00f71463          	bne	a4,a5,2001693c <__metal_driver_cpu_get_instruction_length+0x24>
/home/nicoladgg/wsFreedomStudio/sifive_hifive1_revb_hello/freedom-metal/src/drivers/riscv_cpu.c:820 (discriminator 1)
20016938:	4791                	li	a5,4
2001693a:	a011                	j	2001693e <__metal_driver_cpu_get_instruction_length+0x26>
/home/nicoladgg/wsFreedomStudio/sifive_hifive1_revb_hello/freedom-metal/src/drivers/riscv_cpu.c:820 (discriminator 2)
2001693c:	4789                	li	a5,2
/home/nicoladgg/wsFreedomStudio/sifive_hifive1_revb_hello/freedom-metal/src/drivers/riscv_cpu.c:821 (discriminator 5)
2001693e:	853e                	mv	a0,a5
20016940:	4472                	lw	s0,28(sp)
20016942:	6105                	addi	sp,sp,32
20016944:	8082                	ret

20016946 <__metal_driver_cpu_get_exception_pc>:
__metal_driver_cpu_get_exception_pc():
/home/nicoladgg/wsFreedomStudio/sifive_hifive1_revb_hello/freedom-metal/src/drivers/riscv_cpu.c:823
20016946:	7179                	addi	sp,sp,-48
20016948:	d622                	sw	s0,44(sp)
2001694a:	1800                	addi	s0,sp,48
2001694c:	fca42e23          	sw	a0,-36(s0)
/home/nicoladgg/wsFreedomStudio/sifive_hifive1_revb_hello/freedom-metal/src/drivers/riscv_cpu.c:825
20016950:	341027f3          	csrr	a5,mepc
20016954:	fef42623          	sw	a5,-20(s0)
/home/nicoladgg/wsFreedomStudio/sifive_hifive1_revb_hello/freedom-metal/src/drivers/riscv_cpu.c:826
20016958:	fec42783          	lw	a5,-20(s0)
/home/nicoladgg/wsFreedomStudio/sifive_hifive1_revb_hello/freedom-metal/src/drivers/riscv_cpu.c:827
2001695c:	853e                	mv	a0,a5
2001695e:	5432                	lw	s0,44(sp)
20016960:	6145                	addi	sp,sp,48
20016962:	8082                	ret

20016964 <__metal_driver_cpu_set_exception_pc>:
__metal_driver_cpu_set_exception_pc():
/home/nicoladgg/wsFreedomStudio/sifive_hifive1_revb_hello/freedom-metal/src/drivers/riscv_cpu.c:829
20016964:	1101                	addi	sp,sp,-32
20016966:	ce22                	sw	s0,28(sp)
20016968:	1000                	addi	s0,sp,32
2001696a:	fea42623          	sw	a0,-20(s0)
2001696e:	feb42423          	sw	a1,-24(s0)
/home/nicoladgg/wsFreedomStudio/sifive_hifive1_revb_hello/freedom-metal/src/drivers/riscv_cpu.c:830
20016972:	fe842783          	lw	a5,-24(s0)
20016976:	34179073          	csrw	mepc,a5
/home/nicoladgg/wsFreedomStudio/sifive_hifive1_revb_hello/freedom-metal/src/drivers/riscv_cpu.c:831
2001697a:	4781                	li	a5,0
/home/nicoladgg/wsFreedomStudio/sifive_hifive1_revb_hello/freedom-metal/src/drivers/riscv_cpu.c:832
2001697c:	853e                	mv	a0,a5
2001697e:	4472                	lw	s0,28(sp)
20016980:	6105                	addi	sp,sp,32
20016982:	8082                	ret

20016984 <__metal_driver_cpu_get_buserror>:
__metal_driver_cpu_get_buserror():
/home/nicoladgg/wsFreedomStudio/sifive_hifive1_revb_hello/freedom-metal/src/drivers/riscv_cpu.c:834
20016984:	1101                	addi	sp,sp,-32
20016986:	ce06                	sw	ra,28(sp)
20016988:	cc22                	sw	s0,24(sp)
2001698a:	1000                	addi	s0,sp,32
2001698c:	fea42623          	sw	a0,-20(s0)
/home/nicoladgg/wsFreedomStudio/sifive_hifive1_revb_hello/freedom-metal/src/drivers/riscv_cpu.c:835
20016990:	fec42503          	lw	a0,-20(s0)
20016994:	e8efe0ef          	jal	ra,20015022 <__metal_driver_cpu_buserror>
20016998:	87aa                	mv	a5,a0
/home/nicoladgg/wsFreedomStudio/sifive_hifive1_revb_hello/freedom-metal/src/drivers/riscv_cpu.c:836
2001699a:	853e                	mv	a0,a5
2001699c:	40f2                	lw	ra,28(sp)
2001699e:	4462                	lw	s0,24(sp)
200169a0:	6105                	addi	sp,sp,32
200169a2:	8082                	ret

200169a4 <__metal_driver_sifive_plic0_control_base>:
__metal_driver_sifive_plic0_control_base():
/home/nicoladgg/wsFreedomStudio/sifive_hifive1_revb_hello/bsp/build/debug/./metal/machine.h:345
200169a4:	1101                	addi	sp,sp,-32
200169a6:	ce22                	sw	s0,28(sp)
200169a8:	1000                	addi	s0,sp,32
200169aa:	fea42623          	sw	a0,-20(s0)
/home/nicoladgg/wsFreedomStudio/sifive_hifive1_revb_hello/bsp/build/debug/./metal/machine.h:346
200169ae:	fec42703          	lw	a4,-20(s0)
200169b2:	800007b7          	lui	a5,0x80000
200169b6:	46078793          	addi	a5,a5,1120 # 80000460 <metal_segment_heap_target_end+0xffffea80>
200169ba:	00f71563          	bne	a4,a5,200169c4 <__metal_driver_sifive_plic0_control_base+0x20>
/home/nicoladgg/wsFreedomStudio/sifive_hifive1_revb_hello/bsp/build/debug/./metal/machine.h:347
200169be:	0c0007b7          	lui	a5,0xc000
200169c2:	a011                	j	200169c6 <__metal_driver_sifive_plic0_control_base+0x22>
/home/nicoladgg/wsFreedomStudio/sifive_hifive1_revb_hello/bsp/build/debug/./metal/machine.h:350
200169c4:	4781                	li	a5,0
/home/nicoladgg/wsFreedomStudio/sifive_hifive1_revb_hello/bsp/build/debug/./metal/machine.h:352
200169c6:	853e                	mv	a0,a5
200169c8:	4472                	lw	s0,28(sp)
200169ca:	6105                	addi	sp,sp,32
200169cc:	8082                	ret

200169ce <__metal_driver_sifive_plic0_num_interrupts>:
__metal_driver_sifive_plic0_num_interrupts():
/home/nicoladgg/wsFreedomStudio/sifive_hifive1_revb_hello/bsp/build/debug/./metal/machine.h:365
200169ce:	1101                	addi	sp,sp,-32
200169d0:	ce22                	sw	s0,28(sp)
200169d2:	1000                	addi	s0,sp,32
200169d4:	fea42623          	sw	a0,-20(s0)
/home/nicoladgg/wsFreedomStudio/sifive_hifive1_revb_hello/bsp/build/debug/./metal/machine.h:366
200169d8:	fec42703          	lw	a4,-20(s0)
200169dc:	800007b7          	lui	a5,0x80000
200169e0:	46078793          	addi	a5,a5,1120 # 80000460 <metal_segment_heap_target_end+0xffffea80>
200169e4:	00f71563          	bne	a4,a5,200169ee <__metal_driver_sifive_plic0_num_interrupts+0x20>
/home/nicoladgg/wsFreedomStudio/sifive_hifive1_revb_hello/bsp/build/debug/./metal/machine.h:367
200169e8:	03500793          	li	a5,53
200169ec:	a011                	j	200169f0 <__metal_driver_sifive_plic0_num_interrupts+0x22>
/home/nicoladgg/wsFreedomStudio/sifive_hifive1_revb_hello/bsp/build/debug/./metal/machine.h:370
200169ee:	4781                	li	a5,0
/home/nicoladgg/wsFreedomStudio/sifive_hifive1_revb_hello/bsp/build/debug/./metal/machine.h:372
200169f0:	853e                	mv	a0,a5
200169f2:	4472                	lw	s0,28(sp)
200169f4:	6105                	addi	sp,sp,32
200169f6:	8082                	ret

200169f8 <__metal_driver_sifive_plic0_max_priority>:
__metal_driver_sifive_plic0_max_priority():
/home/nicoladgg/wsFreedomStudio/sifive_hifive1_revb_hello/bsp/build/debug/./metal/machine.h:375
200169f8:	1101                	addi	sp,sp,-32
200169fa:	ce22                	sw	s0,28(sp)
200169fc:	1000                	addi	s0,sp,32
200169fe:	fea42623          	sw	a0,-20(s0)
/home/nicoladgg/wsFreedomStudio/sifive_hifive1_revb_hello/bsp/build/debug/./metal/machine.h:376
20016a02:	fec42703          	lw	a4,-20(s0)
20016a06:	800007b7          	lui	a5,0x80000
20016a0a:	46078793          	addi	a5,a5,1120 # 80000460 <metal_segment_heap_target_end+0xffffea80>
20016a0e:	00f71463          	bne	a4,a5,20016a16 <__metal_driver_sifive_plic0_max_priority+0x1e>
/home/nicoladgg/wsFreedomStudio/sifive_hifive1_revb_hello/bsp/build/debug/./metal/machine.h:377
20016a12:	479d                	li	a5,7
20016a14:	a011                	j	20016a18 <__metal_driver_sifive_plic0_max_priority+0x20>
/home/nicoladgg/wsFreedomStudio/sifive_hifive1_revb_hello/bsp/build/debug/./metal/machine.h:380
20016a16:	4781                	li	a5,0
/home/nicoladgg/wsFreedomStudio/sifive_hifive1_revb_hello/bsp/build/debug/./metal/machine.h:382
20016a18:	853e                	mv	a0,a5
20016a1a:	4472                	lw	s0,28(sp)
20016a1c:	6105                	addi	sp,sp,32
20016a1e:	8082                	ret

20016a20 <__metal_driver_sifive_plic0_interrupt_parents>:
__metal_driver_sifive_plic0_interrupt_parents():
/home/nicoladgg/wsFreedomStudio/sifive_hifive1_revb_hello/bsp/build/debug/./metal/machine.h:385
20016a20:	1101                	addi	sp,sp,-32
20016a22:	ce22                	sw	s0,28(sp)
20016a24:	1000                	addi	s0,sp,32
20016a26:	fea42623          	sw	a0,-20(s0)
20016a2a:	feb42423          	sw	a1,-24(s0)
/home/nicoladgg/wsFreedomStudio/sifive_hifive1_revb_hello/bsp/build/debug/./metal/machine.h:386
20016a2e:	fe842783          	lw	a5,-24(s0)
20016a32:	e791                	bnez	a5,20016a3e <__metal_driver_sifive_plic0_interrupt_parents+0x1e>
/home/nicoladgg/wsFreedomStudio/sifive_hifive1_revb_hello/bsp/build/debug/./metal/machine.h:387
20016a34:	800007b7          	lui	a5,0x80000
20016a38:	09078793          	addi	a5,a5,144 # 80000090 <metal_segment_heap_target_end+0xffffe6b0>
20016a3c:	a011                	j	20016a40 <__metal_driver_sifive_plic0_interrupt_parents+0x20>
/home/nicoladgg/wsFreedomStudio/sifive_hifive1_revb_hello/bsp/build/debug/./metal/machine.h:390
20016a3e:	4781                	li	a5,0
/home/nicoladgg/wsFreedomStudio/sifive_hifive1_revb_hello/bsp/build/debug/./metal/machine.h:392
20016a40:	853e                	mv	a0,a5
20016a42:	4472                	lw	s0,28(sp)
20016a44:	6105                	addi	sp,sp,32
20016a46:	8082                	ret

20016a48 <__metal_driver_sifive_plic0_interrupt_lines>:
__metal_driver_sifive_plic0_interrupt_lines():
/home/nicoladgg/wsFreedomStudio/sifive_hifive1_revb_hello/bsp/build/debug/./metal/machine.h:395
20016a48:	1101                	addi	sp,sp,-32
20016a4a:	ce22                	sw	s0,28(sp)
20016a4c:	1000                	addi	s0,sp,32
20016a4e:	fea42623          	sw	a0,-20(s0)
20016a52:	feb42423          	sw	a1,-24(s0)
/home/nicoladgg/wsFreedomStudio/sifive_hifive1_revb_hello/bsp/build/debug/./metal/machine.h:396
20016a56:	fe842783          	lw	a5,-24(s0)
20016a5a:	e399                	bnez	a5,20016a60 <__metal_driver_sifive_plic0_interrupt_lines+0x18>
/home/nicoladgg/wsFreedomStudio/sifive_hifive1_revb_hello/bsp/build/debug/./metal/machine.h:397
20016a5c:	47ad                	li	a5,11
20016a5e:	a011                	j	20016a62 <__metal_driver_sifive_plic0_interrupt_lines+0x1a>
/home/nicoladgg/wsFreedomStudio/sifive_hifive1_revb_hello/bsp/build/debug/./metal/machine.h:400
20016a60:	4781                	li	a5,0
/home/nicoladgg/wsFreedomStudio/sifive_hifive1_revb_hello/bsp/build/debug/./metal/machine.h:402
20016a62:	853e                	mv	a0,a5
20016a64:	4472                	lw	s0,28(sp)
20016a66:	6105                	addi	sp,sp,32
20016a68:	8082                	ret

20016a6a <__metal_driver_sifive_plic0_context_ids>:
__metal_driver_sifive_plic0_context_ids():
/home/nicoladgg/wsFreedomStudio/sifive_hifive1_revb_hello/bsp/build/debug/./metal/machine.h:405
20016a6a:	1101                	addi	sp,sp,-32
20016a6c:	ce22                	sw	s0,28(sp)
20016a6e:	1000                	addi	s0,sp,32
20016a70:	fea42623          	sw	a0,-20(s0)
/home/nicoladgg/wsFreedomStudio/sifive_hifive1_revb_hello/bsp/build/debug/./metal/machine.h:406
20016a74:	fec42783          	lw	a5,-20(s0)
20016a78:	e399                	bnez	a5,20016a7e <__metal_driver_sifive_plic0_context_ids+0x14>
/home/nicoladgg/wsFreedomStudio/sifive_hifive1_revb_hello/bsp/build/debug/./metal/machine.h:407
20016a7a:	4781                	li	a5,0
20016a7c:	a011                	j	20016a80 <__metal_driver_sifive_plic0_context_ids+0x16>
/home/nicoladgg/wsFreedomStudio/sifive_hifive1_revb_hello/bsp/build/debug/./metal/machine.h:410
20016a7e:	57fd                	li	a5,-1
/home/nicoladgg/wsFreedomStudio/sifive_hifive1_revb_hello/bsp/build/debug/./metal/machine.h:412
20016a80:	853e                	mv	a0,a5
20016a82:	4472                	lw	s0,28(sp)
20016a84:	6105                	addi	sp,sp,32
20016a86:	8082                	ret

20016a88 <__metal_plic0_claim_interrupt>:
__metal_plic0_claim_interrupt():
/home/nicoladgg/wsFreedomStudio/sifive_hifive1_revb_hello/freedom-metal/src/drivers/riscv_plic0.c:18
20016a88:	7179                	addi	sp,sp,-48
20016a8a:	d606                	sw	ra,44(sp)
20016a8c:	d422                	sw	s0,40(sp)
20016a8e:	1800                	addi	s0,sp,48
20016a90:	fca42e23          	sw	a0,-36(s0)
20016a94:	fcb42c23          	sw	a1,-40(s0)
/home/nicoladgg/wsFreedomStudio/sifive_hifive1_revb_hello/freedom-metal/src/drivers/riscv_plic0.c:19
20016a98:	fdc42503          	lw	a0,-36(s0)
20016a9c:	3721                	jal	200169a4 <__metal_driver_sifive_plic0_control_base>
20016a9e:	fea42623          	sw	a0,-20(s0)
/home/nicoladgg/wsFreedomStudio/sifive_hifive1_revb_hello/freedom-metal/src/drivers/riscv_plic0.c:21
20016aa2:	fd842783          	lw	a5,-40(s0)
20016aa6:	00c79713          	slli	a4,a5,0xc
20016aaa:	fec42783          	lw	a5,-20(s0)
20016aae:	973e                	add	a4,a4,a5
20016ab0:	002007b7          	lui	a5,0x200
20016ab4:	0791                	addi	a5,a5,4
20016ab6:	97ba                	add	a5,a5,a4
20016ab8:	439c                	lw	a5,0(a5)
/home/nicoladgg/wsFreedomStudio/sifive_hifive1_revb_hello/freedom-metal/src/drivers/riscv_plic0.c:25
20016aba:	853e                	mv	a0,a5
20016abc:	50b2                	lw	ra,44(sp)
20016abe:	5422                	lw	s0,40(sp)
20016ac0:	6145                	addi	sp,sp,48
20016ac2:	8082                	ret

20016ac4 <__metal_plic0_complete_interrupt>:
__metal_plic0_complete_interrupt():
/home/nicoladgg/wsFreedomStudio/sifive_hifive1_revb_hello/freedom-metal/src/drivers/riscv_plic0.c:28
20016ac4:	7179                	addi	sp,sp,-48
20016ac6:	d606                	sw	ra,44(sp)
20016ac8:	d422                	sw	s0,40(sp)
20016aca:	1800                	addi	s0,sp,48
20016acc:	fca42e23          	sw	a0,-36(s0)
20016ad0:	fcb42c23          	sw	a1,-40(s0)
20016ad4:	fcc42a23          	sw	a2,-44(s0)
/home/nicoladgg/wsFreedomStudio/sifive_hifive1_revb_hello/freedom-metal/src/drivers/riscv_plic0.c:29
20016ad8:	fdc42503          	lw	a0,-36(s0)
20016adc:	35e1                	jal	200169a4 <__metal_driver_sifive_plic0_control_base>
20016ade:	fea42623          	sw	a0,-20(s0)
/home/nicoladgg/wsFreedomStudio/sifive_hifive1_revb_hello/freedom-metal/src/drivers/riscv_plic0.c:31
20016ae2:	fd842783          	lw	a5,-40(s0)
20016ae6:	00c79713          	slli	a4,a5,0xc
20016aea:	fec42783          	lw	a5,-20(s0)
20016aee:	973e                	add	a4,a4,a5
20016af0:	002007b7          	lui	a5,0x200
20016af4:	0791                	addi	a5,a5,4
20016af6:	97ba                	add	a5,a5,a4
20016af8:	873e                	mv	a4,a5
/home/nicoladgg/wsFreedomStudio/sifive_hifive1_revb_hello/freedom-metal/src/drivers/riscv_plic0.c:34
20016afa:	fd442783          	lw	a5,-44(s0)
20016afe:	c31c                	sw	a5,0(a4)
/home/nicoladgg/wsFreedomStudio/sifive_hifive1_revb_hello/freedom-metal/src/drivers/riscv_plic0.c:35
20016b00:	0001                	nop
20016b02:	50b2                	lw	ra,44(sp)
20016b04:	5422                	lw	s0,40(sp)
20016b06:	6145                	addi	sp,sp,48
20016b08:	8082                	ret

20016b0a <__metal_plic0_set_threshold>:
__metal_plic0_set_threshold():
/home/nicoladgg/wsFreedomStudio/sifive_hifive1_revb_hello/freedom-metal/src/drivers/riscv_plic0.c:38
20016b0a:	7179                	addi	sp,sp,-48
20016b0c:	d606                	sw	ra,44(sp)
20016b0e:	d422                	sw	s0,40(sp)
20016b10:	1800                	addi	s0,sp,48
20016b12:	fca42e23          	sw	a0,-36(s0)
20016b16:	fcb42c23          	sw	a1,-40(s0)
20016b1a:	fcc42a23          	sw	a2,-44(s0)
/home/nicoladgg/wsFreedomStudio/sifive_hifive1_revb_hello/freedom-metal/src/drivers/riscv_plic0.c:40
20016b1e:	fdc42503          	lw	a0,-36(s0)
20016b22:	3549                	jal	200169a4 <__metal_driver_sifive_plic0_control_base>
20016b24:	fea42623          	sw	a0,-20(s0)
/home/nicoladgg/wsFreedomStudio/sifive_hifive1_revb_hello/freedom-metal/src/drivers/riscv_plic0.c:41
20016b28:	fd842783          	lw	a5,-40(s0)
20016b2c:	00c79713          	slli	a4,a5,0xc
20016b30:	fec42783          	lw	a5,-20(s0)
20016b34:	973e                	add	a4,a4,a5
20016b36:	002007b7          	lui	a5,0x200
20016b3a:	97ba                	add	a5,a5,a4
20016b3c:	873e                	mv	a4,a5
/home/nicoladgg/wsFreedomStudio/sifive_hifive1_revb_hello/freedom-metal/src/drivers/riscv_plic0.c:44
20016b3e:	fd442783          	lw	a5,-44(s0)
20016b42:	c31c                	sw	a5,0(a4)
/home/nicoladgg/wsFreedomStudio/sifive_hifive1_revb_hello/freedom-metal/src/drivers/riscv_plic0.c:45
20016b44:	4781                	li	a5,0
/home/nicoladgg/wsFreedomStudio/sifive_hifive1_revb_hello/freedom-metal/src/drivers/riscv_plic0.c:46
20016b46:	853e                	mv	a0,a5
20016b48:	50b2                	lw	ra,44(sp)
20016b4a:	5422                	lw	s0,40(sp)
20016b4c:	6145                	addi	sp,sp,48
20016b4e:	8082                	ret

20016b50 <__metal_plic0_get_threshold>:
__metal_plic0_get_threshold():
/home/nicoladgg/wsFreedomStudio/sifive_hifive1_revb_hello/freedom-metal/src/drivers/riscv_plic0.c:49
20016b50:	7179                	addi	sp,sp,-48
20016b52:	d606                	sw	ra,44(sp)
20016b54:	d422                	sw	s0,40(sp)
20016b56:	1800                	addi	s0,sp,48
20016b58:	fca42e23          	sw	a0,-36(s0)
20016b5c:	fcb42c23          	sw	a1,-40(s0)
/home/nicoladgg/wsFreedomStudio/sifive_hifive1_revb_hello/freedom-metal/src/drivers/riscv_plic0.c:51
20016b60:	fdc42503          	lw	a0,-36(s0)
20016b64:	3581                	jal	200169a4 <__metal_driver_sifive_plic0_control_base>
20016b66:	fea42623          	sw	a0,-20(s0)
/home/nicoladgg/wsFreedomStudio/sifive_hifive1_revb_hello/freedom-metal/src/drivers/riscv_plic0.c:52
20016b6a:	fd842783          	lw	a5,-40(s0)
20016b6e:	00c79713          	slli	a4,a5,0xc
20016b72:	fec42783          	lw	a5,-20(s0)
20016b76:	973e                	add	a4,a4,a5
20016b78:	002007b7          	lui	a5,0x200
20016b7c:	97ba                	add	a5,a5,a4
20016b7e:	439c                	lw	a5,0(a5)
/home/nicoladgg/wsFreedomStudio/sifive_hifive1_revb_hello/freedom-metal/src/drivers/riscv_plic0.c:56
20016b80:	853e                	mv	a0,a5
20016b82:	50b2                	lw	ra,44(sp)
20016b84:	5422                	lw	s0,40(sp)
20016b86:	6145                	addi	sp,sp,48
20016b88:	8082                	ret

20016b8a <__metal_driver_riscv_plic0_set_priority>:
__metal_driver_riscv_plic0_set_priority():
/home/nicoladgg/wsFreedomStudio/sifive_hifive1_revb_hello/freedom-metal/src/drivers/riscv_plic0.c:59
20016b8a:	7179                	addi	sp,sp,-48
20016b8c:	d606                	sw	ra,44(sp)
20016b8e:	d422                	sw	s0,40(sp)
20016b90:	1800                	addi	s0,sp,48
20016b92:	fca42e23          	sw	a0,-36(s0)
20016b96:	fcb42c23          	sw	a1,-40(s0)
20016b9a:	fcc42a23          	sw	a2,-44(s0)
/home/nicoladgg/wsFreedomStudio/sifive_hifive1_revb_hello/freedom-metal/src/drivers/riscv_plic0.c:60
20016b9e:	fdc42503          	lw	a0,-36(s0)
20016ba2:	3509                	jal	200169a4 <__metal_driver_sifive_plic0_control_base>
20016ba4:	fea42623          	sw	a0,-20(s0)
/home/nicoladgg/wsFreedomStudio/sifive_hifive1_revb_hello/freedom-metal/src/drivers/riscv_plic0.c:62
20016ba8:	fdc42503          	lw	a0,-36(s0)
20016bac:	35b1                	jal	200169f8 <__metal_driver_sifive_plic0_max_priority>
20016bae:	87aa                	mv	a5,a0
20016bb0:	fef42423          	sw	a5,-24(s0)
/home/nicoladgg/wsFreedomStudio/sifive_hifive1_revb_hello/freedom-metal/src/drivers/riscv_plic0.c:64
20016bb4:	fe842783          	lw	a5,-24(s0)
20016bb8:	c785                	beqz	a5,20016be0 <__metal_driver_riscv_plic0_set_priority+0x56>
/home/nicoladgg/wsFreedomStudio/sifive_hifive1_revb_hello/freedom-metal/src/drivers/riscv_plic0.c:64 (discriminator 1)
20016bba:	fd442703          	lw	a4,-44(s0)
20016bbe:	fe842783          	lw	a5,-24(s0)
20016bc2:	00f77f63          	bgeu	a4,a5,20016be0 <__metal_driver_riscv_plic0_set_priority+0x56>
/home/nicoladgg/wsFreedomStudio/sifive_hifive1_revb_hello/freedom-metal/src/drivers/riscv_plic0.c:65
20016bc6:	fd842783          	lw	a5,-40(s0)
20016bca:	078a                	slli	a5,a5,0x2
20016bcc:	873e                	mv	a4,a5
20016bce:	fec42783          	lw	a5,-20(s0)
20016bd2:	97ba                	add	a5,a5,a4
20016bd4:	873e                	mv	a4,a5
/home/nicoladgg/wsFreedomStudio/sifive_hifive1_revb_hello/freedom-metal/src/drivers/riscv_plic0.c:67
20016bd6:	fd442783          	lw	a5,-44(s0)
20016bda:	c31c                	sw	a5,0(a4)
/home/nicoladgg/wsFreedomStudio/sifive_hifive1_revb_hello/freedom-metal/src/drivers/riscv_plic0.c:69
20016bdc:	4781                	li	a5,0
20016bde:	a011                	j	20016be2 <__metal_driver_riscv_plic0_set_priority+0x58>
/home/nicoladgg/wsFreedomStudio/sifive_hifive1_revb_hello/freedom-metal/src/drivers/riscv_plic0.c:71
20016be0:	57fd                	li	a5,-1
/home/nicoladgg/wsFreedomStudio/sifive_hifive1_revb_hello/freedom-metal/src/drivers/riscv_plic0.c:72
20016be2:	853e                	mv	a0,a5
20016be4:	50b2                	lw	ra,44(sp)
20016be6:	5422                	lw	s0,40(sp)
20016be8:	6145                	addi	sp,sp,48
20016bea:	8082                	ret

20016bec <__metal_driver_riscv_plic0_get_priority>:
__metal_driver_riscv_plic0_get_priority():
/home/nicoladgg/wsFreedomStudio/sifive_hifive1_revb_hello/freedom-metal/src/drivers/riscv_plic0.c:76
20016bec:	7179                	addi	sp,sp,-48
20016bee:	d606                	sw	ra,44(sp)
20016bf0:	d422                	sw	s0,40(sp)
20016bf2:	1800                	addi	s0,sp,48
20016bf4:	fca42e23          	sw	a0,-36(s0)
20016bf8:	fcb42c23          	sw	a1,-40(s0)
/home/nicoladgg/wsFreedomStudio/sifive_hifive1_revb_hello/freedom-metal/src/drivers/riscv_plic0.c:78
20016bfc:	fdc42503          	lw	a0,-36(s0)
20016c00:	3355                	jal	200169a4 <__metal_driver_sifive_plic0_control_base>
20016c02:	fea42623          	sw	a0,-20(s0)
/home/nicoladgg/wsFreedomStudio/sifive_hifive1_revb_hello/freedom-metal/src/drivers/riscv_plic0.c:80
20016c06:	fd842783          	lw	a5,-40(s0)
20016c0a:	078a                	slli	a5,a5,0x2
20016c0c:	873e                	mv	a4,a5
20016c0e:	fec42783          	lw	a5,-20(s0)
20016c12:	97ba                	add	a5,a5,a4
20016c14:	439c                	lw	a5,0(a5)
/home/nicoladgg/wsFreedomStudio/sifive_hifive1_revb_hello/freedom-metal/src/drivers/riscv_plic0.c:83
20016c16:	853e                	mv	a0,a5
20016c18:	50b2                	lw	ra,44(sp)
20016c1a:	5422                	lw	s0,40(sp)
20016c1c:	6145                	addi	sp,sp,48
20016c1e:	8082                	ret

20016c20 <__metal_plic0_enable>:
__metal_plic0_enable():
/home/nicoladgg/wsFreedomStudio/sifive_hifive1_revb_hello/freedom-metal/src/drivers/riscv_plic0.c:86
20016c20:	7179                	addi	sp,sp,-48
20016c22:	d606                	sw	ra,44(sp)
20016c24:	d422                	sw	s0,40(sp)
20016c26:	1800                	addi	s0,sp,48
20016c28:	fca42e23          	sw	a0,-36(s0)
20016c2c:	fcb42c23          	sw	a1,-40(s0)
20016c30:	fcc42a23          	sw	a2,-44(s0)
20016c34:	fcd42823          	sw	a3,-48(s0)
/home/nicoladgg/wsFreedomStudio/sifive_hifive1_revb_hello/freedom-metal/src/drivers/riscv_plic0.c:88
20016c38:	fdc42503          	lw	a0,-36(s0)
20016c3c:	33a5                	jal	200169a4 <__metal_driver_sifive_plic0_control_base>
20016c3e:	fea42623          	sw	a0,-20(s0)
/home/nicoladgg/wsFreedomStudio/sifive_hifive1_revb_hello/freedom-metal/src/drivers/riscv_plic0.c:91
20016c42:	fd842783          	lw	a5,-40(s0)
20016c46:	00779713          	slli	a4,a5,0x7
20016c4a:	fec42783          	lw	a5,-20(s0)
20016c4e:	97ba                	add	a5,a5,a4
20016c50:	fd442703          	lw	a4,-44(s0)
20016c54:	8715                	srai	a4,a4,0x5
20016c56:	070a                	slli	a4,a4,0x2
20016c58:	973e                	add	a4,a4,a5
20016c5a:	6789                	lui	a5,0x2
20016c5c:	97ba                	add	a5,a5,a4
20016c5e:	439c                	lw	a5,0(a5)
20016c60:	fef42423          	sw	a5,-24(s0)
/home/nicoladgg/wsFreedomStudio/sifive_hifive1_revb_hello/freedom-metal/src/drivers/riscv_plic0.c:100
20016c64:	fd042783          	lw	a5,-48(s0)
20016c68:	cf81                	beqz	a5,20016c80 <__metal_plic0_enable+0x60>
/home/nicoladgg/wsFreedomStudio/sifive_hifive1_revb_hello/freedom-metal/src/drivers/riscv_plic0.c:99 (discriminator 1)
20016c6a:	fd442783          	lw	a5,-44(s0)
20016c6e:	8bfd                	andi	a5,a5,31
20016c70:	4705                	li	a4,1
20016c72:	00f717b3          	sll	a5,a4,a5
20016c76:	873e                	mv	a4,a5
/home/nicoladgg/wsFreedomStudio/sifive_hifive1_revb_hello/freedom-metal/src/drivers/riscv_plic0.c:100 (discriminator 1)
20016c78:	fe842783          	lw	a5,-24(s0)
20016c7c:	8fd9                	or	a5,a5,a4
20016c7e:	a829                	j	20016c98 <__metal_plic0_enable+0x78>
/home/nicoladgg/wsFreedomStudio/sifive_hifive1_revb_hello/freedom-metal/src/drivers/riscv_plic0.c:100 (discriminator 2)
20016c80:	fd442783          	lw	a5,-44(s0)
20016c84:	8bfd                	andi	a5,a5,31
20016c86:	4705                	li	a4,1
20016c88:	00f717b3          	sll	a5,a4,a5
20016c8c:	fff7c793          	not	a5,a5
20016c90:	873e                	mv	a4,a5
20016c92:	fe842783          	lw	a5,-24(s0)
20016c96:	8ff9                	and	a5,a5,a4
/home/nicoladgg/wsFreedomStudio/sifive_hifive1_revb_hello/freedom-metal/src/drivers/riscv_plic0.c:95
20016c98:	fd842703          	lw	a4,-40(s0)
20016c9c:	00771693          	slli	a3,a4,0x7
20016ca0:	fec42703          	lw	a4,-20(s0)
20016ca4:	9736                	add	a4,a4,a3
20016ca6:	fd442683          	lw	a3,-44(s0)
20016caa:	8695                	srai	a3,a3,0x5
20016cac:	068a                	slli	a3,a3,0x2
20016cae:	96ba                	add	a3,a3,a4
20016cb0:	6709                	lui	a4,0x2
20016cb2:	9736                	add	a4,a4,a3
/home/nicoladgg/wsFreedomStudio/sifive_hifive1_revb_hello/freedom-metal/src/drivers/riscv_plic0.c:98
20016cb4:	c31c                	sw	a5,0(a4)
/home/nicoladgg/wsFreedomStudio/sifive_hifive1_revb_hello/freedom-metal/src/drivers/riscv_plic0.c:102
20016cb6:	4781                	li	a5,0
/home/nicoladgg/wsFreedomStudio/sifive_hifive1_revb_hello/freedom-metal/src/drivers/riscv_plic0.c:103
20016cb8:	853e                	mv	a0,a5
20016cba:	50b2                	lw	ra,44(sp)
20016cbc:	5422                	lw	s0,40(sp)
20016cbe:	6145                	addi	sp,sp,48
20016cc0:	8082                	ret

20016cc2 <__metal_plic0_default_handler>:
__metal_plic0_default_handler():
/home/nicoladgg/wsFreedomStudio/sifive_hifive1_revb_hello/freedom-metal/src/drivers/riscv_plic0.c:105
20016cc2:	1101                	addi	sp,sp,-32
20016cc4:	ce06                	sw	ra,28(sp)
20016cc6:	cc22                	sw	s0,24(sp)
20016cc8:	1000                	addi	s0,sp,32
20016cca:	fea42623          	sw	a0,-20(s0)
20016cce:	feb42423          	sw	a1,-24(s0)
20016cd2:	12c00513          	li	a0,300
20016cd6:	24a020ef          	jal	ra,20018f20 <metal_shutdown>

20016cda <__metal_plic0_handler>:
__metal_plic0_handler():
/home/nicoladgg/wsFreedomStudio/sifive_hifive1_revb_hello/freedom-metal/src/drivers/riscv_plic0.c:107
20016cda:	7179                	addi	sp,sp,-48
20016cdc:	d606                	sw	ra,44(sp)
20016cde:	d422                	sw	s0,40(sp)
20016ce0:	1800                	addi	s0,sp,48
20016ce2:	fca42e23          	sw	a0,-36(s0)
20016ce6:	fcb42c23          	sw	a1,-40(s0)
/home/nicoladgg/wsFreedomStudio/sifive_hifive1_revb_hello/freedom-metal/src/drivers/riscv_plic0.c:108
20016cea:	fd842783          	lw	a5,-40(s0)
20016cee:	fef42623          	sw	a5,-20(s0)
/home/nicoladgg/wsFreedomStudio/sifive_hifive1_revb_hello/freedom-metal/src/drivers/riscv_plic0.c:110
20016cf2:	b80fe0ef          	jal	ra,20015072 <__metal_myhart_id>
20016cf6:	87aa                	mv	a5,a0
20016cf8:	853e                	mv	a0,a5
20016cfa:	3b85                	jal	20016a6a <__metal_driver_sifive_plic0_context_ids>
20016cfc:	fea42423          	sw	a0,-24(s0)
/home/nicoladgg/wsFreedomStudio/sifive_hifive1_revb_hello/freedom-metal/src/drivers/riscv_plic0.c:111
20016d00:	fe842583          	lw	a1,-24(s0)
20016d04:	fec42503          	lw	a0,-20(s0)
20016d08:	3341                	jal	20016a88 <__metal_plic0_claim_interrupt>
20016d0a:	fea42223          	sw	a0,-28(s0)
/home/nicoladgg/wsFreedomStudio/sifive_hifive1_revb_hello/freedom-metal/src/drivers/riscv_plic0.c:112
20016d0e:	fec42503          	lw	a0,-20(s0)
20016d12:	cbdff0ef          	jal	ra,200169ce <__metal_driver_sifive_plic0_num_interrupts>
20016d16:	87aa                	mv	a5,a0
20016d18:	fef42023          	sw	a5,-32(s0)
/home/nicoladgg/wsFreedomStudio/sifive_hifive1_revb_hello/freedom-metal/src/drivers/riscv_plic0.c:115
20016d1c:	fe442703          	lw	a4,-28(s0)
20016d20:	fe042783          	lw	a5,-32(s0)
20016d24:	04f77263          	bgeu	a4,a5,20016d68 <__metal_plic0_handler+0x8e>
/home/nicoladgg/wsFreedomStudio/sifive_hifive1_revb_hello/freedom-metal/src/drivers/riscv_plic0.c:115 (discriminator 1)
20016d28:	fec42703          	lw	a4,-20(s0)
20016d2c:	fe442783          	lw	a5,-28(s0)
20016d30:	078a                	slli	a5,a5,0x2
20016d32:	97ba                	add	a5,a5,a4
20016d34:	479c                	lw	a5,8(a5)
20016d36:	cb8d                	beqz	a5,20016d68 <__metal_plic0_handler+0x8e>
/home/nicoladgg/wsFreedomStudio/sifive_hifive1_revb_hello/freedom-metal/src/drivers/riscv_plic0.c:116
20016d38:	fec42703          	lw	a4,-20(s0)
20016d3c:	fe442783          	lw	a5,-28(s0)
20016d40:	078a                	slli	a5,a5,0x2
20016d42:	97ba                	add	a5,a5,a4
20016d44:	0087a803          	lw	a6,8(a5) # 2008 <__heap_size+0x1808>
20016d48:	fe442603          	lw	a2,-28(s0)
20016d4c:	fec42683          	lw	a3,-20(s0)
20016d50:	fe442703          	lw	a4,-28(s0)
20016d54:	87ba                	mv	a5,a4
20016d56:	0786                	slli	a5,a5,0x1
20016d58:	97ba                	add	a5,a5,a4
20016d5a:	078e                	slli	a5,a5,0x3
20016d5c:	97b6                	add	a5,a5,a3
20016d5e:	0f07a783          	lw	a5,240(a5)
20016d62:	85be                	mv	a1,a5
20016d64:	8532                	mv	a0,a2
20016d66:	9802                	jalr	a6
/home/nicoladgg/wsFreedomStudio/sifive_hifive1_revb_hello/freedom-metal/src/drivers/riscv_plic0.c:120
20016d68:	fe442603          	lw	a2,-28(s0)
20016d6c:	fe842583          	lw	a1,-24(s0)
20016d70:	fec42503          	lw	a0,-20(s0)
20016d74:	3b81                	jal	20016ac4 <__metal_plic0_complete_interrupt>
/home/nicoladgg/wsFreedomStudio/sifive_hifive1_revb_hello/freedom-metal/src/drivers/riscv_plic0.c:121
20016d76:	0001                	nop
20016d78:	50b2                	lw	ra,44(sp)
20016d7a:	5422                	lw	s0,40(sp)
20016d7c:	6145                	addi	sp,sp,48
20016d7e:	8082                	ret

20016d80 <__metal_driver_riscv_plic0_init>:
__metal_driver_riscv_plic0_init():
/home/nicoladgg/wsFreedomStudio/sifive_hifive1_revb_hello/freedom-metal/src/drivers/riscv_plic0.c:123
20016d80:	7139                	addi	sp,sp,-64
20016d82:	de06                	sw	ra,60(sp)
20016d84:	dc22                	sw	s0,56(sp)
20016d86:	0080                	addi	s0,sp,64
20016d88:	fca42623          	sw	a0,-52(s0)
/home/nicoladgg/wsFreedomStudio/sifive_hifive1_revb_hello/freedom-metal/src/drivers/riscv_plic0.c:124
20016d8c:	fcc42783          	lw	a5,-52(s0)
20016d90:	fef42223          	sw	a5,-28(s0)
/home/nicoladgg/wsFreedomStudio/sifive_hifive1_revb_hello/freedom-metal/src/drivers/riscv_plic0.c:126
20016d94:	fe442783          	lw	a5,-28(s0)
20016d98:	43dc                	lw	a5,4(a5)
20016d9a:	12079a63          	bnez	a5,20016ece <__metal_driver_riscv_plic0_init+0x14e>
/home/nicoladgg/wsFreedomStudio/sifive_hifive1_revb_hello/freedom-metal/src/drivers/riscv_plic0.c:130
20016d9e:	fe042623          	sw	zero,-20(s0)
20016da2:	aa31                	j	20016ebe <__metal_driver_riscv_plic0_init+0x13e>
/home/nicoladgg/wsFreedomStudio/sifive_hifive1_revb_hello/freedom-metal/src/drivers/riscv_plic0.c:132
20016da4:	fcc42503          	lw	a0,-52(s0)
20016da8:	c27ff0ef          	jal	ra,200169ce <__metal_driver_sifive_plic0_num_interrupts>
20016dac:	fea42023          	sw	a0,-32(s0)
/home/nicoladgg/wsFreedomStudio/sifive_hifive1_revb_hello/freedom-metal/src/drivers/riscv_plic0.c:133
20016db0:	fec42583          	lw	a1,-20(s0)
20016db4:	fcc42503          	lw	a0,-52(s0)
20016db8:	c69ff0ef          	jal	ra,20016a20 <__metal_driver_sifive_plic0_interrupt_parents>
20016dbc:	fca42e23          	sw	a0,-36(s0)
/home/nicoladgg/wsFreedomStudio/sifive_hifive1_revb_hello/freedom-metal/src/drivers/riscv_plic0.c:136
20016dc0:	fec42583          	lw	a1,-20(s0)
20016dc4:	fcc42503          	lw	a0,-52(s0)
20016dc8:	c81ff0ef          	jal	ra,20016a48 <__metal_driver_sifive_plic0_interrupt_lines>
20016dcc:	fca42c23          	sw	a0,-40(s0)
/home/nicoladgg/wsFreedomStudio/sifive_hifive1_revb_hello/freedom-metal/src/drivers/riscv_plic0.c:139
20016dd0:	fdc42783          	lw	a5,-36(s0)
20016dd4:	439c                	lw	a5,0(a5)
20016dd6:	439c                	lw	a5,0(a5)
20016dd8:	fdc42503          	lw	a0,-36(s0)
20016ddc:	9782                	jalr	a5
/home/nicoladgg/wsFreedomStudio/sifive_hifive1_revb_hello/freedom-metal/src/drivers/riscv_plic0.c:141
20016dde:	fe042423          	sw	zero,-24(s0)
20016de2:	a885                	j	20016e52 <__metal_driver_riscv_plic0_init+0xd2>
/home/nicoladgg/wsFreedomStudio/sifive_hifive1_revb_hello/freedom-metal/src/drivers/riscv_plic0.c:142
20016de4:	4681                	li	a3,0
20016de6:	fe842603          	lw	a2,-24(s0)
20016dea:	fec42583          	lw	a1,-20(s0)
20016dee:	fe442503          	lw	a0,-28(s0)
20016df2:	353d                	jal	20016c20 <__metal_plic0_enable>
/home/nicoladgg/wsFreedomStudio/sifive_hifive1_revb_hello/freedom-metal/src/drivers/riscv_plic0.c:143
20016df4:	fe842703          	lw	a4,-24(s0)
20016df8:	fe042783          	lw	a5,-32(s0)
20016dfc:	04f75663          	bge	a4,a5,20016e48 <__metal_driver_riscv_plic0_init+0xc8>
/home/nicoladgg/wsFreedomStudio/sifive_hifive1_revb_hello/freedom-metal/src/drivers/riscv_plic0.c:144
20016e00:	4601                	li	a2,0
20016e02:	fe842583          	lw	a1,-24(s0)
20016e06:	fcc42503          	lw	a0,-52(s0)
20016e0a:	3341                	jal	20016b8a <__metal_driver_riscv_plic0_set_priority>
/home/nicoladgg/wsFreedomStudio/sifive_hifive1_revb_hello/freedom-metal/src/drivers/riscv_plic0.c:145
20016e0c:	fe442703          	lw	a4,-28(s0)
20016e10:	fe842783          	lw	a5,-24(s0)
20016e14:	078a                	slli	a5,a5,0x2
20016e16:	97ba                	add	a5,a5,a4
20016e18:	0007a423          	sw	zero,8(a5)
/home/nicoladgg/wsFreedomStudio/sifive_hifive1_revb_hello/freedom-metal/src/drivers/riscv_plic0.c:146
20016e1c:	fe442683          	lw	a3,-28(s0)
20016e20:	fe842703          	lw	a4,-24(s0)
20016e24:	87ba                	mv	a5,a4
20016e26:	0786                	slli	a5,a5,0x1
20016e28:	97ba                	add	a5,a5,a4
20016e2a:	078e                	slli	a5,a5,0x3
20016e2c:	97b6                	add	a5,a5,a3
20016e2e:	0e07a623          	sw	zero,236(a5)
/home/nicoladgg/wsFreedomStudio/sifive_hifive1_revb_hello/freedom-metal/src/drivers/riscv_plic0.c:147
20016e32:	fe442683          	lw	a3,-28(s0)
20016e36:	fe842703          	lw	a4,-24(s0)
20016e3a:	87ba                	mv	a5,a4
20016e3c:	0786                	slli	a5,a5,0x1
20016e3e:	97ba                	add	a5,a5,a4
20016e40:	078e                	slli	a5,a5,0x3
20016e42:	97b6                	add	a5,a5,a3
20016e44:	0e07a823          	sw	zero,240(a5)
/home/nicoladgg/wsFreedomStudio/sifive_hifive1_revb_hello/freedom-metal/src/drivers/riscv_plic0.c:141 (discriminator 2)
20016e48:	fe842783          	lw	a5,-24(s0)
20016e4c:	0785                	addi	a5,a5,1
20016e4e:	fef42423          	sw	a5,-24(s0)
/home/nicoladgg/wsFreedomStudio/sifive_hifive1_revb_hello/freedom-metal/src/drivers/riscv_plic0.c:141 (discriminator 1)
20016e52:	fe842703          	lw	a4,-24(s0)
20016e56:	3ff00793          	li	a5,1023
20016e5a:	f8e7d5e3          	bge	a5,a4,20016de4 <__metal_driver_riscv_plic0_init+0x64>
/home/nicoladgg/wsFreedomStudio/sifive_hifive1_revb_hello/freedom-metal/src/drivers/riscv_plic0.c:151 (discriminator 2)
20016e5e:	4601                	li	a2,0
20016e60:	fec42583          	lw	a1,-20(s0)
20016e64:	fcc42503          	lw	a0,-52(s0)
20016e68:	ca3ff0ef          	jal	ra,20016b0a <__metal_plic0_set_threshold>
/home/nicoladgg/wsFreedomStudio/sifive_hifive1_revb_hello/freedom-metal/src/drivers/riscv_plic0.c:154 (discriminator 2)
20016e6c:	fdc42783          	lw	a5,-36(s0)
20016e70:	439c                	lw	a5,0(a5)
20016e72:	4fdc                	lw	a5,28(a5)
20016e74:	fe442683          	lw	a3,-28(s0)
20016e78:	4601                	li	a2,0
20016e7a:	fd842583          	lw	a1,-40(s0)
20016e7e:	fdc42503          	lw	a0,-36(s0)
20016e82:	9782                	jalr	a5
/home/nicoladgg/wsFreedomStudio/sifive_hifive1_revb_hello/freedom-metal/src/drivers/riscv_plic0.c:156 (discriminator 2)
20016e84:	fdc42783          	lw	a5,-36(s0)
20016e88:	439c                	lw	a5,0(a5)
20016e8a:	4fd8                	lw	a4,28(a5)
20016e8c:	fe442683          	lw	a3,-28(s0)
20016e90:	200177b7          	lui	a5,0x20017
20016e94:	cda78613          	addi	a2,a5,-806 # 20016cda <__metal_plic0_handler>
20016e98:	fd842583          	lw	a1,-40(s0)
20016e9c:	fdc42503          	lw	a0,-36(s0)
20016ea0:	9702                	jalr	a4
/home/nicoladgg/wsFreedomStudio/sifive_hifive1_revb_hello/freedom-metal/src/drivers/riscv_plic0.c:159 (discriminator 2)
20016ea2:	fdc42783          	lw	a5,-36(s0)
20016ea6:	439c                	lw	a5,0(a5)
20016ea8:	53dc                	lw	a5,36(a5)
20016eaa:	fd842583          	lw	a1,-40(s0)
20016eae:	fdc42503          	lw	a0,-36(s0)
20016eb2:	9782                	jalr	a5
/home/nicoladgg/wsFreedomStudio/sifive_hifive1_revb_hello/freedom-metal/src/drivers/riscv_plic0.c:130 (discriminator 2)
20016eb4:	fec42783          	lw	a5,-20(s0)
20016eb8:	0785                	addi	a5,a5,1
20016eba:	fef42623          	sw	a5,-20(s0)
/home/nicoladgg/wsFreedomStudio/sifive_hifive1_revb_hello/freedom-metal/src/drivers/riscv_plic0.c:130 (discriminator 1)
20016ebe:	fec42783          	lw	a5,-20(s0)
20016ec2:	eef051e3          	blez	a5,20016da4 <__metal_driver_riscv_plic0_init+0x24>
/home/nicoladgg/wsFreedomStudio/sifive_hifive1_revb_hello/freedom-metal/src/drivers/riscv_plic0.c:161
20016ec6:	fe442783          	lw	a5,-28(s0)
20016eca:	4705                	li	a4,1
20016ecc:	c3d8                	sw	a4,4(a5)
/home/nicoladgg/wsFreedomStudio/sifive_hifive1_revb_hello/freedom-metal/src/drivers/riscv_plic0.c:163
20016ece:	0001                	nop
20016ed0:	50f2                	lw	ra,60(sp)
20016ed2:	5462                	lw	s0,56(sp)
20016ed4:	6121                	addi	sp,sp,64
20016ed6:	8082                	ret

20016ed8 <__metal_driver_riscv_plic0_register>:
__metal_driver_riscv_plic0_register():
/home/nicoladgg/wsFreedomStudio/sifive_hifive1_revb_hello/freedom-metal/src/drivers/riscv_plic0.c:167
20016ed8:	7179                	addi	sp,sp,-48
20016eda:	d606                	sw	ra,44(sp)
20016edc:	d422                	sw	s0,40(sp)
20016ede:	1800                	addi	s0,sp,48
20016ee0:	fca42e23          	sw	a0,-36(s0)
20016ee4:	fcb42c23          	sw	a1,-40(s0)
20016ee8:	fcc42a23          	sw	a2,-44(s0)
20016eec:	fcd42823          	sw	a3,-48(s0)
/home/nicoladgg/wsFreedomStudio/sifive_hifive1_revb_hello/freedom-metal/src/drivers/riscv_plic0.c:168
20016ef0:	fdc42783          	lw	a5,-36(s0)
20016ef4:	fef42623          	sw	a5,-20(s0)
/home/nicoladgg/wsFreedomStudio/sifive_hifive1_revb_hello/freedom-metal/src/drivers/riscv_plic0.c:170
20016ef8:	fdc42503          	lw	a0,-36(s0)
20016efc:	ad3ff0ef          	jal	ra,200169ce <__metal_driver_sifive_plic0_num_interrupts>
20016f00:	872a                	mv	a4,a0
20016f02:	fd842783          	lw	a5,-40(s0)
20016f06:	00e7c463          	blt	a5,a4,20016f0e <__metal_driver_riscv_plic0_register+0x36>
/home/nicoladgg/wsFreedomStudio/sifive_hifive1_revb_hello/freedom-metal/src/drivers/riscv_plic0.c:171
20016f0a:	57fd                	li	a5,-1
20016f0c:	a051                	j	20016f90 <__metal_driver_riscv_plic0_register+0xb8>
/home/nicoladgg/wsFreedomStudio/sifive_hifive1_revb_hello/freedom-metal/src/drivers/riscv_plic0.c:174
20016f0e:	fd442783          	lw	a5,-44(s0)
20016f12:	cf9d                	beqz	a5,20016f50 <__metal_driver_riscv_plic0_register+0x78>
/home/nicoladgg/wsFreedomStudio/sifive_hifive1_revb_hello/freedom-metal/src/drivers/riscv_plic0.c:175
20016f14:	4609                	li	a2,2
20016f16:	fd842583          	lw	a1,-40(s0)
20016f1a:	fdc42503          	lw	a0,-36(s0)
20016f1e:	c6dff0ef          	jal	ra,20016b8a <__metal_driver_riscv_plic0_set_priority>
/home/nicoladgg/wsFreedomStudio/sifive_hifive1_revb_hello/freedom-metal/src/drivers/riscv_plic0.c:176
20016f22:	fec42703          	lw	a4,-20(s0)
20016f26:	fd842783          	lw	a5,-40(s0)
20016f2a:	078a                	slli	a5,a5,0x2
20016f2c:	97ba                	add	a5,a5,a4
20016f2e:	fd442703          	lw	a4,-44(s0)
20016f32:	c798                	sw	a4,8(a5)
/home/nicoladgg/wsFreedomStudio/sifive_hifive1_revb_hello/freedom-metal/src/drivers/riscv_plic0.c:177
20016f34:	fec42683          	lw	a3,-20(s0)
20016f38:	fd842703          	lw	a4,-40(s0)
20016f3c:	87ba                	mv	a5,a4
20016f3e:	0786                	slli	a5,a5,0x1
20016f40:	97ba                	add	a5,a5,a4
20016f42:	078e                	slli	a5,a5,0x3
20016f44:	97b6                	add	a5,a5,a3
20016f46:	fd042703          	lw	a4,-48(s0)
20016f4a:	0ee7a823          	sw	a4,240(a5)
20016f4e:	a081                	j	20016f8e <__metal_driver_riscv_plic0_register+0xb6>
/home/nicoladgg/wsFreedomStudio/sifive_hifive1_revb_hello/freedom-metal/src/drivers/riscv_plic0.c:179
20016f50:	4605                	li	a2,1
20016f52:	fd842583          	lw	a1,-40(s0)
20016f56:	fdc42503          	lw	a0,-36(s0)
20016f5a:	c31ff0ef          	jal	ra,20016b8a <__metal_driver_riscv_plic0_set_priority>
/home/nicoladgg/wsFreedomStudio/sifive_hifive1_revb_hello/freedom-metal/src/drivers/riscv_plic0.c:180
20016f5e:	fec42703          	lw	a4,-20(s0)
20016f62:	fd842783          	lw	a5,-40(s0)
20016f66:	078a                	slli	a5,a5,0x2
20016f68:	97ba                	add	a5,a5,a4
20016f6a:	20017737          	lui	a4,0x20017
20016f6e:	cc270713          	addi	a4,a4,-830 # 20016cc2 <__metal_plic0_default_handler>
20016f72:	c798                	sw	a4,8(a5)
/home/nicoladgg/wsFreedomStudio/sifive_hifive1_revb_hello/freedom-metal/src/drivers/riscv_plic0.c:181
20016f74:	fec42683          	lw	a3,-20(s0)
20016f78:	fd842703          	lw	a4,-40(s0)
20016f7c:	87ba                	mv	a5,a4
20016f7e:	0786                	slli	a5,a5,0x1
20016f80:	97ba                	add	a5,a5,a4
20016f82:	078e                	slli	a5,a5,0x3
20016f84:	97b6                	add	a5,a5,a3
20016f86:	fd042703          	lw	a4,-48(s0)
20016f8a:	0ee7a623          	sw	a4,236(a5)
/home/nicoladgg/wsFreedomStudio/sifive_hifive1_revb_hello/freedom-metal/src/drivers/riscv_plic0.c:184
20016f8e:	4781                	li	a5,0
/home/nicoladgg/wsFreedomStudio/sifive_hifive1_revb_hello/freedom-metal/src/drivers/riscv_plic0.c:185
20016f90:	853e                	mv	a0,a5
20016f92:	50b2                	lw	ra,44(sp)
20016f94:	5422                	lw	s0,40(sp)
20016f96:	6145                	addi	sp,sp,48
20016f98:	8082                	ret

20016f9a <__metal_driver_riscv_plic0_enable>:
__metal_driver_riscv_plic0_enable():
/home/nicoladgg/wsFreedomStudio/sifive_hifive1_revb_hello/freedom-metal/src/drivers/riscv_plic0.c:188
20016f9a:	7179                	addi	sp,sp,-48
20016f9c:	d606                	sw	ra,44(sp)
20016f9e:	d422                	sw	s0,40(sp)
20016fa0:	1800                	addi	s0,sp,48
20016fa2:	fca42e23          	sw	a0,-36(s0)
20016fa6:	fcb42c23          	sw	a1,-40(s0)
/home/nicoladgg/wsFreedomStudio/sifive_hifive1_revb_hello/freedom-metal/src/drivers/riscv_plic0.c:189
20016faa:	fdc42783          	lw	a5,-36(s0)
20016fae:	fef42623          	sw	a5,-20(s0)
/home/nicoladgg/wsFreedomStudio/sifive_hifive1_revb_hello/freedom-metal/src/drivers/riscv_plic0.c:191
20016fb2:	fdc42503          	lw	a0,-36(s0)
20016fb6:	a19ff0ef          	jal	ra,200169ce <__metal_driver_sifive_plic0_num_interrupts>
20016fba:	872a                	mv	a4,a0
20016fbc:	fd842783          	lw	a5,-40(s0)
20016fc0:	00e7c463          	blt	a5,a4,20016fc8 <__metal_driver_riscv_plic0_enable+0x2e>
/home/nicoladgg/wsFreedomStudio/sifive_hifive1_revb_hello/freedom-metal/src/drivers/riscv_plic0.c:192
20016fc4:	57fd                	li	a5,-1
20016fc6:	a829                	j	20016fe0 <__metal_driver_riscv_plic0_enable+0x46>
/home/nicoladgg/wsFreedomStudio/sifive_hifive1_revb_hello/freedom-metal/src/drivers/riscv_plic0.c:195
20016fc8:	8aafe0ef          	jal	ra,20015072 <__metal_myhart_id>
20016fcc:	87aa                	mv	a5,a0
20016fce:	4685                	li	a3,1
20016fd0:	fd842603          	lw	a2,-40(s0)
20016fd4:	85be                	mv	a1,a5
20016fd6:	fec42503          	lw	a0,-20(s0)
20016fda:	c47ff0ef          	jal	ra,20016c20 <__metal_plic0_enable>
/home/nicoladgg/wsFreedomStudio/sifive_hifive1_revb_hello/freedom-metal/src/drivers/riscv_plic0.c:196
20016fde:	4781                	li	a5,0
/home/nicoladgg/wsFreedomStudio/sifive_hifive1_revb_hello/freedom-metal/src/drivers/riscv_plic0.c:197
20016fe0:	853e                	mv	a0,a5
20016fe2:	50b2                	lw	ra,44(sp)
20016fe4:	5422                	lw	s0,40(sp)
20016fe6:	6145                	addi	sp,sp,48
20016fe8:	8082                	ret

20016fea <__metal_driver_riscv_plic0_disable>:
__metal_driver_riscv_plic0_disable():
/home/nicoladgg/wsFreedomStudio/sifive_hifive1_revb_hello/freedom-metal/src/drivers/riscv_plic0.c:200
20016fea:	7179                	addi	sp,sp,-48
20016fec:	d606                	sw	ra,44(sp)
20016fee:	d422                	sw	s0,40(sp)
20016ff0:	1800                	addi	s0,sp,48
20016ff2:	fca42e23          	sw	a0,-36(s0)
20016ff6:	fcb42c23          	sw	a1,-40(s0)
/home/nicoladgg/wsFreedomStudio/sifive_hifive1_revb_hello/freedom-metal/src/drivers/riscv_plic0.c:201
20016ffa:	fdc42783          	lw	a5,-36(s0)
20016ffe:	fef42623          	sw	a5,-20(s0)
/home/nicoladgg/wsFreedomStudio/sifive_hifive1_revb_hello/freedom-metal/src/drivers/riscv_plic0.c:203
20017002:	fdc42503          	lw	a0,-36(s0)
20017006:	9c9ff0ef          	jal	ra,200169ce <__metal_driver_sifive_plic0_num_interrupts>
2001700a:	872a                	mv	a4,a0
2001700c:	fd842783          	lw	a5,-40(s0)
20017010:	00e7c463          	blt	a5,a4,20017018 <__metal_driver_riscv_plic0_disable+0x2e>
/home/nicoladgg/wsFreedomStudio/sifive_hifive1_revb_hello/freedom-metal/src/drivers/riscv_plic0.c:204
20017014:	57fd                	li	a5,-1
20017016:	a829                	j	20017030 <__metal_driver_riscv_plic0_disable+0x46>
/home/nicoladgg/wsFreedomStudio/sifive_hifive1_revb_hello/freedom-metal/src/drivers/riscv_plic0.c:206
20017018:	85afe0ef          	jal	ra,20015072 <__metal_myhart_id>
2001701c:	87aa                	mv	a5,a0
2001701e:	4681                	li	a3,0
20017020:	fd842603          	lw	a2,-40(s0)
20017024:	85be                	mv	a1,a5
20017026:	fec42503          	lw	a0,-20(s0)
2001702a:	bf7ff0ef          	jal	ra,20016c20 <__metal_plic0_enable>
/home/nicoladgg/wsFreedomStudio/sifive_hifive1_revb_hello/freedom-metal/src/drivers/riscv_plic0.c:207
2001702e:	4781                	li	a5,0
/home/nicoladgg/wsFreedomStudio/sifive_hifive1_revb_hello/freedom-metal/src/drivers/riscv_plic0.c:208
20017030:	853e                	mv	a0,a5
20017032:	50b2                	lw	ra,44(sp)
20017034:	5422                	lw	s0,40(sp)
20017036:	6145                	addi	sp,sp,48
20017038:	8082                	ret

2001703a <__metal_driver_riscv_plic0_set_threshold>:
__metal_driver_riscv_plic0_set_threshold():
/home/nicoladgg/wsFreedomStudio/sifive_hifive1_revb_hello/freedom-metal/src/drivers/riscv_plic0.c:211
2001703a:	1101                	addi	sp,sp,-32
2001703c:	ce06                	sw	ra,28(sp)
2001703e:	cc22                	sw	s0,24(sp)
20017040:	1000                	addi	s0,sp,32
20017042:	fea42623          	sw	a0,-20(s0)
20017046:	feb42423          	sw	a1,-24(s0)
/home/nicoladgg/wsFreedomStudio/sifive_hifive1_revb_hello/freedom-metal/src/drivers/riscv_plic0.c:212
2001704a:	828fe0ef          	jal	ra,20015072 <__metal_myhart_id>
2001704e:	87aa                	mv	a5,a0
20017050:	fe842603          	lw	a2,-24(s0)
20017054:	85be                	mv	a1,a5
20017056:	fec42503          	lw	a0,-20(s0)
2001705a:	ab1ff0ef          	jal	ra,20016b0a <__metal_plic0_set_threshold>
2001705e:	87aa                	mv	a5,a0
/home/nicoladgg/wsFreedomStudio/sifive_hifive1_revb_hello/freedom-metal/src/drivers/riscv_plic0.c:214
20017060:	853e                	mv	a0,a5
20017062:	40f2                	lw	ra,28(sp)
20017064:	4462                	lw	s0,24(sp)
20017066:	6105                	addi	sp,sp,32
20017068:	8082                	ret

2001706a <__metal_driver_riscv_plic0_get_threshold>:
__metal_driver_riscv_plic0_get_threshold():
/home/nicoladgg/wsFreedomStudio/sifive_hifive1_revb_hello/freedom-metal/src/drivers/riscv_plic0.c:217
2001706a:	1101                	addi	sp,sp,-32
2001706c:	ce06                	sw	ra,28(sp)
2001706e:	cc22                	sw	s0,24(sp)
20017070:	1000                	addi	s0,sp,32
20017072:	fea42623          	sw	a0,-20(s0)
/home/nicoladgg/wsFreedomStudio/sifive_hifive1_revb_hello/freedom-metal/src/drivers/riscv_plic0.c:218
20017076:	ffdfd0ef          	jal	ra,20015072 <__metal_myhart_id>
2001707a:	87aa                	mv	a5,a0
2001707c:	85be                	mv	a1,a5
2001707e:	fec42503          	lw	a0,-20(s0)
20017082:	acfff0ef          	jal	ra,20016b50 <__metal_plic0_get_threshold>
20017086:	87aa                	mv	a5,a0
/home/nicoladgg/wsFreedomStudio/sifive_hifive1_revb_hello/freedom-metal/src/drivers/riscv_plic0.c:219
20017088:	853e                	mv	a0,a5
2001708a:	40f2                	lw	ra,28(sp)
2001708c:	4462                	lw	s0,24(sp)
2001708e:	6105                	addi	sp,sp,32
20017090:	8082                	ret

20017092 <__metal_driver_riscv_plic0_affinity_enable>:
__metal_driver_riscv_plic0_affinity_enable():
/home/nicoladgg/wsFreedomStudio/sifive_hifive1_revb_hello/freedom-metal/src/drivers/riscv_plic0.c:223
20017092:	7179                	addi	sp,sp,-48
20017094:	d606                	sw	ra,44(sp)
20017096:	d422                	sw	s0,40(sp)
20017098:	1800                	addi	s0,sp,48
2001709a:	fca42e23          	sw	a0,-36(s0)
2001709e:	fcb42c23          	sw	a1,-40(s0)
200170a2:	fcc42a23          	sw	a2,-44(s0)
/home/nicoladgg/wsFreedomStudio/sifive_hifive1_revb_hello/freedom-metal/src/drivers/riscv_plic0.c:224
200170a6:	fe042223          	sw	zero,-28(s0)
/home/nicoladgg/wsFreedomStudio/sifive_hifive1_revb_hello/freedom-metal/src/drivers/riscv_plic0.c:227
200170aa:	fdc42783          	lw	a5,-36(s0)
200170ae:	fef42423          	sw	a5,-24(s0)
/home/nicoladgg/wsFreedomStudio/sifive_hifive1_revb_hello/freedom-metal/src/drivers/riscv_plic0.c:229
200170b2:	fdc42503          	lw	a0,-36(s0)
200170b6:	919ff0ef          	jal	ra,200169ce <__metal_driver_sifive_plic0_num_interrupts>
200170ba:	872a                	mv	a4,a0
200170bc:	fd442783          	lw	a5,-44(s0)
200170c0:	00e7c863          	blt	a5,a4,200170d0 <__metal_driver_riscv_plic0_affinity_enable+0x3e>
/home/nicoladgg/wsFreedomStudio/sifive_hifive1_revb_hello/freedom-metal/src/drivers/riscv_plic0.c:230
200170c4:	57fd                	li	a5,-1
200170c6:	fef42223          	sw	a5,-28(s0)
/home/nicoladgg/wsFreedomStudio/sifive_hifive1_revb_hello/freedom-metal/src/drivers/riscv_plic0.c:231
200170ca:	fe442783          	lw	a5,-28(s0)
200170ce:	a899                	j	20017124 <__metal_driver_riscv_plic0_affinity_enable+0x92>
/home/nicoladgg/wsFreedomStudio/sifive_hifive1_revb_hello/freedom-metal/src/drivers/riscv_plic0.c:234
200170d0:	fe042623          	sw	zero,-20(s0)
200170d4:	a099                	j	2001711a <__metal_driver_riscv_plic0_affinity_enable+0x88>
/home/nicoladgg/wsFreedomStudio/sifive_hifive1_revb_hello/freedom-metal/src/drivers/riscv_plic0.c:235
200170d6:	fec42783          	lw	a5,-20(s0)
200170da:	c795                	beqz	a5,20017106 <__metal_driver_riscv_plic0_affinity_enable+0x74>
/home/nicoladgg/wsFreedomStudio/sifive_hifive1_revb_hello/freedom-metal/src/drivers/riscv_plic0.c:236
200170dc:	4685                	li	a3,1
200170de:	fd442603          	lw	a2,-44(s0)
200170e2:	fec42583          	lw	a1,-20(s0)
200170e6:	fe842503          	lw	a0,-24(s0)
200170ea:	b37ff0ef          	jal	ra,20016c20 <__metal_plic0_enable>
200170ee:	87aa                	mv	a5,a0
200170f0:	0017f713          	andi	a4,a5,1
200170f4:	fec42783          	lw	a5,-20(s0)
200170f8:	00f71733          	sll	a4,a4,a5
200170fc:	fe442783          	lw	a5,-28(s0)
20017100:	8fd9                	or	a5,a5,a4
20017102:	fef42223          	sw	a5,-28(s0)
/home/nicoladgg/wsFreedomStudio/sifive_hifive1_revb_hello/freedom-metal/src/drivers/riscv_plic0.c:234 (discriminator 2)
20017106:	fec42783          	lw	a5,-20(s0)
2001710a:	0785                	addi	a5,a5,1
2001710c:	fef42623          	sw	a5,-20(s0)
20017110:	fd842783          	lw	a5,-40(s0)
20017114:	8385                	srli	a5,a5,0x1
20017116:	fcf42c23          	sw	a5,-40(s0)
/home/nicoladgg/wsFreedomStudio/sifive_hifive1_revb_hello/freedom-metal/src/drivers/riscv_plic0.c:234 (discriminator 1)
2001711a:	fd842783          	lw	a5,-40(s0)
2001711e:	ffc5                	bnez	a5,200170d6 <__metal_driver_riscv_plic0_affinity_enable+0x44>
/home/nicoladgg/wsFreedomStudio/sifive_hifive1_revb_hello/freedom-metal/src/drivers/riscv_plic0.c:241
20017120:	fe442783          	lw	a5,-28(s0)
/home/nicoladgg/wsFreedomStudio/sifive_hifive1_revb_hello/freedom-metal/src/drivers/riscv_plic0.c:242 (discriminator 1)
20017124:	853e                	mv	a0,a5
20017126:	50b2                	lw	ra,44(sp)
20017128:	5422                	lw	s0,40(sp)
2001712a:	6145                	addi	sp,sp,48
2001712c:	8082                	ret

2001712e <__metal_driver_riscv_plic0_affinity_disable>:
__metal_driver_riscv_plic0_affinity_disable():
/home/nicoladgg/wsFreedomStudio/sifive_hifive1_revb_hello/freedom-metal/src/drivers/riscv_plic0.c:246
2001712e:	7179                	addi	sp,sp,-48
20017130:	d606                	sw	ra,44(sp)
20017132:	d422                	sw	s0,40(sp)
20017134:	1800                	addi	s0,sp,48
20017136:	fca42e23          	sw	a0,-36(s0)
2001713a:	fcb42c23          	sw	a1,-40(s0)
2001713e:	fcc42a23          	sw	a2,-44(s0)
/home/nicoladgg/wsFreedomStudio/sifive_hifive1_revb_hello/freedom-metal/src/drivers/riscv_plic0.c:247
20017142:	fe042223          	sw	zero,-28(s0)
/home/nicoladgg/wsFreedomStudio/sifive_hifive1_revb_hello/freedom-metal/src/drivers/riscv_plic0.c:250
20017146:	fdc42783          	lw	a5,-36(s0)
2001714a:	fef42423          	sw	a5,-24(s0)
/home/nicoladgg/wsFreedomStudio/sifive_hifive1_revb_hello/freedom-metal/src/drivers/riscv_plic0.c:252
2001714e:	fdc42503          	lw	a0,-36(s0)
20017152:	87dff0ef          	jal	ra,200169ce <__metal_driver_sifive_plic0_num_interrupts>
20017156:	872a                	mv	a4,a0
20017158:	fd442783          	lw	a5,-44(s0)
2001715c:	00e7c863          	blt	a5,a4,2001716c <__metal_driver_riscv_plic0_affinity_disable+0x3e>
/home/nicoladgg/wsFreedomStudio/sifive_hifive1_revb_hello/freedom-metal/src/drivers/riscv_plic0.c:253
20017160:	57fd                	li	a5,-1
20017162:	fef42223          	sw	a5,-28(s0)
/home/nicoladgg/wsFreedomStudio/sifive_hifive1_revb_hello/freedom-metal/src/drivers/riscv_plic0.c:254
20017166:	fe442783          	lw	a5,-28(s0)
2001716a:	a899                	j	200171c0 <__metal_driver_riscv_plic0_affinity_disable+0x92>
/home/nicoladgg/wsFreedomStudio/sifive_hifive1_revb_hello/freedom-metal/src/drivers/riscv_plic0.c:257
2001716c:	fe042623          	sw	zero,-20(s0)
20017170:	a099                	j	200171b6 <__metal_driver_riscv_plic0_affinity_disable+0x88>
/home/nicoladgg/wsFreedomStudio/sifive_hifive1_revb_hello/freedom-metal/src/drivers/riscv_plic0.c:258
20017172:	fec42783          	lw	a5,-20(s0)
20017176:	c795                	beqz	a5,200171a2 <__metal_driver_riscv_plic0_affinity_disable+0x74>
/home/nicoladgg/wsFreedomStudio/sifive_hifive1_revb_hello/freedom-metal/src/drivers/riscv_plic0.c:259
20017178:	4681                	li	a3,0
2001717a:	fd442603          	lw	a2,-44(s0)
2001717e:	fec42583          	lw	a1,-20(s0)
20017182:	fe842503          	lw	a0,-24(s0)
20017186:	a9bff0ef          	jal	ra,20016c20 <__metal_plic0_enable>
2001718a:	87aa                	mv	a5,a0
2001718c:	0017f713          	andi	a4,a5,1
20017190:	fec42783          	lw	a5,-20(s0)
20017194:	00f71733          	sll	a4,a4,a5
20017198:	fe442783          	lw	a5,-28(s0)
2001719c:	8fd9                	or	a5,a5,a4
2001719e:	fef42223          	sw	a5,-28(s0)
/home/nicoladgg/wsFreedomStudio/sifive_hifive1_revb_hello/freedom-metal/src/drivers/riscv_plic0.c:257 (discriminator 2)
200171a2:	fec42783          	lw	a5,-20(s0)
200171a6:	0785                	addi	a5,a5,1
200171a8:	fef42623          	sw	a5,-20(s0)
200171ac:	fd842783          	lw	a5,-40(s0)
200171b0:	8385                	srli	a5,a5,0x1
200171b2:	fcf42c23          	sw	a5,-40(s0)
/home/nicoladgg/wsFreedomStudio/sifive_hifive1_revb_hello/freedom-metal/src/drivers/riscv_plic0.c:257 (discriminator 1)
200171b6:	fd842783          	lw	a5,-40(s0)
200171ba:	ffc5                	bnez	a5,20017172 <__metal_driver_riscv_plic0_affinity_disable+0x44>
/home/nicoladgg/wsFreedomStudio/sifive_hifive1_revb_hello/freedom-metal/src/drivers/riscv_plic0.c:264
200171bc:	fe442783          	lw	a5,-28(s0)
/home/nicoladgg/wsFreedomStudio/sifive_hifive1_revb_hello/freedom-metal/src/drivers/riscv_plic0.c:265 (discriminator 1)
200171c0:	853e                	mv	a0,a5
200171c2:	50b2                	lw	ra,44(sp)
200171c4:	5422                	lw	s0,40(sp)
200171c6:	6145                	addi	sp,sp,48
200171c8:	8082                	ret

200171ca <__metal_driver_riscv_plic0_affinity_set_threshold>:
__metal_driver_riscv_plic0_affinity_set_threshold():
/home/nicoladgg/wsFreedomStudio/sifive_hifive1_revb_hello/freedom-metal/src/drivers/riscv_plic0.c:269
200171ca:	7179                	addi	sp,sp,-48
200171cc:	d606                	sw	ra,44(sp)
200171ce:	d422                	sw	s0,40(sp)
200171d0:	1800                	addi	s0,sp,48
200171d2:	fca42e23          	sw	a0,-36(s0)
200171d6:	fcb42c23          	sw	a1,-40(s0)
200171da:	fcc42a23          	sw	a2,-44(s0)
/home/nicoladgg/wsFreedomStudio/sifive_hifive1_revb_hello/freedom-metal/src/drivers/riscv_plic0.c:270
200171de:	fe042423          	sw	zero,-24(s0)
/home/nicoladgg/wsFreedomStudio/sifive_hifive1_revb_hello/freedom-metal/src/drivers/riscv_plic0.c:273
200171e2:	fe042623          	sw	zero,-20(s0)
200171e6:	a091                	j	2001722a <__metal_driver_riscv_plic0_affinity_set_threshold+0x60>
/home/nicoladgg/wsFreedomStudio/sifive_hifive1_revb_hello/freedom-metal/src/drivers/riscv_plic0.c:274
200171e8:	fec42783          	lw	a5,-20(s0)
200171ec:	c78d                	beqz	a5,20017216 <__metal_driver_riscv_plic0_affinity_set_threshold+0x4c>
/home/nicoladgg/wsFreedomStudio/sifive_hifive1_revb_hello/freedom-metal/src/drivers/riscv_plic0.c:275
200171ee:	fd442603          	lw	a2,-44(s0)
200171f2:	fec42583          	lw	a1,-20(s0)
200171f6:	fdc42503          	lw	a0,-36(s0)
200171fa:	911ff0ef          	jal	ra,20016b0a <__metal_plic0_set_threshold>
200171fe:	87aa                	mv	a5,a0
20017200:	0017f713          	andi	a4,a5,1
20017204:	fec42783          	lw	a5,-20(s0)
20017208:	00f71733          	sll	a4,a4,a5
2001720c:	fe842783          	lw	a5,-24(s0)
20017210:	8fd9                	or	a5,a5,a4
20017212:	fef42423          	sw	a5,-24(s0)
/home/nicoladgg/wsFreedomStudio/sifive_hifive1_revb_hello/freedom-metal/src/drivers/riscv_plic0.c:273 (discriminator 2)
20017216:	fec42783          	lw	a5,-20(s0)
2001721a:	0785                	addi	a5,a5,1
2001721c:	fef42623          	sw	a5,-20(s0)
20017220:	fd842783          	lw	a5,-40(s0)
20017224:	8385                	srli	a5,a5,0x1
20017226:	fcf42c23          	sw	a5,-40(s0)
/home/nicoladgg/wsFreedomStudio/sifive_hifive1_revb_hello/freedom-metal/src/drivers/riscv_plic0.c:273 (discriminator 1)
2001722a:	fd842783          	lw	a5,-40(s0)
2001722e:	ffcd                	bnez	a5,200171e8 <__metal_driver_riscv_plic0_affinity_set_threshold+0x1e>
/home/nicoladgg/wsFreedomStudio/sifive_hifive1_revb_hello/freedom-metal/src/drivers/riscv_plic0.c:280
20017230:	fe842783          	lw	a5,-24(s0)
/home/nicoladgg/wsFreedomStudio/sifive_hifive1_revb_hello/freedom-metal/src/drivers/riscv_plic0.c:281
20017234:	853e                	mv	a0,a5
20017236:	50b2                	lw	ra,44(sp)
20017238:	5422                	lw	s0,40(sp)
2001723a:	6145                	addi	sp,sp,48
2001723c:	8082                	ret

2001723e <__metal_driver_riscv_plic0_affinity_get_threshold>:
__metal_driver_riscv_plic0_affinity_get_threshold():
/home/nicoladgg/wsFreedomStudio/sifive_hifive1_revb_hello/freedom-metal/src/drivers/riscv_plic0.c:284
2001723e:	1101                	addi	sp,sp,-32
20017240:	ce06                	sw	ra,28(sp)
20017242:	cc22                	sw	s0,24(sp)
20017244:	1000                	addi	s0,sp,32
20017246:	fea42623          	sw	a0,-20(s0)
2001724a:	feb42423          	sw	a1,-24(s0)
/home/nicoladgg/wsFreedomStudio/sifive_hifive1_revb_hello/freedom-metal/src/drivers/riscv_plic0.c:285
2001724e:	fe842583          	lw	a1,-24(s0)
20017252:	fec42503          	lw	a0,-20(s0)
20017256:	8fbff0ef          	jal	ra,20016b50 <__metal_plic0_get_threshold>
/home/nicoladgg/wsFreedomStudio/sifive_hifive1_revb_hello/freedom-metal/src/drivers/riscv_plic0.c:286
2001725a:	4781                	li	a5,0
/home/nicoladgg/wsFreedomStudio/sifive_hifive1_revb_hello/freedom-metal/src/drivers/riscv_plic0.c:287
2001725c:	853e                	mv	a0,a5
2001725e:	40f2                	lw	ra,28(sp)
20017260:	4462                	lw	s0,24(sp)
20017262:	6105                	addi	sp,sp,32
20017264:	8082                	ret

20017266 <__metal_driver_sifive_fe310_g000_hfrosc_ref>:
__metal_driver_sifive_fe310_g000_hfrosc_ref():
/home/nicoladgg/wsFreedomStudio/sifive_hifive1_revb_hello/bsp/build/debug/./metal/machine.h:1242
20017266:	1101                	addi	sp,sp,-32
20017268:	ce22                	sw	s0,28(sp)
2001726a:	1000                	addi	s0,sp,32
2001726c:	fea42623          	sw	a0,-20(s0)
/home/nicoladgg/wsFreedomStudio/sifive_hifive1_revb_hello/bsp/build/debug/./metal/machine.h:1243
20017270:	800007b7          	lui	a5,0x80000
20017274:	06c78793          	addi	a5,a5,108 # 8000006c <metal_segment_heap_target_end+0xffffe68c>
/home/nicoladgg/wsFreedomStudio/sifive_hifive1_revb_hello/bsp/build/debug/./metal/machine.h:1244
20017278:	853e                	mv	a0,a5
2001727a:	4472                	lw	s0,28(sp)
2001727c:	6105                	addi	sp,sp,32
2001727e:	8082                	ret

20017280 <__metal_driver_sifive_fe310_g000_hfrosc_config_base>:
__metal_driver_sifive_fe310_g000_hfrosc_config_base():
/home/nicoladgg/wsFreedomStudio/sifive_hifive1_revb_hello/bsp/build/debug/./metal/machine.h:1247
20017280:	1101                	addi	sp,sp,-32
20017282:	ce22                	sw	s0,28(sp)
20017284:	1000                	addi	s0,sp,32
20017286:	fea42623          	sw	a0,-20(s0)
/home/nicoladgg/wsFreedomStudio/sifive_hifive1_revb_hello/bsp/build/debug/./metal/machine.h:1248
2001728a:	82418793          	addi	a5,gp,-2012 # 80000ac4 <__metal_dt_prci_10008000>
/home/nicoladgg/wsFreedomStudio/sifive_hifive1_revb_hello/bsp/build/debug/./metal/machine.h:1249
2001728e:	853e                	mv	a0,a5
20017290:	4472                	lw	s0,28(sp)
20017292:	6105                	addi	sp,sp,32
20017294:	8082                	ret

20017296 <__metal_driver_sifive_fe310_g000_hfrosc_config_offset>:
__metal_driver_sifive_fe310_g000_hfrosc_config_offset():
/home/nicoladgg/wsFreedomStudio/sifive_hifive1_revb_hello/bsp/build/debug/./metal/machine.h:1257
20017296:	1101                	addi	sp,sp,-32
20017298:	ce22                	sw	s0,28(sp)
2001729a:	1000                	addi	s0,sp,32
2001729c:	fea42623          	sw	a0,-20(s0)
/home/nicoladgg/wsFreedomStudio/sifive_hifive1_revb_hello/bsp/build/debug/./metal/machine.h:1258
200172a0:	4781                	li	a5,0
/home/nicoladgg/wsFreedomStudio/sifive_hifive1_revb_hello/bsp/build/debug/./metal/machine.h:1259
200172a2:	853e                	mv	a0,a5
200172a4:	4472                	lw	s0,28(sp)
200172a6:	6105                	addi	sp,sp,32
200172a8:	8082                	ret

200172aa <__metal_driver_sifive_fe310_g000_prci_vtable>:
__metal_driver_sifive_fe310_g000_prci_vtable():
/home/nicoladgg/wsFreedomStudio/sifive_hifive1_revb_hello/bsp/build/debug/./metal/machine.h:1374
200172aa:	1141                	addi	sp,sp,-16
200172ac:	c622                	sw	s0,12(sp)
200172ae:	0800                	addi	s0,sp,16
/home/nicoladgg/wsFreedomStudio/sifive_hifive1_revb_hello/bsp/build/debug/./metal/machine.h:1375
200172b0:	200117b7          	lui	a5,0x20011
200172b4:	19c78793          	addi	a5,a5,412 # 2001119c <__metal_driver_vtable_sifive_fe310_g000_prci>
/home/nicoladgg/wsFreedomStudio/sifive_hifive1_revb_hello/bsp/build/debug/./metal/machine.h:1376
200172b8:	853e                	mv	a0,a5
200172ba:	4432                	lw	s0,12(sp)
200172bc:	0141                	addi	sp,sp,16
200172be:	8082                	ret

200172c0 <__metal_driver_sifive_fe310_g000_hfrosc_get_rate_hz>:
__metal_driver_sifive_fe310_g000_hfrosc_get_rate_hz():
/home/nicoladgg/wsFreedomStudio/sifive_hifive1_revb_hello/freedom-metal/src/drivers/sifive_fe310-g000_hfrosc.c:17
200172c0:	7139                	addi	sp,sp,-64
200172c2:	de06                	sw	ra,60(sp)
200172c4:	dc22                	sw	s0,56(sp)
200172c6:	0080                	addi	s0,sp,64
200172c8:	fca42623          	sw	a0,-52(s0)
/home/nicoladgg/wsFreedomStudio/sifive_hifive1_revb_hello/freedom-metal/src/drivers/sifive_fe310-g000_hfrosc.c:19
200172cc:	fcc42503          	lw	a0,-52(s0)
200172d0:	3f59                	jal	20017266 <__metal_driver_sifive_fe310_g000_hfrosc_ref>
200172d2:	fea42623          	sw	a0,-20(s0)
/home/nicoladgg/wsFreedomStudio/sifive_hifive1_revb_hello/freedom-metal/src/drivers/sifive_fe310-g000_hfrosc.c:21
200172d6:	fcc42503          	lw	a0,-52(s0)
200172da:	3f75                	jal	20017296 <__metal_driver_sifive_fe310_g000_hfrosc_config_offset>
200172dc:	fea42423          	sw	a0,-24(s0)
/home/nicoladgg/wsFreedomStudio/sifive_hifive1_revb_hello/freedom-metal/src/drivers/sifive_fe310-g000_hfrosc.c:23
200172e0:	fcc42503          	lw	a0,-52(s0)
200172e4:	3f71                	jal	20017280 <__metal_driver_sifive_fe310_g000_hfrosc_config_base>
200172e6:	fea42223          	sw	a0,-28(s0)
/home/nicoladgg/wsFreedomStudio/sifive_hifive1_revb_hello/freedom-metal/src/drivers/sifive_fe310-g000_hfrosc.c:25
200172ea:	37c1                	jal	200172aa <__metal_driver_sifive_fe310_g000_prci_vtable>
200172ec:	fea42023          	sw	a0,-32(s0)
/home/nicoladgg/wsFreedomStudio/sifive_hifive1_revb_hello/freedom-metal/src/drivers/sifive_fe310-g000_hfrosc.c:26
200172f0:	fe042783          	lw	a5,-32(s0)
200172f4:	439c                	lw	a5,0(a5)
200172f6:	fe842583          	lw	a1,-24(s0)
200172fa:	fe442503          	lw	a0,-28(s0)
200172fe:	9782                	jalr	a5
20017300:	fca42e23          	sw	a0,-36(s0)
/home/nicoladgg/wsFreedomStudio/sifive_hifive1_revb_hello/freedom-metal/src/drivers/sifive_fe310-g000_hfrosc.c:28
20017304:	fdc42703          	lw	a4,-36(s0)
20017308:	400007b7          	lui	a5,0x40000
2001730c:	8ff9                	and	a5,a5,a4
2001730e:	e399                	bnez	a5,20017314 <__metal_driver_sifive_fe310_g000_hfrosc_get_rate_hz+0x54>
/home/nicoladgg/wsFreedomStudio/sifive_hifive1_revb_hello/freedom-metal/src/drivers/sifive_fe310-g000_hfrosc.c:29
20017310:	57fd                	li	a5,-1
20017312:	a025                	j	2001733a <__metal_driver_sifive_fe310_g000_hfrosc_get_rate_hz+0x7a>
/home/nicoladgg/wsFreedomStudio/sifive_hifive1_revb_hello/freedom-metal/src/drivers/sifive_fe310-g000_hfrosc.c:30
20017314:	fdc42783          	lw	a5,-36(s0)
20017318:	0007c463          	bltz	a5,20017320 <__metal_driver_sifive_fe310_g000_hfrosc_get_rate_hz+0x60>
/home/nicoladgg/wsFreedomStudio/sifive_hifive1_revb_hello/freedom-metal/src/drivers/sifive_fe310-g000_hfrosc.c:31
2001731c:	57fd                	li	a5,-1
2001731e:	a831                	j	2001733a <__metal_driver_sifive_fe310_g000_hfrosc_get_rate_hz+0x7a>
/home/nicoladgg/wsFreedomStudio/sifive_hifive1_revb_hello/freedom-metal/src/drivers/sifive_fe310-g000_hfrosc.c:32
20017320:	fec42503          	lw	a0,-20(s0)
20017324:	2bd010ef          	jal	ra,20018de0 <metal_clock_get_rate_hz>
20017328:	87aa                	mv	a5,a0
2001732a:	873e                	mv	a4,a5
2001732c:	fdc42783          	lw	a5,-36(s0)
20017330:	03f7f793          	andi	a5,a5,63
20017334:	0785                	addi	a5,a5,1
20017336:	02f757b3          	divu	a5,a4,a5
/home/nicoladgg/wsFreedomStudio/sifive_hifive1_revb_hello/freedom-metal/src/drivers/sifive_fe310-g000_hfrosc.c:33
2001733a:	853e                	mv	a0,a5
2001733c:	50f2                	lw	ra,60(sp)
2001733e:	5462                	lw	s0,56(sp)
20017340:	6121                	addi	sp,sp,64
20017342:	8082                	ret

20017344 <__metal_driver_sifive_fe310_g000_hfrosc_set_rate_hz>:
__metal_driver_sifive_fe310_g000_hfrosc_set_rate_hz():
/home/nicoladgg/wsFreedomStudio/sifive_hifive1_revb_hello/freedom-metal/src/drivers/sifive_fe310-g000_hfrosc.c:36
20017344:	1101                	addi	sp,sp,-32
20017346:	ce06                	sw	ra,28(sp)
20017348:	cc22                	sw	s0,24(sp)
2001734a:	1000                	addi	s0,sp,32
2001734c:	fea42623          	sw	a0,-20(s0)
20017350:	feb42423          	sw	a1,-24(s0)
/home/nicoladgg/wsFreedomStudio/sifive_hifive1_revb_hello/freedom-metal/src/drivers/sifive_fe310-g000_hfrosc.c:37
20017354:	fec42503          	lw	a0,-20(s0)
20017358:	37a5                	jal	200172c0 <__metal_driver_sifive_fe310_g000_hfrosc_get_rate_hz>
2001735a:	87aa                	mv	a5,a0
/home/nicoladgg/wsFreedomStudio/sifive_hifive1_revb_hello/freedom-metal/src/drivers/sifive_fe310-g000_hfrosc.c:38
2001735c:	853e                	mv	a0,a5
2001735e:	40f2                	lw	ra,28(sp)
20017360:	4462                	lw	s0,24(sp)
20017362:	6105                	addi	sp,sp,32
20017364:	8082                	ret

20017366 <__metal_driver_sifive_fe310_g000_hfxosc_ref>:
__metal_driver_sifive_fe310_g000_hfxosc_ref():
/home/nicoladgg/wsFreedomStudio/sifive_hifive1_revb_hello/bsp/build/debug/./metal/machine.h:1265
20017366:	1101                	addi	sp,sp,-32
20017368:	ce22                	sw	s0,28(sp)
2001736a:	1000                	addi	s0,sp,32
2001736c:	fea42623          	sw	a0,-20(s0)
/home/nicoladgg/wsFreedomStudio/sifive_hifive1_revb_hello/bsp/build/debug/./metal/machine.h:1266
20017370:	800007b7          	lui	a5,0x80000
20017374:	06078793          	addi	a5,a5,96 # 80000060 <metal_segment_heap_target_end+0xffffe680>
/home/nicoladgg/wsFreedomStudio/sifive_hifive1_revb_hello/bsp/build/debug/./metal/machine.h:1267
20017378:	853e                	mv	a0,a5
2001737a:	4472                	lw	s0,28(sp)
2001737c:	6105                	addi	sp,sp,32
2001737e:	8082                	ret

20017380 <__metal_driver_sifive_fe310_g000_hfxosc_config_base>:
__metal_driver_sifive_fe310_g000_hfxosc_config_base():
/home/nicoladgg/wsFreedomStudio/sifive_hifive1_revb_hello/bsp/build/debug/./metal/machine.h:1270
20017380:	1101                	addi	sp,sp,-32
20017382:	ce22                	sw	s0,28(sp)
20017384:	1000                	addi	s0,sp,32
20017386:	fea42623          	sw	a0,-20(s0)
/home/nicoladgg/wsFreedomStudio/sifive_hifive1_revb_hello/bsp/build/debug/./metal/machine.h:1271
2001738a:	82418793          	addi	a5,gp,-2012 # 80000ac4 <__metal_dt_prci_10008000>
/home/nicoladgg/wsFreedomStudio/sifive_hifive1_revb_hello/bsp/build/debug/./metal/machine.h:1272
2001738e:	853e                	mv	a0,a5
20017390:	4472                	lw	s0,28(sp)
20017392:	6105                	addi	sp,sp,32
20017394:	8082                	ret

20017396 <__metal_driver_sifive_fe310_g000_hfxosc_config_offset>:
__metal_driver_sifive_fe310_g000_hfxosc_config_offset():
/home/nicoladgg/wsFreedomStudio/sifive_hifive1_revb_hello/bsp/build/debug/./metal/machine.h:1275
20017396:	1101                	addi	sp,sp,-32
20017398:	ce22                	sw	s0,28(sp)
2001739a:	1000                	addi	s0,sp,32
2001739c:	fea42623          	sw	a0,-20(s0)
/home/nicoladgg/wsFreedomStudio/sifive_hifive1_revb_hello/bsp/build/debug/./metal/machine.h:1276
200173a0:	4791                	li	a5,4
/home/nicoladgg/wsFreedomStudio/sifive_hifive1_revb_hello/bsp/build/debug/./metal/machine.h:1277
200173a2:	853e                	mv	a0,a5
200173a4:	4472                	lw	s0,28(sp)
200173a6:	6105                	addi	sp,sp,32
200173a8:	8082                	ret

200173aa <__metal_driver_sifive_fe310_g000_prci_vtable>:
__metal_driver_sifive_fe310_g000_prci_vtable():
/home/nicoladgg/wsFreedomStudio/sifive_hifive1_revb_hello/bsp/build/debug/./metal/machine.h:1374
200173aa:	1141                	addi	sp,sp,-16
200173ac:	c622                	sw	s0,12(sp)
200173ae:	0800                	addi	s0,sp,16
/home/nicoladgg/wsFreedomStudio/sifive_hifive1_revb_hello/bsp/build/debug/./metal/machine.h:1375
200173b0:	200117b7          	lui	a5,0x20011
200173b4:	19c78793          	addi	a5,a5,412 # 2001119c <__metal_driver_vtable_sifive_fe310_g000_prci>
/home/nicoladgg/wsFreedomStudio/sifive_hifive1_revb_hello/bsp/build/debug/./metal/machine.h:1376
200173b8:	853e                	mv	a0,a5
200173ba:	4432                	lw	s0,12(sp)
200173bc:	0141                	addi	sp,sp,16
200173be:	8082                	ret

200173c0 <__metal_driver_sifive_fe310_g000_hfxosc_get_rate_hz>:
__metal_driver_sifive_fe310_g000_hfxosc_get_rate_hz():
/home/nicoladgg/wsFreedomStudio/sifive_hifive1_revb_hello/freedom-metal/src/drivers/sifive_fe310-g000_hfxosc.c:15
200173c0:	7139                	addi	sp,sp,-64
200173c2:	de06                	sw	ra,60(sp)
200173c4:	dc22                	sw	s0,56(sp)
200173c6:	0080                	addi	s0,sp,64
200173c8:	fca42623          	sw	a0,-52(s0)
/home/nicoladgg/wsFreedomStudio/sifive_hifive1_revb_hello/freedom-metal/src/drivers/sifive_fe310-g000_hfxosc.c:17
200173cc:	fcc42503          	lw	a0,-52(s0)
200173d0:	3f59                	jal	20017366 <__metal_driver_sifive_fe310_g000_hfxosc_ref>
200173d2:	fea42623          	sw	a0,-20(s0)
/home/nicoladgg/wsFreedomStudio/sifive_hifive1_revb_hello/freedom-metal/src/drivers/sifive_fe310-g000_hfxosc.c:19
200173d6:	fcc42503          	lw	a0,-52(s0)
200173da:	3f75                	jal	20017396 <__metal_driver_sifive_fe310_g000_hfxosc_config_offset>
200173dc:	fea42423          	sw	a0,-24(s0)
/home/nicoladgg/wsFreedomStudio/sifive_hifive1_revb_hello/freedom-metal/src/drivers/sifive_fe310-g000_hfxosc.c:21
200173e0:	fcc42503          	lw	a0,-52(s0)
200173e4:	3f71                	jal	20017380 <__metal_driver_sifive_fe310_g000_hfxosc_config_base>
200173e6:	fea42223          	sw	a0,-28(s0)
/home/nicoladgg/wsFreedomStudio/sifive_hifive1_revb_hello/freedom-metal/src/drivers/sifive_fe310-g000_hfxosc.c:23
200173ea:	37c1                	jal	200173aa <__metal_driver_sifive_fe310_g000_prci_vtable>
200173ec:	fea42023          	sw	a0,-32(s0)
/home/nicoladgg/wsFreedomStudio/sifive_hifive1_revb_hello/freedom-metal/src/drivers/sifive_fe310-g000_hfxosc.c:24
200173f0:	fe042783          	lw	a5,-32(s0)
200173f4:	439c                	lw	a5,0(a5)
200173f6:	fe842583          	lw	a1,-24(s0)
200173fa:	fe442503          	lw	a0,-28(s0)
200173fe:	9782                	jalr	a5
20017400:	fca42e23          	sw	a0,-36(s0)
/home/nicoladgg/wsFreedomStudio/sifive_hifive1_revb_hello/freedom-metal/src/drivers/sifive_fe310-g000_hfxosc.c:26
20017404:	fdc42703          	lw	a4,-36(s0)
20017408:	400007b7          	lui	a5,0x40000
2001740c:	8ff9                	and	a5,a5,a4
2001740e:	e399                	bnez	a5,20017414 <__metal_driver_sifive_fe310_g000_hfxosc_get_rate_hz+0x54>
/home/nicoladgg/wsFreedomStudio/sifive_hifive1_revb_hello/freedom-metal/src/drivers/sifive_fe310-g000_hfxosc.c:27
20017410:	57fd                	li	a5,-1
20017412:	a821                	j	2001742a <__metal_driver_sifive_fe310_g000_hfxosc_get_rate_hz+0x6a>
/home/nicoladgg/wsFreedomStudio/sifive_hifive1_revb_hello/freedom-metal/src/drivers/sifive_fe310-g000_hfxosc.c:28
20017414:	fdc42783          	lw	a5,-36(s0)
20017418:	0007c463          	bltz	a5,20017420 <__metal_driver_sifive_fe310_g000_hfxosc_get_rate_hz+0x60>
/home/nicoladgg/wsFreedomStudio/sifive_hifive1_revb_hello/freedom-metal/src/drivers/sifive_fe310-g000_hfxosc.c:29
2001741c:	57fd                	li	a5,-1
2001741e:	a031                	j	2001742a <__metal_driver_sifive_fe310_g000_hfxosc_get_rate_hz+0x6a>
/home/nicoladgg/wsFreedomStudio/sifive_hifive1_revb_hello/freedom-metal/src/drivers/sifive_fe310-g000_hfxosc.c:30
20017420:	fec42503          	lw	a0,-20(s0)
20017424:	1bd010ef          	jal	ra,20018de0 <metal_clock_get_rate_hz>
20017428:	87aa                	mv	a5,a0
/home/nicoladgg/wsFreedomStudio/sifive_hifive1_revb_hello/freedom-metal/src/drivers/sifive_fe310-g000_hfxosc.c:31
2001742a:	853e                	mv	a0,a5
2001742c:	50f2                	lw	ra,60(sp)
2001742e:	5462                	lw	s0,56(sp)
20017430:	6121                	addi	sp,sp,64
20017432:	8082                	ret

20017434 <__metal_driver_sifive_fe310_g000_hfxosc_set_rate_hz>:
__metal_driver_sifive_fe310_g000_hfxosc_set_rate_hz():
/home/nicoladgg/wsFreedomStudio/sifive_hifive1_revb_hello/freedom-metal/src/drivers/sifive_fe310-g000_hfxosc.c:34
20017434:	1101                	addi	sp,sp,-32
20017436:	ce06                	sw	ra,28(sp)
20017438:	cc22                	sw	s0,24(sp)
2001743a:	1000                	addi	s0,sp,32
2001743c:	fea42623          	sw	a0,-20(s0)
20017440:	feb42423          	sw	a1,-24(s0)
/home/nicoladgg/wsFreedomStudio/sifive_hifive1_revb_hello/freedom-metal/src/drivers/sifive_fe310-g000_hfxosc.c:35
20017444:	fec42503          	lw	a0,-20(s0)
20017448:	3fa5                	jal	200173c0 <__metal_driver_sifive_fe310_g000_hfxosc_get_rate_hz>
2001744a:	87aa                	mv	a5,a0
/home/nicoladgg/wsFreedomStudio/sifive_hifive1_revb_hello/freedom-metal/src/drivers/sifive_fe310-g000_hfxosc.c:36
2001744c:	853e                	mv	a0,a5
2001744e:	40f2                	lw	ra,28(sp)
20017450:	4462                	lw	s0,24(sp)
20017452:	6105                	addi	sp,sp,32
20017454:	8082                	ret

20017456 <__metal_driver_sifive_fe310_g000_pll_pllsel0>:
__metal_driver_sifive_fe310_g000_pll_pllsel0():
/home/nicoladgg/wsFreedomStudio/sifive_hifive1_revb_hello/bsp/build/debug/./metal/machine.h:1326
20017456:	1101                	addi	sp,sp,-32
20017458:	ce22                	sw	s0,28(sp)
2001745a:	1000                	addi	s0,sp,32
2001745c:	fea42623          	sw	a0,-20(s0)
/home/nicoladgg/wsFreedomStudio/sifive_hifive1_revb_hello/bsp/build/debug/./metal/machine.h:1327
20017460:	800017b7          	lui	a5,0x80001
20017464:	a7878793          	addi	a5,a5,-1416 # 80000a78 <metal_segment_heap_target_end+0xfffff098>
/home/nicoladgg/wsFreedomStudio/sifive_hifive1_revb_hello/bsp/build/debug/./metal/machine.h:1328
20017468:	853e                	mv	a0,a5
2001746a:	4472                	lw	s0,28(sp)
2001746c:	6105                	addi	sp,sp,32
2001746e:	8082                	ret

20017470 <__metal_driver_sifive_fe310_g000_pll_pllref>:
__metal_driver_sifive_fe310_g000_pll_pllref():
/home/nicoladgg/wsFreedomStudio/sifive_hifive1_revb_hello/bsp/build/debug/./metal/machine.h:1331
20017470:	1101                	addi	sp,sp,-32
20017472:	ce22                	sw	s0,28(sp)
20017474:	1000                	addi	s0,sp,32
20017476:	fea42623          	sw	a0,-20(s0)
/home/nicoladgg/wsFreedomStudio/sifive_hifive1_revb_hello/bsp/build/debug/./metal/machine.h:1332
2001747a:	800017b7          	lui	a5,0x80001
2001747e:	a8478793          	addi	a5,a5,-1404 # 80000a84 <metal_segment_heap_target_end+0xfffff0a4>
/home/nicoladgg/wsFreedomStudio/sifive_hifive1_revb_hello/bsp/build/debug/./metal/machine.h:1333
20017482:	853e                	mv	a0,a5
20017484:	4472                	lw	s0,28(sp)
20017486:	6105                	addi	sp,sp,32
20017488:	8082                	ret

2001748a <__metal_driver_sifive_fe310_g000_pll_divider_base>:
__metal_driver_sifive_fe310_g000_pll_divider_base():
/home/nicoladgg/wsFreedomStudio/sifive_hifive1_revb_hello/bsp/build/debug/./metal/machine.h:1336
2001748a:	1101                	addi	sp,sp,-32
2001748c:	ce22                	sw	s0,28(sp)
2001748e:	1000                	addi	s0,sp,32
20017490:	fea42623          	sw	a0,-20(s0)
/home/nicoladgg/wsFreedomStudio/sifive_hifive1_revb_hello/bsp/build/debug/./metal/machine.h:1337
20017494:	82418793          	addi	a5,gp,-2012 # 80000ac4 <__metal_dt_prci_10008000>
/home/nicoladgg/wsFreedomStudio/sifive_hifive1_revb_hello/bsp/build/debug/./metal/machine.h:1338
20017498:	853e                	mv	a0,a5
2001749a:	4472                	lw	s0,28(sp)
2001749c:	6105                	addi	sp,sp,32
2001749e:	8082                	ret

200174a0 <__metal_driver_sifive_fe310_g000_pll_divider_offset>:
__metal_driver_sifive_fe310_g000_pll_divider_offset():
/home/nicoladgg/wsFreedomStudio/sifive_hifive1_revb_hello/bsp/build/debug/./metal/machine.h:1341
200174a0:	1101                	addi	sp,sp,-32
200174a2:	ce22                	sw	s0,28(sp)
200174a4:	1000                	addi	s0,sp,32
200174a6:	fea42623          	sw	a0,-20(s0)
/home/nicoladgg/wsFreedomStudio/sifive_hifive1_revb_hello/bsp/build/debug/./metal/machine.h:1342
200174aa:	47b1                	li	a5,12
/home/nicoladgg/wsFreedomStudio/sifive_hifive1_revb_hello/bsp/build/debug/./metal/machine.h:1343
200174ac:	853e                	mv	a0,a5
200174ae:	4472                	lw	s0,28(sp)
200174b0:	6105                	addi	sp,sp,32
200174b2:	8082                	ret

200174b4 <__metal_driver_sifive_fe310_g000_pll_config_base>:
__metal_driver_sifive_fe310_g000_pll_config_base():
/home/nicoladgg/wsFreedomStudio/sifive_hifive1_revb_hello/bsp/build/debug/./metal/machine.h:1346
200174b4:	1141                	addi	sp,sp,-16
200174b6:	c622                	sw	s0,12(sp)
200174b8:	0800                	addi	s0,sp,16
/home/nicoladgg/wsFreedomStudio/sifive_hifive1_revb_hello/bsp/build/debug/./metal/machine.h:1347
200174ba:	82418793          	addi	a5,gp,-2012 # 80000ac4 <__metal_dt_prci_10008000>
/home/nicoladgg/wsFreedomStudio/sifive_hifive1_revb_hello/bsp/build/debug/./metal/machine.h:1348
200174be:	853e                	mv	a0,a5
200174c0:	4432                	lw	s0,12(sp)
200174c2:	0141                	addi	sp,sp,16
200174c4:	8082                	ret

200174c6 <__metal_driver_sifive_fe310_g000_pll_config_offset>:
__metal_driver_sifive_fe310_g000_pll_config_offset():
/home/nicoladgg/wsFreedomStudio/sifive_hifive1_revb_hello/bsp/build/debug/./metal/machine.h:1351
200174c6:	1141                	addi	sp,sp,-16
200174c8:	c622                	sw	s0,12(sp)
200174ca:	0800                	addi	s0,sp,16
/home/nicoladgg/wsFreedomStudio/sifive_hifive1_revb_hello/bsp/build/debug/./metal/machine.h:1352
200174cc:	47a1                	li	a5,8
/home/nicoladgg/wsFreedomStudio/sifive_hifive1_revb_hello/bsp/build/debug/./metal/machine.h:1353
200174ce:	853e                	mv	a0,a5
200174d0:	4432                	lw	s0,12(sp)
200174d2:	0141                	addi	sp,sp,16
200174d4:	8082                	ret

200174d6 <__metal_driver_sifive_fe310_g000_pll_init_rate>:
__metal_driver_sifive_fe310_g000_pll_init_rate():
/home/nicoladgg/wsFreedomStudio/sifive_hifive1_revb_hello/bsp/build/debug/./metal/machine.h:1356
200174d6:	1141                	addi	sp,sp,-16
200174d8:	c622                	sw	s0,12(sp)
200174da:	0800                	addi	s0,sp,16
/home/nicoladgg/wsFreedomStudio/sifive_hifive1_revb_hello/bsp/build/debug/./metal/machine.h:1357
200174dc:	00f427b7          	lui	a5,0xf42
200174e0:	40078793          	addi	a5,a5,1024 # f42400 <__heap_size+0xf41c00>
/home/nicoladgg/wsFreedomStudio/sifive_hifive1_revb_hello/bsp/build/debug/./metal/machine.h:1358
200174e4:	853e                	mv	a0,a5
200174e6:	4432                	lw	s0,12(sp)
200174e8:	0141                	addi	sp,sp,16
200174ea:	8082                	ret

200174ec <__metal_driver_sifive_fe310_g000_prci_base>:
__metal_driver_sifive_fe310_g000_prci_base():
/home/nicoladgg/wsFreedomStudio/sifive_hifive1_revb_hello/bsp/build/debug/./metal/machine.h:1364
200174ec:	1141                	addi	sp,sp,-16
200174ee:	c622                	sw	s0,12(sp)
200174f0:	0800                	addi	s0,sp,16
/home/nicoladgg/wsFreedomStudio/sifive_hifive1_revb_hello/bsp/build/debug/./metal/machine.h:1365
200174f2:	100087b7          	lui	a5,0x10008
/home/nicoladgg/wsFreedomStudio/sifive_hifive1_revb_hello/bsp/build/debug/./metal/machine.h:1366
200174f6:	853e                	mv	a0,a5
200174f8:	4432                	lw	s0,12(sp)
200174fa:	0141                	addi	sp,sp,16
200174fc:	8082                	ret

200174fe <__metal_driver_sifive_fe310_g000_prci_vtable>:
__metal_driver_sifive_fe310_g000_prci_vtable():
/home/nicoladgg/wsFreedomStudio/sifive_hifive1_revb_hello/bsp/build/debug/./metal/machine.h:1374
200174fe:	1141                	addi	sp,sp,-16
20017500:	c622                	sw	s0,12(sp)
20017502:	0800                	addi	s0,sp,16
/home/nicoladgg/wsFreedomStudio/sifive_hifive1_revb_hello/bsp/build/debug/./metal/machine.h:1375
20017504:	200117b7          	lui	a5,0x20011
20017508:	19c78793          	addi	a5,a5,412 # 2001119c <__metal_driver_vtable_sifive_fe310_g000_prci>
/home/nicoladgg/wsFreedomStudio/sifive_hifive1_revb_hello/bsp/build/debug/./metal/machine.h:1376
2001750c:	853e                	mv	a0,a5
2001750e:	4432                	lw	s0,12(sp)
20017510:	0141                	addi	sp,sp,16
20017512:	8082                	ret

20017514 <get_pll_config_freq>:
get_pll_config_freq():
/home/nicoladgg/wsFreedomStudio/sifive_hifive1_revb_hello/freedom-metal/src/drivers/sifive_fe310-g000_pll.c:141
20017514:	1101                	addi	sp,sp,-32
20017516:	ce22                	sw	s0,28(sp)
20017518:	1000                	addi	s0,sp,32
2001751a:	fea42623          	sw	a0,-20(s0)
2001751e:	feb42423          	sw	a1,-24(s0)
/home/nicoladgg/wsFreedomStudio/sifive_hifive1_revb_hello/freedom-metal/src/drivers/sifive_fe310-g000_pll.c:142
20017522:	fe842783          	lw	a5,-24(s0)
20017526:	479c                	lw	a5,8(a5)
20017528:	fec42703          	lw	a4,-20(s0)
2001752c:	00f76963          	bltu	a4,a5,2001753e <get_pll_config_freq+0x2a>
/home/nicoladgg/wsFreedomStudio/sifive_hifive1_revb_hello/freedom-metal/src/drivers/sifive_fe310-g000_pll.c:143 (discriminator 1)
20017530:	fe842783          	lw	a5,-24(s0)
20017534:	47dc                	lw	a5,12(a5)
/home/nicoladgg/wsFreedomStudio/sifive_hifive1_revb_hello/freedom-metal/src/drivers/sifive_fe310-g000_pll.c:142 (discriminator 1)
20017536:	fec42703          	lw	a4,-20(s0)
2001753a:	00e7f463          	bgeu	a5,a4,20017542 <get_pll_config_freq+0x2e>
/home/nicoladgg/wsFreedomStudio/sifive_hifive1_revb_hello/freedom-metal/src/drivers/sifive_fe310-g000_pll.c:144
2001753e:	57fd                	li	a5,-1
20017540:	a829                	j	2001755a <get_pll_config_freq+0x46>
/home/nicoladgg/wsFreedomStudio/sifive_hifive1_revb_hello/freedom-metal/src/drivers/sifive_fe310-g000_pll.c:146
20017542:	fe842783          	lw	a5,-24(s0)
20017546:	4398                	lw	a4,0(a5)
20017548:	fec42783          	lw	a5,-20(s0)
2001754c:	02f70733          	mul	a4,a4,a5
20017550:	fe842783          	lw	a5,-24(s0)
20017554:	43dc                	lw	a5,4(a5)
20017556:	02f757b3          	divu	a5,a4,a5
/home/nicoladgg/wsFreedomStudio/sifive_hifive1_revb_hello/freedom-metal/src/drivers/sifive_fe310-g000_pll.c:147
2001755a:	853e                	mv	a0,a5
2001755c:	4472                	lw	s0,28(sp)
2001755e:	6105                	addi	sp,sp,32
20017560:	8082                	ret

20017562 <__metal_driver_sifive_fe310_g000_pll_init>:
__metal_driver_sifive_fe310_g000_pll_init():
/home/nicoladgg/wsFreedomStudio/sifive_hifive1_revb_hello/freedom-metal/src/drivers/sifive_fe310-g000_pll.c:162
20017562:	7139                	addi	sp,sp,-64
20017564:	de06                	sw	ra,60(sp)
20017566:	dc22                	sw	s0,56(sp)
20017568:	0080                	addi	s0,sp,64
2001756a:	fca42623          	sw	a0,-52(s0)
/home/nicoladgg/wsFreedomStudio/sifive_hifive1_revb_hello/freedom-metal/src/drivers/sifive_fe310-g000_pll.c:164
2001756e:	fcc42783          	lw	a5,-52(s0)
20017572:	853e                	mv	a0,a5
20017574:	3df5                	jal	20017470 <__metal_driver_sifive_fe310_g000_pll_pllref>
20017576:	fea42623          	sw	a0,-20(s0)
/home/nicoladgg/wsFreedomStudio/sifive_hifive1_revb_hello/freedom-metal/src/drivers/sifive_fe310-g000_pll.c:165
2001757a:	3fb1                	jal	200174d6 <__metal_driver_sifive_fe310_g000_pll_init_rate>
2001757c:	fea42423          	sw	a0,-24(s0)
/home/nicoladgg/wsFreedomStudio/sifive_hifive1_revb_hello/freedom-metal/src/drivers/sifive_fe310-g000_pll.c:166
20017580:	3799                	jal	200174c6 <__metal_driver_sifive_fe310_g000_pll_config_offset>
20017582:	fea42223          	sw	a0,-28(s0)
/home/nicoladgg/wsFreedomStudio/sifive_hifive1_revb_hello/freedom-metal/src/drivers/sifive_fe310-g000_pll.c:167
20017586:	379d                	jal	200174ec <__metal_driver_sifive_fe310_g000_prci_base>
20017588:	fea42023          	sw	a0,-32(s0)
/home/nicoladgg/wsFreedomStudio/sifive_hifive1_revb_hello/freedom-metal/src/drivers/sifive_fe310-g000_pll.c:169
2001758c:	fe042703          	lw	a4,-32(s0)
20017590:	fe442783          	lw	a5,-28(s0)
20017594:	97ba                	add	a5,a5,a4
20017596:	fcf42e23          	sw	a5,-36(s0)
/home/nicoladgg/wsFreedomStudio/sifive_hifive1_revb_hello/freedom-metal/src/drivers/sifive_fe310-g000_pll.c:173
2001759a:	fcc42783          	lw	a5,-52(s0)
2001759e:	43dc                	lw	a5,4(a5)
200175a0:	853e                	mv	a0,a5
200175a2:	7a8010ef          	jal	ra,20018d4a <_metal_clock_call_all_callbacks>
/home/nicoladgg/wsFreedomStudio/sifive_hifive1_revb_hello/freedom-metal/src/drivers/sifive_fe310-g000_pll.c:177
200175a6:	fdc42783          	lw	a5,-36(s0)
200175aa:	4398                	lw	a4,0(a5)
200175ac:	67c1                	lui	a5,0x10
200175ae:	8ff9                	and	a5,a5,a4
200175b0:	cb91                	beqz	a5,200175c4 <__metal_driver_sifive_fe310_g000_pll_init+0x62>
/home/nicoladgg/wsFreedomStudio/sifive_hifive1_revb_hello/freedom-metal/src/drivers/sifive_fe310-g000_pll.c:178
200175b2:	fdc42783          	lw	a5,-36(s0)
200175b6:	4398                	lw	a4,0(a5)
200175b8:	77c1                	lui	a5,0xffff0
200175ba:	17fd                	addi	a5,a5,-1
200175bc:	8f7d                	and	a4,a4,a5
200175be:	fdc42783          	lw	a5,-36(s0)
200175c2:	c398                	sw	a4,0(a5)
/home/nicoladgg/wsFreedomStudio/sifive_hifive1_revb_hello/freedom-metal/src/drivers/sifive_fe310-g000_pll.c:181
200175c4:	fec42783          	lw	a5,-20(s0)
200175c8:	cb91                	beqz	a5,200175dc <__metal_driver_sifive_fe310_g000_pll_init+0x7a>
/home/nicoladgg/wsFreedomStudio/sifive_hifive1_revb_hello/freedom-metal/src/drivers/sifive_fe310-g000_pll.c:182
200175ca:	fdc42783          	lw	a5,-36(s0)
200175ce:	4398                	lw	a4,0(a5)
200175d0:	000207b7          	lui	a5,0x20
200175d4:	8f5d                	or	a4,a4,a5
200175d6:	fdc42783          	lw	a5,-36(s0)
200175da:	c398                	sw	a4,0(a5)
/home/nicoladgg/wsFreedomStudio/sifive_hifive1_revb_hello/freedom-metal/src/drivers/sifive_fe310-g000_pll.c:187
200175dc:	fcc42783          	lw	a5,-52(s0)
200175e0:	439c                	lw	a5,0(a5)
200175e2:	43d8                	lw	a4,4(a5)
200175e4:	fcc42783          	lw	a5,-52(s0)
200175e8:	fe842583          	lw	a1,-24(s0)
200175ec:	853e                	mv	a0,a5
200175ee:	9702                	jalr	a4
/home/nicoladgg/wsFreedomStudio/sifive_hifive1_revb_hello/freedom-metal/src/drivers/sifive_fe310-g000_pll.c:190
200175f0:	fcc42783          	lw	a5,-52(s0)
200175f4:	479c                	lw	a5,8(a5)
200175f6:	853e                	mv	a0,a5
200175f8:	752010ef          	jal	ra,20018d4a <_metal_clock_call_all_callbacks>
/home/nicoladgg/wsFreedomStudio/sifive_hifive1_revb_hello/freedom-metal/src/drivers/sifive_fe310-g000_pll.c:191
200175fc:	0001                	nop
200175fe:	50f2                	lw	ra,60(sp)
20017600:	5462                	lw	s0,56(sp)
20017602:	6121                	addi	sp,sp,64
20017604:	8082                	ret

20017606 <__metal_driver_sifive_fe310_g000_pll_get_rate_hz>:
__metal_driver_sifive_fe310_g000_pll_get_rate_hz():
/home/nicoladgg/wsFreedomStudio/sifive_hifive1_revb_hello/freedom-metal/src/drivers/sifive_fe310-g000_pll.c:194
20017606:	711d                	addi	sp,sp,-96
20017608:	ce86                	sw	ra,92(sp)
2001760a:	cca2                	sw	s0,88(sp)
2001760c:	1080                	addi	s0,sp,96
2001760e:	faa42623          	sw	a0,-84(s0)
/home/nicoladgg/wsFreedomStudio/sifive_hifive1_revb_hello/freedom-metal/src/drivers/sifive_fe310-g000_pll.c:196
20017612:	fac42503          	lw	a0,-84(s0)
20017616:	3da9                	jal	20017470 <__metal_driver_sifive_fe310_g000_pll_pllref>
20017618:	fea42623          	sw	a0,-20(s0)
/home/nicoladgg/wsFreedomStudio/sifive_hifive1_revb_hello/freedom-metal/src/drivers/sifive_fe310-g000_pll.c:198
2001761c:	fac42503          	lw	a0,-84(s0)
20017620:	3d1d                	jal	20017456 <__metal_driver_sifive_fe310_g000_pll_pllsel0>
20017622:	fea42423          	sw	a0,-24(s0)
/home/nicoladgg/wsFreedomStudio/sifive_hifive1_revb_hello/freedom-metal/src/drivers/sifive_fe310-g000_pll.c:200
20017626:	fac42503          	lw	a0,-84(s0)
2001762a:	3d71                	jal	200174c6 <__metal_driver_sifive_fe310_g000_pll_config_offset>
2001762c:	fea42223          	sw	a0,-28(s0)
/home/nicoladgg/wsFreedomStudio/sifive_hifive1_revb_hello/freedom-metal/src/drivers/sifive_fe310-g000_pll.c:202
20017630:	fac42503          	lw	a0,-84(s0)
20017634:	3541                	jal	200174b4 <__metal_driver_sifive_fe310_g000_pll_config_base>
20017636:	fea42023          	sw	a0,-32(s0)
/home/nicoladgg/wsFreedomStudio/sifive_hifive1_revb_hello/freedom-metal/src/drivers/sifive_fe310-g000_pll.c:204
2001763a:	fac42503          	lw	a0,-84(s0)
2001763e:	358d                	jal	200174a0 <__metal_driver_sifive_fe310_g000_pll_divider_offset>
20017640:	fca42e23          	sw	a0,-36(s0)
/home/nicoladgg/wsFreedomStudio/sifive_hifive1_revb_hello/freedom-metal/src/drivers/sifive_fe310-g000_pll.c:206
20017644:	fac42503          	lw	a0,-84(s0)
20017648:	3589                	jal	2001748a <__metal_driver_sifive_fe310_g000_pll_divider_base>
2001764a:	fca42c23          	sw	a0,-40(s0)
/home/nicoladgg/wsFreedomStudio/sifive_hifive1_revb_hello/freedom-metal/src/drivers/sifive_fe310-g000_pll.c:208
2001764e:	3d45                	jal	200174fe <__metal_driver_sifive_fe310_g000_prci_vtable>
20017650:	fca42a23          	sw	a0,-44(s0)
/home/nicoladgg/wsFreedomStudio/sifive_hifive1_revb_hello/freedom-metal/src/drivers/sifive_fe310-g000_pll.c:210
20017654:	fd442783          	lw	a5,-44(s0)
20017658:	439c                	lw	a5,0(a5)
2001765a:	fe442583          	lw	a1,-28(s0)
2001765e:	fe042503          	lw	a0,-32(s0)
20017662:	9782                	jalr	a5
20017664:	fca42823          	sw	a0,-48(s0)
/home/nicoladgg/wsFreedomStudio/sifive_hifive1_revb_hello/freedom-metal/src/drivers/sifive_fe310-g000_pll.c:211
20017668:	fd442783          	lw	a5,-44(s0)
2001766c:	439c                	lw	a5,0(a5)
2001766e:	fdc42583          	lw	a1,-36(s0)
20017672:	fd842503          	lw	a0,-40(s0)
20017676:	9782                	jalr	a5
20017678:	fca42623          	sw	a0,-52(s0)
/home/nicoladgg/wsFreedomStudio/sifive_hifive1_revb_hello/freedom-metal/src/drivers/sifive_fe310-g000_pll.c:215
2001767c:	fd042703          	lw	a4,-48(s0)
20017680:	67c1                	lui	a5,0x10
20017682:	8f7d                	and	a4,a4,a5
20017684:	67c1                	lui	a5,0x10
20017686:	00f77863          	bgeu	a4,a5,20017696 <__metal_driver_sifive_fe310_g000_pll_get_rate_hz+0x90>
/home/nicoladgg/wsFreedomStudio/sifive_hifive1_revb_hello/freedom-metal/src/drivers/sifive_fe310-g000_pll.c:216
2001768a:	fe842503          	lw	a0,-24(s0)
2001768e:	752010ef          	jal	ra,20018de0 <metal_clock_get_rate_hz>
20017692:	87aa                	mv	a5,a0
20017694:	a8e1                	j	2001776c <__metal_driver_sifive_fe310_g000_pll_get_rate_hz+0x166>
/home/nicoladgg/wsFreedomStudio/sifive_hifive1_revb_hello/freedom-metal/src/drivers/sifive_fe310-g000_pll.c:221
20017696:	fd042703          	lw	a4,-48(s0)
2001769a:	000207b7          	lui	a5,0x20
2001769e:	8f7d                	and	a4,a4,a5
/home/nicoladgg/wsFreedomStudio/sifive_hifive1_revb_hello/freedom-metal/src/drivers/sifive_fe310-g000_pll.c:220
200176a0:	000207b7          	lui	a5,0x20
200176a4:	00f76563          	bltu	a4,a5,200176ae <__metal_driver_sifive_fe310_g000_pll_get_rate_hz+0xa8>
/home/nicoladgg/wsFreedomStudio/sifive_hifive1_revb_hello/freedom-metal/src/drivers/sifive_fe310-g000_pll.c:220 (discriminator 1)
200176a8:	fec42783          	lw	a5,-20(s0)
200176ac:	a019                	j	200176b2 <__metal_driver_sifive_fe310_g000_pll_get_rate_hz+0xac>
/home/nicoladgg/wsFreedomStudio/sifive_hifive1_revb_hello/freedom-metal/src/drivers/sifive_fe310-g000_pll.c:220 (discriminator 2)
200176ae:	fe842783          	lw	a5,-24(s0)
/home/nicoladgg/wsFreedomStudio/sifive_hifive1_revb_hello/freedom-metal/src/drivers/sifive_fe310-g000_pll.c:220 (discriminator 4)
200176b2:	853e                	mv	a0,a5
200176b4:	72c010ef          	jal	ra,20018de0 <metal_clock_get_rate_hz>
200176b8:	fca42423          	sw	a0,-56(s0)
/home/nicoladgg/wsFreedomStudio/sifive_hifive1_revb_hello/freedom-metal/src/drivers/sifive_fe310-g000_pll.c:225 (discriminator 4)
200176bc:	fd042703          	lw	a4,-48(s0)
200176c0:	000407b7          	lui	a5,0x40
200176c4:	8f7d                	and	a4,a4,a5
200176c6:	000407b7          	lui	a5,0x40
200176ca:	00f76563          	bltu	a4,a5,200176d4 <__metal_driver_sifive_fe310_g000_pll_get_rate_hz+0xce>
/home/nicoladgg/wsFreedomStudio/sifive_hifive1_revb_hello/freedom-metal/src/drivers/sifive_fe310-g000_pll.c:226
200176ce:	fc842783          	lw	a5,-56(s0)
200176d2:	a869                	j	2001776c <__metal_driver_sifive_fe310_g000_pll_get_rate_hz+0x166>
/home/nicoladgg/wsFreedomStudio/sifive_hifive1_revb_hello/freedom-metal/src/drivers/sifive_fe310-g000_pll.c:229
200176d4:	fd042783          	lw	a5,-48(s0)
200176d8:	8b9d                	andi	a5,a5,7
200176da:	0785                	addi	a5,a5,1
200176dc:	fcf42223          	sw	a5,-60(s0)
/home/nicoladgg/wsFreedomStudio/sifive_hifive1_revb_hello/freedom-metal/src/drivers/sifive_fe310-g000_pll.c:230
200176e0:	fd042783          	lw	a5,-48(s0)
200176e4:	3f07f793          	andi	a5,a5,1008
200176e8:	8391                	srli	a5,a5,0x4
200176ea:	0785                	addi	a5,a5,1
200176ec:	0786                	slli	a5,a5,0x1
200176ee:	fcf42023          	sw	a5,-64(s0)
/home/nicoladgg/wsFreedomStudio/sifive_hifive1_revb_hello/freedom-metal/src/drivers/sifive_fe310-g000_pll.c:231
200176f2:	fd042703          	lw	a4,-48(s0)
200176f6:	6785                	lui	a5,0x1
200176f8:	c0078793          	addi	a5,a5,-1024 # c00 <__heap_size+0x400>
200176fc:	8f7d                	and	a4,a4,a5
200176fe:	3ff00793          	li	a5,1023
20017702:	00e7e463          	bltu	a5,a4,2001770a <__metal_driver_sifive_fe310_g000_pll_get_rate_hz+0x104>
/home/nicoladgg/wsFreedomStudio/sifive_hifive1_revb_hello/freedom-metal/src/drivers/sifive_fe310-g000_pll.c:232
20017706:	57fd                	li	a5,-1
20017708:	a095                	j	2001776c <__metal_driver_sifive_fe310_g000_pll_get_rate_hz+0x166>
/home/nicoladgg/wsFreedomStudio/sifive_hifive1_revb_hello/freedom-metal/src/drivers/sifive_fe310-g000_pll.c:233
2001770a:	fd042703          	lw	a4,-48(s0)
2001770e:	6785                	lui	a5,0x1
20017710:	c0078793          	addi	a5,a5,-1024 # c00 <__heap_size+0x400>
20017714:	8ff9                	and	a5,a5,a4
20017716:	83a9                	srli	a5,a5,0xa
20017718:	4705                	li	a4,1
2001771a:	00f717b3          	sll	a5,a4,a5
2001771e:	faf42e23          	sw	a5,-68(s0)
/home/nicoladgg/wsFreedomStudio/sifive_hifive1_revb_hello/freedom-metal/src/drivers/sifive_fe310-g000_pll.c:238
20017722:	fc842703          	lw	a4,-56(s0)
20017726:	fc442783          	lw	a5,-60(s0)
2001772a:	02f74733          	div	a4,a4,a5
2001772e:	fc042783          	lw	a5,-64(s0)
20017732:	02f70733          	mul	a4,a4,a5
20017736:	fbc42783          	lw	a5,-68(s0)
2001773a:	02f747b3          	div	a5,a4,a5
2001773e:	faf42c23          	sw	a5,-72(s0)
/home/nicoladgg/wsFreedomStudio/sifive_hifive1_revb_hello/freedom-metal/src/drivers/sifive_fe310-g000_pll.c:239
20017742:	fcc42783          	lw	a5,-52(s0)
20017746:	1007f713          	andi	a4,a5,256
2001774a:	0ff00793          	li	a5,255
2001774e:	00e7f563          	bgeu	a5,a4,20017758 <__metal_driver_sifive_fe310_g000_pll_get_rate_hz+0x152>
/home/nicoladgg/wsFreedomStudio/sifive_hifive1_revb_hello/freedom-metal/src/drivers/sifive_fe310-g000_pll.c:240
20017752:	fb842783          	lw	a5,-72(s0)
20017756:	a819                	j	2001776c <__metal_driver_sifive_fe310_g000_pll_get_rate_hz+0x166>
/home/nicoladgg/wsFreedomStudio/sifive_hifive1_revb_hello/freedom-metal/src/drivers/sifive_fe310-g000_pll.c:242
20017758:	fb842703          	lw	a4,-72(s0)
2001775c:	fcc42783          	lw	a5,-52(s0)
20017760:	03f7f793          	andi	a5,a5,63
20017764:	0785                	addi	a5,a5,1
20017766:	0786                	slli	a5,a5,0x1
20017768:	02f757b3          	divu	a5,a4,a5
/home/nicoladgg/wsFreedomStudio/sifive_hifive1_revb_hello/freedom-metal/src/drivers/sifive_fe310-g000_pll.c:243
2001776c:	853e                	mv	a0,a5
2001776e:	40f6                	lw	ra,92(sp)
20017770:	4466                	lw	s0,88(sp)
20017772:	6125                	addi	sp,sp,96
20017774:	8082                	ret

20017776 <find_closest_config>:
find_closest_config():
/home/nicoladgg/wsFreedomStudio/sifive_hifive1_revb_hello/freedom-metal/src/drivers/sifive_fe310-g000_pll.c:253
20017776:	7139                	addi	sp,sp,-64
20017778:	de06                	sw	ra,60(sp)
2001777a:	dc22                	sw	s0,56(sp)
2001777c:	0080                	addi	s0,sp,64
2001777e:	fca42623          	sw	a0,-52(s0)
20017782:	fcb42423          	sw	a1,-56(s0)
/home/nicoladgg/wsFreedomStudio/sifive_hifive1_revb_hello/freedom-metal/src/drivers/sifive_fe310-g000_pll.c:254
20017786:	57fd                	li	a5,-1
20017788:	fef42623          	sw	a5,-20(s0)
/home/nicoladgg/wsFreedomStudio/sifive_hifive1_revb_hello/freedom-metal/src/drivers/sifive_fe310-g000_pll.c:255
2001778c:	800007b7          	lui	a5,0x80000
20017790:	fff7c793          	not	a5,a5
20017794:	fef42423          	sw	a5,-24(s0)
/home/nicoladgg/wsFreedomStudio/sifive_hifive1_revb_hello/freedom-metal/src/drivers/sifive_fe310-g000_pll.c:259
20017798:	04300793          	li	a5,67
2001779c:	fef42223          	sw	a5,-28(s0)
200177a0:	a0b5                	j	2001780c <find_closest_config+0x96>
/home/nicoladgg/wsFreedomStudio/sifive_hifive1_revb_hello/freedom-metal/src/drivers/sifive_fe310-g000_pll.c:261
200177a2:	fcc42683          	lw	a3,-52(s0)
200177a6:	fe442783          	lw	a5,-28(s0)
200177aa:	00579713          	slli	a4,a5,0x5
200177ae:	200117b7          	lui	a5,0x20011
200177b2:	84078793          	addi	a5,a5,-1984 # 20010840 <pll_configs>
200177b6:	97ba                	add	a5,a5,a4
200177b8:	85be                	mv	a1,a5
200177ba:	8536                	mv	a0,a3
200177bc:	d59ff0ef          	jal	ra,20017514 <get_pll_config_freq>
200177c0:	fea42023          	sw	a0,-32(s0)
/home/nicoladgg/wsFreedomStudio/sifive_hifive1_revb_hello/freedom-metal/src/drivers/sifive_fe310-g000_pll.c:262
200177c4:	fe042703          	lw	a4,-32(s0)
200177c8:	57fd                	li	a5,-1
200177ca:	02f70c63          	beq	a4,a5,20017802 <find_closest_config+0x8c>
/home/nicoladgg/wsFreedomStudio/sifive_hifive1_revb_hello/freedom-metal/src/drivers/sifive_fe310-g000_pll.c:263
200177ce:	fe042703          	lw	a4,-32(s0)
200177d2:	fc842783          	lw	a5,-56(s0)
200177d6:	8f1d                	sub	a4,a4,a5
200177d8:	41f75793          	srai	a5,a4,0x1f
200177dc:	8f3d                	xor	a4,a4,a5
200177de:	40f707b3          	sub	a5,a4,a5
200177e2:	fcf42e23          	sw	a5,-36(s0)
/home/nicoladgg/wsFreedomStudio/sifive_hifive1_revb_hello/freedom-metal/src/drivers/sifive_fe310-g000_pll.c:265
200177e6:	fdc42703          	lw	a4,-36(s0)
200177ea:	fe842783          	lw	a5,-24(s0)
200177ee:	00f75a63          	bge	a4,a5,20017802 <find_closest_config+0x8c>
/home/nicoladgg/wsFreedomStudio/sifive_hifive1_revb_hello/freedom-metal/src/drivers/sifive_fe310-g000_pll.c:266
200177f2:	fe442783          	lw	a5,-28(s0)
200177f6:	fef42623          	sw	a5,-20(s0)
/home/nicoladgg/wsFreedomStudio/sifive_hifive1_revb_hello/freedom-metal/src/drivers/sifive_fe310-g000_pll.c:267
200177fa:	fdc42783          	lw	a5,-36(s0)
200177fe:	fef42423          	sw	a5,-24(s0)
/home/nicoladgg/wsFreedomStudio/sifive_hifive1_revb_hello/freedom-metal/src/drivers/sifive_fe310-g000_pll.c:260
20017802:	fe442783          	lw	a5,-28(s0)
20017806:	17fd                	addi	a5,a5,-1
20017808:	fef42223          	sw	a5,-28(s0)
/home/nicoladgg/wsFreedomStudio/sifive_hifive1_revb_hello/freedom-metal/src/drivers/sifive_fe310-g000_pll.c:259 (discriminator 1)
2001780c:	fe442783          	lw	a5,-28(s0)
20017810:	f807d9e3          	bgez	a5,200177a2 <find_closest_config+0x2c>
/home/nicoladgg/wsFreedomStudio/sifive_hifive1_revb_hello/freedom-metal/src/drivers/sifive_fe310-g000_pll.c:272
20017814:	fec42783          	lw	a5,-20(s0)
/home/nicoladgg/wsFreedomStudio/sifive_hifive1_revb_hello/freedom-metal/src/drivers/sifive_fe310-g000_pll.c:273
20017818:	853e                	mv	a0,a5
2001781a:	50f2                	lw	ra,60(sp)
2001781c:	5462                	lw	s0,56(sp)
2001781e:	6121                	addi	sp,sp,64
20017820:	8082                	ret

20017822 <configure_pll>:
configure_pll():
/home/nicoladgg/wsFreedomStudio/sifive_hifive1_revb_hello/freedom-metal/src/drivers/sifive_fe310-g000_pll.c:290
20017822:	7179                	addi	sp,sp,-48
20017824:	d606                	sw	ra,44(sp)
20017826:	d422                	sw	s0,40(sp)
20017828:	1800                	addi	s0,sp,48
2001782a:	fca42e23          	sw	a0,-36(s0)
2001782e:	fcb42c23          	sw	a1,-40(s0)
20017832:	fcc42a23          	sw	a2,-44(s0)
/home/nicoladgg/wsFreedomStudio/sifive_hifive1_revb_hello/freedom-metal/src/drivers/sifive_fe310-g000_pll.c:291
20017836:	fdc42783          	lw	a5,-36(s0)
2001783a:	439c                	lw	a5,0(a5)
2001783c:	ff87f713          	andi	a4,a5,-8
20017840:	fdc42783          	lw	a5,-36(s0)
20017844:	c398                	sw	a4,0(a5)
/home/nicoladgg/wsFreedomStudio/sifive_hifive1_revb_hello/freedom-metal/src/drivers/sifive_fe310-g000_pll.c:292
20017846:	fdc42783          	lw	a5,-36(s0)
2001784a:	4398                	lw	a4,0(a5)
2001784c:	fd442783          	lw	a5,-44(s0)
20017850:	4b9c                	lw	a5,16(a5)
20017852:	8b9d                	andi	a5,a5,7
20017854:	8f5d                	or	a4,a4,a5
20017856:	fdc42783          	lw	a5,-36(s0)
2001785a:	c398                	sw	a4,0(a5)
/home/nicoladgg/wsFreedomStudio/sifive_hifive1_revb_hello/freedom-metal/src/drivers/sifive_fe310-g000_pll.c:294
2001785c:	fdc42783          	lw	a5,-36(s0)
20017860:	439c                	lw	a5,0(a5)
20017862:	c0f7f713          	andi	a4,a5,-1009
20017866:	fdc42783          	lw	a5,-36(s0)
2001786a:	c398                	sw	a4,0(a5)
/home/nicoladgg/wsFreedomStudio/sifive_hifive1_revb_hello/freedom-metal/src/drivers/sifive_fe310-g000_pll.c:295
2001786c:	fdc42783          	lw	a5,-36(s0)
20017870:	4398                	lw	a4,0(a5)
20017872:	fd442783          	lw	a5,-44(s0)
20017876:	4bdc                	lw	a5,20(a5)
20017878:	0792                	slli	a5,a5,0x4
2001787a:	3f07f793          	andi	a5,a5,1008
2001787e:	8f5d                	or	a4,a4,a5
20017880:	fdc42783          	lw	a5,-36(s0)
20017884:	c398                	sw	a4,0(a5)
/home/nicoladgg/wsFreedomStudio/sifive_hifive1_revb_hello/freedom-metal/src/drivers/sifive_fe310-g000_pll.c:297
20017886:	fdc42783          	lw	a5,-36(s0)
2001788a:	4398                	lw	a4,0(a5)
2001788c:	77fd                	lui	a5,0xfffff
2001788e:	3ff78793          	addi	a5,a5,1023 # fffff3ff <metal_segment_heap_target_end+0x7fffda1f>
20017892:	8f7d                	and	a4,a4,a5
20017894:	fdc42783          	lw	a5,-36(s0)
20017898:	c398                	sw	a4,0(a5)
/home/nicoladgg/wsFreedomStudio/sifive_hifive1_revb_hello/freedom-metal/src/drivers/sifive_fe310-g000_pll.c:298
2001789a:	fdc42783          	lw	a5,-36(s0)
2001789e:	4398                	lw	a4,0(a5)
200178a0:	fd442783          	lw	a5,-44(s0)
200178a4:	4f9c                	lw	a5,24(a5)
200178a6:	00a79693          	slli	a3,a5,0xa
200178aa:	6785                	lui	a5,0x1
200178ac:	c0078793          	addi	a5,a5,-1024 # c00 <__heap_size+0x400>
200178b0:	8ff5                	and	a5,a5,a3
200178b2:	8f5d                	or	a4,a4,a5
200178b4:	fdc42783          	lw	a5,-36(s0)
200178b8:	c398                	sw	a4,0(a5)
/home/nicoladgg/wsFreedomStudio/sifive_hifive1_revb_hello/freedom-metal/src/drivers/sifive_fe310-g000_pll.c:300
200178ba:	fd442783          	lw	a5,-44(s0)
200178be:	4fdc                	lw	a5,28(a5)
200178c0:	0207db63          	bgez	a5,200178f6 <configure_pll+0xd4>
/home/nicoladgg/wsFreedomStudio/sifive_hifive1_revb_hello/freedom-metal/src/drivers/sifive_fe310-g000_pll.c:302
200178c4:	fd842783          	lw	a5,-40(s0)
200178c8:	439c                	lw	a5,0(a5)
200178ca:	1007e713          	ori	a4,a5,256
200178ce:	fd842783          	lw	a5,-40(s0)
200178d2:	c398                	sw	a4,0(a5)
/home/nicoladgg/wsFreedomStudio/sifive_hifive1_revb_hello/freedom-metal/src/drivers/sifive_fe310-g000_pll.c:304
200178d4:	fd842783          	lw	a5,-40(s0)
200178d8:	439c                	lw	a5,0(a5)
200178da:	fc07f713          	andi	a4,a5,-64
200178de:	fd842783          	lw	a5,-40(s0)
200178e2:	c398                	sw	a4,0(a5)
/home/nicoladgg/wsFreedomStudio/sifive_hifive1_revb_hello/freedom-metal/src/drivers/sifive_fe310-g000_pll.c:305
200178e4:	fd842783          	lw	a5,-40(s0)
200178e8:	439c                	lw	a5,0(a5)
200178ea:	0017e713          	ori	a4,a5,1
200178ee:	fd842783          	lw	a5,-40(s0)
200178f2:	c398                	sw	a4,0(a5)
200178f4:	a82d                	j	2001792e <configure_pll+0x10c>
/home/nicoladgg/wsFreedomStudio/sifive_hifive1_revb_hello/freedom-metal/src/drivers/sifive_fe310-g000_pll.c:307
200178f6:	fd842783          	lw	a5,-40(s0)
200178fa:	439c                	lw	a5,0(a5)
200178fc:	eff7f713          	andi	a4,a5,-257
20017900:	fd842783          	lw	a5,-40(s0)
20017904:	c398                	sw	a4,0(a5)
/home/nicoladgg/wsFreedomStudio/sifive_hifive1_revb_hello/freedom-metal/src/drivers/sifive_fe310-g000_pll.c:309
20017906:	fd842783          	lw	a5,-40(s0)
2001790a:	439c                	lw	a5,0(a5)
2001790c:	fc07f713          	andi	a4,a5,-64
20017910:	fd842783          	lw	a5,-40(s0)
20017914:	c398                	sw	a4,0(a5)
/home/nicoladgg/wsFreedomStudio/sifive_hifive1_revb_hello/freedom-metal/src/drivers/sifive_fe310-g000_pll.c:310
20017916:	fd842783          	lw	a5,-40(s0)
2001791a:	4398                	lw	a4,0(a5)
2001791c:	fd442783          	lw	a5,-44(s0)
20017920:	4fdc                	lw	a5,28(a5)
20017922:	03f7f793          	andi	a5,a5,63
20017926:	8f5d                	or	a4,a4,a5
20017928:	fd842783          	lw	a5,-40(s0)
2001792c:	c398                	sw	a4,0(a5)
/home/nicoladgg/wsFreedomStudio/sifive_hifive1_revb_hello/freedom-metal/src/drivers/sifive_fe310-g000_pll.c:313
2001792e:	fdc42783          	lw	a5,-36(s0)
20017932:	4398                	lw	a4,0(a5)
20017934:	fffc07b7          	lui	a5,0xfffc0
20017938:	17fd                	addi	a5,a5,-1
2001793a:	8f7d                	and	a4,a4,a5
2001793c:	fdc42783          	lw	a5,-36(s0)
20017940:	c398                	sw	a4,0(a5)
/home/nicoladgg/wsFreedomStudio/sifive_hifive1_revb_hello/freedom-metal/src/drivers/sifive_fe310-g000_pll.c:318
20017942:	fe040793          	addi	a5,s0,-32
20017946:	863e                	mv	a2,a5
20017948:	4585                	li	a1,1
2001794a:	81018513          	addi	a0,gp,-2032 # 80000ab0 <__metal_dt_clint_2000000>
2001794e:	cb4fd0ef          	jal	ra,20014e02 <__metal_driver_riscv_clint0_command_request>
/home/nicoladgg/wsFreedomStudio/sifive_hifive1_revb_hello/freedom-metal/src/drivers/sifive_fe310-g000_pll.c:320
20017952:	fe042603          	lw	a2,-32(s0)
20017956:	fe442683          	lw	a3,-28(s0)
2001795a:	4511                	li	a0,4
2001795c:	4581                	li	a1,0
2001795e:	00a60733          	add	a4,a2,a0
20017962:	883a                	mv	a6,a4
20017964:	00c83833          	sltu	a6,a6,a2
20017968:	00b687b3          	add	a5,a3,a1
2001796c:	00f806b3          	add	a3,a6,a5
20017970:	87b6                	mv	a5,a3
20017972:	fee42423          	sw	a4,-24(s0)
20017976:	fef42623          	sw	a5,-20(s0)
/home/nicoladgg/wsFreedomStudio/sifive_hifive1_revb_hello/freedom-metal/src/drivers/sifive_fe310-g000_pll.c:321
2001797a:	a809                	j	2001798c <configure_pll+0x16a>
/home/nicoladgg/wsFreedomStudio/sifive_hifive1_revb_hello/freedom-metal/src/drivers/sifive_fe310-g000_pll.c:322
2001797c:	fe040793          	addi	a5,s0,-32
20017980:	863e                	mv	a2,a5
20017982:	4585                	li	a1,1
20017984:	81018513          	addi	a0,gp,-2032 # 80000ab0 <__metal_dt_clint_2000000>
20017988:	c7afd0ef          	jal	ra,20014e02 <__metal_driver_riscv_clint0_command_request>
/home/nicoladgg/wsFreedomStudio/sifive_hifive1_revb_hello/freedom-metal/src/drivers/sifive_fe310-g000_pll.c:321
2001798c:	fe042703          	lw	a4,-32(s0)
20017990:	fe442783          	lw	a5,-28(s0)
20017994:	fec42683          	lw	a3,-20(s0)
20017998:	863e                	mv	a2,a5
2001799a:	00c6ec63          	bltu	a3,a2,200179b2 <configure_pll+0x190>
2001799e:	fec42683          	lw	a3,-20(s0)
200179a2:	863e                	mv	a2,a5
200179a4:	fcc69ce3          	bne	a3,a2,2001797c <configure_pll+0x15a>
200179a8:	fe842683          	lw	a3,-24(s0)
200179ac:	87ba                	mv	a5,a4
200179ae:	fcf6f7e3          	bgeu	a3,a5,2001797c <configure_pll+0x15a>
/home/nicoladgg/wsFreedomStudio/sifive_hifive1_revb_hello/freedom-metal/src/drivers/sifive_fe310-g000_pll.c:340
200179b2:	0001                	nop
/home/nicoladgg/wsFreedomStudio/sifive_hifive1_revb_hello/freedom-metal/src/drivers/sifive_fe310-g000_pll.c:340 (discriminator 1)
200179b4:	fdc42783          	lw	a5,-36(s0)
200179b8:	439c                	lw	a5,0(a5)
200179ba:	fe07dde3          	bgez	a5,200179b4 <configure_pll+0x192>
/home/nicoladgg/wsFreedomStudio/sifive_hifive1_revb_hello/freedom-metal/src/drivers/sifive_fe310-g000_pll.c:342
200179be:	0001                	nop
200179c0:	0001                	nop
200179c2:	50b2                	lw	ra,44(sp)
200179c4:	5422                	lw	s0,40(sp)
200179c6:	6145                	addi	sp,sp,48
200179c8:	8082                	ret

200179ca <__metal_driver_sifive_fe310_g000_pll_set_rate_hz>:
__metal_driver_sifive_fe310_g000_pll_set_rate_hz():
/home/nicoladgg/wsFreedomStudio/sifive_hifive1_revb_hello/freedom-metal/src/drivers/sifive_fe310-g000_pll.c:345
200179ca:	715d                	addi	sp,sp,-80
200179cc:	c686                	sw	ra,76(sp)
200179ce:	c4a2                	sw	s0,72(sp)
200179d0:	0880                	addi	s0,sp,80
200179d2:	faa42e23          	sw	a0,-68(s0)
200179d6:	fab42c23          	sw	a1,-72(s0)
/home/nicoladgg/wsFreedomStudio/sifive_hifive1_revb_hello/freedom-metal/src/drivers/sifive_fe310-g000_pll.c:347
200179da:	fbc42503          	lw	a0,-68(s0)
200179de:	a93ff0ef          	jal	ra,20017470 <__metal_driver_sifive_fe310_g000_pll_pllref>
200179e2:	fea42623          	sw	a0,-20(s0)
/home/nicoladgg/wsFreedomStudio/sifive_hifive1_revb_hello/freedom-metal/src/drivers/sifive_fe310-g000_pll.c:349
200179e6:	fbc42503          	lw	a0,-68(s0)
200179ea:	a6dff0ef          	jal	ra,20017456 <__metal_driver_sifive_fe310_g000_pll_pllsel0>
200179ee:	fea42423          	sw	a0,-24(s0)
/home/nicoladgg/wsFreedomStudio/sifive_hifive1_revb_hello/freedom-metal/src/drivers/sifive_fe310-g000_pll.c:351
200179f2:	fbc42503          	lw	a0,-68(s0)
200179f6:	ad1ff0ef          	jal	ra,200174c6 <__metal_driver_sifive_fe310_g000_pll_config_offset>
200179fa:	fea42223          	sw	a0,-28(s0)
/home/nicoladgg/wsFreedomStudio/sifive_hifive1_revb_hello/freedom-metal/src/drivers/sifive_fe310-g000_pll.c:353
200179fe:	fbc42503          	lw	a0,-68(s0)
20017a02:	a9fff0ef          	jal	ra,200174a0 <__metal_driver_sifive_fe310_g000_pll_divider_offset>
20017a06:	fea42023          	sw	a0,-32(s0)
/home/nicoladgg/wsFreedomStudio/sifive_hifive1_revb_hello/freedom-metal/src/drivers/sifive_fe310-g000_pll.c:354
20017a0a:	ae3ff0ef          	jal	ra,200174ec <__metal_driver_sifive_fe310_g000_prci_base>
20017a0e:	fca42e23          	sw	a0,-36(s0)
/home/nicoladgg/wsFreedomStudio/sifive_hifive1_revb_hello/freedom-metal/src/drivers/sifive_fe310-g000_pll.c:356
20017a12:	fdc42703          	lw	a4,-36(s0)
20017a16:	fe442783          	lw	a5,-28(s0)
20017a1a:	97ba                	add	a5,a5,a4
20017a1c:	fcf42c23          	sw	a5,-40(s0)
/home/nicoladgg/wsFreedomStudio/sifive_hifive1_revb_hello/freedom-metal/src/drivers/sifive_fe310-g000_pll.c:357
20017a20:	fdc42703          	lw	a4,-36(s0)
20017a24:	fe042783          	lw	a5,-32(s0)
20017a28:	97ba                	add	a5,a5,a4
20017a2a:	fcf42a23          	sw	a5,-44(s0)
/home/nicoladgg/wsFreedomStudio/sifive_hifive1_revb_hello/freedom-metal/src/drivers/sifive_fe310-g000_pll.c:360
20017a2e:	fd842783          	lw	a5,-40(s0)
20017a32:	4398                	lw	a4,0(a5)
20017a34:	67c1                	lui	a5,0x10
20017a36:	8ff9                	and	a5,a5,a4
20017a38:	cb91                	beqz	a5,20017a4c <__metal_driver_sifive_fe310_g000_pll_set_rate_hz+0x82>
/home/nicoladgg/wsFreedomStudio/sifive_hifive1_revb_hello/freedom-metal/src/drivers/sifive_fe310-g000_pll.c:361
20017a3a:	fd842783          	lw	a5,-40(s0)
20017a3e:	4398                	lw	a4,0(a5)
20017a40:	77c1                	lui	a5,0xffff0
20017a42:	17fd                	addi	a5,a5,-1
20017a44:	8f7d                	and	a4,a4,a5
20017a46:	fd842783          	lw	a5,-40(s0)
20017a4a:	c398                	sw	a4,0(a5)
/home/nicoladgg/wsFreedomStudio/sifive_hifive1_revb_hello/freedom-metal/src/drivers/sifive_fe310-g000_pll.c:366
20017a4c:	fd842783          	lw	a5,-40(s0)
20017a50:	4398                	lw	a4,0(a5)
20017a52:	000207b7          	lui	a5,0x20
20017a56:	8ff9                	and	a5,a5,a4
/home/nicoladgg/wsFreedomStudio/sifive_hifive1_revb_hello/freedom-metal/src/drivers/sifive_fe310-g000_pll.c:365
20017a58:	c781                	beqz	a5,20017a60 <__metal_driver_sifive_fe310_g000_pll_set_rate_hz+0x96>
/home/nicoladgg/wsFreedomStudio/sifive_hifive1_revb_hello/freedom-metal/src/drivers/sifive_fe310-g000_pll.c:365 (discriminator 1)
20017a5a:	fec42783          	lw	a5,-20(s0)
20017a5e:	a019                	j	20017a64 <__metal_driver_sifive_fe310_g000_pll_set_rate_hz+0x9a>
/home/nicoladgg/wsFreedomStudio/sifive_hifive1_revb_hello/freedom-metal/src/drivers/sifive_fe310-g000_pll.c:365 (discriminator 2)
20017a60:	fe842783          	lw	a5,-24(s0)
/home/nicoladgg/wsFreedomStudio/sifive_hifive1_revb_hello/freedom-metal/src/drivers/sifive_fe310-g000_pll.c:365 (discriminator 4)
20017a64:	853e                	mv	a0,a5
20017a66:	37a010ef          	jal	ra,20018de0 <metal_clock_get_rate_hz>
20017a6a:	fca42823          	sw	a0,-48(s0)
/home/nicoladgg/wsFreedomStudio/sifive_hifive1_revb_hello/freedom-metal/src/drivers/sifive_fe310-g000_pll.c:370 (discriminator 4)
20017a6e:	fd042703          	lw	a4,-48(s0)
20017a72:	87ba                	mv	a5,a4
20017a74:	0786                	slli	a5,a5,0x1
20017a76:	97ba                	add	a5,a5,a4
20017a78:	41f7d713          	srai	a4,a5,0x1f
20017a7c:	8b0d                	andi	a4,a4,3
20017a7e:	97ba                	add	a5,a5,a4
20017a80:	8789                	srai	a5,a5,0x2
20017a82:	873e                	mv	a4,a5
20017a84:	fb842783          	lw	a5,-72(s0)
20017a88:	02e7cb63          	blt	a5,a4,20017abe <__metal_driver_sifive_fe310_g000_pll_set_rate_hz+0xf4>
/home/nicoladgg/wsFreedomStudio/sifive_hifive1_revb_hello/freedom-metal/src/drivers/sifive_fe310-g000_pll.c:370 (discriminator 1)
20017a8c:	fd042703          	lw	a4,-48(s0)
20017a90:	87ba                	mv	a5,a4
20017a92:	078a                	slli	a5,a5,0x2
20017a94:	97ba                	add	a5,a5,a4
20017a96:	41f7d713          	srai	a4,a5,0x1f
20017a9a:	8b0d                	andi	a4,a4,3
20017a9c:	97ba                	add	a5,a5,a4
20017a9e:	8789                	srai	a5,a5,0x2
20017aa0:	873e                	mv	a4,a5
20017aa2:	fb842783          	lw	a5,-72(s0)
20017aa6:	00f74c63          	blt	a4,a5,20017abe <__metal_driver_sifive_fe310_g000_pll_set_rate_hz+0xf4>
/home/nicoladgg/wsFreedomStudio/sifive_hifive1_revb_hello/freedom-metal/src/drivers/sifive_fe310-g000_pll.c:371
20017aaa:	fd842783          	lw	a5,-40(s0)
20017aae:	4398                	lw	a4,0(a5)
20017ab0:	000407b7          	lui	a5,0x40
20017ab4:	8f5d                	or	a4,a4,a5
20017ab6:	fd842783          	lw	a5,-40(s0)
20017aba:	c398                	sw	a4,0(a5)
20017abc:	a881                	j	20017b0c <__metal_driver_sifive_fe310_g000_pll_set_rate_hz+0x142>
/home/nicoladgg/wsFreedomStudio/sifive_hifive1_revb_hello/freedom-metal/src/drivers/sifive_fe310-g000_pll.c:373
20017abe:	fb842583          	lw	a1,-72(s0)
20017ac2:	fd042503          	lw	a0,-48(s0)
20017ac6:	cb1ff0ef          	jal	ra,20017776 <find_closest_config>
20017aca:	fca42623          	sw	a0,-52(s0)
/home/nicoladgg/wsFreedomStudio/sifive_hifive1_revb_hello/freedom-metal/src/drivers/sifive_fe310-g000_pll.c:374
20017ace:	fcc42703          	lw	a4,-52(s0)
20017ad2:	57fd                	li	a5,-1
20017ad4:	02f70363          	beq	a4,a5,20017afa <__metal_driver_sifive_fe310_g000_pll_set_rate_hz+0x130>
/home/nicoladgg/wsFreedomStudio/sifive_hifive1_revb_hello/freedom-metal/src/drivers/sifive_fe310-g000_pll.c:375
20017ad8:	fcc42783          	lw	a5,-52(s0)
20017adc:	00579713          	slli	a4,a5,0x5
20017ae0:	200117b7          	lui	a5,0x20011
20017ae4:	84078793          	addi	a5,a5,-1984 # 20010840 <pll_configs>
20017ae8:	97ba                	add	a5,a5,a4
20017aea:	863e                	mv	a2,a5
20017aec:	fd442583          	lw	a1,-44(s0)
20017af0:	fd842503          	lw	a0,-40(s0)
20017af4:	d2fff0ef          	jal	ra,20017822 <configure_pll>
20017af8:	a811                	j	20017b0c <__metal_driver_sifive_fe310_g000_pll_set_rate_hz+0x142>
/home/nicoladgg/wsFreedomStudio/sifive_hifive1_revb_hello/freedom-metal/src/drivers/sifive_fe310-g000_pll.c:378
20017afa:	fd842783          	lw	a5,-40(s0)
20017afe:	4398                	lw	a4,0(a5)
20017b00:	000407b7          	lui	a5,0x40
20017b04:	8f5d                	or	a4,a4,a5
20017b06:	fd842783          	lw	a5,-40(s0)
20017b0a:	c398                	sw	a4,0(a5)
/home/nicoladgg/wsFreedomStudio/sifive_hifive1_revb_hello/freedom-metal/src/drivers/sifive_fe310-g000_pll.c:383
20017b0c:	fd842783          	lw	a5,-40(s0)
20017b10:	4398                	lw	a4,0(a5)
20017b12:	67c1                	lui	a5,0x10
20017b14:	8f5d                	or	a4,a4,a5
20017b16:	fd842783          	lw	a5,-40(s0)
20017b1a:	c398                	sw	a4,0(a5)
/home/nicoladgg/wsFreedomStudio/sifive_hifive1_revb_hello/freedom-metal/src/drivers/sifive_fe310-g000_pll.c:385
20017b1c:	fbc42503          	lw	a0,-68(s0)
20017b20:	ae7ff0ef          	jal	ra,20017606 <__metal_driver_sifive_fe310_g000_pll_get_rate_hz>
20017b24:	87aa                	mv	a5,a0
/home/nicoladgg/wsFreedomStudio/sifive_hifive1_revb_hello/freedom-metal/src/drivers/sifive_fe310-g000_pll.c:386
20017b26:	853e                	mv	a0,a5
20017b28:	40b6                	lw	ra,76(sp)
20017b2a:	4426                	lw	s0,72(sp)
20017b2c:	6161                	addi	sp,sp,80
20017b2e:	8082                	ret

20017b30 <__metal_driver_sifive_fe310_g000_prci_base>:
__metal_driver_sifive_fe310_g000_prci_base():
/home/nicoladgg/wsFreedomStudio/sifive_hifive1_revb_hello/bsp/build/debug/./metal/machine.h:1364
20017b30:	1141                	addi	sp,sp,-16
20017b32:	c622                	sw	s0,12(sp)
20017b34:	0800                	addi	s0,sp,16
/home/nicoladgg/wsFreedomStudio/sifive_hifive1_revb_hello/bsp/build/debug/./metal/machine.h:1365
20017b36:	100087b7          	lui	a5,0x10008
/home/nicoladgg/wsFreedomStudio/sifive_hifive1_revb_hello/bsp/build/debug/./metal/machine.h:1366
20017b3a:	853e                	mv	a0,a5
20017b3c:	4432                	lw	s0,12(sp)
20017b3e:	0141                	addi	sp,sp,16
20017b40:	8082                	ret

20017b42 <__metal_driver_sifive_fe310_g000_prci_get_reg>:
__metal_driver_sifive_fe310_g000_prci_get_reg():
/home/nicoladgg/wsFreedomStudio/sifive_hifive1_revb_hello/freedom-metal/src/drivers/sifive_fe310-g000_prci.c:12
20017b42:	7179                	addi	sp,sp,-48
20017b44:	d606                	sw	ra,44(sp)
20017b46:	d422                	sw	s0,40(sp)
20017b48:	1800                	addi	s0,sp,48
20017b4a:	fca42e23          	sw	a0,-36(s0)
20017b4e:	fcb42c23          	sw	a1,-40(s0)
/home/nicoladgg/wsFreedomStudio/sifive_hifive1_revb_hello/freedom-metal/src/drivers/sifive_fe310-g000_prci.c:13
20017b52:	3ff9                	jal	20017b30 <__metal_driver_sifive_fe310_g000_prci_base>
20017b54:	87aa                	mv	a5,a0
20017b56:	fef42623          	sw	a5,-20(s0)
/home/nicoladgg/wsFreedomStudio/sifive_hifive1_revb_hello/freedom-metal/src/drivers/sifive_fe310-g000_prci.c:14
20017b5a:	fd842703          	lw	a4,-40(s0)
20017b5e:	fec42783          	lw	a5,-20(s0)
20017b62:	97ba                	add	a5,a5,a4
20017b64:	439c                	lw	a5,0(a5)
/home/nicoladgg/wsFreedomStudio/sifive_hifive1_revb_hello/freedom-metal/src/drivers/sifive_fe310-g000_prci.c:15
20017b66:	853e                	mv	a0,a5
20017b68:	50b2                	lw	ra,44(sp)
20017b6a:	5422                	lw	s0,40(sp)
20017b6c:	6145                	addi	sp,sp,48
20017b6e:	8082                	ret

20017b70 <__metal_driver_sifive_fe310_g000_prci_set_reg>:
__metal_driver_sifive_fe310_g000_prci_set_reg():
/home/nicoladgg/wsFreedomStudio/sifive_hifive1_revb_hello/freedom-metal/src/drivers/sifive_fe310-g000_prci.c:19
20017b70:	7179                	addi	sp,sp,-48
20017b72:	d606                	sw	ra,44(sp)
20017b74:	d422                	sw	s0,40(sp)
20017b76:	1800                	addi	s0,sp,48
20017b78:	fca42e23          	sw	a0,-36(s0)
20017b7c:	fcb42c23          	sw	a1,-40(s0)
20017b80:	fcc42a23          	sw	a2,-44(s0)
/home/nicoladgg/wsFreedomStudio/sifive_hifive1_revb_hello/freedom-metal/src/drivers/sifive_fe310-g000_prci.c:20
20017b84:	3775                	jal	20017b30 <__metal_driver_sifive_fe310_g000_prci_base>
20017b86:	87aa                	mv	a5,a0
20017b88:	fef42623          	sw	a5,-20(s0)
/home/nicoladgg/wsFreedomStudio/sifive_hifive1_revb_hello/freedom-metal/src/drivers/sifive_fe310-g000_prci.c:21
20017b8c:	fd842703          	lw	a4,-40(s0)
20017b90:	fec42783          	lw	a5,-20(s0)
20017b94:	97ba                	add	a5,a5,a4
20017b96:	873e                	mv	a4,a5
20017b98:	fd442783          	lw	a5,-44(s0)
20017b9c:	c31c                	sw	a5,0(a4)
/home/nicoladgg/wsFreedomStudio/sifive_hifive1_revb_hello/freedom-metal/src/drivers/sifive_fe310-g000_prci.c:22
20017b9e:	853e                	mv	a0,a5
20017ba0:	50b2                	lw	ra,44(sp)
20017ba2:	5422                	lw	s0,40(sp)
20017ba4:	6145                	addi	sp,sp,48
20017ba6:	8082                	ret

20017ba8 <__metal_driver_sifive_gpio0_base>:
__metal_driver_sifive_gpio0_base():
/home/nicoladgg/wsFreedomStudio/sifive_hifive1_revb_hello/bsp/build/debug/./metal/machine.h:430
20017ba8:	1101                	addi	sp,sp,-32
20017baa:	ce22                	sw	s0,28(sp)
20017bac:	1000                	addi	s0,sp,32
20017bae:	fea42623          	sw	a0,-20(s0)
/home/nicoladgg/wsFreedomStudio/sifive_hifive1_revb_hello/bsp/build/debug/./metal/machine.h:431
20017bb2:	fec42703          	lw	a4,-20(s0)
20017bb6:	82018793          	addi	a5,gp,-2016 # 80000ac0 <__metal_dt_gpio_10012000>
20017bba:	00f71563          	bne	a4,a5,20017bc4 <__metal_driver_sifive_gpio0_base+0x1c>
/home/nicoladgg/wsFreedomStudio/sifive_hifive1_revb_hello/bsp/build/debug/./metal/machine.h:432
20017bbe:	100127b7          	lui	a5,0x10012
20017bc2:	a011                	j	20017bc6 <__metal_driver_sifive_gpio0_base+0x1e>
/home/nicoladgg/wsFreedomStudio/sifive_hifive1_revb_hello/bsp/build/debug/./metal/machine.h:435
20017bc4:	4781                	li	a5,0
/home/nicoladgg/wsFreedomStudio/sifive_hifive1_revb_hello/bsp/build/debug/./metal/machine.h:437
20017bc6:	853e                	mv	a0,a5
20017bc8:	4472                	lw	s0,28(sp)
20017bca:	6105                	addi	sp,sp,32
20017bcc:	8082                	ret

20017bce <__metal_driver_sifive_gpio0_interrupt_parent>:
__metal_driver_sifive_gpio0_interrupt_parent():
/home/nicoladgg/wsFreedomStudio/sifive_hifive1_revb_hello/bsp/build/debug/./metal/machine.h:460
20017bce:	1101                	addi	sp,sp,-32
20017bd0:	ce22                	sw	s0,28(sp)
20017bd2:	1000                	addi	s0,sp,32
20017bd4:	fea42623          	sw	a0,-20(s0)
/home/nicoladgg/wsFreedomStudio/sifive_hifive1_revb_hello/bsp/build/debug/./metal/machine.h:461
20017bd8:	fec42703          	lw	a4,-20(s0)
20017bdc:	82018793          	addi	a5,gp,-2016 # 80000ac0 <__metal_dt_gpio_10012000>
20017be0:	00f71763          	bne	a4,a5,20017bee <__metal_driver_sifive_gpio0_interrupt_parent+0x20>
/home/nicoladgg/wsFreedomStudio/sifive_hifive1_revb_hello/bsp/build/debug/./metal/machine.h:462
20017be4:	800007b7          	lui	a5,0x80000
20017be8:	46078793          	addi	a5,a5,1120 # 80000460 <metal_segment_heap_target_end+0xffffea80>
20017bec:	a011                	j	20017bf0 <__metal_driver_sifive_gpio0_interrupt_parent+0x22>
/home/nicoladgg/wsFreedomStudio/sifive_hifive1_revb_hello/bsp/build/debug/./metal/machine.h:465
20017bee:	4781                	li	a5,0
/home/nicoladgg/wsFreedomStudio/sifive_hifive1_revb_hello/bsp/build/debug/./metal/machine.h:467
20017bf0:	853e                	mv	a0,a5
20017bf2:	4472                	lw	s0,28(sp)
20017bf4:	6105                	addi	sp,sp,32
20017bf6:	8082                	ret

20017bf8 <__metal_driver_sifive_gpio0_interrupt_lines>:
__metal_driver_sifive_gpio0_interrupt_lines():
/home/nicoladgg/wsFreedomStudio/sifive_hifive1_revb_hello/bsp/build/debug/./metal/machine.h:470
20017bf8:	1101                	addi	sp,sp,-32
20017bfa:	ce22                	sw	s0,28(sp)
20017bfc:	1000                	addi	s0,sp,32
20017bfe:	fea42623          	sw	a0,-20(s0)
20017c02:	feb42423          	sw	a1,-24(s0)
/home/nicoladgg/wsFreedomStudio/sifive_hifive1_revb_hello/bsp/build/debug/./metal/machine.h:471
20017c06:	fec42703          	lw	a4,-20(s0)
20017c0a:	82018793          	addi	a5,gp,-2016 # 80000ac0 <__metal_dt_gpio_10012000>
20017c0e:	00f71763          	bne	a4,a5,20017c1c <__metal_driver_sifive_gpio0_interrupt_lines+0x24>
/home/nicoladgg/wsFreedomStudio/sifive_hifive1_revb_hello/bsp/build/debug/./metal/machine.h:471 (discriminator 1)
20017c12:	fe842783          	lw	a5,-24(s0)
20017c16:	e399                	bnez	a5,20017c1c <__metal_driver_sifive_gpio0_interrupt_lines+0x24>
/home/nicoladgg/wsFreedomStudio/sifive_hifive1_revb_hello/bsp/build/debug/./metal/machine.h:472
20017c18:	47a1                	li	a5,8
20017c1a:	ae15                	j	20017f4e <__metal_driver_sifive_gpio0_interrupt_lines+0x356>
/home/nicoladgg/wsFreedomStudio/sifive_hifive1_revb_hello/bsp/build/debug/./metal/machine.h:474
20017c1c:	fec42703          	lw	a4,-20(s0)
20017c20:	82018793          	addi	a5,gp,-2016 # 80000ac0 <__metal_dt_gpio_10012000>
20017c24:	00f71963          	bne	a4,a5,20017c36 <__metal_driver_sifive_gpio0_interrupt_lines+0x3e>
/home/nicoladgg/wsFreedomStudio/sifive_hifive1_revb_hello/bsp/build/debug/./metal/machine.h:474 (discriminator 1)
20017c28:	fe842703          	lw	a4,-24(s0)
20017c2c:	4785                	li	a5,1
20017c2e:	00f71463          	bne	a4,a5,20017c36 <__metal_driver_sifive_gpio0_interrupt_lines+0x3e>
/home/nicoladgg/wsFreedomStudio/sifive_hifive1_revb_hello/bsp/build/debug/./metal/machine.h:475
20017c32:	47a5                	li	a5,9
20017c34:	ae29                	j	20017f4e <__metal_driver_sifive_gpio0_interrupt_lines+0x356>
/home/nicoladgg/wsFreedomStudio/sifive_hifive1_revb_hello/bsp/build/debug/./metal/machine.h:477
20017c36:	fec42703          	lw	a4,-20(s0)
20017c3a:	82018793          	addi	a5,gp,-2016 # 80000ac0 <__metal_dt_gpio_10012000>
20017c3e:	00f71963          	bne	a4,a5,20017c50 <__metal_driver_sifive_gpio0_interrupt_lines+0x58>
/home/nicoladgg/wsFreedomStudio/sifive_hifive1_revb_hello/bsp/build/debug/./metal/machine.h:477 (discriminator 1)
20017c42:	fe842703          	lw	a4,-24(s0)
20017c46:	4789                	li	a5,2
20017c48:	00f71463          	bne	a4,a5,20017c50 <__metal_driver_sifive_gpio0_interrupt_lines+0x58>
/home/nicoladgg/wsFreedomStudio/sifive_hifive1_revb_hello/bsp/build/debug/./metal/machine.h:478
20017c4c:	47a9                	li	a5,10
20017c4e:	a601                	j	20017f4e <__metal_driver_sifive_gpio0_interrupt_lines+0x356>
/home/nicoladgg/wsFreedomStudio/sifive_hifive1_revb_hello/bsp/build/debug/./metal/machine.h:480
20017c50:	fec42703          	lw	a4,-20(s0)
20017c54:	82018793          	addi	a5,gp,-2016 # 80000ac0 <__metal_dt_gpio_10012000>
20017c58:	00f71963          	bne	a4,a5,20017c6a <__metal_driver_sifive_gpio0_interrupt_lines+0x72>
/home/nicoladgg/wsFreedomStudio/sifive_hifive1_revb_hello/bsp/build/debug/./metal/machine.h:480 (discriminator 1)
20017c5c:	fe842703          	lw	a4,-24(s0)
20017c60:	478d                	li	a5,3
20017c62:	00f71463          	bne	a4,a5,20017c6a <__metal_driver_sifive_gpio0_interrupt_lines+0x72>
/home/nicoladgg/wsFreedomStudio/sifive_hifive1_revb_hello/bsp/build/debug/./metal/machine.h:481
20017c66:	47ad                	li	a5,11
20017c68:	a4dd                	j	20017f4e <__metal_driver_sifive_gpio0_interrupt_lines+0x356>
/home/nicoladgg/wsFreedomStudio/sifive_hifive1_revb_hello/bsp/build/debug/./metal/machine.h:483
20017c6a:	fec42703          	lw	a4,-20(s0)
20017c6e:	82018793          	addi	a5,gp,-2016 # 80000ac0 <__metal_dt_gpio_10012000>
20017c72:	00f71963          	bne	a4,a5,20017c84 <__metal_driver_sifive_gpio0_interrupt_lines+0x8c>
/home/nicoladgg/wsFreedomStudio/sifive_hifive1_revb_hello/bsp/build/debug/./metal/machine.h:483 (discriminator 1)
20017c76:	fe842703          	lw	a4,-24(s0)
20017c7a:	4791                	li	a5,4
20017c7c:	00f71463          	bne	a4,a5,20017c84 <__metal_driver_sifive_gpio0_interrupt_lines+0x8c>
/home/nicoladgg/wsFreedomStudio/sifive_hifive1_revb_hello/bsp/build/debug/./metal/machine.h:484
20017c80:	47b1                	li	a5,12
20017c82:	a4f1                	j	20017f4e <__metal_driver_sifive_gpio0_interrupt_lines+0x356>
/home/nicoladgg/wsFreedomStudio/sifive_hifive1_revb_hello/bsp/build/debug/./metal/machine.h:486
20017c84:	fec42703          	lw	a4,-20(s0)
20017c88:	82018793          	addi	a5,gp,-2016 # 80000ac0 <__metal_dt_gpio_10012000>
20017c8c:	00f71963          	bne	a4,a5,20017c9e <__metal_driver_sifive_gpio0_interrupt_lines+0xa6>
/home/nicoladgg/wsFreedomStudio/sifive_hifive1_revb_hello/bsp/build/debug/./metal/machine.h:486 (discriminator 1)
20017c90:	fe842703          	lw	a4,-24(s0)
20017c94:	4795                	li	a5,5
20017c96:	00f71463          	bne	a4,a5,20017c9e <__metal_driver_sifive_gpio0_interrupt_lines+0xa6>
/home/nicoladgg/wsFreedomStudio/sifive_hifive1_revb_hello/bsp/build/debug/./metal/machine.h:487
20017c9a:	47b5                	li	a5,13
20017c9c:	ac4d                	j	20017f4e <__metal_driver_sifive_gpio0_interrupt_lines+0x356>
/home/nicoladgg/wsFreedomStudio/sifive_hifive1_revb_hello/bsp/build/debug/./metal/machine.h:489
20017c9e:	fec42703          	lw	a4,-20(s0)
20017ca2:	82018793          	addi	a5,gp,-2016 # 80000ac0 <__metal_dt_gpio_10012000>
20017ca6:	00f71963          	bne	a4,a5,20017cb8 <__metal_driver_sifive_gpio0_interrupt_lines+0xc0>
/home/nicoladgg/wsFreedomStudio/sifive_hifive1_revb_hello/bsp/build/debug/./metal/machine.h:489 (discriminator 1)
20017caa:	fe842703          	lw	a4,-24(s0)
20017cae:	4799                	li	a5,6
20017cb0:	00f71463          	bne	a4,a5,20017cb8 <__metal_driver_sifive_gpio0_interrupt_lines+0xc0>
/home/nicoladgg/wsFreedomStudio/sifive_hifive1_revb_hello/bsp/build/debug/./metal/machine.h:490
20017cb4:	47b9                	li	a5,14
20017cb6:	ac61                	j	20017f4e <__metal_driver_sifive_gpio0_interrupt_lines+0x356>
/home/nicoladgg/wsFreedomStudio/sifive_hifive1_revb_hello/bsp/build/debug/./metal/machine.h:492
20017cb8:	fec42703          	lw	a4,-20(s0)
20017cbc:	82018793          	addi	a5,gp,-2016 # 80000ac0 <__metal_dt_gpio_10012000>
20017cc0:	00f71963          	bne	a4,a5,20017cd2 <__metal_driver_sifive_gpio0_interrupt_lines+0xda>
/home/nicoladgg/wsFreedomStudio/sifive_hifive1_revb_hello/bsp/build/debug/./metal/machine.h:492 (discriminator 1)
20017cc4:	fe842703          	lw	a4,-24(s0)
20017cc8:	479d                	li	a5,7
20017cca:	00f71463          	bne	a4,a5,20017cd2 <__metal_driver_sifive_gpio0_interrupt_lines+0xda>
/home/nicoladgg/wsFreedomStudio/sifive_hifive1_revb_hello/bsp/build/debug/./metal/machine.h:493
20017cce:	47bd                	li	a5,15
20017cd0:	acbd                	j	20017f4e <__metal_driver_sifive_gpio0_interrupt_lines+0x356>
/home/nicoladgg/wsFreedomStudio/sifive_hifive1_revb_hello/bsp/build/debug/./metal/machine.h:495
20017cd2:	fec42703          	lw	a4,-20(s0)
20017cd6:	82018793          	addi	a5,gp,-2016 # 80000ac0 <__metal_dt_gpio_10012000>
20017cda:	00f71963          	bne	a4,a5,20017cec <__metal_driver_sifive_gpio0_interrupt_lines+0xf4>
/home/nicoladgg/wsFreedomStudio/sifive_hifive1_revb_hello/bsp/build/debug/./metal/machine.h:495 (discriminator 1)
20017cde:	fe842703          	lw	a4,-24(s0)
20017ce2:	47a1                	li	a5,8
20017ce4:	00f71463          	bne	a4,a5,20017cec <__metal_driver_sifive_gpio0_interrupt_lines+0xf4>
/home/nicoladgg/wsFreedomStudio/sifive_hifive1_revb_hello/bsp/build/debug/./metal/machine.h:496
20017ce8:	47c1                	li	a5,16
20017cea:	a495                	j	20017f4e <__metal_driver_sifive_gpio0_interrupt_lines+0x356>
/home/nicoladgg/wsFreedomStudio/sifive_hifive1_revb_hello/bsp/build/debug/./metal/machine.h:498
20017cec:	fec42703          	lw	a4,-20(s0)
20017cf0:	82018793          	addi	a5,gp,-2016 # 80000ac0 <__metal_dt_gpio_10012000>
20017cf4:	00f71963          	bne	a4,a5,20017d06 <__metal_driver_sifive_gpio0_interrupt_lines+0x10e>
/home/nicoladgg/wsFreedomStudio/sifive_hifive1_revb_hello/bsp/build/debug/./metal/machine.h:498 (discriminator 1)
20017cf8:	fe842703          	lw	a4,-24(s0)
20017cfc:	47a5                	li	a5,9
20017cfe:	00f71463          	bne	a4,a5,20017d06 <__metal_driver_sifive_gpio0_interrupt_lines+0x10e>
/home/nicoladgg/wsFreedomStudio/sifive_hifive1_revb_hello/bsp/build/debug/./metal/machine.h:499
20017d02:	47c5                	li	a5,17
20017d04:	a4a9                	j	20017f4e <__metal_driver_sifive_gpio0_interrupt_lines+0x356>
/home/nicoladgg/wsFreedomStudio/sifive_hifive1_revb_hello/bsp/build/debug/./metal/machine.h:501
20017d06:	fec42703          	lw	a4,-20(s0)
20017d0a:	82018793          	addi	a5,gp,-2016 # 80000ac0 <__metal_dt_gpio_10012000>
20017d0e:	00f71963          	bne	a4,a5,20017d20 <__metal_driver_sifive_gpio0_interrupt_lines+0x128>
/home/nicoladgg/wsFreedomStudio/sifive_hifive1_revb_hello/bsp/build/debug/./metal/machine.h:501 (discriminator 1)
20017d12:	fe842703          	lw	a4,-24(s0)
20017d16:	47a9                	li	a5,10
20017d18:	00f71463          	bne	a4,a5,20017d20 <__metal_driver_sifive_gpio0_interrupt_lines+0x128>
/home/nicoladgg/wsFreedomStudio/sifive_hifive1_revb_hello/bsp/build/debug/./metal/machine.h:502
20017d1c:	47c9                	li	a5,18
20017d1e:	ac05                	j	20017f4e <__metal_driver_sifive_gpio0_interrupt_lines+0x356>
/home/nicoladgg/wsFreedomStudio/sifive_hifive1_revb_hello/bsp/build/debug/./metal/machine.h:504
20017d20:	fec42703          	lw	a4,-20(s0)
20017d24:	82018793          	addi	a5,gp,-2016 # 80000ac0 <__metal_dt_gpio_10012000>
20017d28:	00f71963          	bne	a4,a5,20017d3a <__metal_driver_sifive_gpio0_interrupt_lines+0x142>
/home/nicoladgg/wsFreedomStudio/sifive_hifive1_revb_hello/bsp/build/debug/./metal/machine.h:504 (discriminator 1)
20017d2c:	fe842703          	lw	a4,-24(s0)
20017d30:	47ad                	li	a5,11
20017d32:	00f71463          	bne	a4,a5,20017d3a <__metal_driver_sifive_gpio0_interrupt_lines+0x142>
/home/nicoladgg/wsFreedomStudio/sifive_hifive1_revb_hello/bsp/build/debug/./metal/machine.h:505
20017d36:	47cd                	li	a5,19
20017d38:	ac19                	j	20017f4e <__metal_driver_sifive_gpio0_interrupt_lines+0x356>
/home/nicoladgg/wsFreedomStudio/sifive_hifive1_revb_hello/bsp/build/debug/./metal/machine.h:507
20017d3a:	fec42703          	lw	a4,-20(s0)
20017d3e:	82018793          	addi	a5,gp,-2016 # 80000ac0 <__metal_dt_gpio_10012000>
20017d42:	00f71963          	bne	a4,a5,20017d54 <__metal_driver_sifive_gpio0_interrupt_lines+0x15c>
/home/nicoladgg/wsFreedomStudio/sifive_hifive1_revb_hello/bsp/build/debug/./metal/machine.h:507 (discriminator 1)
20017d46:	fe842703          	lw	a4,-24(s0)
20017d4a:	47b1                	li	a5,12
20017d4c:	00f71463          	bne	a4,a5,20017d54 <__metal_driver_sifive_gpio0_interrupt_lines+0x15c>
/home/nicoladgg/wsFreedomStudio/sifive_hifive1_revb_hello/bsp/build/debug/./metal/machine.h:508
20017d50:	47d1                	li	a5,20
20017d52:	aaf5                	j	20017f4e <__metal_driver_sifive_gpio0_interrupt_lines+0x356>
/home/nicoladgg/wsFreedomStudio/sifive_hifive1_revb_hello/bsp/build/debug/./metal/machine.h:510
20017d54:	fec42703          	lw	a4,-20(s0)
20017d58:	82018793          	addi	a5,gp,-2016 # 80000ac0 <__metal_dt_gpio_10012000>
20017d5c:	00f71963          	bne	a4,a5,20017d6e <__metal_driver_sifive_gpio0_interrupt_lines+0x176>
/home/nicoladgg/wsFreedomStudio/sifive_hifive1_revb_hello/bsp/build/debug/./metal/machine.h:510 (discriminator 1)
20017d60:	fe842703          	lw	a4,-24(s0)
20017d64:	47b5                	li	a5,13
20017d66:	00f71463          	bne	a4,a5,20017d6e <__metal_driver_sifive_gpio0_interrupt_lines+0x176>
/home/nicoladgg/wsFreedomStudio/sifive_hifive1_revb_hello/bsp/build/debug/./metal/machine.h:511
20017d6a:	47d5                	li	a5,21
20017d6c:	a2cd                	j	20017f4e <__metal_driver_sifive_gpio0_interrupt_lines+0x356>
/home/nicoladgg/wsFreedomStudio/sifive_hifive1_revb_hello/bsp/build/debug/./metal/machine.h:513
20017d6e:	fec42703          	lw	a4,-20(s0)
20017d72:	82018793          	addi	a5,gp,-2016 # 80000ac0 <__metal_dt_gpio_10012000>
20017d76:	00f71963          	bne	a4,a5,20017d88 <__metal_driver_sifive_gpio0_interrupt_lines+0x190>
/home/nicoladgg/wsFreedomStudio/sifive_hifive1_revb_hello/bsp/build/debug/./metal/machine.h:513 (discriminator 1)
20017d7a:	fe842703          	lw	a4,-24(s0)
20017d7e:	47b9                	li	a5,14
20017d80:	00f71463          	bne	a4,a5,20017d88 <__metal_driver_sifive_gpio0_interrupt_lines+0x190>
/home/nicoladgg/wsFreedomStudio/sifive_hifive1_revb_hello/bsp/build/debug/./metal/machine.h:514
20017d84:	47d9                	li	a5,22
20017d86:	a2e1                	j	20017f4e <__metal_driver_sifive_gpio0_interrupt_lines+0x356>
/home/nicoladgg/wsFreedomStudio/sifive_hifive1_revb_hello/bsp/build/debug/./metal/machine.h:516
20017d88:	fec42703          	lw	a4,-20(s0)
20017d8c:	82018793          	addi	a5,gp,-2016 # 80000ac0 <__metal_dt_gpio_10012000>
20017d90:	00f71963          	bne	a4,a5,20017da2 <__metal_driver_sifive_gpio0_interrupt_lines+0x1aa>
/home/nicoladgg/wsFreedomStudio/sifive_hifive1_revb_hello/bsp/build/debug/./metal/machine.h:516 (discriminator 1)
20017d94:	fe842703          	lw	a4,-24(s0)
20017d98:	47bd                	li	a5,15
20017d9a:	00f71463          	bne	a4,a5,20017da2 <__metal_driver_sifive_gpio0_interrupt_lines+0x1aa>
/home/nicoladgg/wsFreedomStudio/sifive_hifive1_revb_hello/bsp/build/debug/./metal/machine.h:517
20017d9e:	47dd                	li	a5,23
20017da0:	a27d                	j	20017f4e <__metal_driver_sifive_gpio0_interrupt_lines+0x356>
/home/nicoladgg/wsFreedomStudio/sifive_hifive1_revb_hello/bsp/build/debug/./metal/machine.h:519
20017da2:	fec42703          	lw	a4,-20(s0)
20017da6:	82018793          	addi	a5,gp,-2016 # 80000ac0 <__metal_dt_gpio_10012000>
20017daa:	00f71963          	bne	a4,a5,20017dbc <__metal_driver_sifive_gpio0_interrupt_lines+0x1c4>
/home/nicoladgg/wsFreedomStudio/sifive_hifive1_revb_hello/bsp/build/debug/./metal/machine.h:519 (discriminator 1)
20017dae:	fe842703          	lw	a4,-24(s0)
20017db2:	47c1                	li	a5,16
20017db4:	00f71463          	bne	a4,a5,20017dbc <__metal_driver_sifive_gpio0_interrupt_lines+0x1c4>
/home/nicoladgg/wsFreedomStudio/sifive_hifive1_revb_hello/bsp/build/debug/./metal/machine.h:520
20017db8:	47e1                	li	a5,24
20017dba:	aa51                	j	20017f4e <__metal_driver_sifive_gpio0_interrupt_lines+0x356>
/home/nicoladgg/wsFreedomStudio/sifive_hifive1_revb_hello/bsp/build/debug/./metal/machine.h:522
20017dbc:	fec42703          	lw	a4,-20(s0)
20017dc0:	82018793          	addi	a5,gp,-2016 # 80000ac0 <__metal_dt_gpio_10012000>
20017dc4:	00f71963          	bne	a4,a5,20017dd6 <__metal_driver_sifive_gpio0_interrupt_lines+0x1de>
/home/nicoladgg/wsFreedomStudio/sifive_hifive1_revb_hello/bsp/build/debug/./metal/machine.h:522 (discriminator 1)
20017dc8:	fe842703          	lw	a4,-24(s0)
20017dcc:	47c5                	li	a5,17
20017dce:	00f71463          	bne	a4,a5,20017dd6 <__metal_driver_sifive_gpio0_interrupt_lines+0x1de>
/home/nicoladgg/wsFreedomStudio/sifive_hifive1_revb_hello/bsp/build/debug/./metal/machine.h:523
20017dd2:	47e5                	li	a5,25
20017dd4:	aaad                	j	20017f4e <__metal_driver_sifive_gpio0_interrupt_lines+0x356>
/home/nicoladgg/wsFreedomStudio/sifive_hifive1_revb_hello/bsp/build/debug/./metal/machine.h:525
20017dd6:	fec42703          	lw	a4,-20(s0)
20017dda:	82018793          	addi	a5,gp,-2016 # 80000ac0 <__metal_dt_gpio_10012000>
20017dde:	00f71963          	bne	a4,a5,20017df0 <__metal_driver_sifive_gpio0_interrupt_lines+0x1f8>
/home/nicoladgg/wsFreedomStudio/sifive_hifive1_revb_hello/bsp/build/debug/./metal/machine.h:525 (discriminator 1)
20017de2:	fe842703          	lw	a4,-24(s0)
20017de6:	47c9                	li	a5,18
20017de8:	00f71463          	bne	a4,a5,20017df0 <__metal_driver_sifive_gpio0_interrupt_lines+0x1f8>
/home/nicoladgg/wsFreedomStudio/sifive_hifive1_revb_hello/bsp/build/debug/./metal/machine.h:526
20017dec:	47e9                	li	a5,26
20017dee:	a285                	j	20017f4e <__metal_driver_sifive_gpio0_interrupt_lines+0x356>
/home/nicoladgg/wsFreedomStudio/sifive_hifive1_revb_hello/bsp/build/debug/./metal/machine.h:528
20017df0:	fec42703          	lw	a4,-20(s0)
20017df4:	82018793          	addi	a5,gp,-2016 # 80000ac0 <__metal_dt_gpio_10012000>
20017df8:	00f71963          	bne	a4,a5,20017e0a <__metal_driver_sifive_gpio0_interrupt_lines+0x212>
/home/nicoladgg/wsFreedomStudio/sifive_hifive1_revb_hello/bsp/build/debug/./metal/machine.h:528 (discriminator 1)
20017dfc:	fe842703          	lw	a4,-24(s0)
20017e00:	47cd                	li	a5,19
20017e02:	00f71463          	bne	a4,a5,20017e0a <__metal_driver_sifive_gpio0_interrupt_lines+0x212>
/home/nicoladgg/wsFreedomStudio/sifive_hifive1_revb_hello/bsp/build/debug/./metal/machine.h:529
20017e06:	47ed                	li	a5,27
20017e08:	a299                	j	20017f4e <__metal_driver_sifive_gpio0_interrupt_lines+0x356>
/home/nicoladgg/wsFreedomStudio/sifive_hifive1_revb_hello/bsp/build/debug/./metal/machine.h:531
20017e0a:	fec42703          	lw	a4,-20(s0)
20017e0e:	82018793          	addi	a5,gp,-2016 # 80000ac0 <__metal_dt_gpio_10012000>
20017e12:	00f71963          	bne	a4,a5,20017e24 <__metal_driver_sifive_gpio0_interrupt_lines+0x22c>
/home/nicoladgg/wsFreedomStudio/sifive_hifive1_revb_hello/bsp/build/debug/./metal/machine.h:531 (discriminator 1)
20017e16:	fe842703          	lw	a4,-24(s0)
20017e1a:	47d1                	li	a5,20
20017e1c:	00f71463          	bne	a4,a5,20017e24 <__metal_driver_sifive_gpio0_interrupt_lines+0x22c>
/home/nicoladgg/wsFreedomStudio/sifive_hifive1_revb_hello/bsp/build/debug/./metal/machine.h:532
20017e20:	47f1                	li	a5,28
20017e22:	a235                	j	20017f4e <__metal_driver_sifive_gpio0_interrupt_lines+0x356>
/home/nicoladgg/wsFreedomStudio/sifive_hifive1_revb_hello/bsp/build/debug/./metal/machine.h:534
20017e24:	fec42703          	lw	a4,-20(s0)
20017e28:	82018793          	addi	a5,gp,-2016 # 80000ac0 <__metal_dt_gpio_10012000>
20017e2c:	00f71963          	bne	a4,a5,20017e3e <__metal_driver_sifive_gpio0_interrupt_lines+0x246>
/home/nicoladgg/wsFreedomStudio/sifive_hifive1_revb_hello/bsp/build/debug/./metal/machine.h:534 (discriminator 1)
20017e30:	fe842703          	lw	a4,-24(s0)
20017e34:	47d5                	li	a5,21
20017e36:	00f71463          	bne	a4,a5,20017e3e <__metal_driver_sifive_gpio0_interrupt_lines+0x246>
/home/nicoladgg/wsFreedomStudio/sifive_hifive1_revb_hello/bsp/build/debug/./metal/machine.h:535
20017e3a:	47f5                	li	a5,29
20017e3c:	aa09                	j	20017f4e <__metal_driver_sifive_gpio0_interrupt_lines+0x356>
/home/nicoladgg/wsFreedomStudio/sifive_hifive1_revb_hello/bsp/build/debug/./metal/machine.h:537
20017e3e:	fec42703          	lw	a4,-20(s0)
20017e42:	82018793          	addi	a5,gp,-2016 # 80000ac0 <__metal_dt_gpio_10012000>
20017e46:	00f71963          	bne	a4,a5,20017e58 <__metal_driver_sifive_gpio0_interrupt_lines+0x260>
/home/nicoladgg/wsFreedomStudio/sifive_hifive1_revb_hello/bsp/build/debug/./metal/machine.h:537 (discriminator 1)
20017e4a:	fe842703          	lw	a4,-24(s0)
20017e4e:	47d9                	li	a5,22
20017e50:	00f71463          	bne	a4,a5,20017e58 <__metal_driver_sifive_gpio0_interrupt_lines+0x260>
/home/nicoladgg/wsFreedomStudio/sifive_hifive1_revb_hello/bsp/build/debug/./metal/machine.h:538
20017e54:	47f9                	li	a5,30
20017e56:	a8e5                	j	20017f4e <__metal_driver_sifive_gpio0_interrupt_lines+0x356>
/home/nicoladgg/wsFreedomStudio/sifive_hifive1_revb_hello/bsp/build/debug/./metal/machine.h:540
20017e58:	fec42703          	lw	a4,-20(s0)
20017e5c:	82018793          	addi	a5,gp,-2016 # 80000ac0 <__metal_dt_gpio_10012000>
20017e60:	00f71963          	bne	a4,a5,20017e72 <__metal_driver_sifive_gpio0_interrupt_lines+0x27a>
/home/nicoladgg/wsFreedomStudio/sifive_hifive1_revb_hello/bsp/build/debug/./metal/machine.h:540 (discriminator 1)
20017e64:	fe842703          	lw	a4,-24(s0)
20017e68:	47dd                	li	a5,23
20017e6a:	00f71463          	bne	a4,a5,20017e72 <__metal_driver_sifive_gpio0_interrupt_lines+0x27a>
/home/nicoladgg/wsFreedomStudio/sifive_hifive1_revb_hello/bsp/build/debug/./metal/machine.h:541
20017e6e:	47fd                	li	a5,31
20017e70:	a8f9                	j	20017f4e <__metal_driver_sifive_gpio0_interrupt_lines+0x356>
/home/nicoladgg/wsFreedomStudio/sifive_hifive1_revb_hello/bsp/build/debug/./metal/machine.h:543
20017e72:	fec42703          	lw	a4,-20(s0)
20017e76:	82018793          	addi	a5,gp,-2016 # 80000ac0 <__metal_dt_gpio_10012000>
20017e7a:	00f71a63          	bne	a4,a5,20017e8e <__metal_driver_sifive_gpio0_interrupt_lines+0x296>
/home/nicoladgg/wsFreedomStudio/sifive_hifive1_revb_hello/bsp/build/debug/./metal/machine.h:543 (discriminator 1)
20017e7e:	fe842703          	lw	a4,-24(s0)
20017e82:	47e1                	li	a5,24
20017e84:	00f71563          	bne	a4,a5,20017e8e <__metal_driver_sifive_gpio0_interrupt_lines+0x296>
/home/nicoladgg/wsFreedomStudio/sifive_hifive1_revb_hello/bsp/build/debug/./metal/machine.h:544
20017e88:	02000793          	li	a5,32
20017e8c:	a0c9                	j	20017f4e <__metal_driver_sifive_gpio0_interrupt_lines+0x356>
/home/nicoladgg/wsFreedomStudio/sifive_hifive1_revb_hello/bsp/build/debug/./metal/machine.h:546
20017e8e:	fec42703          	lw	a4,-20(s0)
20017e92:	82018793          	addi	a5,gp,-2016 # 80000ac0 <__metal_dt_gpio_10012000>
20017e96:	00f71a63          	bne	a4,a5,20017eaa <__metal_driver_sifive_gpio0_interrupt_lines+0x2b2>
/home/nicoladgg/wsFreedomStudio/sifive_hifive1_revb_hello/bsp/build/debug/./metal/machine.h:546 (discriminator 1)
20017e9a:	fe842703          	lw	a4,-24(s0)
20017e9e:	47e5                	li	a5,25
20017ea0:	00f71563          	bne	a4,a5,20017eaa <__metal_driver_sifive_gpio0_interrupt_lines+0x2b2>
/home/nicoladgg/wsFreedomStudio/sifive_hifive1_revb_hello/bsp/build/debug/./metal/machine.h:547
20017ea4:	02100793          	li	a5,33
20017ea8:	a05d                	j	20017f4e <__metal_driver_sifive_gpio0_interrupt_lines+0x356>
/home/nicoladgg/wsFreedomStudio/sifive_hifive1_revb_hello/bsp/build/debug/./metal/machine.h:549
20017eaa:	fec42703          	lw	a4,-20(s0)
20017eae:	82018793          	addi	a5,gp,-2016 # 80000ac0 <__metal_dt_gpio_10012000>
20017eb2:	00f71a63          	bne	a4,a5,20017ec6 <__metal_driver_sifive_gpio0_interrupt_lines+0x2ce>
/home/nicoladgg/wsFreedomStudio/sifive_hifive1_revb_hello/bsp/build/debug/./metal/machine.h:549 (discriminator 1)
20017eb6:	fe842703          	lw	a4,-24(s0)
20017eba:	47e9                	li	a5,26
20017ebc:	00f71563          	bne	a4,a5,20017ec6 <__metal_driver_sifive_gpio0_interrupt_lines+0x2ce>
/home/nicoladgg/wsFreedomStudio/sifive_hifive1_revb_hello/bsp/build/debug/./metal/machine.h:550
20017ec0:	02200793          	li	a5,34
20017ec4:	a069                	j	20017f4e <__metal_driver_sifive_gpio0_interrupt_lines+0x356>
/home/nicoladgg/wsFreedomStudio/sifive_hifive1_revb_hello/bsp/build/debug/./metal/machine.h:552
20017ec6:	fec42703          	lw	a4,-20(s0)
20017eca:	82018793          	addi	a5,gp,-2016 # 80000ac0 <__metal_dt_gpio_10012000>
20017ece:	00f71a63          	bne	a4,a5,20017ee2 <__metal_driver_sifive_gpio0_interrupt_lines+0x2ea>
/home/nicoladgg/wsFreedomStudio/sifive_hifive1_revb_hello/bsp/build/debug/./metal/machine.h:552 (discriminator 1)
20017ed2:	fe842703          	lw	a4,-24(s0)
20017ed6:	47ed                	li	a5,27
20017ed8:	00f71563          	bne	a4,a5,20017ee2 <__metal_driver_sifive_gpio0_interrupt_lines+0x2ea>
/home/nicoladgg/wsFreedomStudio/sifive_hifive1_revb_hello/bsp/build/debug/./metal/machine.h:553
20017edc:	02300793          	li	a5,35
20017ee0:	a0bd                	j	20017f4e <__metal_driver_sifive_gpio0_interrupt_lines+0x356>
/home/nicoladgg/wsFreedomStudio/sifive_hifive1_revb_hello/bsp/build/debug/./metal/machine.h:555
20017ee2:	fec42703          	lw	a4,-20(s0)
20017ee6:	82018793          	addi	a5,gp,-2016 # 80000ac0 <__metal_dt_gpio_10012000>
20017eea:	00f71a63          	bne	a4,a5,20017efe <__metal_driver_sifive_gpio0_interrupt_lines+0x306>
/home/nicoladgg/wsFreedomStudio/sifive_hifive1_revb_hello/bsp/build/debug/./metal/machine.h:555 (discriminator 1)
20017eee:	fe842703          	lw	a4,-24(s0)
20017ef2:	47f1                	li	a5,28
20017ef4:	00f71563          	bne	a4,a5,20017efe <__metal_driver_sifive_gpio0_interrupt_lines+0x306>
/home/nicoladgg/wsFreedomStudio/sifive_hifive1_revb_hello/bsp/build/debug/./metal/machine.h:556
20017ef8:	02400793          	li	a5,36
20017efc:	a889                	j	20017f4e <__metal_driver_sifive_gpio0_interrupt_lines+0x356>
/home/nicoladgg/wsFreedomStudio/sifive_hifive1_revb_hello/bsp/build/debug/./metal/machine.h:558
20017efe:	fec42703          	lw	a4,-20(s0)
20017f02:	82018793          	addi	a5,gp,-2016 # 80000ac0 <__metal_dt_gpio_10012000>
20017f06:	00f71963          	bne	a4,a5,20017f18 <__metal_driver_sifive_gpio0_interrupt_lines+0x320>
/home/nicoladgg/wsFreedomStudio/sifive_hifive1_revb_hello/bsp/build/debug/./metal/machine.h:558 (discriminator 1)
20017f0a:	fe842703          	lw	a4,-24(s0)
20017f0e:	47f5                	li	a5,29
20017f10:	00f71463          	bne	a4,a5,20017f18 <__metal_driver_sifive_gpio0_interrupt_lines+0x320>
/home/nicoladgg/wsFreedomStudio/sifive_hifive1_revb_hello/bsp/build/debug/./metal/machine.h:559
20017f14:	47ed                	li	a5,27
20017f16:	a825                	j	20017f4e <__metal_driver_sifive_gpio0_interrupt_lines+0x356>
/home/nicoladgg/wsFreedomStudio/sifive_hifive1_revb_hello/bsp/build/debug/./metal/machine.h:561
20017f18:	fec42703          	lw	a4,-20(s0)
20017f1c:	82018793          	addi	a5,gp,-2016 # 80000ac0 <__metal_dt_gpio_10012000>
20017f20:	00f71963          	bne	a4,a5,20017f32 <__metal_driver_sifive_gpio0_interrupt_lines+0x33a>
/home/nicoladgg/wsFreedomStudio/sifive_hifive1_revb_hello/bsp/build/debug/./metal/machine.h:561 (discriminator 1)
20017f24:	fe842703          	lw	a4,-24(s0)
20017f28:	47f9                	li	a5,30
20017f2a:	00f71463          	bne	a4,a5,20017f32 <__metal_driver_sifive_gpio0_interrupt_lines+0x33a>
/home/nicoladgg/wsFreedomStudio/sifive_hifive1_revb_hello/bsp/build/debug/./metal/machine.h:562
20017f2e:	47f1                	li	a5,28
20017f30:	a839                	j	20017f4e <__metal_driver_sifive_gpio0_interrupt_lines+0x356>
/home/nicoladgg/wsFreedomStudio/sifive_hifive1_revb_hello/bsp/build/debug/./metal/machine.h:564
20017f32:	fec42703          	lw	a4,-20(s0)
20017f36:	82018793          	addi	a5,gp,-2016 # 80000ac0 <__metal_dt_gpio_10012000>
20017f3a:	00f71963          	bne	a4,a5,20017f4c <__metal_driver_sifive_gpio0_interrupt_lines+0x354>
/home/nicoladgg/wsFreedomStudio/sifive_hifive1_revb_hello/bsp/build/debug/./metal/machine.h:564 (discriminator 1)
20017f3e:	fe842703          	lw	a4,-24(s0)
20017f42:	47fd                	li	a5,31
20017f44:	00f71463          	bne	a4,a5,20017f4c <__metal_driver_sifive_gpio0_interrupt_lines+0x354>
/home/nicoladgg/wsFreedomStudio/sifive_hifive1_revb_hello/bsp/build/debug/./metal/machine.h:565
20017f48:	47f5                	li	a5,29
20017f4a:	a011                	j	20017f4e <__metal_driver_sifive_gpio0_interrupt_lines+0x356>
/home/nicoladgg/wsFreedomStudio/sifive_hifive1_revb_hello/bsp/build/debug/./metal/machine.h:568
20017f4c:	4781                	li	a5,0
/home/nicoladgg/wsFreedomStudio/sifive_hifive1_revb_hello/bsp/build/debug/./metal/machine.h:570
20017f4e:	853e                	mv	a0,a5
20017f50:	4472                	lw	s0,28(sp)
20017f52:	6105                	addi	sp,sp,32
20017f54:	8082                	ret

20017f56 <__metal_driver_sifive_gpio0_enable_input>:
__metal_driver_sifive_gpio0_enable_input():
/home/nicoladgg/wsFreedomStudio/sifive_hifive1_revb_hello/freedom-metal/src/drivers/sifive_gpio0.c:13
20017f56:	7179                	addi	sp,sp,-48
20017f58:	d606                	sw	ra,44(sp)
20017f5a:	d422                	sw	s0,40(sp)
20017f5c:	1800                	addi	s0,sp,48
20017f5e:	fca42e23          	sw	a0,-36(s0)
20017f62:	fcb42c23          	sw	a1,-40(s0)
/home/nicoladgg/wsFreedomStudio/sifive_hifive1_revb_hello/freedom-metal/src/drivers/sifive_gpio0.c:14
20017f66:	fdc42503          	lw	a0,-36(s0)
20017f6a:	c3fff0ef          	jal	ra,20017ba8 <__metal_driver_sifive_gpio0_base>
20017f6e:	87aa                	mv	a5,a0
20017f70:	fef42623          	sw	a5,-20(s0)
/home/nicoladgg/wsFreedomStudio/sifive_hifive1_revb_hello/freedom-metal/src/drivers/sifive_gpio0.c:17
20017f74:	fec42783          	lw	a5,-20(s0)
20017f78:	0791                	addi	a5,a5,4
20017f7a:	4398                	lw	a4,0(a5)
20017f7c:	fd842783          	lw	a5,-40(s0)
20017f80:	fec42683          	lw	a3,-20(s0)
20017f84:	0691                	addi	a3,a3,4
20017f86:	8fd9                	or	a5,a5,a4
20017f88:	c29c                	sw	a5,0(a3)
/home/nicoladgg/wsFreedomStudio/sifive_hifive1_revb_hello/freedom-metal/src/drivers/sifive_gpio0.c:19
20017f8a:	4781                	li	a5,0
/home/nicoladgg/wsFreedomStudio/sifive_hifive1_revb_hello/freedom-metal/src/drivers/sifive_gpio0.c:20
20017f8c:	853e                	mv	a0,a5
20017f8e:	50b2                	lw	ra,44(sp)
20017f90:	5422                	lw	s0,40(sp)
20017f92:	6145                	addi	sp,sp,48
20017f94:	8082                	ret

20017f96 <__metal_driver_sifive_gpio0_disable_input>:
__metal_driver_sifive_gpio0_disable_input():
/home/nicoladgg/wsFreedomStudio/sifive_hifive1_revb_hello/freedom-metal/src/drivers/sifive_gpio0.c:23
20017f96:	7179                	addi	sp,sp,-48
20017f98:	d606                	sw	ra,44(sp)
20017f9a:	d422                	sw	s0,40(sp)
20017f9c:	1800                	addi	s0,sp,48
20017f9e:	fca42e23          	sw	a0,-36(s0)
20017fa2:	fcb42c23          	sw	a1,-40(s0)
/home/nicoladgg/wsFreedomStudio/sifive_hifive1_revb_hello/freedom-metal/src/drivers/sifive_gpio0.c:24
20017fa6:	fdc42503          	lw	a0,-36(s0)
20017faa:	bffff0ef          	jal	ra,20017ba8 <__metal_driver_sifive_gpio0_base>
20017fae:	87aa                	mv	a5,a0
20017fb0:	fef42623          	sw	a5,-20(s0)
/home/nicoladgg/wsFreedomStudio/sifive_hifive1_revb_hello/freedom-metal/src/drivers/sifive_gpio0.c:27
20017fb4:	fec42783          	lw	a5,-20(s0)
20017fb8:	0791                	addi	a5,a5,4
20017fba:	439c                	lw	a5,0(a5)
20017fbc:	fd842703          	lw	a4,-40(s0)
20017fc0:	fff74713          	not	a4,a4
20017fc4:	86ba                	mv	a3,a4
20017fc6:	fec42703          	lw	a4,-20(s0)
20017fca:	0711                	addi	a4,a4,4
20017fcc:	8ff5                	and	a5,a5,a3
20017fce:	c31c                	sw	a5,0(a4)
/home/nicoladgg/wsFreedomStudio/sifive_hifive1_revb_hello/freedom-metal/src/drivers/sifive_gpio0.c:29
20017fd0:	4781                	li	a5,0
/home/nicoladgg/wsFreedomStudio/sifive_hifive1_revb_hello/freedom-metal/src/drivers/sifive_gpio0.c:30
20017fd2:	853e                	mv	a0,a5
20017fd4:	50b2                	lw	ra,44(sp)
20017fd6:	5422                	lw	s0,40(sp)
20017fd8:	6145                	addi	sp,sp,48
20017fda:	8082                	ret

20017fdc <__metal_driver_sifive_gpio0_input>:
__metal_driver_sifive_gpio0_input():
/home/nicoladgg/wsFreedomStudio/sifive_hifive1_revb_hello/freedom-metal/src/drivers/sifive_gpio0.c:32
20017fdc:	7179                	addi	sp,sp,-48
20017fde:	d606                	sw	ra,44(sp)
20017fe0:	d422                	sw	s0,40(sp)
20017fe2:	1800                	addi	s0,sp,48
20017fe4:	fca42e23          	sw	a0,-36(s0)
/home/nicoladgg/wsFreedomStudio/sifive_hifive1_revb_hello/freedom-metal/src/drivers/sifive_gpio0.c:33
20017fe8:	fdc42503          	lw	a0,-36(s0)
20017fec:	bbdff0ef          	jal	ra,20017ba8 <__metal_driver_sifive_gpio0_base>
20017ff0:	87aa                	mv	a5,a0
20017ff2:	fef42623          	sw	a5,-20(s0)
/home/nicoladgg/wsFreedomStudio/sifive_hifive1_revb_hello/freedom-metal/src/drivers/sifive_gpio0.c:35
20017ff6:	fec42783          	lw	a5,-20(s0)
20017ffa:	439c                	lw	a5,0(a5)
/home/nicoladgg/wsFreedomStudio/sifive_hifive1_revb_hello/freedom-metal/src/drivers/sifive_gpio0.c:37
20017ffc:	853e                	mv	a0,a5
20017ffe:	50b2                	lw	ra,44(sp)
20018000:	5422                	lw	s0,40(sp)
20018002:	6145                	addi	sp,sp,48
20018004:	8082                	ret

20018006 <__metal_driver_sifive_gpio0_output>:
__metal_driver_sifive_gpio0_output():
/home/nicoladgg/wsFreedomStudio/sifive_hifive1_revb_hello/freedom-metal/src/drivers/sifive_gpio0.c:39
20018006:	7179                	addi	sp,sp,-48
20018008:	d606                	sw	ra,44(sp)
2001800a:	d422                	sw	s0,40(sp)
2001800c:	1800                	addi	s0,sp,48
2001800e:	fca42e23          	sw	a0,-36(s0)
/home/nicoladgg/wsFreedomStudio/sifive_hifive1_revb_hello/freedom-metal/src/drivers/sifive_gpio0.c:40
20018012:	fdc42503          	lw	a0,-36(s0)
20018016:	b93ff0ef          	jal	ra,20017ba8 <__metal_driver_sifive_gpio0_base>
2001801a:	87aa                	mv	a5,a0
2001801c:	fef42623          	sw	a5,-20(s0)
/home/nicoladgg/wsFreedomStudio/sifive_hifive1_revb_hello/freedom-metal/src/drivers/sifive_gpio0.c:42
20018020:	fec42783          	lw	a5,-20(s0)
20018024:	07b1                	addi	a5,a5,12
20018026:	439c                	lw	a5,0(a5)
/home/nicoladgg/wsFreedomStudio/sifive_hifive1_revb_hello/freedom-metal/src/drivers/sifive_gpio0.c:44
20018028:	853e                	mv	a0,a5
2001802a:	50b2                	lw	ra,44(sp)
2001802c:	5422                	lw	s0,40(sp)
2001802e:	6145                	addi	sp,sp,48
20018030:	8082                	ret

20018032 <__metal_driver_sifive_gpio0_disable_output>:
__metal_driver_sifive_gpio0_disable_output():
/home/nicoladgg/wsFreedomStudio/sifive_hifive1_revb_hello/freedom-metal/src/drivers/sifive_gpio0.c:47
20018032:	7179                	addi	sp,sp,-48
20018034:	d606                	sw	ra,44(sp)
20018036:	d422                	sw	s0,40(sp)
20018038:	1800                	addi	s0,sp,48
2001803a:	fca42e23          	sw	a0,-36(s0)
2001803e:	fcb42c23          	sw	a1,-40(s0)
/home/nicoladgg/wsFreedomStudio/sifive_hifive1_revb_hello/freedom-metal/src/drivers/sifive_gpio0.c:48
20018042:	fdc42503          	lw	a0,-36(s0)
20018046:	b63ff0ef          	jal	ra,20017ba8 <__metal_driver_sifive_gpio0_base>
2001804a:	87aa                	mv	a5,a0
2001804c:	fef42623          	sw	a5,-20(s0)
/home/nicoladgg/wsFreedomStudio/sifive_hifive1_revb_hello/freedom-metal/src/drivers/sifive_gpio0.c:51
20018050:	fec42783          	lw	a5,-20(s0)
20018054:	07a1                	addi	a5,a5,8
20018056:	439c                	lw	a5,0(a5)
20018058:	fd842703          	lw	a4,-40(s0)
2001805c:	fff74713          	not	a4,a4
20018060:	86ba                	mv	a3,a4
20018062:	fec42703          	lw	a4,-20(s0)
20018066:	0721                	addi	a4,a4,8
20018068:	8ff5                	and	a5,a5,a3
2001806a:	c31c                	sw	a5,0(a4)
/home/nicoladgg/wsFreedomStudio/sifive_hifive1_revb_hello/freedom-metal/src/drivers/sifive_gpio0.c:53
2001806c:	4781                	li	a5,0
/home/nicoladgg/wsFreedomStudio/sifive_hifive1_revb_hello/freedom-metal/src/drivers/sifive_gpio0.c:54
2001806e:	853e                	mv	a0,a5
20018070:	50b2                	lw	ra,44(sp)
20018072:	5422                	lw	s0,40(sp)
20018074:	6145                	addi	sp,sp,48
20018076:	8082                	ret

20018078 <__metal_driver_sifive_gpio0_enable_output>:
__metal_driver_sifive_gpio0_enable_output():
/home/nicoladgg/wsFreedomStudio/sifive_hifive1_revb_hello/freedom-metal/src/drivers/sifive_gpio0.c:57
20018078:	7179                	addi	sp,sp,-48
2001807a:	d606                	sw	ra,44(sp)
2001807c:	d422                	sw	s0,40(sp)
2001807e:	1800                	addi	s0,sp,48
20018080:	fca42e23          	sw	a0,-36(s0)
20018084:	fcb42c23          	sw	a1,-40(s0)
/home/nicoladgg/wsFreedomStudio/sifive_hifive1_revb_hello/freedom-metal/src/drivers/sifive_gpio0.c:58
20018088:	fdc42503          	lw	a0,-36(s0)
2001808c:	b1dff0ef          	jal	ra,20017ba8 <__metal_driver_sifive_gpio0_base>
20018090:	87aa                	mv	a5,a0
20018092:	fef42623          	sw	a5,-20(s0)
/home/nicoladgg/wsFreedomStudio/sifive_hifive1_revb_hello/freedom-metal/src/drivers/sifive_gpio0.c:61
20018096:	fec42783          	lw	a5,-20(s0)
2001809a:	07a1                	addi	a5,a5,8
2001809c:	4398                	lw	a4,0(a5)
2001809e:	fd842783          	lw	a5,-40(s0)
200180a2:	fec42683          	lw	a3,-20(s0)
200180a6:	06a1                	addi	a3,a3,8
200180a8:	8fd9                	or	a5,a5,a4
200180aa:	c29c                	sw	a5,0(a3)
/home/nicoladgg/wsFreedomStudio/sifive_hifive1_revb_hello/freedom-metal/src/drivers/sifive_gpio0.c:63
200180ac:	4781                	li	a5,0
/home/nicoladgg/wsFreedomStudio/sifive_hifive1_revb_hello/freedom-metal/src/drivers/sifive_gpio0.c:64
200180ae:	853e                	mv	a0,a5
200180b0:	50b2                	lw	ra,44(sp)
200180b2:	5422                	lw	s0,40(sp)
200180b4:	6145                	addi	sp,sp,48
200180b6:	8082                	ret

200180b8 <__metal_driver_sifive_gpio0_output_set>:
__metal_driver_sifive_gpio0_output_set():
/home/nicoladgg/wsFreedomStudio/sifive_hifive1_revb_hello/freedom-metal/src/drivers/sifive_gpio0.c:67
200180b8:	7179                	addi	sp,sp,-48
200180ba:	d606                	sw	ra,44(sp)
200180bc:	d422                	sw	s0,40(sp)
200180be:	1800                	addi	s0,sp,48
200180c0:	fca42e23          	sw	a0,-36(s0)
200180c4:	fcb42c23          	sw	a1,-40(s0)
/home/nicoladgg/wsFreedomStudio/sifive_hifive1_revb_hello/freedom-metal/src/drivers/sifive_gpio0.c:68
200180c8:	fdc42503          	lw	a0,-36(s0)
200180cc:	addff0ef          	jal	ra,20017ba8 <__metal_driver_sifive_gpio0_base>
200180d0:	87aa                	mv	a5,a0
200180d2:	fef42623          	sw	a5,-20(s0)
/home/nicoladgg/wsFreedomStudio/sifive_hifive1_revb_hello/freedom-metal/src/drivers/sifive_gpio0.c:70
200180d6:	fec42783          	lw	a5,-20(s0)
200180da:	07b1                	addi	a5,a5,12
200180dc:	4398                	lw	a4,0(a5)
200180de:	fd842783          	lw	a5,-40(s0)
200180e2:	fec42683          	lw	a3,-20(s0)
200180e6:	06b1                	addi	a3,a3,12
200180e8:	8fd9                	or	a5,a5,a4
200180ea:	c29c                	sw	a5,0(a3)
/home/nicoladgg/wsFreedomStudio/sifive_hifive1_revb_hello/freedom-metal/src/drivers/sifive_gpio0.c:73
200180ec:	4781                	li	a5,0
/home/nicoladgg/wsFreedomStudio/sifive_hifive1_revb_hello/freedom-metal/src/drivers/sifive_gpio0.c:74
200180ee:	853e                	mv	a0,a5
200180f0:	50b2                	lw	ra,44(sp)
200180f2:	5422                	lw	s0,40(sp)
200180f4:	6145                	addi	sp,sp,48
200180f6:	8082                	ret

200180f8 <__metal_driver_sifive_gpio0_output_clear>:
__metal_driver_sifive_gpio0_output_clear():
/home/nicoladgg/wsFreedomStudio/sifive_hifive1_revb_hello/freedom-metal/src/drivers/sifive_gpio0.c:77
200180f8:	7179                	addi	sp,sp,-48
200180fa:	d606                	sw	ra,44(sp)
200180fc:	d422                	sw	s0,40(sp)
200180fe:	1800                	addi	s0,sp,48
20018100:	fca42e23          	sw	a0,-36(s0)
20018104:	fcb42c23          	sw	a1,-40(s0)
/home/nicoladgg/wsFreedomStudio/sifive_hifive1_revb_hello/freedom-metal/src/drivers/sifive_gpio0.c:78
20018108:	fdc42503          	lw	a0,-36(s0)
2001810c:	a9dff0ef          	jal	ra,20017ba8 <__metal_driver_sifive_gpio0_base>
20018110:	87aa                	mv	a5,a0
20018112:	fef42623          	sw	a5,-20(s0)
/home/nicoladgg/wsFreedomStudio/sifive_hifive1_revb_hello/freedom-metal/src/drivers/sifive_gpio0.c:80
20018116:	fec42783          	lw	a5,-20(s0)
2001811a:	07b1                	addi	a5,a5,12
2001811c:	439c                	lw	a5,0(a5)
/home/nicoladgg/wsFreedomStudio/sifive_hifive1_revb_hello/freedom-metal/src/drivers/sifive_gpio0.c:81
2001811e:	fd842703          	lw	a4,-40(s0)
20018122:	fff74713          	not	a4,a4
20018126:	86ba                	mv	a3,a4
/home/nicoladgg/wsFreedomStudio/sifive_hifive1_revb_hello/freedom-metal/src/drivers/sifive_gpio0.c:80
20018128:	fec42703          	lw	a4,-20(s0)
2001812c:	0731                	addi	a4,a4,12
2001812e:	8ff5                	and	a5,a5,a3
20018130:	c31c                	sw	a5,0(a4)
/home/nicoladgg/wsFreedomStudio/sifive_hifive1_revb_hello/freedom-metal/src/drivers/sifive_gpio0.c:83
20018132:	4781                	li	a5,0
/home/nicoladgg/wsFreedomStudio/sifive_hifive1_revb_hello/freedom-metal/src/drivers/sifive_gpio0.c:84
20018134:	853e                	mv	a0,a5
20018136:	50b2                	lw	ra,44(sp)
20018138:	5422                	lw	s0,40(sp)
2001813a:	6145                	addi	sp,sp,48
2001813c:	8082                	ret

2001813e <__metal_driver_sifive_gpio0_output_toggle>:
__metal_driver_sifive_gpio0_output_toggle():
/home/nicoladgg/wsFreedomStudio/sifive_hifive1_revb_hello/freedom-metal/src/drivers/sifive_gpio0.c:87
2001813e:	7179                	addi	sp,sp,-48
20018140:	d606                	sw	ra,44(sp)
20018142:	d422                	sw	s0,40(sp)
20018144:	1800                	addi	s0,sp,48
20018146:	fca42e23          	sw	a0,-36(s0)
2001814a:	fcb42c23          	sw	a1,-40(s0)
/home/nicoladgg/wsFreedomStudio/sifive_hifive1_revb_hello/freedom-metal/src/drivers/sifive_gpio0.c:88
2001814e:	fdc42503          	lw	a0,-36(s0)
20018152:	a57ff0ef          	jal	ra,20017ba8 <__metal_driver_sifive_gpio0_base>
20018156:	87aa                	mv	a5,a0
20018158:	fef42623          	sw	a5,-20(s0)
/home/nicoladgg/wsFreedomStudio/sifive_hifive1_revb_hello/freedom-metal/src/drivers/sifive_gpio0.c:91
2001815c:	fec42783          	lw	a5,-20(s0)
20018160:	07b1                	addi	a5,a5,12
20018162:	4398                	lw	a4,0(a5)
/home/nicoladgg/wsFreedomStudio/sifive_hifive1_revb_hello/freedom-metal/src/drivers/sifive_gpio0.c:92
20018164:	fd842783          	lw	a5,-40(s0)
/home/nicoladgg/wsFreedomStudio/sifive_hifive1_revb_hello/freedom-metal/src/drivers/sifive_gpio0.c:90
20018168:	fec42683          	lw	a3,-20(s0)
2001816c:	06b1                	addi	a3,a3,12
/home/nicoladgg/wsFreedomStudio/sifive_hifive1_revb_hello/freedom-metal/src/drivers/sifive_gpio0.c:92
2001816e:	8fb9                	xor	a5,a5,a4
/home/nicoladgg/wsFreedomStudio/sifive_hifive1_revb_hello/freedom-metal/src/drivers/sifive_gpio0.c:90
20018170:	c29c                	sw	a5,0(a3)
/home/nicoladgg/wsFreedomStudio/sifive_hifive1_revb_hello/freedom-metal/src/drivers/sifive_gpio0.c:95
20018172:	4781                	li	a5,0
/home/nicoladgg/wsFreedomStudio/sifive_hifive1_revb_hello/freedom-metal/src/drivers/sifive_gpio0.c:96
20018174:	853e                	mv	a0,a5
20018176:	50b2                	lw	ra,44(sp)
20018178:	5422                	lw	s0,40(sp)
2001817a:	6145                	addi	sp,sp,48
2001817c:	8082                	ret

2001817e <__metal_driver_sifive_gpio0_enable_io>:
__metal_driver_sifive_gpio0_enable_io():
/home/nicoladgg/wsFreedomStudio/sifive_hifive1_revb_hello/freedom-metal/src/drivers/sifive_gpio0.c:99
2001817e:	7179                	addi	sp,sp,-48
20018180:	d606                	sw	ra,44(sp)
20018182:	d422                	sw	s0,40(sp)
20018184:	1800                	addi	s0,sp,48
20018186:	fca42e23          	sw	a0,-36(s0)
2001818a:	fcb42c23          	sw	a1,-40(s0)
2001818e:	fcc42a23          	sw	a2,-44(s0)
/home/nicoladgg/wsFreedomStudio/sifive_hifive1_revb_hello/freedom-metal/src/drivers/sifive_gpio0.c:100
20018192:	fdc42503          	lw	a0,-36(s0)
20018196:	a13ff0ef          	jal	ra,20017ba8 <__metal_driver_sifive_gpio0_base>
2001819a:	87aa                	mv	a5,a0
2001819c:	fef42623          	sw	a5,-20(s0)
/home/nicoladgg/wsFreedomStudio/sifive_hifive1_revb_hello/freedom-metal/src/drivers/sifive_gpio0.c:103
200181a0:	fec42783          	lw	a5,-20(s0)
200181a4:	03c78793          	addi	a5,a5,60
200181a8:	4398                	lw	a4,0(a5)
200181aa:	fd842783          	lw	a5,-40(s0)
200181ae:	fec42683          	lw	a3,-20(s0)
200181b2:	03c68693          	addi	a3,a3,60 # 7ff0003c <metal_segment_data_source_start+0x5fee6f74>
200181b6:	8fd9                	or	a5,a5,a4
200181b8:	c29c                	sw	a5,0(a3)
/home/nicoladgg/wsFreedomStudio/sifive_hifive1_revb_hello/freedom-metal/src/drivers/sifive_gpio0.c:104
200181ba:	fec42783          	lw	a5,-20(s0)
200181be:	03878793          	addi	a5,a5,56
200181c2:	4398                	lw	a4,0(a5)
200181c4:	fd442783          	lw	a5,-44(s0)
200181c8:	fec42683          	lw	a3,-20(s0)
200181cc:	03868693          	addi	a3,a3,56
200181d0:	8fd9                	or	a5,a5,a4
200181d2:	c29c                	sw	a5,0(a3)
/home/nicoladgg/wsFreedomStudio/sifive_hifive1_revb_hello/freedom-metal/src/drivers/sifive_gpio0.c:107
200181d4:	4781                	li	a5,0
/home/nicoladgg/wsFreedomStudio/sifive_hifive1_revb_hello/freedom-metal/src/drivers/sifive_gpio0.c:108
200181d6:	853e                	mv	a0,a5
200181d8:	50b2                	lw	ra,44(sp)
200181da:	5422                	lw	s0,40(sp)
200181dc:	6145                	addi	sp,sp,48
200181de:	8082                	ret

200181e0 <__metal_driver_sifive_gpio0_disable_io>:
__metal_driver_sifive_gpio0_disable_io():
/home/nicoladgg/wsFreedomStudio/sifive_hifive1_revb_hello/freedom-metal/src/drivers/sifive_gpio0.c:111
200181e0:	7179                	addi	sp,sp,-48
200181e2:	d606                	sw	ra,44(sp)
200181e4:	d422                	sw	s0,40(sp)
200181e6:	1800                	addi	s0,sp,48
200181e8:	fca42e23          	sw	a0,-36(s0)
200181ec:	fcb42c23          	sw	a1,-40(s0)
/home/nicoladgg/wsFreedomStudio/sifive_hifive1_revb_hello/freedom-metal/src/drivers/sifive_gpio0.c:112
200181f0:	fdc42503          	lw	a0,-36(s0)
200181f4:	9b5ff0ef          	jal	ra,20017ba8 <__metal_driver_sifive_gpio0_base>
200181f8:	87aa                	mv	a5,a0
200181fa:	fef42623          	sw	a5,-20(s0)
/home/nicoladgg/wsFreedomStudio/sifive_hifive1_revb_hello/freedom-metal/src/drivers/sifive_gpio0.c:114
200181fe:	fec42783          	lw	a5,-20(s0)
20018202:	03878793          	addi	a5,a5,56
20018206:	439c                	lw	a5,0(a5)
/home/nicoladgg/wsFreedomStudio/sifive_hifive1_revb_hello/freedom-metal/src/drivers/sifive_gpio0.c:115
20018208:	fd842703          	lw	a4,-40(s0)
2001820c:	fff74713          	not	a4,a4
20018210:	86ba                	mv	a3,a4
/home/nicoladgg/wsFreedomStudio/sifive_hifive1_revb_hello/freedom-metal/src/drivers/sifive_gpio0.c:114
20018212:	fec42703          	lw	a4,-20(s0)
20018216:	03870713          	addi	a4,a4,56
2001821a:	8ff5                	and	a5,a5,a3
2001821c:	c31c                	sw	a5,0(a4)
/home/nicoladgg/wsFreedomStudio/sifive_hifive1_revb_hello/freedom-metal/src/drivers/sifive_gpio0.c:117
2001821e:	4781                	li	a5,0
/home/nicoladgg/wsFreedomStudio/sifive_hifive1_revb_hello/freedom-metal/src/drivers/sifive_gpio0.c:118
20018220:	853e                	mv	a0,a5
20018222:	50b2                	lw	ra,44(sp)
20018224:	5422                	lw	s0,40(sp)
20018226:	6145                	addi	sp,sp,48
20018228:	8082                	ret

2001822a <__metal_driver_sifive_gpio0_config_int>:
__metal_driver_sifive_gpio0_config_int():
/home/nicoladgg/wsFreedomStudio/sifive_hifive1_revb_hello/freedom-metal/src/drivers/sifive_gpio0.c:121
2001822a:	7179                	addi	sp,sp,-48
2001822c:	d606                	sw	ra,44(sp)
2001822e:	d422                	sw	s0,40(sp)
20018230:	1800                	addi	s0,sp,48
20018232:	fca42e23          	sw	a0,-36(s0)
20018236:	fcb42c23          	sw	a1,-40(s0)
2001823a:	fcc42a23          	sw	a2,-44(s0)
/home/nicoladgg/wsFreedomStudio/sifive_hifive1_revb_hello/freedom-metal/src/drivers/sifive_gpio0.c:122
2001823e:	fdc42503          	lw	a0,-36(s0)
20018242:	967ff0ef          	jal	ra,20017ba8 <__metal_driver_sifive_gpio0_base>
20018246:	87aa                	mv	a5,a0
20018248:	fef42623          	sw	a5,-20(s0)
2001824c:	fd442703          	lw	a4,-44(s0)
20018250:	479d                	li	a5,7
20018252:	1ce7e963          	bltu	a5,a4,20018424 <__metal_driver_sifive_gpio0_config_int+0x1fa>
20018256:	fd442783          	lw	a5,-44(s0)
2001825a:	00279713          	slli	a4,a5,0x2
2001825e:	200117b7          	lui	a5,0x20011
20018262:	0cc78793          	addi	a5,a5,204 # 200110cc <__metal_driver_vtable_sifive_fe310_g000_pll+0xc>
20018266:	97ba                	add	a5,a5,a4
20018268:	439c                	lw	a5,0(a5)
2001826a:	8782                	jr	a5
/home/nicoladgg/wsFreedomStudio/sifive_hifive1_revb_hello/freedom-metal/src/drivers/sifive_gpio0.c:127
2001826c:	fec42783          	lw	a5,-20(s0)
20018270:	07e1                	addi	a5,a5,24
20018272:	439c                	lw	a5,0(a5)
20018274:	fd842703          	lw	a4,-40(s0)
20018278:	fff74713          	not	a4,a4
2001827c:	86ba                	mv	a3,a4
2001827e:	fec42703          	lw	a4,-20(s0)
20018282:	0761                	addi	a4,a4,24
20018284:	8ff5                	and	a5,a5,a3
20018286:	c31c                	sw	a5,0(a4)
/home/nicoladgg/wsFreedomStudio/sifive_hifive1_revb_hello/freedom-metal/src/drivers/sifive_gpio0.c:129
20018288:	fec42783          	lw	a5,-20(s0)
2001828c:	02078793          	addi	a5,a5,32
20018290:	439c                	lw	a5,0(a5)
20018292:	fd842703          	lw	a4,-40(s0)
20018296:	fff74713          	not	a4,a4
2001829a:	86ba                	mv	a3,a4
2001829c:	fec42703          	lw	a4,-20(s0)
200182a0:	02070713          	addi	a4,a4,32
200182a4:	8ff5                	and	a5,a5,a3
200182a6:	c31c                	sw	a5,0(a4)
/home/nicoladgg/wsFreedomStudio/sifive_hifive1_revb_hello/freedom-metal/src/drivers/sifive_gpio0.c:131
200182a8:	fec42783          	lw	a5,-20(s0)
200182ac:	02878793          	addi	a5,a5,40
200182b0:	439c                	lw	a5,0(a5)
200182b2:	fd842703          	lw	a4,-40(s0)
200182b6:	fff74713          	not	a4,a4
200182ba:	86ba                	mv	a3,a4
200182bc:	fec42703          	lw	a4,-20(s0)
200182c0:	02870713          	addi	a4,a4,40
200182c4:	8ff5                	and	a5,a5,a3
200182c6:	c31c                	sw	a5,0(a4)
/home/nicoladgg/wsFreedomStudio/sifive_hifive1_revb_hello/freedom-metal/src/drivers/sifive_gpio0.c:133
200182c8:	fec42783          	lw	a5,-20(s0)
200182cc:	03078793          	addi	a5,a5,48
200182d0:	439c                	lw	a5,0(a5)
200182d2:	fd842703          	lw	a4,-40(s0)
200182d6:	fff74713          	not	a4,a4
200182da:	86ba                	mv	a3,a4
200182dc:	fec42703          	lw	a4,-20(s0)
200182e0:	03070713          	addi	a4,a4,48
200182e4:	8ff5                	and	a5,a5,a3
200182e6:	c31c                	sw	a5,0(a4)
/home/nicoladgg/wsFreedomStudio/sifive_hifive1_revb_hello/freedom-metal/src/drivers/sifive_gpio0.c:134
200182e8:	aa35                	j	20018424 <__metal_driver_sifive_gpio0_config_int+0x1fa>
/home/nicoladgg/wsFreedomStudio/sifive_hifive1_revb_hello/freedom-metal/src/drivers/sifive_gpio0.c:137
200182ea:	fec42783          	lw	a5,-20(s0)
200182ee:	07e1                	addi	a5,a5,24
200182f0:	4398                	lw	a4,0(a5)
200182f2:	fd842783          	lw	a5,-40(s0)
200182f6:	fec42683          	lw	a3,-20(s0)
200182fa:	06e1                	addi	a3,a3,24
200182fc:	8fd9                	or	a5,a5,a4
200182fe:	c29c                	sw	a5,0(a3)
/home/nicoladgg/wsFreedomStudio/sifive_hifive1_revb_hello/freedom-metal/src/drivers/sifive_gpio0.c:138
20018300:	a215                	j	20018424 <__metal_driver_sifive_gpio0_config_int+0x1fa>
/home/nicoladgg/wsFreedomStudio/sifive_hifive1_revb_hello/freedom-metal/src/drivers/sifive_gpio0.c:141
20018302:	fec42783          	lw	a5,-20(s0)
20018306:	02078793          	addi	a5,a5,32
2001830a:	4398                	lw	a4,0(a5)
2001830c:	fd842783          	lw	a5,-40(s0)
20018310:	fec42683          	lw	a3,-20(s0)
20018314:	02068693          	addi	a3,a3,32
20018318:	8fd9                	or	a5,a5,a4
2001831a:	c29c                	sw	a5,0(a3)
/home/nicoladgg/wsFreedomStudio/sifive_hifive1_revb_hello/freedom-metal/src/drivers/sifive_gpio0.c:142
2001831c:	a221                	j	20018424 <__metal_driver_sifive_gpio0_config_int+0x1fa>
/home/nicoladgg/wsFreedomStudio/sifive_hifive1_revb_hello/freedom-metal/src/drivers/sifive_gpio0.c:145
2001831e:	fec42783          	lw	a5,-20(s0)
20018322:	07e1                	addi	a5,a5,24
20018324:	4398                	lw	a4,0(a5)
20018326:	fd842783          	lw	a5,-40(s0)
2001832a:	fec42683          	lw	a3,-20(s0)
2001832e:	06e1                	addi	a3,a3,24
20018330:	8fd9                	or	a5,a5,a4
20018332:	c29c                	sw	a5,0(a3)
/home/nicoladgg/wsFreedomStudio/sifive_hifive1_revb_hello/freedom-metal/src/drivers/sifive_gpio0.c:147
20018334:	fec42783          	lw	a5,-20(s0)
20018338:	02078793          	addi	a5,a5,32
2001833c:	4398                	lw	a4,0(a5)
2001833e:	fd842783          	lw	a5,-40(s0)
20018342:	fec42683          	lw	a3,-20(s0)
20018346:	02068693          	addi	a3,a3,32
2001834a:	8fd9                	or	a5,a5,a4
2001834c:	c29c                	sw	a5,0(a3)
/home/nicoladgg/wsFreedomStudio/sifive_hifive1_revb_hello/freedom-metal/src/drivers/sifive_gpio0.c:148
2001834e:	a8d9                	j	20018424 <__metal_driver_sifive_gpio0_config_int+0x1fa>
/home/nicoladgg/wsFreedomStudio/sifive_hifive1_revb_hello/freedom-metal/src/drivers/sifive_gpio0.c:151
20018350:	fec42783          	lw	a5,-20(s0)
20018354:	02878793          	addi	a5,a5,40
20018358:	4398                	lw	a4,0(a5)
2001835a:	fd842783          	lw	a5,-40(s0)
2001835e:	fec42683          	lw	a3,-20(s0)
20018362:	02868693          	addi	a3,a3,40
20018366:	8fd9                	or	a5,a5,a4
20018368:	c29c                	sw	a5,0(a3)
/home/nicoladgg/wsFreedomStudio/sifive_hifive1_revb_hello/freedom-metal/src/drivers/sifive_gpio0.c:152
2001836a:	a86d                	j	20018424 <__metal_driver_sifive_gpio0_config_int+0x1fa>
/home/nicoladgg/wsFreedomStudio/sifive_hifive1_revb_hello/freedom-metal/src/drivers/sifive_gpio0.c:155
2001836c:	fec42783          	lw	a5,-20(s0)
20018370:	03078793          	addi	a5,a5,48
20018374:	4398                	lw	a4,0(a5)
20018376:	fd842783          	lw	a5,-40(s0)
2001837a:	fec42683          	lw	a3,-20(s0)
2001837e:	03068693          	addi	a3,a3,48
20018382:	8fd9                	or	a5,a5,a4
20018384:	c29c                	sw	a5,0(a3)
/home/nicoladgg/wsFreedomStudio/sifive_hifive1_revb_hello/freedom-metal/src/drivers/sifive_gpio0.c:156
20018386:	a879                	j	20018424 <__metal_driver_sifive_gpio0_config_int+0x1fa>
/home/nicoladgg/wsFreedomStudio/sifive_hifive1_revb_hello/freedom-metal/src/drivers/sifive_gpio0.c:159
20018388:	fec42783          	lw	a5,-20(s0)
2001838c:	02878793          	addi	a5,a5,40
20018390:	4398                	lw	a4,0(a5)
20018392:	fd842783          	lw	a5,-40(s0)
20018396:	fec42683          	lw	a3,-20(s0)
2001839a:	02868693          	addi	a3,a3,40
2001839e:	8fd9                	or	a5,a5,a4
200183a0:	c29c                	sw	a5,0(a3)
/home/nicoladgg/wsFreedomStudio/sifive_hifive1_revb_hello/freedom-metal/src/drivers/sifive_gpio0.c:161
200183a2:	fec42783          	lw	a5,-20(s0)
200183a6:	03078793          	addi	a5,a5,48
200183aa:	4398                	lw	a4,0(a5)
200183ac:	fd842783          	lw	a5,-40(s0)
200183b0:	fec42683          	lw	a3,-20(s0)
200183b4:	03068693          	addi	a3,a3,48
200183b8:	8fd9                	or	a5,a5,a4
200183ba:	c29c                	sw	a5,0(a3)
/home/nicoladgg/wsFreedomStudio/sifive_hifive1_revb_hello/freedom-metal/src/drivers/sifive_gpio0.c:162
200183bc:	a0a5                	j	20018424 <__metal_driver_sifive_gpio0_config_int+0x1fa>
/home/nicoladgg/wsFreedomStudio/sifive_hifive1_revb_hello/freedom-metal/src/drivers/sifive_gpio0.c:165
200183be:	fec42783          	lw	a5,-20(s0)
200183c2:	07e1                	addi	a5,a5,24
200183c4:	4398                	lw	a4,0(a5)
200183c6:	fd842783          	lw	a5,-40(s0)
200183ca:	fec42683          	lw	a3,-20(s0)
200183ce:	06e1                	addi	a3,a3,24
200183d0:	8fd9                	or	a5,a5,a4
200183d2:	c29c                	sw	a5,0(a3)
/home/nicoladgg/wsFreedomStudio/sifive_hifive1_revb_hello/freedom-metal/src/drivers/sifive_gpio0.c:167
200183d4:	fec42783          	lw	a5,-20(s0)
200183d8:	02078793          	addi	a5,a5,32
200183dc:	4398                	lw	a4,0(a5)
200183de:	fd842783          	lw	a5,-40(s0)
200183e2:	fec42683          	lw	a3,-20(s0)
200183e6:	02068693          	addi	a3,a3,32
200183ea:	8fd9                	or	a5,a5,a4
200183ec:	c29c                	sw	a5,0(a3)
/home/nicoladgg/wsFreedomStudio/sifive_hifive1_revb_hello/freedom-metal/src/drivers/sifive_gpio0.c:169
200183ee:	fec42783          	lw	a5,-20(s0)
200183f2:	02878793          	addi	a5,a5,40
200183f6:	4398                	lw	a4,0(a5)
200183f8:	fd842783          	lw	a5,-40(s0)
200183fc:	fec42683          	lw	a3,-20(s0)
20018400:	02868693          	addi	a3,a3,40
20018404:	8fd9                	or	a5,a5,a4
20018406:	c29c                	sw	a5,0(a3)
/home/nicoladgg/wsFreedomStudio/sifive_hifive1_revb_hello/freedom-metal/src/drivers/sifive_gpio0.c:171
20018408:	fec42783          	lw	a5,-20(s0)
2001840c:	03078793          	addi	a5,a5,48
20018410:	4398                	lw	a4,0(a5)
20018412:	fd842783          	lw	a5,-40(s0)
20018416:	fec42683          	lw	a3,-20(s0)
2001841a:	03068693          	addi	a3,a3,48
2001841e:	8fd9                	or	a5,a5,a4
20018420:	c29c                	sw	a5,0(a3)
/home/nicoladgg/wsFreedomStudio/sifive_hifive1_revb_hello/freedom-metal/src/drivers/sifive_gpio0.c:172
20018422:	0001                	nop
/home/nicoladgg/wsFreedomStudio/sifive_hifive1_revb_hello/freedom-metal/src/drivers/sifive_gpio0.c:174
20018424:	4781                	li	a5,0
/home/nicoladgg/wsFreedomStudio/sifive_hifive1_revb_hello/freedom-metal/src/drivers/sifive_gpio0.c:175
20018426:	853e                	mv	a0,a5
20018428:	50b2                	lw	ra,44(sp)
2001842a:	5422                	lw	s0,40(sp)
2001842c:	6145                	addi	sp,sp,48
2001842e:	8082                	ret

20018430 <__metal_driver_sifive_gpio0_clear_int>:
__metal_driver_sifive_gpio0_clear_int():
/home/nicoladgg/wsFreedomStudio/sifive_hifive1_revb_hello/freedom-metal/src/drivers/sifive_gpio0.c:178
20018430:	7179                	addi	sp,sp,-48
20018432:	d606                	sw	ra,44(sp)
20018434:	d422                	sw	s0,40(sp)
20018436:	1800                	addi	s0,sp,48
20018438:	fca42e23          	sw	a0,-36(s0)
2001843c:	fcb42c23          	sw	a1,-40(s0)
20018440:	fcc42a23          	sw	a2,-44(s0)
/home/nicoladgg/wsFreedomStudio/sifive_hifive1_revb_hello/freedom-metal/src/drivers/sifive_gpio0.c:179
20018444:	fdc42503          	lw	a0,-36(s0)
20018448:	f60ff0ef          	jal	ra,20017ba8 <__metal_driver_sifive_gpio0_base>
2001844c:	87aa                	mv	a5,a0
2001844e:	fef42623          	sw	a5,-20(s0)
20018452:	fd442703          	lw	a4,-44(s0)
20018456:	479d                	li	a5,7
20018458:	14e7ea63          	bltu	a5,a4,200185ac <__metal_driver_sifive_gpio0_clear_int+0x17c>
2001845c:	fd442783          	lw	a5,-44(s0)
20018460:	00279713          	slli	a4,a5,0x2
20018464:	200117b7          	lui	a5,0x20011
20018468:	0ec78793          	addi	a5,a5,236 # 200110ec <__metal_driver_vtable_sifive_fe310_g000_pll+0x2c>
2001846c:	97ba                	add	a5,a5,a4
2001846e:	439c                	lw	a5,0(a5)
20018470:	8782                	jr	a5
/home/nicoladgg/wsFreedomStudio/sifive_hifive1_revb_hello/freedom-metal/src/drivers/sifive_gpio0.c:184
20018472:	fec42783          	lw	a5,-20(s0)
20018476:	07f1                	addi	a5,a5,28
20018478:	4398                	lw	a4,0(a5)
2001847a:	fd842783          	lw	a5,-40(s0)
2001847e:	fec42683          	lw	a3,-20(s0)
20018482:	06f1                	addi	a3,a3,28
20018484:	8fd9                	or	a5,a5,a4
20018486:	c29c                	sw	a5,0(a3)
/home/nicoladgg/wsFreedomStudio/sifive_hifive1_revb_hello/freedom-metal/src/drivers/sifive_gpio0.c:185
20018488:	a215                	j	200185ac <__metal_driver_sifive_gpio0_clear_int+0x17c>
/home/nicoladgg/wsFreedomStudio/sifive_hifive1_revb_hello/freedom-metal/src/drivers/sifive_gpio0.c:188
2001848a:	fec42783          	lw	a5,-20(s0)
2001848e:	02478793          	addi	a5,a5,36
20018492:	4398                	lw	a4,0(a5)
20018494:	fd842783          	lw	a5,-40(s0)
20018498:	fec42683          	lw	a3,-20(s0)
2001849c:	02468693          	addi	a3,a3,36
200184a0:	8fd9                	or	a5,a5,a4
200184a2:	c29c                	sw	a5,0(a3)
/home/nicoladgg/wsFreedomStudio/sifive_hifive1_revb_hello/freedom-metal/src/drivers/sifive_gpio0.c:189
200184a4:	a221                	j	200185ac <__metal_driver_sifive_gpio0_clear_int+0x17c>
/home/nicoladgg/wsFreedomStudio/sifive_hifive1_revb_hello/freedom-metal/src/drivers/sifive_gpio0.c:192
200184a6:	fec42783          	lw	a5,-20(s0)
200184aa:	07f1                	addi	a5,a5,28
200184ac:	4398                	lw	a4,0(a5)
200184ae:	fd842783          	lw	a5,-40(s0)
200184b2:	fec42683          	lw	a3,-20(s0)
200184b6:	06f1                	addi	a3,a3,28
200184b8:	8fd9                	or	a5,a5,a4
200184ba:	c29c                	sw	a5,0(a3)
/home/nicoladgg/wsFreedomStudio/sifive_hifive1_revb_hello/freedom-metal/src/drivers/sifive_gpio0.c:194
200184bc:	fec42783          	lw	a5,-20(s0)
200184c0:	02478793          	addi	a5,a5,36
200184c4:	4398                	lw	a4,0(a5)
200184c6:	fd842783          	lw	a5,-40(s0)
200184ca:	fec42683          	lw	a3,-20(s0)
200184ce:	02468693          	addi	a3,a3,36
200184d2:	8fd9                	or	a5,a5,a4
200184d4:	c29c                	sw	a5,0(a3)
/home/nicoladgg/wsFreedomStudio/sifive_hifive1_revb_hello/freedom-metal/src/drivers/sifive_gpio0.c:195
200184d6:	a8d9                	j	200185ac <__metal_driver_sifive_gpio0_clear_int+0x17c>
/home/nicoladgg/wsFreedomStudio/sifive_hifive1_revb_hello/freedom-metal/src/drivers/sifive_gpio0.c:198
200184d8:	fec42783          	lw	a5,-20(s0)
200184dc:	02c78793          	addi	a5,a5,44
200184e0:	4398                	lw	a4,0(a5)
200184e2:	fd842783          	lw	a5,-40(s0)
200184e6:	fec42683          	lw	a3,-20(s0)
200184ea:	02c68693          	addi	a3,a3,44
200184ee:	8fd9                	or	a5,a5,a4
200184f0:	c29c                	sw	a5,0(a3)
/home/nicoladgg/wsFreedomStudio/sifive_hifive1_revb_hello/freedom-metal/src/drivers/sifive_gpio0.c:199
200184f2:	a86d                	j	200185ac <__metal_driver_sifive_gpio0_clear_int+0x17c>
/home/nicoladgg/wsFreedomStudio/sifive_hifive1_revb_hello/freedom-metal/src/drivers/sifive_gpio0.c:202
200184f4:	fec42783          	lw	a5,-20(s0)
200184f8:	03478793          	addi	a5,a5,52
200184fc:	4398                	lw	a4,0(a5)
200184fe:	fd842783          	lw	a5,-40(s0)
20018502:	fec42683          	lw	a3,-20(s0)
20018506:	03468693          	addi	a3,a3,52
2001850a:	8fd9                	or	a5,a5,a4
2001850c:	c29c                	sw	a5,0(a3)
/home/nicoladgg/wsFreedomStudio/sifive_hifive1_revb_hello/freedom-metal/src/drivers/sifive_gpio0.c:203
2001850e:	a879                	j	200185ac <__metal_driver_sifive_gpio0_clear_int+0x17c>
/home/nicoladgg/wsFreedomStudio/sifive_hifive1_revb_hello/freedom-metal/src/drivers/sifive_gpio0.c:206
20018510:	fec42783          	lw	a5,-20(s0)
20018514:	02c78793          	addi	a5,a5,44
20018518:	4398                	lw	a4,0(a5)
2001851a:	fd842783          	lw	a5,-40(s0)
2001851e:	fec42683          	lw	a3,-20(s0)
20018522:	02c68693          	addi	a3,a3,44
20018526:	8fd9                	or	a5,a5,a4
20018528:	c29c                	sw	a5,0(a3)
/home/nicoladgg/wsFreedomStudio/sifive_hifive1_revb_hello/freedom-metal/src/drivers/sifive_gpio0.c:208
2001852a:	fec42783          	lw	a5,-20(s0)
2001852e:	03478793          	addi	a5,a5,52
20018532:	4398                	lw	a4,0(a5)
20018534:	fd842783          	lw	a5,-40(s0)
20018538:	fec42683          	lw	a3,-20(s0)
2001853c:	03468693          	addi	a3,a3,52
20018540:	8fd9                	or	a5,a5,a4
20018542:	c29c                	sw	a5,0(a3)
/home/nicoladgg/wsFreedomStudio/sifive_hifive1_revb_hello/freedom-metal/src/drivers/sifive_gpio0.c:209
20018544:	a0a5                	j	200185ac <__metal_driver_sifive_gpio0_clear_int+0x17c>
/home/nicoladgg/wsFreedomStudio/sifive_hifive1_revb_hello/freedom-metal/src/drivers/sifive_gpio0.c:212
20018546:	fec42783          	lw	a5,-20(s0)
2001854a:	07f1                	addi	a5,a5,28
2001854c:	4398                	lw	a4,0(a5)
2001854e:	fd842783          	lw	a5,-40(s0)
20018552:	fec42683          	lw	a3,-20(s0)
20018556:	06f1                	addi	a3,a3,28
20018558:	8fd9                	or	a5,a5,a4
2001855a:	c29c                	sw	a5,0(a3)
/home/nicoladgg/wsFreedomStudio/sifive_hifive1_revb_hello/freedom-metal/src/drivers/sifive_gpio0.c:214
2001855c:	fec42783          	lw	a5,-20(s0)
20018560:	02478793          	addi	a5,a5,36
20018564:	4398                	lw	a4,0(a5)
20018566:	fd842783          	lw	a5,-40(s0)
2001856a:	fec42683          	lw	a3,-20(s0)
2001856e:	02468693          	addi	a3,a3,36
20018572:	8fd9                	or	a5,a5,a4
20018574:	c29c                	sw	a5,0(a3)
/home/nicoladgg/wsFreedomStudio/sifive_hifive1_revb_hello/freedom-metal/src/drivers/sifive_gpio0.c:216
20018576:	fec42783          	lw	a5,-20(s0)
2001857a:	02c78793          	addi	a5,a5,44
2001857e:	4398                	lw	a4,0(a5)
20018580:	fd842783          	lw	a5,-40(s0)
20018584:	fec42683          	lw	a3,-20(s0)
20018588:	02c68693          	addi	a3,a3,44
2001858c:	8fd9                	or	a5,a5,a4
2001858e:	c29c                	sw	a5,0(a3)
/home/nicoladgg/wsFreedomStudio/sifive_hifive1_revb_hello/freedom-metal/src/drivers/sifive_gpio0.c:218
20018590:	fec42783          	lw	a5,-20(s0)
20018594:	03478793          	addi	a5,a5,52
20018598:	4398                	lw	a4,0(a5)
2001859a:	fd842783          	lw	a5,-40(s0)
2001859e:	fec42683          	lw	a3,-20(s0)
200185a2:	03468693          	addi	a3,a3,52
200185a6:	8fd9                	or	a5,a5,a4
200185a8:	c29c                	sw	a5,0(a3)
/home/nicoladgg/wsFreedomStudio/sifive_hifive1_revb_hello/freedom-metal/src/drivers/sifive_gpio0.c:219
200185aa:	0001                	nop
/home/nicoladgg/wsFreedomStudio/sifive_hifive1_revb_hello/freedom-metal/src/drivers/sifive_gpio0.c:221
200185ac:	4781                	li	a5,0
/home/nicoladgg/wsFreedomStudio/sifive_hifive1_revb_hello/freedom-metal/src/drivers/sifive_gpio0.c:222
200185ae:	853e                	mv	a0,a5
200185b0:	50b2                	lw	ra,44(sp)
200185b2:	5422                	lw	s0,40(sp)
200185b4:	6145                	addi	sp,sp,48
200185b6:	8082                	ret

200185b8 <__metal_driver_gpio_interrupt_controller>:
__metal_driver_gpio_interrupt_controller():
/home/nicoladgg/wsFreedomStudio/sifive_hifive1_revb_hello/freedom-metal/src/drivers/sifive_gpio0.c:225
200185b8:	1101                	addi	sp,sp,-32
200185ba:	ce06                	sw	ra,28(sp)
200185bc:	cc22                	sw	s0,24(sp)
200185be:	1000                	addi	s0,sp,32
200185c0:	fea42623          	sw	a0,-20(s0)
/home/nicoladgg/wsFreedomStudio/sifive_hifive1_revb_hello/freedom-metal/src/drivers/sifive_gpio0.c:226
200185c4:	fec42503          	lw	a0,-20(s0)
200185c8:	e06ff0ef          	jal	ra,20017bce <__metal_driver_sifive_gpio0_interrupt_parent>
200185cc:	87aa                	mv	a5,a0
/home/nicoladgg/wsFreedomStudio/sifive_hifive1_revb_hello/freedom-metal/src/drivers/sifive_gpio0.c:227
200185ce:	853e                	mv	a0,a5
200185d0:	40f2                	lw	ra,28(sp)
200185d2:	4462                	lw	s0,24(sp)
200185d4:	6105                	addi	sp,sp,32
200185d6:	8082                	ret

200185d8 <__metal_driver_gpio_get_interrupt_id>:
__metal_driver_gpio_get_interrupt_id():
/home/nicoladgg/wsFreedomStudio/sifive_hifive1_revb_hello/freedom-metal/src/drivers/sifive_gpio0.c:229
200185d8:	7179                	addi	sp,sp,-48
200185da:	d606                	sw	ra,44(sp)
200185dc:	d422                	sw	s0,40(sp)
200185de:	1800                	addi	s0,sp,48
200185e0:	fca42e23          	sw	a0,-36(s0)
200185e4:	fcb42c23          	sw	a1,-40(s0)
/home/nicoladgg/wsFreedomStudio/sifive_hifive1_revb_hello/freedom-metal/src/drivers/sifive_gpio0.c:231
200185e8:	fd842583          	lw	a1,-40(s0)
200185ec:	fdc42503          	lw	a0,-36(s0)
200185f0:	e08ff0ef          	jal	ra,20017bf8 <__metal_driver_sifive_gpio0_interrupt_lines>
200185f4:	fea42623          	sw	a0,-20(s0)
/home/nicoladgg/wsFreedomStudio/sifive_hifive1_revb_hello/freedom-metal/src/drivers/sifive_gpio0.c:232
200185f8:	fec42783          	lw	a5,-20(s0)
/home/nicoladgg/wsFreedomStudio/sifive_hifive1_revb_hello/freedom-metal/src/drivers/sifive_gpio0.c:233
200185fc:	853e                	mv	a0,a5
200185fe:	50b2                	lw	ra,44(sp)
20018600:	5422                	lw	s0,40(sp)
20018602:	6145                	addi	sp,sp,48
20018604:	8082                	ret

20018606 <__metal_driver_sifive_uart0_control_base>:
__metal_driver_sifive_uart0_control_base():
/home/nicoladgg/wsFreedomStudio/sifive_hifive1_revb_hello/bsp/build/debug/./metal/machine.h:1066
20018606:	1101                	addi	sp,sp,-32
20018608:	ce22                	sw	s0,28(sp)
2001860a:	1000                	addi	s0,sp,32
2001860c:	fea42623          	sw	a0,-20(s0)
/home/nicoladgg/wsFreedomStudio/sifive_hifive1_revb_hello/bsp/build/debug/./metal/machine.h:1067
20018610:	fec42703          	lw	a4,-20(s0)
20018614:	800017b7          	lui	a5,0x80001
20018618:	a3878793          	addi	a5,a5,-1480 # 80000a38 <metal_segment_heap_target_end+0xfffff058>
2001861c:	00f71563          	bne	a4,a5,20018626 <__metal_driver_sifive_uart0_control_base+0x20>
/home/nicoladgg/wsFreedomStudio/sifive_hifive1_revb_hello/bsp/build/debug/./metal/machine.h:1068
20018620:	100137b7          	lui	a5,0x10013
20018624:	a829                	j	2001863e <__metal_driver_sifive_uart0_control_base+0x38>
/home/nicoladgg/wsFreedomStudio/sifive_hifive1_revb_hello/bsp/build/debug/./metal/machine.h:1070
20018626:	fec42703          	lw	a4,-20(s0)
2001862a:	800017b7          	lui	a5,0x80001
2001862e:	a5878793          	addi	a5,a5,-1448 # 80000a58 <metal_segment_heap_target_end+0xfffff078>
20018632:	00f71563          	bne	a4,a5,2001863c <__metal_driver_sifive_uart0_control_base+0x36>
/home/nicoladgg/wsFreedomStudio/sifive_hifive1_revb_hello/bsp/build/debug/./metal/machine.h:1071
20018636:	100237b7          	lui	a5,0x10023
2001863a:	a011                	j	2001863e <__metal_driver_sifive_uart0_control_base+0x38>
/home/nicoladgg/wsFreedomStudio/sifive_hifive1_revb_hello/bsp/build/debug/./metal/machine.h:1074
2001863c:	4781                	li	a5,0
/home/nicoladgg/wsFreedomStudio/sifive_hifive1_revb_hello/bsp/build/debug/./metal/machine.h:1076
2001863e:	853e                	mv	a0,a5
20018640:	4472                	lw	s0,28(sp)
20018642:	6105                	addi	sp,sp,32
20018644:	8082                	ret

20018646 <__metal_driver_sifive_uart0_interrupt_parent>:
__metal_driver_sifive_uart0_interrupt_parent():
/home/nicoladgg/wsFreedomStudio/sifive_hifive1_revb_hello/bsp/build/debug/./metal/machine.h:1105
20018646:	1101                	addi	sp,sp,-32
20018648:	ce22                	sw	s0,28(sp)
2001864a:	1000                	addi	s0,sp,32
2001864c:	fea42623          	sw	a0,-20(s0)
/home/nicoladgg/wsFreedomStudio/sifive_hifive1_revb_hello/bsp/build/debug/./metal/machine.h:1106
20018650:	fec42703          	lw	a4,-20(s0)
20018654:	800017b7          	lui	a5,0x80001
20018658:	a3878793          	addi	a5,a5,-1480 # 80000a38 <metal_segment_heap_target_end+0xfffff058>
2001865c:	00f71763          	bne	a4,a5,2001866a <__metal_driver_sifive_uart0_interrupt_parent+0x24>
/home/nicoladgg/wsFreedomStudio/sifive_hifive1_revb_hello/bsp/build/debug/./metal/machine.h:1107
20018660:	800007b7          	lui	a5,0x80000
20018664:	46078793          	addi	a5,a5,1120 # 80000460 <metal_segment_heap_target_end+0xffffea80>
20018668:	a839                	j	20018686 <__metal_driver_sifive_uart0_interrupt_parent+0x40>
/home/nicoladgg/wsFreedomStudio/sifive_hifive1_revb_hello/bsp/build/debug/./metal/machine.h:1109
2001866a:	fec42703          	lw	a4,-20(s0)
2001866e:	800017b7          	lui	a5,0x80001
20018672:	a5878793          	addi	a5,a5,-1448 # 80000a58 <metal_segment_heap_target_end+0xfffff078>
20018676:	00f71763          	bne	a4,a5,20018684 <__metal_driver_sifive_uart0_interrupt_parent+0x3e>
/home/nicoladgg/wsFreedomStudio/sifive_hifive1_revb_hello/bsp/build/debug/./metal/machine.h:1110
2001867a:	800007b7          	lui	a5,0x80000
2001867e:	46078793          	addi	a5,a5,1120 # 80000460 <metal_segment_heap_target_end+0xffffea80>
20018682:	a011                	j	20018686 <__metal_driver_sifive_uart0_interrupt_parent+0x40>
/home/nicoladgg/wsFreedomStudio/sifive_hifive1_revb_hello/bsp/build/debug/./metal/machine.h:1113
20018684:	4781                	li	a5,0
/home/nicoladgg/wsFreedomStudio/sifive_hifive1_revb_hello/bsp/build/debug/./metal/machine.h:1115
20018686:	853e                	mv	a0,a5
20018688:	4472                	lw	s0,28(sp)
2001868a:	6105                	addi	sp,sp,32
2001868c:	8082                	ret

2001868e <__metal_driver_sifive_uart0_interrupt_line>:
__metal_driver_sifive_uart0_interrupt_line():
/home/nicoladgg/wsFreedomStudio/sifive_hifive1_revb_hello/bsp/build/debug/./metal/machine.h:1118
2001868e:	1101                	addi	sp,sp,-32
20018690:	ce22                	sw	s0,28(sp)
20018692:	1000                	addi	s0,sp,32
20018694:	fea42623          	sw	a0,-20(s0)
/home/nicoladgg/wsFreedomStudio/sifive_hifive1_revb_hello/bsp/build/debug/./metal/machine.h:1119
20018698:	fec42703          	lw	a4,-20(s0)
2001869c:	800017b7          	lui	a5,0x80001
200186a0:	a3878793          	addi	a5,a5,-1480 # 80000a38 <metal_segment_heap_target_end+0xfffff058>
200186a4:	00f71463          	bne	a4,a5,200186ac <__metal_driver_sifive_uart0_interrupt_line+0x1e>
/home/nicoladgg/wsFreedomStudio/sifive_hifive1_revb_hello/bsp/build/debug/./metal/machine.h:1120
200186a8:	478d                	li	a5,3
200186aa:	a821                	j	200186c2 <__metal_driver_sifive_uart0_interrupt_line+0x34>
/home/nicoladgg/wsFreedomStudio/sifive_hifive1_revb_hello/bsp/build/debug/./metal/machine.h:1122
200186ac:	fec42703          	lw	a4,-20(s0)
200186b0:	800017b7          	lui	a5,0x80001
200186b4:	a5878793          	addi	a5,a5,-1448 # 80000a58 <metal_segment_heap_target_end+0xfffff078>
200186b8:	00f71463          	bne	a4,a5,200186c0 <__metal_driver_sifive_uart0_interrupt_line+0x32>
/home/nicoladgg/wsFreedomStudio/sifive_hifive1_revb_hello/bsp/build/debug/./metal/machine.h:1123
200186bc:	4791                	li	a5,4
200186be:	a011                	j	200186c2 <__metal_driver_sifive_uart0_interrupt_line+0x34>
/home/nicoladgg/wsFreedomStudio/sifive_hifive1_revb_hello/bsp/build/debug/./metal/machine.h:1126
200186c0:	4781                	li	a5,0
/home/nicoladgg/wsFreedomStudio/sifive_hifive1_revb_hello/bsp/build/debug/./metal/machine.h:1128
200186c2:	853e                	mv	a0,a5
200186c4:	4472                	lw	s0,28(sp)
200186c6:	6105                	addi	sp,sp,32
200186c8:	8082                	ret

200186ca <__metal_driver_sifive_uart0_clock>:
__metal_driver_sifive_uart0_clock():
/home/nicoladgg/wsFreedomStudio/sifive_hifive1_revb_hello/bsp/build/debug/./metal/machine.h:1131
200186ca:	1101                	addi	sp,sp,-32
200186cc:	ce22                	sw	s0,28(sp)
200186ce:	1000                	addi	s0,sp,32
200186d0:	fea42623          	sw	a0,-20(s0)
/home/nicoladgg/wsFreedomStudio/sifive_hifive1_revb_hello/bsp/build/debug/./metal/machine.h:1132
200186d4:	fec42703          	lw	a4,-20(s0)
200186d8:	800017b7          	lui	a5,0x80001
200186dc:	a3878793          	addi	a5,a5,-1480 # 80000a38 <metal_segment_heap_target_end+0xfffff058>
200186e0:	00f71763          	bne	a4,a5,200186ee <__metal_driver_sifive_uart0_clock+0x24>
/home/nicoladgg/wsFreedomStudio/sifive_hifive1_revb_hello/bsp/build/debug/./metal/machine.h:1133
200186e4:	800017b7          	lui	a5,0x80001
200186e8:	a9078793          	addi	a5,a5,-1392 # 80000a90 <metal_segment_heap_target_end+0xfffff0b0>
200186ec:	a839                	j	2001870a <__metal_driver_sifive_uart0_clock+0x40>
/home/nicoladgg/wsFreedomStudio/sifive_hifive1_revb_hello/bsp/build/debug/./metal/machine.h:1135
200186ee:	fec42703          	lw	a4,-20(s0)
200186f2:	800017b7          	lui	a5,0x80001
200186f6:	a5878793          	addi	a5,a5,-1448 # 80000a58 <metal_segment_heap_target_end+0xfffff078>
200186fa:	00f71763          	bne	a4,a5,20018708 <__metal_driver_sifive_uart0_clock+0x3e>
/home/nicoladgg/wsFreedomStudio/sifive_hifive1_revb_hello/bsp/build/debug/./metal/machine.h:1136
200186fe:	800017b7          	lui	a5,0x80001
20018702:	a9078793          	addi	a5,a5,-1392 # 80000a90 <metal_segment_heap_target_end+0xfffff0b0>
20018706:	a011                	j	2001870a <__metal_driver_sifive_uart0_clock+0x40>
/home/nicoladgg/wsFreedomStudio/sifive_hifive1_revb_hello/bsp/build/debug/./metal/machine.h:1139
20018708:	4781                	li	a5,0
/home/nicoladgg/wsFreedomStudio/sifive_hifive1_revb_hello/bsp/build/debug/./metal/machine.h:1141
2001870a:	853e                	mv	a0,a5
2001870c:	4472                	lw	s0,28(sp)
2001870e:	6105                	addi	sp,sp,32
20018710:	8082                	ret

20018712 <__metal_driver_sifive_uart0_pinmux>:
__metal_driver_sifive_uart0_pinmux():
/home/nicoladgg/wsFreedomStudio/sifive_hifive1_revb_hello/bsp/build/debug/./metal/machine.h:1144
20018712:	1101                	addi	sp,sp,-32
20018714:	ce22                	sw	s0,28(sp)
20018716:	1000                	addi	s0,sp,32
20018718:	fea42623          	sw	a0,-20(s0)
/home/nicoladgg/wsFreedomStudio/sifive_hifive1_revb_hello/bsp/build/debug/./metal/machine.h:1145
2001871c:	fec42703          	lw	a4,-20(s0)
20018720:	800017b7          	lui	a5,0x80001
20018724:	a3878793          	addi	a5,a5,-1480 # 80000a38 <metal_segment_heap_target_end+0xfffff058>
20018728:	00f71563          	bne	a4,a5,20018732 <__metal_driver_sifive_uart0_pinmux+0x20>
/home/nicoladgg/wsFreedomStudio/sifive_hifive1_revb_hello/bsp/build/debug/./metal/machine.h:1146
2001872c:	82018793          	addi	a5,gp,-2016 # 80000ac0 <__metal_dt_gpio_10012000>
20018730:	a829                	j	2001874a <__metal_driver_sifive_uart0_pinmux+0x38>
/home/nicoladgg/wsFreedomStudio/sifive_hifive1_revb_hello/bsp/build/debug/./metal/machine.h:1148
20018732:	fec42703          	lw	a4,-20(s0)
20018736:	800017b7          	lui	a5,0x80001
2001873a:	a5878793          	addi	a5,a5,-1448 # 80000a58 <metal_segment_heap_target_end+0xfffff078>
2001873e:	00f71563          	bne	a4,a5,20018748 <__metal_driver_sifive_uart0_pinmux+0x36>
/home/nicoladgg/wsFreedomStudio/sifive_hifive1_revb_hello/bsp/build/debug/./metal/machine.h:1149
20018742:	82018793          	addi	a5,gp,-2016 # 80000ac0 <__metal_dt_gpio_10012000>
20018746:	a011                	j	2001874a <__metal_driver_sifive_uart0_pinmux+0x38>
/home/nicoladgg/wsFreedomStudio/sifive_hifive1_revb_hello/bsp/build/debug/./metal/machine.h:1152
20018748:	4781                	li	a5,0
/home/nicoladgg/wsFreedomStudio/sifive_hifive1_revb_hello/bsp/build/debug/./metal/machine.h:1154
2001874a:	853e                	mv	a0,a5
2001874c:	4472                	lw	s0,28(sp)
2001874e:	6105                	addi	sp,sp,32
20018750:	8082                	ret

20018752 <__metal_driver_sifive_uart0_pinmux_output_selector>:
__metal_driver_sifive_uart0_pinmux_output_selector():
/home/nicoladgg/wsFreedomStudio/sifive_hifive1_revb_hello/bsp/build/debug/./metal/machine.h:1157
20018752:	1101                	addi	sp,sp,-32
20018754:	ce22                	sw	s0,28(sp)
20018756:	1000                	addi	s0,sp,32
20018758:	fea42623          	sw	a0,-20(s0)
/home/nicoladgg/wsFreedomStudio/sifive_hifive1_revb_hello/bsp/build/debug/./metal/machine.h:1158
2001875c:	fec42703          	lw	a4,-20(s0)
20018760:	800017b7          	lui	a5,0x80001
20018764:	a3878793          	addi	a5,a5,-1480 # 80000a38 <metal_segment_heap_target_end+0xfffff058>
20018768:	00f71463          	bne	a4,a5,20018770 <__metal_driver_sifive_uart0_pinmux_output_selector+0x1e>
/home/nicoladgg/wsFreedomStudio/sifive_hifive1_revb_hello/bsp/build/debug/./metal/machine.h:1159
2001876c:	4781                	li	a5,0
2001876e:	a821                	j	20018786 <__metal_driver_sifive_uart0_pinmux_output_selector+0x34>
/home/nicoladgg/wsFreedomStudio/sifive_hifive1_revb_hello/bsp/build/debug/./metal/machine.h:1161
20018770:	fec42703          	lw	a4,-20(s0)
20018774:	800017b7          	lui	a5,0x80001
20018778:	a5878793          	addi	a5,a5,-1448 # 80000a58 <metal_segment_heap_target_end+0xfffff078>
2001877c:	00f71463          	bne	a4,a5,20018784 <__metal_driver_sifive_uart0_pinmux_output_selector+0x32>
/home/nicoladgg/wsFreedomStudio/sifive_hifive1_revb_hello/bsp/build/debug/./metal/machine.h:1162
20018780:	4781                	li	a5,0
20018782:	a011                	j	20018786 <__metal_driver_sifive_uart0_pinmux_output_selector+0x34>
/home/nicoladgg/wsFreedomStudio/sifive_hifive1_revb_hello/bsp/build/debug/./metal/machine.h:1165
20018784:	4781                	li	a5,0
/home/nicoladgg/wsFreedomStudio/sifive_hifive1_revb_hello/bsp/build/debug/./metal/machine.h:1167
20018786:	853e                	mv	a0,a5
20018788:	4472                	lw	s0,28(sp)
2001878a:	6105                	addi	sp,sp,32
2001878c:	8082                	ret

2001878e <__metal_driver_sifive_uart0_pinmux_source_selector>:
__metal_driver_sifive_uart0_pinmux_source_selector():
/home/nicoladgg/wsFreedomStudio/sifive_hifive1_revb_hello/bsp/build/debug/./metal/machine.h:1170
2001878e:	1101                	addi	sp,sp,-32
20018790:	ce22                	sw	s0,28(sp)
20018792:	1000                	addi	s0,sp,32
20018794:	fea42623          	sw	a0,-20(s0)
/home/nicoladgg/wsFreedomStudio/sifive_hifive1_revb_hello/bsp/build/debug/./metal/machine.h:1171
20018798:	fec42703          	lw	a4,-20(s0)
2001879c:	800017b7          	lui	a5,0x80001
200187a0:	a3878793          	addi	a5,a5,-1480 # 80000a38 <metal_segment_heap_target_end+0xfffff058>
200187a4:	00f71563          	bne	a4,a5,200187ae <__metal_driver_sifive_uart0_pinmux_source_selector+0x20>
/home/nicoladgg/wsFreedomStudio/sifive_hifive1_revb_hello/bsp/build/debug/./metal/machine.h:1172
200187a8:	000307b7          	lui	a5,0x30
200187ac:	a829                	j	200187c6 <__metal_driver_sifive_uart0_pinmux_source_selector+0x38>
/home/nicoladgg/wsFreedomStudio/sifive_hifive1_revb_hello/bsp/build/debug/./metal/machine.h:1174
200187ae:	fec42703          	lw	a4,-20(s0)
200187b2:	800017b7          	lui	a5,0x80001
200187b6:	a5878793          	addi	a5,a5,-1448 # 80000a58 <metal_segment_heap_target_end+0xfffff078>
200187ba:	00f71563          	bne	a4,a5,200187c4 <__metal_driver_sifive_uart0_pinmux_source_selector+0x36>
/home/nicoladgg/wsFreedomStudio/sifive_hifive1_revb_hello/bsp/build/debug/./metal/machine.h:1175
200187be:	008407b7          	lui	a5,0x840
200187c2:	a011                	j	200187c6 <__metal_driver_sifive_uart0_pinmux_source_selector+0x38>
/home/nicoladgg/wsFreedomStudio/sifive_hifive1_revb_hello/bsp/build/debug/./metal/machine.h:1178
200187c4:	4781                	li	a5,0
/home/nicoladgg/wsFreedomStudio/sifive_hifive1_revb_hello/bsp/build/debug/./metal/machine.h:1180
200187c6:	853e                	mv	a0,a5
200187c8:	4472                	lw	s0,28(sp)
200187ca:	6105                	addi	sp,sp,32
200187cc:	8082                	ret

200187ce <__metal_driver_sifive_uart0_interrupt_controller>:
__metal_driver_sifive_uart0_interrupt_controller():
/home/nicoladgg/wsFreedomStudio/sifive_hifive1_revb_hello/freedom-metal/src/drivers/sifive_uart0.c:37
200187ce:	1101                	addi	sp,sp,-32
200187d0:	ce06                	sw	ra,28(sp)
200187d2:	cc22                	sw	s0,24(sp)
200187d4:	1000                	addi	s0,sp,32
200187d6:	fea42623          	sw	a0,-20(s0)
/home/nicoladgg/wsFreedomStudio/sifive_hifive1_revb_hello/freedom-metal/src/drivers/sifive_uart0.c:38
200187da:	fec42503          	lw	a0,-20(s0)
200187de:	e69ff0ef          	jal	ra,20018646 <__metal_driver_sifive_uart0_interrupt_parent>
200187e2:	87aa                	mv	a5,a0
/home/nicoladgg/wsFreedomStudio/sifive_hifive1_revb_hello/freedom-metal/src/drivers/sifive_uart0.c:39
200187e4:	853e                	mv	a0,a5
200187e6:	40f2                	lw	ra,28(sp)
200187e8:	4462                	lw	s0,24(sp)
200187ea:	6105                	addi	sp,sp,32
200187ec:	8082                	ret

200187ee <__metal_driver_sifive_uart0_get_interrupt_id>:
__metal_driver_sifive_uart0_get_interrupt_id():
/home/nicoladgg/wsFreedomStudio/sifive_hifive1_revb_hello/freedom-metal/src/drivers/sifive_uart0.c:41
200187ee:	1101                	addi	sp,sp,-32
200187f0:	ce06                	sw	ra,28(sp)
200187f2:	cc22                	sw	s0,24(sp)
200187f4:	1000                	addi	s0,sp,32
200187f6:	fea42623          	sw	a0,-20(s0)
/home/nicoladgg/wsFreedomStudio/sifive_hifive1_revb_hello/freedom-metal/src/drivers/sifive_uart0.c:42
200187fa:	fec42503          	lw	a0,-20(s0)
200187fe:	e91ff0ef          	jal	ra,2001868e <__metal_driver_sifive_uart0_interrupt_line>
20018802:	87aa                	mv	a5,a0
/home/nicoladgg/wsFreedomStudio/sifive_hifive1_revb_hello/freedom-metal/src/drivers/sifive_uart0.c:43
20018804:	853e                	mv	a0,a5
20018806:	40f2                	lw	ra,28(sp)
20018808:	4462                	lw	s0,24(sp)
2001880a:	6105                	addi	sp,sp,32
2001880c:	8082                	ret

2001880e <__metal_driver_sifive_uart0_tx_interrupt_enable>:
__metal_driver_sifive_uart0_tx_interrupt_enable():
/home/nicoladgg/wsFreedomStudio/sifive_hifive1_revb_hello/freedom-metal/src/drivers/sifive_uart0.c:45
2001880e:	7179                	addi	sp,sp,-48
20018810:	d606                	sw	ra,44(sp)
20018812:	d422                	sw	s0,40(sp)
20018814:	1800                	addi	s0,sp,48
20018816:	fca42e23          	sw	a0,-36(s0)
/home/nicoladgg/wsFreedomStudio/sifive_hifive1_revb_hello/freedom-metal/src/drivers/sifive_uart0.c:46
2001881a:	fdc42503          	lw	a0,-36(s0)
2001881e:	de9ff0ef          	jal	ra,20018606 <__metal_driver_sifive_uart0_control_base>
20018822:	87aa                	mv	a5,a0
20018824:	fef42623          	sw	a5,-20(s0)
/home/nicoladgg/wsFreedomStudio/sifive_hifive1_revb_hello/freedom-metal/src/drivers/sifive_uart0.c:48
20018828:	fec42783          	lw	a5,-20(s0)
2001882c:	07c1                	addi	a5,a5,16
2001882e:	439c                	lw	a5,0(a5)
20018830:	fec42703          	lw	a4,-20(s0)
20018834:	0741                	addi	a4,a4,16
20018836:	0017e793          	ori	a5,a5,1
2001883a:	c31c                	sw	a5,0(a4)
/home/nicoladgg/wsFreedomStudio/sifive_hifive1_revb_hello/freedom-metal/src/drivers/sifive_uart0.c:49
2001883c:	4781                	li	a5,0
/home/nicoladgg/wsFreedomStudio/sifive_hifive1_revb_hello/freedom-metal/src/drivers/sifive_uart0.c:50
2001883e:	853e                	mv	a0,a5
20018840:	50b2                	lw	ra,44(sp)
20018842:	5422                	lw	s0,40(sp)
20018844:	6145                	addi	sp,sp,48
20018846:	8082                	ret

20018848 <__metal_driver_sifive_uart0_tx_interrupt_disable>:
__metal_driver_sifive_uart0_tx_interrupt_disable():
/home/nicoladgg/wsFreedomStudio/sifive_hifive1_revb_hello/freedom-metal/src/drivers/sifive_uart0.c:52
20018848:	7179                	addi	sp,sp,-48
2001884a:	d606                	sw	ra,44(sp)
2001884c:	d422                	sw	s0,40(sp)
2001884e:	1800                	addi	s0,sp,48
20018850:	fca42e23          	sw	a0,-36(s0)
/home/nicoladgg/wsFreedomStudio/sifive_hifive1_revb_hello/freedom-metal/src/drivers/sifive_uart0.c:53
20018854:	fdc42503          	lw	a0,-36(s0)
20018858:	dafff0ef          	jal	ra,20018606 <__metal_driver_sifive_uart0_control_base>
2001885c:	87aa                	mv	a5,a0
2001885e:	fef42623          	sw	a5,-20(s0)
/home/nicoladgg/wsFreedomStudio/sifive_hifive1_revb_hello/freedom-metal/src/drivers/sifive_uart0.c:55
20018862:	fec42783          	lw	a5,-20(s0)
20018866:	07c1                	addi	a5,a5,16
20018868:	439c                	lw	a5,0(a5)
2001886a:	fec42703          	lw	a4,-20(s0)
2001886e:	0741                	addi	a4,a4,16
20018870:	9bf9                	andi	a5,a5,-2
20018872:	c31c                	sw	a5,0(a4)
/home/nicoladgg/wsFreedomStudio/sifive_hifive1_revb_hello/freedom-metal/src/drivers/sifive_uart0.c:56
20018874:	4781                	li	a5,0
/home/nicoladgg/wsFreedomStudio/sifive_hifive1_revb_hello/freedom-metal/src/drivers/sifive_uart0.c:57
20018876:	853e                	mv	a0,a5
20018878:	50b2                	lw	ra,44(sp)
2001887a:	5422                	lw	s0,40(sp)
2001887c:	6145                	addi	sp,sp,48
2001887e:	8082                	ret

20018880 <__metal_driver_sifive_uart0_rx_interrupt_enable>:
__metal_driver_sifive_uart0_rx_interrupt_enable():
/home/nicoladgg/wsFreedomStudio/sifive_hifive1_revb_hello/freedom-metal/src/drivers/sifive_uart0.c:59
20018880:	7179                	addi	sp,sp,-48
20018882:	d606                	sw	ra,44(sp)
20018884:	d422                	sw	s0,40(sp)
20018886:	1800                	addi	s0,sp,48
20018888:	fca42e23          	sw	a0,-36(s0)
/home/nicoladgg/wsFreedomStudio/sifive_hifive1_revb_hello/freedom-metal/src/drivers/sifive_uart0.c:60
2001888c:	fdc42503          	lw	a0,-36(s0)
20018890:	d77ff0ef          	jal	ra,20018606 <__metal_driver_sifive_uart0_control_base>
20018894:	87aa                	mv	a5,a0
20018896:	fef42623          	sw	a5,-20(s0)
/home/nicoladgg/wsFreedomStudio/sifive_hifive1_revb_hello/freedom-metal/src/drivers/sifive_uart0.c:62
2001889a:	fec42783          	lw	a5,-20(s0)
2001889e:	07c1                	addi	a5,a5,16
200188a0:	439c                	lw	a5,0(a5)
200188a2:	fec42703          	lw	a4,-20(s0)
200188a6:	0741                	addi	a4,a4,16
200188a8:	0027e793          	ori	a5,a5,2
200188ac:	c31c                	sw	a5,0(a4)
/home/nicoladgg/wsFreedomStudio/sifive_hifive1_revb_hello/freedom-metal/src/drivers/sifive_uart0.c:63
200188ae:	4781                	li	a5,0
/home/nicoladgg/wsFreedomStudio/sifive_hifive1_revb_hello/freedom-metal/src/drivers/sifive_uart0.c:64
200188b0:	853e                	mv	a0,a5
200188b2:	50b2                	lw	ra,44(sp)
200188b4:	5422                	lw	s0,40(sp)
200188b6:	6145                	addi	sp,sp,48
200188b8:	8082                	ret

200188ba <__metal_driver_sifive_uart0_rx_interrupt_disable>:
__metal_driver_sifive_uart0_rx_interrupt_disable():
/home/nicoladgg/wsFreedomStudio/sifive_hifive1_revb_hello/freedom-metal/src/drivers/sifive_uart0.c:66
200188ba:	7179                	addi	sp,sp,-48
200188bc:	d606                	sw	ra,44(sp)
200188be:	d422                	sw	s0,40(sp)
200188c0:	1800                	addi	s0,sp,48
200188c2:	fca42e23          	sw	a0,-36(s0)
/home/nicoladgg/wsFreedomStudio/sifive_hifive1_revb_hello/freedom-metal/src/drivers/sifive_uart0.c:67
200188c6:	fdc42503          	lw	a0,-36(s0)
200188ca:	d3dff0ef          	jal	ra,20018606 <__metal_driver_sifive_uart0_control_base>
200188ce:	87aa                	mv	a5,a0
200188d0:	fef42623          	sw	a5,-20(s0)
/home/nicoladgg/wsFreedomStudio/sifive_hifive1_revb_hello/freedom-metal/src/drivers/sifive_uart0.c:69
200188d4:	fec42783          	lw	a5,-20(s0)
200188d8:	07c1                	addi	a5,a5,16
200188da:	439c                	lw	a5,0(a5)
200188dc:	fec42703          	lw	a4,-20(s0)
200188e0:	0741                	addi	a4,a4,16
200188e2:	9bf5                	andi	a5,a5,-3
200188e4:	c31c                	sw	a5,0(a4)
/home/nicoladgg/wsFreedomStudio/sifive_hifive1_revb_hello/freedom-metal/src/drivers/sifive_uart0.c:70
200188e6:	4781                	li	a5,0
/home/nicoladgg/wsFreedomStudio/sifive_hifive1_revb_hello/freedom-metal/src/drivers/sifive_uart0.c:71
200188e8:	853e                	mv	a0,a5
200188ea:	50b2                	lw	ra,44(sp)
200188ec:	5422                	lw	s0,40(sp)
200188ee:	6145                	addi	sp,sp,48
200188f0:	8082                	ret

200188f2 <__metal_driver_sifive_uart0_txready>:
__metal_driver_sifive_uart0_txready():
/home/nicoladgg/wsFreedomStudio/sifive_hifive1_revb_hello/freedom-metal/src/drivers/sifive_uart0.c:73
200188f2:	7179                	addi	sp,sp,-48
200188f4:	d606                	sw	ra,44(sp)
200188f6:	d422                	sw	s0,40(sp)
200188f8:	1800                	addi	s0,sp,48
200188fa:	fca42e23          	sw	a0,-36(s0)
/home/nicoladgg/wsFreedomStudio/sifive_hifive1_revb_hello/freedom-metal/src/drivers/sifive_uart0.c:74
200188fe:	fdc42503          	lw	a0,-36(s0)
20018902:	d05ff0ef          	jal	ra,20018606 <__metal_driver_sifive_uart0_control_base>
20018906:	87aa                	mv	a5,a0
20018908:	fef42623          	sw	a5,-20(s0)
/home/nicoladgg/wsFreedomStudio/sifive_hifive1_revb_hello/freedom-metal/src/drivers/sifive_uart0.c:76
2001890c:	fec42783          	lw	a5,-20(s0)
20018910:	439c                	lw	a5,0(a5)
20018912:	83fd                	srli	a5,a5,0x1f
20018914:	0ff7f793          	zext.b	a5,a5
/home/nicoladgg/wsFreedomStudio/sifive_hifive1_revb_hello/freedom-metal/src/drivers/sifive_uart0.c:77
20018918:	853e                	mv	a0,a5
2001891a:	50b2                	lw	ra,44(sp)
2001891c:	5422                	lw	s0,40(sp)
2001891e:	6145                	addi	sp,sp,48
20018920:	8082                	ret

20018922 <__metal_driver_sifive_uart0_set_tx_watermark>:
__metal_driver_sifive_uart0_set_tx_watermark():
/home/nicoladgg/wsFreedomStudio/sifive_hifive1_revb_hello/freedom-metal/src/drivers/sifive_uart0.c:80
20018922:	7179                	addi	sp,sp,-48
20018924:	d606                	sw	ra,44(sp)
20018926:	d422                	sw	s0,40(sp)
20018928:	1800                	addi	s0,sp,48
2001892a:	fca42e23          	sw	a0,-36(s0)
2001892e:	fcb42c23          	sw	a1,-40(s0)
/home/nicoladgg/wsFreedomStudio/sifive_hifive1_revb_hello/freedom-metal/src/drivers/sifive_uart0.c:81
20018932:	fdc42503          	lw	a0,-36(s0)
20018936:	cd1ff0ef          	jal	ra,20018606 <__metal_driver_sifive_uart0_control_base>
2001893a:	87aa                	mv	a5,a0
2001893c:	fef42623          	sw	a5,-20(s0)
/home/nicoladgg/wsFreedomStudio/sifive_hifive1_revb_hello/freedom-metal/src/drivers/sifive_uart0.c:83
20018940:	fec42783          	lw	a5,-20(s0)
20018944:	07a1                	addi	a5,a5,8
20018946:	4398                	lw	a4,0(a5)
20018948:	fd842783          	lw	a5,-40(s0)
2001894c:	01079693          	slli	a3,a5,0x10
20018950:	000707b7          	lui	a5,0x70
20018954:	8ff5                	and	a5,a5,a3
20018956:	fec42683          	lw	a3,-20(s0)
2001895a:	06a1                	addi	a3,a3,8
2001895c:	8fd9                	or	a5,a5,a4
2001895e:	c29c                	sw	a5,0(a3)
/home/nicoladgg/wsFreedomStudio/sifive_hifive1_revb_hello/freedom-metal/src/drivers/sifive_uart0.c:84
20018960:	4781                	li	a5,0
/home/nicoladgg/wsFreedomStudio/sifive_hifive1_revb_hello/freedom-metal/src/drivers/sifive_uart0.c:85
20018962:	853e                	mv	a0,a5
20018964:	50b2                	lw	ra,44(sp)
20018966:	5422                	lw	s0,40(sp)
20018968:	6145                	addi	sp,sp,48
2001896a:	8082                	ret

2001896c <__metal_driver_sifive_uart0_get_tx_watermark>:
__metal_driver_sifive_uart0_get_tx_watermark():
/home/nicoladgg/wsFreedomStudio/sifive_hifive1_revb_hello/freedom-metal/src/drivers/sifive_uart0.c:87
2001896c:	7179                	addi	sp,sp,-48
2001896e:	d606                	sw	ra,44(sp)
20018970:	d422                	sw	s0,40(sp)
20018972:	1800                	addi	s0,sp,48
20018974:	fca42e23          	sw	a0,-36(s0)
/home/nicoladgg/wsFreedomStudio/sifive_hifive1_revb_hello/freedom-metal/src/drivers/sifive_uart0.c:88
20018978:	fdc42503          	lw	a0,-36(s0)
2001897c:	c8bff0ef          	jal	ra,20018606 <__metal_driver_sifive_uart0_control_base>
20018980:	87aa                	mv	a5,a0
20018982:	fef42623          	sw	a5,-20(s0)
/home/nicoladgg/wsFreedomStudio/sifive_hifive1_revb_hello/freedom-metal/src/drivers/sifive_uart0.c:90
20018986:	fec42783          	lw	a5,-20(s0)
2001898a:	07a1                	addi	a5,a5,8
2001898c:	439c                	lw	a5,0(a5)
2001898e:	83c1                	srli	a5,a5,0x10
20018990:	8b9d                	andi	a5,a5,7
/home/nicoladgg/wsFreedomStudio/sifive_hifive1_revb_hello/freedom-metal/src/drivers/sifive_uart0.c:91
20018992:	853e                	mv	a0,a5
20018994:	50b2                	lw	ra,44(sp)
20018996:	5422                	lw	s0,40(sp)
20018998:	6145                	addi	sp,sp,48
2001899a:	8082                	ret

2001899c <__metal_driver_sifive_uart0_set_rx_watermark>:
__metal_driver_sifive_uart0_set_rx_watermark():
/home/nicoladgg/wsFreedomStudio/sifive_hifive1_revb_hello/freedom-metal/src/drivers/sifive_uart0.c:94
2001899c:	7179                	addi	sp,sp,-48
2001899e:	d606                	sw	ra,44(sp)
200189a0:	d422                	sw	s0,40(sp)
200189a2:	1800                	addi	s0,sp,48
200189a4:	fca42e23          	sw	a0,-36(s0)
200189a8:	fcb42c23          	sw	a1,-40(s0)
/home/nicoladgg/wsFreedomStudio/sifive_hifive1_revb_hello/freedom-metal/src/drivers/sifive_uart0.c:95
200189ac:	fdc42503          	lw	a0,-36(s0)
200189b0:	c57ff0ef          	jal	ra,20018606 <__metal_driver_sifive_uart0_control_base>
200189b4:	87aa                	mv	a5,a0
200189b6:	fef42623          	sw	a5,-20(s0)
/home/nicoladgg/wsFreedomStudio/sifive_hifive1_revb_hello/freedom-metal/src/drivers/sifive_uart0.c:97
200189ba:	fec42783          	lw	a5,-20(s0)
200189be:	07b1                	addi	a5,a5,12
200189c0:	4398                	lw	a4,0(a5)
200189c2:	fd842783          	lw	a5,-40(s0)
200189c6:	01079693          	slli	a3,a5,0x10
200189ca:	000707b7          	lui	a5,0x70
200189ce:	8ff5                	and	a5,a5,a3
200189d0:	fec42683          	lw	a3,-20(s0)
200189d4:	06b1                	addi	a3,a3,12
200189d6:	8fd9                	or	a5,a5,a4
200189d8:	c29c                	sw	a5,0(a3)
/home/nicoladgg/wsFreedomStudio/sifive_hifive1_revb_hello/freedom-metal/src/drivers/sifive_uart0.c:98
200189da:	4781                	li	a5,0
/home/nicoladgg/wsFreedomStudio/sifive_hifive1_revb_hello/freedom-metal/src/drivers/sifive_uart0.c:99
200189dc:	853e                	mv	a0,a5
200189de:	50b2                	lw	ra,44(sp)
200189e0:	5422                	lw	s0,40(sp)
200189e2:	6145                	addi	sp,sp,48
200189e4:	8082                	ret

200189e6 <__metal_driver_sifive_uart0_get_rx_watermark>:
__metal_driver_sifive_uart0_get_rx_watermark():
/home/nicoladgg/wsFreedomStudio/sifive_hifive1_revb_hello/freedom-metal/src/drivers/sifive_uart0.c:101
200189e6:	7179                	addi	sp,sp,-48
200189e8:	d606                	sw	ra,44(sp)
200189ea:	d422                	sw	s0,40(sp)
200189ec:	1800                	addi	s0,sp,48
200189ee:	fca42e23          	sw	a0,-36(s0)
/home/nicoladgg/wsFreedomStudio/sifive_hifive1_revb_hello/freedom-metal/src/drivers/sifive_uart0.c:102
200189f2:	fdc42503          	lw	a0,-36(s0)
200189f6:	c11ff0ef          	jal	ra,20018606 <__metal_driver_sifive_uart0_control_base>
200189fa:	87aa                	mv	a5,a0
200189fc:	fef42623          	sw	a5,-20(s0)
/home/nicoladgg/wsFreedomStudio/sifive_hifive1_revb_hello/freedom-metal/src/drivers/sifive_uart0.c:104
20018a00:	fec42783          	lw	a5,-20(s0)
20018a04:	07b1                	addi	a5,a5,12
20018a06:	439c                	lw	a5,0(a5)
20018a08:	83c1                	srli	a5,a5,0x10
20018a0a:	8b9d                	andi	a5,a5,7
/home/nicoladgg/wsFreedomStudio/sifive_hifive1_revb_hello/freedom-metal/src/drivers/sifive_uart0.c:105
20018a0c:	853e                	mv	a0,a5
20018a0e:	50b2                	lw	ra,44(sp)
20018a10:	5422                	lw	s0,40(sp)
20018a12:	6145                	addi	sp,sp,48
20018a14:	8082                	ret

20018a16 <__metal_driver_sifive_uart0_putc>:
__metal_driver_sifive_uart0_putc():
/home/nicoladgg/wsFreedomStudio/sifive_hifive1_revb_hello/freedom-metal/src/drivers/sifive_uart0.c:107
20018a16:	7179                	addi	sp,sp,-48
20018a18:	d606                	sw	ra,44(sp)
20018a1a:	d422                	sw	s0,40(sp)
20018a1c:	1800                	addi	s0,sp,48
20018a1e:	fca42e23          	sw	a0,-36(s0)
20018a22:	fcb42c23          	sw	a1,-40(s0)
/home/nicoladgg/wsFreedomStudio/sifive_hifive1_revb_hello/freedom-metal/src/drivers/sifive_uart0.c:108
20018a26:	fdc42503          	lw	a0,-36(s0)
20018a2a:	bddff0ef          	jal	ra,20018606 <__metal_driver_sifive_uart0_control_base>
20018a2e:	87aa                	mv	a5,a0
20018a30:	fef42623          	sw	a5,-20(s0)
/home/nicoladgg/wsFreedomStudio/sifive_hifive1_revb_hello/freedom-metal/src/drivers/sifive_uart0.c:110
20018a34:	0001                	nop
/home/nicoladgg/wsFreedomStudio/sifive_hifive1_revb_hello/freedom-metal/src/drivers/sifive_uart0.c:110 (discriminator 1)
20018a36:	fdc42503          	lw	a0,-36(s0)
20018a3a:	eb9ff0ef          	jal	ra,200188f2 <__metal_driver_sifive_uart0_txready>
20018a3e:	87aa                	mv	a5,a0
20018a40:	fbfd                	bnez	a5,20018a36 <__metal_driver_sifive_uart0_putc+0x20>
/home/nicoladgg/wsFreedomStudio/sifive_hifive1_revb_hello/freedom-metal/src/drivers/sifive_uart0.c:113
20018a42:	fec42783          	lw	a5,-20(s0)
20018a46:	fd842703          	lw	a4,-40(s0)
20018a4a:	c398                	sw	a4,0(a5)
/home/nicoladgg/wsFreedomStudio/sifive_hifive1_revb_hello/freedom-metal/src/drivers/sifive_uart0.c:114
20018a4c:	4781                	li	a5,0
/home/nicoladgg/wsFreedomStudio/sifive_hifive1_revb_hello/freedom-metal/src/drivers/sifive_uart0.c:115
20018a4e:	853e                	mv	a0,a5
20018a50:	50b2                	lw	ra,44(sp)
20018a52:	5422                	lw	s0,40(sp)
20018a54:	6145                	addi	sp,sp,48
20018a56:	8082                	ret

20018a58 <__metal_driver_sifive_uart0_getc>:
__metal_driver_sifive_uart0_getc():
/home/nicoladgg/wsFreedomStudio/sifive_hifive1_revb_hello/freedom-metal/src/drivers/sifive_uart0.c:117
20018a58:	7179                	addi	sp,sp,-48
20018a5a:	d606                	sw	ra,44(sp)
20018a5c:	d422                	sw	s0,40(sp)
20018a5e:	1800                	addi	s0,sp,48
20018a60:	fca42e23          	sw	a0,-36(s0)
20018a64:	fcb42c23          	sw	a1,-40(s0)
/home/nicoladgg/wsFreedomStudio/sifive_hifive1_revb_hello/freedom-metal/src/drivers/sifive_uart0.c:119
20018a68:	fdc42503          	lw	a0,-36(s0)
20018a6c:	b9bff0ef          	jal	ra,20018606 <__metal_driver_sifive_uart0_control_base>
20018a70:	87aa                	mv	a5,a0
20018a72:	fef42623          	sw	a5,-20(s0)
/home/nicoladgg/wsFreedomStudio/sifive_hifive1_revb_hello/freedom-metal/src/drivers/sifive_uart0.c:121
20018a76:	fec42783          	lw	a5,-20(s0)
20018a7a:	0791                	addi	a5,a5,4
20018a7c:	439c                	lw	a5,0(a5)
20018a7e:	fef42423          	sw	a5,-24(s0)
/home/nicoladgg/wsFreedomStudio/sifive_hifive1_revb_hello/freedom-metal/src/drivers/sifive_uart0.c:123
20018a82:	fe842783          	lw	a5,-24(s0)
20018a86:	0007d763          	bgez	a5,20018a94 <__metal_driver_sifive_uart0_getc+0x3c>
/home/nicoladgg/wsFreedomStudio/sifive_hifive1_revb_hello/freedom-metal/src/drivers/sifive_uart0.c:124
20018a8a:	fd842783          	lw	a5,-40(s0)
20018a8e:	577d                	li	a4,-1
20018a90:	c398                	sw	a4,0(a5)
20018a92:	a801                	j	20018aa2 <__metal_driver_sifive_uart0_getc+0x4a>
/home/nicoladgg/wsFreedomStudio/sifive_hifive1_revb_hello/freedom-metal/src/drivers/sifive_uart0.c:126
20018a94:	fe842783          	lw	a5,-24(s0)
20018a98:	0ff7f713          	zext.b	a4,a5
20018a9c:	fd842783          	lw	a5,-40(s0)
20018aa0:	c398                	sw	a4,0(a5)
/home/nicoladgg/wsFreedomStudio/sifive_hifive1_revb_hello/freedom-metal/src/drivers/sifive_uart0.c:128
20018aa2:	4781                	li	a5,0
/home/nicoladgg/wsFreedomStudio/sifive_hifive1_revb_hello/freedom-metal/src/drivers/sifive_uart0.c:129
20018aa4:	853e                	mv	a0,a5
20018aa6:	50b2                	lw	ra,44(sp)
20018aa8:	5422                	lw	s0,40(sp)
20018aaa:	6145                	addi	sp,sp,48
20018aac:	8082                	ret

20018aae <__metal_driver_sifive_uart0_get_baud_rate>:
__metal_driver_sifive_uart0_get_baud_rate():
/home/nicoladgg/wsFreedomStudio/sifive_hifive1_revb_hello/freedom-metal/src/drivers/sifive_uart0.c:131
20018aae:	7179                	addi	sp,sp,-48
20018ab0:	d622                	sw	s0,44(sp)
20018ab2:	1800                	addi	s0,sp,48
20018ab4:	fca42e23          	sw	a0,-36(s0)
/home/nicoladgg/wsFreedomStudio/sifive_hifive1_revb_hello/freedom-metal/src/drivers/sifive_uart0.c:132
20018ab8:	fdc42783          	lw	a5,-36(s0)
20018abc:	fef42623          	sw	a5,-20(s0)
/home/nicoladgg/wsFreedomStudio/sifive_hifive1_revb_hello/freedom-metal/src/drivers/sifive_uart0.c:133
20018ac0:	fec42783          	lw	a5,-20(s0)
20018ac4:	43dc                	lw	a5,4(a5)
/home/nicoladgg/wsFreedomStudio/sifive_hifive1_revb_hello/freedom-metal/src/drivers/sifive_uart0.c:134
20018ac6:	853e                	mv	a0,a5
20018ac8:	5432                	lw	s0,44(sp)
20018aca:	6145                	addi	sp,sp,48
20018acc:	8082                	ret

20018ace <__metal_driver_sifive_uart0_set_baud_rate>:
__metal_driver_sifive_uart0_set_baud_rate():
/home/nicoladgg/wsFreedomStudio/sifive_hifive1_revb_hello/freedom-metal/src/drivers/sifive_uart0.c:137
20018ace:	7179                	addi	sp,sp,-48
20018ad0:	d606                	sw	ra,44(sp)
20018ad2:	d422                	sw	s0,40(sp)
20018ad4:	1800                	addi	s0,sp,48
20018ad6:	fca42e23          	sw	a0,-36(s0)
20018ada:	fcb42c23          	sw	a1,-40(s0)
/home/nicoladgg/wsFreedomStudio/sifive_hifive1_revb_hello/freedom-metal/src/drivers/sifive_uart0.c:138
20018ade:	fdc42783          	lw	a5,-36(s0)
20018ae2:	fef42623          	sw	a5,-20(s0)
/home/nicoladgg/wsFreedomStudio/sifive_hifive1_revb_hello/freedom-metal/src/drivers/sifive_uart0.c:139
20018ae6:	fdc42503          	lw	a0,-36(s0)
20018aea:	b1dff0ef          	jal	ra,20018606 <__metal_driver_sifive_uart0_control_base>
20018aee:	87aa                	mv	a5,a0
20018af0:	fef42423          	sw	a5,-24(s0)
/home/nicoladgg/wsFreedomStudio/sifive_hifive1_revb_hello/freedom-metal/src/drivers/sifive_uart0.c:140
20018af4:	fdc42503          	lw	a0,-36(s0)
20018af8:	bd3ff0ef          	jal	ra,200186ca <__metal_driver_sifive_uart0_clock>
20018afc:	fea42223          	sw	a0,-28(s0)
/home/nicoladgg/wsFreedomStudio/sifive_hifive1_revb_hello/freedom-metal/src/drivers/sifive_uart0.c:142
20018b00:	fd842703          	lw	a4,-40(s0)
20018b04:	fec42783          	lw	a5,-20(s0)
20018b08:	c3d8                	sw	a4,4(a5)
/home/nicoladgg/wsFreedomStudio/sifive_hifive1_revb_hello/freedom-metal/src/drivers/sifive_uart0.c:144
20018b0a:	fe442783          	lw	a5,-28(s0)
20018b0e:	cbb1                	beqz	a5,20018b62 <__metal_driver_sifive_uart0_set_baud_rate+0x94>
/home/nicoladgg/wsFreedomStudio/sifive_hifive1_revb_hello/freedom-metal/src/drivers/sifive_uart0.c:145
20018b10:	fe442783          	lw	a5,-28(s0)
20018b14:	439c                	lw	a5,0(a5)
20018b16:	439c                	lw	a5,0(a5)
20018b18:	fe442503          	lw	a0,-28(s0)
20018b1c:	9782                	jalr	a5
20018b1e:	fea42023          	sw	a0,-32(s0)
/home/nicoladgg/wsFreedomStudio/sifive_hifive1_revb_hello/freedom-metal/src/drivers/sifive_uart0.c:146
20018b22:	fe042703          	lw	a4,-32(s0)
20018b26:	fd842783          	lw	a5,-40(s0)
20018b2a:	02f747b3          	div	a5,a4,a5
20018b2e:	fff78713          	addi	a4,a5,-1 # 6ffff <__heap_size+0x6f7ff>
20018b32:	fe842783          	lw	a5,-24(s0)
20018b36:	07e1                	addi	a5,a5,24
20018b38:	c398                	sw	a4,0(a5)
/home/nicoladgg/wsFreedomStudio/sifive_hifive1_revb_hello/freedom-metal/src/drivers/sifive_uart0.c:147
20018b3a:	fe842783          	lw	a5,-24(s0)
20018b3e:	07a1                	addi	a5,a5,8
20018b40:	439c                	lw	a5,0(a5)
20018b42:	fe842703          	lw	a4,-24(s0)
20018b46:	0721                	addi	a4,a4,8
20018b48:	0017e793          	ori	a5,a5,1
20018b4c:	c31c                	sw	a5,0(a4)
/home/nicoladgg/wsFreedomStudio/sifive_hifive1_revb_hello/freedom-metal/src/drivers/sifive_uart0.c:148
20018b4e:	fe842783          	lw	a5,-24(s0)
20018b52:	07b1                	addi	a5,a5,12
20018b54:	439c                	lw	a5,0(a5)
20018b56:	fe842703          	lw	a4,-24(s0)
20018b5a:	0731                	addi	a4,a4,12
20018b5c:	0017e793          	ori	a5,a5,1
20018b60:	c31c                	sw	a5,0(a4)
/home/nicoladgg/wsFreedomStudio/sifive_hifive1_revb_hello/freedom-metal/src/drivers/sifive_uart0.c:150
20018b62:	4781                	li	a5,0
/home/nicoladgg/wsFreedomStudio/sifive_hifive1_revb_hello/freedom-metal/src/drivers/sifive_uart0.c:151
20018b64:	853e                	mv	a0,a5
20018b66:	50b2                	lw	ra,44(sp)
20018b68:	5422                	lw	s0,40(sp)
20018b6a:	6145                	addi	sp,sp,48
20018b6c:	8082                	ret

20018b6e <pre_rate_change_callback_func>:
pre_rate_change_callback_func():
/home/nicoladgg/wsFreedomStudio/sifive_hifive1_revb_hello/freedom-metal/src/drivers/sifive_uart0.c:153
20018b6e:	7139                	addi	sp,sp,-64
20018b70:	de06                	sw	ra,60(sp)
20018b72:	dc22                	sw	s0,56(sp)
20018b74:	0080                	addi	s0,sp,64
20018b76:	fca42623          	sw	a0,-52(s0)
/home/nicoladgg/wsFreedomStudio/sifive_hifive1_revb_hello/freedom-metal/src/drivers/sifive_uart0.c:154
20018b7a:	fcc42783          	lw	a5,-52(s0)
20018b7e:	fef42623          	sw	a5,-20(s0)
/home/nicoladgg/wsFreedomStudio/sifive_hifive1_revb_hello/freedom-metal/src/drivers/sifive_uart0.c:156
20018b82:	fcc42503          	lw	a0,-52(s0)
20018b86:	a81ff0ef          	jal	ra,20018606 <__metal_driver_sifive_uart0_control_base>
20018b8a:	87aa                	mv	a5,a0
/home/nicoladgg/wsFreedomStudio/sifive_hifive1_revb_hello/freedom-metal/src/drivers/sifive_uart0.c:155
20018b8c:	fef42423          	sw	a5,-24(s0)
/home/nicoladgg/wsFreedomStudio/sifive_hifive1_revb_hello/freedom-metal/src/drivers/sifive_uart0.c:158
20018b90:	fcc42503          	lw	a0,-52(s0)
20018b94:	b37ff0ef          	jal	ra,200186ca <__metal_driver_sifive_uart0_clock>
20018b98:	fea42223          	sw	a0,-28(s0)
/home/nicoladgg/wsFreedomStudio/sifive_hifive1_revb_hello/freedom-metal/src/drivers/sifive_uart0.c:163
20018b9c:	fe842783          	lw	a5,-24(s0)
20018ba0:	07a1                	addi	a5,a5,8
20018ba2:	4398                	lw	a4,0(a5)
20018ba4:	fe842783          	lw	a5,-24(s0)
20018ba8:	07a1                	addi	a5,a5,8
20018baa:	86be                	mv	a3,a5
20018bac:	fff907b7          	lui	a5,0xfff90
20018bb0:	17fd                	addi	a5,a5,-1
20018bb2:	8ff9                	and	a5,a5,a4
20018bb4:	c29c                	sw	a5,0(a3)
/home/nicoladgg/wsFreedomStudio/sifive_hifive1_revb_hello/freedom-metal/src/drivers/sifive_uart0.c:164
20018bb6:	fe842783          	lw	a5,-24(s0)
20018bba:	07a1                	addi	a5,a5,8
20018bbc:	4398                	lw	a4,0(a5)
20018bbe:	fe842783          	lw	a5,-24(s0)
20018bc2:	07a1                	addi	a5,a5,8
20018bc4:	86be                	mv	a3,a5
20018bc6:	67c1                	lui	a5,0x10
20018bc8:	8fd9                	or	a5,a5,a4
20018bca:	c29c                	sw	a5,0(a3)
/home/nicoladgg/wsFreedomStudio/sifive_hifive1_revb_hello/freedom-metal/src/drivers/sifive_uart0.c:166
20018bcc:	0001                	nop
/home/nicoladgg/wsFreedomStudio/sifive_hifive1_revb_hello/freedom-metal/src/drivers/sifive_uart0.c:166 (discriminator 1)
20018bce:	fe842783          	lw	a5,-24(s0)
20018bd2:	07d1                	addi	a5,a5,20
20018bd4:	439c                	lw	a5,0(a5)
20018bd6:	8b85                	andi	a5,a5,1
20018bd8:	dbfd                	beqz	a5,20018bce <pre_rate_change_callback_func+0x60>
/home/nicoladgg/wsFreedomStudio/sifive_hifive1_revb_hello/freedom-metal/src/drivers/sifive_uart0.c:174
20018bda:	fe842783          	lw	a5,-24(s0)
20018bde:	07a1                	addi	a5,a5,8
20018be0:	439c                	lw	a5,0(a5)
20018be2:	8b89                	andi	a5,a5,2
20018be4:	c399                	beqz	a5,20018bea <pre_rate_change_callback_func+0x7c>
/home/nicoladgg/wsFreedomStudio/sifive_hifive1_revb_hello/freedom-metal/src/drivers/sifive_uart0.c:174 (discriminator 1)
20018be6:	47a5                	li	a5,9
20018be8:	a011                	j	20018bec <pre_rate_change_callback_func+0x7e>
/home/nicoladgg/wsFreedomStudio/sifive_hifive1_revb_hello/freedom-metal/src/drivers/sifive_uart0.c:174 (discriminator 2)
20018bea:	47a9                	li	a5,10
/home/nicoladgg/wsFreedomStudio/sifive_hifive1_revb_hello/freedom-metal/src/drivers/sifive_uart0.c:173
20018bec:	fef42023          	sw	a5,-32(s0)
/home/nicoladgg/wsFreedomStudio/sifive_hifive1_revb_hello/freedom-metal/src/drivers/sifive_uart0.c:175
20018bf0:	fe442783          	lw	a5,-28(s0)
20018bf4:	439c                	lw	a5,0(a5)
20018bf6:	439c                	lw	a5,0(a5)
20018bf8:	fe442503          	lw	a0,-28(s0)
20018bfc:	9782                	jalr	a5
20018bfe:	fca42e23          	sw	a0,-36(s0)
/home/nicoladgg/wsFreedomStudio/sifive_hifive1_revb_hello/freedom-metal/src/drivers/sifive_uart0.c:176
20018c02:	fe042703          	lw	a4,-32(s0)
20018c06:	fdc42783          	lw	a5,-36(s0)
20018c0a:	02f707b3          	mul	a5,a4,a5
20018c0e:	873e                	mv	a4,a5
20018c10:	fec42783          	lw	a5,-20(s0)
20018c14:	43dc                	lw	a5,4(a5)
20018c16:	02f757b3          	divu	a5,a4,a5
20018c1a:	fcf42c23          	sw	a5,-40(s0)
/home/nicoladgg/wsFreedomStudio/sifive_hifive1_revb_hello/freedom-metal/src/drivers/sifive_uart0.c:178
20018c1e:	fc042a23          	sw	zero,-44(s0)
20018c22:	a039                	j	20018c30 <pre_rate_change_callback_func+0xc2>
/home/nicoladgg/wsFreedomStudio/sifive_hifive1_revb_hello/freedom-metal/src/drivers/sifive_uart0.c:179 (discriminator 3)
20018c24:	0001                	nop
/home/nicoladgg/wsFreedomStudio/sifive_hifive1_revb_hello/freedom-metal/src/drivers/sifive_uart0.c:178 (discriminator 3)
20018c26:	fd442783          	lw	a5,-44(s0)
20018c2a:	0785                	addi	a5,a5,1
20018c2c:	fcf42a23          	sw	a5,-44(s0)
/home/nicoladgg/wsFreedomStudio/sifive_hifive1_revb_hello/freedom-metal/src/drivers/sifive_uart0.c:178 (discriminator 1)
20018c30:	fd442783          	lw	a5,-44(s0)
20018c34:	fd842703          	lw	a4,-40(s0)
20018c38:	fee7c6e3          	blt	a5,a4,20018c24 <pre_rate_change_callback_func+0xb6>
/home/nicoladgg/wsFreedomStudio/sifive_hifive1_revb_hello/freedom-metal/src/drivers/sifive_uart0.c:180
20018c3c:	0001                	nop
20018c3e:	0001                	nop
20018c40:	50f2                	lw	ra,60(sp)
20018c42:	5462                	lw	s0,56(sp)
20018c44:	6121                	addi	sp,sp,64
20018c46:	8082                	ret

20018c48 <post_rate_change_callback_func>:
post_rate_change_callback_func():
/home/nicoladgg/wsFreedomStudio/sifive_hifive1_revb_hello/freedom-metal/src/drivers/sifive_uart0.c:182
20018c48:	7179                	addi	sp,sp,-48
20018c4a:	d606                	sw	ra,44(sp)
20018c4c:	d422                	sw	s0,40(sp)
20018c4e:	1800                	addi	s0,sp,48
20018c50:	fca42e23          	sw	a0,-36(s0)
/home/nicoladgg/wsFreedomStudio/sifive_hifive1_revb_hello/freedom-metal/src/drivers/sifive_uart0.c:183
20018c54:	fdc42783          	lw	a5,-36(s0)
20018c58:	fef42623          	sw	a5,-20(s0)
/home/nicoladgg/wsFreedomStudio/sifive_hifive1_revb_hello/freedom-metal/src/drivers/sifive_uart0.c:184
20018c5c:	fec42703          	lw	a4,-20(s0)
20018c60:	fec42783          	lw	a5,-20(s0)
20018c64:	43dc                	lw	a5,4(a5)
20018c66:	85be                	mv	a1,a5
20018c68:	853a                	mv	a0,a4
20018c6a:	bedfb0ef          	jal	ra,20014856 <metal_uart_set_baud_rate>
/home/nicoladgg/wsFreedomStudio/sifive_hifive1_revb_hello/freedom-metal/src/drivers/sifive_uart0.c:185
20018c6e:	0001                	nop
20018c70:	50b2                	lw	ra,44(sp)
20018c72:	5422                	lw	s0,40(sp)
20018c74:	6145                	addi	sp,sp,48
20018c76:	8082                	ret

20018c78 <__metal_driver_sifive_uart0_init>:
__metal_driver_sifive_uart0_init():
/home/nicoladgg/wsFreedomStudio/sifive_hifive1_revb_hello/freedom-metal/src/drivers/sifive_uart0.c:187
20018c78:	7139                	addi	sp,sp,-64
20018c7a:	de06                	sw	ra,60(sp)
20018c7c:	dc22                	sw	s0,56(sp)
20018c7e:	0080                	addi	s0,sp,64
20018c80:	fca42623          	sw	a0,-52(s0)
20018c84:	fcb42423          	sw	a1,-56(s0)
/home/nicoladgg/wsFreedomStudio/sifive_hifive1_revb_hello/freedom-metal/src/drivers/sifive_uart0.c:188
20018c88:	fcc42783          	lw	a5,-52(s0)
20018c8c:	fef42623          	sw	a5,-20(s0)
/home/nicoladgg/wsFreedomStudio/sifive_hifive1_revb_hello/freedom-metal/src/drivers/sifive_uart0.c:189
20018c90:	fcc42503          	lw	a0,-52(s0)
20018c94:	a37ff0ef          	jal	ra,200186ca <__metal_driver_sifive_uart0_clock>
20018c98:	fea42423          	sw	a0,-24(s0)
/home/nicoladgg/wsFreedomStudio/sifive_hifive1_revb_hello/freedom-metal/src/drivers/sifive_uart0.c:191
20018c9c:	fcc42503          	lw	a0,-52(s0)
20018ca0:	a73ff0ef          	jal	ra,20018712 <__metal_driver_sifive_uart0_pinmux>
20018ca4:	fea42223          	sw	a0,-28(s0)
/home/nicoladgg/wsFreedomStudio/sifive_hifive1_revb_hello/freedom-metal/src/drivers/sifive_uart0.c:193
20018ca8:	fe842783          	lw	a5,-24(s0)
20018cac:	c7b9                	beqz	a5,20018cfa <__metal_driver_sifive_uart0_init+0x82>
/home/nicoladgg/wsFreedomStudio/sifive_hifive1_revb_hello/freedom-metal/src/drivers/sifive_uart0.c:194
20018cae:	fec42783          	lw	a5,-20(s0)
20018cb2:	20019737          	lui	a4,0x20019
20018cb6:	b6e70713          	addi	a4,a4,-1170 # 20018b6e <pre_rate_change_callback_func>
20018cba:	c798                	sw	a4,8(a5)
/home/nicoladgg/wsFreedomStudio/sifive_hifive1_revb_hello/freedom-metal/src/drivers/sifive_uart0.c:196
20018cbc:	fec42783          	lw	a5,-20(s0)
20018cc0:	fcc42703          	lw	a4,-52(s0)
20018cc4:	c7d8                	sw	a4,12(a5)
/home/nicoladgg/wsFreedomStudio/sifive_hifive1_revb_hello/freedom-metal/src/drivers/sifive_uart0.c:197
20018cc6:	fec42783          	lw	a5,-20(s0)
20018cca:	07a1                	addi	a5,a5,8
20018ccc:	85be                	mv	a1,a5
20018cce:	fe842503          	lw	a0,-24(s0)
20018cd2:	2241                	jal	20018e52 <metal_clock_register_pre_rate_change_callback>
/home/nicoladgg/wsFreedomStudio/sifive_hifive1_revb_hello/freedom-metal/src/drivers/sifive_uart0.c:200
20018cd4:	fec42783          	lw	a5,-20(s0)
20018cd8:	20019737          	lui	a4,0x20019
20018cdc:	c4870713          	addi	a4,a4,-952 # 20018c48 <post_rate_change_callback_func>
20018ce0:	cbd8                	sw	a4,20(a5)
/home/nicoladgg/wsFreedomStudio/sifive_hifive1_revb_hello/freedom-metal/src/drivers/sifive_uart0.c:202
20018ce2:	fec42783          	lw	a5,-20(s0)
20018ce6:	fcc42703          	lw	a4,-52(s0)
20018cea:	cf98                	sw	a4,24(a5)
/home/nicoladgg/wsFreedomStudio/sifive_hifive1_revb_hello/freedom-metal/src/drivers/sifive_uart0.c:203
20018cec:	fec42783          	lw	a5,-20(s0)
20018cf0:	07d1                	addi	a5,a5,20
20018cf2:	85be                	mv	a1,a5
20018cf4:	fe842503          	lw	a0,-24(s0)
20018cf8:	2271                	jal	20018e84 <metal_clock_register_post_rate_change_callback>
/home/nicoladgg/wsFreedomStudio/sifive_hifive1_revb_hello/freedom-metal/src/drivers/sifive_uart0.c:207
20018cfa:	fec42783          	lw	a5,-20(s0)
20018cfe:	fc842583          	lw	a1,-56(s0)
20018d02:	853e                	mv	a0,a5
20018d04:	b53fb0ef          	jal	ra,20014856 <metal_uart_set_baud_rate>
/home/nicoladgg/wsFreedomStudio/sifive_hifive1_revb_hello/freedom-metal/src/drivers/sifive_uart0.c:209
20018d08:	fe442783          	lw	a5,-28(s0)
20018d0c:	cb95                	beqz	a5,20018d40 <__metal_driver_sifive_uart0_init+0xc8>
/home/nicoladgg/wsFreedomStudio/sifive_hifive1_revb_hello/freedom-metal/src/drivers/sifive_uart0.c:211
20018d0e:	fcc42503          	lw	a0,-52(s0)
20018d12:	a41ff0ef          	jal	ra,20018752 <__metal_driver_sifive_uart0_pinmux_output_selector>
20018d16:	87aa                	mv	a5,a0
/home/nicoladgg/wsFreedomStudio/sifive_hifive1_revb_hello/freedom-metal/src/drivers/sifive_uart0.c:210
20018d18:	fef42023          	sw	a5,-32(s0)
/home/nicoladgg/wsFreedomStudio/sifive_hifive1_revb_hello/freedom-metal/src/drivers/sifive_uart0.c:213
20018d1c:	fcc42503          	lw	a0,-52(s0)
20018d20:	a6fff0ef          	jal	ra,2001878e <__metal_driver_sifive_uart0_pinmux_source_selector>
20018d24:	87aa                	mv	a5,a0
/home/nicoladgg/wsFreedomStudio/sifive_hifive1_revb_hello/freedom-metal/src/drivers/sifive_uart0.c:212
20018d26:	fcf42e23          	sw	a5,-36(s0)
/home/nicoladgg/wsFreedomStudio/sifive_hifive1_revb_hello/freedom-metal/src/drivers/sifive_uart0.c:214
20018d2a:	fe442783          	lw	a5,-28(s0)
20018d2e:	439c                	lw	a5,0(a5)
20018d30:	53dc                	lw	a5,36(a5)
20018d32:	fdc42603          	lw	a2,-36(s0)
20018d36:	fe042583          	lw	a1,-32(s0)
20018d3a:	fe442503          	lw	a0,-28(s0)
20018d3e:	9782                	jalr	a5
/home/nicoladgg/wsFreedomStudio/sifive_hifive1_revb_hello/freedom-metal/src/drivers/sifive_uart0.c:218
20018d40:	0001                	nop
20018d42:	50f2                	lw	ra,60(sp)
20018d44:	5462                	lw	s0,56(sp)
20018d46:	6121                	addi	sp,sp,64
20018d48:	8082                	ret

20018d4a <_metal_clock_call_all_callbacks>:
_metal_clock_call_all_callbacks():
/home/nicoladgg/wsFreedomStudio/sifive_hifive1_revb_hello/freedom-metal/metal/clock.h:50
20018d4a:	7179                	addi	sp,sp,-48
20018d4c:	d606                	sw	ra,44(sp)
20018d4e:	d422                	sw	s0,40(sp)
20018d50:	1800                	addi	s0,sp,48
20018d52:	fca42e23          	sw	a0,-36(s0)
/home/nicoladgg/wsFreedomStudio/sifive_hifive1_revb_hello/freedom-metal/metal/clock.h:51
20018d56:	fdc42783          	lw	a5,-36(s0)
20018d5a:	fef42623          	sw	a5,-20(s0)
/home/nicoladgg/wsFreedomStudio/sifive_hifive1_revb_hello/freedom-metal/metal/clock.h:52
20018d5e:	a831                	j	20018d7a <_metal_clock_call_all_callbacks+0x30>
/home/nicoladgg/wsFreedomStudio/sifive_hifive1_revb_hello/freedom-metal/metal/clock.h:53
20018d60:	fec42783          	lw	a5,-20(s0)
20018d64:	4398                	lw	a4,0(a5)
20018d66:	fec42783          	lw	a5,-20(s0)
20018d6a:	43dc                	lw	a5,4(a5)
20018d6c:	853e                	mv	a0,a5
20018d6e:	9702                	jalr	a4
/home/nicoladgg/wsFreedomStudio/sifive_hifive1_revb_hello/freedom-metal/metal/clock.h:54
20018d70:	fec42783          	lw	a5,-20(s0)
20018d74:	479c                	lw	a5,8(a5)
20018d76:	fef42623          	sw	a5,-20(s0)
/home/nicoladgg/wsFreedomStudio/sifive_hifive1_revb_hello/freedom-metal/metal/clock.h:52
20018d7a:	fec42783          	lw	a5,-20(s0)
20018d7e:	f3ed                	bnez	a5,20018d60 <_metal_clock_call_all_callbacks+0x16>
/home/nicoladgg/wsFreedomStudio/sifive_hifive1_revb_hello/freedom-metal/metal/clock.h:56
20018d80:	0001                	nop
20018d82:	0001                	nop
20018d84:	50b2                	lw	ra,44(sp)
20018d86:	5422                	lw	s0,40(sp)
20018d88:	6145                	addi	sp,sp,48
20018d8a:	8082                	ret

20018d8c <_metal_clock_append_to_callbacks>:
_metal_clock_append_to_callbacks():
/home/nicoladgg/wsFreedomStudio/sifive_hifive1_revb_hello/freedom-metal/metal/clock.h:63
20018d8c:	7179                	addi	sp,sp,-48
20018d8e:	d622                	sw	s0,44(sp)
20018d90:	1800                	addi	s0,sp,48
20018d92:	fca42e23          	sw	a0,-36(s0)
20018d96:	fcb42c23          	sw	a1,-40(s0)
/home/nicoladgg/wsFreedomStudio/sifive_hifive1_revb_hello/freedom-metal/metal/clock.h:64
20018d9a:	fd842783          	lw	a5,-40(s0)
20018d9e:	0007a423          	sw	zero,8(a5) # 10008 <__heap_size+0xf808>
/home/nicoladgg/wsFreedomStudio/sifive_hifive1_revb_hello/freedom-metal/metal/clock.h:66
20018da2:	fdc42783          	lw	a5,-36(s0)
20018da6:	e781                	bnez	a5,20018dae <_metal_clock_append_to_callbacks+0x22>
/home/nicoladgg/wsFreedomStudio/sifive_hifive1_revb_hello/freedom-metal/metal/clock.h:67
20018da8:	fd842783          	lw	a5,-40(s0)
20018dac:	a035                	j	20018dd8 <_metal_clock_append_to_callbacks+0x4c>
/home/nicoladgg/wsFreedomStudio/sifive_hifive1_revb_hello/freedom-metal/metal/clock.h:70
20018dae:	fdc42783          	lw	a5,-36(s0)
20018db2:	fef42623          	sw	a5,-20(s0)
/home/nicoladgg/wsFreedomStudio/sifive_hifive1_revb_hello/freedom-metal/metal/clock.h:72
20018db6:	a031                	j	20018dc2 <_metal_clock_append_to_callbacks+0x36>
/home/nicoladgg/wsFreedomStudio/sifive_hifive1_revb_hello/freedom-metal/metal/clock.h:73
20018db8:	fec42783          	lw	a5,-20(s0)
20018dbc:	479c                	lw	a5,8(a5)
20018dbe:	fef42623          	sw	a5,-20(s0)
/home/nicoladgg/wsFreedomStudio/sifive_hifive1_revb_hello/freedom-metal/metal/clock.h:72
20018dc2:	fec42783          	lw	a5,-20(s0)
20018dc6:	479c                	lw	a5,8(a5)
20018dc8:	fbe5                	bnez	a5,20018db8 <_metal_clock_append_to_callbacks+0x2c>
/home/nicoladgg/wsFreedomStudio/sifive_hifive1_revb_hello/freedom-metal/metal/clock.h:76
20018dca:	fec42783          	lw	a5,-20(s0)
20018dce:	fd842703          	lw	a4,-40(s0)
20018dd2:	c798                	sw	a4,8(a5)
/home/nicoladgg/wsFreedomStudio/sifive_hifive1_revb_hello/freedom-metal/metal/clock.h:78
20018dd4:	fdc42783          	lw	a5,-36(s0)
/home/nicoladgg/wsFreedomStudio/sifive_hifive1_revb_hello/freedom-metal/metal/clock.h:79
20018dd8:	853e                	mv	a0,a5
20018dda:	5432                	lw	s0,44(sp)
20018ddc:	6145                	addi	sp,sp,48
20018dde:	8082                	ret

20018de0 <metal_clock_get_rate_hz>:
metal_clock_get_rate_hz():
/home/nicoladgg/wsFreedomStudio/sifive_hifive1_revb_hello/freedom-metal/metal/clock.h:110
20018de0:	1101                	addi	sp,sp,-32
20018de2:	ce06                	sw	ra,28(sp)
20018de4:	cc22                	sw	s0,24(sp)
20018de6:	1000                	addi	s0,sp,32
20018de8:	fea42623          	sw	a0,-20(s0)
/home/nicoladgg/wsFreedomStudio/sifive_hifive1_revb_hello/freedom-metal/metal/clock.h:111
20018dec:	fec42783          	lw	a5,-20(s0)
20018df0:	439c                	lw	a5,0(a5)
20018df2:	439c                	lw	a5,0(a5)
20018df4:	fec42503          	lw	a0,-20(s0)
20018df8:	9782                	jalr	a5
20018dfa:	87aa                	mv	a5,a0
/home/nicoladgg/wsFreedomStudio/sifive_hifive1_revb_hello/freedom-metal/metal/clock.h:112
20018dfc:	853e                	mv	a0,a5
20018dfe:	40f2                	lw	ra,28(sp)
20018e00:	4462                	lw	s0,24(sp)
20018e02:	6105                	addi	sp,sp,32
20018e04:	8082                	ret

20018e06 <metal_clock_set_rate_hz>:
metal_clock_set_rate_hz():
/home/nicoladgg/wsFreedomStudio/sifive_hifive1_revb_hello/freedom-metal/metal/clock.h:128
20018e06:	7179                	addi	sp,sp,-48
20018e08:	d606                	sw	ra,44(sp)
20018e0a:	d422                	sw	s0,40(sp)
20018e0c:	1800                	addi	s0,sp,48
20018e0e:	fca42e23          	sw	a0,-36(s0)
20018e12:	fcb42c23          	sw	a1,-40(s0)
/home/nicoladgg/wsFreedomStudio/sifive_hifive1_revb_hello/freedom-metal/metal/clock.h:129
20018e16:	fdc42783          	lw	a5,-36(s0)
20018e1a:	43dc                	lw	a5,4(a5)
20018e1c:	853e                	mv	a0,a5
20018e1e:	f2dff0ef          	jal	ra,20018d4a <_metal_clock_call_all_callbacks>
/home/nicoladgg/wsFreedomStudio/sifive_hifive1_revb_hello/freedom-metal/metal/clock.h:131
20018e22:	fdc42783          	lw	a5,-36(s0)
20018e26:	439c                	lw	a5,0(a5)
20018e28:	43dc                	lw	a5,4(a5)
20018e2a:	fd842583          	lw	a1,-40(s0)
20018e2e:	fdc42503          	lw	a0,-36(s0)
20018e32:	9782                	jalr	a5
20018e34:	fea42623          	sw	a0,-20(s0)
/home/nicoladgg/wsFreedomStudio/sifive_hifive1_revb_hello/freedom-metal/metal/clock.h:133
20018e38:	fdc42783          	lw	a5,-36(s0)
20018e3c:	479c                	lw	a5,8(a5)
20018e3e:	853e                	mv	a0,a5
20018e40:	f0bff0ef          	jal	ra,20018d4a <_metal_clock_call_all_callbacks>
/home/nicoladgg/wsFreedomStudio/sifive_hifive1_revb_hello/freedom-metal/metal/clock.h:135
20018e44:	fec42783          	lw	a5,-20(s0)
/home/nicoladgg/wsFreedomStudio/sifive_hifive1_revb_hello/freedom-metal/metal/clock.h:136
20018e48:	853e                	mv	a0,a5
20018e4a:	50b2                	lw	ra,44(sp)
20018e4c:	5422                	lw	s0,40(sp)
20018e4e:	6145                	addi	sp,sp,48
20018e50:	8082                	ret

20018e52 <metal_clock_register_pre_rate_change_callback>:
metal_clock_register_pre_rate_change_callback():
/home/nicoladgg/wsFreedomStudio/sifive_hifive1_revb_hello/freedom-metal/metal/clock.h:146
20018e52:	1101                	addi	sp,sp,-32
20018e54:	ce06                	sw	ra,28(sp)
20018e56:	cc22                	sw	s0,24(sp)
20018e58:	1000                	addi	s0,sp,32
20018e5a:	fea42623          	sw	a0,-20(s0)
20018e5e:	feb42423          	sw	a1,-24(s0)
/home/nicoladgg/wsFreedomStudio/sifive_hifive1_revb_hello/freedom-metal/metal/clock.h:148
20018e62:	fec42783          	lw	a5,-20(s0)
20018e66:	43dc                	lw	a5,4(a5)
20018e68:	fe842583          	lw	a1,-24(s0)
20018e6c:	853e                	mv	a0,a5
20018e6e:	f1fff0ef          	jal	ra,20018d8c <_metal_clock_append_to_callbacks>
20018e72:	872a                	mv	a4,a0
/home/nicoladgg/wsFreedomStudio/sifive_hifive1_revb_hello/freedom-metal/metal/clock.h:147
20018e74:	fec42783          	lw	a5,-20(s0)
20018e78:	c3d8                	sw	a4,4(a5)
/home/nicoladgg/wsFreedomStudio/sifive_hifive1_revb_hello/freedom-metal/metal/clock.h:149
20018e7a:	0001                	nop
20018e7c:	40f2                	lw	ra,28(sp)
20018e7e:	4462                	lw	s0,24(sp)
20018e80:	6105                	addi	sp,sp,32
20018e82:	8082                	ret

20018e84 <metal_clock_register_post_rate_change_callback>:
metal_clock_register_post_rate_change_callback():
/home/nicoladgg/wsFreedomStudio/sifive_hifive1_revb_hello/freedom-metal/metal/clock.h:159
20018e84:	1101                	addi	sp,sp,-32
20018e86:	ce06                	sw	ra,28(sp)
20018e88:	cc22                	sw	s0,24(sp)
20018e8a:	1000                	addi	s0,sp,32
20018e8c:	fea42623          	sw	a0,-20(s0)
20018e90:	feb42423          	sw	a1,-24(s0)
/home/nicoladgg/wsFreedomStudio/sifive_hifive1_revb_hello/freedom-metal/metal/clock.h:161
20018e94:	fec42783          	lw	a5,-20(s0)
20018e98:	479c                	lw	a5,8(a5)
20018e9a:	fe842583          	lw	a1,-24(s0)
20018e9e:	853e                	mv	a0,a5
20018ea0:	eedff0ef          	jal	ra,20018d8c <_metal_clock_append_to_callbacks>
20018ea4:	872a                	mv	a4,a0
/home/nicoladgg/wsFreedomStudio/sifive_hifive1_revb_hello/freedom-metal/metal/clock.h:160
20018ea6:	fec42783          	lw	a5,-20(s0)
20018eaa:	c798                	sw	a4,8(a5)
/home/nicoladgg/wsFreedomStudio/sifive_hifive1_revb_hello/freedom-metal/metal/clock.h:162
20018eac:	0001                	nop
20018eae:	40f2                	lw	ra,28(sp)
20018eb0:	4462                	lw	s0,24(sp)
20018eb2:	6105                	addi	sp,sp,32
20018eb4:	8082                	ret

20018eb6 <metal_cpu_interrupt_controller>:
metal_cpu_interrupt_controller():
/home/nicoladgg/wsFreedomStudio/sifive_hifive1_revb_hello/freedom-metal/metal/cpu.h:224
20018eb6:	1101                	addi	sp,sp,-32
20018eb8:	ce06                	sw	ra,28(sp)
20018eba:	cc22                	sw	s0,24(sp)
20018ebc:	1000                	addi	s0,sp,32
20018ebe:	fea42623          	sw	a0,-20(s0)
/home/nicoladgg/wsFreedomStudio/sifive_hifive1_revb_hello/freedom-metal/metal/cpu.h:225
20018ec2:	fec42783          	lw	a5,-20(s0)
20018ec6:	439c                	lw	a5,0(a5)
20018ec8:	57dc                	lw	a5,44(a5)
20018eca:	fec42503          	lw	a0,-20(s0)
20018ece:	9782                	jalr	a5
20018ed0:	87aa                	mv	a5,a0
/home/nicoladgg/wsFreedomStudio/sifive_hifive1_revb_hello/freedom-metal/metal/cpu.h:226
20018ed2:	853e                	mv	a0,a5
20018ed4:	40f2                	lw	ra,28(sp)
20018ed6:	4462                	lw	s0,24(sp)
20018ed8:	6105                	addi	sp,sp,32
20018eda:	8082                	ret

20018edc <metal_cpu_get>:
metal_cpu_get():
/home/nicoladgg/wsFreedomStudio/sifive_hifive1_revb_hello/freedom-metal/src/cpu.c:7
20018edc:	1101                	addi	sp,sp,-32
20018ede:	ce22                	sw	s0,28(sp)
20018ee0:	1000                	addi	s0,sp,32
20018ee2:	fea42623          	sw	a0,-20(s0)
/home/nicoladgg/wsFreedomStudio/sifive_hifive1_revb_hello/freedom-metal/src/cpu.c:8
20018ee6:	fec42783          	lw	a5,-20(s0)
20018eea:	eb89                	bnez	a5,20018efc <metal_cpu_get+0x20>
/home/nicoladgg/wsFreedomStudio/sifive_hifive1_revb_hello/freedom-metal/src/cpu.c:9
20018eec:	fec42703          	lw	a4,-20(s0)
20018ef0:	070a                	slli	a4,a4,0x2
20018ef2:	80c18793          	addi	a5,gp,-2036 # 80000aac <__metal_cpu_table>
20018ef6:	97ba                	add	a5,a5,a4
20018ef8:	439c                	lw	a5,0(a5)
20018efa:	a011                	j	20018efe <metal_cpu_get+0x22>
/home/nicoladgg/wsFreedomStudio/sifive_hifive1_revb_hello/freedom-metal/src/cpu.c:11
20018efc:	4781                	li	a5,0
/home/nicoladgg/wsFreedomStudio/sifive_hifive1_revb_hello/freedom-metal/src/cpu.c:12
20018efe:	853e                	mv	a0,a5
20018f00:	4472                	lw	s0,28(sp)
20018f02:	6105                	addi	sp,sp,32
20018f04:	8082                	ret

20018f06 <metal_cpu_get_current_hartid>:
metal_cpu_get_current_hartid():
/home/nicoladgg/wsFreedomStudio/sifive_hifive1_revb_hello/freedom-metal/src/cpu.c:14
20018f06:	1101                	addi	sp,sp,-32
20018f08:	ce22                	sw	s0,28(sp)
20018f0a:	1000                	addi	s0,sp,32
/home/nicoladgg/wsFreedomStudio/sifive_hifive1_revb_hello/freedom-metal/src/cpu.c:17
20018f0c:	f14027f3          	csrr	a5,mhartid
20018f10:	fef42623          	sw	a5,-20(s0)
/home/nicoladgg/wsFreedomStudio/sifive_hifive1_revb_hello/freedom-metal/src/cpu.c:18
20018f14:	fec42783          	lw	a5,-20(s0)
/home/nicoladgg/wsFreedomStudio/sifive_hifive1_revb_hello/freedom-metal/src/cpu.c:20
20018f18:	853e                	mv	a0,a5
20018f1a:	4472                	lw	s0,28(sp)
20018f1c:	6105                	addi	sp,sp,32
20018f1e:	8082                	ret

20018f20 <metal_shutdown>:
metal_shutdown():
/home/nicoladgg/wsFreedomStudio/sifive_hifive1_revb_hello/freedom-metal/src/shutdown.c:17
20018f20:	1101                	addi	sp,sp,-32
20018f22:	ce22                	sw	s0,28(sp)
20018f24:	1000                	addi	s0,sp,32
20018f26:	fea42623          	sw	a0,-20(s0)
/home/nicoladgg/wsFreedomStudio/sifive_hifive1_revb_hello/freedom-metal/src/shutdown.c:19 (discriminator 1)
20018f2a:	0001                	nop
20018f2c:	bffd                	j	20018f2a <metal_shutdown+0xa>
	...

20018f80 <__metal_vector_table>:
IRQ_0():
/home/nicoladgg/wsFreedomStudio/sifive_hifive1_revb_hello/freedom-metal/src/vector.S:96
20018f80:	a60fc06f          	j	200151e0 <metal_interrupt_vector_handler>

20018f84 <IRQ_1>:
IRQ_1():
/home/nicoladgg/wsFreedomStudio/sifive_hifive1_revb_hello/freedom-metal/src/vector.S:98
20018f84:	a5cfc06f          	j	200151e0 <metal_interrupt_vector_handler>

20018f88 <IRQ_2>:
IRQ_2():
/home/nicoladgg/wsFreedomStudio/sifive_hifive1_revb_hello/freedom-metal/src/vector.S:100
20018f88:	a58fc06f          	j	200151e0 <metal_interrupt_vector_handler>

20018f8c <IRQ_3>:
IRQ_3():
/home/nicoladgg/wsFreedomStudio/sifive_hifive1_revb_hello/freedom-metal/src/vector.S:102
20018f8c:	a82fc06f          	j	2001520e <metal_software_interrupt_vector_handler>

20018f90 <IRQ_4>:
IRQ_4():
/home/nicoladgg/wsFreedomStudio/sifive_hifive1_revb_hello/freedom-metal/src/vector.S:104
20018f90:	a50fc06f          	j	200151e0 <metal_interrupt_vector_handler>

20018f94 <IRQ_5>:
IRQ_5():
/home/nicoladgg/wsFreedomStudio/sifive_hifive1_revb_hello/freedom-metal/src/vector.S:106
20018f94:	a4cfc06f          	j	200151e0 <metal_interrupt_vector_handler>

20018f98 <IRQ_6>:
IRQ_6():
/home/nicoladgg/wsFreedomStudio/sifive_hifive1_revb_hello/freedom-metal/src/vector.S:108
20018f98:	a48fc06f          	j	200151e0 <metal_interrupt_vector_handler>

20018f9c <IRQ_7>:
IRQ_7():
/home/nicoladgg/wsFreedomStudio/sifive_hifive1_revb_hello/freedom-metal/src/vector.S:110
20018f9c:	b64fc06f          	j	20015300 <metal_timer_interrupt_vector_handler>

20018fa0 <IRQ_8>:
IRQ_8():
/home/nicoladgg/wsFreedomStudio/sifive_hifive1_revb_hello/freedom-metal/src/vector.S:112
20018fa0:	a40fc06f          	j	200151e0 <metal_interrupt_vector_handler>

20018fa4 <IRQ_9>:
IRQ_9():
/home/nicoladgg/wsFreedomStudio/sifive_hifive1_revb_hello/freedom-metal/src/vector.S:114
20018fa4:	a3cfc06f          	j	200151e0 <metal_interrupt_vector_handler>

20018fa8 <IRQ_10>:
IRQ_10():
/home/nicoladgg/wsFreedomStudio/sifive_hifive1_revb_hello/freedom-metal/src/vector.S:116
20018fa8:	a38fc06f          	j	200151e0 <metal_interrupt_vector_handler>

20018fac <IRQ_11>:
IRQ_11():
/home/nicoladgg/wsFreedomStudio/sifive_hifive1_revb_hello/freedom-metal/src/vector.S:118
20018fac:	a34fc06f          	j	200151e0 <metal_interrupt_vector_handler>

20018fb0 <IRQ_12>:
IRQ_12():
/home/nicoladgg/wsFreedomStudio/sifive_hifive1_revb_hello/freedom-metal/src/vector.S:120
20018fb0:	a30fc06f          	j	200151e0 <metal_interrupt_vector_handler>

20018fb4 <IRQ_13>:
IRQ_13():
/home/nicoladgg/wsFreedomStudio/sifive_hifive1_revb_hello/freedom-metal/src/vector.S:122
20018fb4:	a2cfc06f          	j	200151e0 <metal_interrupt_vector_handler>

20018fb8 <IRQ_14>:
IRQ_14():
/home/nicoladgg/wsFreedomStudio/sifive_hifive1_revb_hello/freedom-metal/src/vector.S:124
20018fb8:	a28fc06f          	j	200151e0 <metal_interrupt_vector_handler>

20018fbc <IRQ_15>:
IRQ_15():
/home/nicoladgg/wsFreedomStudio/sifive_hifive1_revb_hello/freedom-metal/src/vector.S:126
20018fbc:	a24fc06f          	j	200151e0 <metal_interrupt_vector_handler>

20018fc0 <IRQ_LC0>:
IRQ_LC0():
/home/nicoladgg/wsFreedomStudio/sifive_hifive1_revb_hello/freedom-metal/src/vector.S:128
20018fc0:	eb4fc06f          	j	20015674 <metal_lc0_interrupt_vector_handler>

20018fc4 <IRQ_LC1>:
IRQ_LC1():
/home/nicoladgg/wsFreedomStudio/sifive_hifive1_revb_hello/freedom-metal/src/vector.S:130
20018fc4:	f42fc06f          	j	20015706 <metal_lc1_interrupt_vector_handler>

20018fc8 <IRQ_LC2>:
IRQ_LC2():
/home/nicoladgg/wsFreedomStudio/sifive_hifive1_revb_hello/freedom-metal/src/vector.S:132
20018fc8:	fd0fc06f          	j	20015798 <metal_lc2_interrupt_vector_handler>

20018fcc <IRQ_LC3>:
IRQ_LC3():
/home/nicoladgg/wsFreedomStudio/sifive_hifive1_revb_hello/freedom-metal/src/vector.S:134
20018fcc:	85ffc06f          	j	2001582a <metal_lc3_interrupt_vector_handler>

20018fd0 <IRQ_LC4>:
IRQ_LC4():
/home/nicoladgg/wsFreedomStudio/sifive_hifive1_revb_hello/freedom-metal/src/vector.S:136
20018fd0:	8edfc06f          	j	200158bc <metal_lc4_interrupt_vector_handler>

20018fd4 <IRQ_LC5>:
IRQ_LC5():
/home/nicoladgg/wsFreedomStudio/sifive_hifive1_revb_hello/freedom-metal/src/vector.S:138
20018fd4:	97bfc06f          	j	2001594e <metal_lc5_interrupt_vector_handler>

20018fd8 <IRQ_LC6>:
IRQ_LC6():
/home/nicoladgg/wsFreedomStudio/sifive_hifive1_revb_hello/freedom-metal/src/vector.S:140
20018fd8:	a09fc06f          	j	200159e0 <metal_lc6_interrupt_vector_handler>

20018fdc <IRQ_LC7>:
IRQ_LC7():
/home/nicoladgg/wsFreedomStudio/sifive_hifive1_revb_hello/freedom-metal/src/vector.S:142
20018fdc:	a97fc06f          	j	20015a72 <metal_lc7_interrupt_vector_handler>

20018fe0 <IRQ_LC8>:
IRQ_LC8():
/home/nicoladgg/wsFreedomStudio/sifive_hifive1_revb_hello/freedom-metal/src/vector.S:144
20018fe0:	b25fc06f          	j	20015b04 <metal_lc8_interrupt_vector_handler>

20018fe4 <IRQ_LC9>:
IRQ_LC9():
/home/nicoladgg/wsFreedomStudio/sifive_hifive1_revb_hello/freedom-metal/src/vector.S:146
20018fe4:	bb3fc06f          	j	20015b96 <metal_lc9_interrupt_vector_handler>

20018fe8 <IRQ_LC10>:
IRQ_LC10():
/home/nicoladgg/wsFreedomStudio/sifive_hifive1_revb_hello/freedom-metal/src/vector.S:148
20018fe8:	c41fc06f          	j	20015c28 <metal_lc10_interrupt_vector_handler>

20018fec <IRQ_LC11>:
IRQ_LC11():
/home/nicoladgg/wsFreedomStudio/sifive_hifive1_revb_hello/freedom-metal/src/vector.S:150
20018fec:	ccffc06f          	j	20015cba <metal_lc11_interrupt_vector_handler>

20018ff0 <IRQ_LC12>:
IRQ_LC12():
/home/nicoladgg/wsFreedomStudio/sifive_hifive1_revb_hello/freedom-metal/src/vector.S:152
20018ff0:	d5dfc06f          	j	20015d4c <metal_lc12_interrupt_vector_handler>

20018ff4 <IRQ_LC13>:
IRQ_LC13():
/home/nicoladgg/wsFreedomStudio/sifive_hifive1_revb_hello/freedom-metal/src/vector.S:154
20018ff4:	debfc06f          	j	20015dde <metal_lc13_interrupt_vector_handler>

20018ff8 <IRQ_LC14>:
IRQ_LC14():
/home/nicoladgg/wsFreedomStudio/sifive_hifive1_revb_hello/freedom-metal/src/vector.S:156
20018ff8:	e79fc06f          	j	20015e70 <metal_lc14_interrupt_vector_handler>

20018ffc <IRQ_LC15>:
IRQ_LC15():
/home/nicoladgg/wsFreedomStudio/sifive_hifive1_revb_hello/freedom-metal/src/vector.S:158
20018ffc:	f07fc06f          	j	20015f02 <metal_lc15_interrupt_vector_handler>

20019000 <__metal_driver_fixed_clock_rate>:
__metal_driver_fixed_clock_rate():
/home/nicoladgg/wsFreedomStudio/sifive_hifive1_revb_hello/bsp/build/debug/./metal/machine.h:208
20019000:	1101                	addi	sp,sp,-32
20019002:	ce22                	sw	s0,28(sp)
20019004:	1000                	addi	s0,sp,32
20019006:	fea42623          	sw	a0,-20(s0)
/home/nicoladgg/wsFreedomStudio/sifive_hifive1_revb_hello/bsp/build/debug/./metal/machine.h:209
2001900a:	fec42703          	lw	a4,-20(s0)
2001900e:	800007b7          	lui	a5,0x80000
20019012:	06078793          	addi	a5,a5,96 # 80000060 <metal_segment_heap_target_end+0xffffe680>
20019016:	00f71763          	bne	a4,a5,20019024 <__metal_driver_fixed_clock_rate+0x24>
/home/nicoladgg/wsFreedomStudio/sifive_hifive1_revb_hello/bsp/build/debug/./metal/machine.h:210
2001901a:	00f427b7          	lui	a5,0xf42
2001901e:	40078793          	addi	a5,a5,1024 # f42400 <__heap_size+0xf41c00>
20019022:	a099                	j	20019068 <__metal_driver_fixed_clock_rate+0x68>
/home/nicoladgg/wsFreedomStudio/sifive_hifive1_revb_hello/bsp/build/debug/./metal/machine.h:212
20019024:	fec42703          	lw	a4,-20(s0)
20019028:	800007b7          	lui	a5,0x80000
2001902c:	06c78793          	addi	a5,a5,108 # 8000006c <metal_segment_heap_target_end+0xffffe68c>
20019030:	00f71763          	bne	a4,a5,2001903e <__metal_driver_fixed_clock_rate+0x3e>
/home/nicoladgg/wsFreedomStudio/sifive_hifive1_revb_hello/bsp/build/debug/./metal/machine.h:213
20019034:	044aa7b7          	lui	a5,0x44aa
20019038:	20078793          	addi	a5,a5,512 # 44aa200 <__heap_size+0x44a9a00>
2001903c:	a035                	j	20019068 <__metal_driver_fixed_clock_rate+0x68>
/home/nicoladgg/wsFreedomStudio/sifive_hifive1_revb_hello/bsp/build/debug/./metal/machine.h:215
2001903e:	fec42703          	lw	a4,-20(s0)
20019042:	800007b7          	lui	a5,0x80000
20019046:	07878793          	addi	a5,a5,120 # 80000078 <metal_segment_heap_target_end+0xffffe698>
2001904a:	00f71463          	bne	a4,a5,20019052 <__metal_driver_fixed_clock_rate+0x52>
/home/nicoladgg/wsFreedomStudio/sifive_hifive1_revb_hello/bsp/build/debug/./metal/machine.h:216
2001904e:	67a1                	lui	a5,0x8
20019050:	a821                	j	20019068 <__metal_driver_fixed_clock_rate+0x68>
/home/nicoladgg/wsFreedomStudio/sifive_hifive1_revb_hello/bsp/build/debug/./metal/machine.h:218
20019052:	fec42703          	lw	a4,-20(s0)
20019056:	800007b7          	lui	a5,0x80000
2001905a:	08478793          	addi	a5,a5,132 # 80000084 <metal_segment_heap_target_end+0xffffe6a4>
2001905e:	00f71463          	bne	a4,a5,20019066 <__metal_driver_fixed_clock_rate+0x66>
/home/nicoladgg/wsFreedomStudio/sifive_hifive1_revb_hello/bsp/build/debug/./metal/machine.h:219
20019062:	67a1                	lui	a5,0x8
20019064:	a011                	j	20019068 <__metal_driver_fixed_clock_rate+0x68>
/home/nicoladgg/wsFreedomStudio/sifive_hifive1_revb_hello/bsp/build/debug/./metal/machine.h:222
20019066:	4781                	li	a5,0
/home/nicoladgg/wsFreedomStudio/sifive_hifive1_revb_hello/bsp/build/debug/./metal/machine.h:224
20019068:	853e                	mv	a0,a5
2001906a:	4472                	lw	s0,28(sp)
2001906c:	6105                	addi	sp,sp,32
2001906e:	8082                	ret

20019070 <__metal_driver_fixed_clock_get_rate_hz>:
__metal_driver_fixed_clock_get_rate_hz():
/home/nicoladgg/wsFreedomStudio/sifive_hifive1_revb_hello/freedom-metal/src/drivers/fixed-clock.c:12
20019070:	1101                	addi	sp,sp,-32
20019072:	ce06                	sw	ra,28(sp)
20019074:	cc22                	sw	s0,24(sp)
20019076:	1000                	addi	s0,sp,32
20019078:	fea42623          	sw	a0,-20(s0)
/home/nicoladgg/wsFreedomStudio/sifive_hifive1_revb_hello/freedom-metal/src/drivers/fixed-clock.c:13
2001907c:	fec42503          	lw	a0,-20(s0)
20019080:	3741                	jal	20019000 <__metal_driver_fixed_clock_rate>
20019082:	87aa                	mv	a5,a0
/home/nicoladgg/wsFreedomStudio/sifive_hifive1_revb_hello/freedom-metal/src/drivers/fixed-clock.c:14
20019084:	853e                	mv	a0,a5
20019086:	40f2                	lw	ra,28(sp)
20019088:	4462                	lw	s0,24(sp)
2001908a:	6105                	addi	sp,sp,32
2001908c:	8082                	ret

2001908e <__metal_driver_fixed_clock_set_rate_hz>:
__metal_driver_fixed_clock_set_rate_hz():
/home/nicoladgg/wsFreedomStudio/sifive_hifive1_revb_hello/freedom-metal/src/drivers/fixed-clock.c:17
2001908e:	1101                	addi	sp,sp,-32
20019090:	ce06                	sw	ra,28(sp)
20019092:	cc22                	sw	s0,24(sp)
20019094:	1000                	addi	s0,sp,32
20019096:	fea42623          	sw	a0,-20(s0)
2001909a:	feb42423          	sw	a1,-24(s0)
/home/nicoladgg/wsFreedomStudio/sifive_hifive1_revb_hello/freedom-metal/src/drivers/fixed-clock.c:18
2001909e:	fec42503          	lw	a0,-20(s0)
200190a2:	37f9                	jal	20019070 <__metal_driver_fixed_clock_get_rate_hz>
200190a4:	87aa                	mv	a5,a0
/home/nicoladgg/wsFreedomStudio/sifive_hifive1_revb_hello/freedom-metal/src/drivers/fixed-clock.c:19
200190a6:	853e                	mv	a0,a5
200190a8:	40f2                	lw	ra,28(sp)
200190aa:	4462                	lw	s0,24(sp)
200190ac:	6105                	addi	sp,sp,32
200190ae:	8082                	ret

200190b0 <_exit>:
_exit():
/home/nicoladgg/wsFreedomStudio/sifive_hifive1_revb_hello/freedom-metal/gloss/sys_exit.c:3
200190b0:	1101                	addi	sp,sp,-32
200190b2:	ce06                	sw	ra,28(sp)
200190b4:	cc22                	sw	s0,24(sp)
200190b6:	1000                	addi	s0,sp,32
200190b8:	fea42623          	sw	a0,-20(s0)
/home/nicoladgg/wsFreedomStudio/sifive_hifive1_revb_hello/freedom-metal/gloss/sys_exit.c:4
200190bc:	fec42503          	lw	a0,-20(s0)
200190c0:	e61ff0ef          	jal	ra,20018f20 <metal_shutdown>
