
/home/nicoladgg/wsFreedomStudio/SiFive_HiFive_RevB_Projects/src/debug/main.elf:     file format elf32-littleriscv
/home/nicoladgg/wsFreedomStudio/SiFive_HiFive_RevB_Projects/src/debug/main.elf
architecture: riscv:rv32, flags 0x00000112:
EXEC_P, HAS_SYMS, D_PAGED
start address 0x20010000

Program Header:
    LOAD off    0x00001000 vaddr 0x20010000 paddr 0x20010000 align 2**12
         filesz 0x0000125c memsz 0x0000125c flags rwx
    LOAD off    0x0000a000 vaddr 0x80000000 paddr 0x200183b8 align 2**12
         filesz 0x00000ac4 memsz 0x00000ac4 flags rw-
     TLS off    0x00000000 vaddr 0x00000000 paddr 0x00000000 align 2**2
         filesz 0x00000000 memsz 0x00000000 flags ---
    LOAD off    0x00000ac8 vaddr 0x80000ac8 paddr 0x80000ac8 align 2**12
         filesz 0x00000000 memsz 0x00000cb8 flags rw-
    LOAD off    0x00000114 vaddr 0x00000000 paddr 0x00000000 align 2**12
         filesz 0x00000000 memsz 0x00000000 flags ---
    LOAD off    0x00002280 vaddr 0x20011280 paddr 0x20011280 align 2**12
         filesz 0x00007134 memsz 0x00007134 flags r-x
    LOAD off    0x00000114 vaddr 0x00000000 paddr 0x00000000 align 2**12
         filesz 0x00000000 memsz 0x00000000 flags ---

Sections:
Idx Name              Size      VMA       LMA       File off  Algn  Flags
  0 .init             000002dc  20010000  20010000  00001000  2**4  CONTENTS, ALLOC, LOAD, READONLY, CODE
  1 .init_array       0000000c  200102e0  200102e0  000012e0  2**3  CONTENTS, ALLOC, LOAD, DATA
  2 .ctors            0000007a  200102ec  200102ec  000012ec  2**1  CONTENTS, ALLOC, LOAD, READONLY, CODE
  3 .rodata           00000ef4  20010368  20010368  00001368  2**3  CONTENTS, ALLOC, LOAD, READONLY, DATA
  4 .text             00007134  20011280  20011280  00002280  2**7  CONTENTS, ALLOC, LOAD, READONLY, CODE
  5 .data             00000ac4  80000000  200183b8  0000a000  2**3  CONTENTS, ALLOC, LOAD, DATA
  6 .bss              000000b8  80000ac8  80000ac8  0000aac8  2**3  ALLOC
  7 .stack            00000400  80000b80  80000b80  0000aac8  2**4  ALLOC
  8 .heap             00000800  80000f80  80000f80  0000aac8  2**3  ALLOC
  9 .debug_info       00024791  00000000  00000000  0000aac4  2**0  CONTENTS, READONLY, DEBUGGING, OCTETS
 10 .debug_abbrev     0000331e  00000000  00000000  0002f255  2**0  CONTENTS, READONLY, DEBUGGING, OCTETS
 11 .debug_aranges    00000cf8  00000000  00000000  00032578  2**3  CONTENTS, READONLY, DEBUGGING, OCTETS
 12 .debug_ranges     00000e70  00000000  00000000  00033270  2**3  CONTENTS, READONLY, DEBUGGING, OCTETS
 13 .debug_line       0000e37f  00000000  00000000  000340e0  2**0  CONTENTS, READONLY, DEBUGGING, OCTETS
 14 .debug_str        0000564a  00000000  00000000  0004245f  2**0  CONTENTS, READONLY, DEBUGGING, OCTETS
 15 .comment          00000030  00000000  00000000  00047aa9  2**0  CONTENTS, READONLY
 16 .riscv.attributes 0000002f  00000000  00000000  00047ad9  2**0  CONTENTS, READONLY
 17 .debug_frame      000032f4  00000000  00000000  00047b08  2**2  CONTENTS, READONLY, DEBUGGING, OCTETS
 18 .debug_loc        00002495  00000000  00000000  0004adfc  2**0  CONTENTS, READONLY, DEBUGGING, OCTETS
SYMBOL TABLE:
20010000 l    d  .init	00000000 .init
200102e0 l    d  .init_array	00000000 .init_array
200102ec l    d  .ctors	00000000 .ctors
20010368 l    d  .rodata	00000000 .rodata
20011280 l    d  .text	00000000 .text
80000000 l    d  .data	00000000 .data
80000ac8 l    d  .bss	00000000 .bss
80000b80 l    d  .stack	00000000 .stack
80000f80 l    d  .heap	00000000 .heap
00000000 l    d  .debug_info	00000000 .debug_info
00000000 l    d  .debug_abbrev	00000000 .debug_abbrev
00000000 l    d  .debug_aranges	00000000 .debug_aranges
00000000 l    d  .debug_ranges	00000000 .debug_ranges
00000000 l    d  .debug_line	00000000 .debug_line
00000000 l    d  .debug_str	00000000 .debug_str
00000000 l    d  .comment	00000000 .comment
00000000 l    d  .riscv.attributes	00000000 .riscv.attributes
00000000 l    d  .debug_frame	00000000 .debug_frame
00000000 l    d  .debug_loc	00000000 .debug_loc
00000000 l    df *ABS*	00000000 scrub.o
200100c0 l     F .init	00000000 __metal_memory_scrub
2001012e l       .init	00000000 skip_scrub
00000000 l    df *ABS*	00000000 synchronize_harts.c
00000000 l    df *ABS*	00000000 crt0.o
20010240 l       .init	00000000 _skip_init
20011224 l       .rodata	00000000 argv
20011228 l       .rodata	00000000 envp
2001122c l       .rodata	00000000 name
00000000 l    df *ABS*	00000000 sifive_fe310-g000_pll.c
200160a4 l     F .text	0000001a __metal_driver_sifive_fe310_g000_pll_pllsel0
200160be l     F .text	0000001a __metal_driver_sifive_fe310_g000_pll_pllref
200160d8 l     F .text	00000016 __metal_driver_sifive_fe310_g000_pll_divider_base
200160ee l     F .text	00000014 __metal_driver_sifive_fe310_g000_pll_divider_offset
20016102 l     F .text	00000012 __metal_driver_sifive_fe310_g000_pll_config_base
20016114 l     F .text	00000010 __metal_driver_sifive_fe310_g000_pll_config_offset
20016124 l     F .text	00000016 __metal_driver_sifive_fe310_g000_pll_init_rate
2001613a l     F .text	00000012 __metal_driver_sifive_fe310_g000_prci_base
2001614c l     F .text	00000016 __metal_driver_sifive_fe310_g000_prci_vtable
200108dc l     O .rodata	00000880 pll_configs
20016162 l     F .text	0000004e get_pll_config_freq
200163c4 l     F .text	000000ac find_closest_config
20016470 l     F .text	000001b0 configure_pll
00000000 l    df *ABS*	00000000 tty.c
00000000 l    df *ABS*	00000000 main.c
00000000 l    df *ABS*	00000000 findfp.c
20011c06 l     F .text	00000068 std
00000000 l    df *ABS*	00000000 nano-vfprintf.c
20012146 l     F .text	0000002a __sfputc_r
00000000 l    df *ABS*	00000000 nano-vfprintf_i.c
00000000 l    df *ABS*	00000000 divdf3.c
00000000 l    df *ABS*	00000000 muldf3.c
00000000 l    df *ABS*	00000000 libgcc2.c
00000000 l    df *ABS*	00000000 riscv_clint0.c
20013474 l     F .text	0000002a __metal_driver_sifive_clint0_control_base
2001349e l     F .text	00000028 __metal_driver_sifive_clint0_num_interrupts
200134c6 l     F .text	0000003c __metal_driver_sifive_clint0_interrupt_parents
20013502 l     F .text	00000030 __metal_driver_sifive_clint0_interrupt_lines
20013662 l     F .text	00000036 _get_cpu_intc
00000000 l    df *ABS*	00000000 riscv_cpu.c
20013ba6 l     F .text	00000024 __metal_driver_cpu_hartid
20013bca l     F .text	0000002a __metal_driver_cpu_timebase
20013bf4 l     F .text	0000002a __metal_driver_cpu_interrupt_controller
20013c1e l     F .text	00000024 __metal_driver_cpu_buserror
00000000 l    df *ABS*	00000000 riscv_plic0.c
200155f2 l     F .text	0000002a __metal_driver_sifive_plic0_control_base
2001561c l     F .text	0000002a __metal_driver_sifive_plic0_num_interrupts
20015646 l     F .text	00000028 __metal_driver_sifive_plic0_max_priority
2001566e l     F .text	00000028 __metal_driver_sifive_plic0_interrupt_parents
20015696 l     F .text	00000022 __metal_driver_sifive_plic0_interrupt_lines
200156b8 l     F .text	0000001e __metal_driver_sifive_plic0_context_ids
00000000 l    df *ABS*	00000000 sifive_gpio0.c
200167fe l     F .text	00000026 __metal_driver_sifive_gpio0_base
20016824 l     F .text	0000002a __metal_driver_sifive_gpio0_interrupt_parent
2001684e l     F .text	0000035e __metal_driver_sifive_gpio0_interrupt_lines
00000000 l    df *ABS*	00000000 sifive_uart0.c
2001725c l     F .text	00000040 __metal_driver_sifive_uart0_control_base
2001729c l     F .text	00000048 __metal_driver_sifive_uart0_interrupt_parent
200172e4 l     F .text	0000003c __metal_driver_sifive_uart0_interrupt_line
20017320 l     F .text	00000048 __metal_driver_sifive_uart0_clock
20017368 l     F .text	00000040 __metal_driver_sifive_uart0_pinmux
200173a8 l     F .text	0000003c __metal_driver_sifive_uart0_pinmux_output_selector
200173e4 l     F .text	00000040 __metal_driver_sifive_uart0_pinmux_source_selector
200177c4 l     F .text	000000da pre_rate_change_callback_func
2001789e l     F .text	0000002e post_rate_change_callback_func
00000000 l    df *ABS*	00000000 impure.c
80000000 l     O .data	00000060 impure_data
00000000 l    df *ABS*	00000000 sifive_fe310-g000_hfrosc.c
20015eb4 l     F .text	0000001a __metal_driver_sifive_fe310_g000_hfrosc_ref
20015ece l     F .text	00000016 __metal_driver_sifive_fe310_g000_hfrosc_config_base
20015ee4 l     F .text	00000014 __metal_driver_sifive_fe310_g000_hfrosc_config_offset
20015ef8 l     F .text	00000016 __metal_driver_sifive_fe310_g000_prci_vtable
00000000 l    df *ABS*	00000000 sifive_fe310-g000_hfxosc.c
20015fb4 l     F .text	0000001a __metal_driver_sifive_fe310_g000_hfxosc_ref
20015fce l     F .text	00000016 __metal_driver_sifive_fe310_g000_hfxosc_config_base
20015fe4 l     F .text	00000014 __metal_driver_sifive_fe310_g000_hfxosc_config_offset
20015ff8 l     F .text	00000016 __metal_driver_sifive_fe310_g000_prci_vtable
00000000 l    df *ABS*	00000000 sifive_fe310-g000_prci.c
20016786 l     F .text	00000012 __metal_driver_sifive_fe310_g000_prci_base
00000000 l    df *ABS*	00000000 fixed-clock.c
20017e00 l     F .text	00000070 __metal_driver_fixed_clock_rate
00000000 l    df *ABS*	00000000 printf.c
00000000 l    df *ABS*	00000000 puts.c
00000000 l    df *ABS*	00000000 wbuf.c
00000000 l    df *ABS*	00000000 wsetup.c
00000000 l    df *ABS*	00000000 fflush.c
00000000 l    df *ABS*	00000000 fwalk.c
00000000 l    df *ABS*	00000000 makebuf.c
00000000 l    df *ABS*	00000000 nano-mallocr.c
00000000 l    df *ABS*	00000000 nano-mallocr.c
00000000 l    df *ABS*	00000000 sbrkr.c
00000000 l    df *ABS*	00000000 stdio.c
00000000 l    df *ABS*	00000000 writer.c
00000000 l    df *ABS*	00000000 closer.c
00000000 l    df *ABS*	00000000 fstatr.c
00000000 l    df *ABS*	00000000 isattyr.c
00000000 l    df *ABS*	00000000 lseekr.c
00000000 l    df *ABS*	00000000 memchr.c
00000000 l    df *ABS*	00000000 mlock.c
00000000 l    df *ABS*	00000000 readr.c
00000000 l    df *ABS*	00000000 fixunsdfsi.c
00000000 l    df *ABS*	00000000 floatsidf.c
00000000 l    df *ABS*	00000000 libgcc2.c
00000000 l    df *ABS*	00000000 clock.c
00000000 l    df *ABS*	00000000 cpu.c
00000000 l    df *ABS*	00000000 interrupt.c
00000000 l    df *ABS*	00000000 shutdown.c
00000000 l    df *ABS*	00000000 uart.c
00000000 l    df *ABS*	00000000 vector.o
20017d80 l       .text	00000000 IRQ_0
20017d84 l       .text	00000000 IRQ_1
20017d88 l       .text	00000000 IRQ_2
20017d8c l       .text	00000000 IRQ_3
20017d90 l       .text	00000000 IRQ_4
20017d94 l       .text	00000000 IRQ_5
20017d98 l       .text	00000000 IRQ_6
20017d9c l       .text	00000000 IRQ_7
20017da0 l       .text	00000000 IRQ_8
20017da4 l       .text	00000000 IRQ_9
20017da8 l       .text	00000000 IRQ_10
20017dac l       .text	00000000 IRQ_11
20017db0 l       .text	00000000 IRQ_12
20017db4 l       .text	00000000 IRQ_13
20017db8 l       .text	00000000 IRQ_14
20017dbc l       .text	00000000 IRQ_15
20017dc0 l       .text	00000000 IRQ_LC0
20017dc4 l       .text	00000000 IRQ_LC1
20017dc8 l       .text	00000000 IRQ_LC2
20017dcc l       .text	00000000 IRQ_LC3
20017dd0 l       .text	00000000 IRQ_LC4
20017dd4 l       .text	00000000 IRQ_LC5
20017dd8 l       .text	00000000 IRQ_LC6
20017ddc l       .text	00000000 IRQ_LC7
20017de0 l       .text	00000000 IRQ_LC8
20017de4 l       .text	00000000 IRQ_LC9
20017de8 l       .text	00000000 IRQ_LC10
20017dec l       .text	00000000 IRQ_LC11
20017df0 l       .text	00000000 IRQ_LC12
20017df4 l       .text	00000000 IRQ_LC13
20017df8 l       .text	00000000 IRQ_LC14
20017dfc l       .text	00000000 IRQ_LC15
00000000 l    df *ABS*	00000000 sys_close.c
00000000 l    df *ABS*	00000000 sys_fstat.c
00000000 l    df *ABS*	00000000 sys_isatty.c
00000000 l    df *ABS*	00000000 sys_lseek.c
00000000 l    df *ABS*	00000000 sys_read.c
00000000 l    df *ABS*	00000000 sys_sbrk.c
80000ac0 l     O .data	00000004 __brk
00000000 l    df *ABS*	00000000 sys_write.c
00000000 l    df *ABS*	00000000 atexit.c
00000000 l    df *ABS*	00000000 errno.c
00000000 l    df *ABS*	00000000 exit.c
00000000 l    df *ABS*	00000000 fini.c
00000000 l    df *ABS*	00000000 init.c
00000000 l    df *ABS*	00000000 __atexit.c
80000ae0 l     O .bss	0000008c _global_atexit0
00000000 l    df *ABS*	00000000 __call_atexit.c
00000000 l    df *ABS*	00000000 init.c
80000ad8 l     O .bss	00000004 init_done.1
80000adc l     O .bss	00000004 fini_done.0
00000000 l    df *ABS*	00000000 sys_exit.c
00000000 l    df *ABS*	00000000 inline.c
00000000 l    df *ABS*	00000000 
200102ec l       .init_array	00000000 metal_constructors_end
200102f0 l       .init_array	00000000 __fini_array_end
200102f0 l       .init_array	00000000 metal_destructors_end
200102f0 l       .init_array	00000000 metal_destructors_start
200102f0 l       .init_array	00000000 __fini_array_start
200102e0 l       .init_array	00000000 __init_array_end
200102e0 l       .init_array	00000000 __preinit_array_end
200102e0 l       .init_array	00000000 __init_array_start
200102e0 l       .init_array	00000000 metal_constructors_start
200102e0 l       .init_array	00000000 __preinit_array_start
200111e4 g     O .rodata	00000040 __metal_driver_vtable_sifive_uart0
20017b8e g     F .text	00000026 metal_cpu_timer_get_interrupt_id
200125c6 g     F .text	00000030 _isatty_r
200144d2  w    F .text	00000096 metal_lc4_interrupt_vector_handler
200117ac g     F .text	000000da _puts_r
200125f6 g     F .text	00000034 _lseek_r
20017a32 g     F .text	00000026 metal_clock_get_rate_hz
20017724 g     F .text	000000a0 __metal_driver_sifive_uart0_set_baud_rate
2001383e g     F .text	00000058 __metal_driver_riscv_clint0_set_vector_mode
20017578 g     F .text	0000004a __metal_driver_sifive_uart0_set_tx_watermark
2001443c  w    F .text	00000096 metal_lc3_interrupt_vector_handler
20014ce4 g     F .text	00000058 __metal_valid_interrupt_id
2001176e g     F .text	0000003e printf
800012a0 g       .data	00000000 __global_pointer$
200102e4 g     O .init_array	00000004 _use_hfxosc_ptr
20015162 g     F .text	0000001c __metal_driver_riscv_cpu_controller_get_vector_mode
20010342 g     F .ctors	00000024 metal_tty_init
20017b68 g     F .text	00000026 metal_cpu_timer_interrupt_controller
200179de g     F .text	00000054 _metal_clock_append_to_callbacks
20015712 g     F .text	00000046 __metal_plic0_complete_interrupt
20014f28 g     F .text	000001e2 __metal_driver_riscv_cpu_controller_interrupt_register
200102e0 g     O .init_array	00000004 _metal_sifive_fe310_g000_pll_init_ptr
200124f4 g     F .text	00000036 __sseek
20011cbc g     F .text	0000006a __sinit
20011892 g     F .text	000000c0 __swbuf_r
80000ac8 g       .data	00000000 __tls_base
20011c78 g     F .text	00000044 __sfmoreglue
20012646 g     F .text	00000002 __malloc_unlock
20017bda g     F .text	0000002e metal_cpu_get
80000a38 g     O .data	00000020 __metal_dt_serial_10013000
20016e36 g     F .text	0000004a __metal_driver_sifive_gpio0_disable_io
200106ec g     O .rodata	00000064 __metal_driver_vtable_riscv_clint0
80000b80 g       .bss	00000000 metal_segment_bss_target_end
20013532 g     F .text	0000009a __metal_clint0_mtime_get
20015566 g     F .text	0000002e __metal_driver_cpu_get_instruction_length
00000001 g       *ABS*	00000000 __metal_chicken_bit
2001763c g     F .text	00000030 __metal_driver_sifive_uart0_get_rx_watermark
20016bec g     F .text	00000046 __metal_driver_sifive_gpio0_disable_input
20018052 g     F .text	0000000a __errno
08000000 g       .rodata	00000000 metal_segment_itim_target_start
20017548 g     F .text	00000030 __metal_driver_sifive_uart0_txready
200174d6 g     F .text	0000003a __metal_driver_sifive_uart0_rx_interrupt_enable
20010142 g     F .init	0000000e __metal_synchronize_harts
80000ac8 g       .data	00000000 metal_segment_bss_target_start
200135cc g     F .text	00000096 __metal_driver_riscv_clint0_mtimecmp_set
20012594 g     F .text	00000032 _fstat_r
20017086 g     F .text	00000188 __metal_driver_sifive_gpio0_clear_int
80000ad0 g     O .bss	00000004 errno
20016254 g     F .text	00000170 __metal_driver_sifive_fe310_g000_pll_get_rate_hz
00000400 g       *ABS*	00000000 __stack_size
20017aa4 g     F .text	00000032 metal_clock_register_pre_rate_change_callback
200147c0  w    F .text	00000096 metal_lc9_interrupt_vector_handler
200100cc  w    F .init	00000000 __metal_before_start
2001834c  w    F .text	00000016 metal_init_run
80000a58 g     O .data	00000020 __metal_dt_serial_10023000
20010878 g     O .rodata	00000064 __metal_driver_vtable_riscv_plic0
20010834 g     O .rodata	00000044 __metal_driver_vtable_cpu
20017d48 g     F .text	0000002e metal_uart_set_baud_rate
200178cc g     F .text	000000d0 __metal_driver_sifive_uart0_init
00000000 g       *ABS*	00000000 __metal_eccscrub_bit
80000b6c g     O .bss	00000004 cpu
200151ee g     F .text	00000070 __metal_driver_cpu_mcycle_get
2001115c g     O .rodata	0000000c __metal_driver_vtable_sifive_fe310_g000_pll
80000f80 g       .heap	00000000 metal_segment_heap_target_start
20011c6e g     F .text	0000000a _cleanup_r
200133d2 g     F .text	00000066 .hidden __floatsidf
80000ab0 g     O .data	00000008 __metal_dt_cpu_0
2001472a  w    F .text	00000096 metal_lc8_interrupt_vector_handler
20016620 g     F .text	00000166 __metal_driver_sifive_fe310_g000_pll_set_rate_hz
20015e18 g     F .text	00000074 __metal_driver_riscv_plic0_affinity_set_threshold
20011886 g     F .text	0000000c puts
20014a18  w    F .text	00000096 metal_lc13_interrupt_vector_handler
20013db0 g     F .text	00000018 __metal_default_exception_handler
20017ed6 g     F .text	00000026 _fstat
20013b72 g     F .text	00000034 __metal_driver_riscv_clint0_set_interrupt
2001517e g     F .text	00000054 __metal_driver_riscv_cpu_controller_set_vector_mode
20013372 g     F .text	00000060 .hidden __fixunsdfsi
20013c42 g     F .text	00000030 __metal_driver_cpu_get
200107d0 g     O .rodata	00000064 __metal_driver_vtable_riscv_cpu_intc
20013ca4 g     F .text	00000018 __metal_interrupt_global_disable
20015e8c g     F .text	00000028 __metal_driver_riscv_plic0_affinity_get_threshold
20014694  w    F .text	00000096 metal_lc7_interrupt_vector_handler
20014856  w    F .text	00000096 metal_lc10_interrupt_vector_handler
20012446 g     F .text	00000030 _sbrk_r
20015c38 g     F .text	00000050 __metal_driver_riscv_plic0_disable
20014df8 g     F .text	0000004e __metal_exception_register
2001825c g     F .text	00000078 metal_init
200129c4 g     F .text	00000034 _read_r
20015380 g     F .text	0000001a __metal_driver_cpu_timer_controller_interrupt
20016cce g     F .text	00000040 __metal_driver_sifive_gpio0_enable_output
80000000 g       .rodata	00000000 metal_segment_lim_target_end
20013ea0 g     F .text	00000068 __metal_default_sw_handler
20017ad6 g     F .text	00000032 metal_clock_register_post_rate_change_callback
8000006c g     O .data	0000000c __metal_dt_clock_2
20017424 g     F .text	00000020 __metal_driver_sifive_uart0_interrupt_controller
20017efc g     F .text	00000020 _isatty
20016d94 g     F .text	00000040 __metal_driver_sifive_gpio0_output_toggle
20017464 g     F .text	0000003a __metal_driver_sifive_uart0_tx_interrupt_enable
20011254 g     O .rodata	00000008 __metal_driver_vtable_fixed_clock
20011238 g     O .rodata	00000004 _global_impure_ptr
20013f08  w    F .text	00000092 metal_timer_interrupt_vector_handler
200180ba g     F .text	0000005e __libc_init_array
20016d0e g     F .text	00000040 __metal_driver_sifive_gpio0_output_set
200148ec  w    F .text	00000096 metal_lc11_interrupt_vector_handler
20016082 g     F .text	00000022 __metal_driver_sifive_fe310_g000_hfxosc_set_rate_hz
2001510a g     F .text	0000002c __metal_driver_riscv_cpu_controller_interrupt_enable
20017f70 g     F .text	0000006a _sbrk
20016c88 g     F .text	00000046 __metal_driver_sifive_gpio0_disable_output
2001799c g     F .text	00000042 _metal_clock_call_all_callbacks
200102ba g     F .init	00000002 _init
20013d06 g     F .text	0000001a __metal_interrupt_timer_disable
20016e80 g     F .text	00000206 __metal_driver_sifive_gpio0_config_int
2001543e g     F .text	00000062 __metal_driver_cpu_clear_sw_ipi
200111a8 g     O .rodata	0000003c __metal_driver_vtable_sifive_gpio0
2001749e g     F .text	00000038 __metal_driver_sifive_uart0_tx_interrupt_disable
20016dd4 g     F .text	00000062 __metal_driver_sifive_gpio0_enable_io
20018084 g     F .text	00000036 __libc_fini_array
80000a90 g     O .data	0000000c __metal_dt_clock_4
200182d4 g     F .text	00000078 metal_fini
2001720e g     F .text	00000020 __metal_driver_gpio_interrupt_controller
200153c8 g     F .text	00000014 __metal_driver_cpu_get_sw_interrupt_id
200155d2 g     F .text	00000020 __metal_driver_cpu_get_buserror
80000000 g       .data	00000000 metal_segment_data_target_start
20013d58 g     F .text	0000002c __metal_interrupt_local_enable
20013b3e g     F .text	00000034 __metal_driver_riscv_clint0_clear_interrupt
20018378 g     F .text	00000028 metal_tty_putc
20015910 g     F .text	00000018 __metal_plic0_default_handler
20017fda  w    F .text	0000006e write
00000000 g       *ABS*	00000000 __tbss_size
80000060 g     O .data	0000000c __metal_dt_clock_0
00000800 g       *ABS*	00000000 __heap_size
20015c88 g     F .text	00000030 __metal_driver_riscv_plic0_set_threshold
20013f9a g     F .text	00000016 __metal_default_beu_handler
20010480 g     O .rodata	00000020 __sf_fake_stderr
20017b08 g     F .text	0000002a metal_cpu_get_mtime
20013d3c g     F .text	0000001c __metal_interrupt_external_disable
20017444 g     F .text	00000020 __metal_driver_sifive_uart0_get_interrupt_id
200151d2 g     F .text	0000001c __metal_driver_riscv_cpu_controller_command_request
20014e46 g     F .text	000000e2 __metal_driver_riscv_cpu_controller_interrupt_init
20013438 g     F .text	0000003c .hidden __clzsi2
20012170 g     F .text	00000042 __sfputs_r
20015520 g     F .text	00000046 __metal_driver_cpu_exception_register
20013cbc g     F .text	00000018 __metal_interrupt_software_enable
20014310  w    F .text	00000096 metal_lc1_interrupt_vector_handler
2001262a g     F .text	0000001a memchr
20011fcc g     F .text	000000a2 _free_r
80000ad4 g     O .bss	00000004 _global_atexit
200157d8 g     F .text	00000062 __metal_driver_riscv_plic0_set_priority
20014bda g     F .text	00000058 __metal_controller_interrupt_vector_mode
20018194 g     F .text	000000c8 __call_exitprocs
80000f80 g       .stack	00000000 _sp
200102e8 g     O .init_array	00000004 _metal_tty_init_ptr
20010150 g     F .init	00000000 _start
20015f0e g     F .text	00000084 __metal_driver_sifive_fe310_g000_hfrosc_get_rate_hz
20017f1c g     F .text	0000002a _lseek
20015500 g     F .text	00000020 __metal_driver_cpu_controller_interrupt
20015594 g     F .text	0000001e __metal_driver_cpu_get_exception_pc
20013d20 g     F .text	0000001c __metal_interrupt_external_enable
20018118 g     F .text	0000007c __register_exitproc
2001766c g     F .text	00000042 __metal_driver_sifive_uart0_putc
200159ce g     F .text	00000158 __metal_driver_riscv_plic0_init
20015be8 g     F .text	00000050 __metal_driver_riscv_plic0_enable
20016c5c g     F .text	0000002c __metal_driver_sifive_gpio0_output
200145fe  w    F .text	00000096 metal_lc6_interrupt_vector_handler
20013c72 g     F .text	0000001a __metal_myhart_id
2001722e g     F .text	0000002e __metal_driver_gpio_get_interrupt_id
20013e0e  w    F .text	00000092 metal_software_interrupt_vector_handler
20015136 g     F .text	0000002c __metal_driver_riscv_cpu_controller_interrupt_disable
20012564 g     F .text	00000030 _close_r
20017704 g     F .text	00000020 __metal_driver_sifive_uart0_get_baud_rate
20013720 g     F .text	000000da __metal_driver_riscv_clint0_register
80000aa8 g     O .data	00000008 __metal_dt_clint_2000000
20011952 g     F .text	0000010a __swsetup_r
200129f8 g     F .text	00000540 .hidden __divdf3
20017c46 g     F .text	0000003e metal_interrupt_register_handler
20011d26 g     F .text	0000009c __sfp
20017a58 g     F .text	0000004c metal_clock_set_rate_hz
20012f38 g     F .text	0000043a .hidden __muldf3
20012476 g     F .text	00000030 __sread
20016bac g     F .text	00000040 __metal_driver_sifive_gpio0_enable_input
200102bc  w    F .init	00000000 secondary_main
20013de0  w    F .text	0000002e metal_interrupt_vector_handler
20012644 g     F .text	00000002 __malloc_lock
20017510 g     F .text	00000038 __metal_driver_sifive_uart0_rx_interrupt_disable
80000b70 g     O .bss	00000004 tmr_intr
20011ba2 g     F .text	00000064 _fflush_r
2001579e g     F .text	0000003a __metal_plic0_get_threshold
20016798 g     F .text	0000002e __metal_driver_sifive_fe310_g000_prci_get_reg
200104a0 g     O .rodata	00000020 __sf_fake_stdin
20014d3c g     F .text	000000bc __metal_local_interrupt_enable
200139fe g     F .text	00000140 __metal_driver_riscv_clint0_command_request
20011f24 g     F .text	000000a8 memset
20014568  w    F .text	00000096 metal_lc5_interrupt_vector_handler
2001131a g     F .text	00000454 main
80000ac8 g       .data	00000000 metal_segment_data_target_end
200175f2 g     F .text	0000004a __metal_driver_sifive_uart0_set_rx_watermark
2001123c g     O .rodata	00000008 __metal_driver_vtable_sifive_fe310_g000_hfrosc
200153dc g     F .text	00000062 __metal_driver_cpu_set_sw_ipi
200154a0 g     F .text	00000060 __metal_driver_cpu_get_msip
20017ce0 g     F .text	0000000e metal_shutdown
08000000 g       .rodata	00000000 metal_segment_itim_target_end
200155b2 g     F .text	00000020 __metal_driver_cpu_set_exception_pc
200156d6 g     F .text	0000003c __metal_plic0_claim_interrupt
200175c2 g     F .text	00000030 __metal_driver_sifive_uart0_get_tx_watermark
2001252a g     F .text	00000006 __sclose
20014982  w    F .text	00000096 metal_lc12_interrupt_vector_handler
2001008a g     F .init	00000000 metal_mem_scrub
2001206e g     F .text	000000d8 _malloc_r
20013822 g     F .text	0000001c __metal_driver_riscv_clint0_get_vector_mode
80000abc g     O .data	00000004 __metal_dt_prci_10008000
2001525e g     F .text	00000046 __metal_driver_cpu_timebase_get
20015d7c g     F .text	0000009c __metal_driver_riscv_plic0_affinity_disable
20010000 g       .init	00000000 _enter
20017c08 g     F .text	0000001a metal_cpu_get_current_hartid
2001600e g     F .text	00000074 __metal_driver_sifive_fe310_g000_hfxosc_get_rate_hz
20017d80 g       .text	00000000 __metal_vector_table
20011260 g       *ABS*	00000000 metal_segment_itim_source_start
80000aa0  w    O .data	00000004 __metal_cpu_table
80000090 g     O .data	000003d0 __metal_dt_cpu_0_interrupt_controller
200102ba g     F .init	00000002 _fini
2001176e g     F .text	0000003e iprintf
80000000 g       .rodata	00000000 metal_segment_lim_target_start
200105ec g     O .rodata	00000100 .hidden __clz_tab
2001583a g     F .text	00000034 __metal_driver_riscv_plic0_get_priority
20010318 g     F .ctors	0000002a use_hfxosc
20013c8c g     F .text	00000018 __metal_interrupt_global_enable
20018048 g     F .text	0000000a atexit
20012530 g     F .text	00000034 _write_r
20013cec g     F .text	0000001a __metal_interrupt_timer_enable
200112b0 g     F .text	0000006a wait_for_timer
200176ae g     F .text	00000056 __metal_driver_sifive_uart0_getc
20013948 g     F .text	000000b6 __metal_driver_riscv_clint0_disable
20012648 g     F .text	0000010c _printf_common
80000aa4 g     O .data	00000004 _impure_ptr
2001530a g     F .text	00000076 __metal_driver_cpu_mtimecmp_set
20011a5c g     F .text	00000146 __sflush_r
20015cb8 g     F .text	00000028 __metal_driver_riscv_plic0_get_threshold
200161b0 g     F .text	000000a4 __metal_driver_sifive_fe310_g000_pll_init
80000078 g     O .data	0000000c __metal_dt_clock_5
80000b74 g     O .bss	00000004 cpu_intr
200167c6 g     F .text	00000038 __metal_driver_sifive_fe310_g000_prci_set_reg
20017e70 g     F .text	00000020 __metal_driver_fixed_clock_get_rate_hz
20013896 g     F .text	000000b2 __metal_driver_riscv_clint0_enable
20010368 g     O .rodata	00000050 variant_pin_map
200183b8 g       *ABS*	00000000 metal_segment_data_source_start
20010134 g       .init	00000000 early_trap_vector
80001780 g       .heap	00000000 metal_segment_heap_target_end
20014c32 g     F .text	000000b2 __metal_controller_interrupt_vector
80000a84 g     O .data	0000000c __metal_dt_clock_1
80000460 g     O .data	000005d8 __metal_dt_interrupt_controller_c000000
20011e2c g     F .text	0000005c __swhatbuf_r
20016d4e g     F .text	00000046 __metal_driver_sifive_gpio0_output_clear
20013fb0 g     F .text	00000066 __metal_default_timer_handler
20017fda g     F .text	0000006e _write
20015928 g     F .text	000000a6 __metal_plic0_handler
200143a6  w    F .text	00000096 metal_lc2_interrupt_vector_handler
20014b44  w    F .text	00000096 metal_lc15_interrupt_vector_handler
20017bb4 g     F .text	00000026 metal_cpu_interrupt_controller
20017c22 g     F .text	00000024 metal_interrupt_init
200124a6 g     F .text	0000004e __swrite
20017b32 g     F .text	00000036 metal_cpu_set_mtimecmp
2001805c g     F .text	00000028 exit
200121b2 g     F .text	00000294 _vfiprintf_r
20011dc2 g     F .text	0000006a _fwalk_reent
20017e90 g     F .text	00000024 __metal_driver_fixed_clock_set_rate_hz
20011260 g       *ABS*	00000000 metal_segment_lim_source_start
200104c0 g     O .rodata	00000020 __sf_fake_stdout
80000ab8 g     O .data	00000004 __metal_dt_gpio_10012000
20013dc8 g     F .text	00000018 __metal_default_interrupt_handler
20017c84 g     F .text	0000002e metal_interrupt_enable
20017d1a g     F .text	0000002e metal_uart_putc
20017f46 g     F .text	0000002a _read
20018362  w    F .text	00000016 metal_fini_run
20016c32 g     F .text	0000002a __metal_driver_sifive_gpio0_input
20014080 g     F .text	00000180 __metal_exception_handler
2001427a  w    F .text	00000096 metal_lc0_interrupt_vector_handler
200183a0 g     F .text	00000014 _exit
20011280 g     F .text	00000030 timer_isr
200152a4 g     F .text	00000066 __metal_driver_cpu_mtime_get
20011e88 g     F .text	0000009c __smakebuf_r
200137fa g     F .text	00000028 __metal_driver_riscv_clint0_vector_register
20012754 g     F .text	00000270 _printf_i
80000acc g     O .bss	00000004 __malloc_sbrk_start
80000b78 g     O .bss	00000004 timer_isr_flag
20014aae  w    F .text	00000096 metal_lc14_interrupt_vector_handler
20011244 g     O .rodata	00000008 __metal_driver_vtable_sifive_fe310_g000_hfxosc
20013698 g     F .text	00000088 __metal_driver_riscv_clint0_init
80000ac8 g     O .bss	00000004 __malloc_free_list
200102ec g     F .ctors	0000002c metal_sifive_fe310_g000_pll_init
80000b7c g     O .bss	00000004 tmr_id
200121b2 g     F .text	00000294 _vfprintf_r
2001539a g     F .text	00000014 __metal_driver_cpu_get_timer_interrupt_id
2001586e g     F .text	000000a2 __metal_plic0_enable
20010088  w      .init	00000000 __register_frame_info
20015f92 g     F .text	00000022 __metal_driver_sifive_fe310_g000_hfrosc_set_rate_hz
200153ae g     F .text	0000001a __metal_driver_cpu_sw_controller_interrupt
20013d84 g     F .text	0000002c __metal_interrupt_local_disable
20013cd4 g     F .text	00000018 __metal_interrupt_software_disable
20017cee g     F .text	0000002c metal_uart_init
80000a78 g     O .data	0000000c __metal_dt_clock_3
80000084 g     O .data	0000000c __metal_dt_clock_6
20015758 g     F .text	00000046 __metal_plic0_set_threshold
20015ce0 g     F .text	0000009c __metal_driver_riscv_plic0_affinity_enable
20017eb4 g     F .text	00000022 _close
2001124c g     O .rodata	00000008 __metal_driver_vtable_sifive_fe310_g000_prci
00000000 g       *ABS*	00000000 __metal_boot_hart
20015b26 g     F .text	000000c2 __metal_driver_riscv_plic0_register
20017cb2 g     F .text	0000002e metal_interrupt_disable



Disassembly of section .init:

20010000 <_enter>:
_enter():
/home/nicoladgg/wsFreedomStudio/sifive_hifive1_revb_hello/freedom-metal/src/entry.S:24
20010000:	5fff1197          	auipc	gp,0x5fff1
20010004:	2a018193          	addi	gp,gp,672 # 800012a0 <__global_pointer$>
/home/nicoladgg/wsFreedomStudio/sifive_hifive1_revb_hello/freedom-metal/src/entry.S:28
20010008:	00000297          	auipc	t0,0x0
2001000c:	01828293          	addi	t0,t0,24 # 20010020 <_enter+0x20>
/home/nicoladgg/wsFreedomStudio/sifive_hifive1_revb_hello/freedom-metal/src/entry.S:29
20010010:	30529073          	csrw	mtvec,t0
/home/nicoladgg/wsFreedomStudio/sifive_hifive1_revb_hello/freedom-metal/src/entry.S:31
20010014:	00100293          	li	t0,1
/home/nicoladgg/wsFreedomStudio/sifive_hifive1_revb_hello/freedom-metal/src/entry.S:32
20010018:	00028463          	beqz	t0,20010020 <_enter+0x20>
/home/nicoladgg/wsFreedomStudio/sifive_hifive1_revb_hello/freedom-metal/src/entry.S:34
2001001c:	7c105073          	csrwi	0x7c1,0
/home/nicoladgg/wsFreedomStudio/sifive_hifive1_revb_hello/freedom-metal/src/entry.S:39
20010020:	00000297          	auipc	t0,0x0
20010024:	11428293          	addi	t0,t0,276 # 20010134 <early_trap_vector>
/home/nicoladgg/wsFreedomStudio/sifive_hifive1_revb_hello/freedom-metal/src/entry.S:40
20010028:	30529073          	csrw	mtvec,t0
/home/nicoladgg/wsFreedomStudio/sifive_hifive1_revb_hello/freedom-metal/src/entry.S:48
2001002c:	00000113          	li	sp,0
/home/nicoladgg/wsFreedomStudio/sifive_hifive1_revb_hello/freedom-metal/src/entry.S:55
20010030:	00011463          	bnez	sp,20010038 <_enter+0x38>
/home/nicoladgg/wsFreedomStudio/sifive_hifive1_revb_hello/freedom-metal/src/entry.S:56
20010034:	ce018113          	addi	sp,gp,-800 # 80000f80 <_sp>
/home/nicoladgg/wsFreedomStudio/sifive_hifive1_revb_hello/freedom-metal/src/entry.S:59
20010038:	f1402573          	csrr	a0,mhartid
/home/nicoladgg/wsFreedomStudio/sifive_hifive1_revb_hello/freedom-metal/src/entry.S:60
2001003c:	4281                	li	t0,0
/home/nicoladgg/wsFreedomStudio/sifive_hifive1_revb_hello/freedom-metal/src/entry.S:61
2001003e:	40000313          	li	t1,1024
/home/nicoladgg/wsFreedomStudio/sifive_hifive1_revb_hello/freedom-metal/src/entry.S:63
20010042:	ff017113          	andi	sp,sp,-16
/home/nicoladgg/wsFreedomStudio/sifive_hifive1_revb_hello/freedom-metal/src/entry.S:64
20010046:	00a28563          	beq	t0,a0,20010050 <_enter+0x50>
/home/nicoladgg/wsFreedomStudio/sifive_hifive1_revb_hello/freedom-metal/src/entry.S:65
2001004a:	911a                	add	sp,sp,t1
/home/nicoladgg/wsFreedomStudio/sifive_hifive1_revb_hello/freedom-metal/src/entry.S:66
2001004c:	0285                	addi	t0,t0,1
/home/nicoladgg/wsFreedomStudio/sifive_hifive1_revb_hello/freedom-metal/src/entry.S:67
2001004e:	bfd5                	j	20010042 <_enter+0x42>
/home/nicoladgg/wsFreedomStudio/sifive_hifive1_revb_hello/freedom-metal/src/entry.S:76
20010050:	00000097          	auipc	ra,0x0
20010054:	07c08093          	addi	ra,ra,124 # 200100cc <__metal_before_start>
/home/nicoladgg/wsFreedomStudio/sifive_hifive1_revb_hello/freedom-metal/src/entry.S:77
20010058:	00008363          	beqz	ra,2001005e <_enter+0x5e>
/home/nicoladgg/wsFreedomStudio/sifive_hifive1_revb_hello/freedom-metal/src/entry.S:78
2001005c:	9082                	jalr	ra
/home/nicoladgg/wsFreedomStudio/sifive_hifive1_revb_hello/freedom-metal/src/entry.S:84
2001005e:	f1402573          	csrr	a0,mhartid
/home/nicoladgg/wsFreedomStudio/sifive_hifive1_revb_hello/freedom-metal/src/entry.S:85
20010062:	4581                	li	a1,0
/home/nicoladgg/wsFreedomStudio/sifive_hifive1_revb_hello/freedom-metal/src/entry.S:86
20010064:	4601                	li	a2,0
/home/nicoladgg/wsFreedomStudio/sifive_hifive1_revb_hello/freedom-metal/src/entry.S:87
20010066:	20ed                	jal	20010150 <_start>
/home/nicoladgg/wsFreedomStudio/sifive_hifive1_revb_hello/freedom-metal/src/entry.S:92
20010068:	00000093          	li	ra,0
/home/nicoladgg/wsFreedomStudio/sifive_hifive1_revb_hello/freedom-metal/src/entry.S:93
2001006c:	00008363          	beqz	ra,20010072 <_enter+0x72>
/home/nicoladgg/wsFreedomStudio/sifive_hifive1_revb_hello/freedom-metal/src/entry.S:94
20010070:	9082                	jalr	ra
/home/nicoladgg/wsFreedomStudio/sifive_hifive1_revb_hello/freedom-metal/src/entry.S:99
20010072:	00000297          	auipc	t0,0x0
20010076:	00c28293          	addi	t0,t0,12 # 2001007e <_enter+0x7e>
/home/nicoladgg/wsFreedomStudio/sifive_hifive1_revb_hello/freedom-metal/src/entry.S:100
2001007a:	30529073          	csrw	mtvec,t0
/home/nicoladgg/wsFreedomStudio/sifive_hifive1_revb_hello/freedom-metal/src/entry.S:102
2001007e:	00002303          	lw	t1,0(zero) # 0 <__metal_boot_hart>
/home/nicoladgg/wsFreedomStudio/sifive_hifive1_revb_hello/freedom-metal/src/entry.S:103
20010082:	bff5                	j	2001007e <_enter+0x7e>
20010084:	0000                	unimp
	...

20010088 <__register_frame_info>:
__register_frame_info():
/home/nicoladgg/wsFreedomStudio/sifive_hifive1_revb_hello/freedom-metal/src/entry.S:117
20010088:	8082                	ret

2001008a <metal_mem_scrub>:
metal_mem_scrub():
/home/nicoladgg/wsFreedomStudio/sifive_hifive1_revb_hello/freedom-metal/src/scrub.S:24
2001008a:	46a1                	li	a3,8
/home/nicoladgg/wsFreedomStudio/sifive_hifive1_revb_hello/freedom-metal/src/scrub.S:25
2001008c:	3006b373          	csrrc	t1,mstatus,a3
/home/nicoladgg/wsFreedomStudio/sifive_hifive1_revb_hello/freedom-metal/src/scrub.S:28
20010090:	4291                	li	t0,4
/home/nicoladgg/wsFreedomStudio/sifive_hifive1_revb_hello/freedom-metal/src/scrub.S:30
20010092:	0055c563          	blt	a1,t0,2001009c <metal_mem_scrub+0x12>
/home/nicoladgg/wsFreedomStudio/sifive_hifive1_revb_hello/freedom-metal/src/scrub.S:31
20010096:	00357613          	andi	a2,a0,3
/home/nicoladgg/wsFreedomStudio/sifive_hifive1_revb_hello/freedom-metal/src/scrub.S:32
2001009a:	ca11                	beqz	a2,200100ae <metal_mem_scrub+0x24>
/home/nicoladgg/wsFreedomStudio/sifive_hifive1_revb_hello/freedom-metal/src/scrub.S:34
2001009c:	00050023          	sb	zero,0(a0)
/home/nicoladgg/wsFreedomStudio/sifive_hifive1_revb_hello/freedom-metal/src/scrub.S:35
200100a0:	0505                	addi	a0,a0,1
/home/nicoladgg/wsFreedomStudio/sifive_hifive1_revb_hello/freedom-metal/src/scrub.S:36
200100a2:	15fd                	addi	a1,a1,-1
/home/nicoladgg/wsFreedomStudio/sifive_hifive1_revb_hello/freedom-metal/src/scrub.S:37
200100a4:	feb047e3          	bgtz	a1,20010092 <metal_mem_scrub+0x8>
/home/nicoladgg/wsFreedomStudio/sifive_hifive1_revb_hello/freedom-metal/src/scrub.S:38
200100a8:	30031073          	csrw	mstatus,t1
/home/nicoladgg/wsFreedomStudio/sifive_hifive1_revb_hello/freedom-metal/src/scrub.S:39
200100ac:	8082                	ret
/home/nicoladgg/wsFreedomStudio/sifive_hifive1_revb_hello/freedom-metal/src/scrub.S:41
200100ae:	00052023          	sw	zero,0(a0)
/home/nicoladgg/wsFreedomStudio/sifive_hifive1_revb_hello/freedom-metal/src/scrub.S:42
200100b2:	0511                	addi	a0,a0,4
/home/nicoladgg/wsFreedomStudio/sifive_hifive1_revb_hello/freedom-metal/src/scrub.S:43
200100b4:	15f1                	addi	a1,a1,-4
/home/nicoladgg/wsFreedomStudio/sifive_hifive1_revb_hello/freedom-metal/src/scrub.S:44
200100b6:	fcb04ee3          	bgtz	a1,20010092 <metal_mem_scrub+0x8>
/home/nicoladgg/wsFreedomStudio/sifive_hifive1_revb_hello/freedom-metal/src/scrub.S:45
200100ba:	30031073          	csrw	mstatus,t1
/home/nicoladgg/wsFreedomStudio/sifive_hifive1_revb_hello/freedom-metal/src/scrub.S:46
200100be:	8082                	ret

200100c0 <__metal_memory_scrub>:
__metal_memory_scrub():
/home/nicoladgg/wsFreedomStudio/sifive_hifive1_revb_hello/freedom-metal/src/scrub.S:74
200100c0:	00032023          	sw	zero,0(t1)
/home/nicoladgg/wsFreedomStudio/sifive_hifive1_revb_hello/freedom-metal/src/scrub.S:75
200100c4:	0311                	addi	t1,t1,4
/home/nicoladgg/wsFreedomStudio/sifive_hifive1_revb_hello/freedom-metal/src/scrub.S:76
200100c6:	fe734de3          	blt	t1,t2,200100c0 <__metal_memory_scrub>
/home/nicoladgg/wsFreedomStudio/sifive_hifive1_revb_hello/freedom-metal/src/scrub.S:82
200100ca:	8082                	ret

200100cc <__metal_before_start>:
__metal_before_start():
/home/nicoladgg/wsFreedomStudio/sifive_hifive1_revb_hello/freedom-metal/src/scrub.S:94
200100cc:	8406                	mv	s0,ra
/home/nicoladgg/wsFreedomStudio/sifive_hifive1_revb_hello/freedom-metal/src/scrub.S:96
200100ce:	dfff0297          	auipc	t0,0xdfff0
200100d2:	f3228293          	addi	t0,t0,-206 # 0 <__metal_boot_hart>
/home/nicoladgg/wsFreedomStudio/sifive_hifive1_revb_hello/freedom-metal/src/scrub.S:97
200100d6:	04028c63          	beqz	t0,2001012e <skip_scrub>
/home/nicoladgg/wsFreedomStudio/sifive_hifive1_revb_hello/freedom-metal/src/scrub.S:99
200100da:	dfff0297          	auipc	t0,0xdfff0
200100de:	f2628293          	addi	t0,t0,-218 # 0 <__metal_boot_hart>
/home/nicoladgg/wsFreedomStudio/sifive_hifive1_revb_hello/freedom-metal/src/scrub.S:100
200100e2:	f14027f3          	csrr	a5,mhartid
/home/nicoladgg/wsFreedomStudio/sifive_hifive1_revb_hello/freedom-metal/src/scrub.S:103
200100e6:	46a1                	li	a3,8
/home/nicoladgg/wsFreedomStudio/sifive_hifive1_revb_hello/freedom-metal/src/scrub.S:104
200100e8:	3006b073          	csrc	mstatus,a3
/home/nicoladgg/wsFreedomStudio/sifive_hifive1_revb_hello/freedom-metal/src/scrub.S:107
200100ec:	830a                	mv	t1,sp
/home/nicoladgg/wsFreedomStudio/sifive_hifive1_revb_hello/freedom-metal/src/scrub.S:108
200100ee:	dfff0397          	auipc	t2,0xdfff0
200100f2:	31238393          	addi	t2,t2,786 # 400 <__stack_size>
/home/nicoladgg/wsFreedomStudio/sifive_hifive1_revb_hello/freedom-metal/src/scrub.S:109
200100f6:	938a                	add	t2,t2,sp
/home/nicoladgg/wsFreedomStudio/sifive_hifive1_revb_hello/freedom-metal/src/scrub.S:110
200100f8:	00730363          	beq	t1,t2,200100fe <__metal_before_start+0x32>
/home/nicoladgg/wsFreedomStudio/sifive_hifive1_revb_hello/freedom-metal/src/scrub.S:111
200100fc:	37d1                	jal	200100c0 <__metal_memory_scrub>
/home/nicoladgg/wsFreedomStudio/sifive_hifive1_revb_hello/freedom-metal/src/scrub.S:113
200100fe:	02579863          	bne	a5,t0,2001012e <skip_scrub>
/home/nicoladgg/wsFreedomStudio/sifive_hifive1_revb_hello/freedom-metal/src/scrub.S:116
20010102:	5fff0317          	auipc	t1,0x5fff0
20010106:	efe30313          	addi	t1,t1,-258 # 80000000 <impure_data>
/home/nicoladgg/wsFreedomStudio/sifive_hifive1_revb_hello/freedom-metal/src/scrub.S:117
2001010a:	5fff1397          	auipc	t2,0x5fff1
2001010e:	9be38393          	addi	t2,t2,-1602 # 80000ac8 <__malloc_free_list>
/home/nicoladgg/wsFreedomStudio/sifive_hifive1_revb_hello/freedom-metal/src/scrub.S:118
20010112:	00730363          	beq	t1,t2,20010118 <__metal_before_start+0x4c>
/home/nicoladgg/wsFreedomStudio/sifive_hifive1_revb_hello/freedom-metal/src/scrub.S:119
20010116:	376d                	jal	200100c0 <__metal_memory_scrub>
/home/nicoladgg/wsFreedomStudio/sifive_hifive1_revb_hello/freedom-metal/src/scrub.S:122
20010118:	e7ff0317          	auipc	t1,0xe7ff0
2001011c:	ee830313          	addi	t1,t1,-280 # 8000000 <metal_segment_itim_target_end>
/home/nicoladgg/wsFreedomStudio/sifive_hifive1_revb_hello/freedom-metal/src/scrub.S:123
20010120:	e7ff0397          	auipc	t2,0xe7ff0
20010124:	ee038393          	addi	t2,t2,-288 # 8000000 <metal_segment_itim_target_end>
/home/nicoladgg/wsFreedomStudio/sifive_hifive1_revb_hello/freedom-metal/src/scrub.S:124
20010128:	00730363          	beq	t1,t2,2001012e <skip_scrub>
/home/nicoladgg/wsFreedomStudio/sifive_hifive1_revb_hello/freedom-metal/src/scrub.S:125
2001012c:	3f51                	jal	200100c0 <__metal_memory_scrub>

2001012e <skip_scrub>:
skip_scrub():
/home/nicoladgg/wsFreedomStudio/sifive_hifive1_revb_hello/freedom-metal/src/scrub.S:129
2001012e:	80a2                	mv	ra,s0
/home/nicoladgg/wsFreedomStudio/sifive_hifive1_revb_hello/freedom-metal/src/scrub.S:130
20010130:	8082                	ret
	...

20010134 <early_trap_vector>:
early_trap_vector():
/home/nicoladgg/wsFreedomStudio/sifive_hifive1_revb_hello/freedom-metal/src/trap.S:64
20010134:	342022f3          	csrr	t0,mcause
/home/nicoladgg/wsFreedomStudio/sifive_hifive1_revb_hello/freedom-metal/src/trap.S:65
20010138:	34102373          	csrr	t1,mepc
/home/nicoladgg/wsFreedomStudio/sifive_hifive1_revb_hello/freedom-metal/src/trap.S:66
2001013c:	343023f3          	csrr	t2,mtval
/home/nicoladgg/wsFreedomStudio/sifive_hifive1_revb_hello/freedom-metal/src/trap.S:67
20010140:	bfd5                	j	20010134 <early_trap_vector>

20010142 <__metal_synchronize_harts>:
__metal_synchronize_harts():
/home/nicoladgg/wsFreedomStudio/sifive_hifive1_revb_hello/freedom-metal/src/synchronize_harts.c:19
20010142:	1141                	addi	sp,sp,-16
20010144:	c622                	sw	s0,12(sp)
20010146:	0800                	addi	s0,sp,16
/home/nicoladgg/wsFreedomStudio/sifive_hifive1_revb_hello/freedom-metal/src/synchronize_harts.c:66
20010148:	0001                	nop
2001014a:	4432                	lw	s0,12(sp)
2001014c:	0141                	addi	sp,sp,16
2001014e:	8082                	ret

20010150 <_start>:
_start():
/home/nicoladgg/wsFreedomStudio/sifive_hifive1_revb_hello/freedom-metal/gloss/crt0.S:36
20010150:	8406                	mv	s0,ra
/home/nicoladgg/wsFreedomStudio/sifive_hifive1_revb_hello/freedom-metal/gloss/crt0.S:44
20010152:	5fff1197          	auipc	gp,0x5fff1
20010156:	14e18193          	addi	gp,gp,334 # 800012a0 <__global_pointer$>
/home/nicoladgg/wsFreedomStudio/sifive_hifive1_revb_hello/freedom-metal/gloss/crt0.S:50
2001015a:	00000293          	li	t0,0
/home/nicoladgg/wsFreedomStudio/sifive_hifive1_revb_hello/freedom-metal/gloss/crt0.S:51
2001015e:	0e551163          	bne	a0,t0,20010240 <_skip_init>
/home/nicoladgg/wsFreedomStudio/sifive_hifive1_revb_hello/freedom-metal/gloss/crt0.S:60
20010162:	00008297          	auipc	t0,0x8
20010166:	25628293          	addi	t0,t0,598 # 200183b8 <metal_segment_data_source_start>
/home/nicoladgg/wsFreedomStudio/sifive_hifive1_revb_hello/freedom-metal/gloss/crt0.S:61
2001016a:	5fff0317          	auipc	t1,0x5fff0
2001016e:	e9630313          	addi	t1,t1,-362 # 80000000 <impure_data>
/home/nicoladgg/wsFreedomStudio/sifive_hifive1_revb_hello/freedom-metal/gloss/crt0.S:62
20010172:	5fff1397          	auipc	t2,0x5fff1
20010176:	95638393          	addi	t2,t2,-1706 # 80000ac8 <__malloc_free_list>
/home/nicoladgg/wsFreedomStudio/sifive_hifive1_revb_hello/freedom-metal/gloss/crt0.S:64
2001017a:	00628c63          	beq	t0,t1,20010192 <_start+0x42>
/home/nicoladgg/wsFreedomStudio/sifive_hifive1_revb_hello/freedom-metal/gloss/crt0.S:65
2001017e:	00735a63          	bge	t1,t2,20010192 <_start+0x42>
/home/nicoladgg/wsFreedomStudio/sifive_hifive1_revb_hello/freedom-metal/gloss/crt0.S:69
20010182:	0002a503          	lw	a0,0(t0)
/home/nicoladgg/wsFreedomStudio/sifive_hifive1_revb_hello/freedom-metal/gloss/crt0.S:70
20010186:	0291                	addi	t0,t0,4
/home/nicoladgg/wsFreedomStudio/sifive_hifive1_revb_hello/freedom-metal/gloss/crt0.S:71
20010188:	00a32023          	sw	a0,0(t1)
/home/nicoladgg/wsFreedomStudio/sifive_hifive1_revb_hello/freedom-metal/gloss/crt0.S:72
2001018c:	0311                	addi	t1,t1,4
/home/nicoladgg/wsFreedomStudio/sifive_hifive1_revb_hello/freedom-metal/gloss/crt0.S:73
2001018e:	fe734ae3          	blt	t1,t2,20010182 <_start+0x32>
/home/nicoladgg/wsFreedomStudio/sifive_hifive1_revb_hello/freedom-metal/gloss/crt0.S:84
20010192:	00001297          	auipc	t0,0x1
20010196:	0ce28293          	addi	t0,t0,206 # 20011260 <metal_segment_itim_source_start>
/home/nicoladgg/wsFreedomStudio/sifive_hifive1_revb_hello/freedom-metal/gloss/crt0.S:85
2001019a:	e7ff0317          	auipc	t1,0xe7ff0
2001019e:	e6630313          	addi	t1,t1,-410 # 8000000 <metal_segment_itim_target_end>
/home/nicoladgg/wsFreedomStudio/sifive_hifive1_revb_hello/freedom-metal/gloss/crt0.S:86
200101a2:	e7ff0397          	auipc	t2,0xe7ff0
200101a6:	e5e38393          	addi	t2,t2,-418 # 8000000 <metal_segment_itim_target_end>
/home/nicoladgg/wsFreedomStudio/sifive_hifive1_revb_hello/freedom-metal/gloss/crt0.S:88
200101aa:	00628c63          	beq	t0,t1,200101c2 <_start+0x72>
/home/nicoladgg/wsFreedomStudio/sifive_hifive1_revb_hello/freedom-metal/gloss/crt0.S:89
200101ae:	00735a63          	bge	t1,t2,200101c2 <_start+0x72>
/home/nicoladgg/wsFreedomStudio/sifive_hifive1_revb_hello/freedom-metal/gloss/crt0.S:93
200101b2:	0002a503          	lw	a0,0(t0)
/home/nicoladgg/wsFreedomStudio/sifive_hifive1_revb_hello/freedom-metal/gloss/crt0.S:94
200101b6:	0291                	addi	t0,t0,4
/home/nicoladgg/wsFreedomStudio/sifive_hifive1_revb_hello/freedom-metal/gloss/crt0.S:95
200101b8:	00a32023          	sw	a0,0(t1)
/home/nicoladgg/wsFreedomStudio/sifive_hifive1_revb_hello/freedom-metal/gloss/crt0.S:96
200101bc:	0311                	addi	t1,t1,4
/home/nicoladgg/wsFreedomStudio/sifive_hifive1_revb_hello/freedom-metal/gloss/crt0.S:97
200101be:	fe734ae3          	blt	t1,t2,200101b2 <_start+0x62>
/home/nicoladgg/wsFreedomStudio/sifive_hifive1_revb_hello/freedom-metal/gloss/crt0.S:109
200101c2:	0000100f          	fence.i
/home/nicoladgg/wsFreedomStudio/sifive_hifive1_revb_hello/freedom-metal/gloss/crt0.S:114
200101c6:	00001297          	auipc	t0,0x1
200101ca:	09a28293          	addi	t0,t0,154 # 20011260 <metal_segment_itim_source_start>
/home/nicoladgg/wsFreedomStudio/sifive_hifive1_revb_hello/freedom-metal/gloss/crt0.S:115
200101ce:	5fff0317          	auipc	t1,0x5fff0
200101d2:	e3230313          	addi	t1,t1,-462 # 80000000 <impure_data>
/home/nicoladgg/wsFreedomStudio/sifive_hifive1_revb_hello/freedom-metal/gloss/crt0.S:116
200101d6:	5fff0397          	auipc	t2,0x5fff0
200101da:	e2a38393          	addi	t2,t2,-470 # 80000000 <impure_data>
/home/nicoladgg/wsFreedomStudio/sifive_hifive1_revb_hello/freedom-metal/gloss/crt0.S:118
200101de:	00628c63          	beq	t0,t1,200101f6 <_start+0xa6>
/home/nicoladgg/wsFreedomStudio/sifive_hifive1_revb_hello/freedom-metal/gloss/crt0.S:119
200101e2:	00735a63          	bge	t1,t2,200101f6 <_start+0xa6>
/home/nicoladgg/wsFreedomStudio/sifive_hifive1_revb_hello/freedom-metal/gloss/crt0.S:123
200101e6:	0002a503          	lw	a0,0(t0)
/home/nicoladgg/wsFreedomStudio/sifive_hifive1_revb_hello/freedom-metal/gloss/crt0.S:124
200101ea:	0291                	addi	t0,t0,4
/home/nicoladgg/wsFreedomStudio/sifive_hifive1_revb_hello/freedom-metal/gloss/crt0.S:125
200101ec:	00a32023          	sw	a0,0(t1)
/home/nicoladgg/wsFreedomStudio/sifive_hifive1_revb_hello/freedom-metal/gloss/crt0.S:126
200101f0:	0311                	addi	t1,t1,4
/home/nicoladgg/wsFreedomStudio/sifive_hifive1_revb_hello/freedom-metal/gloss/crt0.S:127
200101f2:	fe734ae3          	blt	t1,t2,200101e6 <_start+0x96>
/home/nicoladgg/wsFreedomStudio/sifive_hifive1_revb_hello/freedom-metal/gloss/crt0.S:139
200101f6:	0000100f          	fence.i
/home/nicoladgg/wsFreedomStudio/sifive_hifive1_revb_hello/freedom-metal/gloss/crt0.S:142
200101fa:	5fff1317          	auipc	t1,0x5fff1
200101fe:	8ce30313          	addi	t1,t1,-1842 # 80000ac8 <__malloc_free_list>
/home/nicoladgg/wsFreedomStudio/sifive_hifive1_revb_hello/freedom-metal/gloss/crt0.S:143
20010202:	8e018393          	addi	t2,gp,-1824 # 80000b80 <metal_segment_bss_target_end>
/home/nicoladgg/wsFreedomStudio/sifive_hifive1_revb_hello/freedom-metal/gloss/crt0.S:145
20010206:	00735763          	bge	t1,t2,20010214 <_start+0xc4>
/home/nicoladgg/wsFreedomStudio/sifive_hifive1_revb_hello/freedom-metal/gloss/crt0.S:149
2001020a:	00032023          	sw	zero,0(t1)
/home/nicoladgg/wsFreedomStudio/sifive_hifive1_revb_hello/freedom-metal/gloss/crt0.S:150
2001020e:	0311                	addi	t1,t1,4
/home/nicoladgg/wsFreedomStudio/sifive_hifive1_revb_hello/freedom-metal/gloss/crt0.S:151
20010210:	fe734de3          	blt	t1,t2,2001020a <_start+0xba>
/home/nicoladgg/wsFreedomStudio/sifive_hifive1_revb_hello/freedom-metal/gloss/crt0.S:161
20010214:	5fff1217          	auipc	tp,0x5fff1
20010218:	8b420213          	addi	tp,tp,-1868 # 80000ac8 <__malloc_free_list>
/home/nicoladgg/wsFreedomStudio/sifive_hifive1_revb_hello/freedom-metal/gloss/crt0.S:166
2001021c:	c211                	beqz	a2,20010220 <_start+0xd0>
/home/nicoladgg/wsFreedomStudio/sifive_hifive1_revb_hello/freedom-metal/gloss/crt0.S:167
2001021e:	9602                	jalr	a2
/home/nicoladgg/wsFreedomStudio/sifive_hifive1_revb_hello/freedom-metal/gloss/crt0.S:171
20010220:	00008517          	auipc	a0,0x8
20010224:	e6450513          	addi	a0,a0,-412 # 20018084 <__libc_fini_array>
/home/nicoladgg/wsFreedomStudio/sifive_hifive1_revb_hello/freedom-metal/gloss/crt0.S:172
20010228:	621070ef          	jal	ra,20018048 <atexit>
/home/nicoladgg/wsFreedomStudio/sifive_hifive1_revb_hello/freedom-metal/gloss/crt0.S:173
2001022c:	68f070ef          	jal	ra,200180ba <__libc_init_array>
/home/nicoladgg/wsFreedomStudio/sifive_hifive1_revb_hello/freedom-metal/gloss/crt0.S:177
20010230:	00008517          	auipc	a0,0x8
20010234:	13250513          	addi	a0,a0,306 # 20018362 <metal_fini_run>
/home/nicoladgg/wsFreedomStudio/sifive_hifive1_revb_hello/freedom-metal/gloss/crt0.S:178
20010238:	611070ef          	jal	ra,20018048 <atexit>
/home/nicoladgg/wsFreedomStudio/sifive_hifive1_revb_hello/freedom-metal/gloss/crt0.S:179
2001023c:	110080ef          	jal	ra,2001834c <metal_init_run>

20010240 <_skip_init>:
_skip_init():
/home/nicoladgg/wsFreedomStudio/sifive_hifive1_revb_hello/freedom-metal/gloss/crt0.S:185
20010240:	3709                	jal	20010142 <__metal_synchronize_harts>
/home/nicoladgg/wsFreedomStudio/sifive_hifive1_revb_hello/freedom-metal/gloss/crt0.S:188
20010242:	56fd                	li	a3,-1
/home/nicoladgg/wsFreedomStudio/sifive_hifive1_revb_hello/freedom-metal/gloss/crt0.S:189
20010244:	3046b073          	csrc	mie,a3
/home/nicoladgg/wsFreedomStudio/sifive_hifive1_revb_hello/freedom-metal/gloss/crt0.S:190
20010248:	3446b073          	csrc	mip,a3
/home/nicoladgg/wsFreedomStudio/sifive_hifive1_revb_hello/freedom-metal/gloss/crt0.S:194
2001024c:	301027f3          	csrr	a5,misa
/home/nicoladgg/wsFreedomStudio/sifive_hifive1_revb_hello/freedom-metal/gloss/crt0.S:195
20010250:	00042737          	lui	a4,0x42
/home/nicoladgg/wsFreedomStudio/sifive_hifive1_revb_hello/freedom-metal/gloss/crt0.S:196
20010254:	8f7d                	and	a4,a4,a5
/home/nicoladgg/wsFreedomStudio/sifive_hifive1_revb_hello/freedom-metal/gloss/crt0.S:197
20010256:	c709                	beqz	a4,20010260 <_skip_init+0x20>
/home/nicoladgg/wsFreedomStudio/sifive_hifive1_revb_hello/freedom-metal/gloss/crt0.S:198
20010258:	3036b073          	csrc	mideleg,a3
/home/nicoladgg/wsFreedomStudio/sifive_hifive1_revb_hello/freedom-metal/gloss/crt0.S:199
2001025c:	3026b073          	csrc	medeleg,a3
/home/nicoladgg/wsFreedomStudio/sifive_hifive1_revb_hello/freedom-metal/gloss/crt0.S:203
20010260:	00040737          	lui	a4,0x40
/home/nicoladgg/wsFreedomStudio/sifive_hifive1_revb_hello/freedom-metal/gloss/crt0.S:204
20010264:	8f7d                	and	a4,a4,a5
/home/nicoladgg/wsFreedomStudio/sifive_hifive1_revb_hello/freedom-metal/gloss/crt0.S:205
20010266:	c319                	beqz	a4,2001026c <_skip_init+0x2c>
/home/nicoladgg/wsFreedomStudio/sifive_hifive1_revb_hello/freedom-metal/gloss/crt0.S:206
20010268:	1806b073          	csrc	satp,a3
/home/nicoladgg/wsFreedomStudio/sifive_hifive1_revb_hello/freedom-metal/gloss/crt0.S:210
2001026c:	6741                	lui	a4,0x10
2001026e:	02870713          	addi	a4,a4,40 # 10028 <__heap_size+0xf828>
/home/nicoladgg/wsFreedomStudio/sifive_hifive1_revb_hello/freedom-metal/gloss/crt0.S:211
20010272:	8ff9                	and	a5,a5,a4
/home/nicoladgg/wsFreedomStudio/sifive_hifive1_revb_hello/freedom-metal/gloss/crt0.S:212
20010274:	cb89                	beqz	a5,20010286 <_skip_init+0x46>
/home/nicoladgg/wsFreedomStudio/sifive_hifive1_revb_hello/freedom-metal/gloss/crt0.S:213
20010276:	300027f3          	csrr	a5,mstatus
/home/nicoladgg/wsFreedomStudio/sifive_hifive1_revb_hello/freedom-metal/gloss/crt0.S:214
2001027a:	6709                	lui	a4,0x2
/home/nicoladgg/wsFreedomStudio/sifive_hifive1_revb_hello/freedom-metal/gloss/crt0.S:215
2001027c:	8fd9                	or	a5,a5,a4
/home/nicoladgg/wsFreedomStudio/sifive_hifive1_revb_hello/freedom-metal/gloss/crt0.S:216
2001027e:	30079073          	csrw	mstatus,a5
/home/nicoladgg/wsFreedomStudio/sifive_hifive1_revb_hello/freedom-metal/gloss/crt0.S:217
20010282:	00305073          	csrwi	fcsr,0
/home/nicoladgg/wsFreedomStudio/sifive_hifive1_revb_hello/freedom-metal/gloss/crt0.S:221
20010286:	301027f3          	csrr	a5,misa
/home/nicoladgg/wsFreedomStudio/sifive_hifive1_revb_hello/freedom-metal/gloss/crt0.S:222
2001028a:	00200737          	lui	a4,0x200
/home/nicoladgg/wsFreedomStudio/sifive_hifive1_revb_hello/freedom-metal/gloss/crt0.S:223
2001028e:	8ff9                	and	a5,a5,a4
/home/nicoladgg/wsFreedomStudio/sifive_hifive1_revb_hello/freedom-metal/gloss/crt0.S:224
20010290:	c799                	beqz	a5,2001029e <_skip_init+0x5e>
/home/nicoladgg/wsFreedomStudio/sifive_hifive1_revb_hello/freedom-metal/gloss/crt0.S:225
20010292:	300027f3          	csrr	a5,mstatus
/home/nicoladgg/wsFreedomStudio/sifive_hifive1_revb_hello/freedom-metal/gloss/crt0.S:226
20010296:	2007e793          	ori	a5,a5,512
/home/nicoladgg/wsFreedomStudio/sifive_hifive1_revb_hello/freedom-metal/gloss/crt0.S:227
2001029a:	30079073          	csrw	mstatus,a5
/home/nicoladgg/wsFreedomStudio/sifive_hifive1_revb_hello/freedom-metal/gloss/crt0.S:233
2001029e:	4505                	li	a0,1
/home/nicoladgg/wsFreedomStudio/sifive_hifive1_revb_hello/freedom-metal/gloss/crt0.S:234
200102a0:	00001597          	auipc	a1,0x1
200102a4:	f8458593          	addi	a1,a1,-124 # 20011224 <argv>
/home/nicoladgg/wsFreedomStudio/sifive_hifive1_revb_hello/freedom-metal/gloss/crt0.S:235
200102a8:	00001617          	auipc	a2,0x1
200102ac:	f8060613          	addi	a2,a2,-128 # 20011228 <envp>
/home/nicoladgg/wsFreedomStudio/sifive_hifive1_revb_hello/freedom-metal/gloss/crt0.S:236
200102b0:	2031                	jal	200102bc <secondary_main>
/home/nicoladgg/wsFreedomStudio/sifive_hifive1_revb_hello/freedom-metal/gloss/crt0.S:242
200102b2:	5ab070ef          	jal	ra,2001805c <exit>
/home/nicoladgg/wsFreedomStudio/sifive_hifive1_revb_hello/freedom-metal/gloss/crt0.S:247
200102b6:	80a2                	mv	ra,s0
/home/nicoladgg/wsFreedomStudio/sifive_hifive1_revb_hello/freedom-metal/gloss/crt0.S:248
200102b8:	8082                	ret

200102ba <_fini>:
_init():
/home/nicoladgg/wsFreedomStudio/sifive_hifive1_revb_hello/freedom-metal/gloss/crt0.S:260
200102ba:	8082                	ret

200102bc <secondary_main>:
secondary_main():
/home/nicoladgg/wsFreedomStudio/sifive_hifive1_revb_hello/freedom-metal/gloss/crt0.S:271
200102bc:	1141                	addi	sp,sp,-16
/home/nicoladgg/wsFreedomStudio/sifive_hifive1_revb_hello/freedom-metal/gloss/crt0.S:273
200102be:	c206                	sw	ra,4(sp)
/home/nicoladgg/wsFreedomStudio/sifive_hifive1_revb_hello/freedom-metal/gloss/crt0.S:277
200102c0:	f14022f3          	csrr	t0,mhartid
/home/nicoladgg/wsFreedomStudio/sifive_hifive1_revb_hello/freedom-metal/gloss/crt0.S:278
200102c4:	00000313          	li	t1,0
/home/nicoladgg/wsFreedomStudio/sifive_hifive1_revb_hello/freedom-metal/gloss/crt0.S:279
200102c8:	00628563          	beq	t0,t1,200102d2 <secondary_main+0x16>
/home/nicoladgg/wsFreedomStudio/sifive_hifive1_revb_hello/freedom-metal/gloss/crt0.S:281
200102cc:	10500073          	wfi
/home/nicoladgg/wsFreedomStudio/sifive_hifive1_revb_hello/freedom-metal/gloss/crt0.S:282
200102d0:	bff5                	j	200102cc <secondary_main+0x10>
/home/nicoladgg/wsFreedomStudio/sifive_hifive1_revb_hello/freedom-metal/gloss/crt0.S:284
200102d2:	048010ef          	jal	ra,2001131a <main>
/home/nicoladgg/wsFreedomStudio/sifive_hifive1_revb_hello/freedom-metal/gloss/crt0.S:286
200102d6:	4092                	lw	ra,4(sp)
/home/nicoladgg/wsFreedomStudio/sifive_hifive1_revb_hello/freedom-metal/gloss/crt0.S:290
200102d8:	0141                	addi	sp,sp,16
/home/nicoladgg/wsFreedomStudio/sifive_hifive1_revb_hello/freedom-metal/gloss/crt0.S:291
200102da:	8082                	ret

Disassembly of section .ctors:

200102ec <metal_sifive_fe310_g000_pll_init>:
metal_sifive_fe310_g000_pll_init():
/home/nicoladgg/wsFreedomStudio/sifive_hifive1_revb_hello/freedom-metal/src/drivers/sifive_fe310-g000_pll.c:151
200102ec:	1101                	addi	sp,sp,-32
200102ee:	ce06                	sw	ra,28(sp)
200102f0:	cc22                	sw	s0,24(sp)
200102f2:	1000                	addi	s0,sp,32
/home/nicoladgg/wsFreedomStudio/sifive_hifive1_revb_hello/freedom-metal/src/drivers/sifive_fe310-g000_pll.c:152
200102f4:	631050ef          	jal	ra,20016124 <__metal_driver_sifive_fe310_g000_pll_init_rate>
200102f8:	fea42623          	sw	a0,-20(s0)
/home/nicoladgg/wsFreedomStudio/sifive_hifive1_revb_hello/freedom-metal/src/drivers/sifive_fe310-g000_pll.c:154
200102fc:	fec42783          	lw	a5,-20(s0)
20010300:	c799                	beqz	a5,2001030e <__fini_array_end+0x1e>
/home/nicoladgg/wsFreedomStudio/sifive_hifive1_revb_hello/freedom-metal/src/drivers/sifive_fe310-g000_pll.c:155
20010302:	800017b7          	lui	a5,0x80001
20010306:	a9078513          	addi	a0,a5,-1392 # 80000a90 <metal_segment_heap_target_end+0xfffff310>
2001030a:	6a7050ef          	jal	ra,200161b0 <__metal_driver_sifive_fe310_g000_pll_init>
/home/nicoladgg/wsFreedomStudio/sifive_hifive1_revb_hello/freedom-metal/src/drivers/sifive_fe310-g000_pll.c:157
2001030e:	0001                	nop
20010310:	40f2                	lw	ra,28(sp)
20010312:	4462                	lw	s0,24(sp)
20010314:	6105                	addi	sp,sp,32
20010316:	8082                	ret

20010318 <use_hfxosc>:
use_hfxosc():
/home/nicoladgg/wsFreedomStudio/sifive_hifive1_revb_hello/freedom-metal/src/drivers/sifive_fe310-g000_pll.c:389
20010318:	1101                	addi	sp,sp,-32
2001031a:	ce06                	sw	ra,28(sp)
2001031c:	cc22                	sw	s0,24(sp)
2001031e:	1000                	addi	s0,sp,32
/home/nicoladgg/wsFreedomStudio/sifive_hifive1_revb_hello/freedom-metal/src/drivers/sifive_fe310-g000_pll.c:390
20010320:	605050ef          	jal	ra,20016124 <__metal_driver_sifive_fe310_g000_pll_init_rate>
20010324:	fea42623          	sw	a0,-20(s0)
/home/nicoladgg/wsFreedomStudio/sifive_hifive1_revb_hello/freedom-metal/src/drivers/sifive_fe310-g000_pll.c:391
20010328:	fec42583          	lw	a1,-20(s0)
2001032c:	800017b7          	lui	a5,0x80001
20010330:	a9078513          	addi	a0,a5,-1392 # 80000a90 <metal_segment_heap_target_end+0xfffff310>
20010334:	724070ef          	jal	ra,20017a58 <metal_clock_set_rate_hz>
/home/nicoladgg/wsFreedomStudio/sifive_hifive1_revb_hello/freedom-metal/src/drivers/sifive_fe310-g000_pll.c:393
20010338:	0001                	nop
2001033a:	40f2                	lw	ra,28(sp)
2001033c:	4462                	lw	s0,24(sp)
2001033e:	6105                	addi	sp,sp,32
20010340:	8082                	ret

20010342 <metal_tty_init>:
metal_tty_init():
/home/nicoladgg/wsFreedomStudio/sifive_hifive1_revb_hello/freedom-metal/src/tty.c:28
20010342:	1141                	addi	sp,sp,-16
20010344:	c606                	sw	ra,12(sp)
20010346:	c422                	sw	s0,8(sp)
20010348:	0800                	addi	s0,sp,16
/home/nicoladgg/wsFreedomStudio/sifive_hifive1_revb_hello/freedom-metal/src/tty.c:29
2001034a:	67f1                	lui	a5,0x1c
2001034c:	20078593          	addi	a1,a5,512 # 1c200 <__heap_size+0x1ba00>
20010350:	800017b7          	lui	a5,0x80001
20010354:	a3878513          	addi	a0,a5,-1480 # 80000a38 <metal_segment_heap_target_end+0xfffff2b8>
20010358:	197070ef          	jal	ra,20017cee <metal_uart_init>
/home/nicoladgg/wsFreedomStudio/sifive_hifive1_revb_hello/freedom-metal/src/tty.c:30
2001035c:	0001                	nop
2001035e:	40b2                	lw	ra,12(sp)
20010360:	4422                	lw	s0,8(sp)
20010362:	0141                	addi	sp,sp,16
20010364:	8082                	ret

Disassembly of section .text:

20011280 <timer_isr>:
timer_isr():
/home/nicoladgg/wsFreedomStudio/SiFive_HiFive_RevB_Projects/src/main.c:20
struct metal_cpu *cpu;
struct metal_interrupt *cpu_intr, *tmr_intr;
int tmr_id;
volatile uint32_t timer_isr_flag;

void timer_isr (int id, void *data) {
20011280:	1101                	addi	sp,sp,-32
20011282:	ce06                	sw	ra,28(sp)
20011284:	cc22                	sw	s0,24(sp)
20011286:	1000                	addi	s0,sp,32
20011288:	fea42623          	sw	a0,-20(s0)
2001128c:	feb42423          	sw	a1,-24(s0)
/home/nicoladgg/wsFreedomStudio/SiFive_HiFive_RevB_Projects/src/main.c:23

    // Disable Timer interrupt
    metal_interrupt_disable(tmr_intr, tmr_id);
20011290:	8d01a703          	lw	a4,-1840(gp) # 80000b70 <tmr_intr>
20011294:	8dc1a783          	lw	a5,-1828(gp) # 80000b7c <tmr_id>
20011298:	85be                	mv	a1,a5
2001129a:	853a                	mv	a0,a4
2001129c:	217060ef          	jal	ra,20017cb2 <metal_interrupt_disable>
/home/nicoladgg/wsFreedomStudio/SiFive_HiFive_RevB_Projects/src/main.c:26

    // Flag showing we hit timer isr
    timer_isr_flag = 1;
200112a0:	4705                	li	a4,1
200112a2:	8ce1ac23          	sw	a4,-1832(gp) # 80000b78 <timer_isr_flag>
/home/nicoladgg/wsFreedomStudio/SiFive_HiFive_RevB_Projects/src/main.c:27
}
200112a6:	0001                	nop
200112a8:	40f2                	lw	ra,28(sp)
200112aa:	4462                	lw	s0,24(sp)
200112ac:	6105                	addi	sp,sp,32
200112ae:	8082                	ret

200112b0 <wait_for_timer>:
wait_for_timer():
/home/nicoladgg/wsFreedomStudio/SiFive_HiFive_RevB_Projects/src/main.c:29

void wait_for_timer() {
200112b0:	1141                	addi	sp,sp,-16
200112b2:	c606                	sw	ra,12(sp)
200112b4:	c422                	sw	s0,8(sp)
200112b6:	c226                	sw	s1,4(sp)
200112b8:	0800                	addi	s0,sp,16
/home/nicoladgg/wsFreedomStudio/SiFive_HiFive_RevB_Projects/src/main.c:32

    // clear global timer isr flag
    timer_isr_flag = 0;
200112ba:	8c01ac23          	sw	zero,-1832(gp) # 80000b78 <timer_isr_flag>
/home/nicoladgg/wsFreedomStudio/SiFive_HiFive_RevB_Projects/src/main.c:35

    // Set timer
    metal_cpu_set_mtimecmp(cpu, (metal_cpu_get_mtime(cpu) + RTC_FREQ));
200112be:	8cc1a483          	lw	s1,-1844(gp) # 80000b6c <cpu>
200112c2:	8cc1a783          	lw	a5,-1844(gp) # 80000b6c <cpu>
200112c6:	853e                	mv	a0,a5
200112c8:	041060ef          	jal	ra,20017b08 <metal_cpu_get_mtime>
200112cc:	862a                	mv	a2,a0
200112ce:	86ae                	mv	a3,a1
200112d0:	6521                	lui	a0,0x8
200112d2:	4581                	li	a1,0
200112d4:	00a60733          	add	a4,a2,a0
200112d8:	883a                	mv	a6,a4
200112da:	00c83833          	sltu	a6,a6,a2
200112de:	00b687b3          	add	a5,a3,a1
200112e2:	00f806b3          	add	a3,a6,a5
200112e6:	87b6                	mv	a5,a3
200112e8:	85ba                	mv	a1,a4
200112ea:	863e                	mv	a2,a5
200112ec:	8526                	mv	a0,s1
200112ee:	045060ef          	jal	ra,20017b32 <metal_cpu_set_mtimecmp>
/home/nicoladgg/wsFreedomStudio/SiFive_HiFive_RevB_Projects/src/main.c:37
    // Enable Timer interrupt
    metal_interrupt_enable(tmr_intr, tmr_id);
200112f2:	8d01a703          	lw	a4,-1840(gp) # 80000b70 <tmr_intr>
200112f6:	8dc1a783          	lw	a5,-1828(gp) # 80000b7c <tmr_id>
200112fa:	85be                	mv	a1,a5
200112fc:	853a                	mv	a0,a4
200112fe:	187060ef          	jal	ra,20017c84 <metal_interrupt_enable>
/home/nicoladgg/wsFreedomStudio/SiFive_HiFive_RevB_Projects/src/main.c:40

    // wait till timer triggers and isr is hit
    while (timer_isr_flag == 0){};
20011302:	0001                	nop
/home/nicoladgg/wsFreedomStudio/SiFive_HiFive_RevB_Projects/src/main.c:40 (discriminator 1)
20011304:	8d81a783          	lw	a5,-1832(gp) # 80000b78 <timer_isr_flag>
20011308:	dff5                	beqz	a5,20011304 <wait_for_timer+0x54>
/home/nicoladgg/wsFreedomStudio/SiFive_HiFive_RevB_Projects/src/main.c:42

    timer_isr_flag = 0;
2001130a:	8c01ac23          	sw	zero,-1832(gp) # 80000b78 <timer_isr_flag>
/home/nicoladgg/wsFreedomStudio/SiFive_HiFive_RevB_Projects/src/main.c:43
}
2001130e:	0001                	nop
20011310:	40b2                	lw	ra,12(sp)
20011312:	4422                	lw	s0,8(sp)
20011314:	4492                	lw	s1,4(sp)
20011316:	0141                	addi	sp,sp,16
20011318:	8082                	ret

2001131a <main>:
main():
/home/nicoladgg/wsFreedomStudio/SiFive_HiFive_RevB_Projects/src/main.c:46

int main (void)
{
2001131a:	7139                	addi	sp,sp,-64
2001131c:	de06                	sw	ra,60(sp)
2001131e:	dc22                	sw	s0,56(sp)
20011320:	0080                	addi	s0,sp,64
/home/nicoladgg/wsFreedomStudio/SiFive_HiFive_RevB_Projects/src/main.c:53
    struct metal_led *led0_red, *led0_green, *led0_blue;


    /* This code
 		wait_for_timer(); is used to initialize the cpu and its interrupts */
    cpu = metal_cpu_get(metal_cpu_get_current_hartid());
20011322:	0e7060ef          	jal	ra,20017c08 <metal_cpu_get_current_hartid>
20011326:	87aa                	mv	a5,a0
20011328:	853e                	mv	a0,a5
2001132a:	0b1060ef          	jal	ra,20017bda <metal_cpu_get>
2001132e:	872a                	mv	a4,a0
20011330:	8ce1a623          	sw	a4,-1844(gp) # 80000b6c <cpu>
/home/nicoladgg/wsFreedomStudio/SiFive_HiFive_RevB_Projects/src/main.c:54
    if (cpu == NULL) {
20011334:	8cc1a783          	lw	a5,-1844(gp) # 80000b6c <cpu>
20011338:	eb81                	bnez	a5,20011348 <main+0x2e>
/home/nicoladgg/wsFreedomStudio/SiFive_HiFive_RevB_Projects/src/main.c:55
        printf("CPU null.\n");
2001133a:	200107b7          	lui	a5,0x20010
2001133e:	3b878513          	addi	a0,a5,952 # 200103b8 <variant_pin_map+0x50>
20011342:	2391                	jal	20011886 <puts>
/home/nicoladgg/wsFreedomStudio/SiFive_HiFive_RevB_Projects/src/main.c:56
        return 2;
20011344:	4789                	li	a5,2
20011346:	a939                	j	20011764 <main+0x44a>
/home/nicoladgg/wsFreedomStudio/SiFive_HiFive_RevB_Projects/src/main.c:58
    }
    cpu_intr = metal_cpu_interrupt_controller(cpu);
20011348:	8cc1a783          	lw	a5,-1844(gp) # 80000b6c <cpu>
2001134c:	853e                	mv	a0,a5
2001134e:	067060ef          	jal	ra,20017bb4 <metal_cpu_interrupt_controller>
20011352:	872a                	mv	a4,a0
20011354:	8ce1aa23          	sw	a4,-1836(gp) # 80000b74 <cpu_intr>
/home/nicoladgg/wsFreedomStudio/SiFive_HiFive_RevB_Projects/src/main.c:59
    if (cpu_intr == NULL) {
20011358:	8d41a783          	lw	a5,-1836(gp) # 80000b74 <cpu_intr>
2001135c:	eb81                	bnez	a5,2001136c <main+0x52>
/home/nicoladgg/wsFreedomStudio/SiFive_HiFive_RevB_Projects/src/main.c:60
        printf("CPU interrupt controller is null.\n");
2001135e:	200107b7          	lui	a5,0x20010
20011362:	3c478513          	addi	a0,a5,964 # 200103c4 <variant_pin_map+0x5c>
20011366:	2305                	jal	20011886 <puts>
/home/nicoladgg/wsFreedomStudio/SiFive_HiFive_RevB_Projects/src/main.c:61
        return 3;
20011368:	478d                	li	a5,3
2001136a:	aeed                	j	20011764 <main+0x44a>
/home/nicoladgg/wsFreedomStudio/SiFive_HiFive_RevB_Projects/src/main.c:63
    }
    metal_interrupt_init(cpu_intr);
2001136c:	8d41a783          	lw	a5,-1836(gp) # 80000b74 <cpu_intr>
20011370:	853e                	mv	a0,a5
20011372:	0b1060ef          	jal	ra,20017c22 <metal_interrupt_init>
/home/nicoladgg/wsFreedomStudio/SiFive_HiFive_RevB_Projects/src/main.c:67


    // Setup Timer and its interrupt so we can toggle LEDs on 1s cadence
    tmr_intr = metal_cpu_timer_interrupt_controller(cpu);
20011376:	8cc1a783          	lw	a5,-1844(gp) # 80000b6c <cpu>
2001137a:	853e                	mv	a0,a5
2001137c:	7ec060ef          	jal	ra,20017b68 <metal_cpu_timer_interrupt_controller>
20011380:	872a                	mv	a4,a0
20011382:	8ce1a823          	sw	a4,-1840(gp) # 80000b70 <tmr_intr>
/home/nicoladgg/wsFreedomStudio/SiFive_HiFive_RevB_Projects/src/main.c:68
    if (tmr_intr == NULL) {
20011386:	8d01a783          	lw	a5,-1840(gp) # 80000b70 <tmr_intr>
2001138a:	eb81                	bnez	a5,2001139a <main+0x80>
/home/nicoladgg/wsFreedomStudio/SiFive_HiFive_RevB_Projects/src/main.c:69
        printf("TIMER interrupt controller is  null.\n");
2001138c:	200107b7          	lui	a5,0x20010
20011390:	3e878513          	addi	a0,a5,1000 # 200103e8 <variant_pin_map+0x80>
20011394:	29cd                	jal	20011886 <puts>
/home/nicoladgg/wsFreedomStudio/SiFive_HiFive_RevB_Projects/src/main.c:70
        return 4;
20011396:	4791                	li	a5,4
20011398:	a6f1                	j	20011764 <main+0x44a>
/home/nicoladgg/wsFreedomStudio/SiFive_HiFive_RevB_Projects/src/main.c:72
    }
    metal_interrupt_init(tmr_intr);
2001139a:	8d01a783          	lw	a5,-1840(gp) # 80000b70 <tmr_intr>
2001139e:	853e                	mv	a0,a5
200113a0:	083060ef          	jal	ra,20017c22 <metal_interrupt_init>
/home/nicoladgg/wsFreedomStudio/SiFive_HiFive_RevB_Projects/src/main.c:73
    tmr_id = metal_cpu_timer_get_interrupt_id(cpu);
200113a4:	8cc1a783          	lw	a5,-1844(gp) # 80000b6c <cpu>
200113a8:	853e                	mv	a0,a5
200113aa:	7e4060ef          	jal	ra,20017b8e <metal_cpu_timer_get_interrupt_id>
200113ae:	872a                	mv	a4,a0
200113b0:	8ce1ae23          	sw	a4,-1828(gp) # 80000b7c <tmr_id>
/home/nicoladgg/wsFreedomStudio/SiFive_HiFive_RevB_Projects/src/main.c:74
    rc = metal_interrupt_register_handler(tmr_intr, tmr_id, timer_isr, cpu);
200113b4:	8d01a703          	lw	a4,-1840(gp) # 80000b70 <tmr_intr>
200113b8:	8dc1a583          	lw	a1,-1828(gp) # 80000b7c <tmr_id>
200113bc:	8cc1a783          	lw	a5,-1844(gp) # 80000b6c <cpu>
200113c0:	86be                	mv	a3,a5
200113c2:	200117b7          	lui	a5,0x20011
200113c6:	28078613          	addi	a2,a5,640 # 20011280 <timer_isr>
200113ca:	853a                	mv	a0,a4
200113cc:	07b060ef          	jal	ra,20017c46 <metal_interrupt_register_handler>
200113d0:	fea42623          	sw	a0,-20(s0)
/home/nicoladgg/wsFreedomStudio/SiFive_HiFive_RevB_Projects/src/main.c:75
    if (rc < 0) {
200113d4:	fec42783          	lw	a5,-20(s0)
200113d8:	0007dc63          	bgez	a5,200113f0 <main+0xd6>
/home/nicoladgg/wsFreedomStudio/SiFive_HiFive_RevB_Projects/src/main.c:76
        printf("TIMER interrupt handler registration failed\n");
200113dc:	200107b7          	lui	a5,0x20010
200113e0:	41078513          	addi	a0,a5,1040 # 20010410 <variant_pin_map+0xa8>
200113e4:	214d                	jal	20011886 <puts>
/home/nicoladgg/wsFreedomStudio/SiFive_HiFive_RevB_Projects/src/main.c:77
        return (rc * -1);
200113e6:	fec42783          	lw	a5,-20(s0)
200113ea:	40f007b3          	neg	a5,a5
200113ee:	ae9d                	j	20011764 <main+0x44a>
/home/nicoladgg/wsFreedomStudio/SiFive_HiFive_RevB_Projects/src/main.c:81
    }

    // Lastly CPU interrupt
    if (metal_interrupt_enable(cpu_intr, 0) == -1) {
200113f0:	8d41a783          	lw	a5,-1836(gp) # 80000b74 <cpu_intr>
200113f4:	4581                	li	a1,0
200113f6:	853e                	mv	a0,a5
200113f8:	08d060ef          	jal	ra,20017c84 <metal_interrupt_enable>
200113fc:	872a                	mv	a4,a0
200113fe:	57fd                	li	a5,-1
20011400:	00f71963          	bne	a4,a5,20011412 <main+0xf8>
/home/nicoladgg/wsFreedomStudio/SiFive_HiFive_RevB_Projects/src/main.c:82
        printf("CPU interrupt enable failed\n");
20011404:	200107b7          	lui	a5,0x20010
20011408:	43c78513          	addi	a0,a5,1084 # 2001043c <variant_pin_map+0xd4>
2001140c:	29ad                	jal	20011886 <puts>
/home/nicoladgg/wsFreedomStudio/SiFive_HiFive_RevB_Projects/src/main.c:83
        return 6;
2001140e:	4799                	li	a5,6
20011410:	ae91                	j	20011764 <main+0x44a>
/home/nicoladgg/wsFreedomStudio/SiFive_HiFive_RevB_Projects/src/main.c:87
    }

    //This is for HCSR04
    int echo = 7;
20011412:	479d                	li	a5,7
20011414:	fef42423          	sw	a5,-24(s0)
/home/nicoladgg/wsFreedomStudio/SiFive_HiFive_RevB_Projects/src/main.c:88
    int trigger = 6;
20011418:	4799                	li	a5,6
2001141a:	fef42223          	sw	a5,-28(s0)
/home/nicoladgg/wsFreedomStudio/SiFive_HiFive_RevB_Projects/src/main.c:89
    int cpu_freq = 16000000;
2001141e:	00f427b7          	lui	a5,0xf42
20011422:	40078793          	addi	a5,a5,1024 # f42400 <__heap_size+0xf41c00>
20011426:	fef42023          	sw	a5,-32(s0)
/home/nicoladgg/wsFreedomStudio/SiFive_HiFive_RevB_Projects/src/main.c:91

    int echo_pin    = variant_pin_map[echo].bit_pos;
2001142a:	200107b7          	lui	a5,0x20010
2001142e:	36878713          	addi	a4,a5,872 # 20010368 <variant_pin_map>
20011432:	fe842783          	lw	a5,-24(s0)
20011436:	078a                	slli	a5,a5,0x2
20011438:	97ba                	add	a5,a5,a4
2001143a:	0017c783          	lbu	a5,1(a5)
2001143e:	fcf42e23          	sw	a5,-36(s0)
/home/nicoladgg/wsFreedomStudio/SiFive_HiFive_RevB_Projects/src/main.c:92
    int trigger_pin = variant_pin_map[trigger].bit_pos;
20011442:	200107b7          	lui	a5,0x20010
20011446:	36878713          	addi	a4,a5,872 # 20010368 <variant_pin_map>
2001144a:	fe442783          	lw	a5,-28(s0)
2001144e:	078a                	slli	a5,a5,0x2
20011450:	97ba                	add	a5,a5,a4
20011452:	0017c783          	lbu	a5,1(a5)
20011456:	fcf42c23          	sw	a5,-40(s0)
/home/nicoladgg/wsFreedomStudio/SiFive_HiFive_RevB_Projects/src/main.c:94

    GPIO_REG(GPIO_INPUT_EN)     &= ~(1 << trigger_pin);
2001145a:	100127b7          	lui	a5,0x10012
2001145e:	0791                	addi	a5,a5,4
20011460:	4398                	lw	a4,0(a5)
20011462:	fd842783          	lw	a5,-40(s0)
20011466:	4685                	li	a3,1
20011468:	00f697b3          	sll	a5,a3,a5
2001146c:	fff7c793          	not	a5,a5
20011470:	86be                	mv	a3,a5
20011472:	100127b7          	lui	a5,0x10012
20011476:	0791                	addi	a5,a5,4
20011478:	8f75                	and	a4,a4,a3
2001147a:	c398                	sw	a4,0(a5)
/home/nicoladgg/wsFreedomStudio/SiFive_HiFive_RevB_Projects/src/main.c:95
    GPIO_REG(GPIO_OUTPUT_EN)    |= 1 << trigger_pin;
2001147c:	100127b7          	lui	a5,0x10012
20011480:	07a1                	addi	a5,a5,8
20011482:	4398                	lw	a4,0(a5)
20011484:	fd842783          	lw	a5,-40(s0)
20011488:	4685                	li	a3,1
2001148a:	00f697b3          	sll	a5,a3,a5
2001148e:	86be                	mv	a3,a5
20011490:	100127b7          	lui	a5,0x10012
20011494:	07a1                	addi	a5,a5,8
20011496:	8f55                	or	a4,a4,a3
20011498:	c398                	sw	a4,0(a5)
/home/nicoladgg/wsFreedomStudio/SiFive_HiFive_RevB_Projects/src/main.c:96
    GPIO_REG(GPIO_PULLUP_EN)    &= ~(1 << trigger_pin);
2001149a:	100127b7          	lui	a5,0x10012
2001149e:	07c1                	addi	a5,a5,16
200114a0:	4398                	lw	a4,0(a5)
200114a2:	fd842783          	lw	a5,-40(s0)
200114a6:	4685                	li	a3,1
200114a8:	00f697b3          	sll	a5,a3,a5
200114ac:	fff7c793          	not	a5,a5
200114b0:	86be                	mv	a3,a5
200114b2:	100127b7          	lui	a5,0x10012
200114b6:	07c1                	addi	a5,a5,16
200114b8:	8f75                	and	a4,a4,a3
200114ba:	c398                	sw	a4,0(a5)
/home/nicoladgg/wsFreedomStudio/SiFive_HiFive_RevB_Projects/src/main.c:97
    GPIO_REG(GPIO_IOF_EN)       |= 1 << trigger_pin;
200114bc:	100127b7          	lui	a5,0x10012
200114c0:	03878793          	addi	a5,a5,56 # 10012038 <metal_segment_itim_target_end+0x8012038>
200114c4:	4398                	lw	a4,0(a5)
200114c6:	fd842783          	lw	a5,-40(s0)
200114ca:	4685                	li	a3,1
200114cc:	00f697b3          	sll	a5,a3,a5
200114d0:	86be                	mv	a3,a5
200114d2:	100127b7          	lui	a5,0x10012
200114d6:	03878793          	addi	a5,a5,56 # 10012038 <metal_segment_itim_target_end+0x8012038>
200114da:	8f55                	or	a4,a4,a3
200114dc:	c398                	sw	a4,0(a5)
/home/nicoladgg/wsFreedomStudio/SiFive_HiFive_RevB_Projects/src/main.c:98
    GPIO_REG(GPIO_IOF_SEL)      |= 1 << trigger_pin; //Selecting IOF1 for PMW
200114de:	100127b7          	lui	a5,0x10012
200114e2:	03c78793          	addi	a5,a5,60 # 1001203c <metal_segment_itim_target_end+0x801203c>
200114e6:	4398                	lw	a4,0(a5)
200114e8:	fd842783          	lw	a5,-40(s0)
200114ec:	4685                	li	a3,1
200114ee:	00f697b3          	sll	a5,a3,a5
200114f2:	86be                	mv	a3,a5
200114f4:	100127b7          	lui	a5,0x10012
200114f8:	03c78793          	addi	a5,a5,60 # 1001203c <metal_segment_itim_target_end+0x801203c>
200114fc:	8f55                	or	a4,a4,a3
200114fe:	c398                	sw	a4,0(a5)
/home/nicoladgg/wsFreedomStudio/SiFive_HiFive_RevB_Projects/src/main.c:99
    GPIO_REG(GPIO_OUTPUT_XOR)   |= 1 << trigger_pin;
20011500:	100127b7          	lui	a5,0x10012
20011504:	04078793          	addi	a5,a5,64 # 10012040 <metal_segment_itim_target_end+0x8012040>
20011508:	4398                	lw	a4,0(a5)
2001150a:	fd842783          	lw	a5,-40(s0)
2001150e:	4685                	li	a3,1
20011510:	00f697b3          	sll	a5,a3,a5
20011514:	86be                	mv	a3,a5
20011516:	100127b7          	lui	a5,0x10012
2001151a:	04078793          	addi	a5,a5,64 # 10012040 <metal_segment_itim_target_end+0x8012040>
2001151e:	8f55                	or	a4,a4,a3
20011520:	c398                	sw	a4,0(a5)
/home/nicoladgg/wsFreedomStudio/SiFive_HiFive_RevB_Projects/src/main.c:101

    GPIO_REG(GPIO_INPUT_EN)     |= 1 << echo_pin;
20011522:	100127b7          	lui	a5,0x10012
20011526:	0791                	addi	a5,a5,4
20011528:	4398                	lw	a4,0(a5)
2001152a:	fdc42783          	lw	a5,-36(s0)
2001152e:	4685                	li	a3,1
20011530:	00f697b3          	sll	a5,a3,a5
20011534:	86be                	mv	a3,a5
20011536:	100127b7          	lui	a5,0x10012
2001153a:	0791                	addi	a5,a5,4
2001153c:	8f55                	or	a4,a4,a3
2001153e:	c398                	sw	a4,0(a5)
/home/nicoladgg/wsFreedomStudio/SiFive_HiFive_RevB_Projects/src/main.c:102
    GPIO_REG(GPIO_OUTPUT_EN)    &= ~(1 << echo_pin);
20011540:	100127b7          	lui	a5,0x10012
20011544:	07a1                	addi	a5,a5,8
20011546:	4398                	lw	a4,0(a5)
20011548:	fdc42783          	lw	a5,-36(s0)
2001154c:	4685                	li	a3,1
2001154e:	00f697b3          	sll	a5,a3,a5
20011552:	fff7c793          	not	a5,a5
20011556:	86be                	mv	a3,a5
20011558:	100127b7          	lui	a5,0x10012
2001155c:	07a1                	addi	a5,a5,8
2001155e:	8f75                	and	a4,a4,a3
20011560:	c398                	sw	a4,0(a5)
/home/nicoladgg/wsFreedomStudio/SiFive_HiFive_RevB_Projects/src/main.c:103
    GPIO_REG(GPIO_PULLUP_EN)    &= ~(1 << echo_pin);
20011562:	100127b7          	lui	a5,0x10012
20011566:	07c1                	addi	a5,a5,16
20011568:	4398                	lw	a4,0(a5)
2001156a:	fdc42783          	lw	a5,-36(s0)
2001156e:	4685                	li	a3,1
20011570:	00f697b3          	sll	a5,a3,a5
20011574:	fff7c793          	not	a5,a5
20011578:	86be                	mv	a3,a5
2001157a:	100127b7          	lui	a5,0x10012
2001157e:	07c1                	addi	a5,a5,16
20011580:	8f75                	and	a4,a4,a3
20011582:	c398                	sw	a4,0(a5)
/home/nicoladgg/wsFreedomStudio/SiFive_HiFive_RevB_Projects/src/main.c:104
    GPIO_REG(GPIO_IOF_EN)       &= ~(1 << echo_pin);
20011584:	100127b7          	lui	a5,0x10012
20011588:	03878793          	addi	a5,a5,56 # 10012038 <metal_segment_itim_target_end+0x8012038>
2001158c:	4398                	lw	a4,0(a5)
2001158e:	fdc42783          	lw	a5,-36(s0)
20011592:	4685                	li	a3,1
20011594:	00f697b3          	sll	a5,a3,a5
20011598:	fff7c793          	not	a5,a5
2001159c:	86be                	mv	a3,a5
2001159e:	100127b7          	lui	a5,0x10012
200115a2:	03878793          	addi	a5,a5,56 # 10012038 <metal_segment_itim_target_end+0x8012038>
200115a6:	8f75                	and	a4,a4,a3
200115a8:	c398                	sw	a4,0(a5)
/home/nicoladgg/wsFreedomStudio/SiFive_HiFive_RevB_Projects/src/main.c:105
    GPIO_REG(GPIO_IOF_SEL)      &= ~(1 << echo_pin); //Deselecting IOF1 for PMW
200115aa:	100127b7          	lui	a5,0x10012
200115ae:	03c78793          	addi	a5,a5,60 # 1001203c <metal_segment_itim_target_end+0x801203c>
200115b2:	4398                	lw	a4,0(a5)
200115b4:	fdc42783          	lw	a5,-36(s0)
200115b8:	4685                	li	a3,1
200115ba:	00f697b3          	sll	a5,a3,a5
200115be:	fff7c793          	not	a5,a5
200115c2:	86be                	mv	a3,a5
200115c4:	100127b7          	lui	a5,0x10012
200115c8:	03c78793          	addi	a5,a5,60 # 1001203c <metal_segment_itim_target_end+0x801203c>
200115cc:	8f75                	and	a4,a4,a3
200115ce:	c398                	sw	a4,0(a5)
/home/nicoladgg/wsFreedomStudio/SiFive_HiFive_RevB_Projects/src/main.c:106
    GPIO_REG(GPIO_OUTPUT_XOR)   |= 1 << echo_pin;
200115d0:	100127b7          	lui	a5,0x10012
200115d4:	04078793          	addi	a5,a5,64 # 10012040 <metal_segment_itim_target_end+0x8012040>
200115d8:	4398                	lw	a4,0(a5)
200115da:	fdc42783          	lw	a5,-36(s0)
200115de:	4685                	li	a3,1
200115e0:	00f697b3          	sll	a5,a3,a5
200115e4:	86be                	mv	a3,a5
200115e6:	100127b7          	lui	a5,0x10012
200115ea:	04078793          	addi	a5,a5,64 # 10012040 <metal_segment_itim_target_end+0x8012040>
200115ee:	8f55                	or	a4,a4,a3
200115f0:	c398                	sw	a4,0(a5)
/home/nicoladgg/wsFreedomStudio/SiFive_HiFive_RevB_Projects/src/main.c:107
    GPIO_REG(GPIO_RISE_IE)		|= 1 << echo_pin;
200115f2:	100127b7          	lui	a5,0x10012
200115f6:	07e1                	addi	a5,a5,24
200115f8:	4398                	lw	a4,0(a5)
200115fa:	fdc42783          	lw	a5,-36(s0)
200115fe:	4685                	li	a3,1
20011600:	00f697b3          	sll	a5,a3,a5
20011604:	86be                	mv	a3,a5
20011606:	100127b7          	lui	a5,0x10012
2001160a:	07e1                	addi	a5,a5,24
2001160c:	8f55                	or	a4,a4,a3
2001160e:	c398                	sw	a4,0(a5)
/home/nicoladgg/wsFreedomStudio/SiFive_HiFive_RevB_Projects/src/main.c:109

    unsigned char scale = 4; //1MHz
20011610:	4791                	li	a5,4
20011612:	fcf40ba3          	sb	a5,-41(s0)
/home/nicoladgg/wsFreedomStudio/SiFive_HiFive_RevB_Projects/src/main.c:110
    unsigned int pulse  = (0.00001 * cpu_freq) / 16;
20011616:	fe042503          	lw	a0,-32(s0)
2001161a:	5b9010ef          	jal	ra,200133d2 <__floatsidf>
2001161e:	872a                	mv	a4,a0
20011620:	87ae                	mv	a5,a1
20011622:	200106b7          	lui	a3,0x20010
20011626:	4686a603          	lw	a2,1128(a3) # 20010468 <variant_pin_map+0x100>
2001162a:	46c6a683          	lw	a3,1132(a3)
2001162e:	853a                	mv	a0,a4
20011630:	85be                	mv	a1,a5
20011632:	107010ef          	jal	ra,20012f38 <__muldf3>
20011636:	872a                	mv	a4,a0
20011638:	87ae                	mv	a5,a1
2001163a:	853a                	mv	a0,a4
2001163c:	85be                	mv	a1,a5
2001163e:	200107b7          	lui	a5,0x20010
20011642:	4707a603          	lw	a2,1136(a5) # 20010470 <variant_pin_map+0x108>
20011646:	4747a683          	lw	a3,1140(a5)
2001164a:	3ae010ef          	jal	ra,200129f8 <__divdf3>
2001164e:	872a                	mv	a4,a0
20011650:	87ae                	mv	a5,a1
20011652:	853a                	mv	a0,a4
20011654:	85be                	mv	a1,a5
20011656:	51d010ef          	jal	ra,20013372 <__fixunsdfsi>
2001165a:	87aa                	mv	a5,a0
2001165c:	fcf42823          	sw	a5,-48(s0)
/home/nicoladgg/wsFreedomStudio/SiFive_HiFive_RevB_Projects/src/main.c:111
    unsigned int period = (0.01 * cpu_freq) / 16;
20011660:	fe042503          	lw	a0,-32(s0)
20011664:	56f010ef          	jal	ra,200133d2 <__floatsidf>
20011668:	872a                	mv	a4,a0
2001166a:	87ae                	mv	a5,a1
2001166c:	200106b7          	lui	a3,0x20010
20011670:	4786a603          	lw	a2,1144(a3) # 20010478 <variant_pin_map+0x110>
20011674:	47c6a683          	lw	a3,1148(a3)
20011678:	853a                	mv	a0,a4
2001167a:	85be                	mv	a1,a5
2001167c:	0bd010ef          	jal	ra,20012f38 <__muldf3>
20011680:	872a                	mv	a4,a0
20011682:	87ae                	mv	a5,a1
20011684:	853a                	mv	a0,a4
20011686:	85be                	mv	a1,a5
20011688:	200107b7          	lui	a5,0x20010
2001168c:	4707a603          	lw	a2,1136(a5) # 20010470 <variant_pin_map+0x108>
20011690:	4747a683          	lw	a3,1140(a5)
20011694:	364010ef          	jal	ra,200129f8 <__divdf3>
20011698:	872a                	mv	a4,a0
2001169a:	87ae                	mv	a5,a1
2001169c:	853a                	mv	a0,a4
2001169e:	85be                	mv	a1,a5
200116a0:	4d3010ef          	jal	ra,20013372 <__fixunsdfsi>
200116a4:	87aa                	mv	a5,a0
200116a6:	fcf42623          	sw	a5,-52(s0)
/home/nicoladgg/wsFreedomStudio/SiFive_HiFive_RevB_Projects/src/main.c:118
    uint16_t t2;


	while(1)
	{
		PWM1_REG(PWM_CFG)   = 0;
200116aa:	100257b7          	lui	a5,0x10025
200116ae:	0007a023          	sw	zero,0(a5) # 10025000 <metal_segment_itim_target_end+0x8025000>
/home/nicoladgg/wsFreedomStudio/SiFive_HiFive_RevB_Projects/src/main.c:119
		PWM1_REG(PWM_COUNT) = 0;
200116b2:	100257b7          	lui	a5,0x10025
200116b6:	07a1                	addi	a5,a5,8
200116b8:	0007a023          	sw	zero,0(a5) # 10025000 <metal_segment_itim_target_end+0x8025000>
/home/nicoladgg/wsFreedomStudio/SiFive_HiFive_RevB_Projects/src/main.c:120
		PWM1_REG(PWM_CMP0)  = period;
200116bc:	100257b7          	lui	a5,0x10025
200116c0:	02078793          	addi	a5,a5,32 # 10025020 <metal_segment_itim_target_end+0x8025020>
200116c4:	fcc42703          	lw	a4,-52(s0)
200116c8:	c398                	sw	a4,0(a5)
/home/nicoladgg/wsFreedomStudio/SiFive_HiFive_RevB_Projects/src/main.c:121
		PWM1_REG(PWM_CMP3)  = pulse;
200116ca:	100257b7          	lui	a5,0x10025
200116ce:	02c78793          	addi	a5,a5,44 # 1002502c <metal_segment_itim_target_end+0x802502c>
200116d2:	fd042703          	lw	a4,-48(s0)
200116d6:	c398                	sw	a4,0(a5)
/home/nicoladgg/wsFreedomStudio/SiFive_HiFive_RevB_Projects/src/main.c:122
		PWM1_REG(PWM_CFG)   = scale | PWM_CFG_ZEROCMP | PWM_CFG_ENALWAYS;
200116d8:	fd744703          	lbu	a4,-41(s0)
200116dc:	6785                	lui	a5,0x1
200116de:	20078793          	addi	a5,a5,512 # 1200 <__heap_size+0xa00>
200116e2:	8f5d                	or	a4,a4,a5
200116e4:	100257b7          	lui	a5,0x10025
200116e8:	c398                	sw	a4,0(a5)
/home/nicoladgg/wsFreedomStudio/SiFive_HiFive_RevB_Projects/src/main.c:125


		passed = PWM1_REG(PWM_S);
200116ea:	100257b7          	lui	a5,0x10025
200116ee:	07c1                	addi	a5,a5,16
200116f0:	439c                	lw	a5,0(a5)
200116f2:	fcf41523          	sh	a5,-54(s0)
/home/nicoladgg/wsFreedomStudio/SiFive_HiFive_RevB_Projects/src/main.c:127

		while(!(GPIO_REG(GPIO_RISE_IP) & (1 << echo_pin)))
200116f6:	0001                	nop
/home/nicoladgg/wsFreedomStudio/SiFive_HiFive_RevB_Projects/src/main.c:127 (discriminator 1)
200116f8:	100127b7          	lui	a5,0x10012
200116fc:	07f1                	addi	a5,a5,28
200116fe:	439c                	lw	a5,0(a5)
20011700:	fdc42703          	lw	a4,-36(s0)
20011704:	4685                	li	a3,1
20011706:	00e69733          	sll	a4,a3,a4
2001170a:	8ff9                	and	a5,a5,a4
2001170c:	d7f5                	beqz	a5,200116f8 <main+0x3de>
/home/nicoladgg/wsFreedomStudio/SiFive_HiFive_RevB_Projects/src/main.c:130
            ;

		t2 = PWM1_REG(PWM_S);
2001170e:	100257b7          	lui	a5,0x10025
20011712:	07c1                	addi	a5,a5,16
20011714:	439c                	lw	a5,0(a5)
20011716:	fcf41423          	sh	a5,-56(s0)
/home/nicoladgg/wsFreedomStudio/SiFive_HiFive_RevB_Projects/src/main.c:131
		passed = t2 - passed;
2001171a:	fc845703          	lhu	a4,-56(s0)
2001171e:	fca45783          	lhu	a5,-54(s0)
20011722:	40f707b3          	sub	a5,a4,a5
20011726:	fcf41523          	sh	a5,-54(s0)
/home/nicoladgg/wsFreedomStudio/SiFive_HiFive_RevB_Projects/src/main.c:133

		PWM1_REG(PWM_CFG)   = 0;
2001172a:	100257b7          	lui	a5,0x10025
2001172e:	0007a023          	sw	zero,0(a5) # 10025000 <metal_segment_itim_target_end+0x8025000>
/home/nicoladgg/wsFreedomStudio/SiFive_HiFive_RevB_Projects/src/main.c:134
		GPIO_REG(GPIO_RISE_IP) |= 1 << echo_pin;
20011732:	100127b7          	lui	a5,0x10012
20011736:	07f1                	addi	a5,a5,28
20011738:	4398                	lw	a4,0(a5)
2001173a:	fdc42783          	lw	a5,-36(s0)
2001173e:	4685                	li	a3,1
20011740:	00f697b3          	sll	a5,a3,a5
20011744:	86be                	mv	a3,a5
20011746:	100127b7          	lui	a5,0x10012
2001174a:	07f1                	addi	a5,a5,28
2001174c:	8f55                	or	a4,a4,a3
2001174e:	c398                	sw	a4,0(a5)
/home/nicoladgg/wsFreedomStudio/SiFive_HiFive_RevB_Projects/src/main.c:136

		printf("Distance: %x\n", passed);
20011750:	fca45783          	lhu	a5,-54(s0)
20011754:	85be                	mv	a1,a5
20011756:	200107b7          	lui	a5,0x20010
2001175a:	45878513          	addi	a0,a5,1112 # 20010458 <variant_pin_map+0xf0>
2001175e:	2801                	jal	2001176e <iprintf>
/home/nicoladgg/wsFreedomStudio/SiFive_HiFive_RevB_Projects/src/main.c:138

		wait_for_timer();
20011760:	3e81                	jal	200112b0 <wait_for_timer>
/home/nicoladgg/wsFreedomStudio/SiFive_HiFive_RevB_Projects/src/main.c:118
		PWM1_REG(PWM_CFG)   = 0;
20011762:	b7a1                	j	200116aa <main+0x390>
/home/nicoladgg/wsFreedomStudio/SiFive_HiFive_RevB_Projects/src/main.c:143
	}


    return 0;
}
20011764:	853e                	mv	a0,a5
20011766:	50f2                	lw	ra,60(sp)
20011768:	5462                	lw	s0,56(sp)
2001176a:	6121                	addi	sp,sp,64
2001176c:	8082                	ret

2001176e <iprintf>:
printf():
2001176e:	715d                	addi	sp,sp,-80
20011770:	d422                	sw	s0,40(sp)
20011772:	d606                	sw	ra,44(sp)
20011774:	842a                	mv	s0,a0
20011776:	da2e                	sw	a1,52(sp)
20011778:	dc32                	sw	a2,56(sp)
2001177a:	de36                	sw	a3,60(sp)
2001177c:	c0ba                	sw	a4,64(sp)
2001177e:	c2be                	sw	a5,68(sp)
20011780:	c4c2                	sw	a6,72(sp)
20011782:	c6c6                	sw	a7,76(sp)
20011784:	5ffef517          	auipc	a0,0x5ffef
20011788:	32052503          	lw	a0,800(a0) # 80000aa4 <_impure_ptr>
2001178c:	c511                	beqz	a0,20011798 <iprintf+0x2a>
2001178e:	4d1c                	lw	a5,24(a0)
20011790:	e781                	bnez	a5,20011798 <iprintf+0x2a>
20011792:	c62a                	sw	a0,12(sp)
20011794:	2325                	jal	20011cbc <__sinit>
20011796:	4532                	lw	a0,12(sp)
20011798:	450c                	lw	a1,8(a0)
2001179a:	1854                	addi	a3,sp,52
2001179c:	8622                	mv	a2,s0
2001179e:	ce36                	sw	a3,28(sp)
200117a0:	213000ef          	jal	ra,200121b2 <_vfiprintf_r>
200117a4:	50b2                	lw	ra,44(sp)
200117a6:	5422                	lw	s0,40(sp)
200117a8:	6161                	addi	sp,sp,80
200117aa:	8082                	ret

200117ac <_puts_r>:
_puts_r():
200117ac:	1101                	addi	sp,sp,-32
200117ae:	ca26                	sw	s1,20(sp)
200117b0:	c84a                	sw	s2,16(sp)
200117b2:	ce06                	sw	ra,28(sp)
200117b4:	cc22                	sw	s0,24(sp)
200117b6:	c64e                	sw	s3,12(sp)
200117b8:	c452                	sw	s4,8(sp)
200117ba:	84aa                	mv	s1,a0
200117bc:	892e                	mv	s2,a1
200117be:	c501                	beqz	a0,200117c6 <_puts_r+0x1a>
200117c0:	4d1c                	lw	a5,24(a0)
200117c2:	e391                	bnez	a5,200117c6 <_puts_r+0x1a>
200117c4:	29e5                	jal	20011cbc <__sinit>
200117c6:	4c9c                	lw	a5,24(s1)
200117c8:	4480                	lw	s0,8(s1)
200117ca:	e399                	bnez	a5,200117d0 <_puts_r+0x24>
200117cc:	8526                	mv	a0,s1
200117ce:	21fd                	jal	20011cbc <__sinit>
200117d0:	fffff797          	auipc	a5,0xfffff
200117d4:	cd078793          	addi	a5,a5,-816 # 200104a0 <__sf_fake_stdin>
200117d8:	02f41c63          	bne	s0,a5,20011810 <_puts_r+0x64>
200117dc:	40c0                	lw	s0,4(s1)
200117de:	00c45783          	lhu	a5,12(s0)
200117e2:	8ba1                	andi	a5,a5,8
200117e4:	c7b1                	beqz	a5,20011830 <_puts_r+0x84>
200117e6:	481c                	lw	a5,16(s0)
200117e8:	c7a1                	beqz	a5,20011830 <_puts_r+0x84>
200117ea:	59fd                	li	s3,-1
200117ec:	4a29                	li	s4,10
200117ee:	441c                	lw	a5,8(s0)
200117f0:	00094583          	lbu	a1,0(s2)
200117f4:	17fd                	addi	a5,a5,-1
200117f6:	e9b1                	bnez	a1,2001184a <_puts_r+0x9e>
200117f8:	c41c                	sw	a5,8(s0)
200117fa:	0607de63          	bgez	a5,20011876 <_puts_r+0xca>
200117fe:	8622                	mv	a2,s0
20011800:	45a9                	li	a1,10
20011802:	8526                	mv	a0,s1
20011804:	2079                	jal	20011892 <__swbuf_r>
20011806:	57fd                	li	a5,-1
20011808:	02f50863          	beq	a0,a5,20011838 <_puts_r+0x8c>
2001180c:	4529                	li	a0,10
2001180e:	a035                	j	2001183a <_puts_r+0x8e>
20011810:	fffff797          	auipc	a5,0xfffff
20011814:	cb078793          	addi	a5,a5,-848 # 200104c0 <__sf_fake_stdout>
20011818:	00f41463          	bne	s0,a5,20011820 <_puts_r+0x74>
2001181c:	4480                	lw	s0,8(s1)
2001181e:	b7c1                	j	200117de <_puts_r+0x32>
20011820:	fffff797          	auipc	a5,0xfffff
20011824:	c6078793          	addi	a5,a5,-928 # 20010480 <__sf_fake_stderr>
20011828:	faf41be3          	bne	s0,a5,200117de <_puts_r+0x32>
2001182c:	44c0                	lw	s0,12(s1)
2001182e:	bf45                	j	200117de <_puts_r+0x32>
20011830:	85a2                	mv	a1,s0
20011832:	8526                	mv	a0,s1
20011834:	2a39                	jal	20011952 <__swsetup_r>
20011836:	d955                	beqz	a0,200117ea <_puts_r+0x3e>
20011838:	557d                	li	a0,-1
2001183a:	40f2                	lw	ra,28(sp)
2001183c:	4462                	lw	s0,24(sp)
2001183e:	44d2                	lw	s1,20(sp)
20011840:	4942                	lw	s2,16(sp)
20011842:	49b2                	lw	s3,12(sp)
20011844:	4a22                	lw	s4,8(sp)
20011846:	6105                	addi	sp,sp,32
20011848:	8082                	ret
2001184a:	c41c                	sw	a5,8(s0)
2001184c:	0905                	addi	s2,s2,1
2001184e:	0007d763          	bgez	a5,2001185c <_puts_r+0xb0>
20011852:	4c18                	lw	a4,24(s0)
20011854:	00e7cb63          	blt	a5,a4,2001186a <_puts_r+0xbe>
20011858:	01458963          	beq	a1,s4,2001186a <_puts_r+0xbe>
2001185c:	401c                	lw	a5,0(s0)
2001185e:	00178713          	addi	a4,a5,1
20011862:	c018                	sw	a4,0(s0)
20011864:	00b78023          	sb	a1,0(a5)
20011868:	b759                	j	200117ee <_puts_r+0x42>
2001186a:	8622                	mv	a2,s0
2001186c:	8526                	mv	a0,s1
2001186e:	2015                	jal	20011892 <__swbuf_r>
20011870:	f7351fe3          	bne	a0,s3,200117ee <_puts_r+0x42>
20011874:	b7d1                	j	20011838 <_puts_r+0x8c>
20011876:	401c                	lw	a5,0(s0)
20011878:	00178713          	addi	a4,a5,1
2001187c:	c018                	sw	a4,0(s0)
2001187e:	4729                	li	a4,10
20011880:	00e78023          	sb	a4,0(a5)
20011884:	b761                	j	2001180c <_puts_r+0x60>

20011886 <puts>:
puts():
20011886:	85aa                	mv	a1,a0
20011888:	5ffef517          	auipc	a0,0x5ffef
2001188c:	21c52503          	lw	a0,540(a0) # 80000aa4 <_impure_ptr>
20011890:	bf31                	j	200117ac <_puts_r>

20011892 <__swbuf_r>:
__swbuf_r():
20011892:	1101                	addi	sp,sp,-32
20011894:	cc22                	sw	s0,24(sp)
20011896:	ca26                	sw	s1,20(sp)
20011898:	c84a                	sw	s2,16(sp)
2001189a:	ce06                	sw	ra,28(sp)
2001189c:	c64e                	sw	s3,12(sp)
2001189e:	84aa                	mv	s1,a0
200118a0:	892e                	mv	s2,a1
200118a2:	8432                	mv	s0,a2
200118a4:	c501                	beqz	a0,200118ac <__swbuf_r+0x1a>
200118a6:	4d1c                	lw	a5,24(a0)
200118a8:	e391                	bnez	a5,200118ac <__swbuf_r+0x1a>
200118aa:	2909                	jal	20011cbc <__sinit>
200118ac:	fffff797          	auipc	a5,0xfffff
200118b0:	bf478793          	addi	a5,a5,-1036 # 200104a0 <__sf_fake_stdin>
200118b4:	06f41963          	bne	s0,a5,20011926 <__swbuf_r+0x94>
200118b8:	40c0                	lw	s0,4(s1)
200118ba:	4c1c                	lw	a5,24(s0)
200118bc:	c41c                	sw	a5,8(s0)
200118be:	00c45783          	lhu	a5,12(s0)
200118c2:	8ba1                	andi	a5,a5,8
200118c4:	c3c9                	beqz	a5,20011946 <__swbuf_r+0xb4>
200118c6:	481c                	lw	a5,16(s0)
200118c8:	cfbd                	beqz	a5,20011946 <__swbuf_r+0xb4>
200118ca:	481c                	lw	a5,16(s0)
200118cc:	4008                	lw	a0,0(s0)
200118ce:	0ff97993          	zext.b	s3,s2
200118d2:	0ff97913          	zext.b	s2,s2
200118d6:	8d1d                	sub	a0,a0,a5
200118d8:	485c                	lw	a5,20(s0)
200118da:	00f54663          	blt	a0,a5,200118e6 <__swbuf_r+0x54>
200118de:	85a2                	mv	a1,s0
200118e0:	8526                	mv	a0,s1
200118e2:	24c1                	jal	20011ba2 <_fflush_r>
200118e4:	e52d                	bnez	a0,2001194e <__swbuf_r+0xbc>
200118e6:	441c                	lw	a5,8(s0)
200118e8:	0505                	addi	a0,a0,1
200118ea:	17fd                	addi	a5,a5,-1
200118ec:	c41c                	sw	a5,8(s0)
200118ee:	401c                	lw	a5,0(s0)
200118f0:	00178713          	addi	a4,a5,1
200118f4:	c018                	sw	a4,0(s0)
200118f6:	01378023          	sb	s3,0(a5)
200118fa:	485c                	lw	a5,20(s0)
200118fc:	00a78963          	beq	a5,a0,2001190e <__swbuf_r+0x7c>
20011900:	00c45783          	lhu	a5,12(s0)
20011904:	8b85                	andi	a5,a5,1
20011906:	cb81                	beqz	a5,20011916 <__swbuf_r+0x84>
20011908:	47a9                	li	a5,10
2001190a:	00f91663          	bne	s2,a5,20011916 <__swbuf_r+0x84>
2001190e:	85a2                	mv	a1,s0
20011910:	8526                	mv	a0,s1
20011912:	2c41                	jal	20011ba2 <_fflush_r>
20011914:	ed0d                	bnez	a0,2001194e <__swbuf_r+0xbc>
20011916:	40f2                	lw	ra,28(sp)
20011918:	4462                	lw	s0,24(sp)
2001191a:	44d2                	lw	s1,20(sp)
2001191c:	49b2                	lw	s3,12(sp)
2001191e:	854a                	mv	a0,s2
20011920:	4942                	lw	s2,16(sp)
20011922:	6105                	addi	sp,sp,32
20011924:	8082                	ret
20011926:	fffff797          	auipc	a5,0xfffff
2001192a:	b9a78793          	addi	a5,a5,-1126 # 200104c0 <__sf_fake_stdout>
2001192e:	00f41463          	bne	s0,a5,20011936 <__swbuf_r+0xa4>
20011932:	4480                	lw	s0,8(s1)
20011934:	b759                	j	200118ba <__swbuf_r+0x28>
20011936:	fffff797          	auipc	a5,0xfffff
2001193a:	b4a78793          	addi	a5,a5,-1206 # 20010480 <__sf_fake_stderr>
2001193e:	f6f41ee3          	bne	s0,a5,200118ba <__swbuf_r+0x28>
20011942:	44c0                	lw	s0,12(s1)
20011944:	bf9d                	j	200118ba <__swbuf_r+0x28>
20011946:	85a2                	mv	a1,s0
20011948:	8526                	mv	a0,s1
2001194a:	2021                	jal	20011952 <__swsetup_r>
2001194c:	dd3d                	beqz	a0,200118ca <__swbuf_r+0x38>
2001194e:	597d                	li	s2,-1
20011950:	b7d9                	j	20011916 <__swbuf_r+0x84>

20011952 <__swsetup_r>:
__swsetup_r():
20011952:	1141                	addi	sp,sp,-16
20011954:	c422                	sw	s0,8(sp)
20011956:	c226                	sw	s1,4(sp)
20011958:	c04a                	sw	s2,0(sp)
2001195a:	c606                	sw	ra,12(sp)
2001195c:	5ffef497          	auipc	s1,0x5ffef
20011960:	1484a483          	lw	s1,328(s1) # 80000aa4 <_impure_ptr>
20011964:	892a                	mv	s2,a0
20011966:	842e                	mv	s0,a1
20011968:	c489                	beqz	s1,20011972 <__swsetup_r+0x20>
2001196a:	4c9c                	lw	a5,24(s1)
2001196c:	e399                	bnez	a5,20011972 <__swsetup_r+0x20>
2001196e:	8526                	mv	a0,s1
20011970:	26b1                	jal	20011cbc <__sinit>
20011972:	fffff797          	auipc	a5,0xfffff
20011976:	b2e78793          	addi	a5,a5,-1234 # 200104a0 <__sf_fake_stdin>
2001197a:	02f41763          	bne	s0,a5,200119a8 <__swsetup_r+0x56>
2001197e:	40c0                	lw	s0,4(s1)
20011980:	00c41783          	lh	a5,12(s0)
20011984:	01079713          	slli	a4,a5,0x10
20011988:	0087f693          	andi	a3,a5,8
2001198c:	8341                	srli	a4,a4,0x10
2001198e:	eaad                	bnez	a3,20011a00 <__swsetup_r+0xae>
20011990:	01077693          	andi	a3,a4,16
20011994:	ea95                	bnez	a3,200119c8 <__swsetup_r+0x76>
20011996:	4725                	li	a4,9
20011998:	00e92023          	sw	a4,0(s2)
2001199c:	0407e793          	ori	a5,a5,64
200119a0:	00f41623          	sh	a5,12(s0)
200119a4:	557d                	li	a0,-1
200119a6:	a871                	j	20011a42 <__swsetup_r+0xf0>
200119a8:	fffff797          	auipc	a5,0xfffff
200119ac:	b1878793          	addi	a5,a5,-1256 # 200104c0 <__sf_fake_stdout>
200119b0:	00f41463          	bne	s0,a5,200119b8 <__swsetup_r+0x66>
200119b4:	4480                	lw	s0,8(s1)
200119b6:	b7e9                	j	20011980 <__swsetup_r+0x2e>
200119b8:	fffff797          	auipc	a5,0xfffff
200119bc:	ac878793          	addi	a5,a5,-1336 # 20010480 <__sf_fake_stderr>
200119c0:	fcf410e3          	bne	s0,a5,20011980 <__swsetup_r+0x2e>
200119c4:	44c0                	lw	s0,12(s1)
200119c6:	bf6d                	j	20011980 <__swsetup_r+0x2e>
200119c8:	8b11                	andi	a4,a4,4
200119ca:	c70d                	beqz	a4,200119f4 <__swsetup_r+0xa2>
200119cc:	584c                	lw	a1,52(s0)
200119ce:	c989                	beqz	a1,200119e0 <__swsetup_r+0x8e>
200119d0:	04440793          	addi	a5,s0,68
200119d4:	00f58463          	beq	a1,a5,200119dc <__swsetup_r+0x8a>
200119d8:	854a                	mv	a0,s2
200119da:	2bcd                	jal	20011fcc <_free_r>
200119dc:	02042a23          	sw	zero,52(s0)
200119e0:	00c45783          	lhu	a5,12(s0)
200119e4:	00042223          	sw	zero,4(s0)
200119e8:	fdb7f793          	andi	a5,a5,-37
200119ec:	00f41623          	sh	a5,12(s0)
200119f0:	481c                	lw	a5,16(s0)
200119f2:	c01c                	sw	a5,0(s0)
200119f4:	00c45783          	lhu	a5,12(s0)
200119f8:	0087e793          	ori	a5,a5,8
200119fc:	00f41623          	sh	a5,12(s0)
20011a00:	481c                	lw	a5,16(s0)
20011a02:	ef81                	bnez	a5,20011a1a <__swsetup_r+0xc8>
20011a04:	00c45783          	lhu	a5,12(s0)
20011a08:	20000713          	li	a4,512
20011a0c:	2807f793          	andi	a5,a5,640
20011a10:	00e78563          	beq	a5,a4,20011a1a <__swsetup_r+0xc8>
20011a14:	85a2                	mv	a1,s0
20011a16:	854a                	mv	a0,s2
20011a18:	2985                	jal	20011e88 <__smakebuf_r>
20011a1a:	00c41783          	lh	a5,12(s0)
20011a1e:	01079713          	slli	a4,a5,0x10
20011a22:	0017f693          	andi	a3,a5,1
20011a26:	8341                	srli	a4,a4,0x10
20011a28:	c29d                	beqz	a3,20011a4e <__swsetup_r+0xfc>
20011a2a:	4854                	lw	a3,20(s0)
20011a2c:	00042423          	sw	zero,8(s0)
20011a30:	40d006b3          	neg	a3,a3
20011a34:	cc14                	sw	a3,24(s0)
20011a36:	4814                	lw	a3,16(s0)
20011a38:	4501                	li	a0,0
20011a3a:	e681                	bnez	a3,20011a42 <__swsetup_r+0xf0>
20011a3c:	08077713          	andi	a4,a4,128
20011a40:	ff31                	bnez	a4,2001199c <__swsetup_r+0x4a>
20011a42:	40b2                	lw	ra,12(sp)
20011a44:	4422                	lw	s0,8(sp)
20011a46:	4492                	lw	s1,4(sp)
20011a48:	4902                	lw	s2,0(sp)
20011a4a:	0141                	addi	sp,sp,16
20011a4c:	8082                	ret
20011a4e:	00277693          	andi	a3,a4,2
20011a52:	4601                	li	a2,0
20011a54:	e291                	bnez	a3,20011a58 <__swsetup_r+0x106>
20011a56:	4850                	lw	a2,20(s0)
20011a58:	c410                	sw	a2,8(s0)
20011a5a:	bff1                	j	20011a36 <__swsetup_r+0xe4>

20011a5c <__sflush_r>:
__sflush_r():
20011a5c:	00c5d783          	lhu	a5,12(a1)
20011a60:	1101                	addi	sp,sp,-32
20011a62:	cc22                	sw	s0,24(sp)
20011a64:	ca26                	sw	s1,20(sp)
20011a66:	ce06                	sw	ra,28(sp)
20011a68:	c84a                	sw	s2,16(sp)
20011a6a:	c64e                	sw	s3,12(sp)
20011a6c:	0087f713          	andi	a4,a5,8
20011a70:	84aa                	mv	s1,a0
20011a72:	842e                	mv	s0,a1
20011a74:	e375                	bnez	a4,20011b58 <__sflush_r+0xfc>
20011a76:	41d8                	lw	a4,4(a1)
20011a78:	00e04763          	bgtz	a4,20011a86 <__sflush_r+0x2a>
20011a7c:	41b8                	lw	a4,64(a1)
20011a7e:	00e04463          	bgtz	a4,20011a86 <__sflush_r+0x2a>
20011a82:	4501                	li	a0,0
20011a84:	a875                	j	20011b40 <__sflush_r+0xe4>
20011a86:	5458                	lw	a4,44(s0)
20011a88:	df6d                	beqz	a4,20011a82 <__sflush_r+0x26>
20011a8a:	6685                	lui	a3,0x1
20011a8c:	0004a903          	lw	s2,0(s1)
20011a90:	8ff5                	and	a5,a5,a3
20011a92:	0004a023          	sw	zero,0(s1)
20011a96:	cfa5                	beqz	a5,20011b0e <__sflush_r+0xb2>
20011a98:	4868                	lw	a0,84(s0)
20011a9a:	00c45783          	lhu	a5,12(s0)
20011a9e:	8b91                	andi	a5,a5,4
20011aa0:	c799                	beqz	a5,20011aae <__sflush_r+0x52>
20011aa2:	405c                	lw	a5,4(s0)
20011aa4:	8d1d                	sub	a0,a0,a5
20011aa6:	585c                	lw	a5,52(s0)
20011aa8:	c399                	beqz	a5,20011aae <__sflush_r+0x52>
20011aaa:	403c                	lw	a5,64(s0)
20011aac:	8d1d                	sub	a0,a0,a5
20011aae:	545c                	lw	a5,44(s0)
20011ab0:	500c                	lw	a1,32(s0)
20011ab2:	862a                	mv	a2,a0
20011ab4:	4681                	li	a3,0
20011ab6:	8526                	mv	a0,s1
20011ab8:	9782                	jalr	a5
20011aba:	57fd                	li	a5,-1
20011abc:	00c45703          	lhu	a4,12(s0)
20011ac0:	00f51d63          	bne	a0,a5,20011ada <__sflush_r+0x7e>
20011ac4:	4094                	lw	a3,0(s1)
20011ac6:	47f5                	li	a5,29
20011ac8:	08d7e363          	bltu	a5,a3,20011b4e <__sflush_r+0xf2>
20011acc:	204007b7          	lui	a5,0x20400
20011ad0:	0785                	addi	a5,a5,1
20011ad2:	00d7d7b3          	srl	a5,a5,a3
20011ad6:	8b85                	andi	a5,a5,1
20011ad8:	cbbd                	beqz	a5,20011b4e <__sflush_r+0xf2>
20011ada:	481c                	lw	a5,16(s0)
20011adc:	00042223          	sw	zero,4(s0)
20011ae0:	c01c                	sw	a5,0(s0)
20011ae2:	6785                	lui	a5,0x1
20011ae4:	8f7d                	and	a4,a4,a5
20011ae6:	c719                	beqz	a4,20011af4 <__sflush_r+0x98>
20011ae8:	57fd                	li	a5,-1
20011aea:	00f51463          	bne	a0,a5,20011af2 <__sflush_r+0x96>
20011aee:	409c                	lw	a5,0(s1)
20011af0:	e391                	bnez	a5,20011af4 <__sflush_r+0x98>
20011af2:	c868                	sw	a0,84(s0)
20011af4:	584c                	lw	a1,52(s0)
20011af6:	0124a023          	sw	s2,0(s1)
20011afa:	d5c1                	beqz	a1,20011a82 <__sflush_r+0x26>
20011afc:	04440793          	addi	a5,s0,68
20011b00:	00f58463          	beq	a1,a5,20011b08 <__sflush_r+0xac>
20011b04:	8526                	mv	a0,s1
20011b06:	21d9                	jal	20011fcc <_free_r>
20011b08:	02042a23          	sw	zero,52(s0)
20011b0c:	bf9d                	j	20011a82 <__sflush_r+0x26>
20011b0e:	500c                	lw	a1,32(s0)
20011b10:	4685                	li	a3,1
20011b12:	4601                	li	a2,0
20011b14:	8526                	mv	a0,s1
20011b16:	9702                	jalr	a4
20011b18:	57fd                	li	a5,-1
20011b1a:	f8f510e3          	bne	a0,a5,20011a9a <__sflush_r+0x3e>
20011b1e:	409c                	lw	a5,0(s1)
20011b20:	dfad                	beqz	a5,20011a9a <__sflush_r+0x3e>
20011b22:	4775                	li	a4,29
20011b24:	00e78563          	beq	a5,a4,20011b2e <__sflush_r+0xd2>
20011b28:	4759                	li	a4,22
20011b2a:	00e79563          	bne	a5,a4,20011b34 <__sflush_r+0xd8>
20011b2e:	0124a023          	sw	s2,0(s1)
20011b32:	bf81                	j	20011a82 <__sflush_r+0x26>
20011b34:	00c45783          	lhu	a5,12(s0)
20011b38:	0407e793          	ori	a5,a5,64
20011b3c:	00f41623          	sh	a5,12(s0)
20011b40:	40f2                	lw	ra,28(sp)
20011b42:	4462                	lw	s0,24(sp)
20011b44:	44d2                	lw	s1,20(sp)
20011b46:	4942                	lw	s2,16(sp)
20011b48:	49b2                	lw	s3,12(sp)
20011b4a:	6105                	addi	sp,sp,32
20011b4c:	8082                	ret
20011b4e:	04076713          	ori	a4,a4,64
20011b52:	00e41623          	sh	a4,12(s0)
20011b56:	b7ed                	j	20011b40 <__sflush_r+0xe4>
20011b58:	0105a983          	lw	s3,16(a1)
20011b5c:	f20983e3          	beqz	s3,20011a82 <__sflush_r+0x26>
20011b60:	0005a903          	lw	s2,0(a1)
20011b64:	8b8d                	andi	a5,a5,3
20011b66:	0135a023          	sw	s3,0(a1)
20011b6a:	41390933          	sub	s2,s2,s3
20011b6e:	4701                	li	a4,0
20011b70:	e391                	bnez	a5,20011b74 <__sflush_r+0x118>
20011b72:	49d8                	lw	a4,20(a1)
20011b74:	c418                	sw	a4,8(s0)
20011b76:	f12056e3          	blez	s2,20011a82 <__sflush_r+0x26>
20011b7a:	541c                	lw	a5,40(s0)
20011b7c:	500c                	lw	a1,32(s0)
20011b7e:	86ca                	mv	a3,s2
20011b80:	864e                	mv	a2,s3
20011b82:	8526                	mv	a0,s1
20011b84:	9782                	jalr	a5
20011b86:	00a04a63          	bgtz	a0,20011b9a <__sflush_r+0x13e>
20011b8a:	00c45783          	lhu	a5,12(s0)
20011b8e:	557d                	li	a0,-1
20011b90:	0407e793          	ori	a5,a5,64
20011b94:	00f41623          	sh	a5,12(s0)
20011b98:	b765                	j	20011b40 <__sflush_r+0xe4>
20011b9a:	99aa                	add	s3,s3,a0
20011b9c:	40a90933          	sub	s2,s2,a0
20011ba0:	bfd9                	j	20011b76 <__sflush_r+0x11a>

20011ba2 <_fflush_r>:
_fflush_r():
20011ba2:	499c                	lw	a5,16(a1)
20011ba4:	cfb9                	beqz	a5,20011c02 <_fflush_r+0x60>
20011ba6:	1101                	addi	sp,sp,-32
20011ba8:	cc22                	sw	s0,24(sp)
20011baa:	ce06                	sw	ra,28(sp)
20011bac:	842a                	mv	s0,a0
20011bae:	c511                	beqz	a0,20011bba <_fflush_r+0x18>
20011bb0:	4d1c                	lw	a5,24(a0)
20011bb2:	e781                	bnez	a5,20011bba <_fflush_r+0x18>
20011bb4:	c62e                	sw	a1,12(sp)
20011bb6:	2219                	jal	20011cbc <__sinit>
20011bb8:	45b2                	lw	a1,12(sp)
20011bba:	fffff797          	auipc	a5,0xfffff
20011bbe:	8e678793          	addi	a5,a5,-1818 # 200104a0 <__sf_fake_stdin>
20011bc2:	00f59b63          	bne	a1,a5,20011bd8 <_fflush_r+0x36>
20011bc6:	404c                	lw	a1,4(s0)
20011bc8:	00c59783          	lh	a5,12(a1)
20011bcc:	c795                	beqz	a5,20011bf8 <_fflush_r+0x56>
20011bce:	8522                	mv	a0,s0
20011bd0:	4462                	lw	s0,24(sp)
20011bd2:	40f2                	lw	ra,28(sp)
20011bd4:	6105                	addi	sp,sp,32
20011bd6:	b559                	j	20011a5c <__sflush_r>
20011bd8:	fffff797          	auipc	a5,0xfffff
20011bdc:	8e878793          	addi	a5,a5,-1816 # 200104c0 <__sf_fake_stdout>
20011be0:	00f59463          	bne	a1,a5,20011be8 <_fflush_r+0x46>
20011be4:	440c                	lw	a1,8(s0)
20011be6:	b7cd                	j	20011bc8 <_fflush_r+0x26>
20011be8:	fffff797          	auipc	a5,0xfffff
20011bec:	89878793          	addi	a5,a5,-1896 # 20010480 <__sf_fake_stderr>
20011bf0:	fcf59ce3          	bne	a1,a5,20011bc8 <_fflush_r+0x26>
20011bf4:	444c                	lw	a1,12(s0)
20011bf6:	bfc9                	j	20011bc8 <_fflush_r+0x26>
20011bf8:	40f2                	lw	ra,28(sp)
20011bfa:	4462                	lw	s0,24(sp)
20011bfc:	4501                	li	a0,0
20011bfe:	6105                	addi	sp,sp,32
20011c00:	8082                	ret
20011c02:	4501                	li	a0,0
20011c04:	8082                	ret

20011c06 <std>:
std():
20011c06:	1141                	addi	sp,sp,-16
20011c08:	c422                	sw	s0,8(sp)
20011c0a:	c606                	sw	ra,12(sp)
20011c0c:	842a                	mv	s0,a0
20011c0e:	00b51623          	sh	a1,12(a0)
20011c12:	00c51723          	sh	a2,14(a0)
20011c16:	00052023          	sw	zero,0(a0)
20011c1a:	00052223          	sw	zero,4(a0)
20011c1e:	00052423          	sw	zero,8(a0)
20011c22:	06052223          	sw	zero,100(a0)
20011c26:	00052823          	sw	zero,16(a0)
20011c2a:	00052a23          	sw	zero,20(a0)
20011c2e:	00052c23          	sw	zero,24(a0)
20011c32:	4621                	li	a2,8
20011c34:	4581                	li	a1,0
20011c36:	05c50513          	addi	a0,a0,92
20011c3a:	24ed                	jal	20011f24 <memset>
20011c3c:	00001797          	auipc	a5,0x1
20011c40:	83a78793          	addi	a5,a5,-1990 # 20012476 <__sread>
20011c44:	d05c                	sw	a5,36(s0)
20011c46:	00001797          	auipc	a5,0x1
20011c4a:	86078793          	addi	a5,a5,-1952 # 200124a6 <__swrite>
20011c4e:	d41c                	sw	a5,40(s0)
20011c50:	00001797          	auipc	a5,0x1
20011c54:	8a478793          	addi	a5,a5,-1884 # 200124f4 <__sseek>
20011c58:	d45c                	sw	a5,44(s0)
20011c5a:	00001797          	auipc	a5,0x1
20011c5e:	8d078793          	addi	a5,a5,-1840 # 2001252a <__sclose>
20011c62:	40b2                	lw	ra,12(sp)
20011c64:	d000                	sw	s0,32(s0)
20011c66:	d81c                	sw	a5,48(s0)
20011c68:	4422                	lw	s0,8(sp)
20011c6a:	0141                	addi	sp,sp,16
20011c6c:	8082                	ret

20011c6e <_cleanup_r>:
_cleanup_r():
20011c6e:	00000597          	auipc	a1,0x0
20011c72:	f3458593          	addi	a1,a1,-204 # 20011ba2 <_fflush_r>
20011c76:	a2b1                	j	20011dc2 <_fwalk_reent>

20011c78 <__sfmoreglue>:
__sfmoreglue():
20011c78:	1141                	addi	sp,sp,-16
20011c7a:	c226                	sw	s1,4(sp)
20011c7c:	06800613          	li	a2,104
20011c80:	fff58493          	addi	s1,a1,-1
20011c84:	02c484b3          	mul	s1,s1,a2
20011c88:	c04a                	sw	s2,0(sp)
20011c8a:	892e                	mv	s2,a1
20011c8c:	c422                	sw	s0,8(sp)
20011c8e:	c606                	sw	ra,12(sp)
20011c90:	07448593          	addi	a1,s1,116
20011c94:	2ee9                	jal	2001206e <_malloc_r>
20011c96:	842a                	mv	s0,a0
20011c98:	c919                	beqz	a0,20011cae <__sfmoreglue+0x36>
20011c9a:	00052023          	sw	zero,0(a0)
20011c9e:	01252223          	sw	s2,4(a0)
20011ca2:	0531                	addi	a0,a0,12
20011ca4:	c408                	sw	a0,8(s0)
20011ca6:	06848613          	addi	a2,s1,104
20011caa:	4581                	li	a1,0
20011cac:	2ca5                	jal	20011f24 <memset>
20011cae:	40b2                	lw	ra,12(sp)
20011cb0:	8522                	mv	a0,s0
20011cb2:	4422                	lw	s0,8(sp)
20011cb4:	4492                	lw	s1,4(sp)
20011cb6:	4902                	lw	s2,0(sp)
20011cb8:	0141                	addi	sp,sp,16
20011cba:	8082                	ret

20011cbc <__sinit>:
__sinit():
20011cbc:	4d1c                	lw	a5,24(a0)
20011cbe:	e3bd                	bnez	a5,20011d24 <__sinit+0x68>
20011cc0:	1141                	addi	sp,sp,-16
20011cc2:	c422                	sw	s0,8(sp)
20011cc4:	c606                	sw	ra,12(sp)
20011cc6:	00000797          	auipc	a5,0x0
20011cca:	fa878793          	addi	a5,a5,-88 # 20011c6e <_cleanup_r>
20011cce:	d51c                	sw	a5,40(a0)
20011cd0:	04052423          	sw	zero,72(a0)
20011cd4:	04052623          	sw	zero,76(a0)
20011cd8:	04052823          	sw	zero,80(a0)
20011cdc:	fffff797          	auipc	a5,0xfffff
20011ce0:	55c7a783          	lw	a5,1372(a5) # 20011238 <_global_impure_ptr>
20011ce4:	842a                	mv	s0,a0
20011ce6:	00f51463          	bne	a0,a5,20011cee <__sinit+0x32>
20011cea:	4785                	li	a5,1
20011cec:	cd1c                	sw	a5,24(a0)
20011cee:	8522                	mv	a0,s0
20011cf0:	281d                	jal	20011d26 <__sfp>
20011cf2:	c048                	sw	a0,4(s0)
20011cf4:	8522                	mv	a0,s0
20011cf6:	2805                	jal	20011d26 <__sfp>
20011cf8:	c408                	sw	a0,8(s0)
20011cfa:	8522                	mv	a0,s0
20011cfc:	202d                	jal	20011d26 <__sfp>
20011cfe:	c448                	sw	a0,12(s0)
20011d00:	4048                	lw	a0,4(s0)
20011d02:	4601                	li	a2,0
20011d04:	4591                	li	a1,4
20011d06:	3701                	jal	20011c06 <std>
20011d08:	4408                	lw	a0,8(s0)
20011d0a:	4605                	li	a2,1
20011d0c:	45a5                	li	a1,9
20011d0e:	3de5                	jal	20011c06 <std>
20011d10:	4448                	lw	a0,12(s0)
20011d12:	4609                	li	a2,2
20011d14:	45c9                	li	a1,18
20011d16:	3dc5                	jal	20011c06 <std>
20011d18:	4785                	li	a5,1
20011d1a:	40b2                	lw	ra,12(sp)
20011d1c:	cc1c                	sw	a5,24(s0)
20011d1e:	4422                	lw	s0,8(sp)
20011d20:	0141                	addi	sp,sp,16
20011d22:	8082                	ret
20011d24:	8082                	ret

20011d26 <__sfp>:
__sfp():
20011d26:	1141                	addi	sp,sp,-16
20011d28:	c226                	sw	s1,4(sp)
20011d2a:	fffff497          	auipc	s1,0xfffff
20011d2e:	50e4a483          	lw	s1,1294(s1) # 20011238 <_global_impure_ptr>
20011d32:	4c9c                	lw	a5,24(s1)
20011d34:	c04a                	sw	s2,0(sp)
20011d36:	c606                	sw	ra,12(sp)
20011d38:	c422                	sw	s0,8(sp)
20011d3a:	892a                	mv	s2,a0
20011d3c:	e399                	bnez	a5,20011d42 <__sfp+0x1c>
20011d3e:	8526                	mv	a0,s1
20011d40:	3fb5                	jal	20011cbc <__sinit>
20011d42:	04848493          	addi	s1,s1,72
20011d46:	4480                	lw	s0,8(s1)
20011d48:	40dc                	lw	a5,4(s1)
20011d4a:	17fd                	addi	a5,a5,-1
20011d4c:	0007d663          	bgez	a5,20011d58 <__sfp+0x32>
20011d50:	409c                	lw	a5,0(s1)
20011d52:	cfb1                	beqz	a5,20011dae <__sfp+0x88>
20011d54:	4084                	lw	s1,0(s1)
20011d56:	bfc5                	j	20011d46 <__sfp+0x20>
20011d58:	00c41703          	lh	a4,12(s0)
20011d5c:	e731                	bnez	a4,20011da8 <__sfp+0x82>
20011d5e:	77c1                	lui	a5,0xffff0
20011d60:	0785                	addi	a5,a5,1
20011d62:	06042223          	sw	zero,100(s0)
20011d66:	00042023          	sw	zero,0(s0)
20011d6a:	00042223          	sw	zero,4(s0)
20011d6e:	00042423          	sw	zero,8(s0)
20011d72:	c45c                	sw	a5,12(s0)
20011d74:	00042823          	sw	zero,16(s0)
20011d78:	00042a23          	sw	zero,20(s0)
20011d7c:	00042c23          	sw	zero,24(s0)
20011d80:	4621                	li	a2,8
20011d82:	4581                	li	a1,0
20011d84:	05c40513          	addi	a0,s0,92
20011d88:	2a71                	jal	20011f24 <memset>
20011d8a:	02042a23          	sw	zero,52(s0)
20011d8e:	02042c23          	sw	zero,56(s0)
20011d92:	04042423          	sw	zero,72(s0)
20011d96:	04042623          	sw	zero,76(s0)
20011d9a:	40b2                	lw	ra,12(sp)
20011d9c:	8522                	mv	a0,s0
20011d9e:	4422                	lw	s0,8(sp)
20011da0:	4492                	lw	s1,4(sp)
20011da2:	4902                	lw	s2,0(sp)
20011da4:	0141                	addi	sp,sp,16
20011da6:	8082                	ret
20011da8:	06840413          	addi	s0,s0,104
20011dac:	bf79                	j	20011d4a <__sfp+0x24>
20011dae:	4591                	li	a1,4
20011db0:	854a                	mv	a0,s2
20011db2:	35d9                	jal	20011c78 <__sfmoreglue>
20011db4:	c088                	sw	a0,0(s1)
20011db6:	842a                	mv	s0,a0
20011db8:	fd51                	bnez	a0,20011d54 <__sfp+0x2e>
20011dba:	47b1                	li	a5,12
20011dbc:	00f92023          	sw	a5,0(s2)
20011dc0:	bfe9                	j	20011d9a <__sfp+0x74>

20011dc2 <_fwalk_reent>:
_fwalk_reent():
20011dc2:	7179                	addi	sp,sp,-48
20011dc4:	d422                	sw	s0,40(sp)
20011dc6:	d04a                	sw	s2,32(sp)
20011dc8:	ce4e                	sw	s3,28(sp)
20011dca:	cc52                	sw	s4,24(sp)
20011dcc:	c85a                	sw	s6,16(sp)
20011dce:	c65e                	sw	s7,12(sp)
20011dd0:	d606                	sw	ra,44(sp)
20011dd2:	d226                	sw	s1,36(sp)
20011dd4:	ca56                	sw	s5,20(sp)
20011dd6:	892a                	mv	s2,a0
20011dd8:	8a2e                	mv	s4,a1
20011dda:	04850413          	addi	s0,a0,72
20011dde:	4981                	li	s3,0
20011de0:	4b05                	li	s6,1
20011de2:	5bfd                	li	s7,-1
20011de4:	4404                	lw	s1,8(s0)
20011de6:	00442a83          	lw	s5,4(s0)
20011dea:	1afd                	addi	s5,s5,-1
20011dec:	020ad063          	bgez	s5,20011e0c <_fwalk_reent+0x4a>
20011df0:	4000                	lw	s0,0(s0)
20011df2:	f86d                	bnez	s0,20011de4 <_fwalk_reent+0x22>
20011df4:	50b2                	lw	ra,44(sp)
20011df6:	5422                	lw	s0,40(sp)
20011df8:	5492                	lw	s1,36(sp)
20011dfa:	5902                	lw	s2,32(sp)
20011dfc:	4a62                	lw	s4,24(sp)
20011dfe:	4ad2                	lw	s5,20(sp)
20011e00:	4b42                	lw	s6,16(sp)
20011e02:	4bb2                	lw	s7,12(sp)
20011e04:	854e                	mv	a0,s3
20011e06:	49f2                	lw	s3,28(sp)
20011e08:	6145                	addi	sp,sp,48
20011e0a:	8082                	ret
20011e0c:	00c4d783          	lhu	a5,12(s1)
20011e10:	00fb7b63          	bgeu	s6,a5,20011e26 <_fwalk_reent+0x64>
20011e14:	00e49783          	lh	a5,14(s1)
20011e18:	01778763          	beq	a5,s7,20011e26 <_fwalk_reent+0x64>
20011e1c:	85a6                	mv	a1,s1
20011e1e:	854a                	mv	a0,s2
20011e20:	9a02                	jalr	s4
20011e22:	00a9e9b3          	or	s3,s3,a0
20011e26:	06848493          	addi	s1,s1,104
20011e2a:	b7c1                	j	20011dea <_fwalk_reent+0x28>

20011e2c <__swhatbuf_r>:
__swhatbuf_r():
20011e2c:	7159                	addi	sp,sp,-112
20011e2e:	d0ca                	sw	s2,96(sp)
20011e30:	892e                	mv	s2,a1
20011e32:	00e59583          	lh	a1,14(a1)
20011e36:	d4a2                	sw	s0,104(sp)
20011e38:	d2a6                	sw	s1,100(sp)
20011e3a:	d686                	sw	ra,108(sp)
20011e3c:	8432                	mv	s0,a2
20011e3e:	84b6                	mv	s1,a3
20011e40:	0005dc63          	bgez	a1,20011e58 <__swhatbuf_r+0x2c>
20011e44:	00c91783          	lh	a5,12(s2)
20011e48:	0004a023          	sw	zero,0(s1)
20011e4c:	0807f793          	andi	a5,a5,128
20011e50:	e395                	bnez	a5,20011e74 <__swhatbuf_r+0x48>
20011e52:	40000793          	li	a5,1024
20011e56:	a00d                	j	20011e78 <__swhatbuf_r+0x4c>
20011e58:	0030                	addi	a2,sp,8
20011e5a:	73a000ef          	jal	ra,20012594 <_fstat_r>
20011e5e:	fe0543e3          	bltz	a0,20011e44 <__swhatbuf_r+0x18>
20011e62:	4732                	lw	a4,12(sp)
20011e64:	67bd                	lui	a5,0xf
20011e66:	8ff9                	and	a5,a5,a4
20011e68:	7779                	lui	a4,0xffffe
20011e6a:	97ba                	add	a5,a5,a4
20011e6c:	0017b793          	seqz	a5,a5
20011e70:	c09c                	sw	a5,0(s1)
20011e72:	b7c5                	j	20011e52 <__swhatbuf_r+0x26>
20011e74:	04000793          	li	a5,64
20011e78:	50b6                	lw	ra,108(sp)
20011e7a:	c01c                	sw	a5,0(s0)
20011e7c:	5426                	lw	s0,104(sp)
20011e7e:	5496                	lw	s1,100(sp)
20011e80:	5906                	lw	s2,96(sp)
20011e82:	4501                	li	a0,0
20011e84:	6165                	addi	sp,sp,112
20011e86:	8082                	ret

20011e88 <__smakebuf_r>:
__smakebuf_r():
20011e88:	00c5d783          	lhu	a5,12(a1)
20011e8c:	1101                	addi	sp,sp,-32
20011e8e:	cc22                	sw	s0,24(sp)
20011e90:	ce06                	sw	ra,28(sp)
20011e92:	ca26                	sw	s1,20(sp)
20011e94:	c84a                	sw	s2,16(sp)
20011e96:	8b89                	andi	a5,a5,2
20011e98:	842e                	mv	s0,a1
20011e9a:	cf89                	beqz	a5,20011eb4 <__smakebuf_r+0x2c>
20011e9c:	04740793          	addi	a5,s0,71
20011ea0:	c01c                	sw	a5,0(s0)
20011ea2:	c81c                	sw	a5,16(s0)
20011ea4:	4785                	li	a5,1
20011ea6:	c85c                	sw	a5,20(s0)
20011ea8:	40f2                	lw	ra,28(sp)
20011eaa:	4462                	lw	s0,24(sp)
20011eac:	44d2                	lw	s1,20(sp)
20011eae:	4942                	lw	s2,16(sp)
20011eb0:	6105                	addi	sp,sp,32
20011eb2:	8082                	ret
20011eb4:	0074                	addi	a3,sp,12
20011eb6:	0030                	addi	a2,sp,8
20011eb8:	892a                	mv	s2,a0
20011eba:	3f8d                	jal	20011e2c <__swhatbuf_r>
20011ebc:	45a2                	lw	a1,8(sp)
20011ebe:	84aa                	mv	s1,a0
20011ec0:	854a                	mv	a0,s2
20011ec2:	2275                	jal	2001206e <_malloc_r>
20011ec4:	ed01                	bnez	a0,20011edc <__smakebuf_r+0x54>
20011ec6:	00c41783          	lh	a5,12(s0)
20011eca:	2007f713          	andi	a4,a5,512
20011ece:	ff69                	bnez	a4,20011ea8 <__smakebuf_r+0x20>
20011ed0:	9bf1                	andi	a5,a5,-4
20011ed2:	0027e793          	ori	a5,a5,2
20011ed6:	00f41623          	sh	a5,12(s0)
20011eda:	b7c9                	j	20011e9c <__smakebuf_r+0x14>
20011edc:	00000797          	auipc	a5,0x0
20011ee0:	d9278793          	addi	a5,a5,-622 # 20011c6e <_cleanup_r>
20011ee4:	02f92423          	sw	a5,40(s2)
20011ee8:	00c45783          	lhu	a5,12(s0)
20011eec:	c008                	sw	a0,0(s0)
20011eee:	c808                	sw	a0,16(s0)
20011ef0:	0807e793          	ori	a5,a5,128
20011ef4:	00f41623          	sh	a5,12(s0)
20011ef8:	47a2                	lw	a5,8(sp)
20011efa:	c85c                	sw	a5,20(s0)
20011efc:	47b2                	lw	a5,12(sp)
20011efe:	cf89                	beqz	a5,20011f18 <__smakebuf_r+0x90>
20011f00:	00e41583          	lh	a1,14(s0)
20011f04:	854a                	mv	a0,s2
20011f06:	25c1                	jal	200125c6 <_isatty_r>
20011f08:	c901                	beqz	a0,20011f18 <__smakebuf_r+0x90>
20011f0a:	00c45783          	lhu	a5,12(s0)
20011f0e:	9bf1                	andi	a5,a5,-4
20011f10:	0017e793          	ori	a5,a5,1
20011f14:	00f41623          	sh	a5,12(s0)
20011f18:	00c45503          	lhu	a0,12(s0)
20011f1c:	8cc9                	or	s1,s1,a0
20011f1e:	00941623          	sh	s1,12(s0)
20011f22:	b759                	j	20011ea8 <__smakebuf_r+0x20>

20011f24 <memset>:
memset():
20011f24:	433d                	li	t1,15
20011f26:	872a                	mv	a4,a0
20011f28:	02c37363          	bgeu	t1,a2,20011f4e <memset+0x2a>
20011f2c:	00f77793          	andi	a5,a4,15
20011f30:	efbd                	bnez	a5,20011fae <memset+0x8a>
20011f32:	e5ad                	bnez	a1,20011f9c <memset+0x78>
20011f34:	ff067693          	andi	a3,a2,-16
20011f38:	8a3d                	andi	a2,a2,15
20011f3a:	96ba                	add	a3,a3,a4
20011f3c:	c30c                	sw	a1,0(a4)
20011f3e:	c34c                	sw	a1,4(a4)
20011f40:	c70c                	sw	a1,8(a4)
20011f42:	c74c                	sw	a1,12(a4)
20011f44:	0741                	addi	a4,a4,16
20011f46:	fed76be3          	bltu	a4,a3,20011f3c <memset+0x18>
20011f4a:	e211                	bnez	a2,20011f4e <memset+0x2a>
20011f4c:	8082                	ret
20011f4e:	40c306b3          	sub	a3,t1,a2
20011f52:	068a                	slli	a3,a3,0x2
20011f54:	00000297          	auipc	t0,0x0
20011f58:	9696                	add	a3,a3,t0
20011f5a:	00a68067          	jr	10(a3) # 100a <__heap_size+0x80a>
20011f5e:	00b70723          	sb	a1,14(a4) # ffffe00e <metal_segment_heap_target_end+0x7fffc88e>
20011f62:	00b706a3          	sb	a1,13(a4)
20011f66:	00b70623          	sb	a1,12(a4)
20011f6a:	00b705a3          	sb	a1,11(a4)
20011f6e:	00b70523          	sb	a1,10(a4)
20011f72:	00b704a3          	sb	a1,9(a4)
20011f76:	00b70423          	sb	a1,8(a4)
20011f7a:	00b703a3          	sb	a1,7(a4)
20011f7e:	00b70323          	sb	a1,6(a4)
20011f82:	00b702a3          	sb	a1,5(a4)
20011f86:	00b70223          	sb	a1,4(a4)
20011f8a:	00b701a3          	sb	a1,3(a4)
20011f8e:	00b70123          	sb	a1,2(a4)
20011f92:	00b700a3          	sb	a1,1(a4)
20011f96:	00b70023          	sb	a1,0(a4)
20011f9a:	8082                	ret
20011f9c:	0ff5f593          	zext.b	a1,a1
20011fa0:	00859693          	slli	a3,a1,0x8
20011fa4:	8dd5                	or	a1,a1,a3
20011fa6:	01059693          	slli	a3,a1,0x10
20011faa:	8dd5                	or	a1,a1,a3
20011fac:	b761                	j	20011f34 <memset+0x10>
20011fae:	00279693          	slli	a3,a5,0x2
20011fb2:	00000297          	auipc	t0,0x0
20011fb6:	9696                	add	a3,a3,t0
20011fb8:	8286                	mv	t0,ra
20011fba:	fa8680e7          	jalr	-88(a3)
20011fbe:	8096                	mv	ra,t0
20011fc0:	17c1                	addi	a5,a5,-16
20011fc2:	8f1d                	sub	a4,a4,a5
20011fc4:	963e                	add	a2,a2,a5
20011fc6:	f8c374e3          	bgeu	t1,a2,20011f4e <memset+0x2a>
20011fca:	b7a5                	j	20011f32 <memset+0xe>

20011fcc <_free_r>:
_free_r():
20011fcc:	c1c5                	beqz	a1,2001206c <_free_r+0xa0>
20011fce:	ffc5a783          	lw	a5,-4(a1)
20011fd2:	1101                	addi	sp,sp,-32
20011fd4:	cc22                	sw	s0,24(sp)
20011fd6:	ce06                	sw	ra,28(sp)
20011fd8:	ffc58413          	addi	s0,a1,-4
20011fdc:	0007d363          	bgez	a5,20011fe2 <_free_r+0x16>
20011fe0:	943e                	add	s0,s0,a5
20011fe2:	c62a                	sw	a0,12(sp)
20011fe4:	2585                	jal	20012644 <__malloc_lock>
20011fe6:	5ffef717          	auipc	a4,0x5ffef
20011fea:	ae270713          	addi	a4,a4,-1310 # 80000ac8 <__malloc_free_list>
20011fee:	431c                	lw	a5,0(a4)
20011ff0:	4532                	lw	a0,12(sp)
20011ff2:	eb81                	bnez	a5,20012002 <_free_r+0x36>
20011ff4:	00042223          	sw	zero,4(s0)
20011ff8:	c300                	sw	s0,0(a4)
20011ffa:	4462                	lw	s0,24(sp)
20011ffc:	40f2                	lw	ra,28(sp)
20011ffe:	6105                	addi	sp,sp,32
20012000:	a599                	j	20012646 <__malloc_unlock>
20012002:	00f47d63          	bgeu	s0,a5,2001201c <_free_r+0x50>
20012006:	4010                	lw	a2,0(s0)
20012008:	00c406b3          	add	a3,s0,a2
2001200c:	00d79663          	bne	a5,a3,20012018 <_free_r+0x4c>
20012010:	4394                	lw	a3,0(a5)
20012012:	43dc                	lw	a5,4(a5)
20012014:	96b2                	add	a3,a3,a2
20012016:	c014                	sw	a3,0(s0)
20012018:	c05c                	sw	a5,4(s0)
2001201a:	bff9                	j	20011ff8 <_free_r+0x2c>
2001201c:	873e                	mv	a4,a5
2001201e:	43dc                	lw	a5,4(a5)
20012020:	c399                	beqz	a5,20012026 <_free_r+0x5a>
20012022:	fef47de3          	bgeu	s0,a5,2001201c <_free_r+0x50>
20012026:	4314                	lw	a3,0(a4)
20012028:	00d70633          	add	a2,a4,a3
2001202c:	00861f63          	bne	a2,s0,2001204a <_free_r+0x7e>
20012030:	4010                	lw	a2,0(s0)
20012032:	96b2                	add	a3,a3,a2
20012034:	c314                	sw	a3,0(a4)
20012036:	00d70633          	add	a2,a4,a3
2001203a:	fcc790e3          	bne	a5,a2,20011ffa <_free_r+0x2e>
2001203e:	4390                	lw	a2,0(a5)
20012040:	43dc                	lw	a5,4(a5)
20012042:	96b2                	add	a3,a3,a2
20012044:	c314                	sw	a3,0(a4)
20012046:	c35c                	sw	a5,4(a4)
20012048:	bf4d                	j	20011ffa <_free_r+0x2e>
2001204a:	00c47563          	bgeu	s0,a2,20012054 <_free_r+0x88>
2001204e:	47b1                	li	a5,12
20012050:	c11c                	sw	a5,0(a0)
20012052:	b765                	j	20011ffa <_free_r+0x2e>
20012054:	4010                	lw	a2,0(s0)
20012056:	00c406b3          	add	a3,s0,a2
2001205a:	00d79663          	bne	a5,a3,20012066 <_free_r+0x9a>
2001205e:	4394                	lw	a3,0(a5)
20012060:	43dc                	lw	a5,4(a5)
20012062:	96b2                	add	a3,a3,a2
20012064:	c014                	sw	a3,0(s0)
20012066:	c05c                	sw	a5,4(s0)
20012068:	c340                	sw	s0,4(a4)
2001206a:	bf41                	j	20011ffa <_free_r+0x2e>
2001206c:	8082                	ret

2001206e <_malloc_r>:
_malloc_r():
2001206e:	1101                	addi	sp,sp,-32
20012070:	ca26                	sw	s1,20(sp)
20012072:	00358493          	addi	s1,a1,3
20012076:	98f1                	andi	s1,s1,-4
20012078:	c84a                	sw	s2,16(sp)
2001207a:	ce06                	sw	ra,28(sp)
2001207c:	cc22                	sw	s0,24(sp)
2001207e:	c64e                	sw	s3,12(sp)
20012080:	04a1                	addi	s1,s1,8
20012082:	47b1                	li	a5,12
20012084:	892a                	mv	s2,a0
20012086:	04f4f463          	bgeu	s1,a5,200120ce <_malloc_r+0x60>
2001208a:	44b1                	li	s1,12
2001208c:	04b4e363          	bltu	s1,a1,200120d2 <_malloc_r+0x64>
20012090:	854a                	mv	a0,s2
20012092:	2b4d                	jal	20012644 <__malloc_lock>
20012094:	5ffef697          	auipc	a3,0x5ffef
20012098:	a3468693          	addi	a3,a3,-1484 # 80000ac8 <__malloc_free_list>
2001209c:	4298                	lw	a4,0(a3)
2001209e:	843a                	mv	s0,a4
200120a0:	e421                	bnez	s0,200120e8 <_malloc_r+0x7a>
200120a2:	5ffef417          	auipc	s0,0x5ffef
200120a6:	a2a40413          	addi	s0,s0,-1494 # 80000acc <__malloc_sbrk_start>
200120aa:	401c                	lw	a5,0(s0)
200120ac:	e789                	bnez	a5,200120b6 <_malloc_r+0x48>
200120ae:	4581                	li	a1,0
200120b0:	854a                	mv	a0,s2
200120b2:	2e51                	jal	20012446 <_sbrk_r>
200120b4:	c008                	sw	a0,0(s0)
200120b6:	85a6                	mv	a1,s1
200120b8:	854a                	mv	a0,s2
200120ba:	2671                	jal	20012446 <_sbrk_r>
200120bc:	59fd                	li	s3,-1
200120be:	07351863          	bne	a0,s3,2001212e <_malloc_r+0xc0>
200120c2:	47b1                	li	a5,12
200120c4:	00f92023          	sw	a5,0(s2)
200120c8:	854a                	mv	a0,s2
200120ca:	2bb5                	jal	20012646 <__malloc_unlock>
200120cc:	a031                	j	200120d8 <_malloc_r+0x6a>
200120ce:	fa04dfe3          	bgez	s1,2001208c <_malloc_r+0x1e>
200120d2:	47b1                	li	a5,12
200120d4:	00f92023          	sw	a5,0(s2)
200120d8:	4501                	li	a0,0
200120da:	40f2                	lw	ra,28(sp)
200120dc:	4462                	lw	s0,24(sp)
200120de:	44d2                	lw	s1,20(sp)
200120e0:	4942                	lw	s2,16(sp)
200120e2:	49b2                	lw	s3,12(sp)
200120e4:	6105                	addi	sp,sp,32
200120e6:	8082                	ret
200120e8:	401c                	lw	a5,0(s0)
200120ea:	8f85                	sub	a5,a5,s1
200120ec:	0207ce63          	bltz	a5,20012128 <_malloc_r+0xba>
200120f0:	462d                	li	a2,11
200120f2:	00f67663          	bgeu	a2,a5,200120fe <_malloc_r+0x90>
200120f6:	c01c                	sw	a5,0(s0)
200120f8:	943e                	add	s0,s0,a5
200120fa:	c004                	sw	s1,0(s0)
200120fc:	a029                	j	20012106 <_malloc_r+0x98>
200120fe:	405c                	lw	a5,4(s0)
20012100:	02871263          	bne	a4,s0,20012124 <_malloc_r+0xb6>
20012104:	c29c                	sw	a5,0(a3)
20012106:	854a                	mv	a0,s2
20012108:	2b3d                	jal	20012646 <__malloc_unlock>
2001210a:	00b40513          	addi	a0,s0,11
2001210e:	00440793          	addi	a5,s0,4
20012112:	9961                	andi	a0,a0,-8
20012114:	40f50733          	sub	a4,a0,a5
20012118:	fcf501e3          	beq	a0,a5,200120da <_malloc_r+0x6c>
2001211c:	943a                	add	s0,s0,a4
2001211e:	8f89                	sub	a5,a5,a0
20012120:	c01c                	sw	a5,0(s0)
20012122:	bf65                	j	200120da <_malloc_r+0x6c>
20012124:	c35c                	sw	a5,4(a4)
20012126:	b7c5                	j	20012106 <_malloc_r+0x98>
20012128:	8722                	mv	a4,s0
2001212a:	4040                	lw	s0,4(s0)
2001212c:	bf95                	j	200120a0 <_malloc_r+0x32>
2001212e:	00350413          	addi	s0,a0,3
20012132:	9871                	andi	s0,s0,-4
20012134:	fc8503e3          	beq	a0,s0,200120fa <_malloc_r+0x8c>
20012138:	40a405b3          	sub	a1,s0,a0
2001213c:	854a                	mv	a0,s2
2001213e:	2621                	jal	20012446 <_sbrk_r>
20012140:	fb351de3          	bne	a0,s3,200120fa <_malloc_r+0x8c>
20012144:	bfbd                	j	200120c2 <_malloc_r+0x54>

20012146 <__sfputc_r>:
__sfputc_r():
20012146:	461c                	lw	a5,8(a2)
20012148:	17fd                	addi	a5,a5,-1
2001214a:	c61c                	sw	a5,8(a2)
2001214c:	0007da63          	bgez	a5,20012160 <__sfputc_r+0x1a>
20012150:	4e18                	lw	a4,24(a2)
20012152:	00e7c563          	blt	a5,a4,2001215c <__sfputc_r+0x16>
20012156:	47a9                	li	a5,10
20012158:	00f59463          	bne	a1,a5,20012160 <__sfputc_r+0x1a>
2001215c:	f36ff06f          	j	20011892 <__swbuf_r>
20012160:	421c                	lw	a5,0(a2)
20012162:	852e                	mv	a0,a1
20012164:	00178713          	addi	a4,a5,1
20012168:	c218                	sw	a4,0(a2)
2001216a:	00b78023          	sb	a1,0(a5)
2001216e:	8082                	ret

20012170 <__sfputs_r>:
__sfputs_r():
20012170:	1101                	addi	sp,sp,-32
20012172:	cc22                	sw	s0,24(sp)
20012174:	ca26                	sw	s1,20(sp)
20012176:	c84a                	sw	s2,16(sp)
20012178:	c64e                	sw	s3,12(sp)
2001217a:	c452                	sw	s4,8(sp)
2001217c:	ce06                	sw	ra,28(sp)
2001217e:	892a                	mv	s2,a0
20012180:	89ae                	mv	s3,a1
20012182:	8432                	mv	s0,a2
20012184:	00d604b3          	add	s1,a2,a3
20012188:	5a7d                	li	s4,-1
2001218a:	00941463          	bne	s0,s1,20012192 <__sfputs_r+0x22>
2001218e:	4501                	li	a0,0
20012190:	a809                	j	200121a2 <__sfputs_r+0x32>
20012192:	00044583          	lbu	a1,0(s0)
20012196:	864e                	mv	a2,s3
20012198:	854a                	mv	a0,s2
2001219a:	3775                	jal	20012146 <__sfputc_r>
2001219c:	0405                	addi	s0,s0,1
2001219e:	ff4516e3          	bne	a0,s4,2001218a <__sfputs_r+0x1a>
200121a2:	40f2                	lw	ra,28(sp)
200121a4:	4462                	lw	s0,24(sp)
200121a6:	44d2                	lw	s1,20(sp)
200121a8:	4942                	lw	s2,16(sp)
200121aa:	49b2                	lw	s3,12(sp)
200121ac:	4a22                	lw	s4,8(sp)
200121ae:	6105                	addi	sp,sp,32
200121b0:	8082                	ret

200121b2 <_vfiprintf_r>:
_vfiprintf_r():
200121b2:	7135                	addi	sp,sp,-160
200121b4:	cd22                	sw	s0,152(sp)
200121b6:	cb26                	sw	s1,148(sp)
200121b8:	c94a                	sw	s2,144(sp)
200121ba:	c74e                	sw	s3,140(sp)
200121bc:	cf06                	sw	ra,156(sp)
200121be:	c552                	sw	s4,136(sp)
200121c0:	c356                	sw	s5,132(sp)
200121c2:	c15a                	sw	s6,128(sp)
200121c4:	dede                	sw	s7,124(sp)
200121c6:	dce2                	sw	s8,120(sp)
200121c8:	dae6                	sw	s9,116(sp)
200121ca:	89aa                	mv	s3,a0
200121cc:	84ae                	mv	s1,a1
200121ce:	8932                	mv	s2,a2
200121d0:	8436                	mv	s0,a3
200121d2:	c501                	beqz	a0,200121da <_vfiprintf_r+0x28>
200121d4:	4d1c                	lw	a5,24(a0)
200121d6:	e391                	bnez	a5,200121da <_vfiprintf_r+0x28>
200121d8:	34d5                	jal	20011cbc <__sinit>
200121da:	ffffe797          	auipc	a5,0xffffe
200121de:	2c678793          	addi	a5,a5,710 # 200104a0 <__sf_fake_stdin>
200121e2:	0cf49b63          	bne	s1,a5,200122b8 <_vfiprintf_r+0x106>
200121e6:	0049a483          	lw	s1,4(s3)
200121ea:	00c4d783          	lhu	a5,12(s1)
200121ee:	8ba1                	andi	a5,a5,8
200121f0:	c7f5                	beqz	a5,200122dc <_vfiprintf_r+0x12a>
200121f2:	489c                	lw	a5,16(s1)
200121f4:	c7e5                	beqz	a5,200122dc <_vfiprintf_r+0x12a>
200121f6:	02000793          	li	a5,32
200121fa:	02f104a3          	sb	a5,41(sp)
200121fe:	03000793          	li	a5,48
20012202:	d202                	sw	zero,36(sp)
20012204:	02f10523          	sb	a5,42(sp)
20012208:	c622                	sw	s0,12(sp)
2001220a:	02500b93          	li	s7,37
2001220e:	ffffea97          	auipc	s5,0xffffe
20012212:	2d2a8a93          	addi	s5,s5,722 # 200104e0 <__sf_fake_stdout+0x20>
20012216:	4c05                	li	s8,1
20012218:	4b29                	li	s6,10
2001221a:	844a                	mv	s0,s2
2001221c:	00044783          	lbu	a5,0(s0)
20012220:	c399                	beqz	a5,20012226 <_vfiprintf_r+0x74>
20012222:	0f779063          	bne	a5,s7,20012302 <_vfiprintf_r+0x150>
20012226:	41240cb3          	sub	s9,s0,s2
2001222a:	01240d63          	beq	s0,s2,20012244 <_vfiprintf_r+0x92>
2001222e:	86e6                	mv	a3,s9
20012230:	864a                	mv	a2,s2
20012232:	85a6                	mv	a1,s1
20012234:	854e                	mv	a0,s3
20012236:	3f2d                	jal	20012170 <__sfputs_r>
20012238:	57fd                	li	a5,-1
2001223a:	1ef50463          	beq	a0,a5,20012422 <_vfiprintf_r+0x270>
2001223e:	5792                	lw	a5,36(sp)
20012240:	97e6                	add	a5,a5,s9
20012242:	d23e                	sw	a5,36(sp)
20012244:	00044783          	lbu	a5,0(s0)
20012248:	1c078d63          	beqz	a5,20012422 <_vfiprintf_r+0x270>
2001224c:	57fd                	li	a5,-1
2001224e:	00140913          	addi	s2,s0,1
20012252:	c802                	sw	zero,16(sp)
20012254:	ce02                	sw	zero,28(sp)
20012256:	ca3e                	sw	a5,20(sp)
20012258:	cc02                	sw	zero,24(sp)
2001225a:	040109a3          	sb	zero,83(sp)
2001225e:	d482                	sw	zero,104(sp)
20012260:	00094583          	lbu	a1,0(s2)
20012264:	4615                	li	a2,5
20012266:	8556                	mv	a0,s5
20012268:	26c9                	jal	2001262a <memchr>
2001226a:	47c2                	lw	a5,16(sp)
2001226c:	00190413          	addi	s0,s2,1
20012270:	e959                	bnez	a0,20012306 <_vfiprintf_r+0x154>
20012272:	0107f713          	andi	a4,a5,16
20012276:	c709                	beqz	a4,20012280 <_vfiprintf_r+0xce>
20012278:	02000713          	li	a4,32
2001227c:	04e109a3          	sb	a4,83(sp)
20012280:	0087f713          	andi	a4,a5,8
20012284:	c709                	beqz	a4,2001228e <_vfiprintf_r+0xdc>
20012286:	02b00713          	li	a4,43
2001228a:	04e109a3          	sb	a4,83(sp)
2001228e:	00094683          	lbu	a3,0(s2)
20012292:	02a00713          	li	a4,42
20012296:	08e68063          	beq	a3,a4,20012316 <_vfiprintf_r+0x164>
2001229a:	47f2                	lw	a5,28(sp)
2001229c:	844a                	mv	s0,s2
2001229e:	4681                	li	a3,0
200122a0:	4625                	li	a2,9
200122a2:	00044703          	lbu	a4,0(s0)
200122a6:	00140593          	addi	a1,s0,1
200122aa:	fd070713          	addi	a4,a4,-48
200122ae:	0ae67963          	bgeu	a2,a4,20012360 <_vfiprintf_r+0x1ae>
200122b2:	cab5                	beqz	a3,20012326 <_vfiprintf_r+0x174>
200122b4:	ce3e                	sw	a5,28(sp)
200122b6:	a885                	j	20012326 <_vfiprintf_r+0x174>
200122b8:	ffffe797          	auipc	a5,0xffffe
200122bc:	20878793          	addi	a5,a5,520 # 200104c0 <__sf_fake_stdout>
200122c0:	00f49563          	bne	s1,a5,200122ca <_vfiprintf_r+0x118>
200122c4:	0089a483          	lw	s1,8(s3)
200122c8:	b70d                	j	200121ea <_vfiprintf_r+0x38>
200122ca:	ffffe797          	auipc	a5,0xffffe
200122ce:	1b678793          	addi	a5,a5,438 # 20010480 <__sf_fake_stderr>
200122d2:	f0f49ce3          	bne	s1,a5,200121ea <_vfiprintf_r+0x38>
200122d6:	00c9a483          	lw	s1,12(s3)
200122da:	bf01                	j	200121ea <_vfiprintf_r+0x38>
200122dc:	85a6                	mv	a1,s1
200122de:	854e                	mv	a0,s3
200122e0:	e72ff0ef          	jal	ra,20011952 <__swsetup_r>
200122e4:	d909                	beqz	a0,200121f6 <_vfiprintf_r+0x44>
200122e6:	557d                	li	a0,-1
200122e8:	40fa                	lw	ra,156(sp)
200122ea:	446a                	lw	s0,152(sp)
200122ec:	44da                	lw	s1,148(sp)
200122ee:	494a                	lw	s2,144(sp)
200122f0:	49ba                	lw	s3,140(sp)
200122f2:	4a2a                	lw	s4,136(sp)
200122f4:	4a9a                	lw	s5,132(sp)
200122f6:	4b0a                	lw	s6,128(sp)
200122f8:	5bf6                	lw	s7,124(sp)
200122fa:	5c66                	lw	s8,120(sp)
200122fc:	5cd6                	lw	s9,116(sp)
200122fe:	610d                	addi	sp,sp,160
20012300:	8082                	ret
20012302:	0405                	addi	s0,s0,1
20012304:	bf21                	j	2001221c <_vfiprintf_r+0x6a>
20012306:	41550533          	sub	a0,a0,s5
2001230a:	00ac1533          	sll	a0,s8,a0
2001230e:	8fc9                	or	a5,a5,a0
20012310:	c83e                	sw	a5,16(sp)
20012312:	8922                	mv	s2,s0
20012314:	b7b1                	j	20012260 <_vfiprintf_r+0xae>
20012316:	4732                	lw	a4,12(sp)
20012318:	00470693          	addi	a3,a4,4
2001231c:	4318                	lw	a4,0(a4)
2001231e:	c636                	sw	a3,12(sp)
20012320:	02074963          	bltz	a4,20012352 <_vfiprintf_r+0x1a0>
20012324:	ce3a                	sw	a4,28(sp)
20012326:	00044703          	lbu	a4,0(s0)
2001232a:	02e00793          	li	a5,46
2001232e:	04f71f63          	bne	a4,a5,2001238c <_vfiprintf_r+0x1da>
20012332:	00144703          	lbu	a4,1(s0)
20012336:	02a00793          	li	a5,42
2001233a:	02f71b63          	bne	a4,a5,20012370 <_vfiprintf_r+0x1be>
2001233e:	47b2                	lw	a5,12(sp)
20012340:	0409                	addi	s0,s0,2
20012342:	00478713          	addi	a4,a5,4
20012346:	439c                	lw	a5,0(a5)
20012348:	c63a                	sw	a4,12(sp)
2001234a:	0207c163          	bltz	a5,2001236c <_vfiprintf_r+0x1ba>
2001234e:	ca3e                	sw	a5,20(sp)
20012350:	a835                	j	2001238c <_vfiprintf_r+0x1da>
20012352:	40e00733          	neg	a4,a4
20012356:	0027e793          	ori	a5,a5,2
2001235a:	ce3a                	sw	a4,28(sp)
2001235c:	c83e                	sw	a5,16(sp)
2001235e:	b7e1                	j	20012326 <_vfiprintf_r+0x174>
20012360:	036787b3          	mul	a5,a5,s6
20012364:	842e                	mv	s0,a1
20012366:	4685                	li	a3,1
20012368:	97ba                	add	a5,a5,a4
2001236a:	bf25                	j	200122a2 <_vfiprintf_r+0xf0>
2001236c:	57fd                	li	a5,-1
2001236e:	b7c5                	j	2001234e <_vfiprintf_r+0x19c>
20012370:	0405                	addi	s0,s0,1
20012372:	ca02                	sw	zero,20(sp)
20012374:	4681                	li	a3,0
20012376:	4781                	li	a5,0
20012378:	4625                	li	a2,9
2001237a:	00044703          	lbu	a4,0(s0)
2001237e:	00140593          	addi	a1,s0,1
20012382:	fd070713          	addi	a4,a4,-48
20012386:	06e67463          	bgeu	a2,a4,200123ee <_vfiprintf_r+0x23c>
2001238a:	f2f1                	bnez	a3,2001234e <_vfiprintf_r+0x19c>
2001238c:	00044583          	lbu	a1,0(s0)
20012390:	460d                	li	a2,3
20012392:	ffffe517          	auipc	a0,0xffffe
20012396:	15650513          	addi	a0,a0,342 # 200104e8 <__sf_fake_stdout+0x28>
2001239a:	2c41                	jal	2001262a <memchr>
2001239c:	cd11                	beqz	a0,200123b8 <_vfiprintf_r+0x206>
2001239e:	ffffe797          	auipc	a5,0xffffe
200123a2:	14a78793          	addi	a5,a5,330 # 200104e8 <__sf_fake_stdout+0x28>
200123a6:	8d1d                	sub	a0,a0,a5
200123a8:	04000793          	li	a5,64
200123ac:	00a797b3          	sll	a5,a5,a0
200123b0:	4542                	lw	a0,16(sp)
200123b2:	0405                	addi	s0,s0,1
200123b4:	8d5d                	or	a0,a0,a5
200123b6:	c82a                	sw	a0,16(sp)
200123b8:	00044583          	lbu	a1,0(s0)
200123bc:	4619                	li	a2,6
200123be:	ffffe517          	auipc	a0,0xffffe
200123c2:	12e50513          	addi	a0,a0,302 # 200104ec <__sf_fake_stdout+0x2c>
200123c6:	00140913          	addi	s2,s0,1
200123ca:	02b10423          	sb	a1,40(sp)
200123ce:	2cb1                	jal	2001262a <memchr>
200123d0:	c12d                	beqz	a0,20012432 <_vfiprintf_r+0x280>
200123d2:	00000793          	li	a5,0
200123d6:	e795                	bnez	a5,20012402 <_vfiprintf_r+0x250>
200123d8:	4742                	lw	a4,16(sp)
200123da:	47b2                	lw	a5,12(sp)
200123dc:	10077713          	andi	a4,a4,256
200123e0:	cf09                	beqz	a4,200123fa <_vfiprintf_r+0x248>
200123e2:	0791                	addi	a5,a5,4
200123e4:	c63e                	sw	a5,12(sp)
200123e6:	5792                	lw	a5,36(sp)
200123e8:	97d2                	add	a5,a5,s4
200123ea:	d23e                	sw	a5,36(sp)
200123ec:	b53d                	j	2001221a <_vfiprintf_r+0x68>
200123ee:	036787b3          	mul	a5,a5,s6
200123f2:	842e                	mv	s0,a1
200123f4:	4685                	li	a3,1
200123f6:	97ba                	add	a5,a5,a4
200123f8:	b749                	j	2001237a <_vfiprintf_r+0x1c8>
200123fa:	079d                	addi	a5,a5,7
200123fc:	9be1                	andi	a5,a5,-8
200123fe:	07a1                	addi	a5,a5,8
20012400:	b7d5                	j	200123e4 <_vfiprintf_r+0x232>
20012402:	0078                	addi	a4,sp,12
20012404:	00000697          	auipc	a3,0x0
20012408:	d6c68693          	addi	a3,a3,-660 # 20012170 <__sfputs_r>
2001240c:	8626                	mv	a2,s1
2001240e:	080c                	addi	a1,sp,16
20012410:	854e                	mv	a0,s3
20012412:	00000097          	auipc	ra,0x0
20012416:	000000e7          	jalr	zero # 0 <__metal_boot_hart>
2001241a:	57fd                	li	a5,-1
2001241c:	8a2a                	mv	s4,a0
2001241e:	fcf514e3          	bne	a0,a5,200123e6 <_vfiprintf_r+0x234>
20012422:	00c4d783          	lhu	a5,12(s1)
20012426:	0407f793          	andi	a5,a5,64
2001242a:	ea079ee3          	bnez	a5,200122e6 <_vfiprintf_r+0x134>
2001242e:	5512                	lw	a0,36(sp)
20012430:	bd65                	j	200122e8 <_vfiprintf_r+0x136>
20012432:	0078                	addi	a4,sp,12
20012434:	00000697          	auipc	a3,0x0
20012438:	d3c68693          	addi	a3,a3,-708 # 20012170 <__sfputs_r>
2001243c:	8626                	mv	a2,s1
2001243e:	080c                	addi	a1,sp,16
20012440:	854e                	mv	a0,s3
20012442:	2e09                	jal	20012754 <_printf_i>
20012444:	bfd9                	j	2001241a <_vfiprintf_r+0x268>

20012446 <_sbrk_r>:
_sbrk_r():
20012446:	1141                	addi	sp,sp,-16
20012448:	c422                	sw	s0,8(sp)
2001244a:	842a                	mv	s0,a0
2001244c:	852e                	mv	a0,a1
2001244e:	5ffee797          	auipc	a5,0x5ffee
20012452:	6807a123          	sw	zero,1666(a5) # 80000ad0 <errno>
20012456:	c606                	sw	ra,12(sp)
20012458:	319050ef          	jal	ra,20017f70 <_sbrk>
2001245c:	57fd                	li	a5,-1
2001245e:	00f51863          	bne	a0,a5,2001246e <_sbrk_r+0x28>
20012462:	5ffee797          	auipc	a5,0x5ffee
20012466:	66e7a783          	lw	a5,1646(a5) # 80000ad0 <errno>
2001246a:	c391                	beqz	a5,2001246e <_sbrk_r+0x28>
2001246c:	c01c                	sw	a5,0(s0)
2001246e:	40b2                	lw	ra,12(sp)
20012470:	4422                	lw	s0,8(sp)
20012472:	0141                	addi	sp,sp,16
20012474:	8082                	ret

20012476 <__sread>:
__sread():
20012476:	1141                	addi	sp,sp,-16
20012478:	c422                	sw	s0,8(sp)
2001247a:	842e                	mv	s0,a1
2001247c:	00e59583          	lh	a1,14(a1)
20012480:	c606                	sw	ra,12(sp)
20012482:	2389                	jal	200129c4 <_read_r>
20012484:	00054963          	bltz	a0,20012496 <__sread+0x20>
20012488:	487c                	lw	a5,84(s0)
2001248a:	97aa                	add	a5,a5,a0
2001248c:	c87c                	sw	a5,84(s0)
2001248e:	40b2                	lw	ra,12(sp)
20012490:	4422                	lw	s0,8(sp)
20012492:	0141                	addi	sp,sp,16
20012494:	8082                	ret
20012496:	00c45783          	lhu	a5,12(s0)
2001249a:	777d                	lui	a4,0xfffff
2001249c:	177d                	addi	a4,a4,-1
2001249e:	8ff9                	and	a5,a5,a4
200124a0:	00f41623          	sh	a5,12(s0)
200124a4:	b7ed                	j	2001248e <__sread+0x18>

200124a6 <__swrite>:
__swrite():
200124a6:	00c5d783          	lhu	a5,12(a1)
200124aa:	1101                	addi	sp,sp,-32
200124ac:	cc22                	sw	s0,24(sp)
200124ae:	ca26                	sw	s1,20(sp)
200124b0:	c84a                	sw	s2,16(sp)
200124b2:	c64e                	sw	s3,12(sp)
200124b4:	ce06                	sw	ra,28(sp)
200124b6:	1007f793          	andi	a5,a5,256
200124ba:	84aa                	mv	s1,a0
200124bc:	842e                	mv	s0,a1
200124be:	8932                	mv	s2,a2
200124c0:	89b6                	mv	s3,a3
200124c2:	c791                	beqz	a5,200124ce <__swrite+0x28>
200124c4:	00e59583          	lh	a1,14(a1)
200124c8:	4689                	li	a3,2
200124ca:	4601                	li	a2,0
200124cc:	222d                	jal	200125f6 <_lseek_r>
200124ce:	00c45783          	lhu	a5,12(s0)
200124d2:	777d                	lui	a4,0xfffff
200124d4:	177d                	addi	a4,a4,-1
200124d6:	8ff9                	and	a5,a5,a4
200124d8:	00e41583          	lh	a1,14(s0)
200124dc:	00f41623          	sh	a5,12(s0)
200124e0:	4462                	lw	s0,24(sp)
200124e2:	40f2                	lw	ra,28(sp)
200124e4:	86ce                	mv	a3,s3
200124e6:	864a                	mv	a2,s2
200124e8:	49b2                	lw	s3,12(sp)
200124ea:	4942                	lw	s2,16(sp)
200124ec:	8526                	mv	a0,s1
200124ee:	44d2                	lw	s1,20(sp)
200124f0:	6105                	addi	sp,sp,32
200124f2:	a83d                	j	20012530 <_write_r>

200124f4 <__sseek>:
__sseek():
200124f4:	1141                	addi	sp,sp,-16
200124f6:	c422                	sw	s0,8(sp)
200124f8:	842e                	mv	s0,a1
200124fa:	00e59583          	lh	a1,14(a1)
200124fe:	c606                	sw	ra,12(sp)
20012500:	28dd                	jal	200125f6 <_lseek_r>
20012502:	57fd                	li	a5,-1
20012504:	00c45703          	lhu	a4,12(s0)
20012508:	00f51b63          	bne	a0,a5,2001251e <__sseek+0x2a>
2001250c:	77fd                	lui	a5,0xfffff
2001250e:	17fd                	addi	a5,a5,-1
20012510:	8ff9                	and	a5,a5,a4
20012512:	00f41623          	sh	a5,12(s0)
20012516:	40b2                	lw	ra,12(sp)
20012518:	4422                	lw	s0,8(sp)
2001251a:	0141                	addi	sp,sp,16
2001251c:	8082                	ret
2001251e:	6785                	lui	a5,0x1
20012520:	8fd9                	or	a5,a5,a4
20012522:	00f41623          	sh	a5,12(s0)
20012526:	c868                	sw	a0,84(s0)
20012528:	b7fd                	j	20012516 <__sseek+0x22>

2001252a <__sclose>:
__sclose():
2001252a:	00e59583          	lh	a1,14(a1)
2001252e:	a81d                	j	20012564 <_close_r>

20012530 <_write_r>:
_write_r():
20012530:	1141                	addi	sp,sp,-16
20012532:	c422                	sw	s0,8(sp)
20012534:	842a                	mv	s0,a0
20012536:	852e                	mv	a0,a1
20012538:	85b2                	mv	a1,a2
2001253a:	8636                	mv	a2,a3
2001253c:	5ffee797          	auipc	a5,0x5ffee
20012540:	5807aa23          	sw	zero,1428(a5) # 80000ad0 <errno>
20012544:	c606                	sw	ra,12(sp)
20012546:	295050ef          	jal	ra,20017fda <_write>
2001254a:	57fd                	li	a5,-1
2001254c:	00f51863          	bne	a0,a5,2001255c <_write_r+0x2c>
20012550:	5ffee797          	auipc	a5,0x5ffee
20012554:	5807a783          	lw	a5,1408(a5) # 80000ad0 <errno>
20012558:	c391                	beqz	a5,2001255c <_write_r+0x2c>
2001255a:	c01c                	sw	a5,0(s0)
2001255c:	40b2                	lw	ra,12(sp)
2001255e:	4422                	lw	s0,8(sp)
20012560:	0141                	addi	sp,sp,16
20012562:	8082                	ret

20012564 <_close_r>:
_close_r():
20012564:	1141                	addi	sp,sp,-16
20012566:	c422                	sw	s0,8(sp)
20012568:	842a                	mv	s0,a0
2001256a:	852e                	mv	a0,a1
2001256c:	5ffee797          	auipc	a5,0x5ffee
20012570:	5607a223          	sw	zero,1380(a5) # 80000ad0 <errno>
20012574:	c606                	sw	ra,12(sp)
20012576:	13f050ef          	jal	ra,20017eb4 <_close>
2001257a:	57fd                	li	a5,-1
2001257c:	00f51863          	bne	a0,a5,2001258c <_close_r+0x28>
20012580:	5ffee797          	auipc	a5,0x5ffee
20012584:	5507a783          	lw	a5,1360(a5) # 80000ad0 <errno>
20012588:	c391                	beqz	a5,2001258c <_close_r+0x28>
2001258a:	c01c                	sw	a5,0(s0)
2001258c:	40b2                	lw	ra,12(sp)
2001258e:	4422                	lw	s0,8(sp)
20012590:	0141                	addi	sp,sp,16
20012592:	8082                	ret

20012594 <_fstat_r>:
_fstat_r():
20012594:	1141                	addi	sp,sp,-16
20012596:	c422                	sw	s0,8(sp)
20012598:	842a                	mv	s0,a0
2001259a:	852e                	mv	a0,a1
2001259c:	85b2                	mv	a1,a2
2001259e:	5ffee797          	auipc	a5,0x5ffee
200125a2:	5207a923          	sw	zero,1330(a5) # 80000ad0 <errno>
200125a6:	c606                	sw	ra,12(sp)
200125a8:	12f050ef          	jal	ra,20017ed6 <_fstat>
200125ac:	57fd                	li	a5,-1
200125ae:	00f51863          	bne	a0,a5,200125be <_fstat_r+0x2a>
200125b2:	5ffee797          	auipc	a5,0x5ffee
200125b6:	51e7a783          	lw	a5,1310(a5) # 80000ad0 <errno>
200125ba:	c391                	beqz	a5,200125be <_fstat_r+0x2a>
200125bc:	c01c                	sw	a5,0(s0)
200125be:	40b2                	lw	ra,12(sp)
200125c0:	4422                	lw	s0,8(sp)
200125c2:	0141                	addi	sp,sp,16
200125c4:	8082                	ret

200125c6 <_isatty_r>:
_isatty_r():
200125c6:	1141                	addi	sp,sp,-16
200125c8:	c422                	sw	s0,8(sp)
200125ca:	842a                	mv	s0,a0
200125cc:	852e                	mv	a0,a1
200125ce:	5ffee797          	auipc	a5,0x5ffee
200125d2:	5007a123          	sw	zero,1282(a5) # 80000ad0 <errno>
200125d6:	c606                	sw	ra,12(sp)
200125d8:	125050ef          	jal	ra,20017efc <_isatty>
200125dc:	57fd                	li	a5,-1
200125de:	00f51863          	bne	a0,a5,200125ee <_isatty_r+0x28>
200125e2:	5ffee797          	auipc	a5,0x5ffee
200125e6:	4ee7a783          	lw	a5,1262(a5) # 80000ad0 <errno>
200125ea:	c391                	beqz	a5,200125ee <_isatty_r+0x28>
200125ec:	c01c                	sw	a5,0(s0)
200125ee:	40b2                	lw	ra,12(sp)
200125f0:	4422                	lw	s0,8(sp)
200125f2:	0141                	addi	sp,sp,16
200125f4:	8082                	ret

200125f6 <_lseek_r>:
_lseek_r():
200125f6:	1141                	addi	sp,sp,-16
200125f8:	c422                	sw	s0,8(sp)
200125fa:	842a                	mv	s0,a0
200125fc:	852e                	mv	a0,a1
200125fe:	85b2                	mv	a1,a2
20012600:	8636                	mv	a2,a3
20012602:	5ffee797          	auipc	a5,0x5ffee
20012606:	4c07a723          	sw	zero,1230(a5) # 80000ad0 <errno>
2001260a:	c606                	sw	ra,12(sp)
2001260c:	111050ef          	jal	ra,20017f1c <_lseek>
20012610:	57fd                	li	a5,-1
20012612:	00f51863          	bne	a0,a5,20012622 <_lseek_r+0x2c>
20012616:	5ffee797          	auipc	a5,0x5ffee
2001261a:	4ba7a783          	lw	a5,1210(a5) # 80000ad0 <errno>
2001261e:	c391                	beqz	a5,20012622 <_lseek_r+0x2c>
20012620:	c01c                	sw	a5,0(s0)
20012622:	40b2                	lw	ra,12(sp)
20012624:	4422                	lw	s0,8(sp)
20012626:	0141                	addi	sp,sp,16
20012628:	8082                	ret

2001262a <memchr>:
memchr():
2001262a:	0ff5f593          	zext.b	a1,a1
2001262e:	962a                	add	a2,a2,a0
20012630:	00c51463          	bne	a0,a2,20012638 <memchr+0xe>
20012634:	4501                	li	a0,0
20012636:	8082                	ret
20012638:	00054783          	lbu	a5,0(a0)
2001263c:	feb78de3          	beq	a5,a1,20012636 <memchr+0xc>
20012640:	0505                	addi	a0,a0,1
20012642:	b7fd                	j	20012630 <memchr+0x6>

20012644 <__malloc_lock>:
__malloc_lock():
20012644:	8082                	ret

20012646 <__malloc_unlock>:
__malloc_unlock():
20012646:	8082                	ret

20012648 <_printf_common>:
_printf_common():
20012648:	7179                	addi	sp,sp,-48
2001264a:	cc52                	sw	s4,24(sp)
2001264c:	499c                	lw	a5,16(a1)
2001264e:	8a3a                	mv	s4,a4
20012650:	4598                	lw	a4,8(a1)
20012652:	d422                	sw	s0,40(sp)
20012654:	d226                	sw	s1,36(sp)
20012656:	ce4e                	sw	s3,28(sp)
20012658:	ca56                	sw	s5,20(sp)
2001265a:	d606                	sw	ra,44(sp)
2001265c:	d04a                	sw	s2,32(sp)
2001265e:	c85a                	sw	s6,16(sp)
20012660:	c65e                	sw	s7,12(sp)
20012662:	89aa                	mv	s3,a0
20012664:	842e                	mv	s0,a1
20012666:	84b2                	mv	s1,a2
20012668:	8ab6                	mv	s5,a3
2001266a:	00e7d363          	bge	a5,a4,20012670 <_printf_common+0x28>
2001266e:	87ba                	mv	a5,a4
20012670:	c09c                	sw	a5,0(s1)
20012672:	04344703          	lbu	a4,67(s0)
20012676:	c319                	beqz	a4,2001267c <_printf_common+0x34>
20012678:	0785                	addi	a5,a5,1
2001267a:	c09c                	sw	a5,0(s1)
2001267c:	401c                	lw	a5,0(s0)
2001267e:	0207f793          	andi	a5,a5,32
20012682:	c781                	beqz	a5,2001268a <_printf_common+0x42>
20012684:	409c                	lw	a5,0(s1)
20012686:	0789                	addi	a5,a5,2
20012688:	c09c                	sw	a5,0(s1)
2001268a:	00042903          	lw	s2,0(s0)
2001268e:	00697913          	andi	s2,s2,6
20012692:	00091a63          	bnez	s2,200126a6 <_printf_common+0x5e>
20012696:	01940b13          	addi	s6,s0,25
2001269a:	5bfd                	li	s7,-1
2001269c:	445c                	lw	a5,12(s0)
2001269e:	4098                	lw	a4,0(s1)
200126a0:	8f99                	sub	a5,a5,a4
200126a2:	04f94c63          	blt	s2,a5,200126fa <_printf_common+0xb2>
200126a6:	04344783          	lbu	a5,67(s0)
200126aa:	00f036b3          	snez	a3,a5
200126ae:	401c                	lw	a5,0(s0)
200126b0:	0207f793          	andi	a5,a5,32
200126b4:	eba5                	bnez	a5,20012724 <_printf_common+0xdc>
200126b6:	04340613          	addi	a2,s0,67
200126ba:	85d6                	mv	a1,s5
200126bc:	854e                	mv	a0,s3
200126be:	9a02                	jalr	s4
200126c0:	57fd                	li	a5,-1
200126c2:	04f50363          	beq	a0,a5,20012708 <_printf_common+0xc0>
200126c6:	401c                	lw	a5,0(s0)
200126c8:	4611                	li	a2,4
200126ca:	4098                	lw	a4,0(s1)
200126cc:	8b99                	andi	a5,a5,6
200126ce:	4454                	lw	a3,12(s0)
200126d0:	4481                	li	s1,0
200126d2:	00c79763          	bne	a5,a2,200126e0 <_printf_common+0x98>
200126d6:	40e684b3          	sub	s1,a3,a4
200126da:	0004d363          	bgez	s1,200126e0 <_printf_common+0x98>
200126de:	4481                	li	s1,0
200126e0:	441c                	lw	a5,8(s0)
200126e2:	4818                	lw	a4,16(s0)
200126e4:	00f75463          	bge	a4,a5,200126ec <_printf_common+0xa4>
200126e8:	8f99                	sub	a5,a5,a4
200126ea:	94be                	add	s1,s1,a5
200126ec:	4901                	li	s2,0
200126ee:	0469                	addi	s0,s0,26
200126f0:	5b7d                	li	s6,-1
200126f2:	05249863          	bne	s1,s2,20012742 <_printf_common+0xfa>
200126f6:	4501                	li	a0,0
200126f8:	a809                	j	2001270a <_printf_common+0xc2>
200126fa:	4685                	li	a3,1
200126fc:	865a                	mv	a2,s6
200126fe:	85d6                	mv	a1,s5
20012700:	854e                	mv	a0,s3
20012702:	9a02                	jalr	s4
20012704:	01751e63          	bne	a0,s7,20012720 <_printf_common+0xd8>
20012708:	557d                	li	a0,-1
2001270a:	50b2                	lw	ra,44(sp)
2001270c:	5422                	lw	s0,40(sp)
2001270e:	5492                	lw	s1,36(sp)
20012710:	5902                	lw	s2,32(sp)
20012712:	49f2                	lw	s3,28(sp)
20012714:	4a62                	lw	s4,24(sp)
20012716:	4ad2                	lw	s5,20(sp)
20012718:	4b42                	lw	s6,16(sp)
2001271a:	4bb2                	lw	s7,12(sp)
2001271c:	6145                	addi	sp,sp,48
2001271e:	8082                	ret
20012720:	0905                	addi	s2,s2,1
20012722:	bfad                	j	2001269c <_printf_common+0x54>
20012724:	00d40733          	add	a4,s0,a3
20012728:	03000613          	li	a2,48
2001272c:	04c701a3          	sb	a2,67(a4) # fffff043 <metal_segment_heap_target_end+0x7fffd8c3>
20012730:	04544703          	lbu	a4,69(s0)
20012734:	00168793          	addi	a5,a3,1
20012738:	97a2                	add	a5,a5,s0
2001273a:	0689                	addi	a3,a3,2
2001273c:	04e781a3          	sb	a4,67(a5)
20012740:	bf9d                	j	200126b6 <_printf_common+0x6e>
20012742:	4685                	li	a3,1
20012744:	8622                	mv	a2,s0
20012746:	85d6                	mv	a1,s5
20012748:	854e                	mv	a0,s3
2001274a:	9a02                	jalr	s4
2001274c:	fb650ee3          	beq	a0,s6,20012708 <_printf_common+0xc0>
20012750:	0905                	addi	s2,s2,1
20012752:	b745                	j	200126f2 <_printf_common+0xaa>

20012754 <_printf_i>:
_printf_i():
20012754:	7179                	addi	sp,sp,-48
20012756:	d422                	sw	s0,40(sp)
20012758:	d226                	sw	s1,36(sp)
2001275a:	d04a                	sw	s2,32(sp)
2001275c:	ce4e                	sw	s3,28(sp)
2001275e:	d606                	sw	ra,44(sp)
20012760:	cc52                	sw	s4,24(sp)
20012762:	ca56                	sw	s5,20(sp)
20012764:	c85a                	sw	s6,16(sp)
20012766:	0185c803          	lbu	a6,24(a1)
2001276a:	07800793          	li	a5,120
2001276e:	84aa                	mv	s1,a0
20012770:	842e                	mv	s0,a1
20012772:	8932                	mv	s2,a2
20012774:	89b6                	mv	s3,a3
20012776:	0107ee63          	bltu	a5,a6,20012792 <_printf_i+0x3e>
2001277a:	06200793          	li	a5,98
2001277e:	04358693          	addi	a3,a1,67
20012782:	0107ed63          	bltu	a5,a6,2001279c <_printf_i+0x48>
20012786:	1c080563          	beqz	a6,20012950 <_printf_i+0x1fc>
2001278a:	05800793          	li	a5,88
2001278e:	12f80a63          	beq	a6,a5,200128c2 <_printf_i+0x16e>
20012792:	04240a93          	addi	s5,s0,66
20012796:	05040123          	sb	a6,66(s0)
2001279a:	a815                	j	200127ce <_printf_i+0x7a>
2001279c:	f9d80793          	addi	a5,a6,-99
200127a0:	0ff7f793          	zext.b	a5,a5
200127a4:	4655                	li	a2,21
200127a6:	fef666e3          	bltu	a2,a5,20012792 <_printf_i+0x3e>
200127aa:	ffffe617          	auipc	a2,0xffffe
200127ae:	d7260613          	addi	a2,a2,-654 # 2001051c <__sf_fake_stdout+0x5c>
200127b2:	078a                	slli	a5,a5,0x2
200127b4:	97b2                	add	a5,a5,a2
200127b6:	439c                	lw	a5,0(a5)
200127b8:	97b2                	add	a5,a5,a2
200127ba:	8782                	jr	a5
200127bc:	431c                	lw	a5,0(a4)
200127be:	04258a93          	addi	s5,a1,66
200127c2:	00478693          	addi	a3,a5,4
200127c6:	439c                	lw	a5,0(a5)
200127c8:	c314                	sw	a3,0(a4)
200127ca:	04f58123          	sb	a5,66(a1)
200127ce:	4785                	li	a5,1
200127d0:	a25d                	j	20012976 <_printf_i+0x222>
200127d2:	419c                	lw	a5,0(a1)
200127d4:	4308                	lw	a0,0(a4)
200127d6:	0807f613          	andi	a2,a5,128
200127da:	00450593          	addi	a1,a0,4
200127de:	c20d                	beqz	a2,20012800 <_printf_i+0xac>
200127e0:	411c                	lw	a5,0(a0)
200127e2:	c30c                	sw	a1,0(a4)
200127e4:	0007d863          	bgez	a5,200127f4 <_printf_i+0xa0>
200127e8:	02d00713          	li	a4,45
200127ec:	40f007b3          	neg	a5,a5
200127f0:	04e401a3          	sb	a4,67(s0)
200127f4:	ffffe617          	auipc	a2,0xffffe
200127f8:	d0060613          	addi	a2,a2,-768 # 200104f4 <__sf_fake_stdout+0x34>
200127fc:	4829                	li	a6,10
200127fe:	a0a1                	j	20012846 <_printf_i+0xf2>
20012800:	0407f613          	andi	a2,a5,64
20012804:	411c                	lw	a5,0(a0)
20012806:	c30c                	sw	a1,0(a4)
20012808:	de71                	beqz	a2,200127e4 <_printf_i+0x90>
2001280a:	07c2                	slli	a5,a5,0x10
2001280c:	87c1                	srai	a5,a5,0x10
2001280e:	bfd9                	j	200127e4 <_printf_i+0x90>
20012810:	4190                	lw	a2,0(a1)
20012812:	431c                	lw	a5,0(a4)
20012814:	08067513          	andi	a0,a2,128
20012818:	00478593          	addi	a1,a5,4
2001281c:	c501                	beqz	a0,20012824 <_printf_i+0xd0>
2001281e:	c30c                	sw	a1,0(a4)
20012820:	439c                	lw	a5,0(a5)
20012822:	a039                	j	20012830 <_printf_i+0xdc>
20012824:	04067613          	andi	a2,a2,64
20012828:	c30c                	sw	a1,0(a4)
2001282a:	da7d                	beqz	a2,20012820 <_printf_i+0xcc>
2001282c:	0007d783          	lhu	a5,0(a5)
20012830:	06f00713          	li	a4,111
20012834:	ffffe617          	auipc	a2,0xffffe
20012838:	cc060613          	addi	a2,a2,-832 # 200104f4 <__sf_fake_stdout+0x34>
2001283c:	0ee80463          	beq	a6,a4,20012924 <_printf_i+0x1d0>
20012840:	4829                	li	a6,10
20012842:	040401a3          	sb	zero,67(s0)
20012846:	4058                	lw	a4,4(s0)
20012848:	c418                	sw	a4,8(s0)
2001284a:	00074563          	bltz	a4,20012854 <_printf_i+0x100>
2001284e:	400c                	lw	a1,0(s0)
20012850:	99ed                	andi	a1,a1,-5
20012852:	c00c                	sw	a1,0(s0)
20012854:	e399                	bnez	a5,2001285a <_printf_i+0x106>
20012856:	8ab6                	mv	s5,a3
20012858:	cf19                	beqz	a4,20012876 <_printf_i+0x122>
2001285a:	8ab6                	mv	s5,a3
2001285c:	0307f733          	remu	a4,a5,a6
20012860:	1afd                	addi	s5,s5,-1
20012862:	9732                	add	a4,a4,a2
20012864:	00074703          	lbu	a4,0(a4)
20012868:	00ea8023          	sb	a4,0(s5)
2001286c:	873e                	mv	a4,a5
2001286e:	0307d7b3          	divu	a5,a5,a6
20012872:	ff0775e3          	bgeu	a4,a6,2001285c <_printf_i+0x108>
20012876:	47a1                	li	a5,8
20012878:	00f81e63          	bne	a6,a5,20012894 <_printf_i+0x140>
2001287c:	401c                	lw	a5,0(s0)
2001287e:	8b85                	andi	a5,a5,1
20012880:	cb91                	beqz	a5,20012894 <_printf_i+0x140>
20012882:	4058                	lw	a4,4(s0)
20012884:	481c                	lw	a5,16(s0)
20012886:	00e7c763          	blt	a5,a4,20012894 <_printf_i+0x140>
2001288a:	03000793          	li	a5,48
2001288e:	fefa8fa3          	sb	a5,-1(s5)
20012892:	1afd                	addi	s5,s5,-1
20012894:	415686b3          	sub	a3,a3,s5
20012898:	c814                	sw	a3,16(s0)
2001289a:	874e                	mv	a4,s3
2001289c:	86ca                	mv	a3,s2
2001289e:	0070                	addi	a2,sp,12
200128a0:	85a2                	mv	a1,s0
200128a2:	8526                	mv	a0,s1
200128a4:	3355                	jal	20012648 <_printf_common>
200128a6:	5a7d                	li	s4,-1
200128a8:	0d451b63          	bne	a0,s4,2001297e <_printf_i+0x22a>
200128ac:	557d                	li	a0,-1
200128ae:	50b2                	lw	ra,44(sp)
200128b0:	5422                	lw	s0,40(sp)
200128b2:	5492                	lw	s1,36(sp)
200128b4:	5902                	lw	s2,32(sp)
200128b6:	49f2                	lw	s3,28(sp)
200128b8:	4a62                	lw	s4,24(sp)
200128ba:	4ad2                	lw	s5,20(sp)
200128bc:	4b42                	lw	s6,16(sp)
200128be:	6145                	addi	sp,sp,48
200128c0:	8082                	ret
200128c2:	050582a3          	sb	a6,69(a1)
200128c6:	ffffe617          	auipc	a2,0xffffe
200128ca:	c2e60613          	addi	a2,a2,-978 # 200104f4 <__sf_fake_stdout+0x34>
200128ce:	400c                	lw	a1,0(s0)
200128d0:	4308                	lw	a0,0(a4)
200128d2:	0805f813          	andi	a6,a1,128
200128d6:	411c                	lw	a5,0(a0)
200128d8:	0511                	addi	a0,a0,4
200128da:	02080d63          	beqz	a6,20012914 <_printf_i+0x1c0>
200128de:	c308                	sw	a0,0(a4)
200128e0:	0015f713          	andi	a4,a1,1
200128e4:	c701                	beqz	a4,200128ec <_printf_i+0x198>
200128e6:	0205e593          	ori	a1,a1,32
200128ea:	c00c                	sw	a1,0(s0)
200128ec:	4841                	li	a6,16
200128ee:	fbb1                	bnez	a5,20012842 <_printf_i+0xee>
200128f0:	4018                	lw	a4,0(s0)
200128f2:	fdf77713          	andi	a4,a4,-33
200128f6:	c018                	sw	a4,0(s0)
200128f8:	b7a9                	j	20012842 <_printf_i+0xee>
200128fa:	419c                	lw	a5,0(a1)
200128fc:	0207e793          	ori	a5,a5,32
20012900:	c19c                	sw	a5,0(a1)
20012902:	07800793          	li	a5,120
20012906:	04f402a3          	sb	a5,69(s0)
2001290a:	ffffe617          	auipc	a2,0xffffe
2001290e:	bfe60613          	addi	a2,a2,-1026 # 20010508 <__sf_fake_stdout+0x48>
20012912:	bf75                	j	200128ce <_printf_i+0x17a>
20012914:	0405f813          	andi	a6,a1,64
20012918:	c308                	sw	a0,0(a4)
2001291a:	fc0803e3          	beqz	a6,200128e0 <_printf_i+0x18c>
2001291e:	07c2                	slli	a5,a5,0x10
20012920:	83c1                	srli	a5,a5,0x10
20012922:	bf7d                	j	200128e0 <_printf_i+0x18c>
20012924:	4821                	li	a6,8
20012926:	bf31                	j	20012842 <_printf_i+0xee>
20012928:	4190                	lw	a2,0(a1)
2001292a:	431c                	lw	a5,0(a4)
2001292c:	49cc                	lw	a1,20(a1)
2001292e:	08067813          	andi	a6,a2,128
20012932:	00478513          	addi	a0,a5,4
20012936:	00080663          	beqz	a6,20012942 <_printf_i+0x1ee>
2001293a:	c308                	sw	a0,0(a4)
2001293c:	439c                	lw	a5,0(a5)
2001293e:	c38c                	sw	a1,0(a5)
20012940:	a801                	j	20012950 <_printf_i+0x1fc>
20012942:	c308                	sw	a0,0(a4)
20012944:	04067613          	andi	a2,a2,64
20012948:	439c                	lw	a5,0(a5)
2001294a:	da75                	beqz	a2,2001293e <_printf_i+0x1ea>
2001294c:	00b79023          	sh	a1,0(a5)
20012950:	00042823          	sw	zero,16(s0)
20012954:	8ab6                	mv	s5,a3
20012956:	b791                	j	2001289a <_printf_i+0x146>
20012958:	431c                	lw	a5,0(a4)
2001295a:	41d0                	lw	a2,4(a1)
2001295c:	4581                	li	a1,0
2001295e:	00478693          	addi	a3,a5,4
20012962:	c314                	sw	a3,0(a4)
20012964:	0007aa83          	lw	s5,0(a5)
20012968:	8556                	mv	a0,s5
2001296a:	31c1                	jal	2001262a <memchr>
2001296c:	c501                	beqz	a0,20012974 <_printf_i+0x220>
2001296e:	41550533          	sub	a0,a0,s5
20012972:	c048                	sw	a0,4(s0)
20012974:	405c                	lw	a5,4(s0)
20012976:	c81c                	sw	a5,16(s0)
20012978:	040401a3          	sb	zero,67(s0)
2001297c:	bf39                	j	2001289a <_printf_i+0x146>
2001297e:	4814                	lw	a3,16(s0)
20012980:	8656                	mv	a2,s5
20012982:	85ca                	mv	a1,s2
20012984:	8526                	mv	a0,s1
20012986:	9982                	jalr	s3
20012988:	f34502e3          	beq	a0,s4,200128ac <_printf_i+0x158>
2001298c:	401c                	lw	a5,0(s0)
2001298e:	8b89                	andi	a5,a5,2
20012990:	e78d                	bnez	a5,200129ba <_printf_i+0x266>
20012992:	47b2                	lw	a5,12(sp)
20012994:	4448                	lw	a0,12(s0)
20012996:	f0f55ce3          	bge	a0,a5,200128ae <_printf_i+0x15a>
2001299a:	853e                	mv	a0,a5
2001299c:	bf09                	j	200128ae <_printf_i+0x15a>
2001299e:	4685                	li	a3,1
200129a0:	8656                	mv	a2,s5
200129a2:	85ca                	mv	a1,s2
200129a4:	8526                	mv	a0,s1
200129a6:	9982                	jalr	s3
200129a8:	f16502e3          	beq	a0,s6,200128ac <_printf_i+0x158>
200129ac:	0a05                	addi	s4,s4,1
200129ae:	445c                	lw	a5,12(s0)
200129b0:	4732                	lw	a4,12(sp)
200129b2:	8f99                	sub	a5,a5,a4
200129b4:	fefa45e3          	blt	s4,a5,2001299e <_printf_i+0x24a>
200129b8:	bfe9                	j	20012992 <_printf_i+0x23e>
200129ba:	4a01                	li	s4,0
200129bc:	01940a93          	addi	s5,s0,25
200129c0:	5b7d                	li	s6,-1
200129c2:	b7f5                	j	200129ae <_printf_i+0x25a>

200129c4 <_read_r>:
_read_r():
200129c4:	1141                	addi	sp,sp,-16
200129c6:	c422                	sw	s0,8(sp)
200129c8:	842a                	mv	s0,a0
200129ca:	852e                	mv	a0,a1
200129cc:	85b2                	mv	a1,a2
200129ce:	8636                	mv	a2,a3
200129d0:	5ffee797          	auipc	a5,0x5ffee
200129d4:	1007a023          	sw	zero,256(a5) # 80000ad0 <errno>
200129d8:	c606                	sw	ra,12(sp)
200129da:	56c050ef          	jal	ra,20017f46 <_read>
200129de:	57fd                	li	a5,-1
200129e0:	00f51863          	bne	a0,a5,200129f0 <_read_r+0x2c>
200129e4:	5ffee797          	auipc	a5,0x5ffee
200129e8:	0ec7a783          	lw	a5,236(a5) # 80000ad0 <errno>
200129ec:	c391                	beqz	a5,200129f0 <_read_r+0x2c>
200129ee:	c01c                	sw	a5,0(s0)
200129f0:	40b2                	lw	ra,12(sp)
200129f2:	4422                	lw	s0,8(sp)
200129f4:	0141                	addi	sp,sp,16
200129f6:	8082                	ret

200129f8 <__divdf3>:
__divdf3():
/home/scratch/jenkins/workspace/tpp-freedom-tools/tpp04--build-binary-packages--parameterized/obj/x86_64-linux-centos6/build/riscv64-unknown-elf-gcc/build-gcc-stage2/riscv64-unknown-elf/rv32imac/ilp32/libgcc/../../../../../riscv-gcc/libgcc/soft-fp/divdf3.c:36
200129f8:	7179                	addi	sp,sp,-48
200129fa:	d04a                	sw	s2,32(sp)
/home/scratch/jenkins/workspace/tpp-freedom-tools/tpp04--build-binary-packages--parameterized/obj/x86_64-linux-centos6/build/riscv64-unknown-elf-gcc/build-gcc-stage2/riscv64-unknown-elf/rv32imac/ilp32/libgcc/../../../../../riscv-gcc/libgcc/soft-fp/divdf3.c:44
200129fc:	0145d913          	srli	s2,a1,0x14
/home/scratch/jenkins/workspace/tpp-freedom-tools/tpp04--build-binary-packages--parameterized/obj/x86_64-linux-centos6/build/riscv64-unknown-elf-gcc/build-gcc-stage2/riscv64-unknown-elf/rv32imac/ilp32/libgcc/../../../../../riscv-gcc/libgcc/soft-fp/divdf3.c:36
20012a00:	d226                	sw	s1,36(sp)
20012a02:	ce4e                	sw	s3,28(sp)
20012a04:	cc52                	sw	s4,24(sp)
20012a06:	c85a                	sw	s6,16(sp)
20012a08:	c462                	sw	s8,8(sp)
/home/scratch/jenkins/workspace/tpp-freedom-tools/tpp04--build-binary-packages--parameterized/obj/x86_64-linux-centos6/build/riscv64-unknown-elf-gcc/build-gcc-stage2/riscv64-unknown-elf/rv32imac/ilp32/libgcc/../../../../../riscv-gcc/libgcc/soft-fp/divdf3.c:44
20012a0a:	00c59493          	slli	s1,a1,0xc
/home/scratch/jenkins/workspace/tpp-freedom-tools/tpp04--build-binary-packages--parameterized/obj/x86_64-linux-centos6/build/riscv64-unknown-elf-gcc/build-gcc-stage2/riscv64-unknown-elf/rv32imac/ilp32/libgcc/../../../../../riscv-gcc/libgcc/soft-fp/divdf3.c:36
20012a0e:	d606                	sw	ra,44(sp)
20012a10:	d422                	sw	s0,40(sp)
20012a12:	ca56                	sw	s5,20(sp)
20012a14:	c65e                	sw	s7,12(sp)
/home/scratch/jenkins/workspace/tpp-freedom-tools/tpp04--build-binary-packages--parameterized/obj/x86_64-linux-centos6/build/riscv64-unknown-elf-gcc/build-gcc-stage2/riscv64-unknown-elf/rv32imac/ilp32/libgcc/../../../../../riscv-gcc/libgcc/soft-fp/divdf3.c:44
20012a16:	7ff97913          	andi	s2,s2,2047
/home/scratch/jenkins/workspace/tpp-freedom-tools/tpp04--build-binary-packages--parameterized/obj/x86_64-linux-centos6/build/riscv64-unknown-elf-gcc/build-gcc-stage2/riscv64-unknown-elf/rv32imac/ilp32/libgcc/../../../../../riscv-gcc/libgcc/soft-fp/divdf3.c:36
20012a1a:	8a2a                	mv	s4,a0
20012a1c:	8b32                	mv	s6,a2
20012a1e:	8c36                	mv	s8,a3
/home/scratch/jenkins/workspace/tpp-freedom-tools/tpp04--build-binary-packages--parameterized/obj/x86_64-linux-centos6/build/riscv64-unknown-elf-gcc/build-gcc-stage2/riscv64-unknown-elf/rv32imac/ilp32/libgcc/../../../../../riscv-gcc/libgcc/soft-fp/divdf3.c:44
20012a20:	80b1                	srli	s1,s1,0xc
20012a22:	01f5d993          	srli	s3,a1,0x1f
20012a26:	08090463          	beqz	s2,20012aae <__divdf3+0xb6>
20012a2a:	7ff00793          	li	a5,2047
20012a2e:	0cf90a63          	beq	s2,a5,20012b02 <__divdf3+0x10a>
/home/scratch/jenkins/workspace/tpp-freedom-tools/tpp04--build-binary-packages--parameterized/obj/x86_64-linux-centos6/build/riscv64-unknown-elf-gcc/build-gcc-stage2/riscv64-unknown-elf/rv32imac/ilp32/libgcc/../../../../../riscv-gcc/libgcc/soft-fp/divdf3.c:44 (discriminator 1)
20012a32:	01d55a93          	srli	s5,a0,0x1d
20012a36:	048e                	slli	s1,s1,0x3
20012a38:	009ae4b3          	or	s1,s5,s1
20012a3c:	00800ab7          	lui	s5,0x800
20012a40:	0154eab3          	or	s5,s1,s5
20012a44:	00351413          	slli	s0,a0,0x3
20012a48:	c0190913          	addi	s2,s2,-1023
/home/scratch/jenkins/workspace/tpp-freedom-tools/tpp04--build-binary-packages--parameterized/obj/x86_64-linux-centos6/build/riscv64-unknown-elf-gcc/build-gcc-stage2/riscv64-unknown-elf/rv32imac/ilp32/libgcc/../../../../../riscv-gcc/libgcc/soft-fp/divdf3.c:44 (discriminator 41)
20012a4c:	4b81                	li	s7,0
/home/scratch/jenkins/workspace/tpp-freedom-tools/tpp04--build-binary-packages--parameterized/obj/x86_64-linux-centos6/build/riscv64-unknown-elf-gcc/build-gcc-stage2/riscv64-unknown-elf/rv32imac/ilp32/libgcc/../../../../../riscv-gcc/libgcc/soft-fp/divdf3.c:45 (discriminator 8)
20012a4e:	00cc1513          	slli	a0,s8,0xc
20012a52:	00c55493          	srli	s1,a0,0xc
20012a56:	014c5513          	srli	a0,s8,0x14
20012a5a:	7ff57593          	andi	a1,a0,2047
20012a5e:	01fc5c13          	srli	s8,s8,0x1f
20012a62:	c1f9                	beqz	a1,20012b28 <__divdf3+0x130>
/home/scratch/jenkins/workspace/tpp-freedom-tools/tpp04--build-binary-packages--parameterized/obj/x86_64-linux-centos6/build/riscv64-unknown-elf-gcc/build-gcc-stage2/riscv64-unknown-elf/rv32imac/ilp32/libgcc/../../../../../riscv-gcc/libgcc/soft-fp/divdf3.c:45
20012a64:	7ff00793          	li	a5,2047
20012a68:	10f58b63          	beq	a1,a5,20012b7e <__divdf3+0x186>
/home/scratch/jenkins/workspace/tpp-freedom-tools/tpp04--build-binary-packages--parameterized/obj/x86_64-linux-centos6/build/riscv64-unknown-elf-gcc/build-gcc-stage2/riscv64-unknown-elf/rv32imac/ilp32/libgcc/../../../../../riscv-gcc/libgcc/soft-fp/divdf3.c:45 (discriminator 1)
20012a6c:	00349513          	slli	a0,s1,0x3
20012a70:	01db5793          	srli	a5,s6,0x1d
20012a74:	8d5d                	or	a0,a0,a5
20012a76:	008004b7          	lui	s1,0x800
20012a7a:	8cc9                	or	s1,s1,a0
20012a7c:	003b1f93          	slli	t6,s6,0x3
20012a80:	c0158513          	addi	a0,a1,-1023
/home/scratch/jenkins/workspace/tpp-freedom-tools/tpp04--build-binary-packages--parameterized/obj/x86_64-linux-centos6/build/riscv64-unknown-elf-gcc/build-gcc-stage2/riscv64-unknown-elf/rv32imac/ilp32/libgcc/../../../../../riscv-gcc/libgcc/soft-fp/divdf3.c:45 (discriminator 41)
20012a84:	4781                	li	a5,0
/home/scratch/jenkins/workspace/tpp-freedom-tools/tpp04--build-binary-packages--parameterized/obj/x86_64-linux-centos6/build/riscv64-unknown-elf-gcc/build-gcc-stage2/riscv64-unknown-elf/rv32imac/ilp32/libgcc/../../../../../riscv-gcc/libgcc/soft-fp/divdf3.c:46 (discriminator 8)
20012a86:	002b9713          	slli	a4,s7,0x2
20012a8a:	8f5d                	or	a4,a4,a5
20012a8c:	177d                	addi	a4,a4,-1
20012a8e:	4639                	li	a2,14
20012a90:	0189c6b3          	xor	a3,s3,s8
20012a94:	40a905b3          	sub	a1,s2,a0
20012a98:	10e66563          	bltu	a2,a4,20012ba2 <__divdf3+0x1aa>
20012a9c:	ffffe617          	auipc	a2,0xffffe
20012aa0:	ad860613          	addi	a2,a2,-1320 # 20010574 <__sf_fake_stdout+0xb4>
20012aa4:	070a                	slli	a4,a4,0x2
20012aa6:	9732                	add	a4,a4,a2
20012aa8:	4318                	lw	a4,0(a4)
20012aaa:	9732                	add	a4,a4,a2
20012aac:	8702                	jr	a4
/home/scratch/jenkins/workspace/tpp-freedom-tools/tpp04--build-binary-packages--parameterized/obj/x86_64-linux-centos6/build/riscv64-unknown-elf-gcc/build-gcc-stage2/riscv64-unknown-elf/rv32imac/ilp32/libgcc/../../../../../riscv-gcc/libgcc/soft-fp/divdf3.c:44 (discriminator 2)
20012aae:	00a4eab3          	or	s5,s1,a0
20012ab2:	060a8263          	beqz	s5,20012b16 <__divdf3+0x11e>
/home/scratch/jenkins/workspace/tpp-freedom-tools/tpp04--build-binary-packages--parameterized/obj/x86_64-linux-centos6/build/riscv64-unknown-elf-gcc/build-gcc-stage2/riscv64-unknown-elf/rv32imac/ilp32/libgcc/../../../../../riscv-gcc/libgcc/soft-fp/divdf3.c:44 (discriminator 13)
20012ab6:	c89d                	beqz	s1,20012aec <__divdf3+0xf4>
/home/scratch/jenkins/workspace/tpp-freedom-tools/tpp04--build-binary-packages--parameterized/obj/x86_64-linux-centos6/build/riscv64-unknown-elf-gcc/build-gcc-stage2/riscv64-unknown-elf/rv32imac/ilp32/libgcc/../../../../../riscv-gcc/libgcc/soft-fp/divdf3.c:44 (discriminator 17)
20012ab8:	8526                	mv	a0,s1
20012aba:	17f000ef          	jal	ra,20013438 <__clzsi2>
/home/scratch/jenkins/workspace/tpp-freedom-tools/tpp04--build-binary-packages--parameterized/obj/x86_64-linux-centos6/build/riscv64-unknown-elf-gcc/build-gcc-stage2/riscv64-unknown-elf/rv32imac/ilp32/libgcc/../../../../../riscv-gcc/libgcc/soft-fp/divdf3.c:44 (discriminator 31)
20012abe:	ff550793          	addi	a5,a0,-11
20012ac2:	4771                	li	a4,28
20012ac4:	02f74963          	blt	a4,a5,20012af6 <__divdf3+0xfe>
/home/scratch/jenkins/workspace/tpp-freedom-tools/tpp04--build-binary-packages--parameterized/obj/x86_64-linux-centos6/build/riscv64-unknown-elf-gcc/build-gcc-stage2/riscv64-unknown-elf/rv32imac/ilp32/libgcc/../../../../../riscv-gcc/libgcc/soft-fp/divdf3.c:44 (discriminator 32)
20012ac8:	4af5                	li	s5,29
20012aca:	ff850413          	addi	s0,a0,-8
20012ace:	40fa8ab3          	sub	s5,s5,a5
20012ad2:	008494b3          	sll	s1,s1,s0
20012ad6:	015a5ab3          	srl	s5,s4,s5
20012ada:	009aeab3          	or	s5,s5,s1
20012ade:	008a1433          	sll	s0,s4,s0
/home/scratch/jenkins/workspace/tpp-freedom-tools/tpp04--build-binary-packages--parameterized/obj/x86_64-linux-centos6/build/riscv64-unknown-elf-gcc/build-gcc-stage2/riscv64-unknown-elf/rv32imac/ilp32/libgcc/../../../../../riscv-gcc/libgcc/soft-fp/divdf3.c:44 (discriminator 41)
20012ae2:	c0d00593          	li	a1,-1011
20012ae6:	40a58933          	sub	s2,a1,a0
20012aea:	b78d                	j	20012a4c <__divdf3+0x54>
/home/scratch/jenkins/workspace/tpp-freedom-tools/tpp04--build-binary-packages--parameterized/obj/x86_64-linux-centos6/build/riscv64-unknown-elf-gcc/build-gcc-stage2/riscv64-unknown-elf/rv32imac/ilp32/libgcc/../../../../../riscv-gcc/libgcc/soft-fp/divdf3.c:44 (discriminator 24)
20012aec:	14d000ef          	jal	ra,20013438 <__clzsi2>
20012af0:	02050513          	addi	a0,a0,32
20012af4:	b7e9                	j	20012abe <__divdf3+0xc6>
/home/scratch/jenkins/workspace/tpp-freedom-tools/tpp04--build-binary-packages--parameterized/obj/x86_64-linux-centos6/build/riscv64-unknown-elf-gcc/build-gcc-stage2/riscv64-unknown-elf/rv32imac/ilp32/libgcc/../../../../../riscv-gcc/libgcc/soft-fp/divdf3.c:44 (discriminator 33)
20012af6:	fd850493          	addi	s1,a0,-40
20012afa:	009a1ab3          	sll	s5,s4,s1
20012afe:	4401                	li	s0,0
20012b00:	b7cd                	j	20012ae2 <__divdf3+0xea>
/home/scratch/jenkins/workspace/tpp-freedom-tools/tpp04--build-binary-packages--parameterized/obj/x86_64-linux-centos6/build/riscv64-unknown-elf-gcc/build-gcc-stage2/riscv64-unknown-elf/rv32imac/ilp32/libgcc/../../../../../riscv-gcc/libgcc/soft-fp/divdf3.c:44 (discriminator 3)
20012b02:	00a4eab3          	or	s5,s1,a0
20012b06:	000a8c63          	beqz	s5,20012b1e <__divdf3+0x126>
20012b0a:	842a                	mv	s0,a0
/home/scratch/jenkins/workspace/tpp-freedom-tools/tpp04--build-binary-packages--parameterized/obj/x86_64-linux-centos6/build/riscv64-unknown-elf-gcc/build-gcc-stage2/riscv64-unknown-elf/rv32imac/ilp32/libgcc/../../../../../riscv-gcc/libgcc/soft-fp/divdf3.c:44
20012b0c:	8aa6                	mv	s5,s1
20012b0e:	7ff00913          	li	s2,2047
20012b12:	4b8d                	li	s7,3
20012b14:	bf2d                	j	20012a4e <__divdf3+0x56>
20012b16:	4401                	li	s0,0
20012b18:	4901                	li	s2,0
20012b1a:	4b85                	li	s7,1
20012b1c:	bf0d                	j	20012a4e <__divdf3+0x56>
20012b1e:	4401                	li	s0,0
20012b20:	7ff00913          	li	s2,2047
20012b24:	4b89                	li	s7,2
20012b26:	b725                	j	20012a4e <__divdf3+0x56>
/home/scratch/jenkins/workspace/tpp-freedom-tools/tpp04--build-binary-packages--parameterized/obj/x86_64-linux-centos6/build/riscv64-unknown-elf-gcc/build-gcc-stage2/riscv64-unknown-elf/rv32imac/ilp32/libgcc/../../../../../riscv-gcc/libgcc/soft-fp/divdf3.c:45 (discriminator 2)
20012b28:	0164efb3          	or	t6,s1,s6
20012b2c:	060f8263          	beqz	t6,20012b90 <__divdf3+0x198>
/home/scratch/jenkins/workspace/tpp-freedom-tools/tpp04--build-binary-packages--parameterized/obj/x86_64-linux-centos6/build/riscv64-unknown-elf-gcc/build-gcc-stage2/riscv64-unknown-elf/rv32imac/ilp32/libgcc/../../../../../riscv-gcc/libgcc/soft-fp/divdf3.c:45 (discriminator 13)
20012b30:	c89d                	beqz	s1,20012b66 <__divdf3+0x16e>
/home/scratch/jenkins/workspace/tpp-freedom-tools/tpp04--build-binary-packages--parameterized/obj/x86_64-linux-centos6/build/riscv64-unknown-elf-gcc/build-gcc-stage2/riscv64-unknown-elf/rv32imac/ilp32/libgcc/../../../../../riscv-gcc/libgcc/soft-fp/divdf3.c:45 (discriminator 17)
20012b32:	8526                	mv	a0,s1
20012b34:	105000ef          	jal	ra,20013438 <__clzsi2>
20012b38:	85aa                	mv	a1,a0
/home/scratch/jenkins/workspace/tpp-freedom-tools/tpp04--build-binary-packages--parameterized/obj/x86_64-linux-centos6/build/riscv64-unknown-elf-gcc/build-gcc-stage2/riscv64-unknown-elf/rv32imac/ilp32/libgcc/../../../../../riscv-gcc/libgcc/soft-fp/divdf3.c:45 (discriminator 31)
20012b3a:	ff558793          	addi	a5,a1,-11
20012b3e:	4771                	li	a4,28
20012b40:	02f74963          	blt	a4,a5,20012b72 <__divdf3+0x17a>
/home/scratch/jenkins/workspace/tpp-freedom-tools/tpp04--build-binary-packages--parameterized/obj/x86_64-linux-centos6/build/riscv64-unknown-elf-gcc/build-gcc-stage2/riscv64-unknown-elf/rv32imac/ilp32/libgcc/../../../../../riscv-gcc/libgcc/soft-fp/divdf3.c:45 (discriminator 32)
20012b44:	46f5                	li	a3,29
20012b46:	ff858f93          	addi	t6,a1,-8
20012b4a:	8e9d                	sub	a3,a3,a5
20012b4c:	01f49533          	sll	a0,s1,t6
20012b50:	00db56b3          	srl	a3,s6,a3
20012b54:	00a6e4b3          	or	s1,a3,a0
20012b58:	01fb1fb3          	sll	t6,s6,t6
/home/scratch/jenkins/workspace/tpp-freedom-tools/tpp04--build-binary-packages--parameterized/obj/x86_64-linux-centos6/build/riscv64-unknown-elf-gcc/build-gcc-stage2/riscv64-unknown-elf/rv32imac/ilp32/libgcc/../../../../../riscv-gcc/libgcc/soft-fp/divdf3.c:45 (discriminator 41)
20012b5c:	c0d00693          	li	a3,-1011
20012b60:	40b68533          	sub	a0,a3,a1
20012b64:	b705                	j	20012a84 <__divdf3+0x8c>
/home/scratch/jenkins/workspace/tpp-freedom-tools/tpp04--build-binary-packages--parameterized/obj/x86_64-linux-centos6/build/riscv64-unknown-elf-gcc/build-gcc-stage2/riscv64-unknown-elf/rv32imac/ilp32/libgcc/../../../../../riscv-gcc/libgcc/soft-fp/divdf3.c:45 (discriminator 24)
20012b66:	855a                	mv	a0,s6
20012b68:	0d1000ef          	jal	ra,20013438 <__clzsi2>
20012b6c:	02050593          	addi	a1,a0,32
20012b70:	b7e9                	j	20012b3a <__divdf3+0x142>
/home/scratch/jenkins/workspace/tpp-freedom-tools/tpp04--build-binary-packages--parameterized/obj/x86_64-linux-centos6/build/riscv64-unknown-elf-gcc/build-gcc-stage2/riscv64-unknown-elf/rv32imac/ilp32/libgcc/../../../../../riscv-gcc/libgcc/soft-fp/divdf3.c:45 (discriminator 33)
20012b72:	fd858513          	addi	a0,a1,-40
20012b76:	00ab14b3          	sll	s1,s6,a0
20012b7a:	4f81                	li	t6,0
20012b7c:	b7c5                	j	20012b5c <__divdf3+0x164>
/home/scratch/jenkins/workspace/tpp-freedom-tools/tpp04--build-binary-packages--parameterized/obj/x86_64-linux-centos6/build/riscv64-unknown-elf-gcc/build-gcc-stage2/riscv64-unknown-elf/rv32imac/ilp32/libgcc/../../../../../riscv-gcc/libgcc/soft-fp/divdf3.c:45 (discriminator 3)
20012b7e:	0164efb3          	or	t6,s1,s6
20012b82:	000f8b63          	beqz	t6,20012b98 <__divdf3+0x1a0>
/home/scratch/jenkins/workspace/tpp-freedom-tools/tpp04--build-binary-packages--parameterized/obj/x86_64-linux-centos6/build/riscv64-unknown-elf-gcc/build-gcc-stage2/riscv64-unknown-elf/rv32imac/ilp32/libgcc/../../../../../riscv-gcc/libgcc/soft-fp/divdf3.c:45
20012b86:	8fda                	mv	t6,s6
20012b88:	7ff00513          	li	a0,2047
20012b8c:	478d                	li	a5,3
20012b8e:	bde5                	j	20012a86 <__divdf3+0x8e>
20012b90:	4481                	li	s1,0
20012b92:	4501                	li	a0,0
20012b94:	4785                	li	a5,1
20012b96:	bdc5                	j	20012a86 <__divdf3+0x8e>
20012b98:	4481                	li	s1,0
20012b9a:	7ff00513          	li	a0,2047
20012b9e:	4789                	li	a5,2
20012ba0:	b5dd                	j	20012a86 <__divdf3+0x8e>
/home/scratch/jenkins/workspace/tpp-freedom-tools/tpp04--build-binary-packages--parameterized/obj/x86_64-linux-centos6/build/riscv64-unknown-elf-gcc/build-gcc-stage2/riscv64-unknown-elf/rv32imac/ilp32/libgcc/../../../../../riscv-gcc/libgcc/soft-fp/divdf3.c:46 (discriminator 2)
20012ba2:	0154e663          	bltu	s1,s5,20012bae <__divdf3+0x1b6>
/home/scratch/jenkins/workspace/tpp-freedom-tools/tpp04--build-binary-packages--parameterized/obj/x86_64-linux-centos6/build/riscv64-unknown-elf-gcc/build-gcc-stage2/riscv64-unknown-elf/rv32imac/ilp32/libgcc/../../../../../riscv-gcc/libgcc/soft-fp/divdf3.c:46 (discriminator 11)
20012ba6:	2a9a9663          	bne	s5,s1,20012e52 <__divdf3+0x45a>
/home/scratch/jenkins/workspace/tpp-freedom-tools/tpp04--build-binary-packages--parameterized/obj/x86_64-linux-centos6/build/riscv64-unknown-elf-gcc/build-gcc-stage2/riscv64-unknown-elf/rv32imac/ilp32/libgcc/../../../../../riscv-gcc/libgcc/soft-fp/divdf3.c:46 (discriminator 12)
20012baa:	2bf46463          	bltu	s0,t6,20012e52 <__divdf3+0x45a>
/home/scratch/jenkins/workspace/tpp-freedom-tools/tpp04--build-binary-packages--parameterized/obj/x86_64-linux-centos6/build/riscv64-unknown-elf-gcc/build-gcc-stage2/riscv64-unknown-elf/rv32imac/ilp32/libgcc/../../../../../riscv-gcc/libgcc/soft-fp/divdf3.c:46 (discriminator 14)
20012bae:	01fa9613          	slli	a2,s5,0x1f
20012bb2:	00145713          	srli	a4,s0,0x1
20012bb6:	01f41793          	slli	a5,s0,0x1f
20012bba:	001ada93          	srli	s5,s5,0x1
20012bbe:	00e66433          	or	s0,a2,a4
/home/scratch/jenkins/workspace/tpp-freedom-tools/tpp04--build-binary-packages--parameterized/obj/x86_64-linux-centos6/build/riscv64-unknown-elf-gcc/build-gcc-stage2/riscv64-unknown-elf/rv32imac/ilp32/libgcc/../../../../../riscv-gcc/libgcc/soft-fp/divdf3.c:46 (discriminator 19)
20012bc2:	00849513          	slli	a0,s1,0x8
20012bc6:	018fd893          	srli	a7,t6,0x18
20012bca:	00a8e8b3          	or	a7,a7,a0
20012bce:	8141                	srli	a0,a0,0x10
20012bd0:	02aade33          	divu	t3,s5,a0
20012bd4:	01089e93          	slli	t4,a7,0x10
20012bd8:	010ede93          	srli	t4,t4,0x10
20012bdc:	01045713          	srli	a4,s0,0x10
20012be0:	008f9313          	slli	t1,t6,0x8
20012be4:	02aafab3          	remu	s5,s5,a0
20012be8:	8672                	mv	a2,t3
20012bea:	03ce8833          	mul	a6,t4,t3
20012bee:	0ac2                	slli	s5,s5,0x10
20012bf0:	01576733          	or	a4,a4,s5
20012bf4:	01077c63          	bgeu	a4,a6,20012c0c <__divdf3+0x214>
/home/scratch/jenkins/workspace/tpp-freedom-tools/tpp04--build-binary-packages--parameterized/obj/x86_64-linux-centos6/build/riscv64-unknown-elf-gcc/build-gcc-stage2/riscv64-unknown-elf/rv32imac/ilp32/libgcc/../../../../../riscv-gcc/libgcc/soft-fp/divdf3.c:46 (discriminator 22)
20012bf8:	9746                	add	a4,a4,a7
20012bfa:	fffe0613          	addi	a2,t3,-1
20012bfe:	01176763          	bltu	a4,a7,20012c0c <__divdf3+0x214>
/home/scratch/jenkins/workspace/tpp-freedom-tools/tpp04--build-binary-packages--parameterized/obj/x86_64-linux-centos6/build/riscv64-unknown-elf-gcc/build-gcc-stage2/riscv64-unknown-elf/rv32imac/ilp32/libgcc/../../../../../riscv-gcc/libgcc/soft-fp/divdf3.c:46 (discriminator 24)
20012c02:	01077563          	bgeu	a4,a6,20012c0c <__divdf3+0x214>
/home/scratch/jenkins/workspace/tpp-freedom-tools/tpp04--build-binary-packages--parameterized/obj/x86_64-linux-centos6/build/riscv64-unknown-elf-gcc/build-gcc-stage2/riscv64-unknown-elf/rv32imac/ilp32/libgcc/../../../../../riscv-gcc/libgcc/soft-fp/divdf3.c:46 (discriminator 26)
20012c06:	ffee0613          	addi	a2,t3,-2
20012c0a:	9746                	add	a4,a4,a7
/home/scratch/jenkins/workspace/tpp-freedom-tools/tpp04--build-binary-packages--parameterized/obj/x86_64-linux-centos6/build/riscv64-unknown-elf-gcc/build-gcc-stage2/riscv64-unknown-elf/rv32imac/ilp32/libgcc/../../../../../riscv-gcc/libgcc/soft-fp/divdf3.c:46 (discriminator 28)
20012c0c:	41070733          	sub	a4,a4,a6
20012c10:	02a75e33          	divu	t3,a4,a0
20012c14:	0442                	slli	s0,s0,0x10
20012c16:	8041                	srli	s0,s0,0x10
20012c18:	02a77733          	remu	a4,a4,a0
20012c1c:	82f2                	mv	t0,t3
20012c1e:	03ce8833          	mul	a6,t4,t3
20012c22:	0742                	slli	a4,a4,0x10
20012c24:	8f41                	or	a4,a4,s0
20012c26:	01077c63          	bgeu	a4,a6,20012c3e <__divdf3+0x246>
/home/scratch/jenkins/workspace/tpp-freedom-tools/tpp04--build-binary-packages--parameterized/obj/x86_64-linux-centos6/build/riscv64-unknown-elf-gcc/build-gcc-stage2/riscv64-unknown-elf/rv32imac/ilp32/libgcc/../../../../../riscv-gcc/libgcc/soft-fp/divdf3.c:46 (discriminator 29)
20012c2a:	9746                	add	a4,a4,a7
20012c2c:	fffe0293          	addi	t0,t3,-1
20012c30:	01176763          	bltu	a4,a7,20012c3e <__divdf3+0x246>
/home/scratch/jenkins/workspace/tpp-freedom-tools/tpp04--build-binary-packages--parameterized/obj/x86_64-linux-centos6/build/riscv64-unknown-elf-gcc/build-gcc-stage2/riscv64-unknown-elf/rv32imac/ilp32/libgcc/../../../../../riscv-gcc/libgcc/soft-fp/divdf3.c:46 (discriminator 31)
20012c34:	01077563          	bgeu	a4,a6,20012c3e <__divdf3+0x246>
/home/scratch/jenkins/workspace/tpp-freedom-tools/tpp04--build-binary-packages--parameterized/obj/x86_64-linux-centos6/build/riscv64-unknown-elf-gcc/build-gcc-stage2/riscv64-unknown-elf/rv32imac/ilp32/libgcc/../../../../../riscv-gcc/libgcc/soft-fp/divdf3.c:46 (discriminator 33)
20012c38:	ffee0293          	addi	t0,t3,-2
20012c3c:	9746                	add	a4,a4,a7
/home/scratch/jenkins/workspace/tpp-freedom-tools/tpp04--build-binary-packages--parameterized/obj/x86_64-linux-centos6/build/riscv64-unknown-elf-gcc/build-gcc-stage2/riscv64-unknown-elf/rv32imac/ilp32/libgcc/../../../../../riscv-gcc/libgcc/soft-fp/divdf3.c:46 (discriminator 35)
20012c3e:	41070433          	sub	s0,a4,a6
20012c42:	0642                	slli	a2,a2,0x10
20012c44:	6841                	lui	a6,0x10
20012c46:	005662b3          	or	t0,a2,t0
20012c4a:	fff80e13          	addi	t3,a6,-1 # ffff <__heap_size+0xf7ff>
20012c4e:	0102d613          	srli	a2,t0,0x10
20012c52:	01c2f733          	and	a4,t0,t3
20012c56:	01035f13          	srli	t5,t1,0x10
20012c5a:	01c37e33          	and	t3,t1,t3
20012c5e:	02ee03b3          	mul	t2,t3,a4
20012c62:	03c604b3          	mul	s1,a2,t3
20012c66:	02ef0733          	mul	a4,t5,a4
20012c6a:	03e60fb3          	mul	t6,a2,t5
20012c6e:	00970633          	add	a2,a4,s1
20012c72:	0103d713          	srli	a4,t2,0x10
20012c76:	9732                	add	a4,a4,a2
20012c78:	00977363          	bgeu	a4,s1,20012c7e <__divdf3+0x286>
/home/scratch/jenkins/workspace/tpp-freedom-tools/tpp04--build-binary-packages--parameterized/obj/x86_64-linux-centos6/build/riscv64-unknown-elf-gcc/build-gcc-stage2/riscv64-unknown-elf/rv32imac/ilp32/libgcc/../../../../../riscv-gcc/libgcc/soft-fp/divdf3.c:46 (discriminator 36)
20012c7c:	9fc2                	add	t6,t6,a6
/home/scratch/jenkins/workspace/tpp-freedom-tools/tpp04--build-binary-packages--parameterized/obj/x86_64-linux-centos6/build/riscv64-unknown-elf-gcc/build-gcc-stage2/riscv64-unknown-elf/rv32imac/ilp32/libgcc/../../../../../riscv-gcc/libgcc/soft-fp/divdf3.c:46 (discriminator 38)
20012c7e:	01075613          	srli	a2,a4,0x10
20012c82:	967e                	add	a2,a2,t6
20012c84:	6fc1                	lui	t6,0x10
20012c86:	1ffd                	addi	t6,t6,-1
20012c88:	01f77833          	and	a6,a4,t6
20012c8c:	0842                	slli	a6,a6,0x10
20012c8e:	01f3f3b3          	and	t2,t2,t6
20012c92:	981e                	add	a6,a6,t2
20012c94:	00c46763          	bltu	s0,a2,20012ca2 <__divdf3+0x2aa>
/home/scratch/jenkins/workspace/tpp-freedom-tools/tpp04--build-binary-packages--parameterized/obj/x86_64-linux-centos6/build/riscv64-unknown-elf-gcc/build-gcc-stage2/riscv64-unknown-elf/rv32imac/ilp32/libgcc/../../../../../riscv-gcc/libgcc/soft-fp/divdf3.c:46 (discriminator 40)
20012c98:	8496                	mv	s1,t0
20012c9a:	02c41e63          	bne	s0,a2,20012cd6 <__divdf3+0x2de>
/home/scratch/jenkins/workspace/tpp-freedom-tools/tpp04--build-binary-packages--parameterized/obj/x86_64-linux-centos6/build/riscv64-unknown-elf-gcc/build-gcc-stage2/riscv64-unknown-elf/rv32imac/ilp32/libgcc/../../../../../riscv-gcc/libgcc/soft-fp/divdf3.c:46 (discriminator 41)
20012c9e:	0307fc63          	bgeu	a5,a6,20012cd6 <__divdf3+0x2de>
/home/scratch/jenkins/workspace/tpp-freedom-tools/tpp04--build-binary-packages--parameterized/obj/x86_64-linux-centos6/build/riscv64-unknown-elf-gcc/build-gcc-stage2/riscv64-unknown-elf/rv32imac/ilp32/libgcc/../../../../../riscv-gcc/libgcc/soft-fp/divdf3.c:46 (discriminator 43)
20012ca2:	979a                	add	a5,a5,t1
20012ca4:	0067b733          	sltu	a4,a5,t1
20012ca8:	9746                	add	a4,a4,a7
20012caa:	943a                	add	s0,s0,a4
20012cac:	fff28493          	addi	s1,t0,-1 # 20011fb1 <memset+0x8d>
20012cb0:	0088e663          	bltu	a7,s0,20012cbc <__divdf3+0x2c4>
/home/scratch/jenkins/workspace/tpp-freedom-tools/tpp04--build-binary-packages--parameterized/obj/x86_64-linux-centos6/build/riscv64-unknown-elf-gcc/build-gcc-stage2/riscv64-unknown-elf/rv32imac/ilp32/libgcc/../../../../../riscv-gcc/libgcc/soft-fp/divdf3.c:46 (discriminator 46)
20012cb4:	02889163          	bne	a7,s0,20012cd6 <__divdf3+0x2de>
/home/scratch/jenkins/workspace/tpp-freedom-tools/tpp04--build-binary-packages--parameterized/obj/x86_64-linux-centos6/build/riscv64-unknown-elf-gcc/build-gcc-stage2/riscv64-unknown-elf/rv32imac/ilp32/libgcc/../../../../../riscv-gcc/libgcc/soft-fp/divdf3.c:46 (discriminator 47)
20012cb8:	0067ef63          	bltu	a5,t1,20012cd6 <__divdf3+0x2de>
/home/scratch/jenkins/workspace/tpp-freedom-tools/tpp04--build-binary-packages--parameterized/obj/x86_64-linux-centos6/build/riscv64-unknown-elf-gcc/build-gcc-stage2/riscv64-unknown-elf/rv32imac/ilp32/libgcc/../../../../../riscv-gcc/libgcc/soft-fp/divdf3.c:46 (discriminator 49)
20012cbc:	00c46663          	bltu	s0,a2,20012cc8 <__divdf3+0x2d0>
/home/scratch/jenkins/workspace/tpp-freedom-tools/tpp04--build-binary-packages--parameterized/obj/x86_64-linux-centos6/build/riscv64-unknown-elf-gcc/build-gcc-stage2/riscv64-unknown-elf/rv32imac/ilp32/libgcc/../../../../../riscv-gcc/libgcc/soft-fp/divdf3.c:46 (discriminator 52)
20012cc0:	00861b63          	bne	a2,s0,20012cd6 <__divdf3+0x2de>
/home/scratch/jenkins/workspace/tpp-freedom-tools/tpp04--build-binary-packages--parameterized/obj/x86_64-linux-centos6/build/riscv64-unknown-elf-gcc/build-gcc-stage2/riscv64-unknown-elf/rv32imac/ilp32/libgcc/../../../../../riscv-gcc/libgcc/soft-fp/divdf3.c:46 (discriminator 53)
20012cc4:	0107f963          	bgeu	a5,a6,20012cd6 <__divdf3+0x2de>
/home/scratch/jenkins/workspace/tpp-freedom-tools/tpp04--build-binary-packages--parameterized/obj/x86_64-linux-centos6/build/riscv64-unknown-elf-gcc/build-gcc-stage2/riscv64-unknown-elf/rv32imac/ilp32/libgcc/../../../../../riscv-gcc/libgcc/soft-fp/divdf3.c:46 (discriminator 55)
20012cc8:	979a                	add	a5,a5,t1
20012cca:	0067b733          	sltu	a4,a5,t1
20012cce:	9746                	add	a4,a4,a7
20012cd0:	ffe28493          	addi	s1,t0,-2
20012cd4:	943a                	add	s0,s0,a4
/home/scratch/jenkins/workspace/tpp-freedom-tools/tpp04--build-binary-packages--parameterized/obj/x86_64-linux-centos6/build/riscv64-unknown-elf-gcc/build-gcc-stage2/riscv64-unknown-elf/rv32imac/ilp32/libgcc/../../../../../riscv-gcc/libgcc/soft-fp/divdf3.c:46 (discriminator 57)
20012cd6:	41078833          	sub	a6,a5,a6
20012cda:	8c11                	sub	s0,s0,a2
20012cdc:	0107b7b3          	sltu	a5,a5,a6
20012ce0:	8c1d                	sub	s0,s0,a5
20012ce2:	5ffd                	li	t6,-1
20012ce4:	0e888763          	beq	a7,s0,20012dd2 <__divdf3+0x3da>
/home/scratch/jenkins/workspace/tpp-freedom-tools/tpp04--build-binary-packages--parameterized/obj/x86_64-linux-centos6/build/riscv64-unknown-elf-gcc/build-gcc-stage2/riscv64-unknown-elf/rv32imac/ilp32/libgcc/../../../../../riscv-gcc/libgcc/soft-fp/divdf3.c:46 (discriminator 59)
20012ce8:	02a45fb3          	divu	t6,s0,a0
20012cec:	01085713          	srli	a4,a6,0x10
20012cf0:	02a47433          	remu	s0,s0,a0
20012cf4:	867e                	mv	a2,t6
20012cf6:	03fe87b3          	mul	a5,t4,t6
20012cfa:	0442                	slli	s0,s0,0x10
20012cfc:	8c59                	or	s0,s0,a4
20012cfe:	00f47c63          	bgeu	s0,a5,20012d16 <__divdf3+0x31e>
/home/scratch/jenkins/workspace/tpp-freedom-tools/tpp04--build-binary-packages--parameterized/obj/x86_64-linux-centos6/build/riscv64-unknown-elf-gcc/build-gcc-stage2/riscv64-unknown-elf/rv32imac/ilp32/libgcc/../../../../../riscv-gcc/libgcc/soft-fp/divdf3.c:46 (discriminator 61)
20012d02:	9446                	add	s0,s0,a7
20012d04:	ffff8613          	addi	a2,t6,-1 # ffff <__heap_size+0xf7ff>
20012d08:	01146763          	bltu	s0,a7,20012d16 <__divdf3+0x31e>
/home/scratch/jenkins/workspace/tpp-freedom-tools/tpp04--build-binary-packages--parameterized/obj/x86_64-linux-centos6/build/riscv64-unknown-elf-gcc/build-gcc-stage2/riscv64-unknown-elf/rv32imac/ilp32/libgcc/../../../../../riscv-gcc/libgcc/soft-fp/divdf3.c:46 (discriminator 63)
20012d0c:	00f47563          	bgeu	s0,a5,20012d16 <__divdf3+0x31e>
/home/scratch/jenkins/workspace/tpp-freedom-tools/tpp04--build-binary-packages--parameterized/obj/x86_64-linux-centos6/build/riscv64-unknown-elf-gcc/build-gcc-stage2/riscv64-unknown-elf/rv32imac/ilp32/libgcc/../../../../../riscv-gcc/libgcc/soft-fp/divdf3.c:46 (discriminator 65)
20012d10:	ffef8613          	addi	a2,t6,-2
20012d14:	9446                	add	s0,s0,a7
/home/scratch/jenkins/workspace/tpp-freedom-tools/tpp04--build-binary-packages--parameterized/obj/x86_64-linux-centos6/build/riscv64-unknown-elf-gcc/build-gcc-stage2/riscv64-unknown-elf/rv32imac/ilp32/libgcc/../../../../../riscv-gcc/libgcc/soft-fp/divdf3.c:46 (discriminator 67)
20012d16:	8c1d                	sub	s0,s0,a5
20012d18:	02a45733          	divu	a4,s0,a0
20012d1c:	0842                	slli	a6,a6,0x10
20012d1e:	01085813          	srli	a6,a6,0x10
20012d22:	02a47433          	remu	s0,s0,a0
20012d26:	87ba                	mv	a5,a4
20012d28:	02ee8eb3          	mul	t4,t4,a4
20012d2c:	0442                	slli	s0,s0,0x10
20012d2e:	00886433          	or	s0,a6,s0
20012d32:	01d47c63          	bgeu	s0,t4,20012d4a <__divdf3+0x352>
/home/scratch/jenkins/workspace/tpp-freedom-tools/tpp04--build-binary-packages--parameterized/obj/x86_64-linux-centos6/build/riscv64-unknown-elf-gcc/build-gcc-stage2/riscv64-unknown-elf/rv32imac/ilp32/libgcc/../../../../../riscv-gcc/libgcc/soft-fp/divdf3.c:46 (discriminator 68)
20012d36:	9446                	add	s0,s0,a7
20012d38:	fff70793          	addi	a5,a4,-1
20012d3c:	01146763          	bltu	s0,a7,20012d4a <__divdf3+0x352>
/home/scratch/jenkins/workspace/tpp-freedom-tools/tpp04--build-binary-packages--parameterized/obj/x86_64-linux-centos6/build/riscv64-unknown-elf-gcc/build-gcc-stage2/riscv64-unknown-elf/rv32imac/ilp32/libgcc/../../../../../riscv-gcc/libgcc/soft-fp/divdf3.c:46 (discriminator 70)
20012d40:	01d47563          	bgeu	s0,t4,20012d4a <__divdf3+0x352>
/home/scratch/jenkins/workspace/tpp-freedom-tools/tpp04--build-binary-packages--parameterized/obj/x86_64-linux-centos6/build/riscv64-unknown-elf-gcc/build-gcc-stage2/riscv64-unknown-elf/rv32imac/ilp32/libgcc/../../../../../riscv-gcc/libgcc/soft-fp/divdf3.c:46 (discriminator 72)
20012d44:	ffe70793          	addi	a5,a4,-2
20012d48:	9446                	add	s0,s0,a7
/home/scratch/jenkins/workspace/tpp-freedom-tools/tpp04--build-binary-packages--parameterized/obj/x86_64-linux-centos6/build/riscv64-unknown-elf-gcc/build-gcc-stage2/riscv64-unknown-elf/rv32imac/ilp32/libgcc/../../../../../riscv-gcc/libgcc/soft-fp/divdf3.c:46 (discriminator 74)
20012d4a:	0642                	slli	a2,a2,0x10
20012d4c:	8e5d                	or	a2,a2,a5
20012d4e:	01061793          	slli	a5,a2,0x10
20012d52:	83c1                	srli	a5,a5,0x10
20012d54:	01065713          	srli	a4,a2,0x10
20012d58:	02ef0833          	mul	a6,t5,a4
20012d5c:	41d40433          	sub	s0,s0,t4
20012d60:	02ff0f33          	mul	t5,t5,a5
20012d64:	03c78eb3          	mul	t4,a5,t3
20012d68:	03c70e33          	mul	t3,a4,t3
20012d6c:	010ed793          	srli	a5,t4,0x10
20012d70:	9f72                	add	t5,t5,t3
20012d72:	97fa                	add	a5,a5,t5
20012d74:	01c7f463          	bgeu	a5,t3,20012d7c <__divdf3+0x384>
/home/scratch/jenkins/workspace/tpp-freedom-tools/tpp04--build-binary-packages--parameterized/obj/x86_64-linux-centos6/build/riscv64-unknown-elf-gcc/build-gcc-stage2/riscv64-unknown-elf/rv32imac/ilp32/libgcc/../../../../../riscv-gcc/libgcc/soft-fp/divdf3.c:46 (discriminator 75)
20012d78:	6741                	lui	a4,0x10
20012d7a:	983a                	add	a6,a6,a4
/home/scratch/jenkins/workspace/tpp-freedom-tools/tpp04--build-binary-packages--parameterized/obj/x86_64-linux-centos6/build/riscv64-unknown-elf-gcc/build-gcc-stage2/riscv64-unknown-elf/rv32imac/ilp32/libgcc/../../../../../riscv-gcc/libgcc/soft-fp/divdf3.c:46 (discriminator 77)
20012d7c:	0107d713          	srli	a4,a5,0x10
20012d80:	9742                	add	a4,a4,a6
20012d82:	6841                	lui	a6,0x10
20012d84:	187d                	addi	a6,a6,-1
20012d86:	0107f533          	and	a0,a5,a6
20012d8a:	0542                	slli	a0,a0,0x10
20012d8c:	010efeb3          	and	t4,t4,a6
20012d90:	9576                	add	a0,a0,t4
20012d92:	00e46663          	bltu	s0,a4,20012d9e <__divdf3+0x3a6>
/home/scratch/jenkins/workspace/tpp-freedom-tools/tpp04--build-binary-packages--parameterized/obj/x86_64-linux-centos6/build/riscv64-unknown-elf-gcc/build-gcc-stage2/riscv64-unknown-elf/rv32imac/ilp32/libgcc/../../../../../riscv-gcc/libgcc/soft-fp/divdf3.c:46 (discriminator 79)
20012d96:	18e41f63          	bne	s0,a4,20012f34 <__divdf3+0x53c>
/home/scratch/jenkins/workspace/tpp-freedom-tools/tpp04--build-binary-packages--parameterized/obj/x86_64-linux-centos6/build/riscv64-unknown-elf-gcc/build-gcc-stage2/riscv64-unknown-elf/rv32imac/ilp32/libgcc/../../../../../riscv-gcc/libgcc/soft-fp/divdf3.c:46 (discriminator 80)
20012d9a:	8fb2                	mv	t6,a2
20012d9c:	c91d                	beqz	a0,20012dd2 <__divdf3+0x3da>
/home/scratch/jenkins/workspace/tpp-freedom-tools/tpp04--build-binary-packages--parameterized/obj/x86_64-linux-centos6/build/riscv64-unknown-elf-gcc/build-gcc-stage2/riscv64-unknown-elf/rv32imac/ilp32/libgcc/../../../../../riscv-gcc/libgcc/soft-fp/divdf3.c:46 (discriminator 82)
20012d9e:	9446                	add	s0,s0,a7
20012da0:	fff60f93          	addi	t6,a2,-1
20012da4:	03146163          	bltu	s0,a7,20012dc6 <__divdf3+0x3ce>
/home/scratch/jenkins/workspace/tpp-freedom-tools/tpp04--build-binary-packages--parameterized/obj/x86_64-linux-centos6/build/riscv64-unknown-elf-gcc/build-gcc-stage2/riscv64-unknown-elf/rv32imac/ilp32/libgcc/../../../../../riscv-gcc/libgcc/soft-fp/divdf3.c:46 (discriminator 88)
20012da8:	00e46663          	bltu	s0,a4,20012db4 <__divdf3+0x3bc>
/home/scratch/jenkins/workspace/tpp-freedom-tools/tpp04--build-binary-packages--parameterized/obj/x86_64-linux-centos6/build/riscv64-unknown-elf-gcc/build-gcc-stage2/riscv64-unknown-elf/rv32imac/ilp32/libgcc/../../../../../riscv-gcc/libgcc/soft-fp/divdf3.c:46 (discriminator 91)
20012dac:	18e41363          	bne	s0,a4,20012f32 <__divdf3+0x53a>
/home/scratch/jenkins/workspace/tpp-freedom-tools/tpp04--build-binary-packages--parameterized/obj/x86_64-linux-centos6/build/riscv64-unknown-elf-gcc/build-gcc-stage2/riscv64-unknown-elf/rv32imac/ilp32/libgcc/../../../../../riscv-gcc/libgcc/soft-fp/divdf3.c:46 (discriminator 92)
20012db0:	00a37d63          	bgeu	t1,a0,20012dca <__divdf3+0x3d2>
/home/scratch/jenkins/workspace/tpp-freedom-tools/tpp04--build-binary-packages--parameterized/obj/x86_64-linux-centos6/build/riscv64-unknown-elf-gcc/build-gcc-stage2/riscv64-unknown-elf/rv32imac/ilp32/libgcc/../../../../../riscv-gcc/libgcc/soft-fp/divdf3.c:46 (discriminator 94)
20012db4:	00131793          	slli	a5,t1,0x1
20012db8:	0067b333          	sltu	t1,a5,t1
20012dbc:	989a                	add	a7,a7,t1
20012dbe:	ffe60f93          	addi	t6,a2,-2
20012dc2:	9446                	add	s0,s0,a7
20012dc4:	833e                	mv	t1,a5
/home/scratch/jenkins/workspace/tpp-freedom-tools/tpp04--build-binary-packages--parameterized/obj/x86_64-linux-centos6/build/riscv64-unknown-elf-gcc/build-gcc-stage2/riscv64-unknown-elf/rv32imac/ilp32/libgcc/../../../../../riscv-gcc/libgcc/soft-fp/divdf3.c:46 (discriminator 96)
20012dc6:	00e41463          	bne	s0,a4,20012dce <__divdf3+0x3d6>
/home/scratch/jenkins/workspace/tpp-freedom-tools/tpp04--build-binary-packages--parameterized/obj/x86_64-linux-centos6/build/riscv64-unknown-elf-gcc/build-gcc-stage2/riscv64-unknown-elf/rv32imac/ilp32/libgcc/../../../../../riscv-gcc/libgcc/soft-fp/divdf3.c:46 (discriminator 98)
20012dca:	00650463          	beq	a0,t1,20012dd2 <__divdf3+0x3da>
/home/scratch/jenkins/workspace/tpp-freedom-tools/tpp04--build-binary-packages--parameterized/obj/x86_64-linux-centos6/build/riscv64-unknown-elf-gcc/build-gcc-stage2/riscv64-unknown-elf/rv32imac/ilp32/libgcc/../../../../../riscv-gcc/libgcc/soft-fp/divdf3.c:46 (discriminator 99)
20012dce:	001fef93          	ori	t6,t6,1
/home/scratch/jenkins/workspace/tpp-freedom-tools/tpp04--build-binary-packages--parameterized/obj/x86_64-linux-centos6/build/riscv64-unknown-elf-gcc/build-gcc-stage2/riscv64-unknown-elf/rv32imac/ilp32/libgcc/../../../../../riscv-gcc/libgcc/soft-fp/divdf3.c:47 (discriminator 2)
20012dd2:	3ff58793          	addi	a5,a1,1023
20012dd6:	0af05b63          	blez	a5,20012e8c <__divdf3+0x494>
/home/scratch/jenkins/workspace/tpp-freedom-tools/tpp04--build-binary-packages--parameterized/obj/x86_64-linux-centos6/build/riscv64-unknown-elf-gcc/build-gcc-stage2/riscv64-unknown-elf/rv32imac/ilp32/libgcc/../../../../../riscv-gcc/libgcc/soft-fp/divdf3.c:47 (discriminator 6)
20012dda:	007ff713          	andi	a4,t6,7
20012dde:	cf01                	beqz	a4,20012df6 <__divdf3+0x3fe>
/home/scratch/jenkins/workspace/tpp-freedom-tools/tpp04--build-binary-packages--parameterized/obj/x86_64-linux-centos6/build/riscv64-unknown-elf-gcc/build-gcc-stage2/riscv64-unknown-elf/rv32imac/ilp32/libgcc/../../../../../riscv-gcc/libgcc/soft-fp/divdf3.c:47 (discriminator 8)
20012de0:	00fff713          	andi	a4,t6,15
20012de4:	4611                	li	a2,4
20012de6:	00c70863          	beq	a4,a2,20012df6 <__divdf3+0x3fe>
/home/scratch/jenkins/workspace/tpp-freedom-tools/tpp04--build-binary-packages--parameterized/obj/x86_64-linux-centos6/build/riscv64-unknown-elf-gcc/build-gcc-stage2/riscv64-unknown-elf/rv32imac/ilp32/libgcc/../../../../../riscv-gcc/libgcc/soft-fp/divdf3.c:47 (discriminator 10)
20012dea:	004f8613          	addi	a2,t6,4
20012dee:	01f63fb3          	sltu	t6,a2,t6
20012df2:	94fe                	add	s1,s1,t6
20012df4:	8fb2                	mv	t6,a2
/home/scratch/jenkins/workspace/tpp-freedom-tools/tpp04--build-binary-packages--parameterized/obj/x86_64-linux-centos6/build/riscv64-unknown-elf-gcc/build-gcc-stage2/riscv64-unknown-elf/rv32imac/ilp32/libgcc/../../../../../riscv-gcc/libgcc/soft-fp/divdf3.c:47 (discriminator 9)
20012df6:	01000737          	lui	a4,0x1000
20012dfa:	8f65                	and	a4,a4,s1
20012dfc:	c719                	beqz	a4,20012e0a <__divdf3+0x412>
/home/scratch/jenkins/workspace/tpp-freedom-tools/tpp04--build-binary-packages--parameterized/obj/x86_64-linux-centos6/build/riscv64-unknown-elf-gcc/build-gcc-stage2/riscv64-unknown-elf/rv32imac/ilp32/libgcc/../../../../../riscv-gcc/libgcc/soft-fp/divdf3.c:47 (discriminator 24)
20012dfe:	ff0007b7          	lui	a5,0xff000
20012e02:	17fd                	addi	a5,a5,-1
20012e04:	8cfd                	and	s1,s1,a5
20012e06:	40058793          	addi	a5,a1,1024
/home/scratch/jenkins/workspace/tpp-freedom-tools/tpp04--build-binary-packages--parameterized/obj/x86_64-linux-centos6/build/riscv64-unknown-elf-gcc/build-gcc-stage2/riscv64-unknown-elf/rv32imac/ilp32/libgcc/../../../../../riscv-gcc/libgcc/soft-fp/divdf3.c:47 (discriminator 26)
20012e0a:	7fe00713          	li	a4,2046
20012e0e:	06f74263          	blt	a4,a5,20012e72 <__divdf3+0x47a>
/home/scratch/jenkins/workspace/tpp-freedom-tools/tpp04--build-binary-packages--parameterized/obj/x86_64-linux-centos6/build/riscv64-unknown-elf-gcc/build-gcc-stage2/riscv64-unknown-elf/rv32imac/ilp32/libgcc/../../../../../riscv-gcc/libgcc/soft-fp/divdf3.c:47
20012e12:	003fdf93          	srli	t6,t6,0x3
20012e16:	01d49713          	slli	a4,s1,0x1d
20012e1a:	01f76733          	or	a4,a4,t6
20012e1e:	0034d513          	srli	a0,s1,0x3
/home/scratch/jenkins/workspace/tpp-freedom-tools/tpp04--build-binary-packages--parameterized/obj/x86_64-linux-centos6/build/riscv64-unknown-elf-gcc/build-gcc-stage2/riscv64-unknown-elf/rv32imac/ilp32/libgcc/../../../../../riscv-gcc/libgcc/soft-fp/divdf3.c:47 (discriminator 119)
20012e22:	07d2                	slli	a5,a5,0x14
20012e24:	7ff00637          	lui	a2,0x7ff00
20012e28:	0532                	slli	a0,a0,0xc
/home/scratch/jenkins/workspace/tpp-freedom-tools/tpp04--build-binary-packages--parameterized/obj/x86_64-linux-centos6/build/riscv64-unknown-elf-gcc/build-gcc-stage2/riscv64-unknown-elf/rv32imac/ilp32/libgcc/../../../../../riscv-gcc/libgcc/soft-fp/divdf3.c:51 (discriminator 119)
20012e2a:	50b2                	lw	ra,44(sp)
20012e2c:	5422                	lw	s0,40(sp)
/home/scratch/jenkins/workspace/tpp-freedom-tools/tpp04--build-binary-packages--parameterized/obj/x86_64-linux-centos6/build/riscv64-unknown-elf-gcc/build-gcc-stage2/riscv64-unknown-elf/rv32imac/ilp32/libgcc/../../../../../riscv-gcc/libgcc/soft-fp/divdf3.c:47 (discriminator 119)
20012e2e:	8ff1                	and	a5,a5,a2
20012e30:	8131                	srli	a0,a0,0xc
20012e32:	8d5d                	or	a0,a0,a5
20012e34:	06fe                	slli	a3,a3,0x1f
20012e36:	00d567b3          	or	a5,a0,a3
/home/scratch/jenkins/workspace/tpp-freedom-tools/tpp04--build-binary-packages--parameterized/obj/x86_64-linux-centos6/build/riscv64-unknown-elf-gcc/build-gcc-stage2/riscv64-unknown-elf/rv32imac/ilp32/libgcc/../../../../../riscv-gcc/libgcc/soft-fp/divdf3.c:51 (discriminator 119)
20012e3a:	5492                	lw	s1,36(sp)
20012e3c:	5902                	lw	s2,32(sp)
20012e3e:	49f2                	lw	s3,28(sp)
20012e40:	4a62                	lw	s4,24(sp)
20012e42:	4ad2                	lw	s5,20(sp)
20012e44:	4b42                	lw	s6,16(sp)
20012e46:	4bb2                	lw	s7,12(sp)
20012e48:	4c22                	lw	s8,8(sp)
20012e4a:	853a                	mv	a0,a4
20012e4c:	85be                	mv	a1,a5
20012e4e:	6145                	addi	sp,sp,48
20012e50:	8082                	ret
/home/scratch/jenkins/workspace/tpp-freedom-tools/tpp04--build-binary-packages--parameterized/obj/x86_64-linux-centos6/build/riscv64-unknown-elf-gcc/build-gcc-stage2/riscv64-unknown-elf/rv32imac/ilp32/libgcc/../../../../../riscv-gcc/libgcc/soft-fp/divdf3.c:46 (discriminator 15)
20012e52:	15fd                	addi	a1,a1,-1
20012e54:	4781                	li	a5,0
20012e56:	b3b5                	j	20012bc2 <__divdf3+0x1ca>
/home/scratch/jenkins/workspace/tpp-freedom-tools/tpp04--build-binary-packages--parameterized/obj/x86_64-linux-centos6/build/riscv64-unknown-elf-gcc/build-gcc-stage2/riscv64-unknown-elf/rv32imac/ilp32/libgcc/../../../../../riscv-gcc/libgcc/soft-fp/divdf3.c:44 (discriminator 8)
20012e58:	86ce                	mv	a3,s3
/home/scratch/jenkins/workspace/tpp-freedom-tools/tpp04--build-binary-packages--parameterized/obj/x86_64-linux-centos6/build/riscv64-unknown-elf-gcc/build-gcc-stage2/riscv64-unknown-elf/rv32imac/ilp32/libgcc/../../../../../riscv-gcc/libgcc/soft-fp/divdf3.c:46 (discriminator 8)
20012e5a:	84d6                	mv	s1,s5
20012e5c:	8fa2                	mv	t6,s0
20012e5e:	87de                	mv	a5,s7
/home/scratch/jenkins/workspace/tpp-freedom-tools/tpp04--build-binary-packages--parameterized/obj/x86_64-linux-centos6/build/riscv64-unknown-elf-gcc/build-gcc-stage2/riscv64-unknown-elf/rv32imac/ilp32/libgcc/../../../../../riscv-gcc/libgcc/soft-fp/divdf3.c:47 (discriminator 108)
20012e60:	470d                	li	a4,3
20012e62:	0ae78a63          	beq	a5,a4,20012f16 <__divdf3+0x51e>
/home/scratch/jenkins/workspace/tpp-freedom-tools/tpp04--build-binary-packages--parameterized/obj/x86_64-linux-centos6/build/riscv64-unknown-elf-gcc/build-gcc-stage2/riscv64-unknown-elf/rv32imac/ilp32/libgcc/../../../../../riscv-gcc/libgcc/soft-fp/divdf3.c:47
20012e66:	4705                	li	a4,1
20012e68:	0ae78e63          	beq	a5,a4,20012f24 <__divdf3+0x52c>
20012e6c:	4709                	li	a4,2
20012e6e:	f6e792e3          	bne	a5,a4,20012dd2 <__divdf3+0x3da>
20012e72:	4501                	li	a0,0
20012e74:	4701                	li	a4,0
20012e76:	7ff00793          	li	a5,2047
20012e7a:	b765                	j	20012e22 <__divdf3+0x42a>
/home/scratch/jenkins/workspace/tpp-freedom-tools/tpp04--build-binary-packages--parameterized/obj/x86_64-linux-centos6/build/riscv64-unknown-elf-gcc/build-gcc-stage2/riscv64-unknown-elf/rv32imac/ilp32/libgcc/../../../../../riscv-gcc/libgcc/soft-fp/divdf3.c:45 (discriminator 5)
20012e7c:	86e2                	mv	a3,s8
/home/scratch/jenkins/workspace/tpp-freedom-tools/tpp04--build-binary-packages--parameterized/obj/x86_64-linux-centos6/build/riscv64-unknown-elf-gcc/build-gcc-stage2/riscv64-unknown-elf/rv32imac/ilp32/libgcc/../../../../../riscv-gcc/libgcc/soft-fp/divdf3.c:46 (discriminator 5)
20012e7e:	b7cd                	j	20012e60 <__divdf3+0x468>
/home/scratch/jenkins/workspace/tpp-freedom-tools/tpp04--build-binary-packages--parameterized/obj/x86_64-linux-centos6/build/riscv64-unknown-elf-gcc/build-gcc-stage2/riscv64-unknown-elf/rv32imac/ilp32/libgcc/../../../../../riscv-gcc/libgcc/soft-fp/divdf3.c:46
20012e80:	000804b7          	lui	s1,0x80
20012e84:	4f81                	li	t6,0
20012e86:	4681                	li	a3,0
20012e88:	478d                	li	a5,3
20012e8a:	bfd9                	j	20012e60 <__divdf3+0x468>
/home/scratch/jenkins/workspace/tpp-freedom-tools/tpp04--build-binary-packages--parameterized/obj/x86_64-linux-centos6/build/riscv64-unknown-elf-gcc/build-gcc-stage2/riscv64-unknown-elf/rv32imac/ilp32/libgcc/../../../../../riscv-gcc/libgcc/soft-fp/divdf3.c:47 (discriminator 59)
20012e8c:	4505                	li	a0,1
20012e8e:	8d1d                	sub	a0,a0,a5
20012e90:	03800713          	li	a4,56
20012e94:	08a74863          	blt	a4,a0,20012f24 <__divdf3+0x52c>
/home/scratch/jenkins/workspace/tpp-freedom-tools/tpp04--build-binary-packages--parameterized/obj/x86_64-linux-centos6/build/riscv64-unknown-elf-gcc/build-gcc-stage2/riscv64-unknown-elf/rv32imac/ilp32/libgcc/../../../../../riscv-gcc/libgcc/soft-fp/divdf3.c:47 (discriminator 60)
20012e98:	477d                	li	a4,31
20012e9a:	04a74963          	blt	a4,a0,20012eec <__divdf3+0x4f4>
/home/scratch/jenkins/workspace/tpp-freedom-tools/tpp04--build-binary-packages--parameterized/obj/x86_64-linux-centos6/build/riscv64-unknown-elf-gcc/build-gcc-stage2/riscv64-unknown-elf/rv32imac/ilp32/libgcc/../../../../../riscv-gcc/libgcc/soft-fp/divdf3.c:47 (discriminator 62)
20012e9e:	41e58593          	addi	a1,a1,1054
20012ea2:	00b497b3          	sll	a5,s1,a1
20012ea6:	00afd733          	srl	a4,t6,a0
20012eaa:	00bf95b3          	sll	a1,t6,a1
20012eae:	8fd9                	or	a5,a5,a4
20012eb0:	00b035b3          	snez	a1,a1
20012eb4:	8fcd                	or	a5,a5,a1
20012eb6:	00a4d533          	srl	a0,s1,a0
/home/scratch/jenkins/workspace/tpp-freedom-tools/tpp04--build-binary-packages--parameterized/obj/x86_64-linux-centos6/build/riscv64-unknown-elf-gcc/build-gcc-stage2/riscv64-unknown-elf/rv32imac/ilp32/libgcc/../../../../../riscv-gcc/libgcc/soft-fp/divdf3.c:47 (discriminator 75)
20012eba:	0077f713          	andi	a4,a5,7
20012ebe:	cf01                	beqz	a4,20012ed6 <__divdf3+0x4de>
/home/scratch/jenkins/workspace/tpp-freedom-tools/tpp04--build-binary-packages--parameterized/obj/x86_64-linux-centos6/build/riscv64-unknown-elf-gcc/build-gcc-stage2/riscv64-unknown-elf/rv32imac/ilp32/libgcc/../../../../../riscv-gcc/libgcc/soft-fp/divdf3.c:47 (discriminator 76)
20012ec0:	00f7f713          	andi	a4,a5,15
20012ec4:	4611                	li	a2,4
20012ec6:	00c70863          	beq	a4,a2,20012ed6 <__divdf3+0x4de>
/home/scratch/jenkins/workspace/tpp-freedom-tools/tpp04--build-binary-packages--parameterized/obj/x86_64-linux-centos6/build/riscv64-unknown-elf-gcc/build-gcc-stage2/riscv64-unknown-elf/rv32imac/ilp32/libgcc/../../../../../riscv-gcc/libgcc/soft-fp/divdf3.c:47 (discriminator 78)
20012eca:	00478713          	addi	a4,a5,4 # ff000004 <metal_segment_heap_target_end+0x7effe884>
20012ece:	00f737b3          	sltu	a5,a4,a5
20012ed2:	953e                	add	a0,a0,a5
20012ed4:	87ba                	mv	a5,a4
/home/scratch/jenkins/workspace/tpp-freedom-tools/tpp04--build-binary-packages--parameterized/obj/x86_64-linux-centos6/build/riscv64-unknown-elf-gcc/build-gcc-stage2/riscv64-unknown-elf/rv32imac/ilp32/libgcc/../../../../../riscv-gcc/libgcc/soft-fp/divdf3.c:47 (discriminator 77)
20012ed6:	00800737          	lui	a4,0x800
20012eda:	8f69                	and	a4,a4,a0
20012edc:	e739                	bnez	a4,20012f2a <__divdf3+0x532>
/home/scratch/jenkins/workspace/tpp-freedom-tools/tpp04--build-binary-packages--parameterized/obj/x86_64-linux-centos6/build/riscv64-unknown-elf-gcc/build-gcc-stage2/riscv64-unknown-elf/rv32imac/ilp32/libgcc/../../../../../riscv-gcc/libgcc/soft-fp/divdf3.c:47 (discriminator 93)
20012ede:	01d51713          	slli	a4,a0,0x1d
20012ee2:	838d                	srli	a5,a5,0x3
20012ee4:	8f5d                	or	a4,a4,a5
20012ee6:	810d                	srli	a0,a0,0x3
/home/scratch/jenkins/workspace/tpp-freedom-tools/tpp04--build-binary-packages--parameterized/obj/x86_64-linux-centos6/build/riscv64-unknown-elf-gcc/build-gcc-stage2/riscv64-unknown-elf/rv32imac/ilp32/libgcc/../../../../../riscv-gcc/libgcc/soft-fp/divdf3.c:47
20012ee8:	4781                	li	a5,0
20012eea:	bf25                	j	20012e22 <__divdf3+0x42a>
/home/scratch/jenkins/workspace/tpp-freedom-tools/tpp04--build-binary-packages--parameterized/obj/x86_64-linux-centos6/build/riscv64-unknown-elf-gcc/build-gcc-stage2/riscv64-unknown-elf/rv32imac/ilp32/libgcc/../../../../../riscv-gcc/libgcc/soft-fp/divdf3.c:47 (discriminator 63)
20012eec:	5705                	li	a4,-31
20012eee:	40f707b3          	sub	a5,a4,a5
20012ef2:	02000613          	li	a2,32
20012ef6:	00f4d7b3          	srl	a5,s1,a5
20012efa:	4701                	li	a4,0
20012efc:	00c50663          	beq	a0,a2,20012f08 <__divdf3+0x510>
/home/scratch/jenkins/workspace/tpp-freedom-tools/tpp04--build-binary-packages--parameterized/obj/x86_64-linux-centos6/build/riscv64-unknown-elf-gcc/build-gcc-stage2/riscv64-unknown-elf/rv32imac/ilp32/libgcc/../../../../../riscv-gcc/libgcc/soft-fp/divdf3.c:47 (discriminator 71)
20012f00:	43e58713          	addi	a4,a1,1086
20012f04:	00e49733          	sll	a4,s1,a4
/home/scratch/jenkins/workspace/tpp-freedom-tools/tpp04--build-binary-packages--parameterized/obj/x86_64-linux-centos6/build/riscv64-unknown-elf-gcc/build-gcc-stage2/riscv64-unknown-elf/rv32imac/ilp32/libgcc/../../../../../riscv-gcc/libgcc/soft-fp/divdf3.c:47 (discriminator 74)
20012f08:	01f76733          	or	a4,a4,t6
20012f0c:	00e03733          	snez	a4,a4
20012f10:	8fd9                	or	a5,a5,a4
20012f12:	4501                	li	a0,0
20012f14:	b75d                	j	20012eba <__divdf3+0x4c2>
/home/scratch/jenkins/workspace/tpp-freedom-tools/tpp04--build-binary-packages--parameterized/obj/x86_64-linux-centos6/build/riscv64-unknown-elf-gcc/build-gcc-stage2/riscv64-unknown-elf/rv32imac/ilp32/libgcc/../../../../../riscv-gcc/libgcc/soft-fp/divdf3.c:47
20012f16:	00080537          	lui	a0,0x80
20012f1a:	4701                	li	a4,0
20012f1c:	7ff00793          	li	a5,2047
20012f20:	4681                	li	a3,0
20012f22:	b701                	j	20012e22 <__divdf3+0x42a>
20012f24:	4501                	li	a0,0
20012f26:	4701                	li	a4,0
20012f28:	b7c1                	j	20012ee8 <__divdf3+0x4f0>
20012f2a:	4501                	li	a0,0
20012f2c:	4701                	li	a4,0
20012f2e:	4785                	li	a5,1
20012f30:	bdcd                	j	20012e22 <__divdf3+0x42a>
/home/scratch/jenkins/workspace/tpp-freedom-tools/tpp04--build-binary-packages--parameterized/obj/x86_64-linux-centos6/build/riscv64-unknown-elf-gcc/build-gcc-stage2/riscv64-unknown-elf/rv32imac/ilp32/libgcc/../../../../../riscv-gcc/libgcc/soft-fp/divdf3.c:46
20012f32:	867e                	mv	a2,t6
20012f34:	8fb2                	mv	t6,a2
20012f36:	bd61                	j	20012dce <__divdf3+0x3d6>

20012f38 <__muldf3>:
__muldf3():
/home/scratch/jenkins/workspace/tpp-freedom-tools/tpp04--build-binary-packages--parameterized/obj/x86_64-linux-centos6/build/riscv64-unknown-elf-gcc/build-gcc-stage2/riscv64-unknown-elf/rv32imac/ilp32/libgcc/../../../../../riscv-gcc/libgcc/soft-fp/muldf3.c:36
20012f38:	7179                	addi	sp,sp,-48
20012f3a:	ce4e                	sw	s3,28(sp)
/home/scratch/jenkins/workspace/tpp-freedom-tools/tpp04--build-binary-packages--parameterized/obj/x86_64-linux-centos6/build/riscv64-unknown-elf-gcc/build-gcc-stage2/riscv64-unknown-elf/rv32imac/ilp32/libgcc/../../../../../riscv-gcc/libgcc/soft-fp/muldf3.c:44
20012f3c:	0145d993          	srli	s3,a1,0x14
/home/scratch/jenkins/workspace/tpp-freedom-tools/tpp04--build-binary-packages--parameterized/obj/x86_64-linux-centos6/build/riscv64-unknown-elf-gcc/build-gcc-stage2/riscv64-unknown-elf/rv32imac/ilp32/libgcc/../../../../../riscv-gcc/libgcc/soft-fp/muldf3.c:36
20012f40:	d422                	sw	s0,40(sp)
20012f42:	d226                	sw	s1,36(sp)
20012f44:	cc52                	sw	s4,24(sp)
20012f46:	ca56                	sw	s5,20(sp)
20012f48:	c65e                	sw	s7,12(sp)
/home/scratch/jenkins/workspace/tpp-freedom-tools/tpp04--build-binary-packages--parameterized/obj/x86_64-linux-centos6/build/riscv64-unknown-elf-gcc/build-gcc-stage2/riscv64-unknown-elf/rv32imac/ilp32/libgcc/../../../../../riscv-gcc/libgcc/soft-fp/muldf3.c:44
20012f4a:	00c59493          	slli	s1,a1,0xc
/home/scratch/jenkins/workspace/tpp-freedom-tools/tpp04--build-binary-packages--parameterized/obj/x86_64-linux-centos6/build/riscv64-unknown-elf-gcc/build-gcc-stage2/riscv64-unknown-elf/rv32imac/ilp32/libgcc/../../../../../riscv-gcc/libgcc/soft-fp/muldf3.c:36
20012f4e:	d606                	sw	ra,44(sp)
20012f50:	d04a                	sw	s2,32(sp)
20012f52:	c85a                	sw	s6,16(sp)
/home/scratch/jenkins/workspace/tpp-freedom-tools/tpp04--build-binary-packages--parameterized/obj/x86_64-linux-centos6/build/riscv64-unknown-elf-gcc/build-gcc-stage2/riscv64-unknown-elf/rv32imac/ilp32/libgcc/../../../../../riscv-gcc/libgcc/soft-fp/muldf3.c:44
20012f54:	7ff9f993          	andi	s3,s3,2047
/home/scratch/jenkins/workspace/tpp-freedom-tools/tpp04--build-binary-packages--parameterized/obj/x86_64-linux-centos6/build/riscv64-unknown-elf-gcc/build-gcc-stage2/riscv64-unknown-elf/rv32imac/ilp32/libgcc/../../../../../riscv-gcc/libgcc/soft-fp/muldf3.c:36
20012f58:	842a                	mv	s0,a0
20012f5a:	8bb2                	mv	s7,a2
20012f5c:	8ab6                	mv	s5,a3
/home/scratch/jenkins/workspace/tpp-freedom-tools/tpp04--build-binary-packages--parameterized/obj/x86_64-linux-centos6/build/riscv64-unknown-elf-gcc/build-gcc-stage2/riscv64-unknown-elf/rv32imac/ilp32/libgcc/../../../../../riscv-gcc/libgcc/soft-fp/muldf3.c:44
20012f5e:	80b1                	srli	s1,s1,0xc
20012f60:	01f5da13          	srli	s4,a1,0x1f
20012f64:	08098163          	beqz	s3,20012fe6 <__muldf3+0xae>
20012f68:	7ff00793          	li	a5,2047
20012f6c:	0cf98363          	beq	s3,a5,20013032 <__muldf3+0xfa>
/home/scratch/jenkins/workspace/tpp-freedom-tools/tpp04--build-binary-packages--parameterized/obj/x86_64-linux-centos6/build/riscv64-unknown-elf-gcc/build-gcc-stage2/riscv64-unknown-elf/rv32imac/ilp32/libgcc/../../../../../riscv-gcc/libgcc/soft-fp/muldf3.c:44 (discriminator 1)
20012f70:	01d55793          	srli	a5,a0,0x1d
20012f74:	048e                	slli	s1,s1,0x3
20012f76:	8cdd                	or	s1,s1,a5
20012f78:	008007b7          	lui	a5,0x800
20012f7c:	8cdd                	or	s1,s1,a5
20012f7e:	00351913          	slli	s2,a0,0x3
20012f82:	c0198993          	addi	s3,s3,-1023
/home/scratch/jenkins/workspace/tpp-freedom-tools/tpp04--build-binary-packages--parameterized/obj/x86_64-linux-centos6/build/riscv64-unknown-elf-gcc/build-gcc-stage2/riscv64-unknown-elf/rv32imac/ilp32/libgcc/../../../../../riscv-gcc/libgcc/soft-fp/muldf3.c:44 (discriminator 41)
20012f86:	4b01                	li	s6,0
/home/scratch/jenkins/workspace/tpp-freedom-tools/tpp04--build-binary-packages--parameterized/obj/x86_64-linux-centos6/build/riscv64-unknown-elf-gcc/build-gcc-stage2/riscv64-unknown-elf/rv32imac/ilp32/libgcc/../../../../../riscv-gcc/libgcc/soft-fp/muldf3.c:45 (discriminator 8)
20012f88:	014ad513          	srli	a0,s5,0x14
20012f8c:	00ca9413          	slli	s0,s5,0xc
20012f90:	7ff57513          	andi	a0,a0,2047
20012f94:	8031                	srli	s0,s0,0xc
20012f96:	01fada93          	srli	s5,s5,0x1f
20012f9a:	cd55                	beqz	a0,20013056 <__muldf3+0x11e>
/home/scratch/jenkins/workspace/tpp-freedom-tools/tpp04--build-binary-packages--parameterized/obj/x86_64-linux-centos6/build/riscv64-unknown-elf-gcc/build-gcc-stage2/riscv64-unknown-elf/rv32imac/ilp32/libgcc/../../../../../riscv-gcc/libgcc/soft-fp/muldf3.c:45
20012f9c:	7ff00793          	li	a5,2047
20012fa0:	10f50163          	beq	a0,a5,200130a2 <__muldf3+0x16a>
/home/scratch/jenkins/workspace/tpp-freedom-tools/tpp04--build-binary-packages--parameterized/obj/x86_64-linux-centos6/build/riscv64-unknown-elf-gcc/build-gcc-stage2/riscv64-unknown-elf/rv32imac/ilp32/libgcc/../../../../../riscv-gcc/libgcc/soft-fp/muldf3.c:45 (discriminator 1)
20012fa4:	01dbd793          	srli	a5,s7,0x1d
20012fa8:	040e                	slli	s0,s0,0x3
20012faa:	8c5d                	or	s0,s0,a5
20012fac:	008007b7          	lui	a5,0x800
20012fb0:	8c5d                	or	s0,s0,a5
20012fb2:	c0150513          	addi	a0,a0,-1023 # 7fc01 <__heap_size+0x7f401>
20012fb6:	003b9793          	slli	a5,s7,0x3
/home/scratch/jenkins/workspace/tpp-freedom-tools/tpp04--build-binary-packages--parameterized/obj/x86_64-linux-centos6/build/riscv64-unknown-elf-gcc/build-gcc-stage2/riscv64-unknown-elf/rv32imac/ilp32/libgcc/../../../../../riscv-gcc/libgcc/soft-fp/muldf3.c:45 (discriminator 41)
20012fba:	4701                	li	a4,0
/home/scratch/jenkins/workspace/tpp-freedom-tools/tpp04--build-binary-packages--parameterized/obj/x86_64-linux-centos6/build/riscv64-unknown-elf-gcc/build-gcc-stage2/riscv64-unknown-elf/rv32imac/ilp32/libgcc/../../../../../riscv-gcc/libgcc/soft-fp/muldf3.c:46 (discriminator 8)
20012fbc:	002b1693          	slli	a3,s6,0x2
20012fc0:	8ed9                	or	a3,a3,a4
20012fc2:	954e                	add	a0,a0,s3
20012fc4:	16fd                	addi	a3,a3,-1
20012fc6:	4839                	li	a6,14
20012fc8:	015a4633          	xor	a2,s4,s5
20012fcc:	00150593          	addi	a1,a0,1
20012fd0:	0ed86a63          	bltu	a6,a3,200130c4 <__muldf3+0x18c>
20012fd4:	ffffd517          	auipc	a0,0xffffd
20012fd8:	5dc50513          	addi	a0,a0,1500 # 200105b0 <__sf_fake_stdout+0xf0>
20012fdc:	068a                	slli	a3,a3,0x2
20012fde:	96aa                	add	a3,a3,a0
20012fe0:	4294                	lw	a3,0(a3)
20012fe2:	96aa                	add	a3,a3,a0
20012fe4:	8682                	jr	a3
/home/scratch/jenkins/workspace/tpp-freedom-tools/tpp04--build-binary-packages--parameterized/obj/x86_64-linux-centos6/build/riscv64-unknown-elf-gcc/build-gcc-stage2/riscv64-unknown-elf/rv32imac/ilp32/libgcc/../../../../../riscv-gcc/libgcc/soft-fp/muldf3.c:44 (discriminator 2)
20012fe6:	00a4e933          	or	s2,s1,a0
20012fea:	04090d63          	beqz	s2,20013044 <__muldf3+0x10c>
/home/scratch/jenkins/workspace/tpp-freedom-tools/tpp04--build-binary-packages--parameterized/obj/x86_64-linux-centos6/build/riscv64-unknown-elf-gcc/build-gcc-stage2/riscv64-unknown-elf/rv32imac/ilp32/libgcc/../../../../../riscv-gcc/libgcc/soft-fp/muldf3.c:44 (discriminator 13)
20012fee:	c885                	beqz	s1,2001301e <__muldf3+0xe6>
/home/scratch/jenkins/workspace/tpp-freedom-tools/tpp04--build-binary-packages--parameterized/obj/x86_64-linux-centos6/build/riscv64-unknown-elf-gcc/build-gcc-stage2/riscv64-unknown-elf/rv32imac/ilp32/libgcc/../../../../../riscv-gcc/libgcc/soft-fp/muldf3.c:44 (discriminator 17)
20012ff0:	8526                	mv	a0,s1
20012ff2:	2199                	jal	20013438 <__clzsi2>
/home/scratch/jenkins/workspace/tpp-freedom-tools/tpp04--build-binary-packages--parameterized/obj/x86_64-linux-centos6/build/riscv64-unknown-elf-gcc/build-gcc-stage2/riscv64-unknown-elf/rv32imac/ilp32/libgcc/../../../../../riscv-gcc/libgcc/soft-fp/muldf3.c:44 (discriminator 31)
20012ff4:	ff550713          	addi	a4,a0,-11
20012ff8:	47f1                	li	a5,28
20012ffa:	02e7c663          	blt	a5,a4,20013026 <__muldf3+0xee>
/home/scratch/jenkins/workspace/tpp-freedom-tools/tpp04--build-binary-packages--parameterized/obj/x86_64-linux-centos6/build/riscv64-unknown-elf-gcc/build-gcc-stage2/riscv64-unknown-elf/rv32imac/ilp32/libgcc/../../../../../riscv-gcc/libgcc/soft-fp/muldf3.c:44 (discriminator 32)
20012ffe:	47f5                	li	a5,29
20013000:	ff850913          	addi	s2,a0,-8
20013004:	8f99                	sub	a5,a5,a4
20013006:	012494b3          	sll	s1,s1,s2
2001300a:	00f457b3          	srl	a5,s0,a5
2001300e:	8cdd                	or	s1,s1,a5
20013010:	01241933          	sll	s2,s0,s2
/home/scratch/jenkins/workspace/tpp-freedom-tools/tpp04--build-binary-packages--parameterized/obj/x86_64-linux-centos6/build/riscv64-unknown-elf-gcc/build-gcc-stage2/riscv64-unknown-elf/rv32imac/ilp32/libgcc/../../../../../riscv-gcc/libgcc/soft-fp/muldf3.c:44 (discriminator 41)
20013014:	c0d00993          	li	s3,-1011
20013018:	40a989b3          	sub	s3,s3,a0
2001301c:	b7ad                	j	20012f86 <__muldf3+0x4e>
/home/scratch/jenkins/workspace/tpp-freedom-tools/tpp04--build-binary-packages--parameterized/obj/x86_64-linux-centos6/build/riscv64-unknown-elf-gcc/build-gcc-stage2/riscv64-unknown-elf/rv32imac/ilp32/libgcc/../../../../../riscv-gcc/libgcc/soft-fp/muldf3.c:44 (discriminator 24)
2001301e:	2929                	jal	20013438 <__clzsi2>
20013020:	02050513          	addi	a0,a0,32
20013024:	bfc1                	j	20012ff4 <__muldf3+0xbc>
/home/scratch/jenkins/workspace/tpp-freedom-tools/tpp04--build-binary-packages--parameterized/obj/x86_64-linux-centos6/build/riscv64-unknown-elf-gcc/build-gcc-stage2/riscv64-unknown-elf/rv32imac/ilp32/libgcc/../../../../../riscv-gcc/libgcc/soft-fp/muldf3.c:44 (discriminator 33)
20013026:	fd850493          	addi	s1,a0,-40
2001302a:	009414b3          	sll	s1,s0,s1
2001302e:	4901                	li	s2,0
20013030:	b7d5                	j	20013014 <__muldf3+0xdc>
/home/scratch/jenkins/workspace/tpp-freedom-tools/tpp04--build-binary-packages--parameterized/obj/x86_64-linux-centos6/build/riscv64-unknown-elf-gcc/build-gcc-stage2/riscv64-unknown-elf/rv32imac/ilp32/libgcc/../../../../../riscv-gcc/libgcc/soft-fp/muldf3.c:44 (discriminator 3)
20013032:	00a4e933          	or	s2,s1,a0
20013036:	00090b63          	beqz	s2,2001304c <__muldf3+0x114>
/home/scratch/jenkins/workspace/tpp-freedom-tools/tpp04--build-binary-packages--parameterized/obj/x86_64-linux-centos6/build/riscv64-unknown-elf-gcc/build-gcc-stage2/riscv64-unknown-elf/rv32imac/ilp32/libgcc/../../../../../riscv-gcc/libgcc/soft-fp/muldf3.c:44
2001303a:	892a                	mv	s2,a0
2001303c:	7ff00993          	li	s3,2047
20013040:	4b0d                	li	s6,3
20013042:	b799                	j	20012f88 <__muldf3+0x50>
20013044:	4481                	li	s1,0
20013046:	4981                	li	s3,0
20013048:	4b05                	li	s6,1
2001304a:	bf3d                	j	20012f88 <__muldf3+0x50>
2001304c:	4481                	li	s1,0
2001304e:	7ff00993          	li	s3,2047
20013052:	4b09                	li	s6,2
20013054:	bf15                	j	20012f88 <__muldf3+0x50>
/home/scratch/jenkins/workspace/tpp-freedom-tools/tpp04--build-binary-packages--parameterized/obj/x86_64-linux-centos6/build/riscv64-unknown-elf-gcc/build-gcc-stage2/riscv64-unknown-elf/rv32imac/ilp32/libgcc/../../../../../riscv-gcc/libgcc/soft-fp/muldf3.c:45 (discriminator 2)
20013056:	017467b3          	or	a5,s0,s7
2001305a:	cfa1                	beqz	a5,200130b2 <__muldf3+0x17a>
/home/scratch/jenkins/workspace/tpp-freedom-tools/tpp04--build-binary-packages--parameterized/obj/x86_64-linux-centos6/build/riscv64-unknown-elf-gcc/build-gcc-stage2/riscv64-unknown-elf/rv32imac/ilp32/libgcc/../../../../../riscv-gcc/libgcc/soft-fp/muldf3.c:45 (discriminator 13)
2001305c:	c805                	beqz	s0,2001308c <__muldf3+0x154>
/home/scratch/jenkins/workspace/tpp-freedom-tools/tpp04--build-binary-packages--parameterized/obj/x86_64-linux-centos6/build/riscv64-unknown-elf-gcc/build-gcc-stage2/riscv64-unknown-elf/rv32imac/ilp32/libgcc/../../../../../riscv-gcc/libgcc/soft-fp/muldf3.c:45 (discriminator 17)
2001305e:	8522                	mv	a0,s0
20013060:	2ee1                	jal	20013438 <__clzsi2>
/home/scratch/jenkins/workspace/tpp-freedom-tools/tpp04--build-binary-packages--parameterized/obj/x86_64-linux-centos6/build/riscv64-unknown-elf-gcc/build-gcc-stage2/riscv64-unknown-elf/rv32imac/ilp32/libgcc/../../../../../riscv-gcc/libgcc/soft-fp/muldf3.c:45 (discriminator 31)
20013062:	ff550693          	addi	a3,a0,-11
20013066:	47f1                	li	a5,28
20013068:	02d7c763          	blt	a5,a3,20013096 <__muldf3+0x15e>
/home/scratch/jenkins/workspace/tpp-freedom-tools/tpp04--build-binary-packages--parameterized/obj/x86_64-linux-centos6/build/riscv64-unknown-elf-gcc/build-gcc-stage2/riscv64-unknown-elf/rv32imac/ilp32/libgcc/../../../../../riscv-gcc/libgcc/soft-fp/muldf3.c:45 (discriminator 32)
2001306c:	4775                	li	a4,29
2001306e:	ff850793          	addi	a5,a0,-8
20013072:	8f15                	sub	a4,a4,a3
20013074:	00f41433          	sll	s0,s0,a5
20013078:	00ebd733          	srl	a4,s7,a4
2001307c:	8c59                	or	s0,s0,a4
2001307e:	00fb97b3          	sll	a5,s7,a5
/home/scratch/jenkins/workspace/tpp-freedom-tools/tpp04--build-binary-packages--parameterized/obj/x86_64-linux-centos6/build/riscv64-unknown-elf-gcc/build-gcc-stage2/riscv64-unknown-elf/rv32imac/ilp32/libgcc/../../../../../riscv-gcc/libgcc/soft-fp/muldf3.c:45 (discriminator 41)
20013082:	c0d00713          	li	a4,-1011
20013086:	40a70533          	sub	a0,a4,a0
2001308a:	bf05                	j	20012fba <__muldf3+0x82>
/home/scratch/jenkins/workspace/tpp-freedom-tools/tpp04--build-binary-packages--parameterized/obj/x86_64-linux-centos6/build/riscv64-unknown-elf-gcc/build-gcc-stage2/riscv64-unknown-elf/rv32imac/ilp32/libgcc/../../../../../riscv-gcc/libgcc/soft-fp/muldf3.c:45 (discriminator 24)
2001308c:	855e                	mv	a0,s7
2001308e:	266d                	jal	20013438 <__clzsi2>
20013090:	02050513          	addi	a0,a0,32
20013094:	b7f9                	j	20013062 <__muldf3+0x12a>
/home/scratch/jenkins/workspace/tpp-freedom-tools/tpp04--build-binary-packages--parameterized/obj/x86_64-linux-centos6/build/riscv64-unknown-elf-gcc/build-gcc-stage2/riscv64-unknown-elf/rv32imac/ilp32/libgcc/../../../../../riscv-gcc/libgcc/soft-fp/muldf3.c:45 (discriminator 33)
20013096:	fd850413          	addi	s0,a0,-40
2001309a:	008b9433          	sll	s0,s7,s0
2001309e:	4781                	li	a5,0
200130a0:	b7cd                	j	20013082 <__muldf3+0x14a>
/home/scratch/jenkins/workspace/tpp-freedom-tools/tpp04--build-binary-packages--parameterized/obj/x86_64-linux-centos6/build/riscv64-unknown-elf-gcc/build-gcc-stage2/riscv64-unknown-elf/rv32imac/ilp32/libgcc/../../../../../riscv-gcc/libgcc/soft-fp/muldf3.c:45 (discriminator 3)
200130a2:	017467b3          	or	a5,s0,s7
200130a6:	cb91                	beqz	a5,200130ba <__muldf3+0x182>
/home/scratch/jenkins/workspace/tpp-freedom-tools/tpp04--build-binary-packages--parameterized/obj/x86_64-linux-centos6/build/riscv64-unknown-elf-gcc/build-gcc-stage2/riscv64-unknown-elf/rv32imac/ilp32/libgcc/../../../../../riscv-gcc/libgcc/soft-fp/muldf3.c:45
200130a8:	87de                	mv	a5,s7
200130aa:	7ff00513          	li	a0,2047
200130ae:	470d                	li	a4,3
200130b0:	b731                	j	20012fbc <__muldf3+0x84>
200130b2:	4401                	li	s0,0
200130b4:	4501                	li	a0,0
200130b6:	4705                	li	a4,1
200130b8:	b711                	j	20012fbc <__muldf3+0x84>
200130ba:	4401                	li	s0,0
200130bc:	7ff00513          	li	a0,2047
200130c0:	4709                	li	a4,2
200130c2:	bded                	j	20012fbc <__muldf3+0x84>
/home/scratch/jenkins/workspace/tpp-freedom-tools/tpp04--build-binary-packages--parameterized/obj/x86_64-linux-centos6/build/riscv64-unknown-elf-gcc/build-gcc-stage2/riscv64-unknown-elf/rv32imac/ilp32/libgcc/../../../../../riscv-gcc/libgcc/soft-fp/muldf3.c:46 (discriminator 2)
200130c4:	6f41                	lui	t5,0x10
200130c6:	ffff0e93          	addi	t4,t5,-1 # ffff <__heap_size+0xf7ff>
200130ca:	01095713          	srli	a4,s2,0x10
200130ce:	0107d893          	srli	a7,a5,0x10
200130d2:	01d97933          	and	s2,s2,t4
200130d6:	01d7f7b3          	and	a5,a5,t4
200130da:	03288833          	mul	a6,a7,s2
200130de:	02f906b3          	mul	a3,s2,a5
200130e2:	02f70fb3          	mul	t6,a4,a5
200130e6:	01f80333          	add	t1,a6,t6
200130ea:	0106d813          	srli	a6,a3,0x10
200130ee:	981a                	add	a6,a6,t1
200130f0:	03170e33          	mul	t3,a4,a7
200130f4:	01f87363          	bgeu	a6,t6,200130fa <__muldf3+0x1c2>
/home/scratch/jenkins/workspace/tpp-freedom-tools/tpp04--build-binary-packages--parameterized/obj/x86_64-linux-centos6/build/riscv64-unknown-elf-gcc/build-gcc-stage2/riscv64-unknown-elf/rv32imac/ilp32/libgcc/../../../../../riscv-gcc/libgcc/soft-fp/muldf3.c:46 (discriminator 9)
200130f8:	9e7a                	add	t3,t3,t5
/home/scratch/jenkins/workspace/tpp-freedom-tools/tpp04--build-binary-packages--parameterized/obj/x86_64-linux-centos6/build/riscv64-unknown-elf-gcc/build-gcc-stage2/riscv64-unknown-elf/rv32imac/ilp32/libgcc/../../../../../riscv-gcc/libgcc/soft-fp/muldf3.c:46 (discriminator 11)
200130fa:	01085393          	srli	t2,a6,0x10
200130fe:	01d87833          	and	a6,a6,t4
20013102:	01d6f6b3          	and	a3,a3,t4
20013106:	01045f13          	srli	t5,s0,0x10
2001310a:	01d472b3          	and	t0,s0,t4
2001310e:	0842                	slli	a6,a6,0x10
20013110:	9836                	add	a6,a6,a3
20013112:	02570eb3          	mul	t4,a4,t0
20013116:	025906b3          	mul	a3,s2,t0
2001311a:	032f0933          	mul	s2,t5,s2
2001311e:	01d90333          	add	t1,s2,t4
20013122:	0106d913          	srli	s2,a3,0x10
20013126:	991a                	add	s2,s2,t1
20013128:	03e70733          	mul	a4,a4,t5
2001312c:	01d97463          	bgeu	s2,t4,20013134 <__muldf3+0x1fc>
/home/scratch/jenkins/workspace/tpp-freedom-tools/tpp04--build-binary-packages--parameterized/obj/x86_64-linux-centos6/build/riscv64-unknown-elf-gcc/build-gcc-stage2/riscv64-unknown-elf/rv32imac/ilp32/libgcc/../../../../../riscv-gcc/libgcc/soft-fp/muldf3.c:46 (discriminator 12)
20013130:	6341                	lui	t1,0x10
20013132:	971a                	add	a4,a4,t1
/home/scratch/jenkins/workspace/tpp-freedom-tools/tpp04--build-binary-packages--parameterized/obj/x86_64-linux-centos6/build/riscv64-unknown-elf-gcc/build-gcc-stage2/riscv64-unknown-elf/rv32imac/ilp32/libgcc/../../../../../riscv-gcc/libgcc/soft-fp/muldf3.c:46 (discriminator 14)
20013134:	01095e93          	srli	t4,s2,0x10
20013138:	69c1                	lui	s3,0x10
2001313a:	9eba                	add	t4,t4,a4
2001313c:	fff98713          	addi	a4,s3,-1 # ffff <__heap_size+0xf7ff>
20013140:	00e97933          	and	s2,s2,a4
20013144:	8ef9                	and	a3,a3,a4
20013146:	0104d413          	srli	s0,s1,0x10
2001314a:	0942                	slli	s2,s2,0x10
2001314c:	8cf9                	and	s1,s1,a4
2001314e:	02978733          	mul	a4,a5,s1
20013152:	9936                	add	s2,s2,a3
20013154:	93ca                	add	t2,t2,s2
20013156:	02f40333          	mul	t1,s0,a5
2001315a:	029886b3          	mul	a3,a7,s1
2001315e:	028887b3          	mul	a5,a7,s0
20013162:	006688b3          	add	a7,a3,t1
20013166:	01075693          	srli	a3,a4,0x10
2001316a:	96c6                	add	a3,a3,a7
2001316c:	0066f363          	bgeu	a3,t1,20013172 <__muldf3+0x23a>
/home/scratch/jenkins/workspace/tpp-freedom-tools/tpp04--build-binary-packages--parameterized/obj/x86_64-linux-centos6/build/riscv64-unknown-elf-gcc/build-gcc-stage2/riscv64-unknown-elf/rv32imac/ilp32/libgcc/../../../../../riscv-gcc/libgcc/soft-fp/muldf3.c:46 (discriminator 15)
20013170:	97ce                	add	a5,a5,s3
/home/scratch/jenkins/workspace/tpp-freedom-tools/tpp04--build-binary-packages--parameterized/obj/x86_64-linux-centos6/build/riscv64-unknown-elf-gcc/build-gcc-stage2/riscv64-unknown-elf/rv32imac/ilp32/libgcc/../../../../../riscv-gcc/libgcc/soft-fp/muldf3.c:46 (discriminator 17)
20013172:	0106d893          	srli	a7,a3,0x10
20013176:	69c1                	lui	s3,0x10
20013178:	00f88fb3          	add	t6,a7,a5
2001317c:	fff98793          	addi	a5,s3,-1 # ffff <__heap_size+0xf7ff>
20013180:	029288b3          	mul	a7,t0,s1
20013184:	8efd                	and	a3,a3,a5
20013186:	8f7d                	and	a4,a4,a5
20013188:	06c2                	slli	a3,a3,0x10
2001318a:	96ba                	add	a3,a3,a4
2001318c:	025407b3          	mul	a5,s0,t0
20013190:	029f04b3          	mul	s1,t5,s1
20013194:	028f0333          	mul	t1,t5,s0
20013198:	94be                	add	s1,s1,a5
2001319a:	0108d413          	srli	s0,a7,0x10
2001319e:	94a2                	add	s1,s1,s0
200131a0:	00f4f363          	bgeu	s1,a5,200131a6 <__muldf3+0x26e>
/home/scratch/jenkins/workspace/tpp-freedom-tools/tpp04--build-binary-packages--parameterized/obj/x86_64-linux-centos6/build/riscv64-unknown-elf-gcc/build-gcc-stage2/riscv64-unknown-elf/rv32imac/ilp32/libgcc/../../../../../riscv-gcc/libgcc/soft-fp/muldf3.c:46 (discriminator 18)
200131a4:	934e                	add	t1,t1,s3
/home/scratch/jenkins/workspace/tpp-freedom-tools/tpp04--build-binary-packages--parameterized/obj/x86_64-linux-centos6/build/riscv64-unknown-elf-gcc/build-gcc-stage2/riscv64-unknown-elf/rv32imac/ilp32/libgcc/../../../../../riscv-gcc/libgcc/soft-fp/muldf3.c:46 (discriminator 20)
200131a6:	67c1                	lui	a5,0x10
200131a8:	17fd                	addi	a5,a5,-1
200131aa:	00f4f733          	and	a4,s1,a5
200131ae:	00f8f8b3          	and	a7,a7,a5
200131b2:	0742                	slli	a4,a4,0x10
200131b4:	9e1e                	add	t3,t3,t2
200131b6:	9746                	add	a4,a4,a7
200131b8:	012e3933          	sltu	s2,t3,s2
200131bc:	9776                	add	a4,a4,t4
200131be:	01270433          	add	s0,a4,s2
200131c2:	9e36                	add	t3,t3,a3
200131c4:	00de36b3          	sltu	a3,t3,a3
200131c8:	01f408b3          	add	a7,s0,t6
200131cc:	00d88f33          	add	t5,a7,a3
200131d0:	01d73733          	sltu	a4,a4,t4
200131d4:	01243433          	sltu	s0,s0,s2
200131d8:	8c59                	or	s0,s0,a4
200131da:	80c1                	srli	s1,s1,0x10
200131dc:	01f8b8b3          	sltu	a7,a7,t6
200131e0:	00df36b3          	sltu	a3,t5,a3
200131e4:	9426                	add	s0,s0,s1
200131e6:	00d8e6b3          	or	a3,a7,a3
200131ea:	9436                	add	s0,s0,a3
200131ec:	941a                	add	s0,s0,t1
200131ee:	017f5793          	srli	a5,t5,0x17
200131f2:	0426                	slli	s0,s0,0x9
200131f4:	8c5d                	or	s0,s0,a5
200131f6:	009e1793          	slli	a5,t3,0x9
200131fa:	0107e7b3          	or	a5,a5,a6
200131fe:	00f037b3          	snez	a5,a5
20013202:	017e5e13          	srli	t3,t3,0x17
20013206:	009f1713          	slli	a4,t5,0x9
2001320a:	01c7e7b3          	or	a5,a5,t3
2001320e:	8fd9                	or	a5,a5,a4
20013210:	01000737          	lui	a4,0x1000
20013214:	8f61                	and	a4,a4,s0
20013216:	cb4d                	beqz	a4,200132c8 <__muldf3+0x390>
/home/scratch/jenkins/workspace/tpp-freedom-tools/tpp04--build-binary-packages--parameterized/obj/x86_64-linux-centos6/build/riscv64-unknown-elf-gcc/build-gcc-stage2/riscv64-unknown-elf/rv32imac/ilp32/libgcc/../../../../../riscv-gcc/libgcc/soft-fp/muldf3.c:46 (discriminator 38)
20013218:	0017d713          	srli	a4,a5,0x1
2001321c:	8b85                	andi	a5,a5,1
2001321e:	8fd9                	or	a5,a5,a4
20013220:	01f41713          	slli	a4,s0,0x1f
20013224:	8fd9                	or	a5,a5,a4
20013226:	8005                	srli	s0,s0,0x1
/home/scratch/jenkins/workspace/tpp-freedom-tools/tpp04--build-binary-packages--parameterized/obj/x86_64-linux-centos6/build/riscv64-unknown-elf-gcc/build-gcc-stage2/riscv64-unknown-elf/rv32imac/ilp32/libgcc/../../../../../riscv-gcc/libgcc/soft-fp/muldf3.c:47 (discriminator 2)
20013228:	3ff58693          	addi	a3,a1,1023
2001322c:	0ad05063          	blez	a3,200132cc <__muldf3+0x394>
/home/scratch/jenkins/workspace/tpp-freedom-tools/tpp04--build-binary-packages--parameterized/obj/x86_64-linux-centos6/build/riscv64-unknown-elf-gcc/build-gcc-stage2/riscv64-unknown-elf/rv32imac/ilp32/libgcc/../../../../../riscv-gcc/libgcc/soft-fp/muldf3.c:47 (discriminator 6)
20013230:	0077f713          	andi	a4,a5,7
20013234:	cf01                	beqz	a4,2001324c <__muldf3+0x314>
/home/scratch/jenkins/workspace/tpp-freedom-tools/tpp04--build-binary-packages--parameterized/obj/x86_64-linux-centos6/build/riscv64-unknown-elf-gcc/build-gcc-stage2/riscv64-unknown-elf/rv32imac/ilp32/libgcc/../../../../../riscv-gcc/libgcc/soft-fp/muldf3.c:47 (discriminator 8)
20013236:	00f7f713          	andi	a4,a5,15
2001323a:	4511                	li	a0,4
2001323c:	00a70863          	beq	a4,a0,2001324c <__muldf3+0x314>
/home/scratch/jenkins/workspace/tpp-freedom-tools/tpp04--build-binary-packages--parameterized/obj/x86_64-linux-centos6/build/riscv64-unknown-elf-gcc/build-gcc-stage2/riscv64-unknown-elf/rv32imac/ilp32/libgcc/../../../../../riscv-gcc/libgcc/soft-fp/muldf3.c:47 (discriminator 10)
20013240:	00478713          	addi	a4,a5,4 # 10004 <__heap_size+0xf804>
20013244:	00f737b3          	sltu	a5,a4,a5
20013248:	943e                	add	s0,s0,a5
2001324a:	87ba                	mv	a5,a4
/home/scratch/jenkins/workspace/tpp-freedom-tools/tpp04--build-binary-packages--parameterized/obj/x86_64-linux-centos6/build/riscv64-unknown-elf-gcc/build-gcc-stage2/riscv64-unknown-elf/rv32imac/ilp32/libgcc/../../../../../riscv-gcc/libgcc/soft-fp/muldf3.c:47 (discriminator 9)
2001324c:	01000737          	lui	a4,0x1000
20013250:	8f61                	and	a4,a4,s0
20013252:	c719                	beqz	a4,20013260 <__muldf3+0x328>
/home/scratch/jenkins/workspace/tpp-freedom-tools/tpp04--build-binary-packages--parameterized/obj/x86_64-linux-centos6/build/riscv64-unknown-elf-gcc/build-gcc-stage2/riscv64-unknown-elf/rv32imac/ilp32/libgcc/../../../../../riscv-gcc/libgcc/soft-fp/muldf3.c:47 (discriminator 24)
20013254:	ff000737          	lui	a4,0xff000
20013258:	177d                	addi	a4,a4,-1
2001325a:	8c79                	and	s0,s0,a4
2001325c:	40058693          	addi	a3,a1,1024
/home/scratch/jenkins/workspace/tpp-freedom-tools/tpp04--build-binary-packages--parameterized/obj/x86_64-linux-centos6/build/riscv64-unknown-elf-gcc/build-gcc-stage2/riscv64-unknown-elf/rv32imac/ilp32/libgcc/../../../../../riscv-gcc/libgcc/soft-fp/muldf3.c:47 (discriminator 26)
20013260:	7fe00713          	li	a4,2046
20013264:	0ed74e63          	blt	a4,a3,20013360 <__muldf3+0x428>
/home/scratch/jenkins/workspace/tpp-freedom-tools/tpp04--build-binary-packages--parameterized/obj/x86_64-linux-centos6/build/riscv64-unknown-elf-gcc/build-gcc-stage2/riscv64-unknown-elf/rv32imac/ilp32/libgcc/../../../../../riscv-gcc/libgcc/soft-fp/muldf3.c:47
20013268:	0037d713          	srli	a4,a5,0x3
2001326c:	01d41793          	slli	a5,s0,0x1d
20013270:	8fd9                	or	a5,a5,a4
20013272:	800d                	srli	s0,s0,0x3
/home/scratch/jenkins/workspace/tpp-freedom-tools/tpp04--build-binary-packages--parameterized/obj/x86_64-linux-centos6/build/riscv64-unknown-elf-gcc/build-gcc-stage2/riscv64-unknown-elf/rv32imac/ilp32/libgcc/../../../../../riscv-gcc/libgcc/soft-fp/muldf3.c:47 (discriminator 119)
20013274:	01469713          	slli	a4,a3,0x14
20013278:	0432                	slli	s0,s0,0xc
2001327a:	7ff006b7          	lui	a3,0x7ff00
2001327e:	8f75                	and	a4,a4,a3
20013280:	8031                	srli	s0,s0,0xc
20013282:	8c59                	or	s0,s0,a4
20013284:	067e                	slli	a2,a2,0x1f
/home/scratch/jenkins/workspace/tpp-freedom-tools/tpp04--build-binary-packages--parameterized/obj/x86_64-linux-centos6/build/riscv64-unknown-elf-gcc/build-gcc-stage2/riscv64-unknown-elf/rv32imac/ilp32/libgcc/../../../../../riscv-gcc/libgcc/soft-fp/muldf3.c:51 (discriminator 119)
20013286:	50b2                	lw	ra,44(sp)
/home/scratch/jenkins/workspace/tpp-freedom-tools/tpp04--build-binary-packages--parameterized/obj/x86_64-linux-centos6/build/riscv64-unknown-elf-gcc/build-gcc-stage2/riscv64-unknown-elf/rv32imac/ilp32/libgcc/../../../../../riscv-gcc/libgcc/soft-fp/muldf3.c:47 (discriminator 119)
20013288:	00c46733          	or	a4,s0,a2
/home/scratch/jenkins/workspace/tpp-freedom-tools/tpp04--build-binary-packages--parameterized/obj/x86_64-linux-centos6/build/riscv64-unknown-elf-gcc/build-gcc-stage2/riscv64-unknown-elf/rv32imac/ilp32/libgcc/../../../../../riscv-gcc/libgcc/soft-fp/muldf3.c:51 (discriminator 119)
2001328c:	5422                	lw	s0,40(sp)
2001328e:	5492                	lw	s1,36(sp)
20013290:	5902                	lw	s2,32(sp)
20013292:	49f2                	lw	s3,28(sp)
20013294:	4a62                	lw	s4,24(sp)
20013296:	4ad2                	lw	s5,20(sp)
20013298:	4b42                	lw	s6,16(sp)
2001329a:	4bb2                	lw	s7,12(sp)
2001329c:	853e                	mv	a0,a5
2001329e:	85ba                	mv	a1,a4
200132a0:	6145                	addi	sp,sp,48
200132a2:	8082                	ret
/home/scratch/jenkins/workspace/tpp-freedom-tools/tpp04--build-binary-packages--parameterized/obj/x86_64-linux-centos6/build/riscv64-unknown-elf-gcc/build-gcc-stage2/riscv64-unknown-elf/rv32imac/ilp32/libgcc/../../../../../riscv-gcc/libgcc/soft-fp/muldf3.c:44 (discriminator 7)
200132a4:	8652                	mv	a2,s4
/home/scratch/jenkins/workspace/tpp-freedom-tools/tpp04--build-binary-packages--parameterized/obj/x86_64-linux-centos6/build/riscv64-unknown-elf-gcc/build-gcc-stage2/riscv64-unknown-elf/rv32imac/ilp32/libgcc/../../../../../riscv-gcc/libgcc/soft-fp/muldf3.c:46 (discriminator 7)
200132a6:	8426                	mv	s0,s1
200132a8:	87ca                	mv	a5,s2
200132aa:	875a                	mv	a4,s6
/home/scratch/jenkins/workspace/tpp-freedom-tools/tpp04--build-binary-packages--parameterized/obj/x86_64-linux-centos6/build/riscv64-unknown-elf-gcc/build-gcc-stage2/riscv64-unknown-elf/rv32imac/ilp32/libgcc/../../../../../riscv-gcc/libgcc/soft-fp/muldf3.c:47 (discriminator 47)
200132ac:	4689                	li	a3,2
200132ae:	0ad70963          	beq	a4,a3,20013360 <__muldf3+0x428>
/home/scratch/jenkins/workspace/tpp-freedom-tools/tpp04--build-binary-packages--parameterized/obj/x86_64-linux-centos6/build/riscv64-unknown-elf-gcc/build-gcc-stage2/riscv64-unknown-elf/rv32imac/ilp32/libgcc/../../../../../riscv-gcc/libgcc/soft-fp/muldf3.c:47
200132b2:	468d                	li	a3,3
200132b4:	08d70f63          	beq	a4,a3,20013352 <__muldf3+0x41a>
200132b8:	4685                	li	a3,1
200132ba:	f6d717e3          	bne	a4,a3,20013228 <__muldf3+0x2f0>
200132be:	4401                	li	s0,0
200132c0:	4781                	li	a5,0
200132c2:	a09d                	j	20013328 <__muldf3+0x3f0>
/home/scratch/jenkins/workspace/tpp-freedom-tools/tpp04--build-binary-packages--parameterized/obj/x86_64-linux-centos6/build/riscv64-unknown-elf-gcc/build-gcc-stage2/riscv64-unknown-elf/rv32imac/ilp32/libgcc/../../../../../riscv-gcc/libgcc/soft-fp/muldf3.c:45 (discriminator 4)
200132c4:	8656                	mv	a2,s5
/home/scratch/jenkins/workspace/tpp-freedom-tools/tpp04--build-binary-packages--parameterized/obj/x86_64-linux-centos6/build/riscv64-unknown-elf-gcc/build-gcc-stage2/riscv64-unknown-elf/rv32imac/ilp32/libgcc/../../../../../riscv-gcc/libgcc/soft-fp/muldf3.c:46 (discriminator 4)
200132c6:	b7dd                	j	200132ac <__muldf3+0x374>
/home/scratch/jenkins/workspace/tpp-freedom-tools/tpp04--build-binary-packages--parameterized/obj/x86_64-linux-centos6/build/riscv64-unknown-elf-gcc/build-gcc-stage2/riscv64-unknown-elf/rv32imac/ilp32/libgcc/../../../../../riscv-gcc/libgcc/soft-fp/muldf3.c:46
200132c8:	85aa                	mv	a1,a0
200132ca:	bfb9                	j	20013228 <__muldf3+0x2f0>
/home/scratch/jenkins/workspace/tpp-freedom-tools/tpp04--build-binary-packages--parameterized/obj/x86_64-linux-centos6/build/riscv64-unknown-elf-gcc/build-gcc-stage2/riscv64-unknown-elf/rv32imac/ilp32/libgcc/../../../../../riscv-gcc/libgcc/soft-fp/muldf3.c:47 (discriminator 59)
200132cc:	4505                	li	a0,1
200132ce:	8d15                	sub	a0,a0,a3
200132d0:	03800713          	li	a4,56
200132d4:	fea745e3          	blt	a4,a0,200132be <__muldf3+0x386>
/home/scratch/jenkins/workspace/tpp-freedom-tools/tpp04--build-binary-packages--parameterized/obj/x86_64-linux-centos6/build/riscv64-unknown-elf-gcc/build-gcc-stage2/riscv64-unknown-elf/rv32imac/ilp32/libgcc/../../../../../riscv-gcc/libgcc/soft-fp/muldf3.c:47 (discriminator 60)
200132d8:	477d                	li	a4,31
200132da:	04a74963          	blt	a4,a0,2001332c <__muldf3+0x3f4>
/home/scratch/jenkins/workspace/tpp-freedom-tools/tpp04--build-binary-packages--parameterized/obj/x86_64-linux-centos6/build/riscv64-unknown-elf-gcc/build-gcc-stage2/riscv64-unknown-elf/rv32imac/ilp32/libgcc/../../../../../riscv-gcc/libgcc/soft-fp/muldf3.c:47 (discriminator 62)
200132de:	41e58593          	addi	a1,a1,1054
200132e2:	00b41733          	sll	a4,s0,a1
200132e6:	00a7d6b3          	srl	a3,a5,a0
200132ea:	00b797b3          	sll	a5,a5,a1
200132ee:	8f55                	or	a4,a4,a3
200132f0:	00f037b3          	snez	a5,a5
200132f4:	8fd9                	or	a5,a5,a4
200132f6:	00a45433          	srl	s0,s0,a0
/home/scratch/jenkins/workspace/tpp-freedom-tools/tpp04--build-binary-packages--parameterized/obj/x86_64-linux-centos6/build/riscv64-unknown-elf-gcc/build-gcc-stage2/riscv64-unknown-elf/rv32imac/ilp32/libgcc/../../../../../riscv-gcc/libgcc/soft-fp/muldf3.c:47 (discriminator 75)
200132fa:	0077f713          	andi	a4,a5,7
200132fe:	cf01                	beqz	a4,20013316 <__muldf3+0x3de>
/home/scratch/jenkins/workspace/tpp-freedom-tools/tpp04--build-binary-packages--parameterized/obj/x86_64-linux-centos6/build/riscv64-unknown-elf-gcc/build-gcc-stage2/riscv64-unknown-elf/rv32imac/ilp32/libgcc/../../../../../riscv-gcc/libgcc/soft-fp/muldf3.c:47 (discriminator 76)
20013300:	00f7f713          	andi	a4,a5,15
20013304:	4691                	li	a3,4
20013306:	00d70863          	beq	a4,a3,20013316 <__muldf3+0x3de>
/home/scratch/jenkins/workspace/tpp-freedom-tools/tpp04--build-binary-packages--parameterized/obj/x86_64-linux-centos6/build/riscv64-unknown-elf-gcc/build-gcc-stage2/riscv64-unknown-elf/rv32imac/ilp32/libgcc/../../../../../riscv-gcc/libgcc/soft-fp/muldf3.c:47 (discriminator 78)
2001330a:	00478713          	addi	a4,a5,4
2001330e:	00f737b3          	sltu	a5,a4,a5
20013312:	943e                	add	s0,s0,a5
20013314:	87ba                	mv	a5,a4
/home/scratch/jenkins/workspace/tpp-freedom-tools/tpp04--build-binary-packages--parameterized/obj/x86_64-linux-centos6/build/riscv64-unknown-elf-gcc/build-gcc-stage2/riscv64-unknown-elf/rv32imac/ilp32/libgcc/../../../../../riscv-gcc/libgcc/soft-fp/muldf3.c:47 (discriminator 77)
20013316:	00800737          	lui	a4,0x800
2001331a:	8f61                	and	a4,a4,s0
2001331c:	e739                	bnez	a4,2001336a <__muldf3+0x432>
/home/scratch/jenkins/workspace/tpp-freedom-tools/tpp04--build-binary-packages--parameterized/obj/x86_64-linux-centos6/build/riscv64-unknown-elf-gcc/build-gcc-stage2/riscv64-unknown-elf/rv32imac/ilp32/libgcc/../../../../../riscv-gcc/libgcc/soft-fp/muldf3.c:47 (discriminator 93)
2001331e:	01d41713          	slli	a4,s0,0x1d
20013322:	838d                	srli	a5,a5,0x3
20013324:	8fd9                	or	a5,a5,a4
20013326:	800d                	srli	s0,s0,0x3
/home/scratch/jenkins/workspace/tpp-freedom-tools/tpp04--build-binary-packages--parameterized/obj/x86_64-linux-centos6/build/riscv64-unknown-elf-gcc/build-gcc-stage2/riscv64-unknown-elf/rv32imac/ilp32/libgcc/../../../../../riscv-gcc/libgcc/soft-fp/muldf3.c:47
20013328:	4681                	li	a3,0
2001332a:	b7a9                	j	20013274 <__muldf3+0x33c>
/home/scratch/jenkins/workspace/tpp-freedom-tools/tpp04--build-binary-packages--parameterized/obj/x86_64-linux-centos6/build/riscv64-unknown-elf-gcc/build-gcc-stage2/riscv64-unknown-elf/rv32imac/ilp32/libgcc/../../../../../riscv-gcc/libgcc/soft-fp/muldf3.c:47 (discriminator 63)
2001332c:	5705                	li	a4,-31
2001332e:	8f15                	sub	a4,a4,a3
20013330:	02000813          	li	a6,32
20013334:	00e45733          	srl	a4,s0,a4
20013338:	4681                	li	a3,0
2001333a:	01050663          	beq	a0,a6,20013346 <__muldf3+0x40e>
/home/scratch/jenkins/workspace/tpp-freedom-tools/tpp04--build-binary-packages--parameterized/obj/x86_64-linux-centos6/build/riscv64-unknown-elf-gcc/build-gcc-stage2/riscv64-unknown-elf/rv32imac/ilp32/libgcc/../../../../../riscv-gcc/libgcc/soft-fp/muldf3.c:47 (discriminator 71)
2001333e:	43e58593          	addi	a1,a1,1086
20013342:	00b416b3          	sll	a3,s0,a1
/home/scratch/jenkins/workspace/tpp-freedom-tools/tpp04--build-binary-packages--parameterized/obj/x86_64-linux-centos6/build/riscv64-unknown-elf-gcc/build-gcc-stage2/riscv64-unknown-elf/rv32imac/ilp32/libgcc/../../../../../riscv-gcc/libgcc/soft-fp/muldf3.c:47 (discriminator 74)
20013346:	8fd5                	or	a5,a5,a3
20013348:	00f037b3          	snez	a5,a5
2001334c:	8fd9                	or	a5,a5,a4
2001334e:	4401                	li	s0,0
20013350:	b76d                	j	200132fa <__muldf3+0x3c2>
/home/scratch/jenkins/workspace/tpp-freedom-tools/tpp04--build-binary-packages--parameterized/obj/x86_64-linux-centos6/build/riscv64-unknown-elf-gcc/build-gcc-stage2/riscv64-unknown-elf/rv32imac/ilp32/libgcc/../../../../../riscv-gcc/libgcc/soft-fp/muldf3.c:47
20013352:	00080437          	lui	s0,0x80
20013356:	4781                	li	a5,0
20013358:	7ff00693          	li	a3,2047
2001335c:	4601                	li	a2,0
2001335e:	bf19                	j	20013274 <__muldf3+0x33c>
20013360:	4401                	li	s0,0
20013362:	4781                	li	a5,0
20013364:	7ff00693          	li	a3,2047
20013368:	b731                	j	20013274 <__muldf3+0x33c>
2001336a:	4401                	li	s0,0
2001336c:	4781                	li	a5,0
2001336e:	4685                	li	a3,1
20013370:	b711                	j	20013274 <__muldf3+0x33c>

20013372 <__fixunsdfsi>:
__fixunsdfsi():
/home/scratch/jenkins/workspace/tpp-freedom-tools/tpp04--build-binary-packages--parameterized/obj/x86_64-linux-centos6/build/riscv64-unknown-elf-gcc/build-gcc-stage2/riscv64-unknown-elf/rv32imac/ilp32/libgcc/../../../../../riscv-gcc/libgcc/soft-fp/fixunsdfsi.c:42
20013372:	0145d713          	srli	a4,a1,0x14
20013376:	00100837          	lui	a6,0x100
2001337a:	fff80793          	addi	a5,a6,-1 # fffff <__heap_size+0xff7ff>
2001337e:	7ff77713          	andi	a4,a4,2047
/home/scratch/jenkins/workspace/tpp-freedom-tools/tpp04--build-binary-packages--parameterized/obj/x86_64-linux-centos6/build/riscv64-unknown-elf-gcc/build-gcc-stage2/riscv64-unknown-elf/rv32imac/ilp32/libgcc/../../../../../riscv-gcc/libgcc/soft-fp/fixunsdfsi.c:43
20013382:	3fe00613          	li	a2,1022
/home/scratch/jenkins/workspace/tpp-freedom-tools/tpp04--build-binary-packages--parameterized/obj/x86_64-linux-centos6/build/riscv64-unknown-elf-gcc/build-gcc-stage2/riscv64-unknown-elf/rv32imac/ilp32/libgcc/../../../../../riscv-gcc/libgcc/soft-fp/fixunsdfsi.c:42
20013386:	8fed                	and	a5,a5,a1
/home/scratch/jenkins/workspace/tpp-freedom-tools/tpp04--build-binary-packages--parameterized/obj/x86_64-linux-centos6/build/riscv64-unknown-elf-gcc/build-gcc-stage2/riscv64-unknown-elf/rv32imac/ilp32/libgcc/../../../../../riscv-gcc/libgcc/soft-fp/fixunsdfsi.c:36
20013388:	86aa                	mv	a3,a0
/home/scratch/jenkins/workspace/tpp-freedom-tools/tpp04--build-binary-packages--parameterized/obj/x86_64-linux-centos6/build/riscv64-unknown-elf-gcc/build-gcc-stage2/riscv64-unknown-elf/rv32imac/ilp32/libgcc/../../../../../riscv-gcc/libgcc/soft-fp/fixunsdfsi.c:42
2001338a:	81fd                	srli	a1,a1,0x1f
/home/scratch/jenkins/workspace/tpp-freedom-tools/tpp04--build-binary-packages--parameterized/obj/x86_64-linux-centos6/build/riscv64-unknown-elf-gcc/build-gcc-stage2/riscv64-unknown-elf/rv32imac/ilp32/libgcc/../../../../../riscv-gcc/libgcc/soft-fp/fixunsdfsi.c:43
2001338c:	04e65163          	bge	a2,a4,200133ce <__fixunsdfsi+0x5c>
/home/scratch/jenkins/workspace/tpp-freedom-tools/tpp04--build-binary-packages--parameterized/obj/x86_64-linux-centos6/build/riscv64-unknown-elf-gcc/build-gcc-stage2/riscv64-unknown-elf/rv32imac/ilp32/libgcc/../../../../../riscv-gcc/libgcc/soft-fp/fixunsdfsi.c:43 (discriminator 10)
20013390:	41f00613          	li	a2,1055
20013394:	8e0d                	sub	a2,a2,a1
20013396:	fff58513          	addi	a0,a1,-1
2001339a:	02c75b63          	bge	a4,a2,200133d0 <__fixunsdfsi+0x5e>
/home/scratch/jenkins/workspace/tpp-freedom-tools/tpp04--build-binary-packages--parameterized/obj/x86_64-linux-centos6/build/riscv64-unknown-elf-gcc/build-gcc-stage2/riscv64-unknown-elf/rv32imac/ilp32/libgcc/../../../../../riscv-gcc/libgcc/soft-fp/fixunsdfsi.c:43 (discriminator 17)
2001339e:	4501                	li	a0,0
200133a0:	e985                	bnez	a1,200133d0 <__fixunsdfsi+0x5e>
/home/scratch/jenkins/workspace/tpp-freedom-tools/tpp04--build-binary-packages--parameterized/obj/x86_64-linux-centos6/build/riscv64-unknown-elf-gcc/build-gcc-stage2/riscv64-unknown-elf/rv32imac/ilp32/libgcc/../../../../../riscv-gcc/libgcc/soft-fp/fixunsdfsi.c:43 (discriminator 19)
200133a2:	43300513          	li	a0,1075
200133a6:	8d19                	sub	a0,a0,a4
200133a8:	467d                	li	a2,31
200133aa:	0107e7b3          	or	a5,a5,a6
200133ae:	00a64a63          	blt	a2,a0,200133c2 <__fixunsdfsi+0x50>
/home/scratch/jenkins/workspace/tpp-freedom-tools/tpp04--build-binary-packages--parameterized/obj/x86_64-linux-centos6/build/riscv64-unknown-elf-gcc/build-gcc-stage2/riscv64-unknown-elf/rv32imac/ilp32/libgcc/../../../../../riscv-gcc/libgcc/soft-fp/fixunsdfsi.c:43 (discriminator 34)
200133b2:	bed70713          	addi	a4,a4,-1043 # 7ffbed <__heap_size+0x7ff3ed>
200133b6:	00e797b3          	sll	a5,a5,a4
200133ba:	00a6d533          	srl	a0,a3,a0
200133be:	8d5d                	or	a0,a0,a5
200133c0:	8082                	ret
/home/scratch/jenkins/workspace/tpp-freedom-tools/tpp04--build-binary-packages--parameterized/obj/x86_64-linux-centos6/build/riscv64-unknown-elf-gcc/build-gcc-stage2/riscv64-unknown-elf/rv32imac/ilp32/libgcc/../../../../../riscv-gcc/libgcc/soft-fp/fixunsdfsi.c:43 (discriminator 46)
200133c2:	41300513          	li	a0,1043
200133c6:	8d19                	sub	a0,a0,a4
200133c8:	00a7d533          	srl	a0,a5,a0
200133cc:	8082                	ret
/home/scratch/jenkins/workspace/tpp-freedom-tools/tpp04--build-binary-packages--parameterized/obj/x86_64-linux-centos6/build/riscv64-unknown-elf-gcc/build-gcc-stage2/riscv64-unknown-elf/rv32imac/ilp32/libgcc/../../../../../riscv-gcc/libgcc/soft-fp/fixunsdfsi.c:43
200133ce:	4501                	li	a0,0
/home/scratch/jenkins/workspace/tpp-freedom-tools/tpp04--build-binary-packages--parameterized/obj/x86_64-linux-centos6/build/riscv64-unknown-elf-gcc/build-gcc-stage2/riscv64-unknown-elf/rv32imac/ilp32/libgcc/../../../../../riscv-gcc/libgcc/soft-fp/fixunsdfsi.c:47
200133d0:	8082                	ret

200133d2 <__floatsidf>:
__floatsidf():
/home/scratch/jenkins/workspace/tpp-freedom-tools/tpp04--build-binary-packages--parameterized/obj/x86_64-linux-centos6/build/riscv64-unknown-elf-gcc/build-gcc-stage2/riscv64-unknown-elf/rv32imac/ilp32/libgcc/../../../../../riscv-gcc/libgcc/soft-fp/floatsidf.c:37
200133d2:	1141                	addi	sp,sp,-16
200133d4:	c606                	sw	ra,12(sp)
200133d6:	c422                	sw	s0,8(sp)
200133d8:	c226                	sw	s1,4(sp)
/home/scratch/jenkins/workspace/tpp-freedom-tools/tpp04--build-binary-packages--parameterized/obj/x86_64-linux-centos6/build/riscv64-unknown-elf-gcc/build-gcc-stage2/riscv64-unknown-elf/rv32imac/ilp32/libgcc/../../../../../riscv-gcc/libgcc/soft-fp/floatsidf.c:41
200133da:	cd21                	beqz	a0,20013432 <__floatsidf+0x60>
/home/scratch/jenkins/workspace/tpp-freedom-tools/tpp04--build-binary-packages--parameterized/obj/x86_64-linux-centos6/build/riscv64-unknown-elf-gcc/build-gcc-stage2/riscv64-unknown-elf/rv32imac/ilp32/libgcc/../../../../../riscv-gcc/libgcc/soft-fp/floatsidf.c:41 (discriminator 1)
200133dc:	41f55793          	srai	a5,a0,0x1f
200133e0:	00a7c433          	xor	s0,a5,a0
200133e4:	8c1d                	sub	s0,s0,a5
200133e6:	01f55493          	srli	s1,a0,0x1f
200133ea:	8522                	mv	a0,s0
200133ec:	20b1                	jal	20013438 <__clzsi2>
200133ee:	41e00713          	li	a4,1054
200133f2:	47a9                	li	a5,10
200133f4:	8f09                	sub	a4,a4,a0
200133f6:	02a7c863          	blt	a5,a0,20013426 <__floatsidf+0x54>
/home/scratch/jenkins/workspace/tpp-freedom-tools/tpp04--build-binary-packages--parameterized/obj/x86_64-linux-centos6/build/riscv64-unknown-elf-gcc/build-gcc-stage2/riscv64-unknown-elf/rv32imac/ilp32/libgcc/../../../../../riscv-gcc/libgcc/soft-fp/floatsidf.c:41 (discriminator 23)
200133fa:	47ad                	li	a5,11
200133fc:	8f89                	sub	a5,a5,a0
200133fe:	0555                	addi	a0,a0,21
20013400:	00f457b3          	srl	a5,s0,a5
20013404:	00a41433          	sll	s0,s0,a0
20013408:	8526                	mv	a0,s1
/home/scratch/jenkins/workspace/tpp-freedom-tools/tpp04--build-binary-packages--parameterized/obj/x86_64-linux-centos6/build/riscv64-unknown-elf-gcc/build-gcc-stage2/riscv64-unknown-elf/rv32imac/ilp32/libgcc/../../../../../riscv-gcc/libgcc/soft-fp/floatsidf.c:42 (discriminator 126)
2001340a:	07b2                	slli	a5,a5,0xc
2001340c:	0752                	slli	a4,a4,0x14
2001340e:	83b1                	srli	a5,a5,0xc
20013410:	057e                	slli	a0,a0,0x1f
20013412:	8fd9                	or	a5,a5,a4
/home/scratch/jenkins/workspace/tpp-freedom-tools/tpp04--build-binary-packages--parameterized/obj/x86_64-linux-centos6/build/riscv64-unknown-elf-gcc/build-gcc-stage2/riscv64-unknown-elf/rv32imac/ilp32/libgcc/../../../../../riscv-gcc/libgcc/soft-fp/floatsidf.c:45 (discriminator 126)
20013414:	40b2                	lw	ra,12(sp)
/home/scratch/jenkins/workspace/tpp-freedom-tools/tpp04--build-binary-packages--parameterized/obj/x86_64-linux-centos6/build/riscv64-unknown-elf-gcc/build-gcc-stage2/riscv64-unknown-elf/rv32imac/ilp32/libgcc/../../../../../riscv-gcc/libgcc/soft-fp/floatsidf.c:42 (discriminator 126)
20013416:	00a7e733          	or	a4,a5,a0
/home/scratch/jenkins/workspace/tpp-freedom-tools/tpp04--build-binary-packages--parameterized/obj/x86_64-linux-centos6/build/riscv64-unknown-elf-gcc/build-gcc-stage2/riscv64-unknown-elf/rv32imac/ilp32/libgcc/../../../../../riscv-gcc/libgcc/soft-fp/floatsidf.c:45 (discriminator 126)
2001341a:	8522                	mv	a0,s0
2001341c:	4422                	lw	s0,8(sp)
2001341e:	4492                	lw	s1,4(sp)
20013420:	85ba                	mv	a1,a4
20013422:	0141                	addi	sp,sp,16
20013424:	8082                	ret
/home/scratch/jenkins/workspace/tpp-freedom-tools/tpp04--build-binary-packages--parameterized/obj/x86_64-linux-centos6/build/riscv64-unknown-elf-gcc/build-gcc-stage2/riscv64-unknown-elf/rv32imac/ilp32/libgcc/../../../../../riscv-gcc/libgcc/soft-fp/floatsidf.c:41 (discriminator 24)
20013426:	1555                	addi	a0,a0,-11
20013428:	00a417b3          	sll	a5,s0,a0
2001342c:	8526                	mv	a0,s1
/home/scratch/jenkins/workspace/tpp-freedom-tools/tpp04--build-binary-packages--parameterized/obj/x86_64-linux-centos6/build/riscv64-unknown-elf-gcc/build-gcc-stage2/riscv64-unknown-elf/rv32imac/ilp32/libgcc/../../../../../riscv-gcc/libgcc/soft-fp/floatsidf.c:41
2001342e:	4401                	li	s0,0
20013430:	bfe9                	j	2001340a <__floatsidf+0x38>
20013432:	4701                	li	a4,0
20013434:	4781                	li	a5,0
20013436:	bfe5                	j	2001342e <__floatsidf+0x5c>

20013438 <__clzsi2>:
__clzsi2():
/home/scratch/jenkins/workspace/tpp-freedom-tools/tpp04--build-binary-packages--parameterized/obj/x86_64-linux-centos6/build/riscv64-unknown-elf-gcc/build-gcc-stage2/riscv64-unknown-elf/rv32imac/ilp32/libgcc/../../../../../riscv-gcc/libgcc/libgcc2.c:710
20013438:	67c1                	lui	a5,0x10
2001343a:	02f57663          	bgeu	a0,a5,20013466 <__clzsi2+0x2e>
/home/scratch/jenkins/workspace/tpp-freedom-tools/tpp04--build-binary-packages--parameterized/obj/x86_64-linux-centos6/build/riscv64-unknown-elf-gcc/build-gcc-stage2/riscv64-unknown-elf/rv32imac/ilp32/libgcc/../../../../../riscv-gcc/libgcc/libgcc2.c:710 (discriminator 3)
2001343e:	0ff00793          	li	a5,255
20013442:	00a7b7b3          	sltu	a5,a5,a0
20013446:	078e                	slli	a5,a5,0x3
/home/scratch/jenkins/workspace/tpp-freedom-tools/tpp04--build-binary-packages--parameterized/obj/x86_64-linux-centos6/build/riscv64-unknown-elf-gcc/build-gcc-stage2/riscv64-unknown-elf/rv32imac/ilp32/libgcc/../../../../../riscv-gcc/libgcc/libgcc2.c:710 (discriminator 14)
20013448:	02000713          	li	a4,32
2001344c:	8f1d                	sub	a4,a4,a5
2001344e:	00f55533          	srl	a0,a0,a5
20013452:	ffffd797          	auipc	a5,0xffffd
20013456:	19a78793          	addi	a5,a5,410 # 200105ec <__clz_tab>
2001345a:	953e                	add	a0,a0,a5
2001345c:	00054503          	lbu	a0,0(a0)
/home/scratch/jenkins/workspace/tpp-freedom-tools/tpp04--build-binary-packages--parameterized/obj/x86_64-linux-centos6/build/riscv64-unknown-elf-gcc/build-gcc-stage2/riscv64-unknown-elf/rv32imac/ilp32/libgcc/../../../../../riscv-gcc/libgcc/libgcc2.c:713 (discriminator 14)
20013460:	40a70533          	sub	a0,a4,a0
20013464:	8082                	ret
/home/scratch/jenkins/workspace/tpp-freedom-tools/tpp04--build-binary-packages--parameterized/obj/x86_64-linux-centos6/build/riscv64-unknown-elf-gcc/build-gcc-stage2/riscv64-unknown-elf/rv32imac/ilp32/libgcc/../../../../../riscv-gcc/libgcc/libgcc2.c:710 (discriminator 4)
20013466:	01000737          	lui	a4,0x1000
2001346a:	47c1                	li	a5,16
2001346c:	fce56ee3          	bltu	a0,a4,20013448 <__clzsi2+0x10>
/home/scratch/jenkins/workspace/tpp-freedom-tools/tpp04--build-binary-packages--parameterized/obj/x86_64-linux-centos6/build/riscv64-unknown-elf-gcc/build-gcc-stage2/riscv64-unknown-elf/rv32imac/ilp32/libgcc/../../../../../riscv-gcc/libgcc/libgcc2.c:710
20013470:	47e1                	li	a5,24
20013472:	bfd9                	j	20013448 <__clzsi2+0x10>

20013474 <__metal_driver_sifive_clint0_control_base>:
__metal_driver_sifive_clint0_control_base():
/home/nicoladgg/wsFreedomStudio/sifive_hifive1_revb_hello/bsp/build/debug/./metal/machine.h:233
20013474:	1101                	addi	sp,sp,-32
20013476:	ce22                	sw	s0,28(sp)
20013478:	1000                	addi	s0,sp,32
2001347a:	fea42623          	sw	a0,-20(s0) # 7ffec <__heap_size+0x7f7ec>
/home/nicoladgg/wsFreedomStudio/sifive_hifive1_revb_hello/bsp/build/debug/./metal/machine.h:234
2001347e:	fec42703          	lw	a4,-20(s0)
20013482:	800017b7          	lui	a5,0x80001
20013486:	aa878793          	addi	a5,a5,-1368 # 80000aa8 <metal_segment_heap_target_end+0xfffff328>
2001348a:	00f71563          	bne	a4,a5,20013494 <__metal_driver_sifive_clint0_control_base+0x20>
/home/nicoladgg/wsFreedomStudio/sifive_hifive1_revb_hello/bsp/build/debug/./metal/machine.h:235
2001348e:	020007b7          	lui	a5,0x2000
20013492:	a011                	j	20013496 <__metal_driver_sifive_clint0_control_base+0x22>
/home/nicoladgg/wsFreedomStudio/sifive_hifive1_revb_hello/bsp/build/debug/./metal/machine.h:238
20013494:	4781                	li	a5,0
/home/nicoladgg/wsFreedomStudio/sifive_hifive1_revb_hello/bsp/build/debug/./metal/machine.h:240
20013496:	853e                	mv	a0,a5
20013498:	4472                	lw	s0,28(sp)
2001349a:	6105                	addi	sp,sp,32
2001349c:	8082                	ret

2001349e <__metal_driver_sifive_clint0_num_interrupts>:
__metal_driver_sifive_clint0_num_interrupts():
/home/nicoladgg/wsFreedomStudio/sifive_hifive1_revb_hello/bsp/build/debug/./metal/machine.h:253
2001349e:	1101                	addi	sp,sp,-32
200134a0:	ce22                	sw	s0,28(sp)
200134a2:	1000                	addi	s0,sp,32
200134a4:	fea42623          	sw	a0,-20(s0)
/home/nicoladgg/wsFreedomStudio/sifive_hifive1_revb_hello/bsp/build/debug/./metal/machine.h:254
200134a8:	fec42703          	lw	a4,-20(s0)
200134ac:	800017b7          	lui	a5,0x80001
200134b0:	aa878793          	addi	a5,a5,-1368 # 80000aa8 <metal_segment_heap_target_end+0xfffff328>
200134b4:	00f71463          	bne	a4,a5,200134bc <__metal_driver_sifive_clint0_num_interrupts+0x1e>
/home/nicoladgg/wsFreedomStudio/sifive_hifive1_revb_hello/bsp/build/debug/./metal/machine.h:255
200134b8:	4789                	li	a5,2
200134ba:	a011                	j	200134be <__metal_driver_sifive_clint0_num_interrupts+0x20>
/home/nicoladgg/wsFreedomStudio/sifive_hifive1_revb_hello/bsp/build/debug/./metal/machine.h:258
200134bc:	4781                	li	a5,0
/home/nicoladgg/wsFreedomStudio/sifive_hifive1_revb_hello/bsp/build/debug/./metal/machine.h:260
200134be:	853e                	mv	a0,a5
200134c0:	4472                	lw	s0,28(sp)
200134c2:	6105                	addi	sp,sp,32
200134c4:	8082                	ret

200134c6 <__metal_driver_sifive_clint0_interrupt_parents>:
__metal_driver_sifive_clint0_interrupt_parents():
/home/nicoladgg/wsFreedomStudio/sifive_hifive1_revb_hello/bsp/build/debug/./metal/machine.h:263
200134c6:	1101                	addi	sp,sp,-32
200134c8:	ce22                	sw	s0,28(sp)
200134ca:	1000                	addi	s0,sp,32
200134cc:	fea42623          	sw	a0,-20(s0)
200134d0:	feb42423          	sw	a1,-24(s0)
/home/nicoladgg/wsFreedomStudio/sifive_hifive1_revb_hello/bsp/build/debug/./metal/machine.h:264
200134d4:	fe842783          	lw	a5,-24(s0)
200134d8:	e791                	bnez	a5,200134e4 <__metal_driver_sifive_clint0_interrupt_parents+0x1e>
/home/nicoladgg/wsFreedomStudio/sifive_hifive1_revb_hello/bsp/build/debug/./metal/machine.h:265
200134da:	800007b7          	lui	a5,0x80000
200134de:	09078793          	addi	a5,a5,144 # 80000090 <metal_segment_heap_target_end+0xffffe910>
200134e2:	a821                	j	200134fa <__metal_driver_sifive_clint0_interrupt_parents+0x34>
/home/nicoladgg/wsFreedomStudio/sifive_hifive1_revb_hello/bsp/build/debug/./metal/machine.h:267
200134e4:	fe842703          	lw	a4,-24(s0)
200134e8:	4785                	li	a5,1
200134ea:	00f71763          	bne	a4,a5,200134f8 <__metal_driver_sifive_clint0_interrupt_parents+0x32>
/home/nicoladgg/wsFreedomStudio/sifive_hifive1_revb_hello/bsp/build/debug/./metal/machine.h:268
200134ee:	800007b7          	lui	a5,0x80000
200134f2:	09078793          	addi	a5,a5,144 # 80000090 <metal_segment_heap_target_end+0xffffe910>
200134f6:	a011                	j	200134fa <__metal_driver_sifive_clint0_interrupt_parents+0x34>
/home/nicoladgg/wsFreedomStudio/sifive_hifive1_revb_hello/bsp/build/debug/./metal/machine.h:271
200134f8:	4781                	li	a5,0
/home/nicoladgg/wsFreedomStudio/sifive_hifive1_revb_hello/bsp/build/debug/./metal/machine.h:273
200134fa:	853e                	mv	a0,a5
200134fc:	4472                	lw	s0,28(sp)
200134fe:	6105                	addi	sp,sp,32
20013500:	8082                	ret

20013502 <__metal_driver_sifive_clint0_interrupt_lines>:
__metal_driver_sifive_clint0_interrupt_lines():
/home/nicoladgg/wsFreedomStudio/sifive_hifive1_revb_hello/bsp/build/debug/./metal/machine.h:276
20013502:	1101                	addi	sp,sp,-32
20013504:	ce22                	sw	s0,28(sp)
20013506:	1000                	addi	s0,sp,32
20013508:	fea42623          	sw	a0,-20(s0)
2001350c:	feb42423          	sw	a1,-24(s0)
/home/nicoladgg/wsFreedomStudio/sifive_hifive1_revb_hello/bsp/build/debug/./metal/machine.h:277
20013510:	fe842783          	lw	a5,-24(s0)
20013514:	e399                	bnez	a5,2001351a <__metal_driver_sifive_clint0_interrupt_lines+0x18>
/home/nicoladgg/wsFreedomStudio/sifive_hifive1_revb_hello/bsp/build/debug/./metal/machine.h:278
20013516:	478d                	li	a5,3
20013518:	a809                	j	2001352a <__metal_driver_sifive_clint0_interrupt_lines+0x28>
/home/nicoladgg/wsFreedomStudio/sifive_hifive1_revb_hello/bsp/build/debug/./metal/machine.h:280
2001351a:	fe842703          	lw	a4,-24(s0)
2001351e:	4785                	li	a5,1
20013520:	00f71463          	bne	a4,a5,20013528 <__metal_driver_sifive_clint0_interrupt_lines+0x26>
/home/nicoladgg/wsFreedomStudio/sifive_hifive1_revb_hello/bsp/build/debug/./metal/machine.h:281
20013524:	479d                	li	a5,7
20013526:	a011                	j	2001352a <__metal_driver_sifive_clint0_interrupt_lines+0x28>
/home/nicoladgg/wsFreedomStudio/sifive_hifive1_revb_hello/bsp/build/debug/./metal/machine.h:284
20013528:	4781                	li	a5,0
/home/nicoladgg/wsFreedomStudio/sifive_hifive1_revb_hello/bsp/build/debug/./metal/machine.h:286
2001352a:	853e                	mv	a0,a5
2001352c:	4472                	lw	s0,28(sp)
2001352e:	6105                	addi	sp,sp,32
20013530:	8082                	ret

20013532 <__metal_clint0_mtime_get>:
__metal_clint0_mtime_get():
/home/nicoladgg/wsFreedomStudio/sifive_hifive1_revb_hello/freedom-metal/src/drivers/riscv_clint0.c:14
20013532:	715d                	addi	sp,sp,-80
20013534:	c686                	sw	ra,76(sp)
20013536:	c4a2                	sw	s0,72(sp)
20013538:	c2ca                	sw	s2,68(sp)
2001353a:	c0ce                	sw	s3,64(sp)
2001353c:	de52                	sw	s4,60(sp)
2001353e:	dc56                	sw	s5,56(sp)
20013540:	da5a                	sw	s6,52(sp)
20013542:	d85e                	sw	s7,48(sp)
20013544:	d662                	sw	s8,44(sp)
20013546:	d466                	sw	s9,40(sp)
20013548:	0880                	addi	s0,sp,80
2001354a:	faa42e23          	sw	a0,-68(s0)
/home/nicoladgg/wsFreedomStudio/sifive_hifive1_revb_hello/freedom-metal/src/drivers/riscv_clint0.c:17
2001354e:	fbc42783          	lw	a5,-68(s0)
20013552:	853e                	mv	a0,a5
20013554:	3705                	jal	20013474 <__metal_driver_sifive_clint0_control_base>
20013556:	fca42623          	sw	a0,-52(s0)
/home/nicoladgg/wsFreedomStudio/sifive_hifive1_revb_hello/freedom-metal/src/drivers/riscv_clint0.c:21 (discriminator 1)
2001355a:	fcc42703          	lw	a4,-52(s0)
2001355e:	67b1                	lui	a5,0xc
20013560:	17f1                	addi	a5,a5,-4
20013562:	97ba                	add	a5,a5,a4
20013564:	439c                	lw	a5,0(a5)
20013566:	fcf42423          	sw	a5,-56(s0)
/home/nicoladgg/wsFreedomStudio/sifive_hifive1_revb_hello/freedom-metal/src/drivers/riscv_clint0.c:23 (discriminator 1)
2001356a:	fcc42703          	lw	a4,-52(s0)
2001356e:	67b1                	lui	a5,0xc
20013570:	17e1                	addi	a5,a5,-8
20013572:	97ba                	add	a5,a5,a4
20013574:	439c                	lw	a5,0(a5)
20013576:	fcf42223          	sw	a5,-60(s0)
/home/nicoladgg/wsFreedomStudio/sifive_hifive1_revb_hello/freedom-metal/src/drivers/riscv_clint0.c:25 (discriminator 1)
2001357a:	fcc42703          	lw	a4,-52(s0)
2001357e:	67b1                	lui	a5,0xc
20013580:	17f1                	addi	a5,a5,-4
20013582:	97ba                	add	a5,a5,a4
20013584:	439c                	lw	a5,0(a5)
20013586:	fc842703          	lw	a4,-56(s0)
2001358a:	fcf718e3          	bne	a4,a5,2001355a <__metal_clint0_mtime_get+0x28>
/home/nicoladgg/wsFreedomStudio/sifive_hifive1_revb_hello/freedom-metal/src/drivers/riscv_clint0.c:29
2001358e:	fc842783          	lw	a5,-56(s0)
20013592:	8c3e                	mv	s8,a5
20013594:	4c81                	li	s9,0
20013596:	000c1993          	slli	s3,s8,0x0
2001359a:	4901                	li	s2,0
2001359c:	fc442783          	lw	a5,-60(s0)
200135a0:	8a3e                	mv	s4,a5
200135a2:	4a81                	li	s5,0
200135a4:	01496b33          	or	s6,s2,s4
200135a8:	0159ebb3          	or	s7,s3,s5
200135ac:	875a                	mv	a4,s6
200135ae:	87de                	mv	a5,s7
/home/nicoladgg/wsFreedomStudio/sifive_hifive1_revb_hello/freedom-metal/src/drivers/riscv_clint0.c:30
200135b0:	853a                	mv	a0,a4
200135b2:	85be                	mv	a1,a5
200135b4:	40b6                	lw	ra,76(sp)
200135b6:	4426                	lw	s0,72(sp)
200135b8:	4916                	lw	s2,68(sp)
200135ba:	4986                	lw	s3,64(sp)
200135bc:	5a72                	lw	s4,60(sp)
200135be:	5ae2                	lw	s5,56(sp)
200135c0:	5b52                	lw	s6,52(sp)
200135c2:	5bc2                	lw	s7,48(sp)
200135c4:	5c32                	lw	s8,44(sp)
200135c6:	5ca2                	lw	s9,40(sp)
200135c8:	6161                	addi	sp,sp,80
200135ca:	8082                	ret

200135cc <__metal_driver_riscv_clint0_mtimecmp_set>:
__metal_driver_riscv_clint0_mtimecmp_set():
/home/nicoladgg/wsFreedomStudio/sifive_hifive1_revb_hello/freedom-metal/src/drivers/riscv_clint0.c:34
200135cc:	7179                	addi	sp,sp,-48
200135ce:	d606                	sw	ra,44(sp)
200135d0:	d422                	sw	s0,40(sp)
200135d2:	d24a                	sw	s2,36(sp)
200135d4:	d04e                	sw	s3,32(sp)
200135d6:	1800                	addi	s0,sp,48
200135d8:	fca42e23          	sw	a0,-36(s0)
200135dc:	fcb42c23          	sw	a1,-40(s0)
200135e0:	fcc42823          	sw	a2,-48(s0)
200135e4:	fcd42a23          	sw	a3,-44(s0)
/home/nicoladgg/wsFreedomStudio/sifive_hifive1_revb_hello/freedom-metal/src/drivers/riscv_clint0.c:35
200135e8:	fdc42783          	lw	a5,-36(s0)
200135ec:	fef42623          	sw	a5,-20(s0)
/home/nicoladgg/wsFreedomStudio/sifive_hifive1_revb_hello/freedom-metal/src/drivers/riscv_clint0.c:38
200135f0:	fec42783          	lw	a5,-20(s0)
200135f4:	853e                	mv	a0,a5
200135f6:	3dbd                	jal	20013474 <__metal_driver_sifive_clint0_control_base>
200135f8:	fea42423          	sw	a0,-24(s0)
/home/nicoladgg/wsFreedomStudio/sifive_hifive1_revb_hello/freedom-metal/src/drivers/riscv_clint0.c:45
200135fc:	fd842783          	lw	a5,-40(s0)
20013600:	078e                	slli	a5,a5,0x3
20013602:	873e                	mv	a4,a5
20013604:	fe842783          	lw	a5,-24(s0)
20013608:	973e                	add	a4,a4,a5
2001360a:	6791                	lui	a5,0x4
2001360c:	0791                	addi	a5,a5,4
2001360e:	97ba                	add	a5,a5,a4
20013610:	873e                	mv	a4,a5
/home/nicoladgg/wsFreedomStudio/sifive_hifive1_revb_hello/freedom-metal/src/drivers/riscv_clint0.c:47
20013612:	57fd                	li	a5,-1
20013614:	c31c                	sw	a5,0(a4)
/home/nicoladgg/wsFreedomStudio/sifive_hifive1_revb_hello/freedom-metal/src/drivers/riscv_clint0.c:48
20013616:	fd842783          	lw	a5,-40(s0)
2001361a:	078e                	slli	a5,a5,0x3
2001361c:	873e                	mv	a4,a5
2001361e:	fe842783          	lw	a5,-24(s0)
20013622:	973e                	add	a4,a4,a5
20013624:	6791                	lui	a5,0x4
20013626:	97ba                	add	a5,a5,a4
20013628:	873e                	mv	a4,a5
/home/nicoladgg/wsFreedomStudio/sifive_hifive1_revb_hello/freedom-metal/src/drivers/riscv_clint0.c:50
2001362a:	fd042783          	lw	a5,-48(s0)
/home/nicoladgg/wsFreedomStudio/sifive_hifive1_revb_hello/freedom-metal/src/drivers/riscv_clint0.c:49
2001362e:	c31c                	sw	a5,0(a4)
/home/nicoladgg/wsFreedomStudio/sifive_hifive1_revb_hello/freedom-metal/src/drivers/riscv_clint0.c:53
20013630:	fd442783          	lw	a5,-44(s0)
20013634:	0007d913          	srli	s2,a5,0x0
20013638:	4981                	li	s3,0
/home/nicoladgg/wsFreedomStudio/sifive_hifive1_revb_hello/freedom-metal/src/drivers/riscv_clint0.c:51
2001363a:	fd842783          	lw	a5,-40(s0)
2001363e:	078e                	slli	a5,a5,0x3
20013640:	873e                	mv	a4,a5
20013642:	fe842783          	lw	a5,-24(s0)
20013646:	973e                	add	a4,a4,a5
20013648:	6791                	lui	a5,0x4
2001364a:	0791                	addi	a5,a5,4
2001364c:	97ba                	add	a5,a5,a4
/home/nicoladgg/wsFreedomStudio/sifive_hifive1_revb_hello/freedom-metal/src/drivers/riscv_clint0.c:53
2001364e:	874a                	mv	a4,s2
20013650:	c398                	sw	a4,0(a5)
/home/nicoladgg/wsFreedomStudio/sifive_hifive1_revb_hello/freedom-metal/src/drivers/riscv_clint0.c:54
20013652:	4781                	li	a5,0
/home/nicoladgg/wsFreedomStudio/sifive_hifive1_revb_hello/freedom-metal/src/drivers/riscv_clint0.c:55
20013654:	853e                	mv	a0,a5
20013656:	50b2                	lw	ra,44(sp)
20013658:	5422                	lw	s0,40(sp)
2001365a:	5912                	lw	s2,36(sp)
2001365c:	5982                	lw	s3,32(sp)
2001365e:	6145                	addi	sp,sp,48
20013660:	8082                	ret

20013662 <_get_cpu_intc>:
_get_cpu_intc():
/home/nicoladgg/wsFreedomStudio/sifive_hifive1_revb_hello/freedom-metal/src/drivers/riscv_clint0.c:57
20013662:	1101                	addi	sp,sp,-32
20013664:	ce06                	sw	ra,28(sp)
20013666:	cc22                	sw	s0,24(sp)
20013668:	1000                	addi	s0,sp,32
/home/nicoladgg/wsFreedomStudio/sifive_hifive1_revb_hello/freedom-metal/src/drivers/riscv_clint0.c:58
2001366a:	fe042623          	sw	zero,-20(s0)
/home/nicoladgg/wsFreedomStudio/sifive_hifive1_revb_hello/freedom-metal/src/drivers/riscv_clint0.c:59
2001366e:	f14027f3          	csrr	a5,mhartid
20013672:	fef42623          	sw	a5,-20(s0)
/home/nicoladgg/wsFreedomStudio/sifive_hifive1_revb_hello/freedom-metal/src/drivers/riscv_clint0.c:62
20013676:	fec42783          	lw	a5,-20(s0)
2001367a:	853e                	mv	a0,a5
2001367c:	55e040ef          	jal	ra,20017bda <metal_cpu_get>
20013680:	fea42423          	sw	a0,-24(s0)
/home/nicoladgg/wsFreedomStudio/sifive_hifive1_revb_hello/freedom-metal/src/drivers/riscv_clint0.c:64
20013684:	fe842503          	lw	a0,-24(s0)
20013688:	52c040ef          	jal	ra,20017bb4 <metal_cpu_interrupt_controller>
2001368c:	87aa                	mv	a5,a0
/home/nicoladgg/wsFreedomStudio/sifive_hifive1_revb_hello/freedom-metal/src/drivers/riscv_clint0.c:65
2001368e:	853e                	mv	a0,a5
20013690:	40f2                	lw	ra,28(sp)
20013692:	4462                	lw	s0,24(sp)
20013694:	6105                	addi	sp,sp,32
20013696:	8082                	ret

20013698 <__metal_driver_riscv_clint0_init>:
__metal_driver_riscv_clint0_init():
/home/nicoladgg/wsFreedomStudio/sifive_hifive1_revb_hello/freedom-metal/src/drivers/riscv_clint0.c:67
20013698:	7139                	addi	sp,sp,-64
2001369a:	de06                	sw	ra,60(sp)
2001369c:	dc22                	sw	s0,56(sp)
2001369e:	0080                	addi	s0,sp,64
200136a0:	fca42623          	sw	a0,-52(s0)
/home/nicoladgg/wsFreedomStudio/sifive_hifive1_revb_hello/freedom-metal/src/drivers/riscv_clint0.c:69
200136a4:	fcc42503          	lw	a0,-52(s0)
200136a8:	3bdd                	jal	2001349e <__metal_driver_sifive_clint0_num_interrupts>
200136aa:	fea42423          	sw	a0,-24(s0)
/home/nicoladgg/wsFreedomStudio/sifive_hifive1_revb_hello/freedom-metal/src/drivers/riscv_clint0.c:70
200136ae:	fcc42783          	lw	a5,-52(s0)
200136b2:	fef42223          	sw	a5,-28(s0)
/home/nicoladgg/wsFreedomStudio/sifive_hifive1_revb_hello/freedom-metal/src/drivers/riscv_clint0.c:73
200136b6:	fe442783          	lw	a5,-28(s0)
200136ba:	43dc                	lw	a5,4(a5)
200136bc:	efa9                	bnez	a5,20013716 <__metal_driver_riscv_clint0_init+0x7e>
/home/nicoladgg/wsFreedomStudio/sifive_hifive1_revb_hello/freedom-metal/src/drivers/riscv_clint0.c:76
200136be:	fe042623          	sw	zero,-20(s0)
200136c2:	a081                	j	20013702 <__metal_driver_riscv_clint0_init+0x6a>
/home/nicoladgg/wsFreedomStudio/sifive_hifive1_revb_hello/freedom-metal/src/drivers/riscv_clint0.c:78 (discriminator 3)
200136c4:	fec42583          	lw	a1,-20(s0)
200136c8:	fcc42503          	lw	a0,-52(s0)
200136cc:	3bed                	jal	200134c6 <__metal_driver_sifive_clint0_interrupt_parents>
200136ce:	fea42023          	sw	a0,-32(s0)
/home/nicoladgg/wsFreedomStudio/sifive_hifive1_revb_hello/freedom-metal/src/drivers/riscv_clint0.c:80 (discriminator 3)
200136d2:	fec42583          	lw	a1,-20(s0)
200136d6:	fcc42503          	lw	a0,-52(s0)
200136da:	3525                	jal	20013502 <__metal_driver_sifive_clint0_interrupt_lines>
200136dc:	fca42e23          	sw	a0,-36(s0)
/home/nicoladgg/wsFreedomStudio/sifive_hifive1_revb_hello/freedom-metal/src/drivers/riscv_clint0.c:81 (discriminator 3)
200136e0:	fe042783          	lw	a5,-32(s0)
200136e4:	439c                	lw	a5,0(a5)
200136e6:	4fdc                	lw	a5,28(a5)
200136e8:	fcc42683          	lw	a3,-52(s0)
200136ec:	4601                	li	a2,0
200136ee:	fdc42583          	lw	a1,-36(s0)
200136f2:	fe042503          	lw	a0,-32(s0)
200136f6:	9782                	jalr	a5
/home/nicoladgg/wsFreedomStudio/sifive_hifive1_revb_hello/freedom-metal/src/drivers/riscv_clint0.c:76 (discriminator 3)
200136f8:	fec42783          	lw	a5,-20(s0)
200136fc:	0785                	addi	a5,a5,1
200136fe:	fef42623          	sw	a5,-20(s0)
/home/nicoladgg/wsFreedomStudio/sifive_hifive1_revb_hello/freedom-metal/src/drivers/riscv_clint0.c:76 (discriminator 1)
20013702:	fec42703          	lw	a4,-20(s0)
20013706:	fe842783          	lw	a5,-24(s0)
2001370a:	faf74de3          	blt	a4,a5,200136c4 <__metal_driver_riscv_clint0_init+0x2c>
/home/nicoladgg/wsFreedomStudio/sifive_hifive1_revb_hello/freedom-metal/src/drivers/riscv_clint0.c:83
2001370e:	fe442783          	lw	a5,-28(s0)
20013712:	4705                	li	a4,1
20013714:	c3d8                	sw	a4,4(a5)
/home/nicoladgg/wsFreedomStudio/sifive_hifive1_revb_hello/freedom-metal/src/drivers/riscv_clint0.c:85
20013716:	0001                	nop
20013718:	50f2                	lw	ra,60(sp)
2001371a:	5462                	lw	s0,56(sp)
2001371c:	6121                	addi	sp,sp,64
2001371e:	8082                	ret

20013720 <__metal_driver_riscv_clint0_register>:
__metal_driver_riscv_clint0_register():
/home/nicoladgg/wsFreedomStudio/sifive_hifive1_revb_hello/freedom-metal/src/drivers/riscv_clint0.c:89
20013720:	7139                	addi	sp,sp,-64
20013722:	de06                	sw	ra,60(sp)
20013724:	dc22                	sw	s0,56(sp)
20013726:	0080                	addi	s0,sp,64
20013728:	fca42623          	sw	a0,-52(s0)
2001372c:	fcb42423          	sw	a1,-56(s0)
20013730:	fcc42223          	sw	a2,-60(s0)
20013734:	fcd42023          	sw	a3,-64(s0)
/home/nicoladgg/wsFreedomStudio/sifive_hifive1_revb_hello/freedom-metal/src/drivers/riscv_clint0.c:90
20013738:	57fd                	li	a5,-1
2001373a:	fef42623          	sw	a5,-20(s0)
/home/nicoladgg/wsFreedomStudio/sifive_hifive1_revb_hello/freedom-metal/src/drivers/riscv_clint0.c:91
2001373e:	49c010ef          	jal	ra,20014bda <__metal_controller_interrupt_vector_mode>
20013742:	fea42023          	sw	a0,-32(s0)
/home/nicoladgg/wsFreedomStudio/sifive_hifive1_revb_hello/freedom-metal/src/drivers/riscv_clint0.c:92
20013746:	fe042423          	sw	zero,-24(s0)
/home/nicoladgg/wsFreedomStudio/sifive_hifive1_revb_hello/freedom-metal/src/drivers/riscv_clint0.c:93
2001374a:	3f21                	jal	20013662 <_get_cpu_intc>
2001374c:	fca42e23          	sw	a0,-36(s0)
/home/nicoladgg/wsFreedomStudio/sifive_hifive1_revb_hello/freedom-metal/src/drivers/riscv_clint0.c:95
20013750:	fcc42503          	lw	a0,-52(s0)
20013754:	33a9                	jal	2001349e <__metal_driver_sifive_clint0_num_interrupts>
20013756:	fca42c23          	sw	a0,-40(s0)
/home/nicoladgg/wsFreedomStudio/sifive_hifive1_revb_hello/freedom-metal/src/drivers/riscv_clint0.c:97
2001375a:	fe042703          	lw	a4,-32(s0)
2001375e:	4785                	li	a5,1
20013760:	00f70863          	beq	a4,a5,20013770 <__metal_driver_riscv_clint0_register+0x50>
/home/nicoladgg/wsFreedomStudio/sifive_hifive1_revb_hello/freedom-metal/src/drivers/riscv_clint0.c:97 (discriminator 1)
20013764:	fe042783          	lw	a5,-32(s0)
20013768:	c781                	beqz	a5,20013770 <__metal_driver_riscv_clint0_register+0x50>
/home/nicoladgg/wsFreedomStudio/sifive_hifive1_revb_hello/freedom-metal/src/drivers/riscv_clint0.c:98
2001376a:	fec42783          	lw	a5,-20(s0)
2001376e:	a049                	j	200137f0 <__metal_driver_riscv_clint0_register+0xd0>
/home/nicoladgg/wsFreedomStudio/sifive_hifive1_revb_hello/freedom-metal/src/drivers/riscv_clint0.c:101
20013770:	fe042223          	sw	zero,-28(s0)
20013774:	a091                	j	200137b8 <__metal_driver_riscv_clint0_register+0x98>
/home/nicoladgg/wsFreedomStudio/sifive_hifive1_revb_hello/freedom-metal/src/drivers/riscv_clint0.c:102
20013776:	fe442583          	lw	a1,-28(s0)
2001377a:	fcc42503          	lw	a0,-52(s0)
2001377e:	3351                	jal	20013502 <__metal_driver_sifive_clint0_interrupt_lines>
20013780:	fca42a23          	sw	a0,-44(s0)
/home/nicoladgg/wsFreedomStudio/sifive_hifive1_revb_hello/freedom-metal/src/drivers/riscv_clint0.c:103
20013784:	fe442583          	lw	a1,-28(s0)
20013788:	fcc42503          	lw	a0,-52(s0)
2001378c:	3b2d                	jal	200134c6 <__metal_driver_sifive_clint0_interrupt_parents>
2001378e:	fea42423          	sw	a0,-24(s0)
/home/nicoladgg/wsFreedomStudio/sifive_hifive1_revb_hello/freedom-metal/src/drivers/riscv_clint0.c:104
20013792:	fdc42703          	lw	a4,-36(s0)
20013796:	fe842783          	lw	a5,-24(s0)
2001379a:	00f71863          	bne	a4,a5,200137aa <__metal_driver_riscv_clint0_register+0x8a>
/home/nicoladgg/wsFreedomStudio/sifive_hifive1_revb_hello/freedom-metal/src/drivers/riscv_clint0.c:104 (discriminator 1)
2001379e:	fc842703          	lw	a4,-56(s0)
200137a2:	fd442783          	lw	a5,-44(s0)
200137a6:	02f70063          	beq	a4,a5,200137c6 <__metal_driver_riscv_clint0_register+0xa6>
/home/nicoladgg/wsFreedomStudio/sifive_hifive1_revb_hello/freedom-metal/src/drivers/riscv_clint0.c:107 (discriminator 2)
200137aa:	fe042423          	sw	zero,-24(s0)
/home/nicoladgg/wsFreedomStudio/sifive_hifive1_revb_hello/freedom-metal/src/drivers/riscv_clint0.c:101 (discriminator 2)
200137ae:	fe442783          	lw	a5,-28(s0)
200137b2:	0785                	addi	a5,a5,1
200137b4:	fef42223          	sw	a5,-28(s0)
/home/nicoladgg/wsFreedomStudio/sifive_hifive1_revb_hello/freedom-metal/src/drivers/riscv_clint0.c:101 (discriminator 1)
200137b8:	fe442703          	lw	a4,-28(s0)
200137bc:	fd842783          	lw	a5,-40(s0)
200137c0:	faf74be3          	blt	a4,a5,20013776 <__metal_driver_riscv_clint0_register+0x56>
200137c4:	a011                	j	200137c8 <__metal_driver_riscv_clint0_register+0xa8>
/home/nicoladgg/wsFreedomStudio/sifive_hifive1_revb_hello/freedom-metal/src/drivers/riscv_clint0.c:105
200137c6:	0001                	nop
/home/nicoladgg/wsFreedomStudio/sifive_hifive1_revb_hello/freedom-metal/src/drivers/riscv_clint0.c:111
200137c8:	fe842783          	lw	a5,-24(s0)
200137cc:	c385                	beqz	a5,200137ec <__metal_driver_riscv_clint0_register+0xcc>
/home/nicoladgg/wsFreedomStudio/sifive_hifive1_revb_hello/freedom-metal/src/drivers/riscv_clint0.c:112
200137ce:	fe842783          	lw	a5,-24(s0)
200137d2:	439c                	lw	a5,0(a5)
200137d4:	4fdc                	lw	a5,28(a5)
200137d6:	fc042683          	lw	a3,-64(s0)
200137da:	fc442603          	lw	a2,-60(s0)
200137de:	fc842583          	lw	a1,-56(s0)
200137e2:	fe842503          	lw	a0,-24(s0)
200137e6:	9782                	jalr	a5
200137e8:	fea42623          	sw	a0,-20(s0)
/home/nicoladgg/wsFreedomStudio/sifive_hifive1_revb_hello/freedom-metal/src/drivers/riscv_clint0.c:114
200137ec:	fec42783          	lw	a5,-20(s0)
/home/nicoladgg/wsFreedomStudio/sifive_hifive1_revb_hello/freedom-metal/src/drivers/riscv_clint0.c:115
200137f0:	853e                	mv	a0,a5
200137f2:	50f2                	lw	ra,60(sp)
200137f4:	5462                	lw	s0,56(sp)
200137f6:	6121                	addi	sp,sp,64
200137f8:	8082                	ret

200137fa <__metal_driver_riscv_clint0_vector_register>:
__metal_driver_riscv_clint0_vector_register():
/home/nicoladgg/wsFreedomStudio/sifive_hifive1_revb_hello/freedom-metal/src/drivers/riscv_clint0.c:119
200137fa:	7179                	addi	sp,sp,-48
200137fc:	d622                	sw	s0,44(sp)
200137fe:	1800                	addi	s0,sp,48
20013800:	fca42e23          	sw	a0,-36(s0)
20013804:	fcb42c23          	sw	a1,-40(s0)
20013808:	fcc42a23          	sw	a2,-44(s0)
2001380c:	fcd42823          	sw	a3,-48(s0)
/home/nicoladgg/wsFreedomStudio/sifive_hifive1_revb_hello/freedom-metal/src/drivers/riscv_clint0.c:121
20013810:	57fd                	li	a5,-1
20013812:	fef42623          	sw	a5,-20(s0)
/home/nicoladgg/wsFreedomStudio/sifive_hifive1_revb_hello/freedom-metal/src/drivers/riscv_clint0.c:122
20013816:	fec42783          	lw	a5,-20(s0)
/home/nicoladgg/wsFreedomStudio/sifive_hifive1_revb_hello/freedom-metal/src/drivers/riscv_clint0.c:123
2001381a:	853e                	mv	a0,a5
2001381c:	5432                	lw	s0,44(sp)
2001381e:	6145                	addi	sp,sp,48
20013820:	8082                	ret

20013822 <__metal_driver_riscv_clint0_get_vector_mode>:
__metal_driver_riscv_clint0_get_vector_mode():
/home/nicoladgg/wsFreedomStudio/sifive_hifive1_revb_hello/freedom-metal/src/drivers/riscv_clint0.c:126
20013822:	1101                	addi	sp,sp,-32
20013824:	ce06                	sw	ra,28(sp)
20013826:	cc22                	sw	s0,24(sp)
20013828:	1000                	addi	s0,sp,32
2001382a:	fea42623          	sw	a0,-20(s0)
/home/nicoladgg/wsFreedomStudio/sifive_hifive1_revb_hello/freedom-metal/src/drivers/riscv_clint0.c:127
2001382e:	3ac010ef          	jal	ra,20014bda <__metal_controller_interrupt_vector_mode>
20013832:	87aa                	mv	a5,a0
/home/nicoladgg/wsFreedomStudio/sifive_hifive1_revb_hello/freedom-metal/src/drivers/riscv_clint0.c:128
20013834:	853e                	mv	a0,a5
20013836:	40f2                	lw	ra,28(sp)
20013838:	4462                	lw	s0,24(sp)
2001383a:	6105                	addi	sp,sp,32
2001383c:	8082                	ret

2001383e <__metal_driver_riscv_clint0_set_vector_mode>:
__metal_driver_riscv_clint0_set_vector_mode():
/home/nicoladgg/wsFreedomStudio/sifive_hifive1_revb_hello/freedom-metal/src/drivers/riscv_clint0.c:131
2001383e:	7179                	addi	sp,sp,-48
20013840:	d606                	sw	ra,44(sp)
20013842:	d422                	sw	s0,40(sp)
20013844:	1800                	addi	s0,sp,48
20013846:	fca42e23          	sw	a0,-36(s0)
2001384a:	fcb42c23          	sw	a1,-40(s0)
/home/nicoladgg/wsFreedomStudio/sifive_hifive1_revb_hello/freedom-metal/src/drivers/riscv_clint0.c:132
2001384e:	57fd                	li	a5,-1
20013850:	fef42623          	sw	a5,-20(s0)
/home/nicoladgg/wsFreedomStudio/sifive_hifive1_revb_hello/freedom-metal/src/drivers/riscv_clint0.c:133
20013854:	3539                	jal	20013662 <_get_cpu_intc>
20013856:	fea42423          	sw	a0,-24(s0)
/home/nicoladgg/wsFreedomStudio/sifive_hifive1_revb_hello/freedom-metal/src/drivers/riscv_clint0.c:135
2001385a:	fe842783          	lw	a5,-24(s0)
2001385e:	c395                	beqz	a5,20013882 <__metal_driver_riscv_clint0_set_vector_mode+0x44>
/home/nicoladgg/wsFreedomStudio/sifive_hifive1_revb_hello/freedom-metal/src/drivers/riscv_clint0.c:138
20013860:	fd842703          	lw	a4,-40(s0)
20013864:	4785                	li	a5,1
20013866:	02e7e063          	bltu	a5,a4,20013886 <__metal_driver_riscv_clint0_set_vector_mode+0x48>
/home/nicoladgg/wsFreedomStudio/sifive_hifive1_revb_hello/freedom-metal/src/drivers/riscv_clint0.c:141
2001386a:	fe842783          	lw	a5,-24(s0)
2001386e:	439c                	lw	a5,0(a5)
20013870:	43dc                	lw	a5,4(a5)
20013872:	fd842583          	lw	a1,-40(s0)
20013876:	fe842503          	lw	a0,-24(s0)
2001387a:	9782                	jalr	a5
2001387c:	fea42623          	sw	a0,-20(s0)
/home/nicoladgg/wsFreedomStudio/sifive_hifive1_revb_hello/freedom-metal/src/drivers/riscv_clint0.c:142
20013880:	a021                	j	20013888 <__metal_driver_riscv_clint0_set_vector_mode+0x4a>
/home/nicoladgg/wsFreedomStudio/sifive_hifive1_revb_hello/freedom-metal/src/drivers/riscv_clint0.c:146
20013882:	0001                	nop
20013884:	a011                	j	20013888 <__metal_driver_riscv_clint0_set_vector_mode+0x4a>
/home/nicoladgg/wsFreedomStudio/sifive_hifive1_revb_hello/freedom-metal/src/drivers/riscv_clint0.c:144
20013886:	0001                	nop
/home/nicoladgg/wsFreedomStudio/sifive_hifive1_revb_hello/freedom-metal/src/drivers/riscv_clint0.c:147
20013888:	fec42783          	lw	a5,-20(s0)
/home/nicoladgg/wsFreedomStudio/sifive_hifive1_revb_hello/freedom-metal/src/drivers/riscv_clint0.c:148
2001388c:	853e                	mv	a0,a5
2001388e:	50b2                	lw	ra,44(sp)
20013890:	5422                	lw	s0,40(sp)
20013892:	6145                	addi	sp,sp,48
20013894:	8082                	ret

20013896 <__metal_driver_riscv_clint0_enable>:
__metal_driver_riscv_clint0_enable():
/home/nicoladgg/wsFreedomStudio/sifive_hifive1_revb_hello/freedom-metal/src/drivers/riscv_clint0.c:151
20013896:	7139                	addi	sp,sp,-64
20013898:	de06                	sw	ra,60(sp)
2001389a:	dc22                	sw	s0,56(sp)
2001389c:	0080                	addi	s0,sp,64
2001389e:	fca42623          	sw	a0,-52(s0)
200138a2:	fcb42423          	sw	a1,-56(s0)
/home/nicoladgg/wsFreedomStudio/sifive_hifive1_revb_hello/freedom-metal/src/drivers/riscv_clint0.c:152
200138a6:	57fd                	li	a5,-1
200138a8:	fef42623          	sw	a5,-20(s0)
/home/nicoladgg/wsFreedomStudio/sifive_hifive1_revb_hello/freedom-metal/src/drivers/riscv_clint0.c:154
200138ac:	fc842783          	lw	a5,-56(s0)
200138b0:	c7c9                	beqz	a5,2001393a <__metal_driver_riscv_clint0_enable+0xa4>
/home/nicoladgg/wsFreedomStudio/sifive_hifive1_revb_hello/freedom-metal/src/drivers/riscv_clint0.c:155
200138b2:	fe042423          	sw	zero,-24(s0)
/home/nicoladgg/wsFreedomStudio/sifive_hifive1_revb_hello/freedom-metal/src/drivers/riscv_clint0.c:156
200138b6:	3375                	jal	20013662 <_get_cpu_intc>
200138b8:	fea42023          	sw	a0,-32(s0)
/home/nicoladgg/wsFreedomStudio/sifive_hifive1_revb_hello/freedom-metal/src/drivers/riscv_clint0.c:158
200138bc:	fcc42503          	lw	a0,-52(s0)
200138c0:	3ef9                	jal	2001349e <__metal_driver_sifive_clint0_num_interrupts>
200138c2:	fca42e23          	sw	a0,-36(s0)
/home/nicoladgg/wsFreedomStudio/sifive_hifive1_revb_hello/freedom-metal/src/drivers/riscv_clint0.c:160
200138c6:	fe042223          	sw	zero,-28(s0)
200138ca:	a091                	j	2001390e <__metal_driver_riscv_clint0_enable+0x78>
/home/nicoladgg/wsFreedomStudio/sifive_hifive1_revb_hello/freedom-metal/src/drivers/riscv_clint0.c:162
200138cc:	fe442583          	lw	a1,-28(s0)
200138d0:	fcc42503          	lw	a0,-52(s0)
200138d4:	313d                	jal	20013502 <__metal_driver_sifive_clint0_interrupt_lines>
200138d6:	fca42c23          	sw	a0,-40(s0)
/home/nicoladgg/wsFreedomStudio/sifive_hifive1_revb_hello/freedom-metal/src/drivers/riscv_clint0.c:164
200138da:	fe442583          	lw	a1,-28(s0)
200138de:	fcc42503          	lw	a0,-52(s0)
200138e2:	36d5                	jal	200134c6 <__metal_driver_sifive_clint0_interrupt_parents>
200138e4:	fea42423          	sw	a0,-24(s0)
/home/nicoladgg/wsFreedomStudio/sifive_hifive1_revb_hello/freedom-metal/src/drivers/riscv_clint0.c:165
200138e8:	fe042703          	lw	a4,-32(s0)
200138ec:	fe842783          	lw	a5,-24(s0)
200138f0:	00f71863          	bne	a4,a5,20013900 <__metal_driver_riscv_clint0_enable+0x6a>
/home/nicoladgg/wsFreedomStudio/sifive_hifive1_revb_hello/freedom-metal/src/drivers/riscv_clint0.c:165 (discriminator 1)
200138f4:	fc842703          	lw	a4,-56(s0)
200138f8:	fd842783          	lw	a5,-40(s0)
200138fc:	02f70063          	beq	a4,a5,2001391c <__metal_driver_riscv_clint0_enable+0x86>
/home/nicoladgg/wsFreedomStudio/sifive_hifive1_revb_hello/freedom-metal/src/drivers/riscv_clint0.c:168 (discriminator 2)
20013900:	fe042423          	sw	zero,-24(s0)
/home/nicoladgg/wsFreedomStudio/sifive_hifive1_revb_hello/freedom-metal/src/drivers/riscv_clint0.c:160 (discriminator 2)
20013904:	fe442783          	lw	a5,-28(s0)
20013908:	0785                	addi	a5,a5,1
2001390a:	fef42223          	sw	a5,-28(s0)
/home/nicoladgg/wsFreedomStudio/sifive_hifive1_revb_hello/freedom-metal/src/drivers/riscv_clint0.c:160 (discriminator 1)
2001390e:	fe442703          	lw	a4,-28(s0)
20013912:	fdc42783          	lw	a5,-36(s0)
20013916:	faf74be3          	blt	a4,a5,200138cc <__metal_driver_riscv_clint0_enable+0x36>
2001391a:	a011                	j	2001391e <__metal_driver_riscv_clint0_enable+0x88>
/home/nicoladgg/wsFreedomStudio/sifive_hifive1_revb_hello/freedom-metal/src/drivers/riscv_clint0.c:166
2001391c:	0001                	nop
/home/nicoladgg/wsFreedomStudio/sifive_hifive1_revb_hello/freedom-metal/src/drivers/riscv_clint0.c:172
2001391e:	fe842783          	lw	a5,-24(s0)
20013922:	cf81                	beqz	a5,2001393a <__metal_driver_riscv_clint0_enable+0xa4>
/home/nicoladgg/wsFreedomStudio/sifive_hifive1_revb_hello/freedom-metal/src/drivers/riscv_clint0.c:173
20013924:	fe842783          	lw	a5,-24(s0)
20013928:	439c                	lw	a5,0(a5)
2001392a:	53dc                	lw	a5,36(a5)
2001392c:	fc842583          	lw	a1,-56(s0)
20013930:	fe842503          	lw	a0,-24(s0)
20013934:	9782                	jalr	a5
20013936:	fea42623          	sw	a0,-20(s0)
/home/nicoladgg/wsFreedomStudio/sifive_hifive1_revb_hello/freedom-metal/src/drivers/riscv_clint0.c:177
2001393a:	fec42783          	lw	a5,-20(s0)
/home/nicoladgg/wsFreedomStudio/sifive_hifive1_revb_hello/freedom-metal/src/drivers/riscv_clint0.c:178
2001393e:	853e                	mv	a0,a5
20013940:	50f2                	lw	ra,60(sp)
20013942:	5462                	lw	s0,56(sp)
20013944:	6121                	addi	sp,sp,64
20013946:	8082                	ret

20013948 <__metal_driver_riscv_clint0_disable>:
__metal_driver_riscv_clint0_disable():
/home/nicoladgg/wsFreedomStudio/sifive_hifive1_revb_hello/freedom-metal/src/drivers/riscv_clint0.c:181
20013948:	7139                	addi	sp,sp,-64
2001394a:	de06                	sw	ra,60(sp)
2001394c:	dc22                	sw	s0,56(sp)
2001394e:	0080                	addi	s0,sp,64
20013950:	fca42623          	sw	a0,-52(s0)
20013954:	fcb42423          	sw	a1,-56(s0)
/home/nicoladgg/wsFreedomStudio/sifive_hifive1_revb_hello/freedom-metal/src/drivers/riscv_clint0.c:182
20013958:	57fd                	li	a5,-1
2001395a:	fef42623          	sw	a5,-20(s0)
/home/nicoladgg/wsFreedomStudio/sifive_hifive1_revb_hello/freedom-metal/src/drivers/riscv_clint0.c:184
2001395e:	fc842783          	lw	a5,-56(s0)
20013962:	c7d9                	beqz	a5,200139f0 <__metal_driver_riscv_clint0_disable+0xa8>
/home/nicoladgg/wsFreedomStudio/sifive_hifive1_revb_hello/freedom-metal/src/drivers/riscv_clint0.c:185
20013964:	fe042423          	sw	zero,-24(s0)
/home/nicoladgg/wsFreedomStudio/sifive_hifive1_revb_hello/freedom-metal/src/drivers/riscv_clint0.c:186
20013968:	39ed                	jal	20013662 <_get_cpu_intc>
2001396a:	fea42023          	sw	a0,-32(s0)
/home/nicoladgg/wsFreedomStudio/sifive_hifive1_revb_hello/freedom-metal/src/drivers/riscv_clint0.c:188
2001396e:	fcc42503          	lw	a0,-52(s0)
20013972:	b2dff0ef          	jal	ra,2001349e <__metal_driver_sifive_clint0_num_interrupts>
20013976:	fca42e23          	sw	a0,-36(s0)
/home/nicoladgg/wsFreedomStudio/sifive_hifive1_revb_hello/freedom-metal/src/drivers/riscv_clint0.c:190
2001397a:	fe042223          	sw	zero,-28(s0)
2001397e:	a099                	j	200139c4 <__metal_driver_riscv_clint0_disable+0x7c>
/home/nicoladgg/wsFreedomStudio/sifive_hifive1_revb_hello/freedom-metal/src/drivers/riscv_clint0.c:192
20013980:	fe442583          	lw	a1,-28(s0)
20013984:	fcc42503          	lw	a0,-52(s0)
20013988:	3ead                	jal	20013502 <__metal_driver_sifive_clint0_interrupt_lines>
2001398a:	fca42c23          	sw	a0,-40(s0)
/home/nicoladgg/wsFreedomStudio/sifive_hifive1_revb_hello/freedom-metal/src/drivers/riscv_clint0.c:194
2001398e:	fe442583          	lw	a1,-28(s0)
20013992:	fcc42503          	lw	a0,-52(s0)
20013996:	b31ff0ef          	jal	ra,200134c6 <__metal_driver_sifive_clint0_interrupt_parents>
2001399a:	fea42423          	sw	a0,-24(s0)
/home/nicoladgg/wsFreedomStudio/sifive_hifive1_revb_hello/freedom-metal/src/drivers/riscv_clint0.c:195
2001399e:	fe042703          	lw	a4,-32(s0)
200139a2:	fe842783          	lw	a5,-24(s0)
200139a6:	00f71863          	bne	a4,a5,200139b6 <__metal_driver_riscv_clint0_disable+0x6e>
/home/nicoladgg/wsFreedomStudio/sifive_hifive1_revb_hello/freedom-metal/src/drivers/riscv_clint0.c:195 (discriminator 1)
200139aa:	fc842703          	lw	a4,-56(s0)
200139ae:	fd842783          	lw	a5,-40(s0)
200139b2:	02f70063          	beq	a4,a5,200139d2 <__metal_driver_riscv_clint0_disable+0x8a>
/home/nicoladgg/wsFreedomStudio/sifive_hifive1_revb_hello/freedom-metal/src/drivers/riscv_clint0.c:198 (discriminator 2)
200139b6:	fe042423          	sw	zero,-24(s0)
/home/nicoladgg/wsFreedomStudio/sifive_hifive1_revb_hello/freedom-metal/src/drivers/riscv_clint0.c:190 (discriminator 2)
200139ba:	fe442783          	lw	a5,-28(s0)
200139be:	0785                	addi	a5,a5,1
200139c0:	fef42223          	sw	a5,-28(s0)
/home/nicoladgg/wsFreedomStudio/sifive_hifive1_revb_hello/freedom-metal/src/drivers/riscv_clint0.c:190 (discriminator 1)
200139c4:	fe442703          	lw	a4,-28(s0)
200139c8:	fdc42783          	lw	a5,-36(s0)
200139cc:	faf74ae3          	blt	a4,a5,20013980 <__metal_driver_riscv_clint0_disable+0x38>
200139d0:	a011                	j	200139d4 <__metal_driver_riscv_clint0_disable+0x8c>
/home/nicoladgg/wsFreedomStudio/sifive_hifive1_revb_hello/freedom-metal/src/drivers/riscv_clint0.c:196
200139d2:	0001                	nop
/home/nicoladgg/wsFreedomStudio/sifive_hifive1_revb_hello/freedom-metal/src/drivers/riscv_clint0.c:202
200139d4:	fe842783          	lw	a5,-24(s0)
200139d8:	cf81                	beqz	a5,200139f0 <__metal_driver_riscv_clint0_disable+0xa8>
/home/nicoladgg/wsFreedomStudio/sifive_hifive1_revb_hello/freedom-metal/src/drivers/riscv_clint0.c:203
200139da:	fe842783          	lw	a5,-24(s0)
200139de:	439c                	lw	a5,0(a5)
200139e0:	579c                	lw	a5,40(a5)
200139e2:	fc842583          	lw	a1,-56(s0)
200139e6:	fe842503          	lw	a0,-24(s0)
200139ea:	9782                	jalr	a5
200139ec:	fea42623          	sw	a0,-20(s0)
/home/nicoladgg/wsFreedomStudio/sifive_hifive1_revb_hello/freedom-metal/src/drivers/riscv_clint0.c:207
200139f0:	fec42783          	lw	a5,-20(s0)
/home/nicoladgg/wsFreedomStudio/sifive_hifive1_revb_hello/freedom-metal/src/drivers/riscv_clint0.c:208
200139f4:	853e                	mv	a0,a5
200139f6:	50f2                	lw	ra,60(sp)
200139f8:	5462                	lw	s0,56(sp)
200139fa:	6121                	addi	sp,sp,64
200139fc:	8082                	ret

200139fe <__metal_driver_riscv_clint0_command_request>:
__metal_driver_riscv_clint0_command_request():
/home/nicoladgg/wsFreedomStudio/sifive_hifive1_revb_hello/freedom-metal/src/drivers/riscv_clint0.c:211
200139fe:	7179                	addi	sp,sp,-48
20013a00:	d606                	sw	ra,44(sp)
20013a02:	d422                	sw	s0,40(sp)
20013a04:	1800                	addi	s0,sp,48
20013a06:	fca42e23          	sw	a0,-36(s0)
20013a0a:	fcb42c23          	sw	a1,-40(s0)
20013a0e:	fcc42a23          	sw	a2,-44(s0)
/home/nicoladgg/wsFreedomStudio/sifive_hifive1_revb_hello/freedom-metal/src/drivers/riscv_clint0.c:213
20013a12:	57fd                	li	a5,-1
20013a14:	fef42623          	sw	a5,-20(s0)
/home/nicoladgg/wsFreedomStudio/sifive_hifive1_revb_hello/freedom-metal/src/drivers/riscv_clint0.c:214
20013a18:	fdc42783          	lw	a5,-36(s0)
20013a1c:	fef42423          	sw	a5,-24(s0)
/home/nicoladgg/wsFreedomStudio/sifive_hifive1_revb_hello/freedom-metal/src/drivers/riscv_clint0.c:217
20013a20:	fdc42503          	lw	a0,-36(s0)
20013a24:	a51ff0ef          	jal	ra,20013474 <__metal_driver_sifive_clint0_control_base>
20013a28:	fea42223          	sw	a0,-28(s0)
/home/nicoladgg/wsFreedomStudio/sifive_hifive1_revb_hello/freedom-metal/src/drivers/riscv_clint0.c:219
20013a2c:	fd842703          	lw	a4,-40(s0)
20013a30:	4791                	li	a5,4
20013a32:	0cf70163          	beq	a4,a5,20013af4 <__metal_driver_riscv_clint0_command_request+0xf6>
20013a36:	fd842703          	lw	a4,-40(s0)
20013a3a:	4791                	li	a5,4
20013a3c:	0ee7c163          	blt	a5,a4,20013b1e <__metal_driver_riscv_clint0_command_request+0x120>
20013a40:	fd842703          	lw	a4,-40(s0)
20013a44:	478d                	li	a5,3
20013a46:	06f70663          	beq	a4,a5,20013ab2 <__metal_driver_riscv_clint0_command_request+0xb4>
20013a4a:	fd842703          	lw	a4,-40(s0)
20013a4e:	478d                	li	a5,3
20013a50:	0ce7c763          	blt	a5,a4,20013b1e <__metal_driver_riscv_clint0_command_request+0x120>
20013a54:	fd842703          	lw	a4,-40(s0)
20013a58:	4785                	li	a5,1
20013a5a:	00f70863          	beq	a4,a5,20013a6a <__metal_driver_riscv_clint0_command_request+0x6c>
20013a5e:	fd842703          	lw	a4,-40(s0)
20013a62:	4789                	li	a5,2
20013a64:	02f70363          	beq	a4,a5,20013a8a <__metal_driver_riscv_clint0_command_request+0x8c>
/home/nicoladgg/wsFreedomStudio/sifive_hifive1_revb_hello/freedom-metal/src/drivers/riscv_clint0.c:263
20013a68:	a85d                	j	20013b1e <__metal_driver_riscv_clint0_command_request+0x120>
/home/nicoladgg/wsFreedomStudio/sifive_hifive1_revb_hello/freedom-metal/src/drivers/riscv_clint0.c:221
20013a6a:	fd442783          	lw	a5,-44(s0)
20013a6e:	cbd5                	beqz	a5,20013b22 <__metal_driver_riscv_clint0_command_request+0x124>
/home/nicoladgg/wsFreedomStudio/sifive_hifive1_revb_hello/freedom-metal/src/drivers/riscv_clint0.c:222
20013a70:	fe842503          	lw	a0,-24(s0)
20013a74:	abfff0ef          	jal	ra,20013532 <__metal_clint0_mtime_get>
20013a78:	872a                	mv	a4,a0
20013a7a:	87ae                	mv	a5,a1
20013a7c:	fd442683          	lw	a3,-44(s0)
20013a80:	c298                	sw	a4,0(a3)
20013a82:	c2dc                	sw	a5,4(a3)
/home/nicoladgg/wsFreedomStudio/sifive_hifive1_revb_hello/freedom-metal/src/drivers/riscv_clint0.c:223
20013a84:	fe042623          	sw	zero,-20(s0)
/home/nicoladgg/wsFreedomStudio/sifive_hifive1_revb_hello/freedom-metal/src/drivers/riscv_clint0.c:225
20013a88:	a869                	j	20013b22 <__metal_driver_riscv_clint0_command_request+0x124>
/home/nicoladgg/wsFreedomStudio/sifive_hifive1_revb_hello/freedom-metal/src/drivers/riscv_clint0.c:227
20013a8a:	fd442783          	lw	a5,-44(s0)
20013a8e:	cfc1                	beqz	a5,20013b26 <__metal_driver_riscv_clint0_command_request+0x128>
/home/nicoladgg/wsFreedomStudio/sifive_hifive1_revb_hello/freedom-metal/src/drivers/riscv_clint0.c:228
20013a90:	fd442783          	lw	a5,-44(s0)
20013a94:	439c                	lw	a5,0(a5)
20013a96:	fef42023          	sw	a5,-32(s0)
/home/nicoladgg/wsFreedomStudio/sifive_hifive1_revb_hello/freedom-metal/src/drivers/riscv_clint0.c:229
20013a9a:	fe042783          	lw	a5,-32(s0)
20013a9e:	078a                	slli	a5,a5,0x2
20013aa0:	873e                	mv	a4,a5
20013aa2:	fe442783          	lw	a5,-28(s0)
20013aa6:	97ba                	add	a5,a5,a4
/home/nicoladgg/wsFreedomStudio/sifive_hifive1_revb_hello/freedom-metal/src/drivers/riscv_clint0.c:230
20013aa8:	0007a023          	sw	zero,0(a5) # 4000 <__heap_size+0x3800>
/home/nicoladgg/wsFreedomStudio/sifive_hifive1_revb_hello/freedom-metal/src/drivers/riscv_clint0.c:231
20013aac:	fe042623          	sw	zero,-20(s0)
/home/nicoladgg/wsFreedomStudio/sifive_hifive1_revb_hello/freedom-metal/src/drivers/riscv_clint0.c:233
20013ab0:	a89d                	j	20013b26 <__metal_driver_riscv_clint0_command_request+0x128>
/home/nicoladgg/wsFreedomStudio/sifive_hifive1_revb_hello/freedom-metal/src/drivers/riscv_clint0.c:235
20013ab2:	fd442783          	lw	a5,-44(s0)
20013ab6:	cbb5                	beqz	a5,20013b2a <__metal_driver_riscv_clint0_command_request+0x12c>
/home/nicoladgg/wsFreedomStudio/sifive_hifive1_revb_hello/freedom-metal/src/drivers/riscv_clint0.c:236
20013ab8:	fd442783          	lw	a5,-44(s0)
20013abc:	439c                	lw	a5,0(a5)
20013abe:	fef42023          	sw	a5,-32(s0)
/home/nicoladgg/wsFreedomStudio/sifive_hifive1_revb_hello/freedom-metal/src/drivers/riscv_clint0.c:237
20013ac2:	fe042783          	lw	a5,-32(s0)
20013ac6:	078a                	slli	a5,a5,0x2
20013ac8:	873e                	mv	a4,a5
20013aca:	fe442783          	lw	a5,-28(s0)
20013ace:	97ba                	add	a5,a5,a4
20013ad0:	873e                	mv	a4,a5
/home/nicoladgg/wsFreedomStudio/sifive_hifive1_revb_hello/freedom-metal/src/drivers/riscv_clint0.c:238
20013ad2:	4785                	li	a5,1
20013ad4:	c31c                	sw	a5,0(a4)
/home/nicoladgg/wsFreedomStudio/sifive_hifive1_revb_hello/freedom-metal/src/drivers/riscv_clint0.c:248
20013ad6:	0480000f          	fence	o,i
/home/nicoladgg/wsFreedomStudio/sifive_hifive1_revb_hello/freedom-metal/src/drivers/riscv_clint0.c:249
20013ada:	fe042783          	lw	a5,-32(s0)
20013ade:	078a                	slli	a5,a5,0x2
20013ae0:	873e                	mv	a4,a5
20013ae2:	fe442783          	lw	a5,-28(s0)
20013ae6:	97ba                	add	a5,a5,a4
20013ae8:	439c                	lw	a5,0(a5)
20013aea:	fef42623          	sw	a5,-20(s0)
/home/nicoladgg/wsFreedomStudio/sifive_hifive1_revb_hello/freedom-metal/src/drivers/riscv_clint0.c:251
20013aee:	fe042623          	sw	zero,-20(s0)
/home/nicoladgg/wsFreedomStudio/sifive_hifive1_revb_hello/freedom-metal/src/drivers/riscv_clint0.c:253
20013af2:	a825                	j	20013b2a <__metal_driver_riscv_clint0_command_request+0x12c>
/home/nicoladgg/wsFreedomStudio/sifive_hifive1_revb_hello/freedom-metal/src/drivers/riscv_clint0.c:255
20013af4:	fe042623          	sw	zero,-20(s0)
/home/nicoladgg/wsFreedomStudio/sifive_hifive1_revb_hello/freedom-metal/src/drivers/riscv_clint0.c:256
20013af8:	fd442783          	lw	a5,-44(s0)
20013afc:	cb8d                	beqz	a5,20013b2e <__metal_driver_riscv_clint0_command_request+0x130>
/home/nicoladgg/wsFreedomStudio/sifive_hifive1_revb_hello/freedom-metal/src/drivers/riscv_clint0.c:257
20013afe:	fd442783          	lw	a5,-44(s0)
20013b02:	439c                	lw	a5,0(a5)
20013b04:	fef42023          	sw	a5,-32(s0)
/home/nicoladgg/wsFreedomStudio/sifive_hifive1_revb_hello/freedom-metal/src/drivers/riscv_clint0.c:258
20013b08:	fe042783          	lw	a5,-32(s0)
20013b0c:	078a                	slli	a5,a5,0x2
20013b0e:	873e                	mv	a4,a5
20013b10:	fe442783          	lw	a5,-28(s0)
20013b14:	97ba                	add	a5,a5,a4
20013b16:	439c                	lw	a5,0(a5)
20013b18:	fef42623          	sw	a5,-20(s0)
/home/nicoladgg/wsFreedomStudio/sifive_hifive1_revb_hello/freedom-metal/src/drivers/riscv_clint0.c:261
20013b1c:	a809                	j	20013b2e <__metal_driver_riscv_clint0_command_request+0x130>
/home/nicoladgg/wsFreedomStudio/sifive_hifive1_revb_hello/freedom-metal/src/drivers/riscv_clint0.c:263
20013b1e:	0001                	nop
20013b20:	a801                	j	20013b30 <__metal_driver_riscv_clint0_command_request+0x132>
/home/nicoladgg/wsFreedomStudio/sifive_hifive1_revb_hello/freedom-metal/src/drivers/riscv_clint0.c:225
20013b22:	0001                	nop
20013b24:	a031                	j	20013b30 <__metal_driver_riscv_clint0_command_request+0x132>
/home/nicoladgg/wsFreedomStudio/sifive_hifive1_revb_hello/freedom-metal/src/drivers/riscv_clint0.c:233
20013b26:	0001                	nop
20013b28:	a021                	j	20013b30 <__metal_driver_riscv_clint0_command_request+0x132>
/home/nicoladgg/wsFreedomStudio/sifive_hifive1_revb_hello/freedom-metal/src/drivers/riscv_clint0.c:253
20013b2a:	0001                	nop
20013b2c:	a011                	j	20013b30 <__metal_driver_riscv_clint0_command_request+0x132>
/home/nicoladgg/wsFreedomStudio/sifive_hifive1_revb_hello/freedom-metal/src/drivers/riscv_clint0.c:261
20013b2e:	0001                	nop
/home/nicoladgg/wsFreedomStudio/sifive_hifive1_revb_hello/freedom-metal/src/drivers/riscv_clint0.c:266
20013b30:	fec42783          	lw	a5,-20(s0)
/home/nicoladgg/wsFreedomStudio/sifive_hifive1_revb_hello/freedom-metal/src/drivers/riscv_clint0.c:267
20013b34:	853e                	mv	a0,a5
20013b36:	50b2                	lw	ra,44(sp)
20013b38:	5422                	lw	s0,40(sp)
20013b3a:	6145                	addi	sp,sp,48
20013b3c:	8082                	ret

20013b3e <__metal_driver_riscv_clint0_clear_interrupt>:
__metal_driver_riscv_clint0_clear_interrupt():
/home/nicoladgg/wsFreedomStudio/sifive_hifive1_revb_hello/freedom-metal/src/drivers/riscv_clint0.c:270
20013b3e:	7179                	addi	sp,sp,-48
20013b40:	d606                	sw	ra,44(sp)
20013b42:	d422                	sw	s0,40(sp)
20013b44:	1800                	addi	s0,sp,48
20013b46:	fca42e23          	sw	a0,-36(s0)
20013b4a:	fcb42c23          	sw	a1,-40(s0)
/home/nicoladgg/wsFreedomStudio/sifive_hifive1_revb_hello/freedom-metal/src/drivers/riscv_clint0.c:271
20013b4e:	0ba040ef          	jal	ra,20017c08 <metal_cpu_get_current_hartid>
20013b52:	87aa                	mv	a5,a0
20013b54:	fef42623          	sw	a5,-20(s0)
/home/nicoladgg/wsFreedomStudio/sifive_hifive1_revb_hello/freedom-metal/src/drivers/riscv_clint0.c:272
20013b58:	fec40793          	addi	a5,s0,-20
20013b5c:	863e                	mv	a2,a5
20013b5e:	4589                	li	a1,2
20013b60:	fdc42503          	lw	a0,-36(s0)
20013b64:	3d69                	jal	200139fe <__metal_driver_riscv_clint0_command_request>
20013b66:	87aa                	mv	a5,a0
/home/nicoladgg/wsFreedomStudio/sifive_hifive1_revb_hello/freedom-metal/src/drivers/riscv_clint0.c:274
20013b68:	853e                	mv	a0,a5
20013b6a:	50b2                	lw	ra,44(sp)
20013b6c:	5422                	lw	s0,40(sp)
20013b6e:	6145                	addi	sp,sp,48
20013b70:	8082                	ret

20013b72 <__metal_driver_riscv_clint0_set_interrupt>:
__metal_driver_riscv_clint0_set_interrupt():
/home/nicoladgg/wsFreedomStudio/sifive_hifive1_revb_hello/freedom-metal/src/drivers/riscv_clint0.c:277
20013b72:	7179                	addi	sp,sp,-48
20013b74:	d606                	sw	ra,44(sp)
20013b76:	d422                	sw	s0,40(sp)
20013b78:	1800                	addi	s0,sp,48
20013b7a:	fca42e23          	sw	a0,-36(s0)
20013b7e:	fcb42c23          	sw	a1,-40(s0)
/home/nicoladgg/wsFreedomStudio/sifive_hifive1_revb_hello/freedom-metal/src/drivers/riscv_clint0.c:278
20013b82:	086040ef          	jal	ra,20017c08 <metal_cpu_get_current_hartid>
20013b86:	87aa                	mv	a5,a0
20013b88:	fef42623          	sw	a5,-20(s0)
/home/nicoladgg/wsFreedomStudio/sifive_hifive1_revb_hello/freedom-metal/src/drivers/riscv_clint0.c:279
20013b8c:	fec40793          	addi	a5,s0,-20
20013b90:	863e                	mv	a2,a5
20013b92:	458d                	li	a1,3
20013b94:	fdc42503          	lw	a0,-36(s0)
20013b98:	359d                	jal	200139fe <__metal_driver_riscv_clint0_command_request>
20013b9a:	87aa                	mv	a5,a0
/home/nicoladgg/wsFreedomStudio/sifive_hifive1_revb_hello/freedom-metal/src/drivers/riscv_clint0.c:281
20013b9c:	853e                	mv	a0,a5
20013b9e:	50b2                	lw	ra,44(sp)
20013ba0:	5422                	lw	s0,40(sp)
20013ba2:	6145                	addi	sp,sp,48
20013ba4:	8082                	ret

20013ba6 <__metal_driver_cpu_hartid>:
__metal_driver_cpu_hartid():
/home/nicoladgg/wsFreedomStudio/sifive_hifive1_revb_hello/bsp/build/debug/./metal/machine.h:292
20013ba6:	1101                	addi	sp,sp,-32
20013ba8:	ce22                	sw	s0,28(sp)
20013baa:	1000                	addi	s0,sp,32
20013bac:	fea42623          	sw	a0,-20(s0)
/home/nicoladgg/wsFreedomStudio/sifive_hifive1_revb_hello/bsp/build/debug/./metal/machine.h:293
20013bb0:	fec42703          	lw	a4,-20(s0)
20013bb4:	81018793          	addi	a5,gp,-2032 # 80000ab0 <__metal_dt_cpu_0>
20013bb8:	00f71463          	bne	a4,a5,20013bc0 <__metal_driver_cpu_hartid+0x1a>
/home/nicoladgg/wsFreedomStudio/sifive_hifive1_revb_hello/bsp/build/debug/./metal/machine.h:294
20013bbc:	4781                	li	a5,0
20013bbe:	a011                	j	20013bc2 <__metal_driver_cpu_hartid+0x1c>
/home/nicoladgg/wsFreedomStudio/sifive_hifive1_revb_hello/bsp/build/debug/./metal/machine.h:297
20013bc0:	57fd                	li	a5,-1
/home/nicoladgg/wsFreedomStudio/sifive_hifive1_revb_hello/bsp/build/debug/./metal/machine.h:299
20013bc2:	853e                	mv	a0,a5
20013bc4:	4472                	lw	s0,28(sp)
20013bc6:	6105                	addi	sp,sp,32
20013bc8:	8082                	ret

20013bca <__metal_driver_cpu_timebase>:
__metal_driver_cpu_timebase():
/home/nicoladgg/wsFreedomStudio/sifive_hifive1_revb_hello/bsp/build/debug/./metal/machine.h:302
20013bca:	1101                	addi	sp,sp,-32
20013bcc:	ce22                	sw	s0,28(sp)
20013bce:	1000                	addi	s0,sp,32
20013bd0:	fea42623          	sw	a0,-20(s0)
/home/nicoladgg/wsFreedomStudio/sifive_hifive1_revb_hello/bsp/build/debug/./metal/machine.h:303
20013bd4:	fec42703          	lw	a4,-20(s0)
20013bd8:	81018793          	addi	a5,gp,-2032 # 80000ab0 <__metal_dt_cpu_0>
20013bdc:	00f71763          	bne	a4,a5,20013bea <__metal_driver_cpu_timebase+0x20>
/home/nicoladgg/wsFreedomStudio/sifive_hifive1_revb_hello/bsp/build/debug/./metal/machine.h:304
20013be0:	00f427b7          	lui	a5,0xf42
20013be4:	40078793          	addi	a5,a5,1024 # f42400 <__heap_size+0xf41c00>
20013be8:	a011                	j	20013bec <__metal_driver_cpu_timebase+0x22>
/home/nicoladgg/wsFreedomStudio/sifive_hifive1_revb_hello/bsp/build/debug/./metal/machine.h:307
20013bea:	4781                	li	a5,0
/home/nicoladgg/wsFreedomStudio/sifive_hifive1_revb_hello/bsp/build/debug/./metal/machine.h:309
20013bec:	853e                	mv	a0,a5
20013bee:	4472                	lw	s0,28(sp)
20013bf0:	6105                	addi	sp,sp,32
20013bf2:	8082                	ret

20013bf4 <__metal_driver_cpu_interrupt_controller>:
__metal_driver_cpu_interrupt_controller():
/home/nicoladgg/wsFreedomStudio/sifive_hifive1_revb_hello/bsp/build/debug/./metal/machine.h:312
20013bf4:	1101                	addi	sp,sp,-32
20013bf6:	ce22                	sw	s0,28(sp)
20013bf8:	1000                	addi	s0,sp,32
20013bfa:	fea42623          	sw	a0,-20(s0)
/home/nicoladgg/wsFreedomStudio/sifive_hifive1_revb_hello/bsp/build/debug/./metal/machine.h:313
20013bfe:	fec42703          	lw	a4,-20(s0)
20013c02:	81018793          	addi	a5,gp,-2032 # 80000ab0 <__metal_dt_cpu_0>
20013c06:	00f71763          	bne	a4,a5,20013c14 <__metal_driver_cpu_interrupt_controller+0x20>
/home/nicoladgg/wsFreedomStudio/sifive_hifive1_revb_hello/bsp/build/debug/./metal/machine.h:314
20013c0a:	800007b7          	lui	a5,0x80000
20013c0e:	09078793          	addi	a5,a5,144 # 80000090 <metal_segment_heap_target_end+0xffffe910>
20013c12:	a011                	j	20013c16 <__metal_driver_cpu_interrupt_controller+0x22>
/home/nicoladgg/wsFreedomStudio/sifive_hifive1_revb_hello/bsp/build/debug/./metal/machine.h:317
20013c14:	4781                	li	a5,0
/home/nicoladgg/wsFreedomStudio/sifive_hifive1_revb_hello/bsp/build/debug/./metal/machine.h:319
20013c16:	853e                	mv	a0,a5
20013c18:	4472                	lw	s0,28(sp)
20013c1a:	6105                	addi	sp,sp,32
20013c1c:	8082                	ret

20013c1e <__metal_driver_cpu_buserror>:
__metal_driver_cpu_buserror():
/home/nicoladgg/wsFreedomStudio/sifive_hifive1_revb_hello/bsp/build/debug/./metal/machine.h:332
20013c1e:	1101                	addi	sp,sp,-32
20013c20:	ce22                	sw	s0,28(sp)
20013c22:	1000                	addi	s0,sp,32
20013c24:	fea42623          	sw	a0,-20(s0)
/home/nicoladgg/wsFreedomStudio/sifive_hifive1_revb_hello/bsp/build/debug/./metal/machine.h:333
20013c28:	fec42703          	lw	a4,-20(s0)
20013c2c:	81018793          	addi	a5,gp,-2032 # 80000ab0 <__metal_dt_cpu_0>
20013c30:	00f71463          	bne	a4,a5,20013c38 <__metal_driver_cpu_buserror+0x1a>
/home/nicoladgg/wsFreedomStudio/sifive_hifive1_revb_hello/bsp/build/debug/./metal/machine.h:334
20013c34:	4781                	li	a5,0
20013c36:	a011                	j	20013c3a <__metal_driver_cpu_buserror+0x1c>
/home/nicoladgg/wsFreedomStudio/sifive_hifive1_revb_hello/bsp/build/debug/./metal/machine.h:337
20013c38:	4781                	li	a5,0
/home/nicoladgg/wsFreedomStudio/sifive_hifive1_revb_hello/bsp/build/debug/./metal/machine.h:339
20013c3a:	853e                	mv	a0,a5
20013c3c:	4472                	lw	s0,28(sp)
20013c3e:	6105                	addi	sp,sp,32
20013c40:	8082                	ret

20013c42 <__metal_driver_cpu_get>:
__metal_driver_cpu_get():
/home/nicoladgg/wsFreedomStudio/sifive_hifive1_revb_hello/freedom-metal/src/drivers/riscv_cpu.c:25
20013c42:	1101                	addi	sp,sp,-32
20013c44:	ce22                	sw	s0,28(sp)
20013c46:	1000                	addi	s0,sp,32
20013c48:	fea42623          	sw	a0,-20(s0)
/home/nicoladgg/wsFreedomStudio/sifive_hifive1_revb_hello/freedom-metal/src/drivers/riscv_cpu.c:26
20013c4c:	fec42783          	lw	a5,-20(s0)
20013c50:	00f04c63          	bgtz	a5,20013c68 <__metal_driver_cpu_get+0x26>
/home/nicoladgg/wsFreedomStudio/sifive_hifive1_revb_hello/freedom-metal/src/drivers/riscv_cpu.c:27
20013c54:	800017b7          	lui	a5,0x80001
20013c58:	fec42703          	lw	a4,-20(s0)
20013c5c:	070a                	slli	a4,a4,0x2
20013c5e:	aa078793          	addi	a5,a5,-1376 # 80000aa0 <metal_segment_heap_target_end+0xfffff320>
20013c62:	97ba                	add	a5,a5,a4
20013c64:	439c                	lw	a5,0(a5)
20013c66:	a011                	j	20013c6a <__metal_driver_cpu_get+0x28>
/home/nicoladgg/wsFreedomStudio/sifive_hifive1_revb_hello/freedom-metal/src/drivers/riscv_cpu.c:29
20013c68:	4781                	li	a5,0
/home/nicoladgg/wsFreedomStudio/sifive_hifive1_revb_hello/freedom-metal/src/drivers/riscv_cpu.c:30
20013c6a:	853e                	mv	a0,a5
20013c6c:	4472                	lw	s0,28(sp)
20013c6e:	6105                	addi	sp,sp,32
20013c70:	8082                	ret

20013c72 <__metal_myhart_id>:
__metal_myhart_id():
/home/nicoladgg/wsFreedomStudio/sifive_hifive1_revb_hello/freedom-metal/src/drivers/riscv_cpu.c:32
20013c72:	1101                	addi	sp,sp,-32
20013c74:	ce22                	sw	s0,28(sp)
20013c76:	1000                	addi	s0,sp,32
/home/nicoladgg/wsFreedomStudio/sifive_hifive1_revb_hello/freedom-metal/src/drivers/riscv_cpu.c:34
20013c78:	f14027f3          	csrr	a5,mhartid
20013c7c:	fef42623          	sw	a5,-20(s0)
/home/nicoladgg/wsFreedomStudio/sifive_hifive1_revb_hello/freedom-metal/src/drivers/riscv_cpu.c:35
20013c80:	fec42783          	lw	a5,-20(s0)
/home/nicoladgg/wsFreedomStudio/sifive_hifive1_revb_hello/freedom-metal/src/drivers/riscv_cpu.c:36
20013c84:	853e                	mv	a0,a5
20013c86:	4472                	lw	s0,28(sp)
20013c88:	6105                	addi	sp,sp,32
20013c8a:	8082                	ret

20013c8c <__metal_interrupt_global_enable>:
__metal_interrupt_global_enable():
/home/nicoladgg/wsFreedomStudio/sifive_hifive1_revb_hello/freedom-metal/src/drivers/riscv_cpu.c:45
20013c8c:	1101                	addi	sp,sp,-32
20013c8e:	ce22                	sw	s0,28(sp)
20013c90:	1000                	addi	s0,sp,32
/home/nicoladgg/wsFreedomStudio/sifive_hifive1_revb_hello/freedom-metal/src/drivers/riscv_cpu.c:47
20013c92:	47a1                	li	a5,8
20013c94:	3007a7f3          	csrrs	a5,mstatus,a5
20013c98:	fef42623          	sw	a5,-20(s0)
/home/nicoladgg/wsFreedomStudio/sifive_hifive1_revb_hello/freedom-metal/src/drivers/riscv_cpu.c:50
20013c9c:	0001                	nop
20013c9e:	4472                	lw	s0,28(sp)
20013ca0:	6105                	addi	sp,sp,32
20013ca2:	8082                	ret

20013ca4 <__metal_interrupt_global_disable>:
__metal_interrupt_global_disable():
/home/nicoladgg/wsFreedomStudio/sifive_hifive1_revb_hello/freedom-metal/src/drivers/riscv_cpu.c:52
20013ca4:	1101                	addi	sp,sp,-32
20013ca6:	ce22                	sw	s0,28(sp)
20013ca8:	1000                	addi	s0,sp,32
/home/nicoladgg/wsFreedomStudio/sifive_hifive1_revb_hello/freedom-metal/src/drivers/riscv_cpu.c:54
20013caa:	47a1                	li	a5,8
20013cac:	3007b7f3          	csrrc	a5,mstatus,a5
20013cb0:	fef42623          	sw	a5,-20(s0)
/home/nicoladgg/wsFreedomStudio/sifive_hifive1_revb_hello/freedom-metal/src/drivers/riscv_cpu.c:57
20013cb4:	0001                	nop
20013cb6:	4472                	lw	s0,28(sp)
20013cb8:	6105                	addi	sp,sp,32
20013cba:	8082                	ret

20013cbc <__metal_interrupt_software_enable>:
__metal_interrupt_software_enable():
/home/nicoladgg/wsFreedomStudio/sifive_hifive1_revb_hello/freedom-metal/src/drivers/riscv_cpu.c:59
20013cbc:	1101                	addi	sp,sp,-32
20013cbe:	ce22                	sw	s0,28(sp)
20013cc0:	1000                	addi	s0,sp,32
/home/nicoladgg/wsFreedomStudio/sifive_hifive1_revb_hello/freedom-metal/src/drivers/riscv_cpu.c:61
20013cc2:	47a1                	li	a5,8
20013cc4:	3047a7f3          	csrrs	a5,mie,a5
20013cc8:	fef42623          	sw	a5,-20(s0)
/home/nicoladgg/wsFreedomStudio/sifive_hifive1_revb_hello/freedom-metal/src/drivers/riscv_cpu.c:64
20013ccc:	0001                	nop
20013cce:	4472                	lw	s0,28(sp)
20013cd0:	6105                	addi	sp,sp,32
20013cd2:	8082                	ret

20013cd4 <__metal_interrupt_software_disable>:
__metal_interrupt_software_disable():
/home/nicoladgg/wsFreedomStudio/sifive_hifive1_revb_hello/freedom-metal/src/drivers/riscv_cpu.c:66
20013cd4:	1101                	addi	sp,sp,-32
20013cd6:	ce22                	sw	s0,28(sp)
20013cd8:	1000                	addi	s0,sp,32
/home/nicoladgg/wsFreedomStudio/sifive_hifive1_revb_hello/freedom-metal/src/drivers/riscv_cpu.c:68
20013cda:	47a1                	li	a5,8
20013cdc:	3047b7f3          	csrrc	a5,mie,a5
20013ce0:	fef42623          	sw	a5,-20(s0)
/home/nicoladgg/wsFreedomStudio/sifive_hifive1_revb_hello/freedom-metal/src/drivers/riscv_cpu.c:71
20013ce4:	0001                	nop
20013ce6:	4472                	lw	s0,28(sp)
20013ce8:	6105                	addi	sp,sp,32
20013cea:	8082                	ret

20013cec <__metal_interrupt_timer_enable>:
__metal_interrupt_timer_enable():
/home/nicoladgg/wsFreedomStudio/sifive_hifive1_revb_hello/freedom-metal/src/drivers/riscv_cpu.c:73
20013cec:	1101                	addi	sp,sp,-32
20013cee:	ce22                	sw	s0,28(sp)
20013cf0:	1000                	addi	s0,sp,32
/home/nicoladgg/wsFreedomStudio/sifive_hifive1_revb_hello/freedom-metal/src/drivers/riscv_cpu.c:75
20013cf2:	08000793          	li	a5,128
20013cf6:	3047a7f3          	csrrs	a5,mie,a5
20013cfa:	fef42623          	sw	a5,-20(s0)
/home/nicoladgg/wsFreedomStudio/sifive_hifive1_revb_hello/freedom-metal/src/drivers/riscv_cpu.c:78
20013cfe:	0001                	nop
20013d00:	4472                	lw	s0,28(sp)
20013d02:	6105                	addi	sp,sp,32
20013d04:	8082                	ret

20013d06 <__metal_interrupt_timer_disable>:
__metal_interrupt_timer_disable():
/home/nicoladgg/wsFreedomStudio/sifive_hifive1_revb_hello/freedom-metal/src/drivers/riscv_cpu.c:80
20013d06:	1101                	addi	sp,sp,-32
20013d08:	ce22                	sw	s0,28(sp)
20013d0a:	1000                	addi	s0,sp,32
/home/nicoladgg/wsFreedomStudio/sifive_hifive1_revb_hello/freedom-metal/src/drivers/riscv_cpu.c:82
20013d0c:	08000793          	li	a5,128
20013d10:	3047b7f3          	csrrc	a5,mie,a5
20013d14:	fef42623          	sw	a5,-20(s0)
/home/nicoladgg/wsFreedomStudio/sifive_hifive1_revb_hello/freedom-metal/src/drivers/riscv_cpu.c:85
20013d18:	0001                	nop
20013d1a:	4472                	lw	s0,28(sp)
20013d1c:	6105                	addi	sp,sp,32
20013d1e:	8082                	ret

20013d20 <__metal_interrupt_external_enable>:
__metal_interrupt_external_enable():
/home/nicoladgg/wsFreedomStudio/sifive_hifive1_revb_hello/freedom-metal/src/drivers/riscv_cpu.c:87
20013d20:	1101                	addi	sp,sp,-32
20013d22:	ce22                	sw	s0,28(sp)
20013d24:	1000                	addi	s0,sp,32
/home/nicoladgg/wsFreedomStudio/sifive_hifive1_revb_hello/freedom-metal/src/drivers/riscv_cpu.c:89
20013d26:	6785                	lui	a5,0x1
20013d28:	80078793          	addi	a5,a5,-2048 # 800 <__heap_size>
20013d2c:	3047a7f3          	csrrs	a5,mie,a5
20013d30:	fef42623          	sw	a5,-20(s0)
/home/nicoladgg/wsFreedomStudio/sifive_hifive1_revb_hello/freedom-metal/src/drivers/riscv_cpu.c:92
20013d34:	0001                	nop
20013d36:	4472                	lw	s0,28(sp)
20013d38:	6105                	addi	sp,sp,32
20013d3a:	8082                	ret

20013d3c <__metal_interrupt_external_disable>:
__metal_interrupt_external_disable():
/home/nicoladgg/wsFreedomStudio/sifive_hifive1_revb_hello/freedom-metal/src/drivers/riscv_cpu.c:94
20013d3c:	1101                	addi	sp,sp,-32
20013d3e:	ce22                	sw	s0,28(sp)
20013d40:	1000                	addi	s0,sp,32
/home/nicoladgg/wsFreedomStudio/sifive_hifive1_revb_hello/freedom-metal/src/drivers/riscv_cpu.c:96
20013d42:	6785                	lui	a5,0x1
20013d44:	80078793          	addi	a5,a5,-2048 # 800 <__heap_size>
20013d48:	3047b7f3          	csrrc	a5,mie,a5
20013d4c:	fef42623          	sw	a5,-20(s0)
/home/nicoladgg/wsFreedomStudio/sifive_hifive1_revb_hello/freedom-metal/src/drivers/riscv_cpu.c:99
20013d50:	0001                	nop
20013d52:	4472                	lw	s0,28(sp)
20013d54:	6105                	addi	sp,sp,32
20013d56:	8082                	ret

20013d58 <__metal_interrupt_local_enable>:
__metal_interrupt_local_enable():
/home/nicoladgg/wsFreedomStudio/sifive_hifive1_revb_hello/freedom-metal/src/drivers/riscv_cpu.c:101
20013d58:	7179                	addi	sp,sp,-48
20013d5a:	d622                	sw	s0,44(sp)
20013d5c:	1800                	addi	s0,sp,48
20013d5e:	fca42e23          	sw	a0,-36(s0)
/home/nicoladgg/wsFreedomStudio/sifive_hifive1_revb_hello/freedom-metal/src/drivers/riscv_cpu.c:102
20013d62:	fdc42783          	lw	a5,-36(s0)
20013d66:	4705                	li	a4,1
20013d68:	00f717b3          	sll	a5,a4,a5
20013d6c:	fef42623          	sw	a5,-20(s0)
/home/nicoladgg/wsFreedomStudio/sifive_hifive1_revb_hello/freedom-metal/src/drivers/riscv_cpu.c:104
20013d70:	fec42783          	lw	a5,-20(s0)
20013d74:	3047a7f3          	csrrs	a5,mie,a5
20013d78:	fef42423          	sw	a5,-24(s0)
/home/nicoladgg/wsFreedomStudio/sifive_hifive1_revb_hello/freedom-metal/src/drivers/riscv_cpu.c:105
20013d7c:	0001                	nop
20013d7e:	5432                	lw	s0,44(sp)
20013d80:	6145                	addi	sp,sp,48
20013d82:	8082                	ret

20013d84 <__metal_interrupt_local_disable>:
__metal_interrupt_local_disable():
/home/nicoladgg/wsFreedomStudio/sifive_hifive1_revb_hello/freedom-metal/src/drivers/riscv_cpu.c:107
20013d84:	7179                	addi	sp,sp,-48
20013d86:	d622                	sw	s0,44(sp)
20013d88:	1800                	addi	s0,sp,48
20013d8a:	fca42e23          	sw	a0,-36(s0)
/home/nicoladgg/wsFreedomStudio/sifive_hifive1_revb_hello/freedom-metal/src/drivers/riscv_cpu.c:108
20013d8e:	fdc42783          	lw	a5,-36(s0)
20013d92:	4705                	li	a4,1
20013d94:	00f717b3          	sll	a5,a4,a5
20013d98:	fef42623          	sw	a5,-20(s0)
/home/nicoladgg/wsFreedomStudio/sifive_hifive1_revb_hello/freedom-metal/src/drivers/riscv_cpu.c:110
20013d9c:	fec42783          	lw	a5,-20(s0)
20013da0:	3047b7f3          	csrrc	a5,mie,a5
20013da4:	fef42423          	sw	a5,-24(s0)
/home/nicoladgg/wsFreedomStudio/sifive_hifive1_revb_hello/freedom-metal/src/drivers/riscv_cpu.c:111
20013da8:	0001                	nop
20013daa:	5432                	lw	s0,44(sp)
20013dac:	6145                	addi	sp,sp,48
20013dae:	8082                	ret

20013db0 <__metal_default_exception_handler>:
__metal_default_exception_handler():
/home/nicoladgg/wsFreedomStudio/sifive_hifive1_revb_hello/freedom-metal/src/drivers/riscv_cpu.c:113
20013db0:	1101                	addi	sp,sp,-32
20013db2:	ce06                	sw	ra,28(sp)
20013db4:	cc22                	sw	s0,24(sp)
20013db6:	1000                	addi	s0,sp,32
20013db8:	fea42623          	sw	a0,-20(s0)
20013dbc:	feb42423          	sw	a1,-24(s0)
/home/nicoladgg/wsFreedomStudio/sifive_hifive1_revb_hello/freedom-metal/src/drivers/riscv_cpu.c:114
20013dc0:	06400513          	li	a0,100
20013dc4:	71d030ef          	jal	ra,20017ce0 <metal_shutdown>

20013dc8 <__metal_default_interrupt_handler>:
__metal_default_interrupt_handler():
/home/nicoladgg/wsFreedomStudio/sifive_hifive1_revb_hello/freedom-metal/src/drivers/riscv_cpu.c:117
20013dc8:	1101                	addi	sp,sp,-32
20013dca:	ce06                	sw	ra,28(sp)
20013dcc:	cc22                	sw	s0,24(sp)
20013dce:	1000                	addi	s0,sp,32
20013dd0:	fea42623          	sw	a0,-20(s0)
20013dd4:	feb42423          	sw	a1,-24(s0)
/home/nicoladgg/wsFreedomStudio/sifive_hifive1_revb_hello/freedom-metal/src/drivers/riscv_cpu.c:118
20013dd8:	0c800513          	li	a0,200
20013ddc:	705030ef          	jal	ra,20017ce0 <metal_shutdown>

20013de0 <metal_interrupt_vector_handler>:
metal_interrupt_vector_handler():
/home/nicoladgg/wsFreedomStudio/sifive_hifive1_revb_hello/freedom-metal/src/drivers/riscv_cpu.c:122
20013de0:	715d                	addi	sp,sp,-80
20013de2:	c686                	sw	ra,76(sp)
20013de4:	c496                	sw	t0,72(sp)
20013de6:	c29a                	sw	t1,68(sp)
20013de8:	c09e                	sw	t2,64(sp)
20013dea:	de22                	sw	s0,60(sp)
20013dec:	dc2a                	sw	a0,56(sp)
20013dee:	da2e                	sw	a1,52(sp)
20013df0:	d832                	sw	a2,48(sp)
20013df2:	d636                	sw	a3,44(sp)
20013df4:	d43a                	sw	a4,40(sp)
20013df6:	d23e                	sw	a5,36(sp)
20013df8:	d042                	sw	a6,32(sp)
20013dfa:	ce46                	sw	a7,28(sp)
20013dfc:	cc72                	sw	t3,24(sp)
20013dfe:	ca76                	sw	t4,20(sp)
20013e00:	c87a                	sw	t5,16(sp)
20013e02:	c67e                	sw	t6,12(sp)
20013e04:	0880                	addi	s0,sp,80
/home/nicoladgg/wsFreedomStudio/sifive_hifive1_revb_hello/freedom-metal/src/drivers/riscv_cpu.c:123
20013e06:	12c00513          	li	a0,300
20013e0a:	6d7030ef          	jal	ra,20017ce0 <metal_shutdown>

20013e0e <metal_software_interrupt_vector_handler>:
metal_software_interrupt_vector_handler():
/home/nicoladgg/wsFreedomStudio/sifive_hifive1_revb_hello/freedom-metal/src/drivers/riscv_cpu.c:128
20013e0e:	711d                	addi	sp,sp,-96
20013e10:	ce86                	sw	ra,92(sp)
20013e12:	cc96                	sw	t0,88(sp)
20013e14:	ca9a                	sw	t1,84(sp)
20013e16:	c89e                	sw	t2,80(sp)
20013e18:	c6a2                	sw	s0,76(sp)
20013e1a:	c4aa                	sw	a0,72(sp)
20013e1c:	c2ae                	sw	a1,68(sp)
20013e1e:	c0b2                	sw	a2,64(sp)
20013e20:	de36                	sw	a3,60(sp)
20013e22:	dc3a                	sw	a4,56(sp)
20013e24:	da3e                	sw	a5,52(sp)
20013e26:	d842                	sw	a6,48(sp)
20013e28:	d646                	sw	a7,44(sp)
20013e2a:	d472                	sw	t3,40(sp)
20013e2c:	d276                	sw	t4,36(sp)
20013e2e:	d07a                	sw	t5,32(sp)
20013e30:	ce7e                	sw	t6,28(sp)
20013e32:	1080                	addi	s0,sp,96
/home/nicoladgg/wsFreedomStudio/sifive_hifive1_revb_hello/freedom-metal/src/drivers/riscv_cpu.c:129
20013e34:	3d3d                	jal	20013c72 <__metal_myhart_id>
20013e36:	872a                	mv	a4,a0
20013e38:	800017b7          	lui	a5,0x80001
20013e3c:	070a                	slli	a4,a4,0x2
20013e3e:	aa078793          	addi	a5,a5,-1376 # 80000aa0 <metal_segment_heap_target_end+0xfffff320>
20013e42:	97ba                	add	a5,a5,a4
20013e44:	439c                	lw	a5,0(a5)
20013e46:	faf42623          	sw	a5,-84(s0)
20013e4a:	fac42783          	lw	a5,-84(s0)
20013e4e:	c785                	beqz	a5,20013e76 <metal_software_interrupt_vector_handler+0x68>
/home/nicoladgg/wsFreedomStudio/sifive_hifive1_revb_hello/freedom-metal/src/drivers/riscv_cpu.c:129 (discriminator 1)
20013e50:	fac42503          	lw	a0,-84(s0)
20013e54:	3345                	jal	20013bf4 <__metal_driver_cpu_interrupt_controller>
20013e56:	faa42423          	sw	a0,-88(s0)
20013e5a:	fa842783          	lw	a5,-88(s0)
20013e5e:	0e07a783          	lw	a5,224(a5)
20013e62:	faf42223          	sw	a5,-92(s0)
20013e66:	fa842783          	lw	a5,-88(s0)
20013e6a:	0d87a783          	lw	a5,216(a5)
20013e6e:	fa442583          	lw	a1,-92(s0)
20013e72:	450d                	li	a0,3
20013e74:	9782                	jalr	a5
/home/nicoladgg/wsFreedomStudio/sifive_hifive1_revb_hello/freedom-metal/src/drivers/riscv_cpu.c:130
20013e76:	0001                	nop
20013e78:	40f6                	lw	ra,92(sp)
20013e7a:	42e6                	lw	t0,88(sp)
20013e7c:	4356                	lw	t1,84(sp)
20013e7e:	43c6                	lw	t2,80(sp)
20013e80:	4436                	lw	s0,76(sp)
20013e82:	4526                	lw	a0,72(sp)
20013e84:	4596                	lw	a1,68(sp)
20013e86:	4606                	lw	a2,64(sp)
20013e88:	56f2                	lw	a3,60(sp)
20013e8a:	5762                	lw	a4,56(sp)
20013e8c:	57d2                	lw	a5,52(sp)
20013e8e:	5842                	lw	a6,48(sp)
20013e90:	58b2                	lw	a7,44(sp)
20013e92:	5e22                	lw	t3,40(sp)
20013e94:	5e92                	lw	t4,36(sp)
20013e96:	5f02                	lw	t5,32(sp)
20013e98:	4ff2                	lw	t6,28(sp)
20013e9a:	6125                	addi	sp,sp,96
20013e9c:	30200073          	mret

20013ea0 <__metal_default_sw_handler>:
__metal_default_sw_handler():
/home/nicoladgg/wsFreedomStudio/sifive_hifive1_revb_hello/freedom-metal/src/drivers/riscv_cpu.c:132
20013ea0:	7179                	addi	sp,sp,-48
20013ea2:	d606                	sw	ra,44(sp)
20013ea4:	d422                	sw	s0,40(sp)
20013ea6:	1800                	addi	s0,sp,48
20013ea8:	fca42e23          	sw	a0,-36(s0)
20013eac:	fcb42c23          	sw	a1,-40(s0)
/home/nicoladgg/wsFreedomStudio/sifive_hifive1_revb_hello/freedom-metal/src/drivers/riscv_cpu.c:135
20013eb0:	33c9                	jal	20013c72 <__metal_myhart_id>
20013eb2:	872a                	mv	a4,a0
20013eb4:	800017b7          	lui	a5,0x80001
20013eb8:	070a                	slli	a4,a4,0x2
20013eba:	aa078793          	addi	a5,a5,-1376 # 80000aa0 <metal_segment_heap_target_end+0xfffff320>
20013ebe:	97ba                	add	a5,a5,a4
20013ec0:	439c                	lw	a5,0(a5)
20013ec2:	fef42623          	sw	a5,-20(s0)
/home/nicoladgg/wsFreedomStudio/sifive_hifive1_revb_hello/freedom-metal/src/drivers/riscv_cpu.c:137
20013ec6:	342027f3          	csrr	a5,mcause
20013eca:	fef42423          	sw	a5,-24(s0)
/home/nicoladgg/wsFreedomStudio/sifive_hifive1_revb_hello/freedom-metal/src/drivers/riscv_cpu.c:138
20013ece:	fec42783          	lw	a5,-20(s0)
20013ed2:	c795                	beqz	a5,20013efe <__metal_default_sw_handler+0x5e>
/home/nicoladgg/wsFreedomStudio/sifive_hifive1_revb_hello/freedom-metal/src/drivers/riscv_cpu.c:140
20013ed4:	fec42503          	lw	a0,-20(s0)
20013ed8:	3b31                	jal	20013bf4 <__metal_driver_cpu_interrupt_controller>
20013eda:	fea42223          	sw	a0,-28(s0)
/home/nicoladgg/wsFreedomStudio/sifive_hifive1_revb_hello/freedom-metal/src/drivers/riscv_cpu.c:141
20013ede:	fe842783          	lw	a5,-24(s0)
20013ee2:	3ff7f793          	andi	a5,a5,1023
20013ee6:	fe442703          	lw	a4,-28(s0)
20013eea:	0e878793          	addi	a5,a5,232
20013eee:	078a                	slli	a5,a5,0x2
20013ef0:	97ba                	add	a5,a5,a4
20013ef2:	439c                	lw	a5,0(a5)
20013ef4:	fdc42583          	lw	a1,-36(s0)
20013ef8:	fec42503          	lw	a0,-20(s0)
20013efc:	9782                	jalr	a5
/home/nicoladgg/wsFreedomStudio/sifive_hifive1_revb_hello/freedom-metal/src/drivers/riscv_cpu.c:144
20013efe:	0001                	nop
20013f00:	50b2                	lw	ra,44(sp)
20013f02:	5422                	lw	s0,40(sp)
20013f04:	6145                	addi	sp,sp,48
20013f06:	8082                	ret

20013f08 <metal_timer_interrupt_vector_handler>:
metal_timer_interrupt_vector_handler():
/home/nicoladgg/wsFreedomStudio/sifive_hifive1_revb_hello/freedom-metal/src/drivers/riscv_cpu.c:148
20013f08:	711d                	addi	sp,sp,-96
20013f0a:	ce86                	sw	ra,92(sp)
20013f0c:	cc96                	sw	t0,88(sp)
20013f0e:	ca9a                	sw	t1,84(sp)
20013f10:	c89e                	sw	t2,80(sp)
20013f12:	c6a2                	sw	s0,76(sp)
20013f14:	c4aa                	sw	a0,72(sp)
20013f16:	c2ae                	sw	a1,68(sp)
20013f18:	c0b2                	sw	a2,64(sp)
20013f1a:	de36                	sw	a3,60(sp)
20013f1c:	dc3a                	sw	a4,56(sp)
20013f1e:	da3e                	sw	a5,52(sp)
20013f20:	d842                	sw	a6,48(sp)
20013f22:	d646                	sw	a7,44(sp)
20013f24:	d472                	sw	t3,40(sp)
20013f26:	d276                	sw	t4,36(sp)
20013f28:	d07a                	sw	t5,32(sp)
20013f2a:	ce7e                	sw	t6,28(sp)
20013f2c:	1080                	addi	s0,sp,96
/home/nicoladgg/wsFreedomStudio/sifive_hifive1_revb_hello/freedom-metal/src/drivers/riscv_cpu.c:149
20013f2e:	3391                	jal	20013c72 <__metal_myhart_id>
20013f30:	872a                	mv	a4,a0
20013f32:	800017b7          	lui	a5,0x80001
20013f36:	070a                	slli	a4,a4,0x2
20013f38:	aa078793          	addi	a5,a5,-1376 # 80000aa0 <metal_segment_heap_target_end+0xfffff320>
20013f3c:	97ba                	add	a5,a5,a4
20013f3e:	439c                	lw	a5,0(a5)
20013f40:	faf42623          	sw	a5,-84(s0)
20013f44:	fac42783          	lw	a5,-84(s0)
20013f48:	c785                	beqz	a5,20013f70 <metal_timer_interrupt_vector_handler+0x68>
/home/nicoladgg/wsFreedomStudio/sifive_hifive1_revb_hello/freedom-metal/src/drivers/riscv_cpu.c:149 (discriminator 1)
20013f4a:	fac42503          	lw	a0,-84(s0)
20013f4e:	315d                	jal	20013bf4 <__metal_driver_cpu_interrupt_controller>
20013f50:	faa42423          	sw	a0,-88(s0)
20013f54:	fa842783          	lw	a5,-88(s0)
20013f58:	1407a783          	lw	a5,320(a5)
20013f5c:	faf42223          	sw	a5,-92(s0)
20013f60:	fa842783          	lw	a5,-88(s0)
20013f64:	1387a783          	lw	a5,312(a5)
20013f68:	fa442583          	lw	a1,-92(s0)
20013f6c:	451d                	li	a0,7
20013f6e:	9782                	jalr	a5
/home/nicoladgg/wsFreedomStudio/sifive_hifive1_revb_hello/freedom-metal/src/drivers/riscv_cpu.c:150
20013f70:	0001                	nop
20013f72:	40f6                	lw	ra,92(sp)
20013f74:	42e6                	lw	t0,88(sp)
20013f76:	4356                	lw	t1,84(sp)
20013f78:	43c6                	lw	t2,80(sp)
20013f7a:	4436                	lw	s0,76(sp)
20013f7c:	4526                	lw	a0,72(sp)
20013f7e:	4596                	lw	a1,68(sp)
20013f80:	4606                	lw	a2,64(sp)
20013f82:	56f2                	lw	a3,60(sp)
20013f84:	5762                	lw	a4,56(sp)
20013f86:	57d2                	lw	a5,52(sp)
20013f88:	5842                	lw	a6,48(sp)
20013f8a:	58b2                	lw	a7,44(sp)
20013f8c:	5e22                	lw	t3,40(sp)
20013f8e:	5e92                	lw	t4,36(sp)
20013f90:	5f02                	lw	t5,32(sp)
20013f92:	4ff2                	lw	t6,28(sp)
20013f94:	6125                	addi	sp,sp,96
20013f96:	30200073          	mret

20013f9a <__metal_default_beu_handler>:
__metal_default_beu_handler():
/home/nicoladgg/wsFreedomStudio/sifive_hifive1_revb_hello/freedom-metal/src/drivers/riscv_cpu.c:152
20013f9a:	1101                	addi	sp,sp,-32
20013f9c:	ce22                	sw	s0,28(sp)
20013f9e:	1000                	addi	s0,sp,32
20013fa0:	fea42623          	sw	a0,-20(s0)
20013fa4:	feb42423          	sw	a1,-24(s0)
20013fa8:	0001                	nop
20013faa:	4472                	lw	s0,28(sp)
20013fac:	6105                	addi	sp,sp,32
20013fae:	8082                	ret

20013fb0 <__metal_default_timer_handler>:
__metal_default_timer_handler():
/home/nicoladgg/wsFreedomStudio/sifive_hifive1_revb_hello/freedom-metal/src/drivers/riscv_cpu.c:154
20013fb0:	7179                	addi	sp,sp,-48
20013fb2:	d606                	sw	ra,44(sp)
20013fb4:	d422                	sw	s0,40(sp)
20013fb6:	1800                	addi	s0,sp,48
20013fb8:	fca42e23          	sw	a0,-36(s0)
20013fbc:	fcb42c23          	sw	a1,-40(s0)
/home/nicoladgg/wsFreedomStudio/sifive_hifive1_revb_hello/freedom-metal/src/drivers/riscv_cpu.c:155
20013fc0:	394d                	jal	20013c72 <__metal_myhart_id>
20013fc2:	87aa                	mv	a5,a0
20013fc4:	853e                	mv	a0,a5
20013fc6:	39b5                	jal	20013c42 <__metal_driver_cpu_get>
20013fc8:	fea42623          	sw	a0,-20(s0)
/home/nicoladgg/wsFreedomStudio/sifive_hifive1_revb_hello/freedom-metal/src/drivers/riscv_cpu.c:156
20013fcc:	fec42503          	lw	a0,-20(s0)
20013fd0:	2d4010ef          	jal	ra,200152a4 <__metal_driver_cpu_mtime_get>
20013fd4:	fea42023          	sw	a0,-32(s0)
20013fd8:	feb42223          	sw	a1,-28(s0)
/home/nicoladgg/wsFreedomStudio/sifive_hifive1_revb_hello/freedom-metal/src/drivers/riscv_cpu.c:159
20013fdc:	fe042703          	lw	a4,-32(s0)
20013fe0:	fe442783          	lw	a5,-28(s0)
20013fe4:	4529                	li	a0,10
20013fe6:	4581                	li	a1,0
20013fe8:	00a70633          	add	a2,a4,a0
20013fec:	8832                	mv	a6,a2
20013fee:	00e83833          	sltu	a6,a6,a4
20013ff2:	00b786b3          	add	a3,a5,a1
20013ff6:	00d807b3          	add	a5,a6,a3
20013ffa:	86be                	mv	a3,a5
20013ffc:	8732                	mv	a4,a2
20013ffe:	87b6                	mv	a5,a3
20014000:	85ba                	mv	a1,a4
20014002:	863e                	mv	a2,a5
20014004:	fec42503          	lw	a0,-20(s0)
20014008:	302010ef          	jal	ra,2001530a <__metal_driver_cpu_mtimecmp_set>
/home/nicoladgg/wsFreedomStudio/sifive_hifive1_revb_hello/freedom-metal/src/drivers/riscv_cpu.c:160
2001400c:	0001                	nop
2001400e:	50b2                	lw	ra,44(sp)
20014010:	5422                	lw	s0,40(sp)
20014012:	6145                	addi	sp,sp,48
20014014:	8082                	ret
	...

20014080 <__metal_exception_handler>:
__metal_exception_handler():
/home/nicoladgg/wsFreedomStudio/sifive_hifive1_revb_hello/freedom-metal/src/drivers/riscv_cpu.c:169
20014080:	7119                	addi	sp,sp,-128
20014082:	de86                	sw	ra,124(sp)
20014084:	dc96                	sw	t0,120(sp)
20014086:	da9a                	sw	t1,116(sp)
20014088:	d89e                	sw	t2,112(sp)
2001408a:	d6a2                	sw	s0,108(sp)
2001408c:	d4aa                	sw	a0,104(sp)
2001408e:	d2ae                	sw	a1,100(sp)
20014090:	d0b2                	sw	a2,96(sp)
20014092:	ceb6                	sw	a3,92(sp)
20014094:	ccba                	sw	a4,88(sp)
20014096:	cabe                	sw	a5,84(sp)
20014098:	c8c2                	sw	a6,80(sp)
2001409a:	c6c6                	sw	a7,76(sp)
2001409c:	c4f2                	sw	t3,72(sp)
2001409e:	c2f6                	sw	t4,68(sp)
200140a0:	c0fa                	sw	t5,64(sp)
200140a2:	de7e                	sw	t6,60(sp)
200140a4:	0100                	addi	s0,sp,128
/home/nicoladgg/wsFreedomStudio/sifive_hifive1_revb_hello/freedom-metal/src/drivers/riscv_cpu.c:174
200140a6:	bcdff0ef          	jal	ra,20013c72 <__metal_myhart_id>
200140aa:	872a                	mv	a4,a0
200140ac:	800017b7          	lui	a5,0x80001
200140b0:	070a                	slli	a4,a4,0x2
200140b2:	aa078793          	addi	a5,a5,-1376 # 80000aa0 <metal_segment_heap_target_end+0xfffff320>
200140b6:	97ba                	add	a5,a5,a4
200140b8:	439c                	lw	a5,0(a5)
200140ba:	faf42623          	sw	a5,-84(s0)
/home/nicoladgg/wsFreedomStudio/sifive_hifive1_revb_hello/freedom-metal/src/drivers/riscv_cpu.c:176
200140be:	342027f3          	csrr	a5,mcause
200140c2:	faf42423          	sw	a5,-88(s0)
/home/nicoladgg/wsFreedomStudio/sifive_hifive1_revb_hello/freedom-metal/src/drivers/riscv_cpu.c:177
200140c6:	341027f3          	csrr	a5,mepc
200140ca:	faf42223          	sw	a5,-92(s0)
/home/nicoladgg/wsFreedomStudio/sifive_hifive1_revb_hello/freedom-metal/src/drivers/riscv_cpu.c:178
200140ce:	343027f3          	csrr	a5,mtval
200140d2:	faf42023          	sw	a5,-96(s0)
/home/nicoladgg/wsFreedomStudio/sifive_hifive1_revb_hello/freedom-metal/src/drivers/riscv_cpu.c:179
200140d6:	305027f3          	csrr	a5,mtvec
200140da:	f8f42e23          	sw	a5,-100(s0)
/home/nicoladgg/wsFreedomStudio/sifive_hifive1_revb_hello/freedom-metal/src/drivers/riscv_cpu.c:181
200140de:	fac42783          	lw	a5,-84(s0)
200140e2:	cbfd                	beqz	a5,200141d8 <__metal_exception_handler+0x158>
/home/nicoladgg/wsFreedomStudio/sifive_hifive1_revb_hello/freedom-metal/src/drivers/riscv_cpu.c:183
200140e4:	fac42503          	lw	a0,-84(s0)
200140e8:	b0dff0ef          	jal	ra,20013bf4 <__metal_driver_cpu_interrupt_controller>
200140ec:	f8a42c23          	sw	a0,-104(s0)
/home/nicoladgg/wsFreedomStudio/sifive_hifive1_revb_hello/freedom-metal/src/drivers/riscv_cpu.c:184
200140f0:	fa842783          	lw	a5,-88(s0)
200140f4:	3ff7f793          	andi	a5,a5,1023
200140f8:	f8f42a23          	sw	a5,-108(s0)
/home/nicoladgg/wsFreedomStudio/sifive_hifive1_revb_hello/freedom-metal/src/drivers/riscv_cpu.c:185
200140fc:	fa842783          	lw	a5,-88(s0)
20014100:	0a07de63          	bgez	a5,200141bc <__metal_exception_handler+0x13c>
/home/nicoladgg/wsFreedomStudio/sifive_hifive1_revb_hello/freedom-metal/src/drivers/riscv_cpu.c:186
20014104:	f9442703          	lw	a4,-108(s0)
20014108:	08000793          	li	a5,128
2001410c:	02f71263          	bne	a4,a5,20014130 <__metal_exception_handler+0xb0>
/home/nicoladgg/wsFreedomStudio/sifive_hifive1_revb_hello/freedom-metal/src/drivers/riscv_cpu.c:187
20014110:	f9842783          	lw	a5,-104(s0)
20014114:	3987a783          	lw	a5,920(a5)
20014118:	f8f42623          	sw	a5,-116(s0)
/home/nicoladgg/wsFreedomStudio/sifive_hifive1_revb_hello/freedom-metal/src/drivers/riscv_cpu.c:188
2001411c:	f9842783          	lw	a5,-104(s0)
20014120:	3907a783          	lw	a5,912(a5)
20014124:	f8c42583          	lw	a1,-116(s0)
20014128:	f9442503          	lw	a0,-108(s0)
2001412c:	9782                	jalr	a5
/home/nicoladgg/wsFreedomStudio/sifive_hifive1_revb_hello/freedom-metal/src/drivers/riscv_cpu.c:189
2001412e:	a06d                	j	200141d8 <__metal_exception_handler+0x158>
/home/nicoladgg/wsFreedomStudio/sifive_hifive1_revb_hello/freedom-metal/src/drivers/riscv_cpu.c:191
20014130:	f9442703          	lw	a4,-108(s0)
20014134:	47ad                	li	a5,11
20014136:	00e7d763          	bge	a5,a4,20014144 <__metal_exception_handler+0xc4>
/home/nicoladgg/wsFreedomStudio/sifive_hifive1_revb_hello/freedom-metal/src/drivers/riscv_cpu.c:192 (discriminator 1)
2001413a:	f9c42783          	lw	a5,-100(s0)
2001413e:	03f7f793          	andi	a5,a5,63
/home/nicoladgg/wsFreedomStudio/sifive_hifive1_revb_hello/freedom-metal/src/drivers/riscv_cpu.c:191 (discriminator 1)
20014142:	ef9d                	bnez	a5,20014180 <__metal_exception_handler+0x100>
/home/nicoladgg/wsFreedomStudio/sifive_hifive1_revb_hello/freedom-metal/src/drivers/riscv_cpu.c:193
20014144:	f9842683          	lw	a3,-104(s0)
20014148:	f9442703          	lw	a4,-108(s0)
2001414c:	87ba                	mv	a5,a4
2001414e:	0786                	slli	a5,a5,0x1
20014150:	97ba                	add	a5,a5,a4
20014152:	078e                	slli	a5,a5,0x3
20014154:	97b6                	add	a5,a5,a3
20014156:	0987a783          	lw	a5,152(a5)
2001415a:	f8f42623          	sw	a5,-116(s0)
/home/nicoladgg/wsFreedomStudio/sifive_hifive1_revb_hello/freedom-metal/src/drivers/riscv_cpu.c:194
2001415e:	f9842683          	lw	a3,-104(s0)
20014162:	f9442703          	lw	a4,-108(s0)
20014166:	87ba                	mv	a5,a4
20014168:	0786                	slli	a5,a5,0x1
2001416a:	97ba                	add	a5,a5,a4
2001416c:	078e                	slli	a5,a5,0x3
2001416e:	97b6                	add	a5,a5,a3
20014170:	0907a783          	lw	a5,144(a5)
20014174:	f8c42583          	lw	a1,-116(s0)
20014178:	f9442503          	lw	a0,-108(s0)
2001417c:	9782                	jalr	a5
/home/nicoladgg/wsFreedomStudio/sifive_hifive1_revb_hello/freedom-metal/src/drivers/riscv_cpu.c:195
2001417e:	a8a9                	j	200141d8 <__metal_exception_handler+0x158>
/home/nicoladgg/wsFreedomStudio/sifive_hifive1_revb_hello/freedom-metal/src/drivers/riscv_cpu.c:197
20014180:	f9c42783          	lw	a5,-100(s0)
20014184:	03f7f713          	andi	a4,a5,63
20014188:	4789                	li	a5,2
2001418a:	04f71763          	bne	a4,a5,200141d8 <__metal_exception_handler+0x158>
/home/nicoladgg/wsFreedomStudio/sifive_hifive1_revb_hello/freedom-metal/src/drivers/riscv_cpu.c:201
2001418e:	307027f3          	csrr	a5,mtvt
20014192:	f8f42823          	sw	a5,-112(s0)
/home/nicoladgg/wsFreedomStudio/sifive_hifive1_revb_hello/freedom-metal/src/drivers/riscv_cpu.c:202
20014196:	f9842783          	lw	a5,-104(s0)
2001419a:	0dc7a783          	lw	a5,220(a5)
2001419e:	f8f42623          	sw	a5,-116(s0)
/home/nicoladgg/wsFreedomStudio/sifive_hifive1_revb_hello/freedom-metal/src/drivers/riscv_cpu.c:203
200141a2:	f9042783          	lw	a5,-112(s0)
200141a6:	439c                	lw	a5,0(a5)
200141a8:	f8f42423          	sw	a5,-120(s0)
/home/nicoladgg/wsFreedomStudio/sifive_hifive1_revb_hello/freedom-metal/src/drivers/riscv_cpu.c:204
200141ac:	f8842783          	lw	a5,-120(s0)
200141b0:	f8c42583          	lw	a1,-116(s0)
200141b4:	f9442503          	lw	a0,-108(s0)
200141b8:	9782                	jalr	a5
/home/nicoladgg/wsFreedomStudio/sifive_hifive1_revb_hello/freedom-metal/src/drivers/riscv_cpu.c:205
200141ba:	a839                	j	200141d8 <__metal_exception_handler+0x158>
/home/nicoladgg/wsFreedomStudio/sifive_hifive1_revb_hello/freedom-metal/src/drivers/riscv_cpu.c:208
200141bc:	f9842703          	lw	a4,-104(s0)
200141c0:	f9442783          	lw	a5,-108(s0)
200141c4:	0e878793          	addi	a5,a5,232
200141c8:	078a                	slli	a5,a5,0x2
200141ca:	97ba                	add	a5,a5,a4
200141cc:	439c                	lw	a5,0(a5)
200141ce:	f9442583          	lw	a1,-108(s0)
200141d2:	fac42503          	lw	a0,-84(s0)
200141d6:	9782                	jalr	a5
/home/nicoladgg/wsFreedomStudio/sifive_hifive1_revb_hello/freedom-metal/src/drivers/riscv_cpu.c:211
200141d8:	50f6                	lw	ra,124(sp)
200141da:	52e6                	lw	t0,120(sp)
200141dc:	5356                	lw	t1,116(sp)
200141de:	53c6                	lw	t2,112(sp)
200141e0:	5436                	lw	s0,108(sp)
200141e2:	5526                	lw	a0,104(sp)
200141e4:	5596                	lw	a1,100(sp)
200141e6:	5606                	lw	a2,96(sp)
200141e8:	46f6                	lw	a3,92(sp)
200141ea:	4766                	lw	a4,88(sp)
200141ec:	47d6                	lw	a5,84(sp)
200141ee:	4846                	lw	a6,80(sp)
200141f0:	48b6                	lw	a7,76(sp)
200141f2:	4e26                	lw	t3,72(sp)
200141f4:	4e96                	lw	t4,68(sp)
200141f6:	4f06                	lw	t5,64(sp)
200141f8:	5ff2                	lw	t6,60(sp)
200141fa:	6109                	addi	sp,sp,128
200141fc:	30200073          	mret
	...

2001427a <metal_lc0_interrupt_vector_handler>:
metal_lc0_interrupt_vector_handler():
/home/nicoladgg/wsFreedomStudio/sifive_hifive1_revb_hello/freedom-metal/src/drivers/riscv_cpu.c:214
2001427a:	711d                	addi	sp,sp,-96
2001427c:	ce86                	sw	ra,92(sp)
2001427e:	cc96                	sw	t0,88(sp)
20014280:	ca9a                	sw	t1,84(sp)
20014282:	c89e                	sw	t2,80(sp)
20014284:	c6a2                	sw	s0,76(sp)
20014286:	c4aa                	sw	a0,72(sp)
20014288:	c2ae                	sw	a1,68(sp)
2001428a:	c0b2                	sw	a2,64(sp)
2001428c:	de36                	sw	a3,60(sp)
2001428e:	dc3a                	sw	a4,56(sp)
20014290:	da3e                	sw	a5,52(sp)
20014292:	d842                	sw	a6,48(sp)
20014294:	d646                	sw	a7,44(sp)
20014296:	d472                	sw	t3,40(sp)
20014298:	d276                	sw	t4,36(sp)
2001429a:	d07a                	sw	t5,32(sp)
2001429c:	ce7e                	sw	t6,28(sp)
2001429e:	1080                	addi	s0,sp,96
/home/nicoladgg/wsFreedomStudio/sifive_hifive1_revb_hello/freedom-metal/src/drivers/riscv_cpu.c:215
200142a0:	9d3ff0ef          	jal	ra,20013c72 <__metal_myhart_id>
200142a4:	872a                	mv	a4,a0
200142a6:	800017b7          	lui	a5,0x80001
200142aa:	070a                	slli	a4,a4,0x2
200142ac:	aa078793          	addi	a5,a5,-1376 # 80000aa0 <metal_segment_heap_target_end+0xfffff320>
200142b0:	97ba                	add	a5,a5,a4
200142b2:	439c                	lw	a5,0(a5)
200142b4:	faf42623          	sw	a5,-84(s0)
200142b8:	fac42783          	lw	a5,-84(s0)
200142bc:	c78d                	beqz	a5,200142e6 <metal_lc0_interrupt_vector_handler+0x6c>
/home/nicoladgg/wsFreedomStudio/sifive_hifive1_revb_hello/freedom-metal/src/drivers/riscv_cpu.c:215 (discriminator 1)
200142be:	fac42503          	lw	a0,-84(s0)
200142c2:	933ff0ef          	jal	ra,20013bf4 <__metal_driver_cpu_interrupt_controller>
200142c6:	faa42423          	sw	a0,-88(s0)
200142ca:	fa842783          	lw	a5,-88(s0)
200142ce:	2187a783          	lw	a5,536(a5)
200142d2:	faf42223          	sw	a5,-92(s0)
200142d6:	fa842783          	lw	a5,-88(s0)
200142da:	2107a783          	lw	a5,528(a5)
200142de:	fa442583          	lw	a1,-92(s0)
200142e2:	4541                	li	a0,16
200142e4:	9782                	jalr	a5
/home/nicoladgg/wsFreedomStudio/sifive_hifive1_revb_hello/freedom-metal/src/drivers/riscv_cpu.c:216
200142e6:	0001                	nop
200142e8:	40f6                	lw	ra,92(sp)
200142ea:	42e6                	lw	t0,88(sp)
200142ec:	4356                	lw	t1,84(sp)
200142ee:	43c6                	lw	t2,80(sp)
200142f0:	4436                	lw	s0,76(sp)
200142f2:	4526                	lw	a0,72(sp)
200142f4:	4596                	lw	a1,68(sp)
200142f6:	4606                	lw	a2,64(sp)
200142f8:	56f2                	lw	a3,60(sp)
200142fa:	5762                	lw	a4,56(sp)
200142fc:	57d2                	lw	a5,52(sp)
200142fe:	5842                	lw	a6,48(sp)
20014300:	58b2                	lw	a7,44(sp)
20014302:	5e22                	lw	t3,40(sp)
20014304:	5e92                	lw	t4,36(sp)
20014306:	5f02                	lw	t5,32(sp)
20014308:	4ff2                	lw	t6,28(sp)
2001430a:	6125                	addi	sp,sp,96
2001430c:	30200073          	mret

20014310 <metal_lc1_interrupt_vector_handler>:
metal_lc1_interrupt_vector_handler():
/home/nicoladgg/wsFreedomStudio/sifive_hifive1_revb_hello/freedom-metal/src/drivers/riscv_cpu.c:219
20014310:	711d                	addi	sp,sp,-96
20014312:	ce86                	sw	ra,92(sp)
20014314:	cc96                	sw	t0,88(sp)
20014316:	ca9a                	sw	t1,84(sp)
20014318:	c89e                	sw	t2,80(sp)
2001431a:	c6a2                	sw	s0,76(sp)
2001431c:	c4aa                	sw	a0,72(sp)
2001431e:	c2ae                	sw	a1,68(sp)
20014320:	c0b2                	sw	a2,64(sp)
20014322:	de36                	sw	a3,60(sp)
20014324:	dc3a                	sw	a4,56(sp)
20014326:	da3e                	sw	a5,52(sp)
20014328:	d842                	sw	a6,48(sp)
2001432a:	d646                	sw	a7,44(sp)
2001432c:	d472                	sw	t3,40(sp)
2001432e:	d276                	sw	t4,36(sp)
20014330:	d07a                	sw	t5,32(sp)
20014332:	ce7e                	sw	t6,28(sp)
20014334:	1080                	addi	s0,sp,96
/home/nicoladgg/wsFreedomStudio/sifive_hifive1_revb_hello/freedom-metal/src/drivers/riscv_cpu.c:220
20014336:	93dff0ef          	jal	ra,20013c72 <__metal_myhart_id>
2001433a:	872a                	mv	a4,a0
2001433c:	800017b7          	lui	a5,0x80001
20014340:	070a                	slli	a4,a4,0x2
20014342:	aa078793          	addi	a5,a5,-1376 # 80000aa0 <metal_segment_heap_target_end+0xfffff320>
20014346:	97ba                	add	a5,a5,a4
20014348:	439c                	lw	a5,0(a5)
2001434a:	faf42623          	sw	a5,-84(s0)
2001434e:	fac42783          	lw	a5,-84(s0)
20014352:	c78d                	beqz	a5,2001437c <metal_lc1_interrupt_vector_handler+0x6c>
/home/nicoladgg/wsFreedomStudio/sifive_hifive1_revb_hello/freedom-metal/src/drivers/riscv_cpu.c:220 (discriminator 1)
20014354:	fac42503          	lw	a0,-84(s0)
20014358:	89dff0ef          	jal	ra,20013bf4 <__metal_driver_cpu_interrupt_controller>
2001435c:	faa42423          	sw	a0,-88(s0)
20014360:	fa842783          	lw	a5,-88(s0)
20014364:	2307a783          	lw	a5,560(a5)
20014368:	faf42223          	sw	a5,-92(s0)
2001436c:	fa842783          	lw	a5,-88(s0)
20014370:	2287a783          	lw	a5,552(a5)
20014374:	fa442583          	lw	a1,-92(s0)
20014378:	4545                	li	a0,17
2001437a:	9782                	jalr	a5
/home/nicoladgg/wsFreedomStudio/sifive_hifive1_revb_hello/freedom-metal/src/drivers/riscv_cpu.c:221
2001437c:	0001                	nop
2001437e:	40f6                	lw	ra,92(sp)
20014380:	42e6                	lw	t0,88(sp)
20014382:	4356                	lw	t1,84(sp)
20014384:	43c6                	lw	t2,80(sp)
20014386:	4436                	lw	s0,76(sp)
20014388:	4526                	lw	a0,72(sp)
2001438a:	4596                	lw	a1,68(sp)
2001438c:	4606                	lw	a2,64(sp)
2001438e:	56f2                	lw	a3,60(sp)
20014390:	5762                	lw	a4,56(sp)
20014392:	57d2                	lw	a5,52(sp)
20014394:	5842                	lw	a6,48(sp)
20014396:	58b2                	lw	a7,44(sp)
20014398:	5e22                	lw	t3,40(sp)
2001439a:	5e92                	lw	t4,36(sp)
2001439c:	5f02                	lw	t5,32(sp)
2001439e:	4ff2                	lw	t6,28(sp)
200143a0:	6125                	addi	sp,sp,96
200143a2:	30200073          	mret

200143a6 <metal_lc2_interrupt_vector_handler>:
metal_lc2_interrupt_vector_handler():
/home/nicoladgg/wsFreedomStudio/sifive_hifive1_revb_hello/freedom-metal/src/drivers/riscv_cpu.c:224
200143a6:	711d                	addi	sp,sp,-96
200143a8:	ce86                	sw	ra,92(sp)
200143aa:	cc96                	sw	t0,88(sp)
200143ac:	ca9a                	sw	t1,84(sp)
200143ae:	c89e                	sw	t2,80(sp)
200143b0:	c6a2                	sw	s0,76(sp)
200143b2:	c4aa                	sw	a0,72(sp)
200143b4:	c2ae                	sw	a1,68(sp)
200143b6:	c0b2                	sw	a2,64(sp)
200143b8:	de36                	sw	a3,60(sp)
200143ba:	dc3a                	sw	a4,56(sp)
200143bc:	da3e                	sw	a5,52(sp)
200143be:	d842                	sw	a6,48(sp)
200143c0:	d646                	sw	a7,44(sp)
200143c2:	d472                	sw	t3,40(sp)
200143c4:	d276                	sw	t4,36(sp)
200143c6:	d07a                	sw	t5,32(sp)
200143c8:	ce7e                	sw	t6,28(sp)
200143ca:	1080                	addi	s0,sp,96
/home/nicoladgg/wsFreedomStudio/sifive_hifive1_revb_hello/freedom-metal/src/drivers/riscv_cpu.c:225
200143cc:	8a7ff0ef          	jal	ra,20013c72 <__metal_myhart_id>
200143d0:	872a                	mv	a4,a0
200143d2:	800017b7          	lui	a5,0x80001
200143d6:	070a                	slli	a4,a4,0x2
200143d8:	aa078793          	addi	a5,a5,-1376 # 80000aa0 <metal_segment_heap_target_end+0xfffff320>
200143dc:	97ba                	add	a5,a5,a4
200143de:	439c                	lw	a5,0(a5)
200143e0:	faf42623          	sw	a5,-84(s0)
200143e4:	fac42783          	lw	a5,-84(s0)
200143e8:	c78d                	beqz	a5,20014412 <metal_lc2_interrupt_vector_handler+0x6c>
/home/nicoladgg/wsFreedomStudio/sifive_hifive1_revb_hello/freedom-metal/src/drivers/riscv_cpu.c:225 (discriminator 1)
200143ea:	fac42503          	lw	a0,-84(s0)
200143ee:	807ff0ef          	jal	ra,20013bf4 <__metal_driver_cpu_interrupt_controller>
200143f2:	faa42423          	sw	a0,-88(s0)
200143f6:	fa842783          	lw	a5,-88(s0)
200143fa:	2487a783          	lw	a5,584(a5)
200143fe:	faf42223          	sw	a5,-92(s0)
20014402:	fa842783          	lw	a5,-88(s0)
20014406:	2407a783          	lw	a5,576(a5)
2001440a:	fa442583          	lw	a1,-92(s0)
2001440e:	4549                	li	a0,18
20014410:	9782                	jalr	a5
/home/nicoladgg/wsFreedomStudio/sifive_hifive1_revb_hello/freedom-metal/src/drivers/riscv_cpu.c:226
20014412:	0001                	nop
20014414:	40f6                	lw	ra,92(sp)
20014416:	42e6                	lw	t0,88(sp)
20014418:	4356                	lw	t1,84(sp)
2001441a:	43c6                	lw	t2,80(sp)
2001441c:	4436                	lw	s0,76(sp)
2001441e:	4526                	lw	a0,72(sp)
20014420:	4596                	lw	a1,68(sp)
20014422:	4606                	lw	a2,64(sp)
20014424:	56f2                	lw	a3,60(sp)
20014426:	5762                	lw	a4,56(sp)
20014428:	57d2                	lw	a5,52(sp)
2001442a:	5842                	lw	a6,48(sp)
2001442c:	58b2                	lw	a7,44(sp)
2001442e:	5e22                	lw	t3,40(sp)
20014430:	5e92                	lw	t4,36(sp)
20014432:	5f02                	lw	t5,32(sp)
20014434:	4ff2                	lw	t6,28(sp)
20014436:	6125                	addi	sp,sp,96
20014438:	30200073          	mret

2001443c <metal_lc3_interrupt_vector_handler>:
metal_lc3_interrupt_vector_handler():
/home/nicoladgg/wsFreedomStudio/sifive_hifive1_revb_hello/freedom-metal/src/drivers/riscv_cpu.c:229
2001443c:	711d                	addi	sp,sp,-96
2001443e:	ce86                	sw	ra,92(sp)
20014440:	cc96                	sw	t0,88(sp)
20014442:	ca9a                	sw	t1,84(sp)
20014444:	c89e                	sw	t2,80(sp)
20014446:	c6a2                	sw	s0,76(sp)
20014448:	c4aa                	sw	a0,72(sp)
2001444a:	c2ae                	sw	a1,68(sp)
2001444c:	c0b2                	sw	a2,64(sp)
2001444e:	de36                	sw	a3,60(sp)
20014450:	dc3a                	sw	a4,56(sp)
20014452:	da3e                	sw	a5,52(sp)
20014454:	d842                	sw	a6,48(sp)
20014456:	d646                	sw	a7,44(sp)
20014458:	d472                	sw	t3,40(sp)
2001445a:	d276                	sw	t4,36(sp)
2001445c:	d07a                	sw	t5,32(sp)
2001445e:	ce7e                	sw	t6,28(sp)
20014460:	1080                	addi	s0,sp,96
/home/nicoladgg/wsFreedomStudio/sifive_hifive1_revb_hello/freedom-metal/src/drivers/riscv_cpu.c:230
20014462:	811ff0ef          	jal	ra,20013c72 <__metal_myhart_id>
20014466:	872a                	mv	a4,a0
20014468:	800017b7          	lui	a5,0x80001
2001446c:	070a                	slli	a4,a4,0x2
2001446e:	aa078793          	addi	a5,a5,-1376 # 80000aa0 <metal_segment_heap_target_end+0xfffff320>
20014472:	97ba                	add	a5,a5,a4
20014474:	439c                	lw	a5,0(a5)
20014476:	faf42623          	sw	a5,-84(s0)
2001447a:	fac42783          	lw	a5,-84(s0)
2001447e:	c78d                	beqz	a5,200144a8 <metal_lc3_interrupt_vector_handler+0x6c>
/home/nicoladgg/wsFreedomStudio/sifive_hifive1_revb_hello/freedom-metal/src/drivers/riscv_cpu.c:230 (discriminator 1)
20014480:	fac42503          	lw	a0,-84(s0)
20014484:	f70ff0ef          	jal	ra,20013bf4 <__metal_driver_cpu_interrupt_controller>
20014488:	faa42423          	sw	a0,-88(s0)
2001448c:	fa842783          	lw	a5,-88(s0)
20014490:	2607a783          	lw	a5,608(a5)
20014494:	faf42223          	sw	a5,-92(s0)
20014498:	fa842783          	lw	a5,-88(s0)
2001449c:	2587a783          	lw	a5,600(a5)
200144a0:	fa442583          	lw	a1,-92(s0)
200144a4:	454d                	li	a0,19
200144a6:	9782                	jalr	a5
/home/nicoladgg/wsFreedomStudio/sifive_hifive1_revb_hello/freedom-metal/src/drivers/riscv_cpu.c:231
200144a8:	0001                	nop
200144aa:	40f6                	lw	ra,92(sp)
200144ac:	42e6                	lw	t0,88(sp)
200144ae:	4356                	lw	t1,84(sp)
200144b0:	43c6                	lw	t2,80(sp)
200144b2:	4436                	lw	s0,76(sp)
200144b4:	4526                	lw	a0,72(sp)
200144b6:	4596                	lw	a1,68(sp)
200144b8:	4606                	lw	a2,64(sp)
200144ba:	56f2                	lw	a3,60(sp)
200144bc:	5762                	lw	a4,56(sp)
200144be:	57d2                	lw	a5,52(sp)
200144c0:	5842                	lw	a6,48(sp)
200144c2:	58b2                	lw	a7,44(sp)
200144c4:	5e22                	lw	t3,40(sp)
200144c6:	5e92                	lw	t4,36(sp)
200144c8:	5f02                	lw	t5,32(sp)
200144ca:	4ff2                	lw	t6,28(sp)
200144cc:	6125                	addi	sp,sp,96
200144ce:	30200073          	mret

200144d2 <metal_lc4_interrupt_vector_handler>:
metal_lc4_interrupt_vector_handler():
/home/nicoladgg/wsFreedomStudio/sifive_hifive1_revb_hello/freedom-metal/src/drivers/riscv_cpu.c:234
200144d2:	711d                	addi	sp,sp,-96
200144d4:	ce86                	sw	ra,92(sp)
200144d6:	cc96                	sw	t0,88(sp)
200144d8:	ca9a                	sw	t1,84(sp)
200144da:	c89e                	sw	t2,80(sp)
200144dc:	c6a2                	sw	s0,76(sp)
200144de:	c4aa                	sw	a0,72(sp)
200144e0:	c2ae                	sw	a1,68(sp)
200144e2:	c0b2                	sw	a2,64(sp)
200144e4:	de36                	sw	a3,60(sp)
200144e6:	dc3a                	sw	a4,56(sp)
200144e8:	da3e                	sw	a5,52(sp)
200144ea:	d842                	sw	a6,48(sp)
200144ec:	d646                	sw	a7,44(sp)
200144ee:	d472                	sw	t3,40(sp)
200144f0:	d276                	sw	t4,36(sp)
200144f2:	d07a                	sw	t5,32(sp)
200144f4:	ce7e                	sw	t6,28(sp)
200144f6:	1080                	addi	s0,sp,96
/home/nicoladgg/wsFreedomStudio/sifive_hifive1_revb_hello/freedom-metal/src/drivers/riscv_cpu.c:235
200144f8:	f7aff0ef          	jal	ra,20013c72 <__metal_myhart_id>
200144fc:	872a                	mv	a4,a0
200144fe:	800017b7          	lui	a5,0x80001
20014502:	070a                	slli	a4,a4,0x2
20014504:	aa078793          	addi	a5,a5,-1376 # 80000aa0 <metal_segment_heap_target_end+0xfffff320>
20014508:	97ba                	add	a5,a5,a4
2001450a:	439c                	lw	a5,0(a5)
2001450c:	faf42623          	sw	a5,-84(s0)
20014510:	fac42783          	lw	a5,-84(s0)
20014514:	c78d                	beqz	a5,2001453e <metal_lc4_interrupt_vector_handler+0x6c>
/home/nicoladgg/wsFreedomStudio/sifive_hifive1_revb_hello/freedom-metal/src/drivers/riscv_cpu.c:235 (discriminator 1)
20014516:	fac42503          	lw	a0,-84(s0)
2001451a:	edaff0ef          	jal	ra,20013bf4 <__metal_driver_cpu_interrupt_controller>
2001451e:	faa42423          	sw	a0,-88(s0)
20014522:	fa842783          	lw	a5,-88(s0)
20014526:	2787a783          	lw	a5,632(a5)
2001452a:	faf42223          	sw	a5,-92(s0)
2001452e:	fa842783          	lw	a5,-88(s0)
20014532:	2707a783          	lw	a5,624(a5)
20014536:	fa442583          	lw	a1,-92(s0)
2001453a:	4551                	li	a0,20
2001453c:	9782                	jalr	a5
/home/nicoladgg/wsFreedomStudio/sifive_hifive1_revb_hello/freedom-metal/src/drivers/riscv_cpu.c:236
2001453e:	0001                	nop
20014540:	40f6                	lw	ra,92(sp)
20014542:	42e6                	lw	t0,88(sp)
20014544:	4356                	lw	t1,84(sp)
20014546:	43c6                	lw	t2,80(sp)
20014548:	4436                	lw	s0,76(sp)
2001454a:	4526                	lw	a0,72(sp)
2001454c:	4596                	lw	a1,68(sp)
2001454e:	4606                	lw	a2,64(sp)
20014550:	56f2                	lw	a3,60(sp)
20014552:	5762                	lw	a4,56(sp)
20014554:	57d2                	lw	a5,52(sp)
20014556:	5842                	lw	a6,48(sp)
20014558:	58b2                	lw	a7,44(sp)
2001455a:	5e22                	lw	t3,40(sp)
2001455c:	5e92                	lw	t4,36(sp)
2001455e:	5f02                	lw	t5,32(sp)
20014560:	4ff2                	lw	t6,28(sp)
20014562:	6125                	addi	sp,sp,96
20014564:	30200073          	mret

20014568 <metal_lc5_interrupt_vector_handler>:
metal_lc5_interrupt_vector_handler():
/home/nicoladgg/wsFreedomStudio/sifive_hifive1_revb_hello/freedom-metal/src/drivers/riscv_cpu.c:239
20014568:	711d                	addi	sp,sp,-96
2001456a:	ce86                	sw	ra,92(sp)
2001456c:	cc96                	sw	t0,88(sp)
2001456e:	ca9a                	sw	t1,84(sp)
20014570:	c89e                	sw	t2,80(sp)
20014572:	c6a2                	sw	s0,76(sp)
20014574:	c4aa                	sw	a0,72(sp)
20014576:	c2ae                	sw	a1,68(sp)
20014578:	c0b2                	sw	a2,64(sp)
2001457a:	de36                	sw	a3,60(sp)
2001457c:	dc3a                	sw	a4,56(sp)
2001457e:	da3e                	sw	a5,52(sp)
20014580:	d842                	sw	a6,48(sp)
20014582:	d646                	sw	a7,44(sp)
20014584:	d472                	sw	t3,40(sp)
20014586:	d276                	sw	t4,36(sp)
20014588:	d07a                	sw	t5,32(sp)
2001458a:	ce7e                	sw	t6,28(sp)
2001458c:	1080                	addi	s0,sp,96
/home/nicoladgg/wsFreedomStudio/sifive_hifive1_revb_hello/freedom-metal/src/drivers/riscv_cpu.c:240
2001458e:	ee4ff0ef          	jal	ra,20013c72 <__metal_myhart_id>
20014592:	872a                	mv	a4,a0
20014594:	800017b7          	lui	a5,0x80001
20014598:	070a                	slli	a4,a4,0x2
2001459a:	aa078793          	addi	a5,a5,-1376 # 80000aa0 <metal_segment_heap_target_end+0xfffff320>
2001459e:	97ba                	add	a5,a5,a4
200145a0:	439c                	lw	a5,0(a5)
200145a2:	faf42623          	sw	a5,-84(s0)
200145a6:	fac42783          	lw	a5,-84(s0)
200145aa:	c78d                	beqz	a5,200145d4 <metal_lc5_interrupt_vector_handler+0x6c>
/home/nicoladgg/wsFreedomStudio/sifive_hifive1_revb_hello/freedom-metal/src/drivers/riscv_cpu.c:240 (discriminator 1)
200145ac:	fac42503          	lw	a0,-84(s0)
200145b0:	e44ff0ef          	jal	ra,20013bf4 <__metal_driver_cpu_interrupt_controller>
200145b4:	faa42423          	sw	a0,-88(s0)
200145b8:	fa842783          	lw	a5,-88(s0)
200145bc:	2907a783          	lw	a5,656(a5)
200145c0:	faf42223          	sw	a5,-92(s0)
200145c4:	fa842783          	lw	a5,-88(s0)
200145c8:	2887a783          	lw	a5,648(a5)
200145cc:	fa442583          	lw	a1,-92(s0)
200145d0:	4555                	li	a0,21
200145d2:	9782                	jalr	a5
/home/nicoladgg/wsFreedomStudio/sifive_hifive1_revb_hello/freedom-metal/src/drivers/riscv_cpu.c:241
200145d4:	0001                	nop
200145d6:	40f6                	lw	ra,92(sp)
200145d8:	42e6                	lw	t0,88(sp)
200145da:	4356                	lw	t1,84(sp)
200145dc:	43c6                	lw	t2,80(sp)
200145de:	4436                	lw	s0,76(sp)
200145e0:	4526                	lw	a0,72(sp)
200145e2:	4596                	lw	a1,68(sp)
200145e4:	4606                	lw	a2,64(sp)
200145e6:	56f2                	lw	a3,60(sp)
200145e8:	5762                	lw	a4,56(sp)
200145ea:	57d2                	lw	a5,52(sp)
200145ec:	5842                	lw	a6,48(sp)
200145ee:	58b2                	lw	a7,44(sp)
200145f0:	5e22                	lw	t3,40(sp)
200145f2:	5e92                	lw	t4,36(sp)
200145f4:	5f02                	lw	t5,32(sp)
200145f6:	4ff2                	lw	t6,28(sp)
200145f8:	6125                	addi	sp,sp,96
200145fa:	30200073          	mret

200145fe <metal_lc6_interrupt_vector_handler>:
metal_lc6_interrupt_vector_handler():
/home/nicoladgg/wsFreedomStudio/sifive_hifive1_revb_hello/freedom-metal/src/drivers/riscv_cpu.c:244
200145fe:	711d                	addi	sp,sp,-96
20014600:	ce86                	sw	ra,92(sp)
20014602:	cc96                	sw	t0,88(sp)
20014604:	ca9a                	sw	t1,84(sp)
20014606:	c89e                	sw	t2,80(sp)
20014608:	c6a2                	sw	s0,76(sp)
2001460a:	c4aa                	sw	a0,72(sp)
2001460c:	c2ae                	sw	a1,68(sp)
2001460e:	c0b2                	sw	a2,64(sp)
20014610:	de36                	sw	a3,60(sp)
20014612:	dc3a                	sw	a4,56(sp)
20014614:	da3e                	sw	a5,52(sp)
20014616:	d842                	sw	a6,48(sp)
20014618:	d646                	sw	a7,44(sp)
2001461a:	d472                	sw	t3,40(sp)
2001461c:	d276                	sw	t4,36(sp)
2001461e:	d07a                	sw	t5,32(sp)
20014620:	ce7e                	sw	t6,28(sp)
20014622:	1080                	addi	s0,sp,96
/home/nicoladgg/wsFreedomStudio/sifive_hifive1_revb_hello/freedom-metal/src/drivers/riscv_cpu.c:245
20014624:	e4eff0ef          	jal	ra,20013c72 <__metal_myhart_id>
20014628:	872a                	mv	a4,a0
2001462a:	800017b7          	lui	a5,0x80001
2001462e:	070a                	slli	a4,a4,0x2
20014630:	aa078793          	addi	a5,a5,-1376 # 80000aa0 <metal_segment_heap_target_end+0xfffff320>
20014634:	97ba                	add	a5,a5,a4
20014636:	439c                	lw	a5,0(a5)
20014638:	faf42623          	sw	a5,-84(s0)
2001463c:	fac42783          	lw	a5,-84(s0)
20014640:	c78d                	beqz	a5,2001466a <metal_lc6_interrupt_vector_handler+0x6c>
/home/nicoladgg/wsFreedomStudio/sifive_hifive1_revb_hello/freedom-metal/src/drivers/riscv_cpu.c:245 (discriminator 1)
20014642:	fac42503          	lw	a0,-84(s0)
20014646:	daeff0ef          	jal	ra,20013bf4 <__metal_driver_cpu_interrupt_controller>
2001464a:	faa42423          	sw	a0,-88(s0)
2001464e:	fa842783          	lw	a5,-88(s0)
20014652:	2a87a783          	lw	a5,680(a5)
20014656:	faf42223          	sw	a5,-92(s0)
2001465a:	fa842783          	lw	a5,-88(s0)
2001465e:	2a07a783          	lw	a5,672(a5)
20014662:	fa442583          	lw	a1,-92(s0)
20014666:	4559                	li	a0,22
20014668:	9782                	jalr	a5
/home/nicoladgg/wsFreedomStudio/sifive_hifive1_revb_hello/freedom-metal/src/drivers/riscv_cpu.c:246
2001466a:	0001                	nop
2001466c:	40f6                	lw	ra,92(sp)
2001466e:	42e6                	lw	t0,88(sp)
20014670:	4356                	lw	t1,84(sp)
20014672:	43c6                	lw	t2,80(sp)
20014674:	4436                	lw	s0,76(sp)
20014676:	4526                	lw	a0,72(sp)
20014678:	4596                	lw	a1,68(sp)
2001467a:	4606                	lw	a2,64(sp)
2001467c:	56f2                	lw	a3,60(sp)
2001467e:	5762                	lw	a4,56(sp)
20014680:	57d2                	lw	a5,52(sp)
20014682:	5842                	lw	a6,48(sp)
20014684:	58b2                	lw	a7,44(sp)
20014686:	5e22                	lw	t3,40(sp)
20014688:	5e92                	lw	t4,36(sp)
2001468a:	5f02                	lw	t5,32(sp)
2001468c:	4ff2                	lw	t6,28(sp)
2001468e:	6125                	addi	sp,sp,96
20014690:	30200073          	mret

20014694 <metal_lc7_interrupt_vector_handler>:
metal_lc7_interrupt_vector_handler():
/home/nicoladgg/wsFreedomStudio/sifive_hifive1_revb_hello/freedom-metal/src/drivers/riscv_cpu.c:249
20014694:	711d                	addi	sp,sp,-96
20014696:	ce86                	sw	ra,92(sp)
20014698:	cc96                	sw	t0,88(sp)
2001469a:	ca9a                	sw	t1,84(sp)
2001469c:	c89e                	sw	t2,80(sp)
2001469e:	c6a2                	sw	s0,76(sp)
200146a0:	c4aa                	sw	a0,72(sp)
200146a2:	c2ae                	sw	a1,68(sp)
200146a4:	c0b2                	sw	a2,64(sp)
200146a6:	de36                	sw	a3,60(sp)
200146a8:	dc3a                	sw	a4,56(sp)
200146aa:	da3e                	sw	a5,52(sp)
200146ac:	d842                	sw	a6,48(sp)
200146ae:	d646                	sw	a7,44(sp)
200146b0:	d472                	sw	t3,40(sp)
200146b2:	d276                	sw	t4,36(sp)
200146b4:	d07a                	sw	t5,32(sp)
200146b6:	ce7e                	sw	t6,28(sp)
200146b8:	1080                	addi	s0,sp,96
/home/nicoladgg/wsFreedomStudio/sifive_hifive1_revb_hello/freedom-metal/src/drivers/riscv_cpu.c:250
200146ba:	db8ff0ef          	jal	ra,20013c72 <__metal_myhart_id>
200146be:	872a                	mv	a4,a0
200146c0:	800017b7          	lui	a5,0x80001
200146c4:	070a                	slli	a4,a4,0x2
200146c6:	aa078793          	addi	a5,a5,-1376 # 80000aa0 <metal_segment_heap_target_end+0xfffff320>
200146ca:	97ba                	add	a5,a5,a4
200146cc:	439c                	lw	a5,0(a5)
200146ce:	faf42623          	sw	a5,-84(s0)
200146d2:	fac42783          	lw	a5,-84(s0)
200146d6:	c78d                	beqz	a5,20014700 <metal_lc7_interrupt_vector_handler+0x6c>
/home/nicoladgg/wsFreedomStudio/sifive_hifive1_revb_hello/freedom-metal/src/drivers/riscv_cpu.c:250 (discriminator 1)
200146d8:	fac42503          	lw	a0,-84(s0)
200146dc:	d18ff0ef          	jal	ra,20013bf4 <__metal_driver_cpu_interrupt_controller>
200146e0:	faa42423          	sw	a0,-88(s0)
200146e4:	fa842783          	lw	a5,-88(s0)
200146e8:	2c07a783          	lw	a5,704(a5)
200146ec:	faf42223          	sw	a5,-92(s0)
200146f0:	fa842783          	lw	a5,-88(s0)
200146f4:	2b87a783          	lw	a5,696(a5)
200146f8:	fa442583          	lw	a1,-92(s0)
200146fc:	455d                	li	a0,23
200146fe:	9782                	jalr	a5
/home/nicoladgg/wsFreedomStudio/sifive_hifive1_revb_hello/freedom-metal/src/drivers/riscv_cpu.c:251
20014700:	0001                	nop
20014702:	40f6                	lw	ra,92(sp)
20014704:	42e6                	lw	t0,88(sp)
20014706:	4356                	lw	t1,84(sp)
20014708:	43c6                	lw	t2,80(sp)
2001470a:	4436                	lw	s0,76(sp)
2001470c:	4526                	lw	a0,72(sp)
2001470e:	4596                	lw	a1,68(sp)
20014710:	4606                	lw	a2,64(sp)
20014712:	56f2                	lw	a3,60(sp)
20014714:	5762                	lw	a4,56(sp)
20014716:	57d2                	lw	a5,52(sp)
20014718:	5842                	lw	a6,48(sp)
2001471a:	58b2                	lw	a7,44(sp)
2001471c:	5e22                	lw	t3,40(sp)
2001471e:	5e92                	lw	t4,36(sp)
20014720:	5f02                	lw	t5,32(sp)
20014722:	4ff2                	lw	t6,28(sp)
20014724:	6125                	addi	sp,sp,96
20014726:	30200073          	mret

2001472a <metal_lc8_interrupt_vector_handler>:
metal_lc8_interrupt_vector_handler():
/home/nicoladgg/wsFreedomStudio/sifive_hifive1_revb_hello/freedom-metal/src/drivers/riscv_cpu.c:254
2001472a:	711d                	addi	sp,sp,-96
2001472c:	ce86                	sw	ra,92(sp)
2001472e:	cc96                	sw	t0,88(sp)
20014730:	ca9a                	sw	t1,84(sp)
20014732:	c89e                	sw	t2,80(sp)
20014734:	c6a2                	sw	s0,76(sp)
20014736:	c4aa                	sw	a0,72(sp)
20014738:	c2ae                	sw	a1,68(sp)
2001473a:	c0b2                	sw	a2,64(sp)
2001473c:	de36                	sw	a3,60(sp)
2001473e:	dc3a                	sw	a4,56(sp)
20014740:	da3e                	sw	a5,52(sp)
20014742:	d842                	sw	a6,48(sp)
20014744:	d646                	sw	a7,44(sp)
20014746:	d472                	sw	t3,40(sp)
20014748:	d276                	sw	t4,36(sp)
2001474a:	d07a                	sw	t5,32(sp)
2001474c:	ce7e                	sw	t6,28(sp)
2001474e:	1080                	addi	s0,sp,96
/home/nicoladgg/wsFreedomStudio/sifive_hifive1_revb_hello/freedom-metal/src/drivers/riscv_cpu.c:255
20014750:	d22ff0ef          	jal	ra,20013c72 <__metal_myhart_id>
20014754:	872a                	mv	a4,a0
20014756:	800017b7          	lui	a5,0x80001
2001475a:	070a                	slli	a4,a4,0x2
2001475c:	aa078793          	addi	a5,a5,-1376 # 80000aa0 <metal_segment_heap_target_end+0xfffff320>
20014760:	97ba                	add	a5,a5,a4
20014762:	439c                	lw	a5,0(a5)
20014764:	faf42623          	sw	a5,-84(s0)
20014768:	fac42783          	lw	a5,-84(s0)
2001476c:	c78d                	beqz	a5,20014796 <metal_lc8_interrupt_vector_handler+0x6c>
/home/nicoladgg/wsFreedomStudio/sifive_hifive1_revb_hello/freedom-metal/src/drivers/riscv_cpu.c:255 (discriminator 1)
2001476e:	fac42503          	lw	a0,-84(s0)
20014772:	c82ff0ef          	jal	ra,20013bf4 <__metal_driver_cpu_interrupt_controller>
20014776:	faa42423          	sw	a0,-88(s0)
2001477a:	fa842783          	lw	a5,-88(s0)
2001477e:	2d87a783          	lw	a5,728(a5)
20014782:	faf42223          	sw	a5,-92(s0)
20014786:	fa842783          	lw	a5,-88(s0)
2001478a:	2d07a783          	lw	a5,720(a5)
2001478e:	fa442583          	lw	a1,-92(s0)
20014792:	4561                	li	a0,24
20014794:	9782                	jalr	a5
/home/nicoladgg/wsFreedomStudio/sifive_hifive1_revb_hello/freedom-metal/src/drivers/riscv_cpu.c:256
20014796:	0001                	nop
20014798:	40f6                	lw	ra,92(sp)
2001479a:	42e6                	lw	t0,88(sp)
2001479c:	4356                	lw	t1,84(sp)
2001479e:	43c6                	lw	t2,80(sp)
200147a0:	4436                	lw	s0,76(sp)
200147a2:	4526                	lw	a0,72(sp)
200147a4:	4596                	lw	a1,68(sp)
200147a6:	4606                	lw	a2,64(sp)
200147a8:	56f2                	lw	a3,60(sp)
200147aa:	5762                	lw	a4,56(sp)
200147ac:	57d2                	lw	a5,52(sp)
200147ae:	5842                	lw	a6,48(sp)
200147b0:	58b2                	lw	a7,44(sp)
200147b2:	5e22                	lw	t3,40(sp)
200147b4:	5e92                	lw	t4,36(sp)
200147b6:	5f02                	lw	t5,32(sp)
200147b8:	4ff2                	lw	t6,28(sp)
200147ba:	6125                	addi	sp,sp,96
200147bc:	30200073          	mret

200147c0 <metal_lc9_interrupt_vector_handler>:
metal_lc9_interrupt_vector_handler():
/home/nicoladgg/wsFreedomStudio/sifive_hifive1_revb_hello/freedom-metal/src/drivers/riscv_cpu.c:259
200147c0:	711d                	addi	sp,sp,-96
200147c2:	ce86                	sw	ra,92(sp)
200147c4:	cc96                	sw	t0,88(sp)
200147c6:	ca9a                	sw	t1,84(sp)
200147c8:	c89e                	sw	t2,80(sp)
200147ca:	c6a2                	sw	s0,76(sp)
200147cc:	c4aa                	sw	a0,72(sp)
200147ce:	c2ae                	sw	a1,68(sp)
200147d0:	c0b2                	sw	a2,64(sp)
200147d2:	de36                	sw	a3,60(sp)
200147d4:	dc3a                	sw	a4,56(sp)
200147d6:	da3e                	sw	a5,52(sp)
200147d8:	d842                	sw	a6,48(sp)
200147da:	d646                	sw	a7,44(sp)
200147dc:	d472                	sw	t3,40(sp)
200147de:	d276                	sw	t4,36(sp)
200147e0:	d07a                	sw	t5,32(sp)
200147e2:	ce7e                	sw	t6,28(sp)
200147e4:	1080                	addi	s0,sp,96
/home/nicoladgg/wsFreedomStudio/sifive_hifive1_revb_hello/freedom-metal/src/drivers/riscv_cpu.c:260
200147e6:	c8cff0ef          	jal	ra,20013c72 <__metal_myhart_id>
200147ea:	872a                	mv	a4,a0
200147ec:	800017b7          	lui	a5,0x80001
200147f0:	070a                	slli	a4,a4,0x2
200147f2:	aa078793          	addi	a5,a5,-1376 # 80000aa0 <metal_segment_heap_target_end+0xfffff320>
200147f6:	97ba                	add	a5,a5,a4
200147f8:	439c                	lw	a5,0(a5)
200147fa:	faf42623          	sw	a5,-84(s0)
200147fe:	fac42783          	lw	a5,-84(s0)
20014802:	c78d                	beqz	a5,2001482c <metal_lc9_interrupt_vector_handler+0x6c>
/home/nicoladgg/wsFreedomStudio/sifive_hifive1_revb_hello/freedom-metal/src/drivers/riscv_cpu.c:260 (discriminator 1)
20014804:	fac42503          	lw	a0,-84(s0)
20014808:	becff0ef          	jal	ra,20013bf4 <__metal_driver_cpu_interrupt_controller>
2001480c:	faa42423          	sw	a0,-88(s0)
20014810:	fa842783          	lw	a5,-88(s0)
20014814:	2f07a783          	lw	a5,752(a5)
20014818:	faf42223          	sw	a5,-92(s0)
2001481c:	fa842783          	lw	a5,-88(s0)
20014820:	2e87a783          	lw	a5,744(a5)
20014824:	fa442583          	lw	a1,-92(s0)
20014828:	4565                	li	a0,25
2001482a:	9782                	jalr	a5
/home/nicoladgg/wsFreedomStudio/sifive_hifive1_revb_hello/freedom-metal/src/drivers/riscv_cpu.c:261
2001482c:	0001                	nop
2001482e:	40f6                	lw	ra,92(sp)
20014830:	42e6                	lw	t0,88(sp)
20014832:	4356                	lw	t1,84(sp)
20014834:	43c6                	lw	t2,80(sp)
20014836:	4436                	lw	s0,76(sp)
20014838:	4526                	lw	a0,72(sp)
2001483a:	4596                	lw	a1,68(sp)
2001483c:	4606                	lw	a2,64(sp)
2001483e:	56f2                	lw	a3,60(sp)
20014840:	5762                	lw	a4,56(sp)
20014842:	57d2                	lw	a5,52(sp)
20014844:	5842                	lw	a6,48(sp)
20014846:	58b2                	lw	a7,44(sp)
20014848:	5e22                	lw	t3,40(sp)
2001484a:	5e92                	lw	t4,36(sp)
2001484c:	5f02                	lw	t5,32(sp)
2001484e:	4ff2                	lw	t6,28(sp)
20014850:	6125                	addi	sp,sp,96
20014852:	30200073          	mret

20014856 <metal_lc10_interrupt_vector_handler>:
metal_lc10_interrupt_vector_handler():
/home/nicoladgg/wsFreedomStudio/sifive_hifive1_revb_hello/freedom-metal/src/drivers/riscv_cpu.c:265
20014856:	711d                	addi	sp,sp,-96
20014858:	ce86                	sw	ra,92(sp)
2001485a:	cc96                	sw	t0,88(sp)
2001485c:	ca9a                	sw	t1,84(sp)
2001485e:	c89e                	sw	t2,80(sp)
20014860:	c6a2                	sw	s0,76(sp)
20014862:	c4aa                	sw	a0,72(sp)
20014864:	c2ae                	sw	a1,68(sp)
20014866:	c0b2                	sw	a2,64(sp)
20014868:	de36                	sw	a3,60(sp)
2001486a:	dc3a                	sw	a4,56(sp)
2001486c:	da3e                	sw	a5,52(sp)
2001486e:	d842                	sw	a6,48(sp)
20014870:	d646                	sw	a7,44(sp)
20014872:	d472                	sw	t3,40(sp)
20014874:	d276                	sw	t4,36(sp)
20014876:	d07a                	sw	t5,32(sp)
20014878:	ce7e                	sw	t6,28(sp)
2001487a:	1080                	addi	s0,sp,96
/home/nicoladgg/wsFreedomStudio/sifive_hifive1_revb_hello/freedom-metal/src/drivers/riscv_cpu.c:266
2001487c:	bf6ff0ef          	jal	ra,20013c72 <__metal_myhart_id>
20014880:	872a                	mv	a4,a0
20014882:	800017b7          	lui	a5,0x80001
20014886:	070a                	slli	a4,a4,0x2
20014888:	aa078793          	addi	a5,a5,-1376 # 80000aa0 <metal_segment_heap_target_end+0xfffff320>
2001488c:	97ba                	add	a5,a5,a4
2001488e:	439c                	lw	a5,0(a5)
20014890:	faf42623          	sw	a5,-84(s0)
20014894:	fac42783          	lw	a5,-84(s0)
20014898:	c78d                	beqz	a5,200148c2 <metal_lc10_interrupt_vector_handler+0x6c>
/home/nicoladgg/wsFreedomStudio/sifive_hifive1_revb_hello/freedom-metal/src/drivers/riscv_cpu.c:266 (discriminator 1)
2001489a:	fac42503          	lw	a0,-84(s0)
2001489e:	b56ff0ef          	jal	ra,20013bf4 <__metal_driver_cpu_interrupt_controller>
200148a2:	faa42423          	sw	a0,-88(s0)
200148a6:	fa842783          	lw	a5,-88(s0)
200148aa:	3087a783          	lw	a5,776(a5)
200148ae:	faf42223          	sw	a5,-92(s0)
200148b2:	fa842783          	lw	a5,-88(s0)
200148b6:	3007a783          	lw	a5,768(a5)
200148ba:	fa442583          	lw	a1,-92(s0)
200148be:	4569                	li	a0,26
200148c0:	9782                	jalr	a5
/home/nicoladgg/wsFreedomStudio/sifive_hifive1_revb_hello/freedom-metal/src/drivers/riscv_cpu.c:267
200148c2:	0001                	nop
200148c4:	40f6                	lw	ra,92(sp)
200148c6:	42e6                	lw	t0,88(sp)
200148c8:	4356                	lw	t1,84(sp)
200148ca:	43c6                	lw	t2,80(sp)
200148cc:	4436                	lw	s0,76(sp)
200148ce:	4526                	lw	a0,72(sp)
200148d0:	4596                	lw	a1,68(sp)
200148d2:	4606                	lw	a2,64(sp)
200148d4:	56f2                	lw	a3,60(sp)
200148d6:	5762                	lw	a4,56(sp)
200148d8:	57d2                	lw	a5,52(sp)
200148da:	5842                	lw	a6,48(sp)
200148dc:	58b2                	lw	a7,44(sp)
200148de:	5e22                	lw	t3,40(sp)
200148e0:	5e92                	lw	t4,36(sp)
200148e2:	5f02                	lw	t5,32(sp)
200148e4:	4ff2                	lw	t6,28(sp)
200148e6:	6125                	addi	sp,sp,96
200148e8:	30200073          	mret

200148ec <metal_lc11_interrupt_vector_handler>:
metal_lc11_interrupt_vector_handler():
/home/nicoladgg/wsFreedomStudio/sifive_hifive1_revb_hello/freedom-metal/src/drivers/riscv_cpu.c:271
200148ec:	711d                	addi	sp,sp,-96
200148ee:	ce86                	sw	ra,92(sp)
200148f0:	cc96                	sw	t0,88(sp)
200148f2:	ca9a                	sw	t1,84(sp)
200148f4:	c89e                	sw	t2,80(sp)
200148f6:	c6a2                	sw	s0,76(sp)
200148f8:	c4aa                	sw	a0,72(sp)
200148fa:	c2ae                	sw	a1,68(sp)
200148fc:	c0b2                	sw	a2,64(sp)
200148fe:	de36                	sw	a3,60(sp)
20014900:	dc3a                	sw	a4,56(sp)
20014902:	da3e                	sw	a5,52(sp)
20014904:	d842                	sw	a6,48(sp)
20014906:	d646                	sw	a7,44(sp)
20014908:	d472                	sw	t3,40(sp)
2001490a:	d276                	sw	t4,36(sp)
2001490c:	d07a                	sw	t5,32(sp)
2001490e:	ce7e                	sw	t6,28(sp)
20014910:	1080                	addi	s0,sp,96
/home/nicoladgg/wsFreedomStudio/sifive_hifive1_revb_hello/freedom-metal/src/drivers/riscv_cpu.c:272
20014912:	b60ff0ef          	jal	ra,20013c72 <__metal_myhart_id>
20014916:	872a                	mv	a4,a0
20014918:	800017b7          	lui	a5,0x80001
2001491c:	070a                	slli	a4,a4,0x2
2001491e:	aa078793          	addi	a5,a5,-1376 # 80000aa0 <metal_segment_heap_target_end+0xfffff320>
20014922:	97ba                	add	a5,a5,a4
20014924:	439c                	lw	a5,0(a5)
20014926:	faf42623          	sw	a5,-84(s0)
2001492a:	fac42783          	lw	a5,-84(s0)
2001492e:	c78d                	beqz	a5,20014958 <metal_lc11_interrupt_vector_handler+0x6c>
/home/nicoladgg/wsFreedomStudio/sifive_hifive1_revb_hello/freedom-metal/src/drivers/riscv_cpu.c:272 (discriminator 1)
20014930:	fac42503          	lw	a0,-84(s0)
20014934:	ac0ff0ef          	jal	ra,20013bf4 <__metal_driver_cpu_interrupt_controller>
20014938:	faa42423          	sw	a0,-88(s0)
2001493c:	fa842783          	lw	a5,-88(s0)
20014940:	3207a783          	lw	a5,800(a5)
20014944:	faf42223          	sw	a5,-92(s0)
20014948:	fa842783          	lw	a5,-88(s0)
2001494c:	3187a783          	lw	a5,792(a5)
20014950:	fa442583          	lw	a1,-92(s0)
20014954:	456d                	li	a0,27
20014956:	9782                	jalr	a5
/home/nicoladgg/wsFreedomStudio/sifive_hifive1_revb_hello/freedom-metal/src/drivers/riscv_cpu.c:273
20014958:	0001                	nop
2001495a:	40f6                	lw	ra,92(sp)
2001495c:	42e6                	lw	t0,88(sp)
2001495e:	4356                	lw	t1,84(sp)
20014960:	43c6                	lw	t2,80(sp)
20014962:	4436                	lw	s0,76(sp)
20014964:	4526                	lw	a0,72(sp)
20014966:	4596                	lw	a1,68(sp)
20014968:	4606                	lw	a2,64(sp)
2001496a:	56f2                	lw	a3,60(sp)
2001496c:	5762                	lw	a4,56(sp)
2001496e:	57d2                	lw	a5,52(sp)
20014970:	5842                	lw	a6,48(sp)
20014972:	58b2                	lw	a7,44(sp)
20014974:	5e22                	lw	t3,40(sp)
20014976:	5e92                	lw	t4,36(sp)
20014978:	5f02                	lw	t5,32(sp)
2001497a:	4ff2                	lw	t6,28(sp)
2001497c:	6125                	addi	sp,sp,96
2001497e:	30200073          	mret

20014982 <metal_lc12_interrupt_vector_handler>:
metal_lc12_interrupt_vector_handler():
/home/nicoladgg/wsFreedomStudio/sifive_hifive1_revb_hello/freedom-metal/src/drivers/riscv_cpu.c:277
20014982:	711d                	addi	sp,sp,-96
20014984:	ce86                	sw	ra,92(sp)
20014986:	cc96                	sw	t0,88(sp)
20014988:	ca9a                	sw	t1,84(sp)
2001498a:	c89e                	sw	t2,80(sp)
2001498c:	c6a2                	sw	s0,76(sp)
2001498e:	c4aa                	sw	a0,72(sp)
20014990:	c2ae                	sw	a1,68(sp)
20014992:	c0b2                	sw	a2,64(sp)
20014994:	de36                	sw	a3,60(sp)
20014996:	dc3a                	sw	a4,56(sp)
20014998:	da3e                	sw	a5,52(sp)
2001499a:	d842                	sw	a6,48(sp)
2001499c:	d646                	sw	a7,44(sp)
2001499e:	d472                	sw	t3,40(sp)
200149a0:	d276                	sw	t4,36(sp)
200149a2:	d07a                	sw	t5,32(sp)
200149a4:	ce7e                	sw	t6,28(sp)
200149a6:	1080                	addi	s0,sp,96
/home/nicoladgg/wsFreedomStudio/sifive_hifive1_revb_hello/freedom-metal/src/drivers/riscv_cpu.c:278
200149a8:	acaff0ef          	jal	ra,20013c72 <__metal_myhart_id>
200149ac:	872a                	mv	a4,a0
200149ae:	800017b7          	lui	a5,0x80001
200149b2:	070a                	slli	a4,a4,0x2
200149b4:	aa078793          	addi	a5,a5,-1376 # 80000aa0 <metal_segment_heap_target_end+0xfffff320>
200149b8:	97ba                	add	a5,a5,a4
200149ba:	439c                	lw	a5,0(a5)
200149bc:	faf42623          	sw	a5,-84(s0)
200149c0:	fac42783          	lw	a5,-84(s0)
200149c4:	c78d                	beqz	a5,200149ee <metal_lc12_interrupt_vector_handler+0x6c>
/home/nicoladgg/wsFreedomStudio/sifive_hifive1_revb_hello/freedom-metal/src/drivers/riscv_cpu.c:278 (discriminator 1)
200149c6:	fac42503          	lw	a0,-84(s0)
200149ca:	a2aff0ef          	jal	ra,20013bf4 <__metal_driver_cpu_interrupt_controller>
200149ce:	faa42423          	sw	a0,-88(s0)
200149d2:	fa842783          	lw	a5,-88(s0)
200149d6:	3387a783          	lw	a5,824(a5)
200149da:	faf42223          	sw	a5,-92(s0)
200149de:	fa842783          	lw	a5,-88(s0)
200149e2:	3307a783          	lw	a5,816(a5)
200149e6:	fa442583          	lw	a1,-92(s0)
200149ea:	4571                	li	a0,28
200149ec:	9782                	jalr	a5
/home/nicoladgg/wsFreedomStudio/sifive_hifive1_revb_hello/freedom-metal/src/drivers/riscv_cpu.c:279
200149ee:	0001                	nop
200149f0:	40f6                	lw	ra,92(sp)
200149f2:	42e6                	lw	t0,88(sp)
200149f4:	4356                	lw	t1,84(sp)
200149f6:	43c6                	lw	t2,80(sp)
200149f8:	4436                	lw	s0,76(sp)
200149fa:	4526                	lw	a0,72(sp)
200149fc:	4596                	lw	a1,68(sp)
200149fe:	4606                	lw	a2,64(sp)
20014a00:	56f2                	lw	a3,60(sp)
20014a02:	5762                	lw	a4,56(sp)
20014a04:	57d2                	lw	a5,52(sp)
20014a06:	5842                	lw	a6,48(sp)
20014a08:	58b2                	lw	a7,44(sp)
20014a0a:	5e22                	lw	t3,40(sp)
20014a0c:	5e92                	lw	t4,36(sp)
20014a0e:	5f02                	lw	t5,32(sp)
20014a10:	4ff2                	lw	t6,28(sp)
20014a12:	6125                	addi	sp,sp,96
20014a14:	30200073          	mret

20014a18 <metal_lc13_interrupt_vector_handler>:
metal_lc13_interrupt_vector_handler():
/home/nicoladgg/wsFreedomStudio/sifive_hifive1_revb_hello/freedom-metal/src/drivers/riscv_cpu.c:283
20014a18:	711d                	addi	sp,sp,-96
20014a1a:	ce86                	sw	ra,92(sp)
20014a1c:	cc96                	sw	t0,88(sp)
20014a1e:	ca9a                	sw	t1,84(sp)
20014a20:	c89e                	sw	t2,80(sp)
20014a22:	c6a2                	sw	s0,76(sp)
20014a24:	c4aa                	sw	a0,72(sp)
20014a26:	c2ae                	sw	a1,68(sp)
20014a28:	c0b2                	sw	a2,64(sp)
20014a2a:	de36                	sw	a3,60(sp)
20014a2c:	dc3a                	sw	a4,56(sp)
20014a2e:	da3e                	sw	a5,52(sp)
20014a30:	d842                	sw	a6,48(sp)
20014a32:	d646                	sw	a7,44(sp)
20014a34:	d472                	sw	t3,40(sp)
20014a36:	d276                	sw	t4,36(sp)
20014a38:	d07a                	sw	t5,32(sp)
20014a3a:	ce7e                	sw	t6,28(sp)
20014a3c:	1080                	addi	s0,sp,96
/home/nicoladgg/wsFreedomStudio/sifive_hifive1_revb_hello/freedom-metal/src/drivers/riscv_cpu.c:284
20014a3e:	a34ff0ef          	jal	ra,20013c72 <__metal_myhart_id>
20014a42:	872a                	mv	a4,a0
20014a44:	800017b7          	lui	a5,0x80001
20014a48:	070a                	slli	a4,a4,0x2
20014a4a:	aa078793          	addi	a5,a5,-1376 # 80000aa0 <metal_segment_heap_target_end+0xfffff320>
20014a4e:	97ba                	add	a5,a5,a4
20014a50:	439c                	lw	a5,0(a5)
20014a52:	faf42623          	sw	a5,-84(s0)
20014a56:	fac42783          	lw	a5,-84(s0)
20014a5a:	c78d                	beqz	a5,20014a84 <metal_lc13_interrupt_vector_handler+0x6c>
/home/nicoladgg/wsFreedomStudio/sifive_hifive1_revb_hello/freedom-metal/src/drivers/riscv_cpu.c:284 (discriminator 1)
20014a5c:	fac42503          	lw	a0,-84(s0)
20014a60:	994ff0ef          	jal	ra,20013bf4 <__metal_driver_cpu_interrupt_controller>
20014a64:	faa42423          	sw	a0,-88(s0)
20014a68:	fa842783          	lw	a5,-88(s0)
20014a6c:	3507a783          	lw	a5,848(a5)
20014a70:	faf42223          	sw	a5,-92(s0)
20014a74:	fa842783          	lw	a5,-88(s0)
20014a78:	3487a783          	lw	a5,840(a5)
20014a7c:	fa442583          	lw	a1,-92(s0)
20014a80:	4575                	li	a0,29
20014a82:	9782                	jalr	a5
/home/nicoladgg/wsFreedomStudio/sifive_hifive1_revb_hello/freedom-metal/src/drivers/riscv_cpu.c:285
20014a84:	0001                	nop
20014a86:	40f6                	lw	ra,92(sp)
20014a88:	42e6                	lw	t0,88(sp)
20014a8a:	4356                	lw	t1,84(sp)
20014a8c:	43c6                	lw	t2,80(sp)
20014a8e:	4436                	lw	s0,76(sp)
20014a90:	4526                	lw	a0,72(sp)
20014a92:	4596                	lw	a1,68(sp)
20014a94:	4606                	lw	a2,64(sp)
20014a96:	56f2                	lw	a3,60(sp)
20014a98:	5762                	lw	a4,56(sp)
20014a9a:	57d2                	lw	a5,52(sp)
20014a9c:	5842                	lw	a6,48(sp)
20014a9e:	58b2                	lw	a7,44(sp)
20014aa0:	5e22                	lw	t3,40(sp)
20014aa2:	5e92                	lw	t4,36(sp)
20014aa4:	5f02                	lw	t5,32(sp)
20014aa6:	4ff2                	lw	t6,28(sp)
20014aa8:	6125                	addi	sp,sp,96
20014aaa:	30200073          	mret

20014aae <metal_lc14_interrupt_vector_handler>:
metal_lc14_interrupt_vector_handler():
/home/nicoladgg/wsFreedomStudio/sifive_hifive1_revb_hello/freedom-metal/src/drivers/riscv_cpu.c:289
20014aae:	711d                	addi	sp,sp,-96
20014ab0:	ce86                	sw	ra,92(sp)
20014ab2:	cc96                	sw	t0,88(sp)
20014ab4:	ca9a                	sw	t1,84(sp)
20014ab6:	c89e                	sw	t2,80(sp)
20014ab8:	c6a2                	sw	s0,76(sp)
20014aba:	c4aa                	sw	a0,72(sp)
20014abc:	c2ae                	sw	a1,68(sp)
20014abe:	c0b2                	sw	a2,64(sp)
20014ac0:	de36                	sw	a3,60(sp)
20014ac2:	dc3a                	sw	a4,56(sp)
20014ac4:	da3e                	sw	a5,52(sp)
20014ac6:	d842                	sw	a6,48(sp)
20014ac8:	d646                	sw	a7,44(sp)
20014aca:	d472                	sw	t3,40(sp)
20014acc:	d276                	sw	t4,36(sp)
20014ace:	d07a                	sw	t5,32(sp)
20014ad0:	ce7e                	sw	t6,28(sp)
20014ad2:	1080                	addi	s0,sp,96
/home/nicoladgg/wsFreedomStudio/sifive_hifive1_revb_hello/freedom-metal/src/drivers/riscv_cpu.c:290
20014ad4:	99eff0ef          	jal	ra,20013c72 <__metal_myhart_id>
20014ad8:	872a                	mv	a4,a0
20014ada:	800017b7          	lui	a5,0x80001
20014ade:	070a                	slli	a4,a4,0x2
20014ae0:	aa078793          	addi	a5,a5,-1376 # 80000aa0 <metal_segment_heap_target_end+0xfffff320>
20014ae4:	97ba                	add	a5,a5,a4
20014ae6:	439c                	lw	a5,0(a5)
20014ae8:	faf42623          	sw	a5,-84(s0)
20014aec:	fac42783          	lw	a5,-84(s0)
20014af0:	c78d                	beqz	a5,20014b1a <metal_lc14_interrupt_vector_handler+0x6c>
/home/nicoladgg/wsFreedomStudio/sifive_hifive1_revb_hello/freedom-metal/src/drivers/riscv_cpu.c:290 (discriminator 1)
20014af2:	fac42503          	lw	a0,-84(s0)
20014af6:	8feff0ef          	jal	ra,20013bf4 <__metal_driver_cpu_interrupt_controller>
20014afa:	faa42423          	sw	a0,-88(s0)
20014afe:	fa842783          	lw	a5,-88(s0)
20014b02:	3687a783          	lw	a5,872(a5)
20014b06:	faf42223          	sw	a5,-92(s0)
20014b0a:	fa842783          	lw	a5,-88(s0)
20014b0e:	3607a783          	lw	a5,864(a5)
20014b12:	fa442583          	lw	a1,-92(s0)
20014b16:	4579                	li	a0,30
20014b18:	9782                	jalr	a5
/home/nicoladgg/wsFreedomStudio/sifive_hifive1_revb_hello/freedom-metal/src/drivers/riscv_cpu.c:291
20014b1a:	0001                	nop
20014b1c:	40f6                	lw	ra,92(sp)
20014b1e:	42e6                	lw	t0,88(sp)
20014b20:	4356                	lw	t1,84(sp)
20014b22:	43c6                	lw	t2,80(sp)
20014b24:	4436                	lw	s0,76(sp)
20014b26:	4526                	lw	a0,72(sp)
20014b28:	4596                	lw	a1,68(sp)
20014b2a:	4606                	lw	a2,64(sp)
20014b2c:	56f2                	lw	a3,60(sp)
20014b2e:	5762                	lw	a4,56(sp)
20014b30:	57d2                	lw	a5,52(sp)
20014b32:	5842                	lw	a6,48(sp)
20014b34:	58b2                	lw	a7,44(sp)
20014b36:	5e22                	lw	t3,40(sp)
20014b38:	5e92                	lw	t4,36(sp)
20014b3a:	5f02                	lw	t5,32(sp)
20014b3c:	4ff2                	lw	t6,28(sp)
20014b3e:	6125                	addi	sp,sp,96
20014b40:	30200073          	mret

20014b44 <metal_lc15_interrupt_vector_handler>:
metal_lc15_interrupt_vector_handler():
/home/nicoladgg/wsFreedomStudio/sifive_hifive1_revb_hello/freedom-metal/src/drivers/riscv_cpu.c:295
20014b44:	711d                	addi	sp,sp,-96
20014b46:	ce86                	sw	ra,92(sp)
20014b48:	cc96                	sw	t0,88(sp)
20014b4a:	ca9a                	sw	t1,84(sp)
20014b4c:	c89e                	sw	t2,80(sp)
20014b4e:	c6a2                	sw	s0,76(sp)
20014b50:	c4aa                	sw	a0,72(sp)
20014b52:	c2ae                	sw	a1,68(sp)
20014b54:	c0b2                	sw	a2,64(sp)
20014b56:	de36                	sw	a3,60(sp)
20014b58:	dc3a                	sw	a4,56(sp)
20014b5a:	da3e                	sw	a5,52(sp)
20014b5c:	d842                	sw	a6,48(sp)
20014b5e:	d646                	sw	a7,44(sp)
20014b60:	d472                	sw	t3,40(sp)
20014b62:	d276                	sw	t4,36(sp)
20014b64:	d07a                	sw	t5,32(sp)
20014b66:	ce7e                	sw	t6,28(sp)
20014b68:	1080                	addi	s0,sp,96
/home/nicoladgg/wsFreedomStudio/sifive_hifive1_revb_hello/freedom-metal/src/drivers/riscv_cpu.c:296
20014b6a:	908ff0ef          	jal	ra,20013c72 <__metal_myhart_id>
20014b6e:	872a                	mv	a4,a0
20014b70:	800017b7          	lui	a5,0x80001
20014b74:	070a                	slli	a4,a4,0x2
20014b76:	aa078793          	addi	a5,a5,-1376 # 80000aa0 <metal_segment_heap_target_end+0xfffff320>
20014b7a:	97ba                	add	a5,a5,a4
20014b7c:	439c                	lw	a5,0(a5)
20014b7e:	faf42623          	sw	a5,-84(s0)
20014b82:	fac42783          	lw	a5,-84(s0)
20014b86:	c78d                	beqz	a5,20014bb0 <metal_lc15_interrupt_vector_handler+0x6c>
/home/nicoladgg/wsFreedomStudio/sifive_hifive1_revb_hello/freedom-metal/src/drivers/riscv_cpu.c:296 (discriminator 1)
20014b88:	fac42503          	lw	a0,-84(s0)
20014b8c:	868ff0ef          	jal	ra,20013bf4 <__metal_driver_cpu_interrupt_controller>
20014b90:	faa42423          	sw	a0,-88(s0)
20014b94:	fa842783          	lw	a5,-88(s0)
20014b98:	3807a783          	lw	a5,896(a5)
20014b9c:	faf42223          	sw	a5,-92(s0)
20014ba0:	fa842783          	lw	a5,-88(s0)
20014ba4:	3787a783          	lw	a5,888(a5)
20014ba8:	fa442583          	lw	a1,-92(s0)
20014bac:	457d                	li	a0,31
20014bae:	9782                	jalr	a5
/home/nicoladgg/wsFreedomStudio/sifive_hifive1_revb_hello/freedom-metal/src/drivers/riscv_cpu.c:297
20014bb0:	0001                	nop
20014bb2:	40f6                	lw	ra,92(sp)
20014bb4:	42e6                	lw	t0,88(sp)
20014bb6:	4356                	lw	t1,84(sp)
20014bb8:	43c6                	lw	t2,80(sp)
20014bba:	4436                	lw	s0,76(sp)
20014bbc:	4526                	lw	a0,72(sp)
20014bbe:	4596                	lw	a1,68(sp)
20014bc0:	4606                	lw	a2,64(sp)
20014bc2:	56f2                	lw	a3,60(sp)
20014bc4:	5762                	lw	a4,56(sp)
20014bc6:	57d2                	lw	a5,52(sp)
20014bc8:	5842                	lw	a6,48(sp)
20014bca:	58b2                	lw	a7,44(sp)
20014bcc:	5e22                	lw	t3,40(sp)
20014bce:	5e92                	lw	t4,36(sp)
20014bd0:	5f02                	lw	t5,32(sp)
20014bd2:	4ff2                	lw	t6,28(sp)
20014bd4:	6125                	addi	sp,sp,96
20014bd6:	30200073          	mret

20014bda <__metal_controller_interrupt_vector_mode>:
__metal_controller_interrupt_vector_mode():
/home/nicoladgg/wsFreedomStudio/sifive_hifive1_revb_hello/freedom-metal/src/drivers/riscv_cpu.c:299
20014bda:	1101                	addi	sp,sp,-32
20014bdc:	ce22                	sw	s0,28(sp)
20014bde:	1000                	addi	s0,sp,32
/home/nicoladgg/wsFreedomStudio/sifive_hifive1_revb_hello/freedom-metal/src/drivers/riscv_cpu.c:302
20014be0:	305027f3          	csrr	a5,mtvec
20014be4:	fef42623          	sw	a5,-20(s0)
/home/nicoladgg/wsFreedomStudio/sifive_hifive1_revb_hello/freedom-metal/src/drivers/riscv_cpu.c:303
20014be8:	fec42783          	lw	a5,-20(s0)
20014bec:	03f7f793          	andi	a5,a5,63
20014bf0:	fef42623          	sw	a5,-20(s0)
/home/nicoladgg/wsFreedomStudio/sifive_hifive1_revb_hello/freedom-metal/src/drivers/riscv_cpu.c:305
20014bf4:	fec42703          	lw	a4,-20(s0)
20014bf8:	478d                	li	a5,3
20014bfa:	02f70363          	beq	a4,a5,20014c20 <__metal_controller_interrupt_vector_mode+0x46>
20014bfe:	fec42703          	lw	a4,-20(s0)
20014c02:	478d                	li	a5,3
20014c04:	02e7e263          	bltu	a5,a4,20014c28 <__metal_controller_interrupt_vector_mode+0x4e>
20014c08:	fec42703          	lw	a4,-20(s0)
20014c0c:	4785                	li	a5,1
20014c0e:	00f70b63          	beq	a4,a5,20014c24 <__metal_controller_interrupt_vector_mode+0x4a>
20014c12:	fec42703          	lw	a4,-20(s0)
20014c16:	4789                	li	a5,2
20014c18:	00f71863          	bne	a4,a5,20014c28 <__metal_controller_interrupt_vector_mode+0x4e>
/home/nicoladgg/wsFreedomStudio/sifive_hifive1_revb_hello/freedom-metal/src/drivers/riscv_cpu.c:307
20014c1c:	478d                	li	a5,3
20014c1e:	a031                	j	20014c2a <__metal_controller_interrupt_vector_mode+0x50>
/home/nicoladgg/wsFreedomStudio/sifive_hifive1_revb_hello/freedom-metal/src/drivers/riscv_cpu.c:309
20014c20:	4791                	li	a5,4
20014c22:	a021                	j	20014c2a <__metal_controller_interrupt_vector_mode+0x50>
/home/nicoladgg/wsFreedomStudio/sifive_hifive1_revb_hello/freedom-metal/src/drivers/riscv_cpu.c:311
20014c24:	4785                	li	a5,1
20014c26:	a011                	j	20014c2a <__metal_controller_interrupt_vector_mode+0x50>
/home/nicoladgg/wsFreedomStudio/sifive_hifive1_revb_hello/freedom-metal/src/drivers/riscv_cpu.c:313
20014c28:	4781                	li	a5,0
/home/nicoladgg/wsFreedomStudio/sifive_hifive1_revb_hello/freedom-metal/src/drivers/riscv_cpu.c:314
20014c2a:	853e                	mv	a0,a5
20014c2c:	4472                	lw	s0,28(sp)
20014c2e:	6105                	addi	sp,sp,32
20014c30:	8082                	ret

20014c32 <__metal_controller_interrupt_vector>:
__metal_controller_interrupt_vector():
/home/nicoladgg/wsFreedomStudio/sifive_hifive1_revb_hello/freedom-metal/src/drivers/riscv_cpu.c:317
20014c32:	7179                	addi	sp,sp,-48
20014c34:	d622                	sw	s0,44(sp)
20014c36:	1800                	addi	s0,sp,48
20014c38:	fca42e23          	sw	a0,-36(s0)
20014c3c:	fcb42c23          	sw	a1,-40(s0)
/home/nicoladgg/wsFreedomStudio/sifive_hifive1_revb_hello/freedom-metal/src/drivers/riscv_cpu.c:320
20014c40:	305027f3          	csrr	a5,mtvec
20014c44:	fef42623          	sw	a5,-20(s0)
/home/nicoladgg/wsFreedomStudio/sifive_hifive1_revb_hello/freedom-metal/src/drivers/riscv_cpu.c:321
20014c48:	fec42783          	lw	a5,-20(s0)
20014c4c:	fc07f793          	andi	a5,a5,-64
20014c50:	fef42623          	sw	a5,-20(s0)
/home/nicoladgg/wsFreedomStudio/sifive_hifive1_revb_hello/freedom-metal/src/drivers/riscv_cpu.c:322
20014c54:	fd842783          	lw	a5,-40(s0)
20014c58:	fef42423          	sw	a5,-24(s0)
/home/nicoladgg/wsFreedomStudio/sifive_hifive1_revb_hello/freedom-metal/src/drivers/riscv_cpu.c:324
20014c5c:	fdc42703          	lw	a4,-36(s0)
20014c60:	4791                	li	a5,4
20014c62:	04f70563          	beq	a4,a5,20014cac <__metal_controller_interrupt_vector+0x7a>
20014c66:	fdc42703          	lw	a4,-36(s0)
20014c6a:	4791                	li	a5,4
20014c6c:	06e7e863          	bltu	a5,a4,20014cdc <__metal_controller_interrupt_vector+0xaa>
20014c70:	fdc42703          	lw	a4,-36(s0)
20014c74:	478d                	li	a5,3
20014c76:	06e7e363          	bltu	a5,a4,20014cdc <__metal_controller_interrupt_vector+0xaa>
20014c7a:	fdc42703          	lw	a4,-36(s0)
20014c7e:	4789                	li	a5,2
20014c80:	00f77b63          	bgeu	a4,a5,20014c96 <__metal_controller_interrupt_vector+0x64>
20014c84:	fdc42783          	lw	a5,-36(s0)
20014c88:	c7a1                	beqz	a5,20014cd0 <__metal_controller_interrupt_vector+0x9e>
20014c8a:	fdc42703          	lw	a4,-36(s0)
20014c8e:	4785                	li	a5,1
20014c90:	02f70963          	beq	a4,a5,20014cc2 <__metal_controller_interrupt_vector+0x90>
/home/nicoladgg/wsFreedomStudio/sifive_hifive1_revb_hello/freedom-metal/src/drivers/riscv_cpu.c:344
20014c94:	a0a1                	j	20014cdc <__metal_controller_interrupt_vector+0xaa>
/home/nicoladgg/wsFreedomStudio/sifive_hifive1_revb_hello/freedom-metal/src/drivers/riscv_cpu.c:327
20014c96:	fe842783          	lw	a5,-24(s0)
20014c9a:	30779073          	csrw	mtvt,a5
/home/nicoladgg/wsFreedomStudio/sifive_hifive1_revb_hello/freedom-metal/src/drivers/riscv_cpu.c:328
20014c9e:	fec42783          	lw	a5,-20(s0)
20014ca2:	0027e793          	ori	a5,a5,2
20014ca6:	30579073          	csrw	mtvec,a5
/home/nicoladgg/wsFreedomStudio/sifive_hifive1_revb_hello/freedom-metal/src/drivers/riscv_cpu.c:329
20014caa:	a80d                	j	20014cdc <__metal_controller_interrupt_vector+0xaa>
/home/nicoladgg/wsFreedomStudio/sifive_hifive1_revb_hello/freedom-metal/src/drivers/riscv_cpu.c:331
20014cac:	fe842783          	lw	a5,-24(s0)
20014cb0:	30779073          	csrw	mtvt,a5
/home/nicoladgg/wsFreedomStudio/sifive_hifive1_revb_hello/freedom-metal/src/drivers/riscv_cpu.c:333
20014cb4:	fec42783          	lw	a5,-20(s0)
20014cb8:	0037e793          	ori	a5,a5,3
/home/nicoladgg/wsFreedomStudio/sifive_hifive1_revb_hello/freedom-metal/src/drivers/riscv_cpu.c:332
20014cbc:	30579073          	csrw	mtvec,a5
/home/nicoladgg/wsFreedomStudio/sifive_hifive1_revb_hello/freedom-metal/src/drivers/riscv_cpu.c:334
20014cc0:	a831                	j	20014cdc <__metal_controller_interrupt_vector+0xaa>
/home/nicoladgg/wsFreedomStudio/sifive_hifive1_revb_hello/freedom-metal/src/drivers/riscv_cpu.c:337
20014cc2:	fe842783          	lw	a5,-24(s0)
20014cc6:	0017e793          	ori	a5,a5,1
/home/nicoladgg/wsFreedomStudio/sifive_hifive1_revb_hello/freedom-metal/src/drivers/riscv_cpu.c:336
20014cca:	30579073          	csrw	mtvec,a5
/home/nicoladgg/wsFreedomStudio/sifive_hifive1_revb_hello/freedom-metal/src/drivers/riscv_cpu.c:338
20014cce:	a039                	j	20014cdc <__metal_controller_interrupt_vector+0xaa>
/home/nicoladgg/wsFreedomStudio/sifive_hifive1_revb_hello/freedom-metal/src/drivers/riscv_cpu.c:341
20014cd0:	fe842783          	lw	a5,-24(s0)
20014cd4:	9bf1                	andi	a5,a5,-4
/home/nicoladgg/wsFreedomStudio/sifive_hifive1_revb_hello/freedom-metal/src/drivers/riscv_cpu.c:340
20014cd6:	30579073          	csrw	mtvec,a5
/home/nicoladgg/wsFreedomStudio/sifive_hifive1_revb_hello/freedom-metal/src/drivers/riscv_cpu.c:342
20014cda:	0001                	nop
/home/nicoladgg/wsFreedomStudio/sifive_hifive1_revb_hello/freedom-metal/src/drivers/riscv_cpu.c:344
20014cdc:	0001                	nop
20014cde:	5432                	lw	s0,44(sp)
20014ce0:	6145                	addi	sp,sp,48
20014ce2:	8082                	ret

20014ce4 <__metal_valid_interrupt_id>:
__metal_valid_interrupt_id():
/home/nicoladgg/wsFreedomStudio/sifive_hifive1_revb_hello/freedom-metal/src/drivers/riscv_cpu.c:346
20014ce4:	1101                	addi	sp,sp,-32
20014ce6:	ce22                	sw	s0,28(sp)
20014ce8:	1000                	addi	s0,sp,32
20014cea:	fea42623          	sw	a0,-20(s0)
/home/nicoladgg/wsFreedomStudio/sifive_hifive1_revb_hello/freedom-metal/src/drivers/riscv_cpu.c:347
20014cee:	fec42703          	lw	a4,-20(s0)
20014cf2:	47fd                	li	a5,31
20014cf4:	02e7c663          	blt	a5,a4,20014d20 <__metal_valid_interrupt_id+0x3c>
20014cf8:	fec42703          	lw	a4,-20(s0)
20014cfc:	478d                	li	a5,3
20014cfe:	02f74963          	blt	a4,a5,20014d30 <__metal_valid_interrupt_id+0x4c>
20014d02:	fec42783          	lw	a5,-20(s0)
20014d06:	4705                	li	a4,1
20014d08:	00f71733          	sll	a4,a4,a5
20014d0c:	77c5                	lui	a5,0xffff1
20014d0e:	88878793          	addi	a5,a5,-1912 # ffff0888 <metal_segment_heap_target_end+0x7ffef108>
20014d12:	8ff9                	and	a5,a5,a4
20014d14:	00f037b3          	snez	a5,a5
20014d18:	0ff7f793          	zext.b	a5,a5
20014d1c:	eb81                	bnez	a5,20014d2c <__metal_valid_interrupt_id+0x48>
/home/nicoladgg/wsFreedomStudio/sifive_hifive1_revb_hello/freedom-metal/src/drivers/riscv_cpu.c:370
20014d1e:	a809                	j	20014d30 <__metal_valid_interrupt_id+0x4c>
/home/nicoladgg/wsFreedomStudio/sifive_hifive1_revb_hello/freedom-metal/src/drivers/riscv_cpu.c:347
20014d20:	fec42703          	lw	a4,-20(s0)
20014d24:	08000793          	li	a5,128
20014d28:	00f71463          	bne	a4,a5,20014d30 <__metal_valid_interrupt_id+0x4c>
/home/nicoladgg/wsFreedomStudio/sifive_hifive1_revb_hello/freedom-metal/src/drivers/riscv_cpu.c:368
20014d2c:	4785                	li	a5,1
20014d2e:	a019                	j	20014d34 <__metal_valid_interrupt_id+0x50>
/home/nicoladgg/wsFreedomStudio/sifive_hifive1_revb_hello/freedom-metal/src/drivers/riscv_cpu.c:370
20014d30:	0001                	nop
/home/nicoladgg/wsFreedomStudio/sifive_hifive1_revb_hello/freedom-metal/src/drivers/riscv_cpu.c:373
20014d32:	4781                	li	a5,0
/home/nicoladgg/wsFreedomStudio/sifive_hifive1_revb_hello/freedom-metal/src/drivers/riscv_cpu.c:374
20014d34:	853e                	mv	a0,a5
20014d36:	4472                	lw	s0,28(sp)
20014d38:	6105                	addi	sp,sp,32
20014d3a:	8082                	ret

20014d3c <__metal_local_interrupt_enable>:
__metal_local_interrupt_enable():
/home/nicoladgg/wsFreedomStudio/sifive_hifive1_revb_hello/freedom-metal/src/drivers/riscv_cpu.c:377
20014d3c:	7179                	addi	sp,sp,-48
20014d3e:	d606                	sw	ra,44(sp)
20014d40:	d422                	sw	s0,40(sp)
20014d42:	1800                	addi	s0,sp,48
20014d44:	fca42e23          	sw	a0,-36(s0)
20014d48:	fcb42c23          	sw	a1,-40(s0)
20014d4c:	fcc42a23          	sw	a2,-44(s0)
/home/nicoladgg/wsFreedomStudio/sifive_hifive1_revb_hello/freedom-metal/src/drivers/riscv_cpu.c:378
20014d50:	fe042623          	sw	zero,-20(s0)
/home/nicoladgg/wsFreedomStudio/sifive_hifive1_revb_hello/freedom-metal/src/drivers/riscv_cpu.c:380
20014d54:	fdc42783          	lw	a5,-36(s0)
20014d58:	e399                	bnez	a5,20014d5e <__metal_local_interrupt_enable+0x22>
/home/nicoladgg/wsFreedomStudio/sifive_hifive1_revb_hello/freedom-metal/src/drivers/riscv_cpu.c:381
20014d5a:	57fd                	li	a5,-1
20014d5c:	a849                	j	20014dee <__metal_local_interrupt_enable+0xb2>
20014d5e:	fd842703          	lw	a4,-40(s0)
20014d62:	47fd                	li	a5,31
20014d64:	08e7e063          	bltu	a5,a4,20014de4 <__metal_local_interrupt_enable+0xa8>
20014d68:	fd842783          	lw	a5,-40(s0)
20014d6c:	00279713          	slli	a4,a5,0x2
20014d70:	200107b7          	lui	a5,0x20010
20014d74:	75078793          	addi	a5,a5,1872 # 20010750 <__metal_driver_vtable_riscv_clint0+0x64>
20014d78:	97ba                	add	a5,a5,a4
20014d7a:	439c                	lw	a5,0(a5)
20014d7c:	8782                	jr	a5
/home/nicoladgg/wsFreedomStudio/sifive_hifive1_revb_hello/freedom-metal/src/drivers/riscv_cpu.c:386
20014d7e:	fd442783          	lw	a5,-44(s0)
20014d82:	c781                	beqz	a5,20014d8a <__metal_local_interrupt_enable+0x4e>
/home/nicoladgg/wsFreedomStudio/sifive_hifive1_revb_hello/freedom-metal/src/drivers/riscv_cpu.c:387
20014d84:	f09fe0ef          	jal	ra,20013c8c <__metal_interrupt_global_enable>
/home/nicoladgg/wsFreedomStudio/sifive_hifive1_revb_hello/freedom-metal/src/drivers/riscv_cpu.c:391
20014d88:	a08d                	j	20014dea <__metal_local_interrupt_enable+0xae>
/home/nicoladgg/wsFreedomStudio/sifive_hifive1_revb_hello/freedom-metal/src/drivers/riscv_cpu.c:389
20014d8a:	f1bfe0ef          	jal	ra,20013ca4 <__metal_interrupt_global_disable>
/home/nicoladgg/wsFreedomStudio/sifive_hifive1_revb_hello/freedom-metal/src/drivers/riscv_cpu.c:391
20014d8e:	a8b1                	j	20014dea <__metal_local_interrupt_enable+0xae>
/home/nicoladgg/wsFreedomStudio/sifive_hifive1_revb_hello/freedom-metal/src/drivers/riscv_cpu.c:393
20014d90:	fd442783          	lw	a5,-44(s0)
20014d94:	c781                	beqz	a5,20014d9c <__metal_local_interrupt_enable+0x60>
/home/nicoladgg/wsFreedomStudio/sifive_hifive1_revb_hello/freedom-metal/src/drivers/riscv_cpu.c:394
20014d96:	f27fe0ef          	jal	ra,20013cbc <__metal_interrupt_software_enable>
/home/nicoladgg/wsFreedomStudio/sifive_hifive1_revb_hello/freedom-metal/src/drivers/riscv_cpu.c:398
20014d9a:	a881                	j	20014dea <__metal_local_interrupt_enable+0xae>
/home/nicoladgg/wsFreedomStudio/sifive_hifive1_revb_hello/freedom-metal/src/drivers/riscv_cpu.c:396
20014d9c:	f39fe0ef          	jal	ra,20013cd4 <__metal_interrupt_software_disable>
/home/nicoladgg/wsFreedomStudio/sifive_hifive1_revb_hello/freedom-metal/src/drivers/riscv_cpu.c:398
20014da0:	a0a9                	j	20014dea <__metal_local_interrupt_enable+0xae>
/home/nicoladgg/wsFreedomStudio/sifive_hifive1_revb_hello/freedom-metal/src/drivers/riscv_cpu.c:400
20014da2:	fd442783          	lw	a5,-44(s0)
20014da6:	c781                	beqz	a5,20014dae <__metal_local_interrupt_enable+0x72>
/home/nicoladgg/wsFreedomStudio/sifive_hifive1_revb_hello/freedom-metal/src/drivers/riscv_cpu.c:401
20014da8:	f45fe0ef          	jal	ra,20013cec <__metal_interrupt_timer_enable>
/home/nicoladgg/wsFreedomStudio/sifive_hifive1_revb_hello/freedom-metal/src/drivers/riscv_cpu.c:405
20014dac:	a83d                	j	20014dea <__metal_local_interrupt_enable+0xae>
/home/nicoladgg/wsFreedomStudio/sifive_hifive1_revb_hello/freedom-metal/src/drivers/riscv_cpu.c:403
20014dae:	f59fe0ef          	jal	ra,20013d06 <__metal_interrupt_timer_disable>
/home/nicoladgg/wsFreedomStudio/sifive_hifive1_revb_hello/freedom-metal/src/drivers/riscv_cpu.c:405
20014db2:	a825                	j	20014dea <__metal_local_interrupt_enable+0xae>
/home/nicoladgg/wsFreedomStudio/sifive_hifive1_revb_hello/freedom-metal/src/drivers/riscv_cpu.c:407
20014db4:	fd442783          	lw	a5,-44(s0)
20014db8:	c781                	beqz	a5,20014dc0 <__metal_local_interrupt_enable+0x84>
/home/nicoladgg/wsFreedomStudio/sifive_hifive1_revb_hello/freedom-metal/src/drivers/riscv_cpu.c:408
20014dba:	f67fe0ef          	jal	ra,20013d20 <__metal_interrupt_external_enable>
/home/nicoladgg/wsFreedomStudio/sifive_hifive1_revb_hello/freedom-metal/src/drivers/riscv_cpu.c:412
20014dbe:	a035                	j	20014dea <__metal_local_interrupt_enable+0xae>
/home/nicoladgg/wsFreedomStudio/sifive_hifive1_revb_hello/freedom-metal/src/drivers/riscv_cpu.c:410
20014dc0:	f7dfe0ef          	jal	ra,20013d3c <__metal_interrupt_external_disable>
/home/nicoladgg/wsFreedomStudio/sifive_hifive1_revb_hello/freedom-metal/src/drivers/riscv_cpu.c:412
20014dc4:	a01d                	j	20014dea <__metal_local_interrupt_enable+0xae>
/home/nicoladgg/wsFreedomStudio/sifive_hifive1_revb_hello/freedom-metal/src/drivers/riscv_cpu.c:429
20014dc6:	fd442783          	lw	a5,-44(s0)
20014dca:	c799                	beqz	a5,20014dd8 <__metal_local_interrupt_enable+0x9c>
/home/nicoladgg/wsFreedomStudio/sifive_hifive1_revb_hello/freedom-metal/src/drivers/riscv_cpu.c:430
20014dcc:	fd842783          	lw	a5,-40(s0)
20014dd0:	853e                	mv	a0,a5
20014dd2:	f87fe0ef          	jal	ra,20013d58 <__metal_interrupt_local_enable>
/home/nicoladgg/wsFreedomStudio/sifive_hifive1_revb_hello/freedom-metal/src/drivers/riscv_cpu.c:434
20014dd6:	a811                	j	20014dea <__metal_local_interrupt_enable+0xae>
/home/nicoladgg/wsFreedomStudio/sifive_hifive1_revb_hello/freedom-metal/src/drivers/riscv_cpu.c:432
20014dd8:	fd842783          	lw	a5,-40(s0)
20014ddc:	853e                	mv	a0,a5
20014dde:	fa7fe0ef          	jal	ra,20013d84 <__metal_interrupt_local_disable>
/home/nicoladgg/wsFreedomStudio/sifive_hifive1_revb_hello/freedom-metal/src/drivers/riscv_cpu.c:434
20014de2:	a021                	j	20014dea <__metal_local_interrupt_enable+0xae>
/home/nicoladgg/wsFreedomStudio/sifive_hifive1_revb_hello/freedom-metal/src/drivers/riscv_cpu.c:436
20014de4:	57fd                	li	a5,-1
20014de6:	fef42623          	sw	a5,-20(s0)
/home/nicoladgg/wsFreedomStudio/sifive_hifive1_revb_hello/freedom-metal/src/drivers/riscv_cpu.c:438
20014dea:	fec42783          	lw	a5,-20(s0)
/home/nicoladgg/wsFreedomStudio/sifive_hifive1_revb_hello/freedom-metal/src/drivers/riscv_cpu.c:439
20014dee:	853e                	mv	a0,a5
20014df0:	50b2                	lw	ra,44(sp)
20014df2:	5422                	lw	s0,40(sp)
20014df4:	6145                	addi	sp,sp,48
20014df6:	8082                	ret

20014df8 <__metal_exception_register>:
__metal_exception_register():
/home/nicoladgg/wsFreedomStudio/sifive_hifive1_revb_hello/freedom-metal/src/drivers/riscv_cpu.c:442
20014df8:	7179                	addi	sp,sp,-48
20014dfa:	d622                	sw	s0,44(sp)
20014dfc:	1800                	addi	s0,sp,48
20014dfe:	fca42e23          	sw	a0,-36(s0)
20014e02:	fcb42c23          	sw	a1,-40(s0)
20014e06:	fcc42a23          	sw	a2,-44(s0)
/home/nicoladgg/wsFreedomStudio/sifive_hifive1_revb_hello/freedom-metal/src/drivers/riscv_cpu.c:443
20014e0a:	fdc42783          	lw	a5,-36(s0)
20014e0e:	fef42623          	sw	a5,-20(s0)
/home/nicoladgg/wsFreedomStudio/sifive_hifive1_revb_hello/freedom-metal/src/drivers/riscv_cpu.c:445
20014e12:	fd842703          	lw	a4,-40(s0)
20014e16:	47ad                	li	a5,11
20014e18:	02e7c263          	blt	a5,a4,20014e3c <__metal_exception_register+0x44>
/home/nicoladgg/wsFreedomStudio/sifive_hifive1_revb_hello/freedom-metal/src/drivers/riscv_cpu.c:445 (discriminator 1)
20014e1c:	fd442783          	lw	a5,-44(s0)
20014e20:	cf91                	beqz	a5,20014e3c <__metal_exception_register+0x44>
/home/nicoladgg/wsFreedomStudio/sifive_hifive1_revb_hello/freedom-metal/src/drivers/riscv_cpu.c:446
20014e22:	fec42703          	lw	a4,-20(s0)
20014e26:	fd842783          	lw	a5,-40(s0)
20014e2a:	0e878793          	addi	a5,a5,232
20014e2e:	078a                	slli	a5,a5,0x2
20014e30:	97ba                	add	a5,a5,a4
20014e32:	fd442703          	lw	a4,-44(s0)
20014e36:	c398                	sw	a4,0(a5)
/home/nicoladgg/wsFreedomStudio/sifive_hifive1_revb_hello/freedom-metal/src/drivers/riscv_cpu.c:447
20014e38:	4781                	li	a5,0
20014e3a:	a011                	j	20014e3e <__metal_exception_register+0x46>
/home/nicoladgg/wsFreedomStudio/sifive_hifive1_revb_hello/freedom-metal/src/drivers/riscv_cpu.c:449
20014e3c:	57fd                	li	a5,-1
/home/nicoladgg/wsFreedomStudio/sifive_hifive1_revb_hello/freedom-metal/src/drivers/riscv_cpu.c:450
20014e3e:	853e                	mv	a0,a5
20014e40:	5432                	lw	s0,44(sp)
20014e42:	6145                	addi	sp,sp,48
20014e44:	8082                	ret

20014e46 <__metal_driver_riscv_cpu_controller_interrupt_init>:
__metal_driver_riscv_cpu_controller_interrupt_init():
/home/nicoladgg/wsFreedomStudio/sifive_hifive1_revb_hello/freedom-metal/src/drivers/riscv_cpu.c:454
20014e46:	7179                	addi	sp,sp,-48
20014e48:	d606                	sw	ra,44(sp)
20014e4a:	d422                	sw	s0,40(sp)
20014e4c:	1800                	addi	s0,sp,48
20014e4e:	fca42e23          	sw	a0,-36(s0)
/home/nicoladgg/wsFreedomStudio/sifive_hifive1_revb_hello/freedom-metal/src/drivers/riscv_cpu.c:455
20014e52:	fdc42783          	lw	a5,-36(s0)
20014e56:	fef42223          	sw	a5,-28(s0)
/home/nicoladgg/wsFreedomStudio/sifive_hifive1_revb_hello/freedom-metal/src/drivers/riscv_cpu.c:457
20014e5a:	fe442783          	lw	a5,-28(s0)
20014e5e:	43dc                	lw	a5,4(a5)
20014e60:	efdd                	bnez	a5,20014f1e <__metal_driver_riscv_cpu_controller_interrupt_init+0xd8>
/home/nicoladgg/wsFreedomStudio/sifive_hifive1_revb_hello/freedom-metal/src/drivers/riscv_cpu.c:459
20014e62:	fe042623          	sw	zero,-20(s0)
20014e66:	a0b9                	j	20014eb4 <__metal_driver_riscv_cpu_controller_interrupt_init+0x6e>
/home/nicoladgg/wsFreedomStudio/sifive_hifive1_revb_hello/freedom-metal/src/drivers/riscv_cpu.c:460 (discriminator 3)
20014e68:	fe442683          	lw	a3,-28(s0)
20014e6c:	fec42703          	lw	a4,-20(s0)
20014e70:	87ba                	mv	a5,a4
20014e72:	0786                	slli	a5,a5,0x1
20014e74:	97ba                	add	a5,a5,a4
20014e76:	078e                	slli	a5,a5,0x3
20014e78:	97b6                	add	a5,a5,a3
20014e7a:	0807a823          	sw	zero,144(a5)
/home/nicoladgg/wsFreedomStudio/sifive_hifive1_revb_hello/freedom-metal/src/drivers/riscv_cpu.c:461 (discriminator 3)
20014e7e:	fe442683          	lw	a3,-28(s0)
20014e82:	fec42703          	lw	a4,-20(s0)
20014e86:	87ba                	mv	a5,a4
20014e88:	0786                	slli	a5,a5,0x1
20014e8a:	97ba                	add	a5,a5,a4
20014e8c:	078e                	slli	a5,a5,0x3
20014e8e:	97b6                	add	a5,a5,a3
20014e90:	0807aa23          	sw	zero,148(a5)
/home/nicoladgg/wsFreedomStudio/sifive_hifive1_revb_hello/freedom-metal/src/drivers/riscv_cpu.c:462 (discriminator 3)
20014e94:	fe442683          	lw	a3,-28(s0)
20014e98:	fec42703          	lw	a4,-20(s0)
20014e9c:	87ba                	mv	a5,a4
20014e9e:	0786                	slli	a5,a5,0x1
20014ea0:	97ba                	add	a5,a5,a4
20014ea2:	078e                	slli	a5,a5,0x3
20014ea4:	97b6                	add	a5,a5,a3
20014ea6:	0807ac23          	sw	zero,152(a5)
/home/nicoladgg/wsFreedomStudio/sifive_hifive1_revb_hello/freedom-metal/src/drivers/riscv_cpu.c:459 (discriminator 3)
20014eaa:	fec42783          	lw	a5,-20(s0)
20014eae:	0785                	addi	a5,a5,1
20014eb0:	fef42623          	sw	a5,-20(s0)
/home/nicoladgg/wsFreedomStudio/sifive_hifive1_revb_hello/freedom-metal/src/drivers/riscv_cpu.c:459 (discriminator 1)
20014eb4:	fec42703          	lw	a4,-20(s0)
20014eb8:	47fd                	li	a5,31
20014eba:	fae7d7e3          	bge	a5,a4,20014e68 <__metal_driver_riscv_cpu_controller_interrupt_init+0x22>
/home/nicoladgg/wsFreedomStudio/sifive_hifive1_revb_hello/freedom-metal/src/drivers/riscv_cpu.c:465
20014ebe:	fe042423          	sw	zero,-24(s0)
20014ec2:	a01d                	j	20014ee8 <__metal_driver_riscv_cpu_controller_interrupt_init+0xa2>
/home/nicoladgg/wsFreedomStudio/sifive_hifive1_revb_hello/freedom-metal/src/drivers/riscv_cpu.c:466 (discriminator 3)
20014ec4:	fe442703          	lw	a4,-28(s0)
20014ec8:	fe842783          	lw	a5,-24(s0)
20014ecc:	0e878793          	addi	a5,a5,232
20014ed0:	078a                	slli	a5,a5,0x2
20014ed2:	97ba                	add	a5,a5,a4
20014ed4:	20014737          	lui	a4,0x20014
20014ed8:	db070713          	addi	a4,a4,-592 # 20013db0 <__metal_default_exception_handler>
20014edc:	c398                	sw	a4,0(a5)
/home/nicoladgg/wsFreedomStudio/sifive_hifive1_revb_hello/freedom-metal/src/drivers/riscv_cpu.c:465 (discriminator 3)
20014ede:	fe842783          	lw	a5,-24(s0)
20014ee2:	0785                	addi	a5,a5,1
20014ee4:	fef42423          	sw	a5,-24(s0)
/home/nicoladgg/wsFreedomStudio/sifive_hifive1_revb_hello/freedom-metal/src/drivers/riscv_cpu.c:465 (discriminator 1)
20014ee8:	fe842703          	lw	a4,-24(s0)
20014eec:	47ad                	li	a5,11
20014eee:	fce7dbe3          	bge	a5,a4,20014ec4 <__metal_driver_riscv_cpu_controller_interrupt_init+0x7e>
/home/nicoladgg/wsFreedomStudio/sifive_hifive1_revb_hello/freedom-metal/src/drivers/riscv_cpu.c:475
20014ef2:	305027f3          	csrr	a5,mtvec
20014ef6:	fef42023          	sw	a5,-32(s0)
/home/nicoladgg/wsFreedomStudio/sifive_hifive1_revb_hello/freedom-metal/src/drivers/riscv_cpu.c:476
20014efa:	200107b7          	lui	a5,0x20010
20014efe:	13478793          	addi	a5,a5,308 # 20010134 <early_trap_vector>
20014f02:	fe042703          	lw	a4,-32(s0)
20014f06:	00f71863          	bne	a4,a5,20014f16 <__metal_driver_riscv_cpu_controller_interrupt_init+0xd0>
/home/nicoladgg/wsFreedomStudio/sifive_hifive1_revb_hello/freedom-metal/src/drivers/riscv_cpu.c:477
20014f0a:	200147b7          	lui	a5,0x20014
20014f0e:	08078593          	addi	a1,a5,128 # 20014080 <__metal_exception_handler>
20014f12:	4501                	li	a0,0
20014f14:	3b39                	jal	20014c32 <__metal_controller_interrupt_vector>
/home/nicoladgg/wsFreedomStudio/sifive_hifive1_revb_hello/freedom-metal/src/drivers/riscv_cpu.c:481
20014f16:	fe442783          	lw	a5,-28(s0)
20014f1a:	4705                	li	a4,1
20014f1c:	c3d8                	sw	a4,4(a5)
/home/nicoladgg/wsFreedomStudio/sifive_hifive1_revb_hello/freedom-metal/src/drivers/riscv_cpu.c:483
20014f1e:	0001                	nop
20014f20:	50b2                	lw	ra,44(sp)
20014f22:	5422                	lw	s0,40(sp)
20014f24:	6145                	addi	sp,sp,48
20014f26:	8082                	ret

20014f28 <__metal_driver_riscv_cpu_controller_interrupt_register>:
__metal_driver_riscv_cpu_controller_interrupt_register():
/home/nicoladgg/wsFreedomStudio/sifive_hifive1_revb_hello/freedom-metal/src/drivers/riscv_cpu.c:487
20014f28:	7179                	addi	sp,sp,-48
20014f2a:	d606                	sw	ra,44(sp)
20014f2c:	d422                	sw	s0,40(sp)
20014f2e:	1800                	addi	s0,sp,48
20014f30:	fca42e23          	sw	a0,-36(s0)
20014f34:	fcb42c23          	sw	a1,-40(s0)
20014f38:	fcc42a23          	sw	a2,-44(s0)
20014f3c:	fcd42823          	sw	a3,-48(s0)
/home/nicoladgg/wsFreedomStudio/sifive_hifive1_revb_hello/freedom-metal/src/drivers/riscv_cpu.c:488
20014f40:	fe042623          	sw	zero,-20(s0)
/home/nicoladgg/wsFreedomStudio/sifive_hifive1_revb_hello/freedom-metal/src/drivers/riscv_cpu.c:489
20014f44:	fdc42783          	lw	a5,-36(s0)
20014f48:	fef42423          	sw	a5,-24(s0)
/home/nicoladgg/wsFreedomStudio/sifive_hifive1_revb_hello/freedom-metal/src/drivers/riscv_cpu.c:491
20014f4c:	fd842503          	lw	a0,-40(s0)
20014f50:	3b51                	jal	20014ce4 <__metal_valid_interrupt_id>
20014f52:	87aa                	mv	a5,a0
20014f54:	e399                	bnez	a5,20014f5a <__metal_driver_riscv_cpu_controller_interrupt_register+0x32>
/home/nicoladgg/wsFreedomStudio/sifive_hifive1_revb_hello/freedom-metal/src/drivers/riscv_cpu.c:492
20014f56:	57d5                	li	a5,-11
20014f58:	a265                	j	20015100 <__metal_driver_riscv_cpu_controller_interrupt_register+0x1d8>
/home/nicoladgg/wsFreedomStudio/sifive_hifive1_revb_hello/freedom-metal/src/drivers/riscv_cpu.c:494
20014f5a:	fd842703          	lw	a4,-40(s0)
20014f5e:	08000793          	li	a5,128
20014f62:	00f71863          	bne	a4,a5,20014f72 <__metal_driver_riscv_cpu_controller_interrupt_register+0x4a>
/home/nicoladgg/wsFreedomStudio/sifive_hifive1_revb_hello/freedom-metal/src/drivers/riscv_cpu.c:495 (discriminator 1)
20014f66:	c75ff0ef          	jal	ra,20014bda <__metal_controller_interrupt_vector_mode>
20014f6a:	87aa                	mv	a5,a0
/home/nicoladgg/wsFreedomStudio/sifive_hifive1_revb_hello/freedom-metal/src/drivers/riscv_cpu.c:494 (discriminator 1)
20014f6c:	c399                	beqz	a5,20014f72 <__metal_driver_riscv_cpu_controller_interrupt_register+0x4a>
/home/nicoladgg/wsFreedomStudio/sifive_hifive1_revb_hello/freedom-metal/src/drivers/riscv_cpu.c:498
20014f6e:	57cd                	li	a5,-13
20014f70:	aa41                	j	20015100 <__metal_driver_riscv_cpu_controller_interrupt_register+0x1d8>
/home/nicoladgg/wsFreedomStudio/sifive_hifive1_revb_hello/freedom-metal/src/drivers/riscv_cpu.c:501
20014f72:	fd442783          	lw	a5,-44(s0)
20014f76:	cfb9                	beqz	a5,20014fd4 <__metal_driver_riscv_cpu_controller_interrupt_register+0xac>
/home/nicoladgg/wsFreedomStudio/sifive_hifive1_revb_hello/freedom-metal/src/drivers/riscv_cpu.c:502
20014f78:	fd842703          	lw	a4,-40(s0)
20014f7c:	08000793          	li	a5,128
20014f80:	00f71f63          	bne	a4,a5,20014f9e <__metal_driver_riscv_cpu_controller_interrupt_register+0x76>
/home/nicoladgg/wsFreedomStudio/sifive_hifive1_revb_hello/freedom-metal/src/drivers/riscv_cpu.c:503
20014f84:	fe842783          	lw	a5,-24(s0)
20014f88:	fd442703          	lw	a4,-44(s0)
20014f8c:	38e7a823          	sw	a4,912(a5)
/home/nicoladgg/wsFreedomStudio/sifive_hifive1_revb_hello/freedom-metal/src/drivers/riscv_cpu.c:504
20014f90:	fe842783          	lw	a5,-24(s0)
20014f94:	fd042703          	lw	a4,-48(s0)
20014f98:	38e7ac23          	sw	a4,920(a5)
20014f9c:	a285                	j	200150fc <__metal_driver_riscv_cpu_controller_interrupt_register+0x1d4>
/home/nicoladgg/wsFreedomStudio/sifive_hifive1_revb_hello/freedom-metal/src/drivers/riscv_cpu.c:506
20014f9e:	fe842683          	lw	a3,-24(s0)
20014fa2:	fd842703          	lw	a4,-40(s0)
20014fa6:	87ba                	mv	a5,a4
20014fa8:	0786                	slli	a5,a5,0x1
20014faa:	97ba                	add	a5,a5,a4
20014fac:	078e                	slli	a5,a5,0x3
20014fae:	97b6                	add	a5,a5,a3
20014fb0:	fd442703          	lw	a4,-44(s0)
20014fb4:	08e7a823          	sw	a4,144(a5)
/home/nicoladgg/wsFreedomStudio/sifive_hifive1_revb_hello/freedom-metal/src/drivers/riscv_cpu.c:507
20014fb8:	fe842683          	lw	a3,-24(s0)
20014fbc:	fd842703          	lw	a4,-40(s0)
20014fc0:	87ba                	mv	a5,a4
20014fc2:	0786                	slli	a5,a5,0x1
20014fc4:	97ba                	add	a5,a5,a4
20014fc6:	078e                	slli	a5,a5,0x3
20014fc8:	97b6                	add	a5,a5,a3
20014fca:	fd042703          	lw	a4,-48(s0)
20014fce:	08e7ac23          	sw	a4,152(a5)
20014fd2:	a22d                	j	200150fc <__metal_driver_riscv_cpu_controller_interrupt_register+0x1d4>
/home/nicoladgg/wsFreedomStudio/sifive_hifive1_revb_hello/freedom-metal/src/drivers/riscv_cpu.c:510
20014fd4:	fd842703          	lw	a4,-40(s0)
20014fd8:	08000793          	li	a5,128
20014fdc:	0cf70163          	beq	a4,a5,2001509e <__metal_driver_riscv_cpu_controller_interrupt_register+0x176>
20014fe0:	fd842703          	lw	a4,-40(s0)
20014fe4:	08000793          	li	a5,128
20014fe8:	10e7c763          	blt	a5,a4,200150f6 <__metal_driver_riscv_cpu_controller_interrupt_register+0x1ce>
20014fec:	fd842703          	lw	a4,-40(s0)
20014ff0:	47fd                	li	a5,31
20014ff2:	10e7c263          	blt	a5,a4,200150f6 <__metal_driver_riscv_cpu_controller_interrupt_register+0x1ce>
20014ff6:	fd842703          	lw	a4,-40(s0)
20014ffa:	47c1                	li	a5,16
20014ffc:	0cf75063          	bge	a4,a5,200150bc <__metal_driver_riscv_cpu_controller_interrupt_register+0x194>
20015000:	fd842703          	lw	a4,-40(s0)
20015004:	47ad                	li	a5,11
20015006:	0af70b63          	beq	a4,a5,200150bc <__metal_driver_riscv_cpu_controller_interrupt_register+0x194>
2001500a:	fd842703          	lw	a4,-40(s0)
2001500e:	47ad                	li	a5,11
20015010:	0ee7c363          	blt	a5,a4,200150f6 <__metal_driver_riscv_cpu_controller_interrupt_register+0x1ce>
20015014:	fd842703          	lw	a4,-40(s0)
20015018:	478d                	li	a5,3
2001501a:	00f70863          	beq	a4,a5,2001502a <__metal_driver_riscv_cpu_controller_interrupt_register+0x102>
2001501e:	fd842703          	lw	a4,-40(s0)
20015022:	479d                	li	a5,7
20015024:	04f70063          	beq	a4,a5,20015064 <__metal_driver_riscv_cpu_controller_interrupt_register+0x13c>
20015028:	a0f9                	j	200150f6 <__metal_driver_riscv_cpu_controller_interrupt_register+0x1ce>
/home/nicoladgg/wsFreedomStudio/sifive_hifive1_revb_hello/freedom-metal/src/drivers/riscv_cpu.c:512
2001502a:	fe842683          	lw	a3,-24(s0)
2001502e:	fd842703          	lw	a4,-40(s0)
20015032:	87ba                	mv	a5,a4
20015034:	0786                	slli	a5,a5,0x1
20015036:	97ba                	add	a5,a5,a4
20015038:	078e                	slli	a5,a5,0x3
2001503a:	97b6                	add	a5,a5,a3
2001503c:	20014737          	lui	a4,0x20014
20015040:	ea070713          	addi	a4,a4,-352 # 20013ea0 <__metal_default_sw_handler>
20015044:	08e7a823          	sw	a4,144(a5)
/home/nicoladgg/wsFreedomStudio/sifive_hifive1_revb_hello/freedom-metal/src/drivers/riscv_cpu.c:513
20015048:	fe842683          	lw	a3,-24(s0)
2001504c:	fd842703          	lw	a4,-40(s0)
20015050:	87ba                	mv	a5,a4
20015052:	0786                	slli	a5,a5,0x1
20015054:	97ba                	add	a5,a5,a4
20015056:	078e                	slli	a5,a5,0x3
20015058:	97b6                	add	a5,a5,a3
2001505a:	fd042703          	lw	a4,-48(s0)
2001505e:	08e7aa23          	sw	a4,148(a5)
/home/nicoladgg/wsFreedomStudio/sifive_hifive1_revb_hello/freedom-metal/src/drivers/riscv_cpu.c:514
20015062:	a869                	j	200150fc <__metal_driver_riscv_cpu_controller_interrupt_register+0x1d4>
/home/nicoladgg/wsFreedomStudio/sifive_hifive1_revb_hello/freedom-metal/src/drivers/riscv_cpu.c:516
20015064:	fe842683          	lw	a3,-24(s0)
20015068:	fd842703          	lw	a4,-40(s0)
2001506c:	87ba                	mv	a5,a4
2001506e:	0786                	slli	a5,a5,0x1
20015070:	97ba                	add	a5,a5,a4
20015072:	078e                	slli	a5,a5,0x3
20015074:	97b6                	add	a5,a5,a3
20015076:	20014737          	lui	a4,0x20014
2001507a:	fb070713          	addi	a4,a4,-80 # 20013fb0 <__metal_default_timer_handler>
2001507e:	08e7a823          	sw	a4,144(a5)
/home/nicoladgg/wsFreedomStudio/sifive_hifive1_revb_hello/freedom-metal/src/drivers/riscv_cpu.c:517
20015082:	fe842683          	lw	a3,-24(s0)
20015086:	fd842703          	lw	a4,-40(s0)
2001508a:	87ba                	mv	a5,a4
2001508c:	0786                	slli	a5,a5,0x1
2001508e:	97ba                	add	a5,a5,a4
20015090:	078e                	slli	a5,a5,0x3
20015092:	97b6                	add	a5,a5,a3
20015094:	fd042703          	lw	a4,-48(s0)
20015098:	08e7aa23          	sw	a4,148(a5)
/home/nicoladgg/wsFreedomStudio/sifive_hifive1_revb_hello/freedom-metal/src/drivers/riscv_cpu.c:518
2001509c:	a085                	j	200150fc <__metal_driver_riscv_cpu_controller_interrupt_register+0x1d4>
/home/nicoladgg/wsFreedomStudio/sifive_hifive1_revb_hello/freedom-metal/src/drivers/riscv_cpu.c:520
2001509e:	fe842783          	lw	a5,-24(s0)
200150a2:	20014737          	lui	a4,0x20014
200150a6:	f9a70713          	addi	a4,a4,-102 # 20013f9a <__metal_default_beu_handler>
200150aa:	38e7a823          	sw	a4,912(a5)
/home/nicoladgg/wsFreedomStudio/sifive_hifive1_revb_hello/freedom-metal/src/drivers/riscv_cpu.c:521
200150ae:	fe842783          	lw	a5,-24(s0)
200150b2:	fd042703          	lw	a4,-48(s0)
200150b6:	38e7ac23          	sw	a4,920(a5)
/home/nicoladgg/wsFreedomStudio/sifive_hifive1_revb_hello/freedom-metal/src/drivers/riscv_cpu.c:522
200150ba:	a089                	j	200150fc <__metal_driver_riscv_cpu_controller_interrupt_register+0x1d4>
/home/nicoladgg/wsFreedomStudio/sifive_hifive1_revb_hello/freedom-metal/src/drivers/riscv_cpu.c:540
200150bc:	fe842683          	lw	a3,-24(s0)
200150c0:	fd842703          	lw	a4,-40(s0)
200150c4:	87ba                	mv	a5,a4
200150c6:	0786                	slli	a5,a5,0x1
200150c8:	97ba                	add	a5,a5,a4
200150ca:	078e                	slli	a5,a5,0x3
200150cc:	97b6                	add	a5,a5,a3
200150ce:	20014737          	lui	a4,0x20014
200150d2:	dc870713          	addi	a4,a4,-568 # 20013dc8 <__metal_default_interrupt_handler>
200150d6:	08e7a823          	sw	a4,144(a5)
/home/nicoladgg/wsFreedomStudio/sifive_hifive1_revb_hello/freedom-metal/src/drivers/riscv_cpu.c:542
200150da:	fe842683          	lw	a3,-24(s0)
200150de:	fd842703          	lw	a4,-40(s0)
200150e2:	87ba                	mv	a5,a4
200150e4:	0786                	slli	a5,a5,0x1
200150e6:	97ba                	add	a5,a5,a4
200150e8:	078e                	slli	a5,a5,0x3
200150ea:	97b6                	add	a5,a5,a3
200150ec:	fd042703          	lw	a4,-48(s0)
200150f0:	08e7aa23          	sw	a4,148(a5)
/home/nicoladgg/wsFreedomStudio/sifive_hifive1_revb_hello/freedom-metal/src/drivers/riscv_cpu.c:543
200150f4:	a021                	j	200150fc <__metal_driver_riscv_cpu_controller_interrupt_register+0x1d4>
/home/nicoladgg/wsFreedomStudio/sifive_hifive1_revb_hello/freedom-metal/src/drivers/riscv_cpu.c:545
200150f6:	57d1                	li	a5,-12
200150f8:	fef42623          	sw	a5,-20(s0)
/home/nicoladgg/wsFreedomStudio/sifive_hifive1_revb_hello/freedom-metal/src/drivers/riscv_cpu.c:548
200150fc:	fec42783          	lw	a5,-20(s0)
/home/nicoladgg/wsFreedomStudio/sifive_hifive1_revb_hello/freedom-metal/src/drivers/riscv_cpu.c:549
20015100:	853e                	mv	a0,a5
20015102:	50b2                	lw	ra,44(sp)
20015104:	5422                	lw	s0,40(sp)
20015106:	6145                	addi	sp,sp,48
20015108:	8082                	ret

2001510a <__metal_driver_riscv_cpu_controller_interrupt_enable>:
__metal_driver_riscv_cpu_controller_interrupt_enable():
/home/nicoladgg/wsFreedomStudio/sifive_hifive1_revb_hello/freedom-metal/src/drivers/riscv_cpu.c:552
2001510a:	1101                	addi	sp,sp,-32
2001510c:	ce06                	sw	ra,28(sp)
2001510e:	cc22                	sw	s0,24(sp)
20015110:	1000                	addi	s0,sp,32
20015112:	fea42623          	sw	a0,-20(s0)
20015116:	feb42423          	sw	a1,-24(s0)
/home/nicoladgg/wsFreedomStudio/sifive_hifive1_revb_hello/freedom-metal/src/drivers/riscv_cpu.c:553
2001511a:	fe842783          	lw	a5,-24(s0)
2001511e:	4605                	li	a2,1
20015120:	85be                	mv	a1,a5
20015122:	fec42503          	lw	a0,-20(s0)
20015126:	c17ff0ef          	jal	ra,20014d3c <__metal_local_interrupt_enable>
2001512a:	87aa                	mv	a5,a0
/home/nicoladgg/wsFreedomStudio/sifive_hifive1_revb_hello/freedom-metal/src/drivers/riscv_cpu.c:554
2001512c:	853e                	mv	a0,a5
2001512e:	40f2                	lw	ra,28(sp)
20015130:	4462                	lw	s0,24(sp)
20015132:	6105                	addi	sp,sp,32
20015134:	8082                	ret

20015136 <__metal_driver_riscv_cpu_controller_interrupt_disable>:
__metal_driver_riscv_cpu_controller_interrupt_disable():
/home/nicoladgg/wsFreedomStudio/sifive_hifive1_revb_hello/freedom-metal/src/drivers/riscv_cpu.c:557
20015136:	1101                	addi	sp,sp,-32
20015138:	ce06                	sw	ra,28(sp)
2001513a:	cc22                	sw	s0,24(sp)
2001513c:	1000                	addi	s0,sp,32
2001513e:	fea42623          	sw	a0,-20(s0)
20015142:	feb42423          	sw	a1,-24(s0)
/home/nicoladgg/wsFreedomStudio/sifive_hifive1_revb_hello/freedom-metal/src/drivers/riscv_cpu.c:558
20015146:	fe842783          	lw	a5,-24(s0)
2001514a:	4601                	li	a2,0
2001514c:	85be                	mv	a1,a5
2001514e:	fec42503          	lw	a0,-20(s0)
20015152:	bebff0ef          	jal	ra,20014d3c <__metal_local_interrupt_enable>
20015156:	87aa                	mv	a5,a0
/home/nicoladgg/wsFreedomStudio/sifive_hifive1_revb_hello/freedom-metal/src/drivers/riscv_cpu.c:559
20015158:	853e                	mv	a0,a5
2001515a:	40f2                	lw	ra,28(sp)
2001515c:	4462                	lw	s0,24(sp)
2001515e:	6105                	addi	sp,sp,32
20015160:	8082                	ret

20015162 <__metal_driver_riscv_cpu_controller_get_vector_mode>:
__metal_driver_riscv_cpu_controller_get_vector_mode():
/home/nicoladgg/wsFreedomStudio/sifive_hifive1_revb_hello/freedom-metal/src/drivers/riscv_cpu.c:591
20015162:	1101                	addi	sp,sp,-32
20015164:	ce06                	sw	ra,28(sp)
20015166:	cc22                	sw	s0,24(sp)
20015168:	1000                	addi	s0,sp,32
2001516a:	fea42623          	sw	a0,-20(s0)
/home/nicoladgg/wsFreedomStudio/sifive_hifive1_revb_hello/freedom-metal/src/drivers/riscv_cpu.c:592
2001516e:	a6dff0ef          	jal	ra,20014bda <__metal_controller_interrupt_vector_mode>
20015172:	87aa                	mv	a5,a0
/home/nicoladgg/wsFreedomStudio/sifive_hifive1_revb_hello/freedom-metal/src/drivers/riscv_cpu.c:593
20015174:	853e                	mv	a0,a5
20015176:	40f2                	lw	ra,28(sp)
20015178:	4462                	lw	s0,24(sp)
2001517a:	6105                	addi	sp,sp,32
2001517c:	8082                	ret

2001517e <__metal_driver_riscv_cpu_controller_set_vector_mode>:
__metal_driver_riscv_cpu_controller_set_vector_mode():
/home/nicoladgg/wsFreedomStudio/sifive_hifive1_revb_hello/freedom-metal/src/drivers/riscv_cpu.c:596
2001517e:	1101                	addi	sp,sp,-32
20015180:	ce06                	sw	ra,28(sp)
20015182:	cc22                	sw	s0,24(sp)
20015184:	1000                	addi	s0,sp,32
20015186:	fea42623          	sw	a0,-20(s0)
2001518a:	feb42423          	sw	a1,-24(s0)
/home/nicoladgg/wsFreedomStudio/sifive_hifive1_revb_hello/freedom-metal/src/drivers/riscv_cpu.c:598
2001518e:	fe842783          	lw	a5,-24(s0)
20015192:	eb99                	bnez	a5,200151a8 <__metal_driver_riscv_cpu_controller_set_vector_mode+0x2a>
/home/nicoladgg/wsFreedomStudio/sifive_hifive1_revb_hello/freedom-metal/src/drivers/riscv_cpu.c:599
20015194:	200147b7          	lui	a5,0x20014
20015198:	08078593          	addi	a1,a5,128 # 20014080 <__metal_exception_handler>
2001519c:	fe842503          	lw	a0,-24(s0)
200151a0:	a93ff0ef          	jal	ra,20014c32 <__metal_controller_interrupt_vector>
/home/nicoladgg/wsFreedomStudio/sifive_hifive1_revb_hello/freedom-metal/src/drivers/riscv_cpu.c:601
200151a4:	4781                	li	a5,0
200151a6:	a00d                	j	200151c8 <__metal_driver_riscv_cpu_controller_set_vector_mode+0x4a>
/home/nicoladgg/wsFreedomStudio/sifive_hifive1_revb_hello/freedom-metal/src/drivers/riscv_cpu.c:603
200151a8:	fe842703          	lw	a4,-24(s0)
200151ac:	4785                	li	a5,1
200151ae:	00f71c63          	bne	a4,a5,200151c6 <__metal_driver_riscv_cpu_controller_set_vector_mode+0x48>
/home/nicoladgg/wsFreedomStudio/sifive_hifive1_revb_hello/freedom-metal/src/drivers/riscv_cpu.c:604
200151b2:	200187b7          	lui	a5,0x20018
200151b6:	d8078593          	addi	a1,a5,-640 # 20017d80 <__metal_vector_table>
200151ba:	fe842503          	lw	a0,-24(s0)
200151be:	a75ff0ef          	jal	ra,20014c32 <__metal_controller_interrupt_vector>
/home/nicoladgg/wsFreedomStudio/sifive_hifive1_revb_hello/freedom-metal/src/drivers/riscv_cpu.c:606
200151c2:	4781                	li	a5,0
200151c4:	a011                	j	200151c8 <__metal_driver_riscv_cpu_controller_set_vector_mode+0x4a>
/home/nicoladgg/wsFreedomStudio/sifive_hifive1_revb_hello/freedom-metal/src/drivers/riscv_cpu.c:608
200151c6:	57fd                	li	a5,-1
/home/nicoladgg/wsFreedomStudio/sifive_hifive1_revb_hello/freedom-metal/src/drivers/riscv_cpu.c:609
200151c8:	853e                	mv	a0,a5
200151ca:	40f2                	lw	ra,28(sp)
200151cc:	4462                	lw	s0,24(sp)
200151ce:	6105                	addi	sp,sp,32
200151d0:	8082                	ret

200151d2 <__metal_driver_riscv_cpu_controller_command_request>:
__metal_driver_riscv_cpu_controller_command_request():
/home/nicoladgg/wsFreedomStudio/sifive_hifive1_revb_hello/freedom-metal/src/drivers/riscv_cpu.c:612
200151d2:	1101                	addi	sp,sp,-32
200151d4:	ce22                	sw	s0,28(sp)
200151d6:	1000                	addi	s0,sp,32
200151d8:	fea42623          	sw	a0,-20(s0)
200151dc:	feb42423          	sw	a1,-24(s0)
200151e0:	fec42223          	sw	a2,-28(s0)
/home/nicoladgg/wsFreedomStudio/sifive_hifive1_revb_hello/freedom-metal/src/drivers/riscv_cpu.c:615
200151e4:	4781                	li	a5,0
/home/nicoladgg/wsFreedomStudio/sifive_hifive1_revb_hello/freedom-metal/src/drivers/riscv_cpu.c:616
200151e6:	853e                	mv	a0,a5
200151e8:	4472                	lw	s0,28(sp)
200151ea:	6105                	addi	sp,sp,32
200151ec:	8082                	ret

200151ee <__metal_driver_cpu_mcycle_get>:
__metal_driver_cpu_mcycle_get():
/home/nicoladgg/wsFreedomStudio/sifive_hifive1_revb_hello/freedom-metal/src/drivers/riscv_cpu.c:620
200151ee:	7139                	addi	sp,sp,-64
200151f0:	de22                	sw	s0,60(sp)
200151f2:	0080                	addi	s0,sp,64
200151f4:	fca42623          	sw	a0,-52(s0)
/home/nicoladgg/wsFreedomStudio/sifive_hifive1_revb_hello/freedom-metal/src/drivers/riscv_cpu.c:621
200151f8:	4501                	li	a0,0
200151fa:	4581                	li	a1,0
200151fc:	fea42423          	sw	a0,-24(s0)
20015200:	feb42623          	sw	a1,-20(s0)
/home/nicoladgg/wsFreedomStudio/sifive_hifive1_revb_hello/freedom-metal/src/drivers/riscv_cpu.c:627 (discriminator 1)
20015204:	b80025f3          	csrr	a1,mcycleh
20015208:	feb42223          	sw	a1,-28(s0)
/home/nicoladgg/wsFreedomStudio/sifive_hifive1_revb_hello/freedom-metal/src/drivers/riscv_cpu.c:628 (discriminator 1)
2001520c:	b00025f3          	csrr	a1,mcycle
20015210:	feb42023          	sw	a1,-32(s0)
/home/nicoladgg/wsFreedomStudio/sifive_hifive1_revb_hello/freedom-metal/src/drivers/riscv_cpu.c:629 (discriminator 1)
20015214:	b80025f3          	csrr	a1,mcycleh
20015218:	fcb42e23          	sw	a1,-36(s0)
/home/nicoladgg/wsFreedomStudio/sifive_hifive1_revb_hello/freedom-metal/src/drivers/riscv_cpu.c:632 (discriminator 1)
2001521c:	fe442503          	lw	a0,-28(s0)
20015220:	fdc42583          	lw	a1,-36(s0)
20015224:	feb510e3          	bne	a0,a1,20015204 <__metal_driver_cpu_mcycle_get+0x16>
/home/nicoladgg/wsFreedomStudio/sifive_hifive1_revb_hello/freedom-metal/src/drivers/riscv_cpu.c:634
20015228:	fe442583          	lw	a1,-28(s0)
2001522c:	882e                	mv	a6,a1
2001522e:	4881                	li	a7,0
20015230:	00081793          	slli	a5,a6,0x0
20015234:	4701                	li	a4,0
20015236:	fe042583          	lw	a1,-32(s0)
2001523a:	862e                	mv	a2,a1
2001523c:	4681                	li	a3,0
2001523e:	00c765b3          	or	a1,a4,a2
20015242:	feb42423          	sw	a1,-24(s0)
20015246:	8fd5                	or	a5,a5,a3
20015248:	fef42623          	sw	a5,-20(s0)
/home/nicoladgg/wsFreedomStudio/sifive_hifive1_revb_hello/freedom-metal/src/drivers/riscv_cpu.c:639
2001524c:	fe842703          	lw	a4,-24(s0)
20015250:	fec42783          	lw	a5,-20(s0)
/home/nicoladgg/wsFreedomStudio/sifive_hifive1_revb_hello/freedom-metal/src/drivers/riscv_cpu.c:640
20015254:	853a                	mv	a0,a4
20015256:	85be                	mv	a1,a5
20015258:	5472                	lw	s0,60(sp)
2001525a:	6121                	addi	sp,sp,64
2001525c:	8082                	ret

2001525e <__metal_driver_cpu_timebase_get>:
__metal_driver_cpu_timebase_get():
/home/nicoladgg/wsFreedomStudio/sifive_hifive1_revb_hello/freedom-metal/src/drivers/riscv_cpu.c:642
2001525e:	7179                	addi	sp,sp,-48
20015260:	d606                	sw	ra,44(sp)
20015262:	d422                	sw	s0,40(sp)
20015264:	d24a                	sw	s2,36(sp)
20015266:	d04e                	sw	s3,32(sp)
20015268:	1800                	addi	s0,sp,48
2001526a:	fca42e23          	sw	a0,-36(s0)
/home/nicoladgg/wsFreedomStudio/sifive_hifive1_revb_hello/freedom-metal/src/drivers/riscv_cpu.c:644
2001526e:	fdc42783          	lw	a5,-36(s0)
20015272:	e781                	bnez	a5,2001527a <__metal_driver_cpu_timebase_get+0x1c>
/home/nicoladgg/wsFreedomStudio/sifive_hifive1_revb_hello/freedom-metal/src/drivers/riscv_cpu.c:645
20015274:	4901                	li	s2,0
20015276:	4981                	li	s3,0
20015278:	a821                	j	20015290 <__metal_driver_cpu_timebase_get+0x32>
/home/nicoladgg/wsFreedomStudio/sifive_hifive1_revb_hello/freedom-metal/src/drivers/riscv_cpu.c:648
2001527a:	fdc42503          	lw	a0,-36(s0)
2001527e:	94dfe0ef          	jal	ra,20013bca <__metal_driver_cpu_timebase>
20015282:	fea42623          	sw	a0,-20(s0)
/home/nicoladgg/wsFreedomStudio/sifive_hifive1_revb_hello/freedom-metal/src/drivers/riscv_cpu.c:649
20015286:	fec42783          	lw	a5,-20(s0)
2001528a:	893e                	mv	s2,a5
2001528c:	87fd                	srai	a5,a5,0x1f
2001528e:	89be                	mv	s3,a5
/home/nicoladgg/wsFreedomStudio/sifive_hifive1_revb_hello/freedom-metal/src/drivers/riscv_cpu.c:650
20015290:	874a                	mv	a4,s2
20015292:	87ce                	mv	a5,s3
20015294:	853a                	mv	a0,a4
20015296:	85be                	mv	a1,a5
20015298:	50b2                	lw	ra,44(sp)
2001529a:	5422                	lw	s0,40(sp)
2001529c:	5912                	lw	s2,36(sp)
2001529e:	5982                	lw	s3,32(sp)
200152a0:	6145                	addi	sp,sp,48
200152a2:	8082                	ret

200152a4 <__metal_driver_cpu_mtime_get>:
__metal_driver_cpu_mtime_get():
/home/nicoladgg/wsFreedomStudio/sifive_hifive1_revb_hello/freedom-metal/src/drivers/riscv_cpu.c:652
200152a4:	7179                	addi	sp,sp,-48
200152a6:	d606                	sw	ra,44(sp)
200152a8:	d422                	sw	s0,40(sp)
200152aa:	1800                	addi	s0,sp,48
200152ac:	fca42e23          	sw	a0,-36(s0)
/home/nicoladgg/wsFreedomStudio/sifive_hifive1_revb_hello/freedom-metal/src/drivers/riscv_cpu.c:653
200152b0:	4781                	li	a5,0
200152b2:	4801                	li	a6,0
200152b4:	fef42023          	sw	a5,-32(s0)
200152b8:	ff042223          	sw	a6,-28(s0)
/home/nicoladgg/wsFreedomStudio/sifive_hifive1_revb_hello/freedom-metal/src/drivers/riscv_cpu.c:657
200152bc:	fdc42503          	lw	a0,-36(s0)
200152c0:	935fe0ef          	jal	ra,20013bf4 <__metal_driver_cpu_interrupt_controller>
200152c4:	fea42623          	sw	a0,-20(s0)
/home/nicoladgg/wsFreedomStudio/sifive_hifive1_revb_hello/freedom-metal/src/drivers/riscv_cpu.c:659
200152c8:	fec42783          	lw	a5,-20(s0)
200152cc:	c78d                	beqz	a5,200152f6 <__metal_driver_cpu_mtime_get+0x52>
/home/nicoladgg/wsFreedomStudio/sifive_hifive1_revb_hello/freedom-metal/src/drivers/riscv_cpu.c:660
200152ce:	fec42783          	lw	a5,-20(s0)
200152d2:	13c7a783          	lw	a5,316(a5)
200152d6:	fef42423          	sw	a5,-24(s0)
/home/nicoladgg/wsFreedomStudio/sifive_hifive1_revb_hello/freedom-metal/src/drivers/riscv_cpu.c:661
200152da:	fe842783          	lw	a5,-24(s0)
200152de:	cf81                	beqz	a5,200152f6 <__metal_driver_cpu_mtime_get+0x52>
/home/nicoladgg/wsFreedomStudio/sifive_hifive1_revb_hello/freedom-metal/src/drivers/riscv_cpu.c:662
200152e0:	fe842783          	lw	a5,-24(s0)
200152e4:	439c                	lw	a5,0(a5)
200152e6:	47f8                	lw	a4,76(a5)
200152e8:	fe040793          	addi	a5,s0,-32
200152ec:	863e                	mv	a2,a5
200152ee:	4585                	li	a1,1
200152f0:	fe842503          	lw	a0,-24(s0)
200152f4:	9702                	jalr	a4
/home/nicoladgg/wsFreedomStudio/sifive_hifive1_revb_hello/freedom-metal/src/drivers/riscv_cpu.c:666
200152f6:	fe042703          	lw	a4,-32(s0)
200152fa:	fe442783          	lw	a5,-28(s0)
/home/nicoladgg/wsFreedomStudio/sifive_hifive1_revb_hello/freedom-metal/src/drivers/riscv_cpu.c:667
200152fe:	853a                	mv	a0,a4
20015300:	85be                	mv	a1,a5
20015302:	50b2                	lw	ra,44(sp)
20015304:	5422                	lw	s0,40(sp)
20015306:	6145                	addi	sp,sp,48
20015308:	8082                	ret

2001530a <__metal_driver_cpu_mtimecmp_set>:
__metal_driver_cpu_mtimecmp_set():
/home/nicoladgg/wsFreedomStudio/sifive_hifive1_revb_hello/freedom-metal/src/drivers/riscv_cpu.c:670
2001530a:	7179                	addi	sp,sp,-48
2001530c:	d606                	sw	ra,44(sp)
2001530e:	d422                	sw	s0,40(sp)
20015310:	d226                	sw	s1,36(sp)
20015312:	1800                	addi	s0,sp,48
20015314:	fca42e23          	sw	a0,-36(s0)
20015318:	fcb42823          	sw	a1,-48(s0)
2001531c:	fcc42a23          	sw	a2,-44(s0)
/home/nicoladgg/wsFreedomStudio/sifive_hifive1_revb_hello/freedom-metal/src/drivers/riscv_cpu.c:671
20015320:	57fd                	li	a5,-1
20015322:	fef42623          	sw	a5,-20(s0)
/home/nicoladgg/wsFreedomStudio/sifive_hifive1_revb_hello/freedom-metal/src/drivers/riscv_cpu.c:675
20015326:	fdc42503          	lw	a0,-36(s0)
2001532a:	8cbfe0ef          	jal	ra,20013bf4 <__metal_driver_cpu_interrupt_controller>
2001532e:	fea42423          	sw	a0,-24(s0)
/home/nicoladgg/wsFreedomStudio/sifive_hifive1_revb_hello/freedom-metal/src/drivers/riscv_cpu.c:677
20015332:	fe842783          	lw	a5,-24(s0)
20015336:	cf8d                	beqz	a5,20015370 <__metal_driver_cpu_mtimecmp_set+0x66>
/home/nicoladgg/wsFreedomStudio/sifive_hifive1_revb_hello/freedom-metal/src/drivers/riscv_cpu.c:678
20015338:	fe842783          	lw	a5,-24(s0)
2001533c:	13c7a783          	lw	a5,316(a5)
20015340:	fef42223          	sw	a5,-28(s0)
/home/nicoladgg/wsFreedomStudio/sifive_hifive1_revb_hello/freedom-metal/src/drivers/riscv_cpu.c:679
20015344:	fe442783          	lw	a5,-28(s0)
20015348:	c785                	beqz	a5,20015370 <__metal_driver_cpu_mtimecmp_set+0x66>
/home/nicoladgg/wsFreedomStudio/sifive_hifive1_revb_hello/freedom-metal/src/drivers/riscv_cpu.c:680
2001534a:	fe442783          	lw	a5,-28(s0)
2001534e:	439c                	lw	a5,0(a5)
20015350:	4ba4                	lw	s1,80(a5)
20015352:	fdc42503          	lw	a0,-36(s0)
20015356:	851fe0ef          	jal	ra,20013ba6 <__metal_driver_cpu_hartid>
2001535a:	87aa                	mv	a5,a0
2001535c:	fd042603          	lw	a2,-48(s0)
20015360:	fd442683          	lw	a3,-44(s0)
20015364:	85be                	mv	a1,a5
20015366:	fe442503          	lw	a0,-28(s0)
2001536a:	9482                	jalr	s1
2001536c:	fea42623          	sw	a0,-20(s0)
/home/nicoladgg/wsFreedomStudio/sifive_hifive1_revb_hello/freedom-metal/src/drivers/riscv_cpu.c:684
20015370:	fec42783          	lw	a5,-20(s0)
/home/nicoladgg/wsFreedomStudio/sifive_hifive1_revb_hello/freedom-metal/src/drivers/riscv_cpu.c:685
20015374:	853e                	mv	a0,a5
20015376:	50b2                	lw	ra,44(sp)
20015378:	5422                	lw	s0,40(sp)
2001537a:	5492                	lw	s1,36(sp)
2001537c:	6145                	addi	sp,sp,48
2001537e:	8082                	ret

20015380 <__metal_driver_cpu_timer_controller_interrupt>:
__metal_driver_cpu_timer_controller_interrupt():
/home/nicoladgg/wsFreedomStudio/sifive_hifive1_revb_hello/freedom-metal/src/drivers/riscv_cpu.c:688
20015380:	1101                	addi	sp,sp,-32
20015382:	ce22                	sw	s0,28(sp)
20015384:	1000                	addi	s0,sp,32
20015386:	fea42623          	sw	a0,-20(s0)
/home/nicoladgg/wsFreedomStudio/sifive_hifive1_revb_hello/freedom-metal/src/drivers/riscv_cpu.c:690
2001538a:	800017b7          	lui	a5,0x80001
2001538e:	aa878793          	addi	a5,a5,-1368 # 80000aa8 <metal_segment_heap_target_end+0xfffff328>
/home/nicoladgg/wsFreedomStudio/sifive_hifive1_revb_hello/freedom-metal/src/drivers/riscv_cpu.c:699
20015392:	853e                	mv	a0,a5
20015394:	4472                	lw	s0,28(sp)
20015396:	6105                	addi	sp,sp,32
20015398:	8082                	ret

2001539a <__metal_driver_cpu_get_timer_interrupt_id>:
__metal_driver_cpu_get_timer_interrupt_id():
/home/nicoladgg/wsFreedomStudio/sifive_hifive1_revb_hello/freedom-metal/src/drivers/riscv_cpu.c:701
2001539a:	1101                	addi	sp,sp,-32
2001539c:	ce22                	sw	s0,28(sp)
2001539e:	1000                	addi	s0,sp,32
200153a0:	fea42623          	sw	a0,-20(s0)
/home/nicoladgg/wsFreedomStudio/sifive_hifive1_revb_hello/freedom-metal/src/drivers/riscv_cpu.c:702
200153a4:	479d                	li	a5,7
/home/nicoladgg/wsFreedomStudio/sifive_hifive1_revb_hello/freedom-metal/src/drivers/riscv_cpu.c:703
200153a6:	853e                	mv	a0,a5
200153a8:	4472                	lw	s0,28(sp)
200153aa:	6105                	addi	sp,sp,32
200153ac:	8082                	ret

200153ae <__metal_driver_cpu_sw_controller_interrupt>:
__metal_driver_cpu_sw_controller_interrupt():
/home/nicoladgg/wsFreedomStudio/sifive_hifive1_revb_hello/freedom-metal/src/drivers/riscv_cpu.c:706
200153ae:	1101                	addi	sp,sp,-32
200153b0:	ce22                	sw	s0,28(sp)
200153b2:	1000                	addi	s0,sp,32
200153b4:	fea42623          	sw	a0,-20(s0)
/home/nicoladgg/wsFreedomStudio/sifive_hifive1_revb_hello/freedom-metal/src/drivers/riscv_cpu.c:708
200153b8:	800017b7          	lui	a5,0x80001
200153bc:	aa878793          	addi	a5,a5,-1368 # 80000aa8 <metal_segment_heap_target_end+0xfffff328>
/home/nicoladgg/wsFreedomStudio/sifive_hifive1_revb_hello/freedom-metal/src/drivers/riscv_cpu.c:717
200153c0:	853e                	mv	a0,a5
200153c2:	4472                	lw	s0,28(sp)
200153c4:	6105                	addi	sp,sp,32
200153c6:	8082                	ret

200153c8 <__metal_driver_cpu_get_sw_interrupt_id>:
__metal_driver_cpu_get_sw_interrupt_id():
/home/nicoladgg/wsFreedomStudio/sifive_hifive1_revb_hello/freedom-metal/src/drivers/riscv_cpu.c:719
200153c8:	1101                	addi	sp,sp,-32
200153ca:	ce22                	sw	s0,28(sp)
200153cc:	1000                	addi	s0,sp,32
200153ce:	fea42623          	sw	a0,-20(s0)
/home/nicoladgg/wsFreedomStudio/sifive_hifive1_revb_hello/freedom-metal/src/drivers/riscv_cpu.c:720
200153d2:	478d                	li	a5,3
/home/nicoladgg/wsFreedomStudio/sifive_hifive1_revb_hello/freedom-metal/src/drivers/riscv_cpu.c:721
200153d4:	853e                	mv	a0,a5
200153d6:	4472                	lw	s0,28(sp)
200153d8:	6105                	addi	sp,sp,32
200153da:	8082                	ret

200153dc <__metal_driver_cpu_set_sw_ipi>:
__metal_driver_cpu_set_sw_ipi():
/home/nicoladgg/wsFreedomStudio/sifive_hifive1_revb_hello/freedom-metal/src/drivers/riscv_cpu.c:723
200153dc:	7179                	addi	sp,sp,-48
200153de:	d606                	sw	ra,44(sp)
200153e0:	d422                	sw	s0,40(sp)
200153e2:	1800                	addi	s0,sp,48
200153e4:	fca42e23          	sw	a0,-36(s0)
200153e8:	fcb42c23          	sw	a1,-40(s0)
/home/nicoladgg/wsFreedomStudio/sifive_hifive1_revb_hello/freedom-metal/src/drivers/riscv_cpu.c:724
200153ec:	57fd                	li	a5,-1
200153ee:	fef42623          	sw	a5,-20(s0)
/home/nicoladgg/wsFreedomStudio/sifive_hifive1_revb_hello/freedom-metal/src/drivers/riscv_cpu.c:728
200153f2:	fdc42503          	lw	a0,-36(s0)
200153f6:	ffefe0ef          	jal	ra,20013bf4 <__metal_driver_cpu_interrupt_controller>
200153fa:	fea42423          	sw	a0,-24(s0)
/home/nicoladgg/wsFreedomStudio/sifive_hifive1_revb_hello/freedom-metal/src/drivers/riscv_cpu.c:730
200153fe:	fe842783          	lw	a5,-24(s0)
20015402:	c79d                	beqz	a5,20015430 <__metal_driver_cpu_set_sw_ipi+0x54>
/home/nicoladgg/wsFreedomStudio/sifive_hifive1_revb_hello/freedom-metal/src/drivers/riscv_cpu.c:731
20015404:	fe842783          	lw	a5,-24(s0)
20015408:	0dc7a783          	lw	a5,220(a5)
2001540c:	fef42223          	sw	a5,-28(s0)
/home/nicoladgg/wsFreedomStudio/sifive_hifive1_revb_hello/freedom-metal/src/drivers/riscv_cpu.c:732
20015410:	fe442783          	lw	a5,-28(s0)
20015414:	cf91                	beqz	a5,20015430 <__metal_driver_cpu_set_sw_ipi+0x54>
/home/nicoladgg/wsFreedomStudio/sifive_hifive1_revb_hello/freedom-metal/src/drivers/riscv_cpu.c:733
20015416:	fe442783          	lw	a5,-28(s0)
2001541a:	439c                	lw	a5,0(a5)
2001541c:	47f8                	lw	a4,76(a5)
2001541e:	fd840793          	addi	a5,s0,-40
20015422:	863e                	mv	a2,a5
20015424:	458d                	li	a1,3
20015426:	fe442503          	lw	a0,-28(s0)
2001542a:	9702                	jalr	a4
2001542c:	fea42623          	sw	a0,-20(s0)
/home/nicoladgg/wsFreedomStudio/sifive_hifive1_revb_hello/freedom-metal/src/drivers/riscv_cpu.c:737
20015430:	fec42783          	lw	a5,-20(s0)
/home/nicoladgg/wsFreedomStudio/sifive_hifive1_revb_hello/freedom-metal/src/drivers/riscv_cpu.c:738
20015434:	853e                	mv	a0,a5
20015436:	50b2                	lw	ra,44(sp)
20015438:	5422                	lw	s0,40(sp)
2001543a:	6145                	addi	sp,sp,48
2001543c:	8082                	ret

2001543e <__metal_driver_cpu_clear_sw_ipi>:
__metal_driver_cpu_clear_sw_ipi():
/home/nicoladgg/wsFreedomStudio/sifive_hifive1_revb_hello/freedom-metal/src/drivers/riscv_cpu.c:740
2001543e:	7179                	addi	sp,sp,-48
20015440:	d606                	sw	ra,44(sp)
20015442:	d422                	sw	s0,40(sp)
20015444:	1800                	addi	s0,sp,48
20015446:	fca42e23          	sw	a0,-36(s0)
2001544a:	fcb42c23          	sw	a1,-40(s0)
/home/nicoladgg/wsFreedomStudio/sifive_hifive1_revb_hello/freedom-metal/src/drivers/riscv_cpu.c:741
2001544e:	57fd                	li	a5,-1
20015450:	fef42623          	sw	a5,-20(s0)
/home/nicoladgg/wsFreedomStudio/sifive_hifive1_revb_hello/freedom-metal/src/drivers/riscv_cpu.c:745
20015454:	fdc42503          	lw	a0,-36(s0)
20015458:	f9cfe0ef          	jal	ra,20013bf4 <__metal_driver_cpu_interrupt_controller>
2001545c:	fea42423          	sw	a0,-24(s0)
/home/nicoladgg/wsFreedomStudio/sifive_hifive1_revb_hello/freedom-metal/src/drivers/riscv_cpu.c:747
20015460:	fe842783          	lw	a5,-24(s0)
20015464:	c79d                	beqz	a5,20015492 <__metal_driver_cpu_clear_sw_ipi+0x54>
/home/nicoladgg/wsFreedomStudio/sifive_hifive1_revb_hello/freedom-metal/src/drivers/riscv_cpu.c:748
20015466:	fe842783          	lw	a5,-24(s0)
2001546a:	0dc7a783          	lw	a5,220(a5)
2001546e:	fef42223          	sw	a5,-28(s0)
/home/nicoladgg/wsFreedomStudio/sifive_hifive1_revb_hello/freedom-metal/src/drivers/riscv_cpu.c:749
20015472:	fe442783          	lw	a5,-28(s0)
20015476:	cf91                	beqz	a5,20015492 <__metal_driver_cpu_clear_sw_ipi+0x54>
/home/nicoladgg/wsFreedomStudio/sifive_hifive1_revb_hello/freedom-metal/src/drivers/riscv_cpu.c:750
20015478:	fe442783          	lw	a5,-28(s0)
2001547c:	439c                	lw	a5,0(a5)
2001547e:	47f8                	lw	a4,76(a5)
20015480:	fd840793          	addi	a5,s0,-40
20015484:	863e                	mv	a2,a5
20015486:	4589                	li	a1,2
20015488:	fe442503          	lw	a0,-28(s0)
2001548c:	9702                	jalr	a4
2001548e:	fea42623          	sw	a0,-20(s0)
/home/nicoladgg/wsFreedomStudio/sifive_hifive1_revb_hello/freedom-metal/src/drivers/riscv_cpu.c:754
20015492:	fec42783          	lw	a5,-20(s0)
/home/nicoladgg/wsFreedomStudio/sifive_hifive1_revb_hello/freedom-metal/src/drivers/riscv_cpu.c:755
20015496:	853e                	mv	a0,a5
20015498:	50b2                	lw	ra,44(sp)
2001549a:	5422                	lw	s0,40(sp)
2001549c:	6145                	addi	sp,sp,48
2001549e:	8082                	ret

200154a0 <__metal_driver_cpu_get_msip>:
__metal_driver_cpu_get_msip():
/home/nicoladgg/wsFreedomStudio/sifive_hifive1_revb_hello/freedom-metal/src/drivers/riscv_cpu.c:757
200154a0:	7179                	addi	sp,sp,-48
200154a2:	d606                	sw	ra,44(sp)
200154a4:	d422                	sw	s0,40(sp)
200154a6:	1800                	addi	s0,sp,48
200154a8:	fca42e23          	sw	a0,-36(s0)
200154ac:	fcb42c23          	sw	a1,-40(s0)
/home/nicoladgg/wsFreedomStudio/sifive_hifive1_revb_hello/freedom-metal/src/drivers/riscv_cpu.c:758
200154b0:	fe042623          	sw	zero,-20(s0)
/home/nicoladgg/wsFreedomStudio/sifive_hifive1_revb_hello/freedom-metal/src/drivers/riscv_cpu.c:762
200154b4:	fdc42503          	lw	a0,-36(s0)
200154b8:	f3cfe0ef          	jal	ra,20013bf4 <__metal_driver_cpu_interrupt_controller>
200154bc:	fea42423          	sw	a0,-24(s0)
/home/nicoladgg/wsFreedomStudio/sifive_hifive1_revb_hello/freedom-metal/src/drivers/riscv_cpu.c:764
200154c0:	fe842783          	lw	a5,-24(s0)
200154c4:	c79d                	beqz	a5,200154f2 <__metal_driver_cpu_get_msip+0x52>
/home/nicoladgg/wsFreedomStudio/sifive_hifive1_revb_hello/freedom-metal/src/drivers/riscv_cpu.c:765
200154c6:	fe842783          	lw	a5,-24(s0)
200154ca:	0dc7a783          	lw	a5,220(a5)
200154ce:	fef42223          	sw	a5,-28(s0)
/home/nicoladgg/wsFreedomStudio/sifive_hifive1_revb_hello/freedom-metal/src/drivers/riscv_cpu.c:766
200154d2:	fe442783          	lw	a5,-28(s0)
200154d6:	cf91                	beqz	a5,200154f2 <__metal_driver_cpu_get_msip+0x52>
/home/nicoladgg/wsFreedomStudio/sifive_hifive1_revb_hello/freedom-metal/src/drivers/riscv_cpu.c:767
200154d8:	fe442783          	lw	a5,-28(s0)
200154dc:	439c                	lw	a5,0(a5)
200154de:	47f8                	lw	a4,76(a5)
200154e0:	fd840793          	addi	a5,s0,-40
200154e4:	863e                	mv	a2,a5
200154e6:	4591                	li	a1,4
200154e8:	fe442503          	lw	a0,-28(s0)
200154ec:	9702                	jalr	a4
200154ee:	fea42623          	sw	a0,-20(s0)
/home/nicoladgg/wsFreedomStudio/sifive_hifive1_revb_hello/freedom-metal/src/drivers/riscv_cpu.c:771
200154f2:	fec42783          	lw	a5,-20(s0)
/home/nicoladgg/wsFreedomStudio/sifive_hifive1_revb_hello/freedom-metal/src/drivers/riscv_cpu.c:772
200154f6:	853e                	mv	a0,a5
200154f8:	50b2                	lw	ra,44(sp)
200154fa:	5422                	lw	s0,40(sp)
200154fc:	6145                	addi	sp,sp,48
200154fe:	8082                	ret

20015500 <__metal_driver_cpu_controller_interrupt>:
__metal_driver_cpu_controller_interrupt():
/home/nicoladgg/wsFreedomStudio/sifive_hifive1_revb_hello/freedom-metal/src/drivers/riscv_cpu.c:775
20015500:	1101                	addi	sp,sp,-32
20015502:	ce06                	sw	ra,28(sp)
20015504:	cc22                	sw	s0,24(sp)
20015506:	1000                	addi	s0,sp,32
20015508:	fea42623          	sw	a0,-20(s0)
/home/nicoladgg/wsFreedomStudio/sifive_hifive1_revb_hello/freedom-metal/src/drivers/riscv_cpu.c:776
2001550c:	fec42503          	lw	a0,-20(s0)
20015510:	ee4fe0ef          	jal	ra,20013bf4 <__metal_driver_cpu_interrupt_controller>
20015514:	87aa                	mv	a5,a0
/home/nicoladgg/wsFreedomStudio/sifive_hifive1_revb_hello/freedom-metal/src/drivers/riscv_cpu.c:777
20015516:	853e                	mv	a0,a5
20015518:	40f2                	lw	ra,28(sp)
2001551a:	4462                	lw	s0,24(sp)
2001551c:	6105                	addi	sp,sp,32
2001551e:	8082                	ret

20015520 <__metal_driver_cpu_exception_register>:
__metal_driver_cpu_exception_register():
/home/nicoladgg/wsFreedomStudio/sifive_hifive1_revb_hello/freedom-metal/src/drivers/riscv_cpu.c:798
20015520:	7179                	addi	sp,sp,-48
20015522:	d606                	sw	ra,44(sp)
20015524:	d422                	sw	s0,40(sp)
20015526:	1800                	addi	s0,sp,48
20015528:	fca42e23          	sw	a0,-36(s0)
2001552c:	fcb42c23          	sw	a1,-40(s0)
20015530:	fcc42a23          	sw	a2,-44(s0)
/home/nicoladgg/wsFreedomStudio/sifive_hifive1_revb_hello/freedom-metal/src/drivers/riscv_cpu.c:801
20015534:	fdc42503          	lw	a0,-36(s0)
20015538:	ebcfe0ef          	jal	ra,20013bf4 <__metal_driver_cpu_interrupt_controller>
2001553c:	fea42623          	sw	a0,-20(s0)
/home/nicoladgg/wsFreedomStudio/sifive_hifive1_revb_hello/freedom-metal/src/drivers/riscv_cpu.c:803
20015540:	fec42783          	lw	a5,-20(s0)
20015544:	cb99                	beqz	a5,2001555a <__metal_driver_cpu_exception_register+0x3a>
/home/nicoladgg/wsFreedomStudio/sifive_hifive1_revb_hello/freedom-metal/src/drivers/riscv_cpu.c:804
20015546:	fd442603          	lw	a2,-44(s0)
2001554a:	fd842583          	lw	a1,-40(s0)
2001554e:	fec42503          	lw	a0,-20(s0)
20015552:	8a7ff0ef          	jal	ra,20014df8 <__metal_exception_register>
20015556:	87aa                	mv	a5,a0
20015558:	a011                	j	2001555c <__metal_driver_cpu_exception_register+0x3c>
/home/nicoladgg/wsFreedomStudio/sifive_hifive1_revb_hello/freedom-metal/src/drivers/riscv_cpu.c:807
2001555a:	57fd                	li	a5,-1
/home/nicoladgg/wsFreedomStudio/sifive_hifive1_revb_hello/freedom-metal/src/drivers/riscv_cpu.c:808
2001555c:	853e                	mv	a0,a5
2001555e:	50b2                	lw	ra,44(sp)
20015560:	5422                	lw	s0,40(sp)
20015562:	6145                	addi	sp,sp,48
20015564:	8082                	ret

20015566 <__metal_driver_cpu_get_instruction_length>:
__metal_driver_cpu_get_instruction_length():
/home/nicoladgg/wsFreedomStudio/sifive_hifive1_revb_hello/freedom-metal/src/drivers/riscv_cpu.c:811
20015566:	1101                	addi	sp,sp,-32
20015568:	ce22                	sw	s0,28(sp)
2001556a:	1000                	addi	s0,sp,32
2001556c:	fea42623          	sw	a0,-20(s0)
20015570:	feb42423          	sw	a1,-24(s0)
/home/nicoladgg/wsFreedomStudio/sifive_hifive1_revb_hello/freedom-metal/src/drivers/riscv_cpu.c:817
20015574:	fe842783          	lw	a5,-24(s0)
20015578:	0007d783          	lhu	a5,0(a5)
2001557c:	0037f713          	andi	a4,a5,3
/home/nicoladgg/wsFreedomStudio/sifive_hifive1_revb_hello/freedom-metal/src/drivers/riscv_cpu.c:820
20015580:	478d                	li	a5,3
20015582:	00f71463          	bne	a4,a5,2001558a <__metal_driver_cpu_get_instruction_length+0x24>
/home/nicoladgg/wsFreedomStudio/sifive_hifive1_revb_hello/freedom-metal/src/drivers/riscv_cpu.c:820 (discriminator 1)
20015586:	4791                	li	a5,4
20015588:	a011                	j	2001558c <__metal_driver_cpu_get_instruction_length+0x26>
/home/nicoladgg/wsFreedomStudio/sifive_hifive1_revb_hello/freedom-metal/src/drivers/riscv_cpu.c:820 (discriminator 2)
2001558a:	4789                	li	a5,2
/home/nicoladgg/wsFreedomStudio/sifive_hifive1_revb_hello/freedom-metal/src/drivers/riscv_cpu.c:821 (discriminator 5)
2001558c:	853e                	mv	a0,a5
2001558e:	4472                	lw	s0,28(sp)
20015590:	6105                	addi	sp,sp,32
20015592:	8082                	ret

20015594 <__metal_driver_cpu_get_exception_pc>:
__metal_driver_cpu_get_exception_pc():
/home/nicoladgg/wsFreedomStudio/sifive_hifive1_revb_hello/freedom-metal/src/drivers/riscv_cpu.c:823
20015594:	7179                	addi	sp,sp,-48
20015596:	d622                	sw	s0,44(sp)
20015598:	1800                	addi	s0,sp,48
2001559a:	fca42e23          	sw	a0,-36(s0)
/home/nicoladgg/wsFreedomStudio/sifive_hifive1_revb_hello/freedom-metal/src/drivers/riscv_cpu.c:825
2001559e:	341027f3          	csrr	a5,mepc
200155a2:	fef42623          	sw	a5,-20(s0)
/home/nicoladgg/wsFreedomStudio/sifive_hifive1_revb_hello/freedom-metal/src/drivers/riscv_cpu.c:826
200155a6:	fec42783          	lw	a5,-20(s0)
/home/nicoladgg/wsFreedomStudio/sifive_hifive1_revb_hello/freedom-metal/src/drivers/riscv_cpu.c:827
200155aa:	853e                	mv	a0,a5
200155ac:	5432                	lw	s0,44(sp)
200155ae:	6145                	addi	sp,sp,48
200155b0:	8082                	ret

200155b2 <__metal_driver_cpu_set_exception_pc>:
__metal_driver_cpu_set_exception_pc():
/home/nicoladgg/wsFreedomStudio/sifive_hifive1_revb_hello/freedom-metal/src/drivers/riscv_cpu.c:829
200155b2:	1101                	addi	sp,sp,-32
200155b4:	ce22                	sw	s0,28(sp)
200155b6:	1000                	addi	s0,sp,32
200155b8:	fea42623          	sw	a0,-20(s0)
200155bc:	feb42423          	sw	a1,-24(s0)
/home/nicoladgg/wsFreedomStudio/sifive_hifive1_revb_hello/freedom-metal/src/drivers/riscv_cpu.c:830
200155c0:	fe842783          	lw	a5,-24(s0)
200155c4:	34179073          	csrw	mepc,a5
/home/nicoladgg/wsFreedomStudio/sifive_hifive1_revb_hello/freedom-metal/src/drivers/riscv_cpu.c:831
200155c8:	4781                	li	a5,0
/home/nicoladgg/wsFreedomStudio/sifive_hifive1_revb_hello/freedom-metal/src/drivers/riscv_cpu.c:832
200155ca:	853e                	mv	a0,a5
200155cc:	4472                	lw	s0,28(sp)
200155ce:	6105                	addi	sp,sp,32
200155d0:	8082                	ret

200155d2 <__metal_driver_cpu_get_buserror>:
__metal_driver_cpu_get_buserror():
/home/nicoladgg/wsFreedomStudio/sifive_hifive1_revb_hello/freedom-metal/src/drivers/riscv_cpu.c:834
200155d2:	1101                	addi	sp,sp,-32
200155d4:	ce06                	sw	ra,28(sp)
200155d6:	cc22                	sw	s0,24(sp)
200155d8:	1000                	addi	s0,sp,32
200155da:	fea42623          	sw	a0,-20(s0)
/home/nicoladgg/wsFreedomStudio/sifive_hifive1_revb_hello/freedom-metal/src/drivers/riscv_cpu.c:835
200155de:	fec42503          	lw	a0,-20(s0)
200155e2:	e3cfe0ef          	jal	ra,20013c1e <__metal_driver_cpu_buserror>
200155e6:	87aa                	mv	a5,a0
/home/nicoladgg/wsFreedomStudio/sifive_hifive1_revb_hello/freedom-metal/src/drivers/riscv_cpu.c:836
200155e8:	853e                	mv	a0,a5
200155ea:	40f2                	lw	ra,28(sp)
200155ec:	4462                	lw	s0,24(sp)
200155ee:	6105                	addi	sp,sp,32
200155f0:	8082                	ret

200155f2 <__metal_driver_sifive_plic0_control_base>:
__metal_driver_sifive_plic0_control_base():
/home/nicoladgg/wsFreedomStudio/sifive_hifive1_revb_hello/bsp/build/debug/./metal/machine.h:345
200155f2:	1101                	addi	sp,sp,-32
200155f4:	ce22                	sw	s0,28(sp)
200155f6:	1000                	addi	s0,sp,32
200155f8:	fea42623          	sw	a0,-20(s0)
/home/nicoladgg/wsFreedomStudio/sifive_hifive1_revb_hello/bsp/build/debug/./metal/machine.h:346
200155fc:	fec42703          	lw	a4,-20(s0)
20015600:	800007b7          	lui	a5,0x80000
20015604:	46078793          	addi	a5,a5,1120 # 80000460 <metal_segment_heap_target_end+0xffffece0>
20015608:	00f71563          	bne	a4,a5,20015612 <__metal_driver_sifive_plic0_control_base+0x20>
/home/nicoladgg/wsFreedomStudio/sifive_hifive1_revb_hello/bsp/build/debug/./metal/machine.h:347
2001560c:	0c0007b7          	lui	a5,0xc000
20015610:	a011                	j	20015614 <__metal_driver_sifive_plic0_control_base+0x22>
/home/nicoladgg/wsFreedomStudio/sifive_hifive1_revb_hello/bsp/build/debug/./metal/machine.h:350
20015612:	4781                	li	a5,0
/home/nicoladgg/wsFreedomStudio/sifive_hifive1_revb_hello/bsp/build/debug/./metal/machine.h:352
20015614:	853e                	mv	a0,a5
20015616:	4472                	lw	s0,28(sp)
20015618:	6105                	addi	sp,sp,32
2001561a:	8082                	ret

2001561c <__metal_driver_sifive_plic0_num_interrupts>:
__metal_driver_sifive_plic0_num_interrupts():
/home/nicoladgg/wsFreedomStudio/sifive_hifive1_revb_hello/bsp/build/debug/./metal/machine.h:365
2001561c:	1101                	addi	sp,sp,-32
2001561e:	ce22                	sw	s0,28(sp)
20015620:	1000                	addi	s0,sp,32
20015622:	fea42623          	sw	a0,-20(s0)
/home/nicoladgg/wsFreedomStudio/sifive_hifive1_revb_hello/bsp/build/debug/./metal/machine.h:366
20015626:	fec42703          	lw	a4,-20(s0)
2001562a:	800007b7          	lui	a5,0x80000
2001562e:	46078793          	addi	a5,a5,1120 # 80000460 <metal_segment_heap_target_end+0xffffece0>
20015632:	00f71563          	bne	a4,a5,2001563c <__metal_driver_sifive_plic0_num_interrupts+0x20>
/home/nicoladgg/wsFreedomStudio/sifive_hifive1_revb_hello/bsp/build/debug/./metal/machine.h:367
20015636:	03500793          	li	a5,53
2001563a:	a011                	j	2001563e <__metal_driver_sifive_plic0_num_interrupts+0x22>
/home/nicoladgg/wsFreedomStudio/sifive_hifive1_revb_hello/bsp/build/debug/./metal/machine.h:370
2001563c:	4781                	li	a5,0
/home/nicoladgg/wsFreedomStudio/sifive_hifive1_revb_hello/bsp/build/debug/./metal/machine.h:372
2001563e:	853e                	mv	a0,a5
20015640:	4472                	lw	s0,28(sp)
20015642:	6105                	addi	sp,sp,32
20015644:	8082                	ret

20015646 <__metal_driver_sifive_plic0_max_priority>:
__metal_driver_sifive_plic0_max_priority():
/home/nicoladgg/wsFreedomStudio/sifive_hifive1_revb_hello/bsp/build/debug/./metal/machine.h:375
20015646:	1101                	addi	sp,sp,-32
20015648:	ce22                	sw	s0,28(sp)
2001564a:	1000                	addi	s0,sp,32
2001564c:	fea42623          	sw	a0,-20(s0)
/home/nicoladgg/wsFreedomStudio/sifive_hifive1_revb_hello/bsp/build/debug/./metal/machine.h:376
20015650:	fec42703          	lw	a4,-20(s0)
20015654:	800007b7          	lui	a5,0x80000
20015658:	46078793          	addi	a5,a5,1120 # 80000460 <metal_segment_heap_target_end+0xffffece0>
2001565c:	00f71463          	bne	a4,a5,20015664 <__metal_driver_sifive_plic0_max_priority+0x1e>
/home/nicoladgg/wsFreedomStudio/sifive_hifive1_revb_hello/bsp/build/debug/./metal/machine.h:377
20015660:	479d                	li	a5,7
20015662:	a011                	j	20015666 <__metal_driver_sifive_plic0_max_priority+0x20>
/home/nicoladgg/wsFreedomStudio/sifive_hifive1_revb_hello/bsp/build/debug/./metal/machine.h:380
20015664:	4781                	li	a5,0
/home/nicoladgg/wsFreedomStudio/sifive_hifive1_revb_hello/bsp/build/debug/./metal/machine.h:382
20015666:	853e                	mv	a0,a5
20015668:	4472                	lw	s0,28(sp)
2001566a:	6105                	addi	sp,sp,32
2001566c:	8082                	ret

2001566e <__metal_driver_sifive_plic0_interrupt_parents>:
__metal_driver_sifive_plic0_interrupt_parents():
/home/nicoladgg/wsFreedomStudio/sifive_hifive1_revb_hello/bsp/build/debug/./metal/machine.h:385
2001566e:	1101                	addi	sp,sp,-32
20015670:	ce22                	sw	s0,28(sp)
20015672:	1000                	addi	s0,sp,32
20015674:	fea42623          	sw	a0,-20(s0)
20015678:	feb42423          	sw	a1,-24(s0)
/home/nicoladgg/wsFreedomStudio/sifive_hifive1_revb_hello/bsp/build/debug/./metal/machine.h:386
2001567c:	fe842783          	lw	a5,-24(s0)
20015680:	e791                	bnez	a5,2001568c <__metal_driver_sifive_plic0_interrupt_parents+0x1e>
/home/nicoladgg/wsFreedomStudio/sifive_hifive1_revb_hello/bsp/build/debug/./metal/machine.h:387
20015682:	800007b7          	lui	a5,0x80000
20015686:	09078793          	addi	a5,a5,144 # 80000090 <metal_segment_heap_target_end+0xffffe910>
2001568a:	a011                	j	2001568e <__metal_driver_sifive_plic0_interrupt_parents+0x20>
/home/nicoladgg/wsFreedomStudio/sifive_hifive1_revb_hello/bsp/build/debug/./metal/machine.h:390
2001568c:	4781                	li	a5,0
/home/nicoladgg/wsFreedomStudio/sifive_hifive1_revb_hello/bsp/build/debug/./metal/machine.h:392
2001568e:	853e                	mv	a0,a5
20015690:	4472                	lw	s0,28(sp)
20015692:	6105                	addi	sp,sp,32
20015694:	8082                	ret

20015696 <__metal_driver_sifive_plic0_interrupt_lines>:
__metal_driver_sifive_plic0_interrupt_lines():
/home/nicoladgg/wsFreedomStudio/sifive_hifive1_revb_hello/bsp/build/debug/./metal/machine.h:395
20015696:	1101                	addi	sp,sp,-32
20015698:	ce22                	sw	s0,28(sp)
2001569a:	1000                	addi	s0,sp,32
2001569c:	fea42623          	sw	a0,-20(s0)
200156a0:	feb42423          	sw	a1,-24(s0)
/home/nicoladgg/wsFreedomStudio/sifive_hifive1_revb_hello/bsp/build/debug/./metal/machine.h:396
200156a4:	fe842783          	lw	a5,-24(s0)
200156a8:	e399                	bnez	a5,200156ae <__metal_driver_sifive_plic0_interrupt_lines+0x18>
/home/nicoladgg/wsFreedomStudio/sifive_hifive1_revb_hello/bsp/build/debug/./metal/machine.h:397
200156aa:	47ad                	li	a5,11
200156ac:	a011                	j	200156b0 <__metal_driver_sifive_plic0_interrupt_lines+0x1a>
/home/nicoladgg/wsFreedomStudio/sifive_hifive1_revb_hello/bsp/build/debug/./metal/machine.h:400
200156ae:	4781                	li	a5,0
/home/nicoladgg/wsFreedomStudio/sifive_hifive1_revb_hello/bsp/build/debug/./metal/machine.h:402
200156b0:	853e                	mv	a0,a5
200156b2:	4472                	lw	s0,28(sp)
200156b4:	6105                	addi	sp,sp,32
200156b6:	8082                	ret

200156b8 <__metal_driver_sifive_plic0_context_ids>:
__metal_driver_sifive_plic0_context_ids():
/home/nicoladgg/wsFreedomStudio/sifive_hifive1_revb_hello/bsp/build/debug/./metal/machine.h:405
200156b8:	1101                	addi	sp,sp,-32
200156ba:	ce22                	sw	s0,28(sp)
200156bc:	1000                	addi	s0,sp,32
200156be:	fea42623          	sw	a0,-20(s0)
/home/nicoladgg/wsFreedomStudio/sifive_hifive1_revb_hello/bsp/build/debug/./metal/machine.h:406
200156c2:	fec42783          	lw	a5,-20(s0)
200156c6:	e399                	bnez	a5,200156cc <__metal_driver_sifive_plic0_context_ids+0x14>
/home/nicoladgg/wsFreedomStudio/sifive_hifive1_revb_hello/bsp/build/debug/./metal/machine.h:407
200156c8:	4781                	li	a5,0
200156ca:	a011                	j	200156ce <__metal_driver_sifive_plic0_context_ids+0x16>
/home/nicoladgg/wsFreedomStudio/sifive_hifive1_revb_hello/bsp/build/debug/./metal/machine.h:410
200156cc:	57fd                	li	a5,-1
/home/nicoladgg/wsFreedomStudio/sifive_hifive1_revb_hello/bsp/build/debug/./metal/machine.h:412
200156ce:	853e                	mv	a0,a5
200156d0:	4472                	lw	s0,28(sp)
200156d2:	6105                	addi	sp,sp,32
200156d4:	8082                	ret

200156d6 <__metal_plic0_claim_interrupt>:
__metal_plic0_claim_interrupt():
/home/nicoladgg/wsFreedomStudio/sifive_hifive1_revb_hello/freedom-metal/src/drivers/riscv_plic0.c:18
200156d6:	7179                	addi	sp,sp,-48
200156d8:	d606                	sw	ra,44(sp)
200156da:	d422                	sw	s0,40(sp)
200156dc:	1800                	addi	s0,sp,48
200156de:	fca42e23          	sw	a0,-36(s0)
200156e2:	fcb42c23          	sw	a1,-40(s0)
/home/nicoladgg/wsFreedomStudio/sifive_hifive1_revb_hello/freedom-metal/src/drivers/riscv_plic0.c:19
200156e6:	fdc42503          	lw	a0,-36(s0)
200156ea:	3721                	jal	200155f2 <__metal_driver_sifive_plic0_control_base>
200156ec:	fea42623          	sw	a0,-20(s0)
/home/nicoladgg/wsFreedomStudio/sifive_hifive1_revb_hello/freedom-metal/src/drivers/riscv_plic0.c:21
200156f0:	fd842783          	lw	a5,-40(s0)
200156f4:	00c79713          	slli	a4,a5,0xc
200156f8:	fec42783          	lw	a5,-20(s0)
200156fc:	973e                	add	a4,a4,a5
200156fe:	002007b7          	lui	a5,0x200
20015702:	0791                	addi	a5,a5,4
20015704:	97ba                	add	a5,a5,a4
20015706:	439c                	lw	a5,0(a5)
/home/nicoladgg/wsFreedomStudio/sifive_hifive1_revb_hello/freedom-metal/src/drivers/riscv_plic0.c:25
20015708:	853e                	mv	a0,a5
2001570a:	50b2                	lw	ra,44(sp)
2001570c:	5422                	lw	s0,40(sp)
2001570e:	6145                	addi	sp,sp,48
20015710:	8082                	ret

20015712 <__metal_plic0_complete_interrupt>:
__metal_plic0_complete_interrupt():
/home/nicoladgg/wsFreedomStudio/sifive_hifive1_revb_hello/freedom-metal/src/drivers/riscv_plic0.c:28
20015712:	7179                	addi	sp,sp,-48
20015714:	d606                	sw	ra,44(sp)
20015716:	d422                	sw	s0,40(sp)
20015718:	1800                	addi	s0,sp,48
2001571a:	fca42e23          	sw	a0,-36(s0)
2001571e:	fcb42c23          	sw	a1,-40(s0)
20015722:	fcc42a23          	sw	a2,-44(s0)
/home/nicoladgg/wsFreedomStudio/sifive_hifive1_revb_hello/freedom-metal/src/drivers/riscv_plic0.c:29
20015726:	fdc42503          	lw	a0,-36(s0)
2001572a:	35e1                	jal	200155f2 <__metal_driver_sifive_plic0_control_base>
2001572c:	fea42623          	sw	a0,-20(s0)
/home/nicoladgg/wsFreedomStudio/sifive_hifive1_revb_hello/freedom-metal/src/drivers/riscv_plic0.c:31
20015730:	fd842783          	lw	a5,-40(s0)
20015734:	00c79713          	slli	a4,a5,0xc
20015738:	fec42783          	lw	a5,-20(s0)
2001573c:	973e                	add	a4,a4,a5
2001573e:	002007b7          	lui	a5,0x200
20015742:	0791                	addi	a5,a5,4
20015744:	97ba                	add	a5,a5,a4
20015746:	873e                	mv	a4,a5
/home/nicoladgg/wsFreedomStudio/sifive_hifive1_revb_hello/freedom-metal/src/drivers/riscv_plic0.c:34
20015748:	fd442783          	lw	a5,-44(s0)
2001574c:	c31c                	sw	a5,0(a4)
/home/nicoladgg/wsFreedomStudio/sifive_hifive1_revb_hello/freedom-metal/src/drivers/riscv_plic0.c:35
2001574e:	0001                	nop
20015750:	50b2                	lw	ra,44(sp)
20015752:	5422                	lw	s0,40(sp)
20015754:	6145                	addi	sp,sp,48
20015756:	8082                	ret

20015758 <__metal_plic0_set_threshold>:
__metal_plic0_set_threshold():
/home/nicoladgg/wsFreedomStudio/sifive_hifive1_revb_hello/freedom-metal/src/drivers/riscv_plic0.c:38
20015758:	7179                	addi	sp,sp,-48
2001575a:	d606                	sw	ra,44(sp)
2001575c:	d422                	sw	s0,40(sp)
2001575e:	1800                	addi	s0,sp,48
20015760:	fca42e23          	sw	a0,-36(s0)
20015764:	fcb42c23          	sw	a1,-40(s0)
20015768:	fcc42a23          	sw	a2,-44(s0)
/home/nicoladgg/wsFreedomStudio/sifive_hifive1_revb_hello/freedom-metal/src/drivers/riscv_plic0.c:40
2001576c:	fdc42503          	lw	a0,-36(s0)
20015770:	3549                	jal	200155f2 <__metal_driver_sifive_plic0_control_base>
20015772:	fea42623          	sw	a0,-20(s0)
/home/nicoladgg/wsFreedomStudio/sifive_hifive1_revb_hello/freedom-metal/src/drivers/riscv_plic0.c:41
20015776:	fd842783          	lw	a5,-40(s0)
2001577a:	00c79713          	slli	a4,a5,0xc
2001577e:	fec42783          	lw	a5,-20(s0)
20015782:	973e                	add	a4,a4,a5
20015784:	002007b7          	lui	a5,0x200
20015788:	97ba                	add	a5,a5,a4
2001578a:	873e                	mv	a4,a5
/home/nicoladgg/wsFreedomStudio/sifive_hifive1_revb_hello/freedom-metal/src/drivers/riscv_plic0.c:44
2001578c:	fd442783          	lw	a5,-44(s0)
20015790:	c31c                	sw	a5,0(a4)
/home/nicoladgg/wsFreedomStudio/sifive_hifive1_revb_hello/freedom-metal/src/drivers/riscv_plic0.c:45
20015792:	4781                	li	a5,0
/home/nicoladgg/wsFreedomStudio/sifive_hifive1_revb_hello/freedom-metal/src/drivers/riscv_plic0.c:46
20015794:	853e                	mv	a0,a5
20015796:	50b2                	lw	ra,44(sp)
20015798:	5422                	lw	s0,40(sp)
2001579a:	6145                	addi	sp,sp,48
2001579c:	8082                	ret

2001579e <__metal_plic0_get_threshold>:
__metal_plic0_get_threshold():
/home/nicoladgg/wsFreedomStudio/sifive_hifive1_revb_hello/freedom-metal/src/drivers/riscv_plic0.c:49
2001579e:	7179                	addi	sp,sp,-48
200157a0:	d606                	sw	ra,44(sp)
200157a2:	d422                	sw	s0,40(sp)
200157a4:	1800                	addi	s0,sp,48
200157a6:	fca42e23          	sw	a0,-36(s0)
200157aa:	fcb42c23          	sw	a1,-40(s0)
/home/nicoladgg/wsFreedomStudio/sifive_hifive1_revb_hello/freedom-metal/src/drivers/riscv_plic0.c:51
200157ae:	fdc42503          	lw	a0,-36(s0)
200157b2:	3581                	jal	200155f2 <__metal_driver_sifive_plic0_control_base>
200157b4:	fea42623          	sw	a0,-20(s0)
/home/nicoladgg/wsFreedomStudio/sifive_hifive1_revb_hello/freedom-metal/src/drivers/riscv_plic0.c:52
200157b8:	fd842783          	lw	a5,-40(s0)
200157bc:	00c79713          	slli	a4,a5,0xc
200157c0:	fec42783          	lw	a5,-20(s0)
200157c4:	973e                	add	a4,a4,a5
200157c6:	002007b7          	lui	a5,0x200
200157ca:	97ba                	add	a5,a5,a4
200157cc:	439c                	lw	a5,0(a5)
/home/nicoladgg/wsFreedomStudio/sifive_hifive1_revb_hello/freedom-metal/src/drivers/riscv_plic0.c:56
200157ce:	853e                	mv	a0,a5
200157d0:	50b2                	lw	ra,44(sp)
200157d2:	5422                	lw	s0,40(sp)
200157d4:	6145                	addi	sp,sp,48
200157d6:	8082                	ret

200157d8 <__metal_driver_riscv_plic0_set_priority>:
__metal_driver_riscv_plic0_set_priority():
/home/nicoladgg/wsFreedomStudio/sifive_hifive1_revb_hello/freedom-metal/src/drivers/riscv_plic0.c:59
200157d8:	7179                	addi	sp,sp,-48
200157da:	d606                	sw	ra,44(sp)
200157dc:	d422                	sw	s0,40(sp)
200157de:	1800                	addi	s0,sp,48
200157e0:	fca42e23          	sw	a0,-36(s0)
200157e4:	fcb42c23          	sw	a1,-40(s0)
200157e8:	fcc42a23          	sw	a2,-44(s0)
/home/nicoladgg/wsFreedomStudio/sifive_hifive1_revb_hello/freedom-metal/src/drivers/riscv_plic0.c:60
200157ec:	fdc42503          	lw	a0,-36(s0)
200157f0:	3509                	jal	200155f2 <__metal_driver_sifive_plic0_control_base>
200157f2:	fea42623          	sw	a0,-20(s0)
/home/nicoladgg/wsFreedomStudio/sifive_hifive1_revb_hello/freedom-metal/src/drivers/riscv_plic0.c:62
200157f6:	fdc42503          	lw	a0,-36(s0)
200157fa:	35b1                	jal	20015646 <__metal_driver_sifive_plic0_max_priority>
200157fc:	87aa                	mv	a5,a0
200157fe:	fef42423          	sw	a5,-24(s0)
/home/nicoladgg/wsFreedomStudio/sifive_hifive1_revb_hello/freedom-metal/src/drivers/riscv_plic0.c:64
20015802:	fe842783          	lw	a5,-24(s0)
20015806:	c785                	beqz	a5,2001582e <__metal_driver_riscv_plic0_set_priority+0x56>
/home/nicoladgg/wsFreedomStudio/sifive_hifive1_revb_hello/freedom-metal/src/drivers/riscv_plic0.c:64 (discriminator 1)
20015808:	fd442703          	lw	a4,-44(s0)
2001580c:	fe842783          	lw	a5,-24(s0)
20015810:	00f77f63          	bgeu	a4,a5,2001582e <__metal_driver_riscv_plic0_set_priority+0x56>
/home/nicoladgg/wsFreedomStudio/sifive_hifive1_revb_hello/freedom-metal/src/drivers/riscv_plic0.c:65
20015814:	fd842783          	lw	a5,-40(s0)
20015818:	078a                	slli	a5,a5,0x2
2001581a:	873e                	mv	a4,a5
2001581c:	fec42783          	lw	a5,-20(s0)
20015820:	97ba                	add	a5,a5,a4
20015822:	873e                	mv	a4,a5
/home/nicoladgg/wsFreedomStudio/sifive_hifive1_revb_hello/freedom-metal/src/drivers/riscv_plic0.c:67
20015824:	fd442783          	lw	a5,-44(s0)
20015828:	c31c                	sw	a5,0(a4)
/home/nicoladgg/wsFreedomStudio/sifive_hifive1_revb_hello/freedom-metal/src/drivers/riscv_plic0.c:69
2001582a:	4781                	li	a5,0
2001582c:	a011                	j	20015830 <__metal_driver_riscv_plic0_set_priority+0x58>
/home/nicoladgg/wsFreedomStudio/sifive_hifive1_revb_hello/freedom-metal/src/drivers/riscv_plic0.c:71
2001582e:	57fd                	li	a5,-1
/home/nicoladgg/wsFreedomStudio/sifive_hifive1_revb_hello/freedom-metal/src/drivers/riscv_plic0.c:72
20015830:	853e                	mv	a0,a5
20015832:	50b2                	lw	ra,44(sp)
20015834:	5422                	lw	s0,40(sp)
20015836:	6145                	addi	sp,sp,48
20015838:	8082                	ret

2001583a <__metal_driver_riscv_plic0_get_priority>:
__metal_driver_riscv_plic0_get_priority():
/home/nicoladgg/wsFreedomStudio/sifive_hifive1_revb_hello/freedom-metal/src/drivers/riscv_plic0.c:76
2001583a:	7179                	addi	sp,sp,-48
2001583c:	d606                	sw	ra,44(sp)
2001583e:	d422                	sw	s0,40(sp)
20015840:	1800                	addi	s0,sp,48
20015842:	fca42e23          	sw	a0,-36(s0)
20015846:	fcb42c23          	sw	a1,-40(s0)
/home/nicoladgg/wsFreedomStudio/sifive_hifive1_revb_hello/freedom-metal/src/drivers/riscv_plic0.c:78
2001584a:	fdc42503          	lw	a0,-36(s0)
2001584e:	3355                	jal	200155f2 <__metal_driver_sifive_plic0_control_base>
20015850:	fea42623          	sw	a0,-20(s0)
/home/nicoladgg/wsFreedomStudio/sifive_hifive1_revb_hello/freedom-metal/src/drivers/riscv_plic0.c:80
20015854:	fd842783          	lw	a5,-40(s0)
20015858:	078a                	slli	a5,a5,0x2
2001585a:	873e                	mv	a4,a5
2001585c:	fec42783          	lw	a5,-20(s0)
20015860:	97ba                	add	a5,a5,a4
20015862:	439c                	lw	a5,0(a5)
/home/nicoladgg/wsFreedomStudio/sifive_hifive1_revb_hello/freedom-metal/src/drivers/riscv_plic0.c:83
20015864:	853e                	mv	a0,a5
20015866:	50b2                	lw	ra,44(sp)
20015868:	5422                	lw	s0,40(sp)
2001586a:	6145                	addi	sp,sp,48
2001586c:	8082                	ret

2001586e <__metal_plic0_enable>:
__metal_plic0_enable():
/home/nicoladgg/wsFreedomStudio/sifive_hifive1_revb_hello/freedom-metal/src/drivers/riscv_plic0.c:86
2001586e:	7179                	addi	sp,sp,-48
20015870:	d606                	sw	ra,44(sp)
20015872:	d422                	sw	s0,40(sp)
20015874:	1800                	addi	s0,sp,48
20015876:	fca42e23          	sw	a0,-36(s0)
2001587a:	fcb42c23          	sw	a1,-40(s0)
2001587e:	fcc42a23          	sw	a2,-44(s0)
20015882:	fcd42823          	sw	a3,-48(s0)
/home/nicoladgg/wsFreedomStudio/sifive_hifive1_revb_hello/freedom-metal/src/drivers/riscv_plic0.c:88
20015886:	fdc42503          	lw	a0,-36(s0)
2001588a:	33a5                	jal	200155f2 <__metal_driver_sifive_plic0_control_base>
2001588c:	fea42623          	sw	a0,-20(s0)
/home/nicoladgg/wsFreedomStudio/sifive_hifive1_revb_hello/freedom-metal/src/drivers/riscv_plic0.c:91
20015890:	fd842783          	lw	a5,-40(s0)
20015894:	00779713          	slli	a4,a5,0x7
20015898:	fec42783          	lw	a5,-20(s0)
2001589c:	97ba                	add	a5,a5,a4
2001589e:	fd442703          	lw	a4,-44(s0)
200158a2:	8715                	srai	a4,a4,0x5
200158a4:	070a                	slli	a4,a4,0x2
200158a6:	973e                	add	a4,a4,a5
200158a8:	6789                	lui	a5,0x2
200158aa:	97ba                	add	a5,a5,a4
200158ac:	439c                	lw	a5,0(a5)
200158ae:	fef42423          	sw	a5,-24(s0)
/home/nicoladgg/wsFreedomStudio/sifive_hifive1_revb_hello/freedom-metal/src/drivers/riscv_plic0.c:100
200158b2:	fd042783          	lw	a5,-48(s0)
200158b6:	cf81                	beqz	a5,200158ce <__metal_plic0_enable+0x60>
/home/nicoladgg/wsFreedomStudio/sifive_hifive1_revb_hello/freedom-metal/src/drivers/riscv_plic0.c:99 (discriminator 1)
200158b8:	fd442783          	lw	a5,-44(s0)
200158bc:	8bfd                	andi	a5,a5,31
200158be:	4705                	li	a4,1
200158c0:	00f717b3          	sll	a5,a4,a5
200158c4:	873e                	mv	a4,a5
/home/nicoladgg/wsFreedomStudio/sifive_hifive1_revb_hello/freedom-metal/src/drivers/riscv_plic0.c:100 (discriminator 1)
200158c6:	fe842783          	lw	a5,-24(s0)
200158ca:	8fd9                	or	a5,a5,a4
200158cc:	a829                	j	200158e6 <__metal_plic0_enable+0x78>
/home/nicoladgg/wsFreedomStudio/sifive_hifive1_revb_hello/freedom-metal/src/drivers/riscv_plic0.c:100 (discriminator 2)
200158ce:	fd442783          	lw	a5,-44(s0)
200158d2:	8bfd                	andi	a5,a5,31
200158d4:	4705                	li	a4,1
200158d6:	00f717b3          	sll	a5,a4,a5
200158da:	fff7c793          	not	a5,a5
200158de:	873e                	mv	a4,a5
200158e0:	fe842783          	lw	a5,-24(s0)
200158e4:	8ff9                	and	a5,a5,a4
/home/nicoladgg/wsFreedomStudio/sifive_hifive1_revb_hello/freedom-metal/src/drivers/riscv_plic0.c:95
200158e6:	fd842703          	lw	a4,-40(s0)
200158ea:	00771693          	slli	a3,a4,0x7
200158ee:	fec42703          	lw	a4,-20(s0)
200158f2:	9736                	add	a4,a4,a3
200158f4:	fd442683          	lw	a3,-44(s0)
200158f8:	8695                	srai	a3,a3,0x5
200158fa:	068a                	slli	a3,a3,0x2
200158fc:	96ba                	add	a3,a3,a4
200158fe:	6709                	lui	a4,0x2
20015900:	9736                	add	a4,a4,a3
/home/nicoladgg/wsFreedomStudio/sifive_hifive1_revb_hello/freedom-metal/src/drivers/riscv_plic0.c:98
20015902:	c31c                	sw	a5,0(a4)
/home/nicoladgg/wsFreedomStudio/sifive_hifive1_revb_hello/freedom-metal/src/drivers/riscv_plic0.c:102
20015904:	4781                	li	a5,0
/home/nicoladgg/wsFreedomStudio/sifive_hifive1_revb_hello/freedom-metal/src/drivers/riscv_plic0.c:103
20015906:	853e                	mv	a0,a5
20015908:	50b2                	lw	ra,44(sp)
2001590a:	5422                	lw	s0,40(sp)
2001590c:	6145                	addi	sp,sp,48
2001590e:	8082                	ret

20015910 <__metal_plic0_default_handler>:
__metal_plic0_default_handler():
/home/nicoladgg/wsFreedomStudio/sifive_hifive1_revb_hello/freedom-metal/src/drivers/riscv_plic0.c:105
20015910:	1101                	addi	sp,sp,-32
20015912:	ce06                	sw	ra,28(sp)
20015914:	cc22                	sw	s0,24(sp)
20015916:	1000                	addi	s0,sp,32
20015918:	fea42623          	sw	a0,-20(s0)
2001591c:	feb42423          	sw	a1,-24(s0)
20015920:	12c00513          	li	a0,300
20015924:	3bc020ef          	jal	ra,20017ce0 <metal_shutdown>

20015928 <__metal_plic0_handler>:
__metal_plic0_handler():
/home/nicoladgg/wsFreedomStudio/sifive_hifive1_revb_hello/freedom-metal/src/drivers/riscv_plic0.c:107
20015928:	7179                	addi	sp,sp,-48
2001592a:	d606                	sw	ra,44(sp)
2001592c:	d422                	sw	s0,40(sp)
2001592e:	1800                	addi	s0,sp,48
20015930:	fca42e23          	sw	a0,-36(s0)
20015934:	fcb42c23          	sw	a1,-40(s0)
/home/nicoladgg/wsFreedomStudio/sifive_hifive1_revb_hello/freedom-metal/src/drivers/riscv_plic0.c:108
20015938:	fd842783          	lw	a5,-40(s0)
2001593c:	fef42623          	sw	a5,-20(s0)
/home/nicoladgg/wsFreedomStudio/sifive_hifive1_revb_hello/freedom-metal/src/drivers/riscv_plic0.c:110
20015940:	b32fe0ef          	jal	ra,20013c72 <__metal_myhart_id>
20015944:	87aa                	mv	a5,a0
20015946:	853e                	mv	a0,a5
20015948:	3b85                	jal	200156b8 <__metal_driver_sifive_plic0_context_ids>
2001594a:	fea42423          	sw	a0,-24(s0)
/home/nicoladgg/wsFreedomStudio/sifive_hifive1_revb_hello/freedom-metal/src/drivers/riscv_plic0.c:111
2001594e:	fe842583          	lw	a1,-24(s0)
20015952:	fec42503          	lw	a0,-20(s0)
20015956:	3341                	jal	200156d6 <__metal_plic0_claim_interrupt>
20015958:	fea42223          	sw	a0,-28(s0)
/home/nicoladgg/wsFreedomStudio/sifive_hifive1_revb_hello/freedom-metal/src/drivers/riscv_plic0.c:112
2001595c:	fec42503          	lw	a0,-20(s0)
20015960:	cbdff0ef          	jal	ra,2001561c <__metal_driver_sifive_plic0_num_interrupts>
20015964:	87aa                	mv	a5,a0
20015966:	fef42023          	sw	a5,-32(s0)
/home/nicoladgg/wsFreedomStudio/sifive_hifive1_revb_hello/freedom-metal/src/drivers/riscv_plic0.c:115
2001596a:	fe442703          	lw	a4,-28(s0)
2001596e:	fe042783          	lw	a5,-32(s0)
20015972:	04f77263          	bgeu	a4,a5,200159b6 <__metal_plic0_handler+0x8e>
/home/nicoladgg/wsFreedomStudio/sifive_hifive1_revb_hello/freedom-metal/src/drivers/riscv_plic0.c:115 (discriminator 1)
20015976:	fec42703          	lw	a4,-20(s0)
2001597a:	fe442783          	lw	a5,-28(s0)
2001597e:	078a                	slli	a5,a5,0x2
20015980:	97ba                	add	a5,a5,a4
20015982:	479c                	lw	a5,8(a5)
20015984:	cb8d                	beqz	a5,200159b6 <__metal_plic0_handler+0x8e>
/home/nicoladgg/wsFreedomStudio/sifive_hifive1_revb_hello/freedom-metal/src/drivers/riscv_plic0.c:116
20015986:	fec42703          	lw	a4,-20(s0)
2001598a:	fe442783          	lw	a5,-28(s0)
2001598e:	078a                	slli	a5,a5,0x2
20015990:	97ba                	add	a5,a5,a4
20015992:	0087a803          	lw	a6,8(a5) # 2008 <__heap_size+0x1808>
20015996:	fe442603          	lw	a2,-28(s0)
2001599a:	fec42683          	lw	a3,-20(s0)
2001599e:	fe442703          	lw	a4,-28(s0)
200159a2:	87ba                	mv	a5,a4
200159a4:	0786                	slli	a5,a5,0x1
200159a6:	97ba                	add	a5,a5,a4
200159a8:	078e                	slli	a5,a5,0x3
200159aa:	97b6                	add	a5,a5,a3
200159ac:	0f07a783          	lw	a5,240(a5)
200159b0:	85be                	mv	a1,a5
200159b2:	8532                	mv	a0,a2
200159b4:	9802                	jalr	a6
/home/nicoladgg/wsFreedomStudio/sifive_hifive1_revb_hello/freedom-metal/src/drivers/riscv_plic0.c:120
200159b6:	fe442603          	lw	a2,-28(s0)
200159ba:	fe842583          	lw	a1,-24(s0)
200159be:	fec42503          	lw	a0,-20(s0)
200159c2:	3b81                	jal	20015712 <__metal_plic0_complete_interrupt>
/home/nicoladgg/wsFreedomStudio/sifive_hifive1_revb_hello/freedom-metal/src/drivers/riscv_plic0.c:121
200159c4:	0001                	nop
200159c6:	50b2                	lw	ra,44(sp)
200159c8:	5422                	lw	s0,40(sp)
200159ca:	6145                	addi	sp,sp,48
200159cc:	8082                	ret

200159ce <__metal_driver_riscv_plic0_init>:
__metal_driver_riscv_plic0_init():
/home/nicoladgg/wsFreedomStudio/sifive_hifive1_revb_hello/freedom-metal/src/drivers/riscv_plic0.c:123
200159ce:	7139                	addi	sp,sp,-64
200159d0:	de06                	sw	ra,60(sp)
200159d2:	dc22                	sw	s0,56(sp)
200159d4:	0080                	addi	s0,sp,64
200159d6:	fca42623          	sw	a0,-52(s0)
/home/nicoladgg/wsFreedomStudio/sifive_hifive1_revb_hello/freedom-metal/src/drivers/riscv_plic0.c:124
200159da:	fcc42783          	lw	a5,-52(s0)
200159de:	fef42223          	sw	a5,-28(s0)
/home/nicoladgg/wsFreedomStudio/sifive_hifive1_revb_hello/freedom-metal/src/drivers/riscv_plic0.c:126
200159e2:	fe442783          	lw	a5,-28(s0)
200159e6:	43dc                	lw	a5,4(a5)
200159e8:	12079a63          	bnez	a5,20015b1c <__metal_driver_riscv_plic0_init+0x14e>
/home/nicoladgg/wsFreedomStudio/sifive_hifive1_revb_hello/freedom-metal/src/drivers/riscv_plic0.c:130
200159ec:	fe042623          	sw	zero,-20(s0)
200159f0:	aa31                	j	20015b0c <__metal_driver_riscv_plic0_init+0x13e>
/home/nicoladgg/wsFreedomStudio/sifive_hifive1_revb_hello/freedom-metal/src/drivers/riscv_plic0.c:132
200159f2:	fcc42503          	lw	a0,-52(s0)
200159f6:	c27ff0ef          	jal	ra,2001561c <__metal_driver_sifive_plic0_num_interrupts>
200159fa:	fea42023          	sw	a0,-32(s0)
/home/nicoladgg/wsFreedomStudio/sifive_hifive1_revb_hello/freedom-metal/src/drivers/riscv_plic0.c:133
200159fe:	fec42583          	lw	a1,-20(s0)
20015a02:	fcc42503          	lw	a0,-52(s0)
20015a06:	c69ff0ef          	jal	ra,2001566e <__metal_driver_sifive_plic0_interrupt_parents>
20015a0a:	fca42e23          	sw	a0,-36(s0)
/home/nicoladgg/wsFreedomStudio/sifive_hifive1_revb_hello/freedom-metal/src/drivers/riscv_plic0.c:136
20015a0e:	fec42583          	lw	a1,-20(s0)
20015a12:	fcc42503          	lw	a0,-52(s0)
20015a16:	c81ff0ef          	jal	ra,20015696 <__metal_driver_sifive_plic0_interrupt_lines>
20015a1a:	fca42c23          	sw	a0,-40(s0)
/home/nicoladgg/wsFreedomStudio/sifive_hifive1_revb_hello/freedom-metal/src/drivers/riscv_plic0.c:139
20015a1e:	fdc42783          	lw	a5,-36(s0)
20015a22:	439c                	lw	a5,0(a5)
20015a24:	439c                	lw	a5,0(a5)
20015a26:	fdc42503          	lw	a0,-36(s0)
20015a2a:	9782                	jalr	a5
/home/nicoladgg/wsFreedomStudio/sifive_hifive1_revb_hello/freedom-metal/src/drivers/riscv_plic0.c:141
20015a2c:	fe042423          	sw	zero,-24(s0)
20015a30:	a885                	j	20015aa0 <__metal_driver_riscv_plic0_init+0xd2>
/home/nicoladgg/wsFreedomStudio/sifive_hifive1_revb_hello/freedom-metal/src/drivers/riscv_plic0.c:142
20015a32:	4681                	li	a3,0
20015a34:	fe842603          	lw	a2,-24(s0)
20015a38:	fec42583          	lw	a1,-20(s0)
20015a3c:	fe442503          	lw	a0,-28(s0)
20015a40:	353d                	jal	2001586e <__metal_plic0_enable>
/home/nicoladgg/wsFreedomStudio/sifive_hifive1_revb_hello/freedom-metal/src/drivers/riscv_plic0.c:143
20015a42:	fe842703          	lw	a4,-24(s0)
20015a46:	fe042783          	lw	a5,-32(s0)
20015a4a:	04f75663          	bge	a4,a5,20015a96 <__metal_driver_riscv_plic0_init+0xc8>
/home/nicoladgg/wsFreedomStudio/sifive_hifive1_revb_hello/freedom-metal/src/drivers/riscv_plic0.c:144
20015a4e:	4601                	li	a2,0
20015a50:	fe842583          	lw	a1,-24(s0)
20015a54:	fcc42503          	lw	a0,-52(s0)
20015a58:	3341                	jal	200157d8 <__metal_driver_riscv_plic0_set_priority>
/home/nicoladgg/wsFreedomStudio/sifive_hifive1_revb_hello/freedom-metal/src/drivers/riscv_plic0.c:145
20015a5a:	fe442703          	lw	a4,-28(s0)
20015a5e:	fe842783          	lw	a5,-24(s0)
20015a62:	078a                	slli	a5,a5,0x2
20015a64:	97ba                	add	a5,a5,a4
20015a66:	0007a423          	sw	zero,8(a5)
/home/nicoladgg/wsFreedomStudio/sifive_hifive1_revb_hello/freedom-metal/src/drivers/riscv_plic0.c:146
20015a6a:	fe442683          	lw	a3,-28(s0)
20015a6e:	fe842703          	lw	a4,-24(s0)
20015a72:	87ba                	mv	a5,a4
20015a74:	0786                	slli	a5,a5,0x1
20015a76:	97ba                	add	a5,a5,a4
20015a78:	078e                	slli	a5,a5,0x3
20015a7a:	97b6                	add	a5,a5,a3
20015a7c:	0e07a623          	sw	zero,236(a5)
/home/nicoladgg/wsFreedomStudio/sifive_hifive1_revb_hello/freedom-metal/src/drivers/riscv_plic0.c:147
20015a80:	fe442683          	lw	a3,-28(s0)
20015a84:	fe842703          	lw	a4,-24(s0)
20015a88:	87ba                	mv	a5,a4
20015a8a:	0786                	slli	a5,a5,0x1
20015a8c:	97ba                	add	a5,a5,a4
20015a8e:	078e                	slli	a5,a5,0x3
20015a90:	97b6                	add	a5,a5,a3
20015a92:	0e07a823          	sw	zero,240(a5)
/home/nicoladgg/wsFreedomStudio/sifive_hifive1_revb_hello/freedom-metal/src/drivers/riscv_plic0.c:141 (discriminator 2)
20015a96:	fe842783          	lw	a5,-24(s0)
20015a9a:	0785                	addi	a5,a5,1
20015a9c:	fef42423          	sw	a5,-24(s0)
/home/nicoladgg/wsFreedomStudio/sifive_hifive1_revb_hello/freedom-metal/src/drivers/riscv_plic0.c:141 (discriminator 1)
20015aa0:	fe842703          	lw	a4,-24(s0)
20015aa4:	3ff00793          	li	a5,1023
20015aa8:	f8e7d5e3          	bge	a5,a4,20015a32 <__metal_driver_riscv_plic0_init+0x64>
/home/nicoladgg/wsFreedomStudio/sifive_hifive1_revb_hello/freedom-metal/src/drivers/riscv_plic0.c:151 (discriminator 2)
20015aac:	4601                	li	a2,0
20015aae:	fec42583          	lw	a1,-20(s0)
20015ab2:	fcc42503          	lw	a0,-52(s0)
20015ab6:	ca3ff0ef          	jal	ra,20015758 <__metal_plic0_set_threshold>
/home/nicoladgg/wsFreedomStudio/sifive_hifive1_revb_hello/freedom-metal/src/drivers/riscv_plic0.c:154 (discriminator 2)
20015aba:	fdc42783          	lw	a5,-36(s0)
20015abe:	439c                	lw	a5,0(a5)
20015ac0:	4fdc                	lw	a5,28(a5)
20015ac2:	fe442683          	lw	a3,-28(s0)
20015ac6:	4601                	li	a2,0
20015ac8:	fd842583          	lw	a1,-40(s0)
20015acc:	fdc42503          	lw	a0,-36(s0)
20015ad0:	9782                	jalr	a5
/home/nicoladgg/wsFreedomStudio/sifive_hifive1_revb_hello/freedom-metal/src/drivers/riscv_plic0.c:156 (discriminator 2)
20015ad2:	fdc42783          	lw	a5,-36(s0)
20015ad6:	439c                	lw	a5,0(a5)
20015ad8:	4fd8                	lw	a4,28(a5)
20015ada:	fe442683          	lw	a3,-28(s0)
20015ade:	200167b7          	lui	a5,0x20016
20015ae2:	92878613          	addi	a2,a5,-1752 # 20015928 <__metal_plic0_handler>
20015ae6:	fd842583          	lw	a1,-40(s0)
20015aea:	fdc42503          	lw	a0,-36(s0)
20015aee:	9702                	jalr	a4
/home/nicoladgg/wsFreedomStudio/sifive_hifive1_revb_hello/freedom-metal/src/drivers/riscv_plic0.c:159 (discriminator 2)
20015af0:	fdc42783          	lw	a5,-36(s0)
20015af4:	439c                	lw	a5,0(a5)
20015af6:	53dc                	lw	a5,36(a5)
20015af8:	fd842583          	lw	a1,-40(s0)
20015afc:	fdc42503          	lw	a0,-36(s0)
20015b00:	9782                	jalr	a5
/home/nicoladgg/wsFreedomStudio/sifive_hifive1_revb_hello/freedom-metal/src/drivers/riscv_plic0.c:130 (discriminator 2)
20015b02:	fec42783          	lw	a5,-20(s0)
20015b06:	0785                	addi	a5,a5,1
20015b08:	fef42623          	sw	a5,-20(s0)
/home/nicoladgg/wsFreedomStudio/sifive_hifive1_revb_hello/freedom-metal/src/drivers/riscv_plic0.c:130 (discriminator 1)
20015b0c:	fec42783          	lw	a5,-20(s0)
20015b10:	eef051e3          	blez	a5,200159f2 <__metal_driver_riscv_plic0_init+0x24>
/home/nicoladgg/wsFreedomStudio/sifive_hifive1_revb_hello/freedom-metal/src/drivers/riscv_plic0.c:161
20015b14:	fe442783          	lw	a5,-28(s0)
20015b18:	4705                	li	a4,1
20015b1a:	c3d8                	sw	a4,4(a5)
/home/nicoladgg/wsFreedomStudio/sifive_hifive1_revb_hello/freedom-metal/src/drivers/riscv_plic0.c:163
20015b1c:	0001                	nop
20015b1e:	50f2                	lw	ra,60(sp)
20015b20:	5462                	lw	s0,56(sp)
20015b22:	6121                	addi	sp,sp,64
20015b24:	8082                	ret

20015b26 <__metal_driver_riscv_plic0_register>:
__metal_driver_riscv_plic0_register():
/home/nicoladgg/wsFreedomStudio/sifive_hifive1_revb_hello/freedom-metal/src/drivers/riscv_plic0.c:167
20015b26:	7179                	addi	sp,sp,-48
20015b28:	d606                	sw	ra,44(sp)
20015b2a:	d422                	sw	s0,40(sp)
20015b2c:	1800                	addi	s0,sp,48
20015b2e:	fca42e23          	sw	a0,-36(s0)
20015b32:	fcb42c23          	sw	a1,-40(s0)
20015b36:	fcc42a23          	sw	a2,-44(s0)
20015b3a:	fcd42823          	sw	a3,-48(s0)
/home/nicoladgg/wsFreedomStudio/sifive_hifive1_revb_hello/freedom-metal/src/drivers/riscv_plic0.c:168
20015b3e:	fdc42783          	lw	a5,-36(s0)
20015b42:	fef42623          	sw	a5,-20(s0)
/home/nicoladgg/wsFreedomStudio/sifive_hifive1_revb_hello/freedom-metal/src/drivers/riscv_plic0.c:170
20015b46:	fdc42503          	lw	a0,-36(s0)
20015b4a:	ad3ff0ef          	jal	ra,2001561c <__metal_driver_sifive_plic0_num_interrupts>
20015b4e:	872a                	mv	a4,a0
20015b50:	fd842783          	lw	a5,-40(s0)
20015b54:	00e7c463          	blt	a5,a4,20015b5c <__metal_driver_riscv_plic0_register+0x36>
/home/nicoladgg/wsFreedomStudio/sifive_hifive1_revb_hello/freedom-metal/src/drivers/riscv_plic0.c:171
20015b58:	57fd                	li	a5,-1
20015b5a:	a051                	j	20015bde <__metal_driver_riscv_plic0_register+0xb8>
/home/nicoladgg/wsFreedomStudio/sifive_hifive1_revb_hello/freedom-metal/src/drivers/riscv_plic0.c:174
20015b5c:	fd442783          	lw	a5,-44(s0)
20015b60:	cf9d                	beqz	a5,20015b9e <__metal_driver_riscv_plic0_register+0x78>
/home/nicoladgg/wsFreedomStudio/sifive_hifive1_revb_hello/freedom-metal/src/drivers/riscv_plic0.c:175
20015b62:	4609                	li	a2,2
20015b64:	fd842583          	lw	a1,-40(s0)
20015b68:	fdc42503          	lw	a0,-36(s0)
20015b6c:	c6dff0ef          	jal	ra,200157d8 <__metal_driver_riscv_plic0_set_priority>
/home/nicoladgg/wsFreedomStudio/sifive_hifive1_revb_hello/freedom-metal/src/drivers/riscv_plic0.c:176
20015b70:	fec42703          	lw	a4,-20(s0)
20015b74:	fd842783          	lw	a5,-40(s0)
20015b78:	078a                	slli	a5,a5,0x2
20015b7a:	97ba                	add	a5,a5,a4
20015b7c:	fd442703          	lw	a4,-44(s0)
20015b80:	c798                	sw	a4,8(a5)
/home/nicoladgg/wsFreedomStudio/sifive_hifive1_revb_hello/freedom-metal/src/drivers/riscv_plic0.c:177
20015b82:	fec42683          	lw	a3,-20(s0)
20015b86:	fd842703          	lw	a4,-40(s0)
20015b8a:	87ba                	mv	a5,a4
20015b8c:	0786                	slli	a5,a5,0x1
20015b8e:	97ba                	add	a5,a5,a4
20015b90:	078e                	slli	a5,a5,0x3
20015b92:	97b6                	add	a5,a5,a3
20015b94:	fd042703          	lw	a4,-48(s0)
20015b98:	0ee7a823          	sw	a4,240(a5)
20015b9c:	a081                	j	20015bdc <__metal_driver_riscv_plic0_register+0xb6>
/home/nicoladgg/wsFreedomStudio/sifive_hifive1_revb_hello/freedom-metal/src/drivers/riscv_plic0.c:179
20015b9e:	4605                	li	a2,1
20015ba0:	fd842583          	lw	a1,-40(s0)
20015ba4:	fdc42503          	lw	a0,-36(s0)
20015ba8:	c31ff0ef          	jal	ra,200157d8 <__metal_driver_riscv_plic0_set_priority>
/home/nicoladgg/wsFreedomStudio/sifive_hifive1_revb_hello/freedom-metal/src/drivers/riscv_plic0.c:180
20015bac:	fec42703          	lw	a4,-20(s0)
20015bb0:	fd842783          	lw	a5,-40(s0)
20015bb4:	078a                	slli	a5,a5,0x2
20015bb6:	97ba                	add	a5,a5,a4
20015bb8:	20016737          	lui	a4,0x20016
20015bbc:	91070713          	addi	a4,a4,-1776 # 20015910 <__metal_plic0_default_handler>
20015bc0:	c798                	sw	a4,8(a5)
/home/nicoladgg/wsFreedomStudio/sifive_hifive1_revb_hello/freedom-metal/src/drivers/riscv_plic0.c:181
20015bc2:	fec42683          	lw	a3,-20(s0)
20015bc6:	fd842703          	lw	a4,-40(s0)
20015bca:	87ba                	mv	a5,a4
20015bcc:	0786                	slli	a5,a5,0x1
20015bce:	97ba                	add	a5,a5,a4
20015bd0:	078e                	slli	a5,a5,0x3
20015bd2:	97b6                	add	a5,a5,a3
20015bd4:	fd042703          	lw	a4,-48(s0)
20015bd8:	0ee7a623          	sw	a4,236(a5)
/home/nicoladgg/wsFreedomStudio/sifive_hifive1_revb_hello/freedom-metal/src/drivers/riscv_plic0.c:184
20015bdc:	4781                	li	a5,0
/home/nicoladgg/wsFreedomStudio/sifive_hifive1_revb_hello/freedom-metal/src/drivers/riscv_plic0.c:185
20015bde:	853e                	mv	a0,a5
20015be0:	50b2                	lw	ra,44(sp)
20015be2:	5422                	lw	s0,40(sp)
20015be4:	6145                	addi	sp,sp,48
20015be6:	8082                	ret

20015be8 <__metal_driver_riscv_plic0_enable>:
__metal_driver_riscv_plic0_enable():
/home/nicoladgg/wsFreedomStudio/sifive_hifive1_revb_hello/freedom-metal/src/drivers/riscv_plic0.c:188
20015be8:	7179                	addi	sp,sp,-48
20015bea:	d606                	sw	ra,44(sp)
20015bec:	d422                	sw	s0,40(sp)
20015bee:	1800                	addi	s0,sp,48
20015bf0:	fca42e23          	sw	a0,-36(s0)
20015bf4:	fcb42c23          	sw	a1,-40(s0)
/home/nicoladgg/wsFreedomStudio/sifive_hifive1_revb_hello/freedom-metal/src/drivers/riscv_plic0.c:189
20015bf8:	fdc42783          	lw	a5,-36(s0)
20015bfc:	fef42623          	sw	a5,-20(s0)
/home/nicoladgg/wsFreedomStudio/sifive_hifive1_revb_hello/freedom-metal/src/drivers/riscv_plic0.c:191
20015c00:	fdc42503          	lw	a0,-36(s0)
20015c04:	a19ff0ef          	jal	ra,2001561c <__metal_driver_sifive_plic0_num_interrupts>
20015c08:	872a                	mv	a4,a0
20015c0a:	fd842783          	lw	a5,-40(s0)
20015c0e:	00e7c463          	blt	a5,a4,20015c16 <__metal_driver_riscv_plic0_enable+0x2e>
/home/nicoladgg/wsFreedomStudio/sifive_hifive1_revb_hello/freedom-metal/src/drivers/riscv_plic0.c:192
20015c12:	57fd                	li	a5,-1
20015c14:	a829                	j	20015c2e <__metal_driver_riscv_plic0_enable+0x46>
/home/nicoladgg/wsFreedomStudio/sifive_hifive1_revb_hello/freedom-metal/src/drivers/riscv_plic0.c:195
20015c16:	85cfe0ef          	jal	ra,20013c72 <__metal_myhart_id>
20015c1a:	87aa                	mv	a5,a0
20015c1c:	4685                	li	a3,1
20015c1e:	fd842603          	lw	a2,-40(s0)
20015c22:	85be                	mv	a1,a5
20015c24:	fec42503          	lw	a0,-20(s0)
20015c28:	c47ff0ef          	jal	ra,2001586e <__metal_plic0_enable>
/home/nicoladgg/wsFreedomStudio/sifive_hifive1_revb_hello/freedom-metal/src/drivers/riscv_plic0.c:196
20015c2c:	4781                	li	a5,0
/home/nicoladgg/wsFreedomStudio/sifive_hifive1_revb_hello/freedom-metal/src/drivers/riscv_plic0.c:197
20015c2e:	853e                	mv	a0,a5
20015c30:	50b2                	lw	ra,44(sp)
20015c32:	5422                	lw	s0,40(sp)
20015c34:	6145                	addi	sp,sp,48
20015c36:	8082                	ret

20015c38 <__metal_driver_riscv_plic0_disable>:
__metal_driver_riscv_plic0_disable():
/home/nicoladgg/wsFreedomStudio/sifive_hifive1_revb_hello/freedom-metal/src/drivers/riscv_plic0.c:200
20015c38:	7179                	addi	sp,sp,-48
20015c3a:	d606                	sw	ra,44(sp)
20015c3c:	d422                	sw	s0,40(sp)
20015c3e:	1800                	addi	s0,sp,48
20015c40:	fca42e23          	sw	a0,-36(s0)
20015c44:	fcb42c23          	sw	a1,-40(s0)
/home/nicoladgg/wsFreedomStudio/sifive_hifive1_revb_hello/freedom-metal/src/drivers/riscv_plic0.c:201
20015c48:	fdc42783          	lw	a5,-36(s0)
20015c4c:	fef42623          	sw	a5,-20(s0)
/home/nicoladgg/wsFreedomStudio/sifive_hifive1_revb_hello/freedom-metal/src/drivers/riscv_plic0.c:203
20015c50:	fdc42503          	lw	a0,-36(s0)
20015c54:	9c9ff0ef          	jal	ra,2001561c <__metal_driver_sifive_plic0_num_interrupts>
20015c58:	872a                	mv	a4,a0
20015c5a:	fd842783          	lw	a5,-40(s0)
20015c5e:	00e7c463          	blt	a5,a4,20015c66 <__metal_driver_riscv_plic0_disable+0x2e>
/home/nicoladgg/wsFreedomStudio/sifive_hifive1_revb_hello/freedom-metal/src/drivers/riscv_plic0.c:204
20015c62:	57fd                	li	a5,-1
20015c64:	a829                	j	20015c7e <__metal_driver_riscv_plic0_disable+0x46>
/home/nicoladgg/wsFreedomStudio/sifive_hifive1_revb_hello/freedom-metal/src/drivers/riscv_plic0.c:206
20015c66:	80cfe0ef          	jal	ra,20013c72 <__metal_myhart_id>
20015c6a:	87aa                	mv	a5,a0
20015c6c:	4681                	li	a3,0
20015c6e:	fd842603          	lw	a2,-40(s0)
20015c72:	85be                	mv	a1,a5
20015c74:	fec42503          	lw	a0,-20(s0)
20015c78:	bf7ff0ef          	jal	ra,2001586e <__metal_plic0_enable>
/home/nicoladgg/wsFreedomStudio/sifive_hifive1_revb_hello/freedom-metal/src/drivers/riscv_plic0.c:207
20015c7c:	4781                	li	a5,0
/home/nicoladgg/wsFreedomStudio/sifive_hifive1_revb_hello/freedom-metal/src/drivers/riscv_plic0.c:208
20015c7e:	853e                	mv	a0,a5
20015c80:	50b2                	lw	ra,44(sp)
20015c82:	5422                	lw	s0,40(sp)
20015c84:	6145                	addi	sp,sp,48
20015c86:	8082                	ret

20015c88 <__metal_driver_riscv_plic0_set_threshold>:
__metal_driver_riscv_plic0_set_threshold():
/home/nicoladgg/wsFreedomStudio/sifive_hifive1_revb_hello/freedom-metal/src/drivers/riscv_plic0.c:211
20015c88:	1101                	addi	sp,sp,-32
20015c8a:	ce06                	sw	ra,28(sp)
20015c8c:	cc22                	sw	s0,24(sp)
20015c8e:	1000                	addi	s0,sp,32
20015c90:	fea42623          	sw	a0,-20(s0)
20015c94:	feb42423          	sw	a1,-24(s0)
/home/nicoladgg/wsFreedomStudio/sifive_hifive1_revb_hello/freedom-metal/src/drivers/riscv_plic0.c:212
20015c98:	fdbfd0ef          	jal	ra,20013c72 <__metal_myhart_id>
20015c9c:	87aa                	mv	a5,a0
20015c9e:	fe842603          	lw	a2,-24(s0)
20015ca2:	85be                	mv	a1,a5
20015ca4:	fec42503          	lw	a0,-20(s0)
20015ca8:	ab1ff0ef          	jal	ra,20015758 <__metal_plic0_set_threshold>
20015cac:	87aa                	mv	a5,a0
/home/nicoladgg/wsFreedomStudio/sifive_hifive1_revb_hello/freedom-metal/src/drivers/riscv_plic0.c:214
20015cae:	853e                	mv	a0,a5
20015cb0:	40f2                	lw	ra,28(sp)
20015cb2:	4462                	lw	s0,24(sp)
20015cb4:	6105                	addi	sp,sp,32
20015cb6:	8082                	ret

20015cb8 <__metal_driver_riscv_plic0_get_threshold>:
__metal_driver_riscv_plic0_get_threshold():
/home/nicoladgg/wsFreedomStudio/sifive_hifive1_revb_hello/freedom-metal/src/drivers/riscv_plic0.c:217
20015cb8:	1101                	addi	sp,sp,-32
20015cba:	ce06                	sw	ra,28(sp)
20015cbc:	cc22                	sw	s0,24(sp)
20015cbe:	1000                	addi	s0,sp,32
20015cc0:	fea42623          	sw	a0,-20(s0)
/home/nicoladgg/wsFreedomStudio/sifive_hifive1_revb_hello/freedom-metal/src/drivers/riscv_plic0.c:218
20015cc4:	faffd0ef          	jal	ra,20013c72 <__metal_myhart_id>
20015cc8:	87aa                	mv	a5,a0
20015cca:	85be                	mv	a1,a5
20015ccc:	fec42503          	lw	a0,-20(s0)
20015cd0:	acfff0ef          	jal	ra,2001579e <__metal_plic0_get_threshold>
20015cd4:	87aa                	mv	a5,a0
/home/nicoladgg/wsFreedomStudio/sifive_hifive1_revb_hello/freedom-metal/src/drivers/riscv_plic0.c:219
20015cd6:	853e                	mv	a0,a5
20015cd8:	40f2                	lw	ra,28(sp)
20015cda:	4462                	lw	s0,24(sp)
20015cdc:	6105                	addi	sp,sp,32
20015cde:	8082                	ret

20015ce0 <__metal_driver_riscv_plic0_affinity_enable>:
__metal_driver_riscv_plic0_affinity_enable():
/home/nicoladgg/wsFreedomStudio/sifive_hifive1_revb_hello/freedom-metal/src/drivers/riscv_plic0.c:223
20015ce0:	7179                	addi	sp,sp,-48
20015ce2:	d606                	sw	ra,44(sp)
20015ce4:	d422                	sw	s0,40(sp)
20015ce6:	1800                	addi	s0,sp,48
20015ce8:	fca42e23          	sw	a0,-36(s0)
20015cec:	fcb42c23          	sw	a1,-40(s0)
20015cf0:	fcc42a23          	sw	a2,-44(s0)
/home/nicoladgg/wsFreedomStudio/sifive_hifive1_revb_hello/freedom-metal/src/drivers/riscv_plic0.c:224
20015cf4:	fe042223          	sw	zero,-28(s0)
/home/nicoladgg/wsFreedomStudio/sifive_hifive1_revb_hello/freedom-metal/src/drivers/riscv_plic0.c:227
20015cf8:	fdc42783          	lw	a5,-36(s0)
20015cfc:	fef42423          	sw	a5,-24(s0)
/home/nicoladgg/wsFreedomStudio/sifive_hifive1_revb_hello/freedom-metal/src/drivers/riscv_plic0.c:229
20015d00:	fdc42503          	lw	a0,-36(s0)
20015d04:	919ff0ef          	jal	ra,2001561c <__metal_driver_sifive_plic0_num_interrupts>
20015d08:	872a                	mv	a4,a0
20015d0a:	fd442783          	lw	a5,-44(s0)
20015d0e:	00e7c863          	blt	a5,a4,20015d1e <__metal_driver_riscv_plic0_affinity_enable+0x3e>
/home/nicoladgg/wsFreedomStudio/sifive_hifive1_revb_hello/freedom-metal/src/drivers/riscv_plic0.c:230
20015d12:	57fd                	li	a5,-1
20015d14:	fef42223          	sw	a5,-28(s0)
/home/nicoladgg/wsFreedomStudio/sifive_hifive1_revb_hello/freedom-metal/src/drivers/riscv_plic0.c:231
20015d18:	fe442783          	lw	a5,-28(s0)
20015d1c:	a899                	j	20015d72 <__metal_driver_riscv_plic0_affinity_enable+0x92>
/home/nicoladgg/wsFreedomStudio/sifive_hifive1_revb_hello/freedom-metal/src/drivers/riscv_plic0.c:234
20015d1e:	fe042623          	sw	zero,-20(s0)
20015d22:	a099                	j	20015d68 <__metal_driver_riscv_plic0_affinity_enable+0x88>
/home/nicoladgg/wsFreedomStudio/sifive_hifive1_revb_hello/freedom-metal/src/drivers/riscv_plic0.c:235
20015d24:	fec42783          	lw	a5,-20(s0)
20015d28:	c795                	beqz	a5,20015d54 <__metal_driver_riscv_plic0_affinity_enable+0x74>
/home/nicoladgg/wsFreedomStudio/sifive_hifive1_revb_hello/freedom-metal/src/drivers/riscv_plic0.c:236
20015d2a:	4685                	li	a3,1
20015d2c:	fd442603          	lw	a2,-44(s0)
20015d30:	fec42583          	lw	a1,-20(s0)
20015d34:	fe842503          	lw	a0,-24(s0)
20015d38:	b37ff0ef          	jal	ra,2001586e <__metal_plic0_enable>
20015d3c:	87aa                	mv	a5,a0
20015d3e:	0017f713          	andi	a4,a5,1
20015d42:	fec42783          	lw	a5,-20(s0)
20015d46:	00f71733          	sll	a4,a4,a5
20015d4a:	fe442783          	lw	a5,-28(s0)
20015d4e:	8fd9                	or	a5,a5,a4
20015d50:	fef42223          	sw	a5,-28(s0)
/home/nicoladgg/wsFreedomStudio/sifive_hifive1_revb_hello/freedom-metal/src/drivers/riscv_plic0.c:234 (discriminator 2)
20015d54:	fec42783          	lw	a5,-20(s0)
20015d58:	0785                	addi	a5,a5,1
20015d5a:	fef42623          	sw	a5,-20(s0)
20015d5e:	fd842783          	lw	a5,-40(s0)
20015d62:	8385                	srli	a5,a5,0x1
20015d64:	fcf42c23          	sw	a5,-40(s0)
/home/nicoladgg/wsFreedomStudio/sifive_hifive1_revb_hello/freedom-metal/src/drivers/riscv_plic0.c:234 (discriminator 1)
20015d68:	fd842783          	lw	a5,-40(s0)
20015d6c:	ffc5                	bnez	a5,20015d24 <__metal_driver_riscv_plic0_affinity_enable+0x44>
/home/nicoladgg/wsFreedomStudio/sifive_hifive1_revb_hello/freedom-metal/src/drivers/riscv_plic0.c:241
20015d6e:	fe442783          	lw	a5,-28(s0)
/home/nicoladgg/wsFreedomStudio/sifive_hifive1_revb_hello/freedom-metal/src/drivers/riscv_plic0.c:242 (discriminator 1)
20015d72:	853e                	mv	a0,a5
20015d74:	50b2                	lw	ra,44(sp)
20015d76:	5422                	lw	s0,40(sp)
20015d78:	6145                	addi	sp,sp,48
20015d7a:	8082                	ret

20015d7c <__metal_driver_riscv_plic0_affinity_disable>:
__metal_driver_riscv_plic0_affinity_disable():
/home/nicoladgg/wsFreedomStudio/sifive_hifive1_revb_hello/freedom-metal/src/drivers/riscv_plic0.c:246
20015d7c:	7179                	addi	sp,sp,-48
20015d7e:	d606                	sw	ra,44(sp)
20015d80:	d422                	sw	s0,40(sp)
20015d82:	1800                	addi	s0,sp,48
20015d84:	fca42e23          	sw	a0,-36(s0)
20015d88:	fcb42c23          	sw	a1,-40(s0)
20015d8c:	fcc42a23          	sw	a2,-44(s0)
/home/nicoladgg/wsFreedomStudio/sifive_hifive1_revb_hello/freedom-metal/src/drivers/riscv_plic0.c:247
20015d90:	fe042223          	sw	zero,-28(s0)
/home/nicoladgg/wsFreedomStudio/sifive_hifive1_revb_hello/freedom-metal/src/drivers/riscv_plic0.c:250
20015d94:	fdc42783          	lw	a5,-36(s0)
20015d98:	fef42423          	sw	a5,-24(s0)
/home/nicoladgg/wsFreedomStudio/sifive_hifive1_revb_hello/freedom-metal/src/drivers/riscv_plic0.c:252
20015d9c:	fdc42503          	lw	a0,-36(s0)
20015da0:	87dff0ef          	jal	ra,2001561c <__metal_driver_sifive_plic0_num_interrupts>
20015da4:	872a                	mv	a4,a0
20015da6:	fd442783          	lw	a5,-44(s0)
20015daa:	00e7c863          	blt	a5,a4,20015dba <__metal_driver_riscv_plic0_affinity_disable+0x3e>
/home/nicoladgg/wsFreedomStudio/sifive_hifive1_revb_hello/freedom-metal/src/drivers/riscv_plic0.c:253
20015dae:	57fd                	li	a5,-1
20015db0:	fef42223          	sw	a5,-28(s0)
/home/nicoladgg/wsFreedomStudio/sifive_hifive1_revb_hello/freedom-metal/src/drivers/riscv_plic0.c:254
20015db4:	fe442783          	lw	a5,-28(s0)
20015db8:	a899                	j	20015e0e <__metal_driver_riscv_plic0_affinity_disable+0x92>
/home/nicoladgg/wsFreedomStudio/sifive_hifive1_revb_hello/freedom-metal/src/drivers/riscv_plic0.c:257
20015dba:	fe042623          	sw	zero,-20(s0)
20015dbe:	a099                	j	20015e04 <__metal_driver_riscv_plic0_affinity_disable+0x88>
/home/nicoladgg/wsFreedomStudio/sifive_hifive1_revb_hello/freedom-metal/src/drivers/riscv_plic0.c:258
20015dc0:	fec42783          	lw	a5,-20(s0)
20015dc4:	c795                	beqz	a5,20015df0 <__metal_driver_riscv_plic0_affinity_disable+0x74>
/home/nicoladgg/wsFreedomStudio/sifive_hifive1_revb_hello/freedom-metal/src/drivers/riscv_plic0.c:259
20015dc6:	4681                	li	a3,0
20015dc8:	fd442603          	lw	a2,-44(s0)
20015dcc:	fec42583          	lw	a1,-20(s0)
20015dd0:	fe842503          	lw	a0,-24(s0)
20015dd4:	a9bff0ef          	jal	ra,2001586e <__metal_plic0_enable>
20015dd8:	87aa                	mv	a5,a0
20015dda:	0017f713          	andi	a4,a5,1
20015dde:	fec42783          	lw	a5,-20(s0)
20015de2:	00f71733          	sll	a4,a4,a5
20015de6:	fe442783          	lw	a5,-28(s0)
20015dea:	8fd9                	or	a5,a5,a4
20015dec:	fef42223          	sw	a5,-28(s0)
/home/nicoladgg/wsFreedomStudio/sifive_hifive1_revb_hello/freedom-metal/src/drivers/riscv_plic0.c:257 (discriminator 2)
20015df0:	fec42783          	lw	a5,-20(s0)
20015df4:	0785                	addi	a5,a5,1
20015df6:	fef42623          	sw	a5,-20(s0)
20015dfa:	fd842783          	lw	a5,-40(s0)
20015dfe:	8385                	srli	a5,a5,0x1
20015e00:	fcf42c23          	sw	a5,-40(s0)
/home/nicoladgg/wsFreedomStudio/sifive_hifive1_revb_hello/freedom-metal/src/drivers/riscv_plic0.c:257 (discriminator 1)
20015e04:	fd842783          	lw	a5,-40(s0)
20015e08:	ffc5                	bnez	a5,20015dc0 <__metal_driver_riscv_plic0_affinity_disable+0x44>
/home/nicoladgg/wsFreedomStudio/sifive_hifive1_revb_hello/freedom-metal/src/drivers/riscv_plic0.c:264
20015e0a:	fe442783          	lw	a5,-28(s0)
/home/nicoladgg/wsFreedomStudio/sifive_hifive1_revb_hello/freedom-metal/src/drivers/riscv_plic0.c:265 (discriminator 1)
20015e0e:	853e                	mv	a0,a5
20015e10:	50b2                	lw	ra,44(sp)
20015e12:	5422                	lw	s0,40(sp)
20015e14:	6145                	addi	sp,sp,48
20015e16:	8082                	ret

20015e18 <__metal_driver_riscv_plic0_affinity_set_threshold>:
__metal_driver_riscv_plic0_affinity_set_threshold():
/home/nicoladgg/wsFreedomStudio/sifive_hifive1_revb_hello/freedom-metal/src/drivers/riscv_plic0.c:269
20015e18:	7179                	addi	sp,sp,-48
20015e1a:	d606                	sw	ra,44(sp)
20015e1c:	d422                	sw	s0,40(sp)
20015e1e:	1800                	addi	s0,sp,48
20015e20:	fca42e23          	sw	a0,-36(s0)
20015e24:	fcb42c23          	sw	a1,-40(s0)
20015e28:	fcc42a23          	sw	a2,-44(s0)
/home/nicoladgg/wsFreedomStudio/sifive_hifive1_revb_hello/freedom-metal/src/drivers/riscv_plic0.c:270
20015e2c:	fe042423          	sw	zero,-24(s0)
/home/nicoladgg/wsFreedomStudio/sifive_hifive1_revb_hello/freedom-metal/src/drivers/riscv_plic0.c:273
20015e30:	fe042623          	sw	zero,-20(s0)
20015e34:	a091                	j	20015e78 <__metal_driver_riscv_plic0_affinity_set_threshold+0x60>
/home/nicoladgg/wsFreedomStudio/sifive_hifive1_revb_hello/freedom-metal/src/drivers/riscv_plic0.c:274
20015e36:	fec42783          	lw	a5,-20(s0)
20015e3a:	c78d                	beqz	a5,20015e64 <__metal_driver_riscv_plic0_affinity_set_threshold+0x4c>
/home/nicoladgg/wsFreedomStudio/sifive_hifive1_revb_hello/freedom-metal/src/drivers/riscv_plic0.c:275
20015e3c:	fd442603          	lw	a2,-44(s0)
20015e40:	fec42583          	lw	a1,-20(s0)
20015e44:	fdc42503          	lw	a0,-36(s0)
20015e48:	911ff0ef          	jal	ra,20015758 <__metal_plic0_set_threshold>
20015e4c:	87aa                	mv	a5,a0
20015e4e:	0017f713          	andi	a4,a5,1
20015e52:	fec42783          	lw	a5,-20(s0)
20015e56:	00f71733          	sll	a4,a4,a5
20015e5a:	fe842783          	lw	a5,-24(s0)
20015e5e:	8fd9                	or	a5,a5,a4
20015e60:	fef42423          	sw	a5,-24(s0)
/home/nicoladgg/wsFreedomStudio/sifive_hifive1_revb_hello/freedom-metal/src/drivers/riscv_plic0.c:273 (discriminator 2)
20015e64:	fec42783          	lw	a5,-20(s0)
20015e68:	0785                	addi	a5,a5,1
20015e6a:	fef42623          	sw	a5,-20(s0)
20015e6e:	fd842783          	lw	a5,-40(s0)
20015e72:	8385                	srli	a5,a5,0x1
20015e74:	fcf42c23          	sw	a5,-40(s0)
/home/nicoladgg/wsFreedomStudio/sifive_hifive1_revb_hello/freedom-metal/src/drivers/riscv_plic0.c:273 (discriminator 1)
20015e78:	fd842783          	lw	a5,-40(s0)
20015e7c:	ffcd                	bnez	a5,20015e36 <__metal_driver_riscv_plic0_affinity_set_threshold+0x1e>
/home/nicoladgg/wsFreedomStudio/sifive_hifive1_revb_hello/freedom-metal/src/drivers/riscv_plic0.c:280
20015e7e:	fe842783          	lw	a5,-24(s0)
/home/nicoladgg/wsFreedomStudio/sifive_hifive1_revb_hello/freedom-metal/src/drivers/riscv_plic0.c:281
20015e82:	853e                	mv	a0,a5
20015e84:	50b2                	lw	ra,44(sp)
20015e86:	5422                	lw	s0,40(sp)
20015e88:	6145                	addi	sp,sp,48
20015e8a:	8082                	ret

20015e8c <__metal_driver_riscv_plic0_affinity_get_threshold>:
__metal_driver_riscv_plic0_affinity_get_threshold():
/home/nicoladgg/wsFreedomStudio/sifive_hifive1_revb_hello/freedom-metal/src/drivers/riscv_plic0.c:284
20015e8c:	1101                	addi	sp,sp,-32
20015e8e:	ce06                	sw	ra,28(sp)
20015e90:	cc22                	sw	s0,24(sp)
20015e92:	1000                	addi	s0,sp,32
20015e94:	fea42623          	sw	a0,-20(s0)
20015e98:	feb42423          	sw	a1,-24(s0)
/home/nicoladgg/wsFreedomStudio/sifive_hifive1_revb_hello/freedom-metal/src/drivers/riscv_plic0.c:285
20015e9c:	fe842583          	lw	a1,-24(s0)
20015ea0:	fec42503          	lw	a0,-20(s0)
20015ea4:	8fbff0ef          	jal	ra,2001579e <__metal_plic0_get_threshold>
/home/nicoladgg/wsFreedomStudio/sifive_hifive1_revb_hello/freedom-metal/src/drivers/riscv_plic0.c:286
20015ea8:	4781                	li	a5,0
/home/nicoladgg/wsFreedomStudio/sifive_hifive1_revb_hello/freedom-metal/src/drivers/riscv_plic0.c:287
20015eaa:	853e                	mv	a0,a5
20015eac:	40f2                	lw	ra,28(sp)
20015eae:	4462                	lw	s0,24(sp)
20015eb0:	6105                	addi	sp,sp,32
20015eb2:	8082                	ret

20015eb4 <__metal_driver_sifive_fe310_g000_hfrosc_ref>:
__metal_driver_sifive_fe310_g000_hfrosc_ref():
/home/nicoladgg/wsFreedomStudio/sifive_hifive1_revb_hello/bsp/build/debug/./metal/machine.h:1242
20015eb4:	1101                	addi	sp,sp,-32
20015eb6:	ce22                	sw	s0,28(sp)
20015eb8:	1000                	addi	s0,sp,32
20015eba:	fea42623          	sw	a0,-20(s0)
/home/nicoladgg/wsFreedomStudio/sifive_hifive1_revb_hello/bsp/build/debug/./metal/machine.h:1243
20015ebe:	800007b7          	lui	a5,0x80000
20015ec2:	06c78793          	addi	a5,a5,108 # 8000006c <metal_segment_heap_target_end+0xffffe8ec>
/home/nicoladgg/wsFreedomStudio/sifive_hifive1_revb_hello/bsp/build/debug/./metal/machine.h:1244
20015ec6:	853e                	mv	a0,a5
20015ec8:	4472                	lw	s0,28(sp)
20015eca:	6105                	addi	sp,sp,32
20015ecc:	8082                	ret

20015ece <__metal_driver_sifive_fe310_g000_hfrosc_config_base>:
__metal_driver_sifive_fe310_g000_hfrosc_config_base():
/home/nicoladgg/wsFreedomStudio/sifive_hifive1_revb_hello/bsp/build/debug/./metal/machine.h:1247
20015ece:	1101                	addi	sp,sp,-32
20015ed0:	ce22                	sw	s0,28(sp)
20015ed2:	1000                	addi	s0,sp,32
20015ed4:	fea42623          	sw	a0,-20(s0)
/home/nicoladgg/wsFreedomStudio/sifive_hifive1_revb_hello/bsp/build/debug/./metal/machine.h:1248
20015ed8:	81c18793          	addi	a5,gp,-2020 # 80000abc <__metal_dt_prci_10008000>
/home/nicoladgg/wsFreedomStudio/sifive_hifive1_revb_hello/bsp/build/debug/./metal/machine.h:1249
20015edc:	853e                	mv	a0,a5
20015ede:	4472                	lw	s0,28(sp)
20015ee0:	6105                	addi	sp,sp,32
20015ee2:	8082                	ret

20015ee4 <__metal_driver_sifive_fe310_g000_hfrosc_config_offset>:
__metal_driver_sifive_fe310_g000_hfrosc_config_offset():
/home/nicoladgg/wsFreedomStudio/sifive_hifive1_revb_hello/bsp/build/debug/./metal/machine.h:1257
20015ee4:	1101                	addi	sp,sp,-32
20015ee6:	ce22                	sw	s0,28(sp)
20015ee8:	1000                	addi	s0,sp,32
20015eea:	fea42623          	sw	a0,-20(s0)
/home/nicoladgg/wsFreedomStudio/sifive_hifive1_revb_hello/bsp/build/debug/./metal/machine.h:1258
20015eee:	4781                	li	a5,0
/home/nicoladgg/wsFreedomStudio/sifive_hifive1_revb_hello/bsp/build/debug/./metal/machine.h:1259
20015ef0:	853e                	mv	a0,a5
20015ef2:	4472                	lw	s0,28(sp)
20015ef4:	6105                	addi	sp,sp,32
20015ef6:	8082                	ret

20015ef8 <__metal_driver_sifive_fe310_g000_prci_vtable>:
__metal_driver_sifive_fe310_g000_prci_vtable():
/home/nicoladgg/wsFreedomStudio/sifive_hifive1_revb_hello/bsp/build/debug/./metal/machine.h:1374
20015ef8:	1141                	addi	sp,sp,-16
20015efa:	c622                	sw	s0,12(sp)
20015efc:	0800                	addi	s0,sp,16
/home/nicoladgg/wsFreedomStudio/sifive_hifive1_revb_hello/bsp/build/debug/./metal/machine.h:1375
20015efe:	200117b7          	lui	a5,0x20011
20015f02:	24c78793          	addi	a5,a5,588 # 2001124c <__metal_driver_vtable_sifive_fe310_g000_prci>
/home/nicoladgg/wsFreedomStudio/sifive_hifive1_revb_hello/bsp/build/debug/./metal/machine.h:1376
20015f06:	853e                	mv	a0,a5
20015f08:	4432                	lw	s0,12(sp)
20015f0a:	0141                	addi	sp,sp,16
20015f0c:	8082                	ret

20015f0e <__metal_driver_sifive_fe310_g000_hfrosc_get_rate_hz>:
__metal_driver_sifive_fe310_g000_hfrosc_get_rate_hz():
/home/nicoladgg/wsFreedomStudio/sifive_hifive1_revb_hello/freedom-metal/src/drivers/sifive_fe310-g000_hfrosc.c:17
20015f0e:	7139                	addi	sp,sp,-64
20015f10:	de06                	sw	ra,60(sp)
20015f12:	dc22                	sw	s0,56(sp)
20015f14:	0080                	addi	s0,sp,64
20015f16:	fca42623          	sw	a0,-52(s0)
/home/nicoladgg/wsFreedomStudio/sifive_hifive1_revb_hello/freedom-metal/src/drivers/sifive_fe310-g000_hfrosc.c:19
20015f1a:	fcc42503          	lw	a0,-52(s0)
20015f1e:	3f59                	jal	20015eb4 <__metal_driver_sifive_fe310_g000_hfrosc_ref>
20015f20:	fea42623          	sw	a0,-20(s0)
/home/nicoladgg/wsFreedomStudio/sifive_hifive1_revb_hello/freedom-metal/src/drivers/sifive_fe310-g000_hfrosc.c:21
20015f24:	fcc42503          	lw	a0,-52(s0)
20015f28:	3f75                	jal	20015ee4 <__metal_driver_sifive_fe310_g000_hfrosc_config_offset>
20015f2a:	fea42423          	sw	a0,-24(s0)
/home/nicoladgg/wsFreedomStudio/sifive_hifive1_revb_hello/freedom-metal/src/drivers/sifive_fe310-g000_hfrosc.c:23
20015f2e:	fcc42503          	lw	a0,-52(s0)
20015f32:	3f71                	jal	20015ece <__metal_driver_sifive_fe310_g000_hfrosc_config_base>
20015f34:	fea42223          	sw	a0,-28(s0)
/home/nicoladgg/wsFreedomStudio/sifive_hifive1_revb_hello/freedom-metal/src/drivers/sifive_fe310-g000_hfrosc.c:25
20015f38:	37c1                	jal	20015ef8 <__metal_driver_sifive_fe310_g000_prci_vtable>
20015f3a:	fea42023          	sw	a0,-32(s0)
/home/nicoladgg/wsFreedomStudio/sifive_hifive1_revb_hello/freedom-metal/src/drivers/sifive_fe310-g000_hfrosc.c:26
20015f3e:	fe042783          	lw	a5,-32(s0)
20015f42:	439c                	lw	a5,0(a5)
20015f44:	fe842583          	lw	a1,-24(s0)
20015f48:	fe442503          	lw	a0,-28(s0)
20015f4c:	9782                	jalr	a5
20015f4e:	fca42e23          	sw	a0,-36(s0)
/home/nicoladgg/wsFreedomStudio/sifive_hifive1_revb_hello/freedom-metal/src/drivers/sifive_fe310-g000_hfrosc.c:28
20015f52:	fdc42703          	lw	a4,-36(s0)
20015f56:	400007b7          	lui	a5,0x40000
20015f5a:	8ff9                	and	a5,a5,a4
20015f5c:	e399                	bnez	a5,20015f62 <__metal_driver_sifive_fe310_g000_hfrosc_get_rate_hz+0x54>
/home/nicoladgg/wsFreedomStudio/sifive_hifive1_revb_hello/freedom-metal/src/drivers/sifive_fe310-g000_hfrosc.c:29
20015f5e:	57fd                	li	a5,-1
20015f60:	a025                	j	20015f88 <__metal_driver_sifive_fe310_g000_hfrosc_get_rate_hz+0x7a>
/home/nicoladgg/wsFreedomStudio/sifive_hifive1_revb_hello/freedom-metal/src/drivers/sifive_fe310-g000_hfrosc.c:30
20015f62:	fdc42783          	lw	a5,-36(s0)
20015f66:	0007c463          	bltz	a5,20015f6e <__metal_driver_sifive_fe310_g000_hfrosc_get_rate_hz+0x60>
/home/nicoladgg/wsFreedomStudio/sifive_hifive1_revb_hello/freedom-metal/src/drivers/sifive_fe310-g000_hfrosc.c:31
20015f6a:	57fd                	li	a5,-1
20015f6c:	a831                	j	20015f88 <__metal_driver_sifive_fe310_g000_hfrosc_get_rate_hz+0x7a>
/home/nicoladgg/wsFreedomStudio/sifive_hifive1_revb_hello/freedom-metal/src/drivers/sifive_fe310-g000_hfrosc.c:32
20015f6e:	fec42503          	lw	a0,-20(s0)
20015f72:	2c1010ef          	jal	ra,20017a32 <metal_clock_get_rate_hz>
20015f76:	87aa                	mv	a5,a0
20015f78:	873e                	mv	a4,a5
20015f7a:	fdc42783          	lw	a5,-36(s0)
20015f7e:	03f7f793          	andi	a5,a5,63
20015f82:	0785                	addi	a5,a5,1
20015f84:	02f757b3          	divu	a5,a4,a5
/home/nicoladgg/wsFreedomStudio/sifive_hifive1_revb_hello/freedom-metal/src/drivers/sifive_fe310-g000_hfrosc.c:33
20015f88:	853e                	mv	a0,a5
20015f8a:	50f2                	lw	ra,60(sp)
20015f8c:	5462                	lw	s0,56(sp)
20015f8e:	6121                	addi	sp,sp,64
20015f90:	8082                	ret

20015f92 <__metal_driver_sifive_fe310_g000_hfrosc_set_rate_hz>:
__metal_driver_sifive_fe310_g000_hfrosc_set_rate_hz():
/home/nicoladgg/wsFreedomStudio/sifive_hifive1_revb_hello/freedom-metal/src/drivers/sifive_fe310-g000_hfrosc.c:36
20015f92:	1101                	addi	sp,sp,-32
20015f94:	ce06                	sw	ra,28(sp)
20015f96:	cc22                	sw	s0,24(sp)
20015f98:	1000                	addi	s0,sp,32
20015f9a:	fea42623          	sw	a0,-20(s0)
20015f9e:	feb42423          	sw	a1,-24(s0)
/home/nicoladgg/wsFreedomStudio/sifive_hifive1_revb_hello/freedom-metal/src/drivers/sifive_fe310-g000_hfrosc.c:37
20015fa2:	fec42503          	lw	a0,-20(s0)
20015fa6:	37a5                	jal	20015f0e <__metal_driver_sifive_fe310_g000_hfrosc_get_rate_hz>
20015fa8:	87aa                	mv	a5,a0
/home/nicoladgg/wsFreedomStudio/sifive_hifive1_revb_hello/freedom-metal/src/drivers/sifive_fe310-g000_hfrosc.c:38
20015faa:	853e                	mv	a0,a5
20015fac:	40f2                	lw	ra,28(sp)
20015fae:	4462                	lw	s0,24(sp)
20015fb0:	6105                	addi	sp,sp,32
20015fb2:	8082                	ret

20015fb4 <__metal_driver_sifive_fe310_g000_hfxosc_ref>:
__metal_driver_sifive_fe310_g000_hfxosc_ref():
/home/nicoladgg/wsFreedomStudio/sifive_hifive1_revb_hello/bsp/build/debug/./metal/machine.h:1265
20015fb4:	1101                	addi	sp,sp,-32
20015fb6:	ce22                	sw	s0,28(sp)
20015fb8:	1000                	addi	s0,sp,32
20015fba:	fea42623          	sw	a0,-20(s0)
/home/nicoladgg/wsFreedomStudio/sifive_hifive1_revb_hello/bsp/build/debug/./metal/machine.h:1266
20015fbe:	800007b7          	lui	a5,0x80000
20015fc2:	06078793          	addi	a5,a5,96 # 80000060 <metal_segment_heap_target_end+0xffffe8e0>
/home/nicoladgg/wsFreedomStudio/sifive_hifive1_revb_hello/bsp/build/debug/./metal/machine.h:1267
20015fc6:	853e                	mv	a0,a5
20015fc8:	4472                	lw	s0,28(sp)
20015fca:	6105                	addi	sp,sp,32
20015fcc:	8082                	ret

20015fce <__metal_driver_sifive_fe310_g000_hfxosc_config_base>:
__metal_driver_sifive_fe310_g000_hfxosc_config_base():
/home/nicoladgg/wsFreedomStudio/sifive_hifive1_revb_hello/bsp/build/debug/./metal/machine.h:1270
20015fce:	1101                	addi	sp,sp,-32
20015fd0:	ce22                	sw	s0,28(sp)
20015fd2:	1000                	addi	s0,sp,32
20015fd4:	fea42623          	sw	a0,-20(s0)
/home/nicoladgg/wsFreedomStudio/sifive_hifive1_revb_hello/bsp/build/debug/./metal/machine.h:1271
20015fd8:	81c18793          	addi	a5,gp,-2020 # 80000abc <__metal_dt_prci_10008000>
/home/nicoladgg/wsFreedomStudio/sifive_hifive1_revb_hello/bsp/build/debug/./metal/machine.h:1272
20015fdc:	853e                	mv	a0,a5
20015fde:	4472                	lw	s0,28(sp)
20015fe0:	6105                	addi	sp,sp,32
20015fe2:	8082                	ret

20015fe4 <__metal_driver_sifive_fe310_g000_hfxosc_config_offset>:
__metal_driver_sifive_fe310_g000_hfxosc_config_offset():
/home/nicoladgg/wsFreedomStudio/sifive_hifive1_revb_hello/bsp/build/debug/./metal/machine.h:1275
20015fe4:	1101                	addi	sp,sp,-32
20015fe6:	ce22                	sw	s0,28(sp)
20015fe8:	1000                	addi	s0,sp,32
20015fea:	fea42623          	sw	a0,-20(s0)
/home/nicoladgg/wsFreedomStudio/sifive_hifive1_revb_hello/bsp/build/debug/./metal/machine.h:1276
20015fee:	4791                	li	a5,4
/home/nicoladgg/wsFreedomStudio/sifive_hifive1_revb_hello/bsp/build/debug/./metal/machine.h:1277
20015ff0:	853e                	mv	a0,a5
20015ff2:	4472                	lw	s0,28(sp)
20015ff4:	6105                	addi	sp,sp,32
20015ff6:	8082                	ret

20015ff8 <__metal_driver_sifive_fe310_g000_prci_vtable>:
__metal_driver_sifive_fe310_g000_prci_vtable():
/home/nicoladgg/wsFreedomStudio/sifive_hifive1_revb_hello/bsp/build/debug/./metal/machine.h:1374
20015ff8:	1141                	addi	sp,sp,-16
20015ffa:	c622                	sw	s0,12(sp)
20015ffc:	0800                	addi	s0,sp,16
/home/nicoladgg/wsFreedomStudio/sifive_hifive1_revb_hello/bsp/build/debug/./metal/machine.h:1375
20015ffe:	200117b7          	lui	a5,0x20011
20016002:	24c78793          	addi	a5,a5,588 # 2001124c <__metal_driver_vtable_sifive_fe310_g000_prci>
/home/nicoladgg/wsFreedomStudio/sifive_hifive1_revb_hello/bsp/build/debug/./metal/machine.h:1376
20016006:	853e                	mv	a0,a5
20016008:	4432                	lw	s0,12(sp)
2001600a:	0141                	addi	sp,sp,16
2001600c:	8082                	ret

2001600e <__metal_driver_sifive_fe310_g000_hfxosc_get_rate_hz>:
__metal_driver_sifive_fe310_g000_hfxosc_get_rate_hz():
/home/nicoladgg/wsFreedomStudio/sifive_hifive1_revb_hello/freedom-metal/src/drivers/sifive_fe310-g000_hfxosc.c:15
2001600e:	7139                	addi	sp,sp,-64
20016010:	de06                	sw	ra,60(sp)
20016012:	dc22                	sw	s0,56(sp)
20016014:	0080                	addi	s0,sp,64
20016016:	fca42623          	sw	a0,-52(s0)
/home/nicoladgg/wsFreedomStudio/sifive_hifive1_revb_hello/freedom-metal/src/drivers/sifive_fe310-g000_hfxosc.c:17
2001601a:	fcc42503          	lw	a0,-52(s0)
2001601e:	3f59                	jal	20015fb4 <__metal_driver_sifive_fe310_g000_hfxosc_ref>
20016020:	fea42623          	sw	a0,-20(s0)
/home/nicoladgg/wsFreedomStudio/sifive_hifive1_revb_hello/freedom-metal/src/drivers/sifive_fe310-g000_hfxosc.c:19
20016024:	fcc42503          	lw	a0,-52(s0)
20016028:	3f75                	jal	20015fe4 <__metal_driver_sifive_fe310_g000_hfxosc_config_offset>
2001602a:	fea42423          	sw	a0,-24(s0)
/home/nicoladgg/wsFreedomStudio/sifive_hifive1_revb_hello/freedom-metal/src/drivers/sifive_fe310-g000_hfxosc.c:21
2001602e:	fcc42503          	lw	a0,-52(s0)
20016032:	3f71                	jal	20015fce <__metal_driver_sifive_fe310_g000_hfxosc_config_base>
20016034:	fea42223          	sw	a0,-28(s0)
/home/nicoladgg/wsFreedomStudio/sifive_hifive1_revb_hello/freedom-metal/src/drivers/sifive_fe310-g000_hfxosc.c:23
20016038:	37c1                	jal	20015ff8 <__metal_driver_sifive_fe310_g000_prci_vtable>
2001603a:	fea42023          	sw	a0,-32(s0)
/home/nicoladgg/wsFreedomStudio/sifive_hifive1_revb_hello/freedom-metal/src/drivers/sifive_fe310-g000_hfxosc.c:24
2001603e:	fe042783          	lw	a5,-32(s0)
20016042:	439c                	lw	a5,0(a5)
20016044:	fe842583          	lw	a1,-24(s0)
20016048:	fe442503          	lw	a0,-28(s0)
2001604c:	9782                	jalr	a5
2001604e:	fca42e23          	sw	a0,-36(s0)
/home/nicoladgg/wsFreedomStudio/sifive_hifive1_revb_hello/freedom-metal/src/drivers/sifive_fe310-g000_hfxosc.c:26
20016052:	fdc42703          	lw	a4,-36(s0)
20016056:	400007b7          	lui	a5,0x40000
2001605a:	8ff9                	and	a5,a5,a4
2001605c:	e399                	bnez	a5,20016062 <__metal_driver_sifive_fe310_g000_hfxosc_get_rate_hz+0x54>
/home/nicoladgg/wsFreedomStudio/sifive_hifive1_revb_hello/freedom-metal/src/drivers/sifive_fe310-g000_hfxosc.c:27
2001605e:	57fd                	li	a5,-1
20016060:	a821                	j	20016078 <__metal_driver_sifive_fe310_g000_hfxosc_get_rate_hz+0x6a>
/home/nicoladgg/wsFreedomStudio/sifive_hifive1_revb_hello/freedom-metal/src/drivers/sifive_fe310-g000_hfxosc.c:28
20016062:	fdc42783          	lw	a5,-36(s0)
20016066:	0007c463          	bltz	a5,2001606e <__metal_driver_sifive_fe310_g000_hfxosc_get_rate_hz+0x60>
/home/nicoladgg/wsFreedomStudio/sifive_hifive1_revb_hello/freedom-metal/src/drivers/sifive_fe310-g000_hfxosc.c:29
2001606a:	57fd                	li	a5,-1
2001606c:	a031                	j	20016078 <__metal_driver_sifive_fe310_g000_hfxosc_get_rate_hz+0x6a>
/home/nicoladgg/wsFreedomStudio/sifive_hifive1_revb_hello/freedom-metal/src/drivers/sifive_fe310-g000_hfxosc.c:30
2001606e:	fec42503          	lw	a0,-20(s0)
20016072:	1c1010ef          	jal	ra,20017a32 <metal_clock_get_rate_hz>
20016076:	87aa                	mv	a5,a0
/home/nicoladgg/wsFreedomStudio/sifive_hifive1_revb_hello/freedom-metal/src/drivers/sifive_fe310-g000_hfxosc.c:31
20016078:	853e                	mv	a0,a5
2001607a:	50f2                	lw	ra,60(sp)
2001607c:	5462                	lw	s0,56(sp)
2001607e:	6121                	addi	sp,sp,64
20016080:	8082                	ret

20016082 <__metal_driver_sifive_fe310_g000_hfxosc_set_rate_hz>:
__metal_driver_sifive_fe310_g000_hfxosc_set_rate_hz():
/home/nicoladgg/wsFreedomStudio/sifive_hifive1_revb_hello/freedom-metal/src/drivers/sifive_fe310-g000_hfxosc.c:34
20016082:	1101                	addi	sp,sp,-32
20016084:	ce06                	sw	ra,28(sp)
20016086:	cc22                	sw	s0,24(sp)
20016088:	1000                	addi	s0,sp,32
2001608a:	fea42623          	sw	a0,-20(s0)
2001608e:	feb42423          	sw	a1,-24(s0)
/home/nicoladgg/wsFreedomStudio/sifive_hifive1_revb_hello/freedom-metal/src/drivers/sifive_fe310-g000_hfxosc.c:35
20016092:	fec42503          	lw	a0,-20(s0)
20016096:	3fa5                	jal	2001600e <__metal_driver_sifive_fe310_g000_hfxosc_get_rate_hz>
20016098:	87aa                	mv	a5,a0
/home/nicoladgg/wsFreedomStudio/sifive_hifive1_revb_hello/freedom-metal/src/drivers/sifive_fe310-g000_hfxosc.c:36
2001609a:	853e                	mv	a0,a5
2001609c:	40f2                	lw	ra,28(sp)
2001609e:	4462                	lw	s0,24(sp)
200160a0:	6105                	addi	sp,sp,32
200160a2:	8082                	ret

200160a4 <__metal_driver_sifive_fe310_g000_pll_pllsel0>:
__metal_driver_sifive_fe310_g000_pll_pllsel0():
/home/nicoladgg/wsFreedomStudio/sifive_hifive1_revb_hello/bsp/build/debug/./metal/machine.h:1326
200160a4:	1101                	addi	sp,sp,-32
200160a6:	ce22                	sw	s0,28(sp)
200160a8:	1000                	addi	s0,sp,32
200160aa:	fea42623          	sw	a0,-20(s0)
/home/nicoladgg/wsFreedomStudio/sifive_hifive1_revb_hello/bsp/build/debug/./metal/machine.h:1327
200160ae:	800017b7          	lui	a5,0x80001
200160b2:	a7878793          	addi	a5,a5,-1416 # 80000a78 <metal_segment_heap_target_end+0xfffff2f8>
/home/nicoladgg/wsFreedomStudio/sifive_hifive1_revb_hello/bsp/build/debug/./metal/machine.h:1328
200160b6:	853e                	mv	a0,a5
200160b8:	4472                	lw	s0,28(sp)
200160ba:	6105                	addi	sp,sp,32
200160bc:	8082                	ret

200160be <__metal_driver_sifive_fe310_g000_pll_pllref>:
__metal_driver_sifive_fe310_g000_pll_pllref():
/home/nicoladgg/wsFreedomStudio/sifive_hifive1_revb_hello/bsp/build/debug/./metal/machine.h:1331
200160be:	1101                	addi	sp,sp,-32
200160c0:	ce22                	sw	s0,28(sp)
200160c2:	1000                	addi	s0,sp,32
200160c4:	fea42623          	sw	a0,-20(s0)
/home/nicoladgg/wsFreedomStudio/sifive_hifive1_revb_hello/bsp/build/debug/./metal/machine.h:1332
200160c8:	800017b7          	lui	a5,0x80001
200160cc:	a8478793          	addi	a5,a5,-1404 # 80000a84 <metal_segment_heap_target_end+0xfffff304>
/home/nicoladgg/wsFreedomStudio/sifive_hifive1_revb_hello/bsp/build/debug/./metal/machine.h:1333
200160d0:	853e                	mv	a0,a5
200160d2:	4472                	lw	s0,28(sp)
200160d4:	6105                	addi	sp,sp,32
200160d6:	8082                	ret

200160d8 <__metal_driver_sifive_fe310_g000_pll_divider_base>:
__metal_driver_sifive_fe310_g000_pll_divider_base():
/home/nicoladgg/wsFreedomStudio/sifive_hifive1_revb_hello/bsp/build/debug/./metal/machine.h:1336
200160d8:	1101                	addi	sp,sp,-32
200160da:	ce22                	sw	s0,28(sp)
200160dc:	1000                	addi	s0,sp,32
200160de:	fea42623          	sw	a0,-20(s0)
/home/nicoladgg/wsFreedomStudio/sifive_hifive1_revb_hello/bsp/build/debug/./metal/machine.h:1337
200160e2:	81c18793          	addi	a5,gp,-2020 # 80000abc <__metal_dt_prci_10008000>
/home/nicoladgg/wsFreedomStudio/sifive_hifive1_revb_hello/bsp/build/debug/./metal/machine.h:1338
200160e6:	853e                	mv	a0,a5
200160e8:	4472                	lw	s0,28(sp)
200160ea:	6105                	addi	sp,sp,32
200160ec:	8082                	ret

200160ee <__metal_driver_sifive_fe310_g000_pll_divider_offset>:
__metal_driver_sifive_fe310_g000_pll_divider_offset():
/home/nicoladgg/wsFreedomStudio/sifive_hifive1_revb_hello/bsp/build/debug/./metal/machine.h:1341
200160ee:	1101                	addi	sp,sp,-32
200160f0:	ce22                	sw	s0,28(sp)
200160f2:	1000                	addi	s0,sp,32
200160f4:	fea42623          	sw	a0,-20(s0)
/home/nicoladgg/wsFreedomStudio/sifive_hifive1_revb_hello/bsp/build/debug/./metal/machine.h:1342
200160f8:	47b1                	li	a5,12
/home/nicoladgg/wsFreedomStudio/sifive_hifive1_revb_hello/bsp/build/debug/./metal/machine.h:1343
200160fa:	853e                	mv	a0,a5
200160fc:	4472                	lw	s0,28(sp)
200160fe:	6105                	addi	sp,sp,32
20016100:	8082                	ret

20016102 <__metal_driver_sifive_fe310_g000_pll_config_base>:
__metal_driver_sifive_fe310_g000_pll_config_base():
/home/nicoladgg/wsFreedomStudio/sifive_hifive1_revb_hello/bsp/build/debug/./metal/machine.h:1346
20016102:	1141                	addi	sp,sp,-16
20016104:	c622                	sw	s0,12(sp)
20016106:	0800                	addi	s0,sp,16
/home/nicoladgg/wsFreedomStudio/sifive_hifive1_revb_hello/bsp/build/debug/./metal/machine.h:1347
20016108:	81c18793          	addi	a5,gp,-2020 # 80000abc <__metal_dt_prci_10008000>
/home/nicoladgg/wsFreedomStudio/sifive_hifive1_revb_hello/bsp/build/debug/./metal/machine.h:1348
2001610c:	853e                	mv	a0,a5
2001610e:	4432                	lw	s0,12(sp)
20016110:	0141                	addi	sp,sp,16
20016112:	8082                	ret

20016114 <__metal_driver_sifive_fe310_g000_pll_config_offset>:
__metal_driver_sifive_fe310_g000_pll_config_offset():
/home/nicoladgg/wsFreedomStudio/sifive_hifive1_revb_hello/bsp/build/debug/./metal/machine.h:1351
20016114:	1141                	addi	sp,sp,-16
20016116:	c622                	sw	s0,12(sp)
20016118:	0800                	addi	s0,sp,16
/home/nicoladgg/wsFreedomStudio/sifive_hifive1_revb_hello/bsp/build/debug/./metal/machine.h:1352
2001611a:	47a1                	li	a5,8
/home/nicoladgg/wsFreedomStudio/sifive_hifive1_revb_hello/bsp/build/debug/./metal/machine.h:1353
2001611c:	853e                	mv	a0,a5
2001611e:	4432                	lw	s0,12(sp)
20016120:	0141                	addi	sp,sp,16
20016122:	8082                	ret

20016124 <__metal_driver_sifive_fe310_g000_pll_init_rate>:
__metal_driver_sifive_fe310_g000_pll_init_rate():
/home/nicoladgg/wsFreedomStudio/sifive_hifive1_revb_hello/bsp/build/debug/./metal/machine.h:1356
20016124:	1141                	addi	sp,sp,-16
20016126:	c622                	sw	s0,12(sp)
20016128:	0800                	addi	s0,sp,16
/home/nicoladgg/wsFreedomStudio/sifive_hifive1_revb_hello/bsp/build/debug/./metal/machine.h:1357
2001612a:	00f427b7          	lui	a5,0xf42
2001612e:	40078793          	addi	a5,a5,1024 # f42400 <__heap_size+0xf41c00>
/home/nicoladgg/wsFreedomStudio/sifive_hifive1_revb_hello/bsp/build/debug/./metal/machine.h:1358
20016132:	853e                	mv	a0,a5
20016134:	4432                	lw	s0,12(sp)
20016136:	0141                	addi	sp,sp,16
20016138:	8082                	ret

2001613a <__metal_driver_sifive_fe310_g000_prci_base>:
__metal_driver_sifive_fe310_g000_prci_base():
/home/nicoladgg/wsFreedomStudio/sifive_hifive1_revb_hello/bsp/build/debug/./metal/machine.h:1364
2001613a:	1141                	addi	sp,sp,-16
2001613c:	c622                	sw	s0,12(sp)
2001613e:	0800                	addi	s0,sp,16
/home/nicoladgg/wsFreedomStudio/sifive_hifive1_revb_hello/bsp/build/debug/./metal/machine.h:1365
20016140:	100087b7          	lui	a5,0x10008
/home/nicoladgg/wsFreedomStudio/sifive_hifive1_revb_hello/bsp/build/debug/./metal/machine.h:1366
20016144:	853e                	mv	a0,a5
20016146:	4432                	lw	s0,12(sp)
20016148:	0141                	addi	sp,sp,16
2001614a:	8082                	ret

2001614c <__metal_driver_sifive_fe310_g000_prci_vtable>:
__metal_driver_sifive_fe310_g000_prci_vtable():
/home/nicoladgg/wsFreedomStudio/sifive_hifive1_revb_hello/bsp/build/debug/./metal/machine.h:1374
2001614c:	1141                	addi	sp,sp,-16
2001614e:	c622                	sw	s0,12(sp)
20016150:	0800                	addi	s0,sp,16
/home/nicoladgg/wsFreedomStudio/sifive_hifive1_revb_hello/bsp/build/debug/./metal/machine.h:1375
20016152:	200117b7          	lui	a5,0x20011
20016156:	24c78793          	addi	a5,a5,588 # 2001124c <__metal_driver_vtable_sifive_fe310_g000_prci>
/home/nicoladgg/wsFreedomStudio/sifive_hifive1_revb_hello/bsp/build/debug/./metal/machine.h:1376
2001615a:	853e                	mv	a0,a5
2001615c:	4432                	lw	s0,12(sp)
2001615e:	0141                	addi	sp,sp,16
20016160:	8082                	ret

20016162 <get_pll_config_freq>:
get_pll_config_freq():
/home/nicoladgg/wsFreedomStudio/sifive_hifive1_revb_hello/freedom-metal/src/drivers/sifive_fe310-g000_pll.c:141
20016162:	1101                	addi	sp,sp,-32
20016164:	ce22                	sw	s0,28(sp)
20016166:	1000                	addi	s0,sp,32
20016168:	fea42623          	sw	a0,-20(s0)
2001616c:	feb42423          	sw	a1,-24(s0)
/home/nicoladgg/wsFreedomStudio/sifive_hifive1_revb_hello/freedom-metal/src/drivers/sifive_fe310-g000_pll.c:142
20016170:	fe842783          	lw	a5,-24(s0)
20016174:	479c                	lw	a5,8(a5)
20016176:	fec42703          	lw	a4,-20(s0)
2001617a:	00f76963          	bltu	a4,a5,2001618c <get_pll_config_freq+0x2a>
/home/nicoladgg/wsFreedomStudio/sifive_hifive1_revb_hello/freedom-metal/src/drivers/sifive_fe310-g000_pll.c:143 (discriminator 1)
2001617e:	fe842783          	lw	a5,-24(s0)
20016182:	47dc                	lw	a5,12(a5)
/home/nicoladgg/wsFreedomStudio/sifive_hifive1_revb_hello/freedom-metal/src/drivers/sifive_fe310-g000_pll.c:142 (discriminator 1)
20016184:	fec42703          	lw	a4,-20(s0)
20016188:	00e7f463          	bgeu	a5,a4,20016190 <get_pll_config_freq+0x2e>
/home/nicoladgg/wsFreedomStudio/sifive_hifive1_revb_hello/freedom-metal/src/drivers/sifive_fe310-g000_pll.c:144
2001618c:	57fd                	li	a5,-1
2001618e:	a829                	j	200161a8 <get_pll_config_freq+0x46>
/home/nicoladgg/wsFreedomStudio/sifive_hifive1_revb_hello/freedom-metal/src/drivers/sifive_fe310-g000_pll.c:146
20016190:	fe842783          	lw	a5,-24(s0)
20016194:	4398                	lw	a4,0(a5)
20016196:	fec42783          	lw	a5,-20(s0)
2001619a:	02f70733          	mul	a4,a4,a5
2001619e:	fe842783          	lw	a5,-24(s0)
200161a2:	43dc                	lw	a5,4(a5)
200161a4:	02f757b3          	divu	a5,a4,a5
/home/nicoladgg/wsFreedomStudio/sifive_hifive1_revb_hello/freedom-metal/src/drivers/sifive_fe310-g000_pll.c:147
200161a8:	853e                	mv	a0,a5
200161aa:	4472                	lw	s0,28(sp)
200161ac:	6105                	addi	sp,sp,32
200161ae:	8082                	ret

200161b0 <__metal_driver_sifive_fe310_g000_pll_init>:
__metal_driver_sifive_fe310_g000_pll_init():
/home/nicoladgg/wsFreedomStudio/sifive_hifive1_revb_hello/freedom-metal/src/drivers/sifive_fe310-g000_pll.c:162
200161b0:	7139                	addi	sp,sp,-64
200161b2:	de06                	sw	ra,60(sp)
200161b4:	dc22                	sw	s0,56(sp)
200161b6:	0080                	addi	s0,sp,64
200161b8:	fca42623          	sw	a0,-52(s0)
/home/nicoladgg/wsFreedomStudio/sifive_hifive1_revb_hello/freedom-metal/src/drivers/sifive_fe310-g000_pll.c:164
200161bc:	fcc42783          	lw	a5,-52(s0)
200161c0:	853e                	mv	a0,a5
200161c2:	3df5                	jal	200160be <__metal_driver_sifive_fe310_g000_pll_pllref>
200161c4:	fea42623          	sw	a0,-20(s0)
/home/nicoladgg/wsFreedomStudio/sifive_hifive1_revb_hello/freedom-metal/src/drivers/sifive_fe310-g000_pll.c:165
200161c8:	3fb1                	jal	20016124 <__metal_driver_sifive_fe310_g000_pll_init_rate>
200161ca:	fea42423          	sw	a0,-24(s0)
/home/nicoladgg/wsFreedomStudio/sifive_hifive1_revb_hello/freedom-metal/src/drivers/sifive_fe310-g000_pll.c:166
200161ce:	3799                	jal	20016114 <__metal_driver_sifive_fe310_g000_pll_config_offset>
200161d0:	fea42223          	sw	a0,-28(s0)
/home/nicoladgg/wsFreedomStudio/sifive_hifive1_revb_hello/freedom-metal/src/drivers/sifive_fe310-g000_pll.c:167
200161d4:	379d                	jal	2001613a <__metal_driver_sifive_fe310_g000_prci_base>
200161d6:	fea42023          	sw	a0,-32(s0)
/home/nicoladgg/wsFreedomStudio/sifive_hifive1_revb_hello/freedom-metal/src/drivers/sifive_fe310-g000_pll.c:169
200161da:	fe042703          	lw	a4,-32(s0)
200161de:	fe442783          	lw	a5,-28(s0)
200161e2:	97ba                	add	a5,a5,a4
200161e4:	fcf42e23          	sw	a5,-36(s0)
/home/nicoladgg/wsFreedomStudio/sifive_hifive1_revb_hello/freedom-metal/src/drivers/sifive_fe310-g000_pll.c:173
200161e8:	fcc42783          	lw	a5,-52(s0)
200161ec:	43dc                	lw	a5,4(a5)
200161ee:	853e                	mv	a0,a5
200161f0:	7ac010ef          	jal	ra,2001799c <_metal_clock_call_all_callbacks>
/home/nicoladgg/wsFreedomStudio/sifive_hifive1_revb_hello/freedom-metal/src/drivers/sifive_fe310-g000_pll.c:177
200161f4:	fdc42783          	lw	a5,-36(s0)
200161f8:	4398                	lw	a4,0(a5)
200161fa:	67c1                	lui	a5,0x10
200161fc:	8ff9                	and	a5,a5,a4
200161fe:	cb91                	beqz	a5,20016212 <__metal_driver_sifive_fe310_g000_pll_init+0x62>
/home/nicoladgg/wsFreedomStudio/sifive_hifive1_revb_hello/freedom-metal/src/drivers/sifive_fe310-g000_pll.c:178
20016200:	fdc42783          	lw	a5,-36(s0)
20016204:	4398                	lw	a4,0(a5)
20016206:	77c1                	lui	a5,0xffff0
20016208:	17fd                	addi	a5,a5,-1
2001620a:	8f7d                	and	a4,a4,a5
2001620c:	fdc42783          	lw	a5,-36(s0)
20016210:	c398                	sw	a4,0(a5)
/home/nicoladgg/wsFreedomStudio/sifive_hifive1_revb_hello/freedom-metal/src/drivers/sifive_fe310-g000_pll.c:181
20016212:	fec42783          	lw	a5,-20(s0)
20016216:	cb91                	beqz	a5,2001622a <__metal_driver_sifive_fe310_g000_pll_init+0x7a>
/home/nicoladgg/wsFreedomStudio/sifive_hifive1_revb_hello/freedom-metal/src/drivers/sifive_fe310-g000_pll.c:182
20016218:	fdc42783          	lw	a5,-36(s0)
2001621c:	4398                	lw	a4,0(a5)
2001621e:	000207b7          	lui	a5,0x20
20016222:	8f5d                	or	a4,a4,a5
20016224:	fdc42783          	lw	a5,-36(s0)
20016228:	c398                	sw	a4,0(a5)
/home/nicoladgg/wsFreedomStudio/sifive_hifive1_revb_hello/freedom-metal/src/drivers/sifive_fe310-g000_pll.c:187
2001622a:	fcc42783          	lw	a5,-52(s0)
2001622e:	439c                	lw	a5,0(a5)
20016230:	43d8                	lw	a4,4(a5)
20016232:	fcc42783          	lw	a5,-52(s0)
20016236:	fe842583          	lw	a1,-24(s0)
2001623a:	853e                	mv	a0,a5
2001623c:	9702                	jalr	a4
/home/nicoladgg/wsFreedomStudio/sifive_hifive1_revb_hello/freedom-metal/src/drivers/sifive_fe310-g000_pll.c:190
2001623e:	fcc42783          	lw	a5,-52(s0)
20016242:	479c                	lw	a5,8(a5)
20016244:	853e                	mv	a0,a5
20016246:	756010ef          	jal	ra,2001799c <_metal_clock_call_all_callbacks>
/home/nicoladgg/wsFreedomStudio/sifive_hifive1_revb_hello/freedom-metal/src/drivers/sifive_fe310-g000_pll.c:191
2001624a:	0001                	nop
2001624c:	50f2                	lw	ra,60(sp)
2001624e:	5462                	lw	s0,56(sp)
20016250:	6121                	addi	sp,sp,64
20016252:	8082                	ret

20016254 <__metal_driver_sifive_fe310_g000_pll_get_rate_hz>:
__metal_driver_sifive_fe310_g000_pll_get_rate_hz():
/home/nicoladgg/wsFreedomStudio/sifive_hifive1_revb_hello/freedom-metal/src/drivers/sifive_fe310-g000_pll.c:194
20016254:	711d                	addi	sp,sp,-96
20016256:	ce86                	sw	ra,92(sp)
20016258:	cca2                	sw	s0,88(sp)
2001625a:	1080                	addi	s0,sp,96
2001625c:	faa42623          	sw	a0,-84(s0)
/home/nicoladgg/wsFreedomStudio/sifive_hifive1_revb_hello/freedom-metal/src/drivers/sifive_fe310-g000_pll.c:196
20016260:	fac42503          	lw	a0,-84(s0)
20016264:	3da9                	jal	200160be <__metal_driver_sifive_fe310_g000_pll_pllref>
20016266:	fea42623          	sw	a0,-20(s0)
/home/nicoladgg/wsFreedomStudio/sifive_hifive1_revb_hello/freedom-metal/src/drivers/sifive_fe310-g000_pll.c:198
2001626a:	fac42503          	lw	a0,-84(s0)
2001626e:	3d1d                	jal	200160a4 <__metal_driver_sifive_fe310_g000_pll_pllsel0>
20016270:	fea42423          	sw	a0,-24(s0)
/home/nicoladgg/wsFreedomStudio/sifive_hifive1_revb_hello/freedom-metal/src/drivers/sifive_fe310-g000_pll.c:200
20016274:	fac42503          	lw	a0,-84(s0)
20016278:	3d71                	jal	20016114 <__metal_driver_sifive_fe310_g000_pll_config_offset>
2001627a:	fea42223          	sw	a0,-28(s0)
/home/nicoladgg/wsFreedomStudio/sifive_hifive1_revb_hello/freedom-metal/src/drivers/sifive_fe310-g000_pll.c:202
2001627e:	fac42503          	lw	a0,-84(s0)
20016282:	3541                	jal	20016102 <__metal_driver_sifive_fe310_g000_pll_config_base>
20016284:	fea42023          	sw	a0,-32(s0)
/home/nicoladgg/wsFreedomStudio/sifive_hifive1_revb_hello/freedom-metal/src/drivers/sifive_fe310-g000_pll.c:204
20016288:	fac42503          	lw	a0,-84(s0)
2001628c:	358d                	jal	200160ee <__metal_driver_sifive_fe310_g000_pll_divider_offset>
2001628e:	fca42e23          	sw	a0,-36(s0)
/home/nicoladgg/wsFreedomStudio/sifive_hifive1_revb_hello/freedom-metal/src/drivers/sifive_fe310-g000_pll.c:206
20016292:	fac42503          	lw	a0,-84(s0)
20016296:	3589                	jal	200160d8 <__metal_driver_sifive_fe310_g000_pll_divider_base>
20016298:	fca42c23          	sw	a0,-40(s0)
/home/nicoladgg/wsFreedomStudio/sifive_hifive1_revb_hello/freedom-metal/src/drivers/sifive_fe310-g000_pll.c:208
2001629c:	3d45                	jal	2001614c <__metal_driver_sifive_fe310_g000_prci_vtable>
2001629e:	fca42a23          	sw	a0,-44(s0)
/home/nicoladgg/wsFreedomStudio/sifive_hifive1_revb_hello/freedom-metal/src/drivers/sifive_fe310-g000_pll.c:210
200162a2:	fd442783          	lw	a5,-44(s0)
200162a6:	439c                	lw	a5,0(a5)
200162a8:	fe442583          	lw	a1,-28(s0)
200162ac:	fe042503          	lw	a0,-32(s0)
200162b0:	9782                	jalr	a5
200162b2:	fca42823          	sw	a0,-48(s0)
/home/nicoladgg/wsFreedomStudio/sifive_hifive1_revb_hello/freedom-metal/src/drivers/sifive_fe310-g000_pll.c:211
200162b6:	fd442783          	lw	a5,-44(s0)
200162ba:	439c                	lw	a5,0(a5)
200162bc:	fdc42583          	lw	a1,-36(s0)
200162c0:	fd842503          	lw	a0,-40(s0)
200162c4:	9782                	jalr	a5
200162c6:	fca42623          	sw	a0,-52(s0)
/home/nicoladgg/wsFreedomStudio/sifive_hifive1_revb_hello/freedom-metal/src/drivers/sifive_fe310-g000_pll.c:215
200162ca:	fd042703          	lw	a4,-48(s0)
200162ce:	67c1                	lui	a5,0x10
200162d0:	8f7d                	and	a4,a4,a5
200162d2:	67c1                	lui	a5,0x10
200162d4:	00f77863          	bgeu	a4,a5,200162e4 <__metal_driver_sifive_fe310_g000_pll_get_rate_hz+0x90>
/home/nicoladgg/wsFreedomStudio/sifive_hifive1_revb_hello/freedom-metal/src/drivers/sifive_fe310-g000_pll.c:216
200162d8:	fe842503          	lw	a0,-24(s0)
200162dc:	756010ef          	jal	ra,20017a32 <metal_clock_get_rate_hz>
200162e0:	87aa                	mv	a5,a0
200162e2:	a8e1                	j	200163ba <__metal_driver_sifive_fe310_g000_pll_get_rate_hz+0x166>
/home/nicoladgg/wsFreedomStudio/sifive_hifive1_revb_hello/freedom-metal/src/drivers/sifive_fe310-g000_pll.c:221
200162e4:	fd042703          	lw	a4,-48(s0)
200162e8:	000207b7          	lui	a5,0x20
200162ec:	8f7d                	and	a4,a4,a5
/home/nicoladgg/wsFreedomStudio/sifive_hifive1_revb_hello/freedom-metal/src/drivers/sifive_fe310-g000_pll.c:220
200162ee:	000207b7          	lui	a5,0x20
200162f2:	00f76563          	bltu	a4,a5,200162fc <__metal_driver_sifive_fe310_g000_pll_get_rate_hz+0xa8>
/home/nicoladgg/wsFreedomStudio/sifive_hifive1_revb_hello/freedom-metal/src/drivers/sifive_fe310-g000_pll.c:220 (discriminator 1)
200162f6:	fec42783          	lw	a5,-20(s0)
200162fa:	a019                	j	20016300 <__metal_driver_sifive_fe310_g000_pll_get_rate_hz+0xac>
/home/nicoladgg/wsFreedomStudio/sifive_hifive1_revb_hello/freedom-metal/src/drivers/sifive_fe310-g000_pll.c:220 (discriminator 2)
200162fc:	fe842783          	lw	a5,-24(s0)
/home/nicoladgg/wsFreedomStudio/sifive_hifive1_revb_hello/freedom-metal/src/drivers/sifive_fe310-g000_pll.c:220 (discriminator 4)
20016300:	853e                	mv	a0,a5
20016302:	730010ef          	jal	ra,20017a32 <metal_clock_get_rate_hz>
20016306:	fca42423          	sw	a0,-56(s0)
/home/nicoladgg/wsFreedomStudio/sifive_hifive1_revb_hello/freedom-metal/src/drivers/sifive_fe310-g000_pll.c:225 (discriminator 4)
2001630a:	fd042703          	lw	a4,-48(s0)
2001630e:	000407b7          	lui	a5,0x40
20016312:	8f7d                	and	a4,a4,a5
20016314:	000407b7          	lui	a5,0x40
20016318:	00f76563          	bltu	a4,a5,20016322 <__metal_driver_sifive_fe310_g000_pll_get_rate_hz+0xce>
/home/nicoladgg/wsFreedomStudio/sifive_hifive1_revb_hello/freedom-metal/src/drivers/sifive_fe310-g000_pll.c:226
2001631c:	fc842783          	lw	a5,-56(s0)
20016320:	a869                	j	200163ba <__metal_driver_sifive_fe310_g000_pll_get_rate_hz+0x166>
/home/nicoladgg/wsFreedomStudio/sifive_hifive1_revb_hello/freedom-metal/src/drivers/sifive_fe310-g000_pll.c:229
20016322:	fd042783          	lw	a5,-48(s0)
20016326:	8b9d                	andi	a5,a5,7
20016328:	0785                	addi	a5,a5,1
2001632a:	fcf42223          	sw	a5,-60(s0)
/home/nicoladgg/wsFreedomStudio/sifive_hifive1_revb_hello/freedom-metal/src/drivers/sifive_fe310-g000_pll.c:230
2001632e:	fd042783          	lw	a5,-48(s0)
20016332:	3f07f793          	andi	a5,a5,1008
20016336:	8391                	srli	a5,a5,0x4
20016338:	0785                	addi	a5,a5,1
2001633a:	0786                	slli	a5,a5,0x1
2001633c:	fcf42023          	sw	a5,-64(s0)
/home/nicoladgg/wsFreedomStudio/sifive_hifive1_revb_hello/freedom-metal/src/drivers/sifive_fe310-g000_pll.c:231
20016340:	fd042703          	lw	a4,-48(s0)
20016344:	6785                	lui	a5,0x1
20016346:	c0078793          	addi	a5,a5,-1024 # c00 <__heap_size+0x400>
2001634a:	8f7d                	and	a4,a4,a5
2001634c:	3ff00793          	li	a5,1023
20016350:	00e7e463          	bltu	a5,a4,20016358 <__metal_driver_sifive_fe310_g000_pll_get_rate_hz+0x104>
/home/nicoladgg/wsFreedomStudio/sifive_hifive1_revb_hello/freedom-metal/src/drivers/sifive_fe310-g000_pll.c:232
20016354:	57fd                	li	a5,-1
20016356:	a095                	j	200163ba <__metal_driver_sifive_fe310_g000_pll_get_rate_hz+0x166>
/home/nicoladgg/wsFreedomStudio/sifive_hifive1_revb_hello/freedom-metal/src/drivers/sifive_fe310-g000_pll.c:233
20016358:	fd042703          	lw	a4,-48(s0)
2001635c:	6785                	lui	a5,0x1
2001635e:	c0078793          	addi	a5,a5,-1024 # c00 <__heap_size+0x400>
20016362:	8ff9                	and	a5,a5,a4
20016364:	83a9                	srli	a5,a5,0xa
20016366:	4705                	li	a4,1
20016368:	00f717b3          	sll	a5,a4,a5
2001636c:	faf42e23          	sw	a5,-68(s0)
/home/nicoladgg/wsFreedomStudio/sifive_hifive1_revb_hello/freedom-metal/src/drivers/sifive_fe310-g000_pll.c:238
20016370:	fc842703          	lw	a4,-56(s0)
20016374:	fc442783          	lw	a5,-60(s0)
20016378:	02f74733          	div	a4,a4,a5
2001637c:	fc042783          	lw	a5,-64(s0)
20016380:	02f70733          	mul	a4,a4,a5
20016384:	fbc42783          	lw	a5,-68(s0)
20016388:	02f747b3          	div	a5,a4,a5
2001638c:	faf42c23          	sw	a5,-72(s0)
/home/nicoladgg/wsFreedomStudio/sifive_hifive1_revb_hello/freedom-metal/src/drivers/sifive_fe310-g000_pll.c:239
20016390:	fcc42783          	lw	a5,-52(s0)
20016394:	1007f713          	andi	a4,a5,256
20016398:	0ff00793          	li	a5,255
2001639c:	00e7f563          	bgeu	a5,a4,200163a6 <__metal_driver_sifive_fe310_g000_pll_get_rate_hz+0x152>
/home/nicoladgg/wsFreedomStudio/sifive_hifive1_revb_hello/freedom-metal/src/drivers/sifive_fe310-g000_pll.c:240
200163a0:	fb842783          	lw	a5,-72(s0)
200163a4:	a819                	j	200163ba <__metal_driver_sifive_fe310_g000_pll_get_rate_hz+0x166>
/home/nicoladgg/wsFreedomStudio/sifive_hifive1_revb_hello/freedom-metal/src/drivers/sifive_fe310-g000_pll.c:242
200163a6:	fb842703          	lw	a4,-72(s0)
200163aa:	fcc42783          	lw	a5,-52(s0)
200163ae:	03f7f793          	andi	a5,a5,63
200163b2:	0785                	addi	a5,a5,1
200163b4:	0786                	slli	a5,a5,0x1
200163b6:	02f757b3          	divu	a5,a4,a5
/home/nicoladgg/wsFreedomStudio/sifive_hifive1_revb_hello/freedom-metal/src/drivers/sifive_fe310-g000_pll.c:243
200163ba:	853e                	mv	a0,a5
200163bc:	40f6                	lw	ra,92(sp)
200163be:	4466                	lw	s0,88(sp)
200163c0:	6125                	addi	sp,sp,96
200163c2:	8082                	ret

200163c4 <find_closest_config>:
find_closest_config():
/home/nicoladgg/wsFreedomStudio/sifive_hifive1_revb_hello/freedom-metal/src/drivers/sifive_fe310-g000_pll.c:253
200163c4:	7139                	addi	sp,sp,-64
200163c6:	de06                	sw	ra,60(sp)
200163c8:	dc22                	sw	s0,56(sp)
200163ca:	0080                	addi	s0,sp,64
200163cc:	fca42623          	sw	a0,-52(s0)
200163d0:	fcb42423          	sw	a1,-56(s0)
/home/nicoladgg/wsFreedomStudio/sifive_hifive1_revb_hello/freedom-metal/src/drivers/sifive_fe310-g000_pll.c:254
200163d4:	57fd                	li	a5,-1
200163d6:	fef42623          	sw	a5,-20(s0)
/home/nicoladgg/wsFreedomStudio/sifive_hifive1_revb_hello/freedom-metal/src/drivers/sifive_fe310-g000_pll.c:255
200163da:	800007b7          	lui	a5,0x80000
200163de:	fff7c793          	not	a5,a5
200163e2:	fef42423          	sw	a5,-24(s0)
/home/nicoladgg/wsFreedomStudio/sifive_hifive1_revb_hello/freedom-metal/src/drivers/sifive_fe310-g000_pll.c:259
200163e6:	04300793          	li	a5,67
200163ea:	fef42223          	sw	a5,-28(s0)
200163ee:	a0b5                	j	2001645a <find_closest_config+0x96>
/home/nicoladgg/wsFreedomStudio/sifive_hifive1_revb_hello/freedom-metal/src/drivers/sifive_fe310-g000_pll.c:261
200163f0:	fcc42683          	lw	a3,-52(s0)
200163f4:	fe442783          	lw	a5,-28(s0)
200163f8:	00579713          	slli	a4,a5,0x5
200163fc:	200117b7          	lui	a5,0x20011
20016400:	8dc78793          	addi	a5,a5,-1828 # 200108dc <pll_configs>
20016404:	97ba                	add	a5,a5,a4
20016406:	85be                	mv	a1,a5
20016408:	8536                	mv	a0,a3
2001640a:	d59ff0ef          	jal	ra,20016162 <get_pll_config_freq>
2001640e:	fea42023          	sw	a0,-32(s0)
/home/nicoladgg/wsFreedomStudio/sifive_hifive1_revb_hello/freedom-metal/src/drivers/sifive_fe310-g000_pll.c:262
20016412:	fe042703          	lw	a4,-32(s0)
20016416:	57fd                	li	a5,-1
20016418:	02f70c63          	beq	a4,a5,20016450 <find_closest_config+0x8c>
/home/nicoladgg/wsFreedomStudio/sifive_hifive1_revb_hello/freedom-metal/src/drivers/sifive_fe310-g000_pll.c:263
2001641c:	fe042703          	lw	a4,-32(s0)
20016420:	fc842783          	lw	a5,-56(s0)
20016424:	8f1d                	sub	a4,a4,a5
20016426:	41f75793          	srai	a5,a4,0x1f
2001642a:	8f3d                	xor	a4,a4,a5
2001642c:	40f707b3          	sub	a5,a4,a5
20016430:	fcf42e23          	sw	a5,-36(s0)
/home/nicoladgg/wsFreedomStudio/sifive_hifive1_revb_hello/freedom-metal/src/drivers/sifive_fe310-g000_pll.c:265
20016434:	fdc42703          	lw	a4,-36(s0)
20016438:	fe842783          	lw	a5,-24(s0)
2001643c:	00f75a63          	bge	a4,a5,20016450 <find_closest_config+0x8c>
/home/nicoladgg/wsFreedomStudio/sifive_hifive1_revb_hello/freedom-metal/src/drivers/sifive_fe310-g000_pll.c:266
20016440:	fe442783          	lw	a5,-28(s0)
20016444:	fef42623          	sw	a5,-20(s0)
/home/nicoladgg/wsFreedomStudio/sifive_hifive1_revb_hello/freedom-metal/src/drivers/sifive_fe310-g000_pll.c:267
20016448:	fdc42783          	lw	a5,-36(s0)
2001644c:	fef42423          	sw	a5,-24(s0)
/home/nicoladgg/wsFreedomStudio/sifive_hifive1_revb_hello/freedom-metal/src/drivers/sifive_fe310-g000_pll.c:260
20016450:	fe442783          	lw	a5,-28(s0)
20016454:	17fd                	addi	a5,a5,-1
20016456:	fef42223          	sw	a5,-28(s0)
/home/nicoladgg/wsFreedomStudio/sifive_hifive1_revb_hello/freedom-metal/src/drivers/sifive_fe310-g000_pll.c:259 (discriminator 1)
2001645a:	fe442783          	lw	a5,-28(s0)
2001645e:	f807d9e3          	bgez	a5,200163f0 <find_closest_config+0x2c>
/home/nicoladgg/wsFreedomStudio/sifive_hifive1_revb_hello/freedom-metal/src/drivers/sifive_fe310-g000_pll.c:272
20016462:	fec42783          	lw	a5,-20(s0)
/home/nicoladgg/wsFreedomStudio/sifive_hifive1_revb_hello/freedom-metal/src/drivers/sifive_fe310-g000_pll.c:273
20016466:	853e                	mv	a0,a5
20016468:	50f2                	lw	ra,60(sp)
2001646a:	5462                	lw	s0,56(sp)
2001646c:	6121                	addi	sp,sp,64
2001646e:	8082                	ret

20016470 <configure_pll>:
configure_pll():
/home/nicoladgg/wsFreedomStudio/sifive_hifive1_revb_hello/freedom-metal/src/drivers/sifive_fe310-g000_pll.c:290
20016470:	7179                	addi	sp,sp,-48
20016472:	d606                	sw	ra,44(sp)
20016474:	d422                	sw	s0,40(sp)
20016476:	1800                	addi	s0,sp,48
20016478:	fca42e23          	sw	a0,-36(s0)
2001647c:	fcb42c23          	sw	a1,-40(s0)
20016480:	fcc42a23          	sw	a2,-44(s0)
/home/nicoladgg/wsFreedomStudio/sifive_hifive1_revb_hello/freedom-metal/src/drivers/sifive_fe310-g000_pll.c:291
20016484:	fdc42783          	lw	a5,-36(s0)
20016488:	439c                	lw	a5,0(a5)
2001648a:	ff87f713          	andi	a4,a5,-8
2001648e:	fdc42783          	lw	a5,-36(s0)
20016492:	c398                	sw	a4,0(a5)
/home/nicoladgg/wsFreedomStudio/sifive_hifive1_revb_hello/freedom-metal/src/drivers/sifive_fe310-g000_pll.c:292
20016494:	fdc42783          	lw	a5,-36(s0)
20016498:	4398                	lw	a4,0(a5)
2001649a:	fd442783          	lw	a5,-44(s0)
2001649e:	4b9c                	lw	a5,16(a5)
200164a0:	8b9d                	andi	a5,a5,7
200164a2:	8f5d                	or	a4,a4,a5
200164a4:	fdc42783          	lw	a5,-36(s0)
200164a8:	c398                	sw	a4,0(a5)
/home/nicoladgg/wsFreedomStudio/sifive_hifive1_revb_hello/freedom-metal/src/drivers/sifive_fe310-g000_pll.c:294
200164aa:	fdc42783          	lw	a5,-36(s0)
200164ae:	439c                	lw	a5,0(a5)
200164b0:	c0f7f713          	andi	a4,a5,-1009
200164b4:	fdc42783          	lw	a5,-36(s0)
200164b8:	c398                	sw	a4,0(a5)
/home/nicoladgg/wsFreedomStudio/sifive_hifive1_revb_hello/freedom-metal/src/drivers/sifive_fe310-g000_pll.c:295
200164ba:	fdc42783          	lw	a5,-36(s0)
200164be:	4398                	lw	a4,0(a5)
200164c0:	fd442783          	lw	a5,-44(s0)
200164c4:	4bdc                	lw	a5,20(a5)
200164c6:	0792                	slli	a5,a5,0x4
200164c8:	3f07f793          	andi	a5,a5,1008
200164cc:	8f5d                	or	a4,a4,a5
200164ce:	fdc42783          	lw	a5,-36(s0)
200164d2:	c398                	sw	a4,0(a5)
/home/nicoladgg/wsFreedomStudio/sifive_hifive1_revb_hello/freedom-metal/src/drivers/sifive_fe310-g000_pll.c:297
200164d4:	fdc42783          	lw	a5,-36(s0)
200164d8:	4398                	lw	a4,0(a5)
200164da:	77fd                	lui	a5,0xfffff
200164dc:	3ff78793          	addi	a5,a5,1023 # fffff3ff <metal_segment_heap_target_end+0x7fffdc7f>
200164e0:	8f7d                	and	a4,a4,a5
200164e2:	fdc42783          	lw	a5,-36(s0)
200164e6:	c398                	sw	a4,0(a5)
/home/nicoladgg/wsFreedomStudio/sifive_hifive1_revb_hello/freedom-metal/src/drivers/sifive_fe310-g000_pll.c:298
200164e8:	fdc42783          	lw	a5,-36(s0)
200164ec:	4398                	lw	a4,0(a5)
200164ee:	fd442783          	lw	a5,-44(s0)
200164f2:	4f9c                	lw	a5,24(a5)
200164f4:	00a79693          	slli	a3,a5,0xa
200164f8:	6785                	lui	a5,0x1
200164fa:	c0078793          	addi	a5,a5,-1024 # c00 <__heap_size+0x400>
200164fe:	8ff5                	and	a5,a5,a3
20016500:	8f5d                	or	a4,a4,a5
20016502:	fdc42783          	lw	a5,-36(s0)
20016506:	c398                	sw	a4,0(a5)
/home/nicoladgg/wsFreedomStudio/sifive_hifive1_revb_hello/freedom-metal/src/drivers/sifive_fe310-g000_pll.c:300
20016508:	fd442783          	lw	a5,-44(s0)
2001650c:	4fdc                	lw	a5,28(a5)
2001650e:	0207db63          	bgez	a5,20016544 <configure_pll+0xd4>
/home/nicoladgg/wsFreedomStudio/sifive_hifive1_revb_hello/freedom-metal/src/drivers/sifive_fe310-g000_pll.c:302
20016512:	fd842783          	lw	a5,-40(s0)
20016516:	439c                	lw	a5,0(a5)
20016518:	1007e713          	ori	a4,a5,256
2001651c:	fd842783          	lw	a5,-40(s0)
20016520:	c398                	sw	a4,0(a5)
/home/nicoladgg/wsFreedomStudio/sifive_hifive1_revb_hello/freedom-metal/src/drivers/sifive_fe310-g000_pll.c:304
20016522:	fd842783          	lw	a5,-40(s0)
20016526:	439c                	lw	a5,0(a5)
20016528:	fc07f713          	andi	a4,a5,-64
2001652c:	fd842783          	lw	a5,-40(s0)
20016530:	c398                	sw	a4,0(a5)
/home/nicoladgg/wsFreedomStudio/sifive_hifive1_revb_hello/freedom-metal/src/drivers/sifive_fe310-g000_pll.c:305
20016532:	fd842783          	lw	a5,-40(s0)
20016536:	439c                	lw	a5,0(a5)
20016538:	0017e713          	ori	a4,a5,1
2001653c:	fd842783          	lw	a5,-40(s0)
20016540:	c398                	sw	a4,0(a5)
20016542:	a82d                	j	2001657c <configure_pll+0x10c>
/home/nicoladgg/wsFreedomStudio/sifive_hifive1_revb_hello/freedom-metal/src/drivers/sifive_fe310-g000_pll.c:307
20016544:	fd842783          	lw	a5,-40(s0)
20016548:	439c                	lw	a5,0(a5)
2001654a:	eff7f713          	andi	a4,a5,-257
2001654e:	fd842783          	lw	a5,-40(s0)
20016552:	c398                	sw	a4,0(a5)
/home/nicoladgg/wsFreedomStudio/sifive_hifive1_revb_hello/freedom-metal/src/drivers/sifive_fe310-g000_pll.c:309
20016554:	fd842783          	lw	a5,-40(s0)
20016558:	439c                	lw	a5,0(a5)
2001655a:	fc07f713          	andi	a4,a5,-64
2001655e:	fd842783          	lw	a5,-40(s0)
20016562:	c398                	sw	a4,0(a5)
/home/nicoladgg/wsFreedomStudio/sifive_hifive1_revb_hello/freedom-metal/src/drivers/sifive_fe310-g000_pll.c:310
20016564:	fd842783          	lw	a5,-40(s0)
20016568:	4398                	lw	a4,0(a5)
2001656a:	fd442783          	lw	a5,-44(s0)
2001656e:	4fdc                	lw	a5,28(a5)
20016570:	03f7f793          	andi	a5,a5,63
20016574:	8f5d                	or	a4,a4,a5
20016576:	fd842783          	lw	a5,-40(s0)
2001657a:	c398                	sw	a4,0(a5)
/home/nicoladgg/wsFreedomStudio/sifive_hifive1_revb_hello/freedom-metal/src/drivers/sifive_fe310-g000_pll.c:313
2001657c:	fdc42783          	lw	a5,-36(s0)
20016580:	4398                	lw	a4,0(a5)
20016582:	fffc07b7          	lui	a5,0xfffc0
20016586:	17fd                	addi	a5,a5,-1
20016588:	8f7d                	and	a4,a4,a5
2001658a:	fdc42783          	lw	a5,-36(s0)
2001658e:	c398                	sw	a4,0(a5)
/home/nicoladgg/wsFreedomStudio/sifive_hifive1_revb_hello/freedom-metal/src/drivers/sifive_fe310-g000_pll.c:318
20016590:	fe040793          	addi	a5,s0,-32
20016594:	863e                	mv	a2,a5
20016596:	4585                	li	a1,1
20016598:	800017b7          	lui	a5,0x80001
2001659c:	aa878513          	addi	a0,a5,-1368 # 80000aa8 <metal_segment_heap_target_end+0xfffff328>
200165a0:	c5efd0ef          	jal	ra,200139fe <__metal_driver_riscv_clint0_command_request>
/home/nicoladgg/wsFreedomStudio/sifive_hifive1_revb_hello/freedom-metal/src/drivers/sifive_fe310-g000_pll.c:320
200165a4:	fe042603          	lw	a2,-32(s0)
200165a8:	fe442683          	lw	a3,-28(s0)
200165ac:	4511                	li	a0,4
200165ae:	4581                	li	a1,0
200165b0:	00a60733          	add	a4,a2,a0
200165b4:	883a                	mv	a6,a4
200165b6:	00c83833          	sltu	a6,a6,a2
200165ba:	00b687b3          	add	a5,a3,a1
200165be:	00f806b3          	add	a3,a6,a5
200165c2:	87b6                	mv	a5,a3
200165c4:	fee42423          	sw	a4,-24(s0)
200165c8:	fef42623          	sw	a5,-20(s0)
/home/nicoladgg/wsFreedomStudio/sifive_hifive1_revb_hello/freedom-metal/src/drivers/sifive_fe310-g000_pll.c:321
200165cc:	a819                	j	200165e2 <configure_pll+0x172>
/home/nicoladgg/wsFreedomStudio/sifive_hifive1_revb_hello/freedom-metal/src/drivers/sifive_fe310-g000_pll.c:322
200165ce:	fe040793          	addi	a5,s0,-32
200165d2:	863e                	mv	a2,a5
200165d4:	4585                	li	a1,1
200165d6:	800017b7          	lui	a5,0x80001
200165da:	aa878513          	addi	a0,a5,-1368 # 80000aa8 <metal_segment_heap_target_end+0xfffff328>
200165de:	c20fd0ef          	jal	ra,200139fe <__metal_driver_riscv_clint0_command_request>
/home/nicoladgg/wsFreedomStudio/sifive_hifive1_revb_hello/freedom-metal/src/drivers/sifive_fe310-g000_pll.c:321
200165e2:	fe042703          	lw	a4,-32(s0)
200165e6:	fe442783          	lw	a5,-28(s0)
200165ea:	fec42683          	lw	a3,-20(s0)
200165ee:	863e                	mv	a2,a5
200165f0:	00c6ec63          	bltu	a3,a2,20016608 <configure_pll+0x198>
200165f4:	fec42683          	lw	a3,-20(s0)
200165f8:	863e                	mv	a2,a5
200165fa:	fcc69ae3          	bne	a3,a2,200165ce <configure_pll+0x15e>
200165fe:	fe842683          	lw	a3,-24(s0)
20016602:	87ba                	mv	a5,a4
20016604:	fcf6f5e3          	bgeu	a3,a5,200165ce <configure_pll+0x15e>
/home/nicoladgg/wsFreedomStudio/sifive_hifive1_revb_hello/freedom-metal/src/drivers/sifive_fe310-g000_pll.c:340
20016608:	0001                	nop
/home/nicoladgg/wsFreedomStudio/sifive_hifive1_revb_hello/freedom-metal/src/drivers/sifive_fe310-g000_pll.c:340 (discriminator 1)
2001660a:	fdc42783          	lw	a5,-36(s0)
2001660e:	439c                	lw	a5,0(a5)
20016610:	fe07dde3          	bgez	a5,2001660a <configure_pll+0x19a>
/home/nicoladgg/wsFreedomStudio/sifive_hifive1_revb_hello/freedom-metal/src/drivers/sifive_fe310-g000_pll.c:342
20016614:	0001                	nop
20016616:	0001                	nop
20016618:	50b2                	lw	ra,44(sp)
2001661a:	5422                	lw	s0,40(sp)
2001661c:	6145                	addi	sp,sp,48
2001661e:	8082                	ret

20016620 <__metal_driver_sifive_fe310_g000_pll_set_rate_hz>:
__metal_driver_sifive_fe310_g000_pll_set_rate_hz():
/home/nicoladgg/wsFreedomStudio/sifive_hifive1_revb_hello/freedom-metal/src/drivers/sifive_fe310-g000_pll.c:345
20016620:	715d                	addi	sp,sp,-80
20016622:	c686                	sw	ra,76(sp)
20016624:	c4a2                	sw	s0,72(sp)
20016626:	0880                	addi	s0,sp,80
20016628:	faa42e23          	sw	a0,-68(s0)
2001662c:	fab42c23          	sw	a1,-72(s0)
/home/nicoladgg/wsFreedomStudio/sifive_hifive1_revb_hello/freedom-metal/src/drivers/sifive_fe310-g000_pll.c:347
20016630:	fbc42503          	lw	a0,-68(s0)
20016634:	a8bff0ef          	jal	ra,200160be <__metal_driver_sifive_fe310_g000_pll_pllref>
20016638:	fea42623          	sw	a0,-20(s0)
/home/nicoladgg/wsFreedomStudio/sifive_hifive1_revb_hello/freedom-metal/src/drivers/sifive_fe310-g000_pll.c:349
2001663c:	fbc42503          	lw	a0,-68(s0)
20016640:	a65ff0ef          	jal	ra,200160a4 <__metal_driver_sifive_fe310_g000_pll_pllsel0>
20016644:	fea42423          	sw	a0,-24(s0)
/home/nicoladgg/wsFreedomStudio/sifive_hifive1_revb_hello/freedom-metal/src/drivers/sifive_fe310-g000_pll.c:351
20016648:	fbc42503          	lw	a0,-68(s0)
2001664c:	ac9ff0ef          	jal	ra,20016114 <__metal_driver_sifive_fe310_g000_pll_config_offset>
20016650:	fea42223          	sw	a0,-28(s0)
/home/nicoladgg/wsFreedomStudio/sifive_hifive1_revb_hello/freedom-metal/src/drivers/sifive_fe310-g000_pll.c:353
20016654:	fbc42503          	lw	a0,-68(s0)
20016658:	a97ff0ef          	jal	ra,200160ee <__metal_driver_sifive_fe310_g000_pll_divider_offset>
2001665c:	fea42023          	sw	a0,-32(s0)
/home/nicoladgg/wsFreedomStudio/sifive_hifive1_revb_hello/freedom-metal/src/drivers/sifive_fe310-g000_pll.c:354
20016660:	adbff0ef          	jal	ra,2001613a <__metal_driver_sifive_fe310_g000_prci_base>
20016664:	fca42e23          	sw	a0,-36(s0)
/home/nicoladgg/wsFreedomStudio/sifive_hifive1_revb_hello/freedom-metal/src/drivers/sifive_fe310-g000_pll.c:356
20016668:	fdc42703          	lw	a4,-36(s0)
2001666c:	fe442783          	lw	a5,-28(s0)
20016670:	97ba                	add	a5,a5,a4
20016672:	fcf42c23          	sw	a5,-40(s0)
/home/nicoladgg/wsFreedomStudio/sifive_hifive1_revb_hello/freedom-metal/src/drivers/sifive_fe310-g000_pll.c:357
20016676:	fdc42703          	lw	a4,-36(s0)
2001667a:	fe042783          	lw	a5,-32(s0)
2001667e:	97ba                	add	a5,a5,a4
20016680:	fcf42a23          	sw	a5,-44(s0)
/home/nicoladgg/wsFreedomStudio/sifive_hifive1_revb_hello/freedom-metal/src/drivers/sifive_fe310-g000_pll.c:360
20016684:	fd842783          	lw	a5,-40(s0)
20016688:	4398                	lw	a4,0(a5)
2001668a:	67c1                	lui	a5,0x10
2001668c:	8ff9                	and	a5,a5,a4
2001668e:	cb91                	beqz	a5,200166a2 <__metal_driver_sifive_fe310_g000_pll_set_rate_hz+0x82>
/home/nicoladgg/wsFreedomStudio/sifive_hifive1_revb_hello/freedom-metal/src/drivers/sifive_fe310-g000_pll.c:361
20016690:	fd842783          	lw	a5,-40(s0)
20016694:	4398                	lw	a4,0(a5)
20016696:	77c1                	lui	a5,0xffff0
20016698:	17fd                	addi	a5,a5,-1
2001669a:	8f7d                	and	a4,a4,a5
2001669c:	fd842783          	lw	a5,-40(s0)
200166a0:	c398                	sw	a4,0(a5)
/home/nicoladgg/wsFreedomStudio/sifive_hifive1_revb_hello/freedom-metal/src/drivers/sifive_fe310-g000_pll.c:366
200166a2:	fd842783          	lw	a5,-40(s0)
200166a6:	4398                	lw	a4,0(a5)
200166a8:	000207b7          	lui	a5,0x20
200166ac:	8ff9                	and	a5,a5,a4
/home/nicoladgg/wsFreedomStudio/sifive_hifive1_revb_hello/freedom-metal/src/drivers/sifive_fe310-g000_pll.c:365
200166ae:	c781                	beqz	a5,200166b6 <__metal_driver_sifive_fe310_g000_pll_set_rate_hz+0x96>
/home/nicoladgg/wsFreedomStudio/sifive_hifive1_revb_hello/freedom-metal/src/drivers/sifive_fe310-g000_pll.c:365 (discriminator 1)
200166b0:	fec42783          	lw	a5,-20(s0)
200166b4:	a019                	j	200166ba <__metal_driver_sifive_fe310_g000_pll_set_rate_hz+0x9a>
/home/nicoladgg/wsFreedomStudio/sifive_hifive1_revb_hello/freedom-metal/src/drivers/sifive_fe310-g000_pll.c:365 (discriminator 2)
200166b6:	fe842783          	lw	a5,-24(s0)
/home/nicoladgg/wsFreedomStudio/sifive_hifive1_revb_hello/freedom-metal/src/drivers/sifive_fe310-g000_pll.c:365 (discriminator 4)
200166ba:	853e                	mv	a0,a5
200166bc:	376010ef          	jal	ra,20017a32 <metal_clock_get_rate_hz>
200166c0:	fca42823          	sw	a0,-48(s0)
/home/nicoladgg/wsFreedomStudio/sifive_hifive1_revb_hello/freedom-metal/src/drivers/sifive_fe310-g000_pll.c:370 (discriminator 4)
200166c4:	fd042703          	lw	a4,-48(s0)
200166c8:	87ba                	mv	a5,a4
200166ca:	0786                	slli	a5,a5,0x1
200166cc:	97ba                	add	a5,a5,a4
200166ce:	41f7d713          	srai	a4,a5,0x1f
200166d2:	8b0d                	andi	a4,a4,3
200166d4:	97ba                	add	a5,a5,a4
200166d6:	8789                	srai	a5,a5,0x2
200166d8:	873e                	mv	a4,a5
200166da:	fb842783          	lw	a5,-72(s0)
200166de:	02e7cb63          	blt	a5,a4,20016714 <__metal_driver_sifive_fe310_g000_pll_set_rate_hz+0xf4>
/home/nicoladgg/wsFreedomStudio/sifive_hifive1_revb_hello/freedom-metal/src/drivers/sifive_fe310-g000_pll.c:370 (discriminator 1)
200166e2:	fd042703          	lw	a4,-48(s0)
200166e6:	87ba                	mv	a5,a4
200166e8:	078a                	slli	a5,a5,0x2
200166ea:	97ba                	add	a5,a5,a4
200166ec:	41f7d713          	srai	a4,a5,0x1f
200166f0:	8b0d                	andi	a4,a4,3
200166f2:	97ba                	add	a5,a5,a4
200166f4:	8789                	srai	a5,a5,0x2
200166f6:	873e                	mv	a4,a5
200166f8:	fb842783          	lw	a5,-72(s0)
200166fc:	00f74c63          	blt	a4,a5,20016714 <__metal_driver_sifive_fe310_g000_pll_set_rate_hz+0xf4>
/home/nicoladgg/wsFreedomStudio/sifive_hifive1_revb_hello/freedom-metal/src/drivers/sifive_fe310-g000_pll.c:371
20016700:	fd842783          	lw	a5,-40(s0)
20016704:	4398                	lw	a4,0(a5)
20016706:	000407b7          	lui	a5,0x40
2001670a:	8f5d                	or	a4,a4,a5
2001670c:	fd842783          	lw	a5,-40(s0)
20016710:	c398                	sw	a4,0(a5)
20016712:	a881                	j	20016762 <__metal_driver_sifive_fe310_g000_pll_set_rate_hz+0x142>
/home/nicoladgg/wsFreedomStudio/sifive_hifive1_revb_hello/freedom-metal/src/drivers/sifive_fe310-g000_pll.c:373
20016714:	fb842583          	lw	a1,-72(s0)
20016718:	fd042503          	lw	a0,-48(s0)
2001671c:	ca9ff0ef          	jal	ra,200163c4 <find_closest_config>
20016720:	fca42623          	sw	a0,-52(s0)
/home/nicoladgg/wsFreedomStudio/sifive_hifive1_revb_hello/freedom-metal/src/drivers/sifive_fe310-g000_pll.c:374
20016724:	fcc42703          	lw	a4,-52(s0)
20016728:	57fd                	li	a5,-1
2001672a:	02f70363          	beq	a4,a5,20016750 <__metal_driver_sifive_fe310_g000_pll_set_rate_hz+0x130>
/home/nicoladgg/wsFreedomStudio/sifive_hifive1_revb_hello/freedom-metal/src/drivers/sifive_fe310-g000_pll.c:375
2001672e:	fcc42783          	lw	a5,-52(s0)
20016732:	00579713          	slli	a4,a5,0x5
20016736:	200117b7          	lui	a5,0x20011
2001673a:	8dc78793          	addi	a5,a5,-1828 # 200108dc <pll_configs>
2001673e:	97ba                	add	a5,a5,a4
20016740:	863e                	mv	a2,a5
20016742:	fd442583          	lw	a1,-44(s0)
20016746:	fd842503          	lw	a0,-40(s0)
2001674a:	d27ff0ef          	jal	ra,20016470 <configure_pll>
2001674e:	a811                	j	20016762 <__metal_driver_sifive_fe310_g000_pll_set_rate_hz+0x142>
/home/nicoladgg/wsFreedomStudio/sifive_hifive1_revb_hello/freedom-metal/src/drivers/sifive_fe310-g000_pll.c:378
20016750:	fd842783          	lw	a5,-40(s0)
20016754:	4398                	lw	a4,0(a5)
20016756:	000407b7          	lui	a5,0x40
2001675a:	8f5d                	or	a4,a4,a5
2001675c:	fd842783          	lw	a5,-40(s0)
20016760:	c398                	sw	a4,0(a5)
/home/nicoladgg/wsFreedomStudio/sifive_hifive1_revb_hello/freedom-metal/src/drivers/sifive_fe310-g000_pll.c:383
20016762:	fd842783          	lw	a5,-40(s0)
20016766:	4398                	lw	a4,0(a5)
20016768:	67c1                	lui	a5,0x10
2001676a:	8f5d                	or	a4,a4,a5
2001676c:	fd842783          	lw	a5,-40(s0)
20016770:	c398                	sw	a4,0(a5)
/home/nicoladgg/wsFreedomStudio/sifive_hifive1_revb_hello/freedom-metal/src/drivers/sifive_fe310-g000_pll.c:385
20016772:	fbc42503          	lw	a0,-68(s0)
20016776:	adfff0ef          	jal	ra,20016254 <__metal_driver_sifive_fe310_g000_pll_get_rate_hz>
2001677a:	87aa                	mv	a5,a0
/home/nicoladgg/wsFreedomStudio/sifive_hifive1_revb_hello/freedom-metal/src/drivers/sifive_fe310-g000_pll.c:386
2001677c:	853e                	mv	a0,a5
2001677e:	40b6                	lw	ra,76(sp)
20016780:	4426                	lw	s0,72(sp)
20016782:	6161                	addi	sp,sp,80
20016784:	8082                	ret

20016786 <__metal_driver_sifive_fe310_g000_prci_base>:
__metal_driver_sifive_fe310_g000_prci_base():
/home/nicoladgg/wsFreedomStudio/sifive_hifive1_revb_hello/bsp/build/debug/./metal/machine.h:1364
20016786:	1141                	addi	sp,sp,-16
20016788:	c622                	sw	s0,12(sp)
2001678a:	0800                	addi	s0,sp,16
/home/nicoladgg/wsFreedomStudio/sifive_hifive1_revb_hello/bsp/build/debug/./metal/machine.h:1365
2001678c:	100087b7          	lui	a5,0x10008
/home/nicoladgg/wsFreedomStudio/sifive_hifive1_revb_hello/bsp/build/debug/./metal/machine.h:1366
20016790:	853e                	mv	a0,a5
20016792:	4432                	lw	s0,12(sp)
20016794:	0141                	addi	sp,sp,16
20016796:	8082                	ret

20016798 <__metal_driver_sifive_fe310_g000_prci_get_reg>:
__metal_driver_sifive_fe310_g000_prci_get_reg():
/home/nicoladgg/wsFreedomStudio/sifive_hifive1_revb_hello/freedom-metal/src/drivers/sifive_fe310-g000_prci.c:12
20016798:	7179                	addi	sp,sp,-48
2001679a:	d606                	sw	ra,44(sp)
2001679c:	d422                	sw	s0,40(sp)
2001679e:	1800                	addi	s0,sp,48
200167a0:	fca42e23          	sw	a0,-36(s0)
200167a4:	fcb42c23          	sw	a1,-40(s0)
/home/nicoladgg/wsFreedomStudio/sifive_hifive1_revb_hello/freedom-metal/src/drivers/sifive_fe310-g000_prci.c:13
200167a8:	3ff9                	jal	20016786 <__metal_driver_sifive_fe310_g000_prci_base>
200167aa:	87aa                	mv	a5,a0
200167ac:	fef42623          	sw	a5,-20(s0)
/home/nicoladgg/wsFreedomStudio/sifive_hifive1_revb_hello/freedom-metal/src/drivers/sifive_fe310-g000_prci.c:14
200167b0:	fd842703          	lw	a4,-40(s0)
200167b4:	fec42783          	lw	a5,-20(s0)
200167b8:	97ba                	add	a5,a5,a4
200167ba:	439c                	lw	a5,0(a5)
/home/nicoladgg/wsFreedomStudio/sifive_hifive1_revb_hello/freedom-metal/src/drivers/sifive_fe310-g000_prci.c:15
200167bc:	853e                	mv	a0,a5
200167be:	50b2                	lw	ra,44(sp)
200167c0:	5422                	lw	s0,40(sp)
200167c2:	6145                	addi	sp,sp,48
200167c4:	8082                	ret

200167c6 <__metal_driver_sifive_fe310_g000_prci_set_reg>:
__metal_driver_sifive_fe310_g000_prci_set_reg():
/home/nicoladgg/wsFreedomStudio/sifive_hifive1_revb_hello/freedom-metal/src/drivers/sifive_fe310-g000_prci.c:19
200167c6:	7179                	addi	sp,sp,-48
200167c8:	d606                	sw	ra,44(sp)
200167ca:	d422                	sw	s0,40(sp)
200167cc:	1800                	addi	s0,sp,48
200167ce:	fca42e23          	sw	a0,-36(s0)
200167d2:	fcb42c23          	sw	a1,-40(s0)
200167d6:	fcc42a23          	sw	a2,-44(s0)
/home/nicoladgg/wsFreedomStudio/sifive_hifive1_revb_hello/freedom-metal/src/drivers/sifive_fe310-g000_prci.c:20
200167da:	3775                	jal	20016786 <__metal_driver_sifive_fe310_g000_prci_base>
200167dc:	87aa                	mv	a5,a0
200167de:	fef42623          	sw	a5,-20(s0)
/home/nicoladgg/wsFreedomStudio/sifive_hifive1_revb_hello/freedom-metal/src/drivers/sifive_fe310-g000_prci.c:21
200167e2:	fd842703          	lw	a4,-40(s0)
200167e6:	fec42783          	lw	a5,-20(s0)
200167ea:	97ba                	add	a5,a5,a4
200167ec:	873e                	mv	a4,a5
200167ee:	fd442783          	lw	a5,-44(s0)
200167f2:	c31c                	sw	a5,0(a4)
/home/nicoladgg/wsFreedomStudio/sifive_hifive1_revb_hello/freedom-metal/src/drivers/sifive_fe310-g000_prci.c:22
200167f4:	853e                	mv	a0,a5
200167f6:	50b2                	lw	ra,44(sp)
200167f8:	5422                	lw	s0,40(sp)
200167fa:	6145                	addi	sp,sp,48
200167fc:	8082                	ret

200167fe <__metal_driver_sifive_gpio0_base>:
__metal_driver_sifive_gpio0_base():
/home/nicoladgg/wsFreedomStudio/sifive_hifive1_revb_hello/bsp/build/debug/./metal/machine.h:430
200167fe:	1101                	addi	sp,sp,-32
20016800:	ce22                	sw	s0,28(sp)
20016802:	1000                	addi	s0,sp,32
20016804:	fea42623          	sw	a0,-20(s0)
/home/nicoladgg/wsFreedomStudio/sifive_hifive1_revb_hello/bsp/build/debug/./metal/machine.h:431
20016808:	fec42703          	lw	a4,-20(s0)
2001680c:	81818793          	addi	a5,gp,-2024 # 80000ab8 <__metal_dt_gpio_10012000>
20016810:	00f71563          	bne	a4,a5,2001681a <__metal_driver_sifive_gpio0_base+0x1c>
/home/nicoladgg/wsFreedomStudio/sifive_hifive1_revb_hello/bsp/build/debug/./metal/machine.h:432
20016814:	100127b7          	lui	a5,0x10012
20016818:	a011                	j	2001681c <__metal_driver_sifive_gpio0_base+0x1e>
/home/nicoladgg/wsFreedomStudio/sifive_hifive1_revb_hello/bsp/build/debug/./metal/machine.h:435
2001681a:	4781                	li	a5,0
/home/nicoladgg/wsFreedomStudio/sifive_hifive1_revb_hello/bsp/build/debug/./metal/machine.h:437
2001681c:	853e                	mv	a0,a5
2001681e:	4472                	lw	s0,28(sp)
20016820:	6105                	addi	sp,sp,32
20016822:	8082                	ret

20016824 <__metal_driver_sifive_gpio0_interrupt_parent>:
__metal_driver_sifive_gpio0_interrupt_parent():
/home/nicoladgg/wsFreedomStudio/sifive_hifive1_revb_hello/bsp/build/debug/./metal/machine.h:460
20016824:	1101                	addi	sp,sp,-32
20016826:	ce22                	sw	s0,28(sp)
20016828:	1000                	addi	s0,sp,32
2001682a:	fea42623          	sw	a0,-20(s0)
/home/nicoladgg/wsFreedomStudio/sifive_hifive1_revb_hello/bsp/build/debug/./metal/machine.h:461
2001682e:	fec42703          	lw	a4,-20(s0)
20016832:	81818793          	addi	a5,gp,-2024 # 80000ab8 <__metal_dt_gpio_10012000>
20016836:	00f71763          	bne	a4,a5,20016844 <__metal_driver_sifive_gpio0_interrupt_parent+0x20>
/home/nicoladgg/wsFreedomStudio/sifive_hifive1_revb_hello/bsp/build/debug/./metal/machine.h:462
2001683a:	800007b7          	lui	a5,0x80000
2001683e:	46078793          	addi	a5,a5,1120 # 80000460 <metal_segment_heap_target_end+0xffffece0>
20016842:	a011                	j	20016846 <__metal_driver_sifive_gpio0_interrupt_parent+0x22>
/home/nicoladgg/wsFreedomStudio/sifive_hifive1_revb_hello/bsp/build/debug/./metal/machine.h:465
20016844:	4781                	li	a5,0
/home/nicoladgg/wsFreedomStudio/sifive_hifive1_revb_hello/bsp/build/debug/./metal/machine.h:467
20016846:	853e                	mv	a0,a5
20016848:	4472                	lw	s0,28(sp)
2001684a:	6105                	addi	sp,sp,32
2001684c:	8082                	ret

2001684e <__metal_driver_sifive_gpio0_interrupt_lines>:
__metal_driver_sifive_gpio0_interrupt_lines():
/home/nicoladgg/wsFreedomStudio/sifive_hifive1_revb_hello/bsp/build/debug/./metal/machine.h:470
2001684e:	1101                	addi	sp,sp,-32
20016850:	ce22                	sw	s0,28(sp)
20016852:	1000                	addi	s0,sp,32
20016854:	fea42623          	sw	a0,-20(s0)
20016858:	feb42423          	sw	a1,-24(s0)
/home/nicoladgg/wsFreedomStudio/sifive_hifive1_revb_hello/bsp/build/debug/./metal/machine.h:471
2001685c:	fec42703          	lw	a4,-20(s0)
20016860:	81818793          	addi	a5,gp,-2024 # 80000ab8 <__metal_dt_gpio_10012000>
20016864:	00f71763          	bne	a4,a5,20016872 <__metal_driver_sifive_gpio0_interrupt_lines+0x24>
/home/nicoladgg/wsFreedomStudio/sifive_hifive1_revb_hello/bsp/build/debug/./metal/machine.h:471 (discriminator 1)
20016868:	fe842783          	lw	a5,-24(s0)
2001686c:	e399                	bnez	a5,20016872 <__metal_driver_sifive_gpio0_interrupt_lines+0x24>
/home/nicoladgg/wsFreedomStudio/sifive_hifive1_revb_hello/bsp/build/debug/./metal/machine.h:472
2001686e:	47a1                	li	a5,8
20016870:	ae15                	j	20016ba4 <__metal_driver_sifive_gpio0_interrupt_lines+0x356>
/home/nicoladgg/wsFreedomStudio/sifive_hifive1_revb_hello/bsp/build/debug/./metal/machine.h:474
20016872:	fec42703          	lw	a4,-20(s0)
20016876:	81818793          	addi	a5,gp,-2024 # 80000ab8 <__metal_dt_gpio_10012000>
2001687a:	00f71963          	bne	a4,a5,2001688c <__metal_driver_sifive_gpio0_interrupt_lines+0x3e>
/home/nicoladgg/wsFreedomStudio/sifive_hifive1_revb_hello/bsp/build/debug/./metal/machine.h:474 (discriminator 1)
2001687e:	fe842703          	lw	a4,-24(s0)
20016882:	4785                	li	a5,1
20016884:	00f71463          	bne	a4,a5,2001688c <__metal_driver_sifive_gpio0_interrupt_lines+0x3e>
/home/nicoladgg/wsFreedomStudio/sifive_hifive1_revb_hello/bsp/build/debug/./metal/machine.h:475
20016888:	47a5                	li	a5,9
2001688a:	ae29                	j	20016ba4 <__metal_driver_sifive_gpio0_interrupt_lines+0x356>
/home/nicoladgg/wsFreedomStudio/sifive_hifive1_revb_hello/bsp/build/debug/./metal/machine.h:477
2001688c:	fec42703          	lw	a4,-20(s0)
20016890:	81818793          	addi	a5,gp,-2024 # 80000ab8 <__metal_dt_gpio_10012000>
20016894:	00f71963          	bne	a4,a5,200168a6 <__metal_driver_sifive_gpio0_interrupt_lines+0x58>
/home/nicoladgg/wsFreedomStudio/sifive_hifive1_revb_hello/bsp/build/debug/./metal/machine.h:477 (discriminator 1)
20016898:	fe842703          	lw	a4,-24(s0)
2001689c:	4789                	li	a5,2
2001689e:	00f71463          	bne	a4,a5,200168a6 <__metal_driver_sifive_gpio0_interrupt_lines+0x58>
/home/nicoladgg/wsFreedomStudio/sifive_hifive1_revb_hello/bsp/build/debug/./metal/machine.h:478
200168a2:	47a9                	li	a5,10
200168a4:	a601                	j	20016ba4 <__metal_driver_sifive_gpio0_interrupt_lines+0x356>
/home/nicoladgg/wsFreedomStudio/sifive_hifive1_revb_hello/bsp/build/debug/./metal/machine.h:480
200168a6:	fec42703          	lw	a4,-20(s0)
200168aa:	81818793          	addi	a5,gp,-2024 # 80000ab8 <__metal_dt_gpio_10012000>
200168ae:	00f71963          	bne	a4,a5,200168c0 <__metal_driver_sifive_gpio0_interrupt_lines+0x72>
/home/nicoladgg/wsFreedomStudio/sifive_hifive1_revb_hello/bsp/build/debug/./metal/machine.h:480 (discriminator 1)
200168b2:	fe842703          	lw	a4,-24(s0)
200168b6:	478d                	li	a5,3
200168b8:	00f71463          	bne	a4,a5,200168c0 <__metal_driver_sifive_gpio0_interrupt_lines+0x72>
/home/nicoladgg/wsFreedomStudio/sifive_hifive1_revb_hello/bsp/build/debug/./metal/machine.h:481
200168bc:	47ad                	li	a5,11
200168be:	a4dd                	j	20016ba4 <__metal_driver_sifive_gpio0_interrupt_lines+0x356>
/home/nicoladgg/wsFreedomStudio/sifive_hifive1_revb_hello/bsp/build/debug/./metal/machine.h:483
200168c0:	fec42703          	lw	a4,-20(s0)
200168c4:	81818793          	addi	a5,gp,-2024 # 80000ab8 <__metal_dt_gpio_10012000>
200168c8:	00f71963          	bne	a4,a5,200168da <__metal_driver_sifive_gpio0_interrupt_lines+0x8c>
/home/nicoladgg/wsFreedomStudio/sifive_hifive1_revb_hello/bsp/build/debug/./metal/machine.h:483 (discriminator 1)
200168cc:	fe842703          	lw	a4,-24(s0)
200168d0:	4791                	li	a5,4
200168d2:	00f71463          	bne	a4,a5,200168da <__metal_driver_sifive_gpio0_interrupt_lines+0x8c>
/home/nicoladgg/wsFreedomStudio/sifive_hifive1_revb_hello/bsp/build/debug/./metal/machine.h:484
200168d6:	47b1                	li	a5,12
200168d8:	a4f1                	j	20016ba4 <__metal_driver_sifive_gpio0_interrupt_lines+0x356>
/home/nicoladgg/wsFreedomStudio/sifive_hifive1_revb_hello/bsp/build/debug/./metal/machine.h:486
200168da:	fec42703          	lw	a4,-20(s0)
200168de:	81818793          	addi	a5,gp,-2024 # 80000ab8 <__metal_dt_gpio_10012000>
200168e2:	00f71963          	bne	a4,a5,200168f4 <__metal_driver_sifive_gpio0_interrupt_lines+0xa6>
/home/nicoladgg/wsFreedomStudio/sifive_hifive1_revb_hello/bsp/build/debug/./metal/machine.h:486 (discriminator 1)
200168e6:	fe842703          	lw	a4,-24(s0)
200168ea:	4795                	li	a5,5
200168ec:	00f71463          	bne	a4,a5,200168f4 <__metal_driver_sifive_gpio0_interrupt_lines+0xa6>
/home/nicoladgg/wsFreedomStudio/sifive_hifive1_revb_hello/bsp/build/debug/./metal/machine.h:487
200168f0:	47b5                	li	a5,13
200168f2:	ac4d                	j	20016ba4 <__metal_driver_sifive_gpio0_interrupt_lines+0x356>
/home/nicoladgg/wsFreedomStudio/sifive_hifive1_revb_hello/bsp/build/debug/./metal/machine.h:489
200168f4:	fec42703          	lw	a4,-20(s0)
200168f8:	81818793          	addi	a5,gp,-2024 # 80000ab8 <__metal_dt_gpio_10012000>
200168fc:	00f71963          	bne	a4,a5,2001690e <__metal_driver_sifive_gpio0_interrupt_lines+0xc0>
/home/nicoladgg/wsFreedomStudio/sifive_hifive1_revb_hello/bsp/build/debug/./metal/machine.h:489 (discriminator 1)
20016900:	fe842703          	lw	a4,-24(s0)
20016904:	4799                	li	a5,6
20016906:	00f71463          	bne	a4,a5,2001690e <__metal_driver_sifive_gpio0_interrupt_lines+0xc0>
/home/nicoladgg/wsFreedomStudio/sifive_hifive1_revb_hello/bsp/build/debug/./metal/machine.h:490
2001690a:	47b9                	li	a5,14
2001690c:	ac61                	j	20016ba4 <__metal_driver_sifive_gpio0_interrupt_lines+0x356>
/home/nicoladgg/wsFreedomStudio/sifive_hifive1_revb_hello/bsp/build/debug/./metal/machine.h:492
2001690e:	fec42703          	lw	a4,-20(s0)
20016912:	81818793          	addi	a5,gp,-2024 # 80000ab8 <__metal_dt_gpio_10012000>
20016916:	00f71963          	bne	a4,a5,20016928 <__metal_driver_sifive_gpio0_interrupt_lines+0xda>
/home/nicoladgg/wsFreedomStudio/sifive_hifive1_revb_hello/bsp/build/debug/./metal/machine.h:492 (discriminator 1)
2001691a:	fe842703          	lw	a4,-24(s0)
2001691e:	479d                	li	a5,7
20016920:	00f71463          	bne	a4,a5,20016928 <__metal_driver_sifive_gpio0_interrupt_lines+0xda>
/home/nicoladgg/wsFreedomStudio/sifive_hifive1_revb_hello/bsp/build/debug/./metal/machine.h:493
20016924:	47bd                	li	a5,15
20016926:	acbd                	j	20016ba4 <__metal_driver_sifive_gpio0_interrupt_lines+0x356>
/home/nicoladgg/wsFreedomStudio/sifive_hifive1_revb_hello/bsp/build/debug/./metal/machine.h:495
20016928:	fec42703          	lw	a4,-20(s0)
2001692c:	81818793          	addi	a5,gp,-2024 # 80000ab8 <__metal_dt_gpio_10012000>
20016930:	00f71963          	bne	a4,a5,20016942 <__metal_driver_sifive_gpio0_interrupt_lines+0xf4>
/home/nicoladgg/wsFreedomStudio/sifive_hifive1_revb_hello/bsp/build/debug/./metal/machine.h:495 (discriminator 1)
20016934:	fe842703          	lw	a4,-24(s0)
20016938:	47a1                	li	a5,8
2001693a:	00f71463          	bne	a4,a5,20016942 <__metal_driver_sifive_gpio0_interrupt_lines+0xf4>
/home/nicoladgg/wsFreedomStudio/sifive_hifive1_revb_hello/bsp/build/debug/./metal/machine.h:496
2001693e:	47c1                	li	a5,16
20016940:	a495                	j	20016ba4 <__metal_driver_sifive_gpio0_interrupt_lines+0x356>
/home/nicoladgg/wsFreedomStudio/sifive_hifive1_revb_hello/bsp/build/debug/./metal/machine.h:498
20016942:	fec42703          	lw	a4,-20(s0)
20016946:	81818793          	addi	a5,gp,-2024 # 80000ab8 <__metal_dt_gpio_10012000>
2001694a:	00f71963          	bne	a4,a5,2001695c <__metal_driver_sifive_gpio0_interrupt_lines+0x10e>
/home/nicoladgg/wsFreedomStudio/sifive_hifive1_revb_hello/bsp/build/debug/./metal/machine.h:498 (discriminator 1)
2001694e:	fe842703          	lw	a4,-24(s0)
20016952:	47a5                	li	a5,9
20016954:	00f71463          	bne	a4,a5,2001695c <__metal_driver_sifive_gpio0_interrupt_lines+0x10e>
/home/nicoladgg/wsFreedomStudio/sifive_hifive1_revb_hello/bsp/build/debug/./metal/machine.h:499
20016958:	47c5                	li	a5,17
2001695a:	a4a9                	j	20016ba4 <__metal_driver_sifive_gpio0_interrupt_lines+0x356>
/home/nicoladgg/wsFreedomStudio/sifive_hifive1_revb_hello/bsp/build/debug/./metal/machine.h:501
2001695c:	fec42703          	lw	a4,-20(s0)
20016960:	81818793          	addi	a5,gp,-2024 # 80000ab8 <__metal_dt_gpio_10012000>
20016964:	00f71963          	bne	a4,a5,20016976 <__metal_driver_sifive_gpio0_interrupt_lines+0x128>
/home/nicoladgg/wsFreedomStudio/sifive_hifive1_revb_hello/bsp/build/debug/./metal/machine.h:501 (discriminator 1)
20016968:	fe842703          	lw	a4,-24(s0)
2001696c:	47a9                	li	a5,10
2001696e:	00f71463          	bne	a4,a5,20016976 <__metal_driver_sifive_gpio0_interrupt_lines+0x128>
/home/nicoladgg/wsFreedomStudio/sifive_hifive1_revb_hello/bsp/build/debug/./metal/machine.h:502
20016972:	47c9                	li	a5,18
20016974:	ac05                	j	20016ba4 <__metal_driver_sifive_gpio0_interrupt_lines+0x356>
/home/nicoladgg/wsFreedomStudio/sifive_hifive1_revb_hello/bsp/build/debug/./metal/machine.h:504
20016976:	fec42703          	lw	a4,-20(s0)
2001697a:	81818793          	addi	a5,gp,-2024 # 80000ab8 <__metal_dt_gpio_10012000>
2001697e:	00f71963          	bne	a4,a5,20016990 <__metal_driver_sifive_gpio0_interrupt_lines+0x142>
/home/nicoladgg/wsFreedomStudio/sifive_hifive1_revb_hello/bsp/build/debug/./metal/machine.h:504 (discriminator 1)
20016982:	fe842703          	lw	a4,-24(s0)
20016986:	47ad                	li	a5,11
20016988:	00f71463          	bne	a4,a5,20016990 <__metal_driver_sifive_gpio0_interrupt_lines+0x142>
/home/nicoladgg/wsFreedomStudio/sifive_hifive1_revb_hello/bsp/build/debug/./metal/machine.h:505
2001698c:	47cd                	li	a5,19
2001698e:	ac19                	j	20016ba4 <__metal_driver_sifive_gpio0_interrupt_lines+0x356>
/home/nicoladgg/wsFreedomStudio/sifive_hifive1_revb_hello/bsp/build/debug/./metal/machine.h:507
20016990:	fec42703          	lw	a4,-20(s0)
20016994:	81818793          	addi	a5,gp,-2024 # 80000ab8 <__metal_dt_gpio_10012000>
20016998:	00f71963          	bne	a4,a5,200169aa <__metal_driver_sifive_gpio0_interrupt_lines+0x15c>
/home/nicoladgg/wsFreedomStudio/sifive_hifive1_revb_hello/bsp/build/debug/./metal/machine.h:507 (discriminator 1)
2001699c:	fe842703          	lw	a4,-24(s0)
200169a0:	47b1                	li	a5,12
200169a2:	00f71463          	bne	a4,a5,200169aa <__metal_driver_sifive_gpio0_interrupt_lines+0x15c>
/home/nicoladgg/wsFreedomStudio/sifive_hifive1_revb_hello/bsp/build/debug/./metal/machine.h:508
200169a6:	47d1                	li	a5,20
200169a8:	aaf5                	j	20016ba4 <__metal_driver_sifive_gpio0_interrupt_lines+0x356>
/home/nicoladgg/wsFreedomStudio/sifive_hifive1_revb_hello/bsp/build/debug/./metal/machine.h:510
200169aa:	fec42703          	lw	a4,-20(s0)
200169ae:	81818793          	addi	a5,gp,-2024 # 80000ab8 <__metal_dt_gpio_10012000>
200169b2:	00f71963          	bne	a4,a5,200169c4 <__metal_driver_sifive_gpio0_interrupt_lines+0x176>
/home/nicoladgg/wsFreedomStudio/sifive_hifive1_revb_hello/bsp/build/debug/./metal/machine.h:510 (discriminator 1)
200169b6:	fe842703          	lw	a4,-24(s0)
200169ba:	47b5                	li	a5,13
200169bc:	00f71463          	bne	a4,a5,200169c4 <__metal_driver_sifive_gpio0_interrupt_lines+0x176>
/home/nicoladgg/wsFreedomStudio/sifive_hifive1_revb_hello/bsp/build/debug/./metal/machine.h:511
200169c0:	47d5                	li	a5,21
200169c2:	a2cd                	j	20016ba4 <__metal_driver_sifive_gpio0_interrupt_lines+0x356>
/home/nicoladgg/wsFreedomStudio/sifive_hifive1_revb_hello/bsp/build/debug/./metal/machine.h:513
200169c4:	fec42703          	lw	a4,-20(s0)
200169c8:	81818793          	addi	a5,gp,-2024 # 80000ab8 <__metal_dt_gpio_10012000>
200169cc:	00f71963          	bne	a4,a5,200169de <__metal_driver_sifive_gpio0_interrupt_lines+0x190>
/home/nicoladgg/wsFreedomStudio/sifive_hifive1_revb_hello/bsp/build/debug/./metal/machine.h:513 (discriminator 1)
200169d0:	fe842703          	lw	a4,-24(s0)
200169d4:	47b9                	li	a5,14
200169d6:	00f71463          	bne	a4,a5,200169de <__metal_driver_sifive_gpio0_interrupt_lines+0x190>
/home/nicoladgg/wsFreedomStudio/sifive_hifive1_revb_hello/bsp/build/debug/./metal/machine.h:514
200169da:	47d9                	li	a5,22
200169dc:	a2e1                	j	20016ba4 <__metal_driver_sifive_gpio0_interrupt_lines+0x356>
/home/nicoladgg/wsFreedomStudio/sifive_hifive1_revb_hello/bsp/build/debug/./metal/machine.h:516
200169de:	fec42703          	lw	a4,-20(s0)
200169e2:	81818793          	addi	a5,gp,-2024 # 80000ab8 <__metal_dt_gpio_10012000>
200169e6:	00f71963          	bne	a4,a5,200169f8 <__metal_driver_sifive_gpio0_interrupt_lines+0x1aa>
/home/nicoladgg/wsFreedomStudio/sifive_hifive1_revb_hello/bsp/build/debug/./metal/machine.h:516 (discriminator 1)
200169ea:	fe842703          	lw	a4,-24(s0)
200169ee:	47bd                	li	a5,15
200169f0:	00f71463          	bne	a4,a5,200169f8 <__metal_driver_sifive_gpio0_interrupt_lines+0x1aa>
/home/nicoladgg/wsFreedomStudio/sifive_hifive1_revb_hello/bsp/build/debug/./metal/machine.h:517
200169f4:	47dd                	li	a5,23
200169f6:	a27d                	j	20016ba4 <__metal_driver_sifive_gpio0_interrupt_lines+0x356>
/home/nicoladgg/wsFreedomStudio/sifive_hifive1_revb_hello/bsp/build/debug/./metal/machine.h:519
200169f8:	fec42703          	lw	a4,-20(s0)
200169fc:	81818793          	addi	a5,gp,-2024 # 80000ab8 <__metal_dt_gpio_10012000>
20016a00:	00f71963          	bne	a4,a5,20016a12 <__metal_driver_sifive_gpio0_interrupt_lines+0x1c4>
/home/nicoladgg/wsFreedomStudio/sifive_hifive1_revb_hello/bsp/build/debug/./metal/machine.h:519 (discriminator 1)
20016a04:	fe842703          	lw	a4,-24(s0)
20016a08:	47c1                	li	a5,16
20016a0a:	00f71463          	bne	a4,a5,20016a12 <__metal_driver_sifive_gpio0_interrupt_lines+0x1c4>
/home/nicoladgg/wsFreedomStudio/sifive_hifive1_revb_hello/bsp/build/debug/./metal/machine.h:520
20016a0e:	47e1                	li	a5,24
20016a10:	aa51                	j	20016ba4 <__metal_driver_sifive_gpio0_interrupt_lines+0x356>
/home/nicoladgg/wsFreedomStudio/sifive_hifive1_revb_hello/bsp/build/debug/./metal/machine.h:522
20016a12:	fec42703          	lw	a4,-20(s0)
20016a16:	81818793          	addi	a5,gp,-2024 # 80000ab8 <__metal_dt_gpio_10012000>
20016a1a:	00f71963          	bne	a4,a5,20016a2c <__metal_driver_sifive_gpio0_interrupt_lines+0x1de>
/home/nicoladgg/wsFreedomStudio/sifive_hifive1_revb_hello/bsp/build/debug/./metal/machine.h:522 (discriminator 1)
20016a1e:	fe842703          	lw	a4,-24(s0)
20016a22:	47c5                	li	a5,17
20016a24:	00f71463          	bne	a4,a5,20016a2c <__metal_driver_sifive_gpio0_interrupt_lines+0x1de>
/home/nicoladgg/wsFreedomStudio/sifive_hifive1_revb_hello/bsp/build/debug/./metal/machine.h:523
20016a28:	47e5                	li	a5,25
20016a2a:	aaad                	j	20016ba4 <__metal_driver_sifive_gpio0_interrupt_lines+0x356>
/home/nicoladgg/wsFreedomStudio/sifive_hifive1_revb_hello/bsp/build/debug/./metal/machine.h:525
20016a2c:	fec42703          	lw	a4,-20(s0)
20016a30:	81818793          	addi	a5,gp,-2024 # 80000ab8 <__metal_dt_gpio_10012000>
20016a34:	00f71963          	bne	a4,a5,20016a46 <__metal_driver_sifive_gpio0_interrupt_lines+0x1f8>
/home/nicoladgg/wsFreedomStudio/sifive_hifive1_revb_hello/bsp/build/debug/./metal/machine.h:525 (discriminator 1)
20016a38:	fe842703          	lw	a4,-24(s0)
20016a3c:	47c9                	li	a5,18
20016a3e:	00f71463          	bne	a4,a5,20016a46 <__metal_driver_sifive_gpio0_interrupt_lines+0x1f8>
/home/nicoladgg/wsFreedomStudio/sifive_hifive1_revb_hello/bsp/build/debug/./metal/machine.h:526
20016a42:	47e9                	li	a5,26
20016a44:	a285                	j	20016ba4 <__metal_driver_sifive_gpio0_interrupt_lines+0x356>
/home/nicoladgg/wsFreedomStudio/sifive_hifive1_revb_hello/bsp/build/debug/./metal/machine.h:528
20016a46:	fec42703          	lw	a4,-20(s0)
20016a4a:	81818793          	addi	a5,gp,-2024 # 80000ab8 <__metal_dt_gpio_10012000>
20016a4e:	00f71963          	bne	a4,a5,20016a60 <__metal_driver_sifive_gpio0_interrupt_lines+0x212>
/home/nicoladgg/wsFreedomStudio/sifive_hifive1_revb_hello/bsp/build/debug/./metal/machine.h:528 (discriminator 1)
20016a52:	fe842703          	lw	a4,-24(s0)
20016a56:	47cd                	li	a5,19
20016a58:	00f71463          	bne	a4,a5,20016a60 <__metal_driver_sifive_gpio0_interrupt_lines+0x212>
/home/nicoladgg/wsFreedomStudio/sifive_hifive1_revb_hello/bsp/build/debug/./metal/machine.h:529
20016a5c:	47ed                	li	a5,27
20016a5e:	a299                	j	20016ba4 <__metal_driver_sifive_gpio0_interrupt_lines+0x356>
/home/nicoladgg/wsFreedomStudio/sifive_hifive1_revb_hello/bsp/build/debug/./metal/machine.h:531
20016a60:	fec42703          	lw	a4,-20(s0)
20016a64:	81818793          	addi	a5,gp,-2024 # 80000ab8 <__metal_dt_gpio_10012000>
20016a68:	00f71963          	bne	a4,a5,20016a7a <__metal_driver_sifive_gpio0_interrupt_lines+0x22c>
/home/nicoladgg/wsFreedomStudio/sifive_hifive1_revb_hello/bsp/build/debug/./metal/machine.h:531 (discriminator 1)
20016a6c:	fe842703          	lw	a4,-24(s0)
20016a70:	47d1                	li	a5,20
20016a72:	00f71463          	bne	a4,a5,20016a7a <__metal_driver_sifive_gpio0_interrupt_lines+0x22c>
/home/nicoladgg/wsFreedomStudio/sifive_hifive1_revb_hello/bsp/build/debug/./metal/machine.h:532
20016a76:	47f1                	li	a5,28
20016a78:	a235                	j	20016ba4 <__metal_driver_sifive_gpio0_interrupt_lines+0x356>
/home/nicoladgg/wsFreedomStudio/sifive_hifive1_revb_hello/bsp/build/debug/./metal/machine.h:534
20016a7a:	fec42703          	lw	a4,-20(s0)
20016a7e:	81818793          	addi	a5,gp,-2024 # 80000ab8 <__metal_dt_gpio_10012000>
20016a82:	00f71963          	bne	a4,a5,20016a94 <__metal_driver_sifive_gpio0_interrupt_lines+0x246>
/home/nicoladgg/wsFreedomStudio/sifive_hifive1_revb_hello/bsp/build/debug/./metal/machine.h:534 (discriminator 1)
20016a86:	fe842703          	lw	a4,-24(s0)
20016a8a:	47d5                	li	a5,21
20016a8c:	00f71463          	bne	a4,a5,20016a94 <__metal_driver_sifive_gpio0_interrupt_lines+0x246>
/home/nicoladgg/wsFreedomStudio/sifive_hifive1_revb_hello/bsp/build/debug/./metal/machine.h:535
20016a90:	47f5                	li	a5,29
20016a92:	aa09                	j	20016ba4 <__metal_driver_sifive_gpio0_interrupt_lines+0x356>
/home/nicoladgg/wsFreedomStudio/sifive_hifive1_revb_hello/bsp/build/debug/./metal/machine.h:537
20016a94:	fec42703          	lw	a4,-20(s0)
20016a98:	81818793          	addi	a5,gp,-2024 # 80000ab8 <__metal_dt_gpio_10012000>
20016a9c:	00f71963          	bne	a4,a5,20016aae <__metal_driver_sifive_gpio0_interrupt_lines+0x260>
/home/nicoladgg/wsFreedomStudio/sifive_hifive1_revb_hello/bsp/build/debug/./metal/machine.h:537 (discriminator 1)
20016aa0:	fe842703          	lw	a4,-24(s0)
20016aa4:	47d9                	li	a5,22
20016aa6:	00f71463          	bne	a4,a5,20016aae <__metal_driver_sifive_gpio0_interrupt_lines+0x260>
/home/nicoladgg/wsFreedomStudio/sifive_hifive1_revb_hello/bsp/build/debug/./metal/machine.h:538
20016aaa:	47f9                	li	a5,30
20016aac:	a8e5                	j	20016ba4 <__metal_driver_sifive_gpio0_interrupt_lines+0x356>
/home/nicoladgg/wsFreedomStudio/sifive_hifive1_revb_hello/bsp/build/debug/./metal/machine.h:540
20016aae:	fec42703          	lw	a4,-20(s0)
20016ab2:	81818793          	addi	a5,gp,-2024 # 80000ab8 <__metal_dt_gpio_10012000>
20016ab6:	00f71963          	bne	a4,a5,20016ac8 <__metal_driver_sifive_gpio0_interrupt_lines+0x27a>
/home/nicoladgg/wsFreedomStudio/sifive_hifive1_revb_hello/bsp/build/debug/./metal/machine.h:540 (discriminator 1)
20016aba:	fe842703          	lw	a4,-24(s0)
20016abe:	47dd                	li	a5,23
20016ac0:	00f71463          	bne	a4,a5,20016ac8 <__metal_driver_sifive_gpio0_interrupt_lines+0x27a>
/home/nicoladgg/wsFreedomStudio/sifive_hifive1_revb_hello/bsp/build/debug/./metal/machine.h:541
20016ac4:	47fd                	li	a5,31
20016ac6:	a8f9                	j	20016ba4 <__metal_driver_sifive_gpio0_interrupt_lines+0x356>
/home/nicoladgg/wsFreedomStudio/sifive_hifive1_revb_hello/bsp/build/debug/./metal/machine.h:543
20016ac8:	fec42703          	lw	a4,-20(s0)
20016acc:	81818793          	addi	a5,gp,-2024 # 80000ab8 <__metal_dt_gpio_10012000>
20016ad0:	00f71a63          	bne	a4,a5,20016ae4 <__metal_driver_sifive_gpio0_interrupt_lines+0x296>
/home/nicoladgg/wsFreedomStudio/sifive_hifive1_revb_hello/bsp/build/debug/./metal/machine.h:543 (discriminator 1)
20016ad4:	fe842703          	lw	a4,-24(s0)
20016ad8:	47e1                	li	a5,24
20016ada:	00f71563          	bne	a4,a5,20016ae4 <__metal_driver_sifive_gpio0_interrupt_lines+0x296>
/home/nicoladgg/wsFreedomStudio/sifive_hifive1_revb_hello/bsp/build/debug/./metal/machine.h:544
20016ade:	02000793          	li	a5,32
20016ae2:	a0c9                	j	20016ba4 <__metal_driver_sifive_gpio0_interrupt_lines+0x356>
/home/nicoladgg/wsFreedomStudio/sifive_hifive1_revb_hello/bsp/build/debug/./metal/machine.h:546
20016ae4:	fec42703          	lw	a4,-20(s0)
20016ae8:	81818793          	addi	a5,gp,-2024 # 80000ab8 <__metal_dt_gpio_10012000>
20016aec:	00f71a63          	bne	a4,a5,20016b00 <__metal_driver_sifive_gpio0_interrupt_lines+0x2b2>
/home/nicoladgg/wsFreedomStudio/sifive_hifive1_revb_hello/bsp/build/debug/./metal/machine.h:546 (discriminator 1)
20016af0:	fe842703          	lw	a4,-24(s0)
20016af4:	47e5                	li	a5,25
20016af6:	00f71563          	bne	a4,a5,20016b00 <__metal_driver_sifive_gpio0_interrupt_lines+0x2b2>
/home/nicoladgg/wsFreedomStudio/sifive_hifive1_revb_hello/bsp/build/debug/./metal/machine.h:547
20016afa:	02100793          	li	a5,33
20016afe:	a05d                	j	20016ba4 <__metal_driver_sifive_gpio0_interrupt_lines+0x356>
/home/nicoladgg/wsFreedomStudio/sifive_hifive1_revb_hello/bsp/build/debug/./metal/machine.h:549
20016b00:	fec42703          	lw	a4,-20(s0)
20016b04:	81818793          	addi	a5,gp,-2024 # 80000ab8 <__metal_dt_gpio_10012000>
20016b08:	00f71a63          	bne	a4,a5,20016b1c <__metal_driver_sifive_gpio0_interrupt_lines+0x2ce>
/home/nicoladgg/wsFreedomStudio/sifive_hifive1_revb_hello/bsp/build/debug/./metal/machine.h:549 (discriminator 1)
20016b0c:	fe842703          	lw	a4,-24(s0)
20016b10:	47e9                	li	a5,26
20016b12:	00f71563          	bne	a4,a5,20016b1c <__metal_driver_sifive_gpio0_interrupt_lines+0x2ce>
/home/nicoladgg/wsFreedomStudio/sifive_hifive1_revb_hello/bsp/build/debug/./metal/machine.h:550
20016b16:	02200793          	li	a5,34
20016b1a:	a069                	j	20016ba4 <__metal_driver_sifive_gpio0_interrupt_lines+0x356>
/home/nicoladgg/wsFreedomStudio/sifive_hifive1_revb_hello/bsp/build/debug/./metal/machine.h:552
20016b1c:	fec42703          	lw	a4,-20(s0)
20016b20:	81818793          	addi	a5,gp,-2024 # 80000ab8 <__metal_dt_gpio_10012000>
20016b24:	00f71a63          	bne	a4,a5,20016b38 <__metal_driver_sifive_gpio0_interrupt_lines+0x2ea>
/home/nicoladgg/wsFreedomStudio/sifive_hifive1_revb_hello/bsp/build/debug/./metal/machine.h:552 (discriminator 1)
20016b28:	fe842703          	lw	a4,-24(s0)
20016b2c:	47ed                	li	a5,27
20016b2e:	00f71563          	bne	a4,a5,20016b38 <__metal_driver_sifive_gpio0_interrupt_lines+0x2ea>
/home/nicoladgg/wsFreedomStudio/sifive_hifive1_revb_hello/bsp/build/debug/./metal/machine.h:553
20016b32:	02300793          	li	a5,35
20016b36:	a0bd                	j	20016ba4 <__metal_driver_sifive_gpio0_interrupt_lines+0x356>
/home/nicoladgg/wsFreedomStudio/sifive_hifive1_revb_hello/bsp/build/debug/./metal/machine.h:555
20016b38:	fec42703          	lw	a4,-20(s0)
20016b3c:	81818793          	addi	a5,gp,-2024 # 80000ab8 <__metal_dt_gpio_10012000>
20016b40:	00f71a63          	bne	a4,a5,20016b54 <__metal_driver_sifive_gpio0_interrupt_lines+0x306>
/home/nicoladgg/wsFreedomStudio/sifive_hifive1_revb_hello/bsp/build/debug/./metal/machine.h:555 (discriminator 1)
20016b44:	fe842703          	lw	a4,-24(s0)
20016b48:	47f1                	li	a5,28
20016b4a:	00f71563          	bne	a4,a5,20016b54 <__metal_driver_sifive_gpio0_interrupt_lines+0x306>
/home/nicoladgg/wsFreedomStudio/sifive_hifive1_revb_hello/bsp/build/debug/./metal/machine.h:556
20016b4e:	02400793          	li	a5,36
20016b52:	a889                	j	20016ba4 <__metal_driver_sifive_gpio0_interrupt_lines+0x356>
/home/nicoladgg/wsFreedomStudio/sifive_hifive1_revb_hello/bsp/build/debug/./metal/machine.h:558
20016b54:	fec42703          	lw	a4,-20(s0)
20016b58:	81818793          	addi	a5,gp,-2024 # 80000ab8 <__metal_dt_gpio_10012000>
20016b5c:	00f71963          	bne	a4,a5,20016b6e <__metal_driver_sifive_gpio0_interrupt_lines+0x320>
/home/nicoladgg/wsFreedomStudio/sifive_hifive1_revb_hello/bsp/build/debug/./metal/machine.h:558 (discriminator 1)
20016b60:	fe842703          	lw	a4,-24(s0)
20016b64:	47f5                	li	a5,29
20016b66:	00f71463          	bne	a4,a5,20016b6e <__metal_driver_sifive_gpio0_interrupt_lines+0x320>
/home/nicoladgg/wsFreedomStudio/sifive_hifive1_revb_hello/bsp/build/debug/./metal/machine.h:559
20016b6a:	47ed                	li	a5,27
20016b6c:	a825                	j	20016ba4 <__metal_driver_sifive_gpio0_interrupt_lines+0x356>
/home/nicoladgg/wsFreedomStudio/sifive_hifive1_revb_hello/bsp/build/debug/./metal/machine.h:561
20016b6e:	fec42703          	lw	a4,-20(s0)
20016b72:	81818793          	addi	a5,gp,-2024 # 80000ab8 <__metal_dt_gpio_10012000>
20016b76:	00f71963          	bne	a4,a5,20016b88 <__metal_driver_sifive_gpio0_interrupt_lines+0x33a>
/home/nicoladgg/wsFreedomStudio/sifive_hifive1_revb_hello/bsp/build/debug/./metal/machine.h:561 (discriminator 1)
20016b7a:	fe842703          	lw	a4,-24(s0)
20016b7e:	47f9                	li	a5,30
20016b80:	00f71463          	bne	a4,a5,20016b88 <__metal_driver_sifive_gpio0_interrupt_lines+0x33a>
/home/nicoladgg/wsFreedomStudio/sifive_hifive1_revb_hello/bsp/build/debug/./metal/machine.h:562
20016b84:	47f1                	li	a5,28
20016b86:	a839                	j	20016ba4 <__metal_driver_sifive_gpio0_interrupt_lines+0x356>
/home/nicoladgg/wsFreedomStudio/sifive_hifive1_revb_hello/bsp/build/debug/./metal/machine.h:564
20016b88:	fec42703          	lw	a4,-20(s0)
20016b8c:	81818793          	addi	a5,gp,-2024 # 80000ab8 <__metal_dt_gpio_10012000>
20016b90:	00f71963          	bne	a4,a5,20016ba2 <__metal_driver_sifive_gpio0_interrupt_lines+0x354>
/home/nicoladgg/wsFreedomStudio/sifive_hifive1_revb_hello/bsp/build/debug/./metal/machine.h:564 (discriminator 1)
20016b94:	fe842703          	lw	a4,-24(s0)
20016b98:	47fd                	li	a5,31
20016b9a:	00f71463          	bne	a4,a5,20016ba2 <__metal_driver_sifive_gpio0_interrupt_lines+0x354>
/home/nicoladgg/wsFreedomStudio/sifive_hifive1_revb_hello/bsp/build/debug/./metal/machine.h:565
20016b9e:	47f5                	li	a5,29
20016ba0:	a011                	j	20016ba4 <__metal_driver_sifive_gpio0_interrupt_lines+0x356>
/home/nicoladgg/wsFreedomStudio/sifive_hifive1_revb_hello/bsp/build/debug/./metal/machine.h:568
20016ba2:	4781                	li	a5,0
/home/nicoladgg/wsFreedomStudio/sifive_hifive1_revb_hello/bsp/build/debug/./metal/machine.h:570
20016ba4:	853e                	mv	a0,a5
20016ba6:	4472                	lw	s0,28(sp)
20016ba8:	6105                	addi	sp,sp,32
20016baa:	8082                	ret

20016bac <__metal_driver_sifive_gpio0_enable_input>:
__metal_driver_sifive_gpio0_enable_input():
/home/nicoladgg/wsFreedomStudio/sifive_hifive1_revb_hello/freedom-metal/src/drivers/sifive_gpio0.c:13
20016bac:	7179                	addi	sp,sp,-48
20016bae:	d606                	sw	ra,44(sp)
20016bb0:	d422                	sw	s0,40(sp)
20016bb2:	1800                	addi	s0,sp,48
20016bb4:	fca42e23          	sw	a0,-36(s0)
20016bb8:	fcb42c23          	sw	a1,-40(s0)
/home/nicoladgg/wsFreedomStudio/sifive_hifive1_revb_hello/freedom-metal/src/drivers/sifive_gpio0.c:14
20016bbc:	fdc42503          	lw	a0,-36(s0)
20016bc0:	c3fff0ef          	jal	ra,200167fe <__metal_driver_sifive_gpio0_base>
20016bc4:	87aa                	mv	a5,a0
20016bc6:	fef42623          	sw	a5,-20(s0)
/home/nicoladgg/wsFreedomStudio/sifive_hifive1_revb_hello/freedom-metal/src/drivers/sifive_gpio0.c:17
20016bca:	fec42783          	lw	a5,-20(s0)
20016bce:	0791                	addi	a5,a5,4
20016bd0:	4398                	lw	a4,0(a5)
20016bd2:	fd842783          	lw	a5,-40(s0)
20016bd6:	fec42683          	lw	a3,-20(s0)
20016bda:	0691                	addi	a3,a3,4
20016bdc:	8fd9                	or	a5,a5,a4
20016bde:	c29c                	sw	a5,0(a3)
/home/nicoladgg/wsFreedomStudio/sifive_hifive1_revb_hello/freedom-metal/src/drivers/sifive_gpio0.c:19
20016be0:	4781                	li	a5,0
/home/nicoladgg/wsFreedomStudio/sifive_hifive1_revb_hello/freedom-metal/src/drivers/sifive_gpio0.c:20
20016be2:	853e                	mv	a0,a5
20016be4:	50b2                	lw	ra,44(sp)
20016be6:	5422                	lw	s0,40(sp)
20016be8:	6145                	addi	sp,sp,48
20016bea:	8082                	ret

20016bec <__metal_driver_sifive_gpio0_disable_input>:
__metal_driver_sifive_gpio0_disable_input():
/home/nicoladgg/wsFreedomStudio/sifive_hifive1_revb_hello/freedom-metal/src/drivers/sifive_gpio0.c:23
20016bec:	7179                	addi	sp,sp,-48
20016bee:	d606                	sw	ra,44(sp)
20016bf0:	d422                	sw	s0,40(sp)
20016bf2:	1800                	addi	s0,sp,48
20016bf4:	fca42e23          	sw	a0,-36(s0)
20016bf8:	fcb42c23          	sw	a1,-40(s0)
/home/nicoladgg/wsFreedomStudio/sifive_hifive1_revb_hello/freedom-metal/src/drivers/sifive_gpio0.c:24
20016bfc:	fdc42503          	lw	a0,-36(s0)
20016c00:	bffff0ef          	jal	ra,200167fe <__metal_driver_sifive_gpio0_base>
20016c04:	87aa                	mv	a5,a0
20016c06:	fef42623          	sw	a5,-20(s0)
/home/nicoladgg/wsFreedomStudio/sifive_hifive1_revb_hello/freedom-metal/src/drivers/sifive_gpio0.c:27
20016c0a:	fec42783          	lw	a5,-20(s0)
20016c0e:	0791                	addi	a5,a5,4
20016c10:	439c                	lw	a5,0(a5)
20016c12:	fd842703          	lw	a4,-40(s0)
20016c16:	fff74713          	not	a4,a4
20016c1a:	86ba                	mv	a3,a4
20016c1c:	fec42703          	lw	a4,-20(s0)
20016c20:	0711                	addi	a4,a4,4
20016c22:	8ff5                	and	a5,a5,a3
20016c24:	c31c                	sw	a5,0(a4)
/home/nicoladgg/wsFreedomStudio/sifive_hifive1_revb_hello/freedom-metal/src/drivers/sifive_gpio0.c:29
20016c26:	4781                	li	a5,0
/home/nicoladgg/wsFreedomStudio/sifive_hifive1_revb_hello/freedom-metal/src/drivers/sifive_gpio0.c:30
20016c28:	853e                	mv	a0,a5
20016c2a:	50b2                	lw	ra,44(sp)
20016c2c:	5422                	lw	s0,40(sp)
20016c2e:	6145                	addi	sp,sp,48
20016c30:	8082                	ret

20016c32 <__metal_driver_sifive_gpio0_input>:
__metal_driver_sifive_gpio0_input():
/home/nicoladgg/wsFreedomStudio/sifive_hifive1_revb_hello/freedom-metal/src/drivers/sifive_gpio0.c:32
20016c32:	7179                	addi	sp,sp,-48
20016c34:	d606                	sw	ra,44(sp)
20016c36:	d422                	sw	s0,40(sp)
20016c38:	1800                	addi	s0,sp,48
20016c3a:	fca42e23          	sw	a0,-36(s0)
/home/nicoladgg/wsFreedomStudio/sifive_hifive1_revb_hello/freedom-metal/src/drivers/sifive_gpio0.c:33
20016c3e:	fdc42503          	lw	a0,-36(s0)
20016c42:	bbdff0ef          	jal	ra,200167fe <__metal_driver_sifive_gpio0_base>
20016c46:	87aa                	mv	a5,a0
20016c48:	fef42623          	sw	a5,-20(s0)
/home/nicoladgg/wsFreedomStudio/sifive_hifive1_revb_hello/freedom-metal/src/drivers/sifive_gpio0.c:35
20016c4c:	fec42783          	lw	a5,-20(s0)
20016c50:	439c                	lw	a5,0(a5)
/home/nicoladgg/wsFreedomStudio/sifive_hifive1_revb_hello/freedom-metal/src/drivers/sifive_gpio0.c:37
20016c52:	853e                	mv	a0,a5
20016c54:	50b2                	lw	ra,44(sp)
20016c56:	5422                	lw	s0,40(sp)
20016c58:	6145                	addi	sp,sp,48
20016c5a:	8082                	ret

20016c5c <__metal_driver_sifive_gpio0_output>:
__metal_driver_sifive_gpio0_output():
/home/nicoladgg/wsFreedomStudio/sifive_hifive1_revb_hello/freedom-metal/src/drivers/sifive_gpio0.c:39
20016c5c:	7179                	addi	sp,sp,-48
20016c5e:	d606                	sw	ra,44(sp)
20016c60:	d422                	sw	s0,40(sp)
20016c62:	1800                	addi	s0,sp,48
20016c64:	fca42e23          	sw	a0,-36(s0)
/home/nicoladgg/wsFreedomStudio/sifive_hifive1_revb_hello/freedom-metal/src/drivers/sifive_gpio0.c:40
20016c68:	fdc42503          	lw	a0,-36(s0)
20016c6c:	b93ff0ef          	jal	ra,200167fe <__metal_driver_sifive_gpio0_base>
20016c70:	87aa                	mv	a5,a0
20016c72:	fef42623          	sw	a5,-20(s0)
/home/nicoladgg/wsFreedomStudio/sifive_hifive1_revb_hello/freedom-metal/src/drivers/sifive_gpio0.c:42
20016c76:	fec42783          	lw	a5,-20(s0)
20016c7a:	07b1                	addi	a5,a5,12
20016c7c:	439c                	lw	a5,0(a5)
/home/nicoladgg/wsFreedomStudio/sifive_hifive1_revb_hello/freedom-metal/src/drivers/sifive_gpio0.c:44
20016c7e:	853e                	mv	a0,a5
20016c80:	50b2                	lw	ra,44(sp)
20016c82:	5422                	lw	s0,40(sp)
20016c84:	6145                	addi	sp,sp,48
20016c86:	8082                	ret

20016c88 <__metal_driver_sifive_gpio0_disable_output>:
__metal_driver_sifive_gpio0_disable_output():
/home/nicoladgg/wsFreedomStudio/sifive_hifive1_revb_hello/freedom-metal/src/drivers/sifive_gpio0.c:47
20016c88:	7179                	addi	sp,sp,-48
20016c8a:	d606                	sw	ra,44(sp)
20016c8c:	d422                	sw	s0,40(sp)
20016c8e:	1800                	addi	s0,sp,48
20016c90:	fca42e23          	sw	a0,-36(s0)
20016c94:	fcb42c23          	sw	a1,-40(s0)
/home/nicoladgg/wsFreedomStudio/sifive_hifive1_revb_hello/freedom-metal/src/drivers/sifive_gpio0.c:48
20016c98:	fdc42503          	lw	a0,-36(s0)
20016c9c:	b63ff0ef          	jal	ra,200167fe <__metal_driver_sifive_gpio0_base>
20016ca0:	87aa                	mv	a5,a0
20016ca2:	fef42623          	sw	a5,-20(s0)
/home/nicoladgg/wsFreedomStudio/sifive_hifive1_revb_hello/freedom-metal/src/drivers/sifive_gpio0.c:51
20016ca6:	fec42783          	lw	a5,-20(s0)
20016caa:	07a1                	addi	a5,a5,8
20016cac:	439c                	lw	a5,0(a5)
20016cae:	fd842703          	lw	a4,-40(s0)
20016cb2:	fff74713          	not	a4,a4
20016cb6:	86ba                	mv	a3,a4
20016cb8:	fec42703          	lw	a4,-20(s0)
20016cbc:	0721                	addi	a4,a4,8
20016cbe:	8ff5                	and	a5,a5,a3
20016cc0:	c31c                	sw	a5,0(a4)
/home/nicoladgg/wsFreedomStudio/sifive_hifive1_revb_hello/freedom-metal/src/drivers/sifive_gpio0.c:53
20016cc2:	4781                	li	a5,0
/home/nicoladgg/wsFreedomStudio/sifive_hifive1_revb_hello/freedom-metal/src/drivers/sifive_gpio0.c:54
20016cc4:	853e                	mv	a0,a5
20016cc6:	50b2                	lw	ra,44(sp)
20016cc8:	5422                	lw	s0,40(sp)
20016cca:	6145                	addi	sp,sp,48
20016ccc:	8082                	ret

20016cce <__metal_driver_sifive_gpio0_enable_output>:
__metal_driver_sifive_gpio0_enable_output():
/home/nicoladgg/wsFreedomStudio/sifive_hifive1_revb_hello/freedom-metal/src/drivers/sifive_gpio0.c:57
20016cce:	7179                	addi	sp,sp,-48
20016cd0:	d606                	sw	ra,44(sp)
20016cd2:	d422                	sw	s0,40(sp)
20016cd4:	1800                	addi	s0,sp,48
20016cd6:	fca42e23          	sw	a0,-36(s0)
20016cda:	fcb42c23          	sw	a1,-40(s0)
/home/nicoladgg/wsFreedomStudio/sifive_hifive1_revb_hello/freedom-metal/src/drivers/sifive_gpio0.c:58
20016cde:	fdc42503          	lw	a0,-36(s0)
20016ce2:	b1dff0ef          	jal	ra,200167fe <__metal_driver_sifive_gpio0_base>
20016ce6:	87aa                	mv	a5,a0
20016ce8:	fef42623          	sw	a5,-20(s0)
/home/nicoladgg/wsFreedomStudio/sifive_hifive1_revb_hello/freedom-metal/src/drivers/sifive_gpio0.c:61
20016cec:	fec42783          	lw	a5,-20(s0)
20016cf0:	07a1                	addi	a5,a5,8
20016cf2:	4398                	lw	a4,0(a5)
20016cf4:	fd842783          	lw	a5,-40(s0)
20016cf8:	fec42683          	lw	a3,-20(s0)
20016cfc:	06a1                	addi	a3,a3,8
20016cfe:	8fd9                	or	a5,a5,a4
20016d00:	c29c                	sw	a5,0(a3)
/home/nicoladgg/wsFreedomStudio/sifive_hifive1_revb_hello/freedom-metal/src/drivers/sifive_gpio0.c:63
20016d02:	4781                	li	a5,0
/home/nicoladgg/wsFreedomStudio/sifive_hifive1_revb_hello/freedom-metal/src/drivers/sifive_gpio0.c:64
20016d04:	853e                	mv	a0,a5
20016d06:	50b2                	lw	ra,44(sp)
20016d08:	5422                	lw	s0,40(sp)
20016d0a:	6145                	addi	sp,sp,48
20016d0c:	8082                	ret

20016d0e <__metal_driver_sifive_gpio0_output_set>:
__metal_driver_sifive_gpio0_output_set():
/home/nicoladgg/wsFreedomStudio/sifive_hifive1_revb_hello/freedom-metal/src/drivers/sifive_gpio0.c:67
20016d0e:	7179                	addi	sp,sp,-48
20016d10:	d606                	sw	ra,44(sp)
20016d12:	d422                	sw	s0,40(sp)
20016d14:	1800                	addi	s0,sp,48
20016d16:	fca42e23          	sw	a0,-36(s0)
20016d1a:	fcb42c23          	sw	a1,-40(s0)
/home/nicoladgg/wsFreedomStudio/sifive_hifive1_revb_hello/freedom-metal/src/drivers/sifive_gpio0.c:68
20016d1e:	fdc42503          	lw	a0,-36(s0)
20016d22:	addff0ef          	jal	ra,200167fe <__metal_driver_sifive_gpio0_base>
20016d26:	87aa                	mv	a5,a0
20016d28:	fef42623          	sw	a5,-20(s0)
/home/nicoladgg/wsFreedomStudio/sifive_hifive1_revb_hello/freedom-metal/src/drivers/sifive_gpio0.c:70
20016d2c:	fec42783          	lw	a5,-20(s0)
20016d30:	07b1                	addi	a5,a5,12
20016d32:	4398                	lw	a4,0(a5)
20016d34:	fd842783          	lw	a5,-40(s0)
20016d38:	fec42683          	lw	a3,-20(s0)
20016d3c:	06b1                	addi	a3,a3,12
20016d3e:	8fd9                	or	a5,a5,a4
20016d40:	c29c                	sw	a5,0(a3)
/home/nicoladgg/wsFreedomStudio/sifive_hifive1_revb_hello/freedom-metal/src/drivers/sifive_gpio0.c:73
20016d42:	4781                	li	a5,0
/home/nicoladgg/wsFreedomStudio/sifive_hifive1_revb_hello/freedom-metal/src/drivers/sifive_gpio0.c:74
20016d44:	853e                	mv	a0,a5
20016d46:	50b2                	lw	ra,44(sp)
20016d48:	5422                	lw	s0,40(sp)
20016d4a:	6145                	addi	sp,sp,48
20016d4c:	8082                	ret

20016d4e <__metal_driver_sifive_gpio0_output_clear>:
__metal_driver_sifive_gpio0_output_clear():
/home/nicoladgg/wsFreedomStudio/sifive_hifive1_revb_hello/freedom-metal/src/drivers/sifive_gpio0.c:77
20016d4e:	7179                	addi	sp,sp,-48
20016d50:	d606                	sw	ra,44(sp)
20016d52:	d422                	sw	s0,40(sp)
20016d54:	1800                	addi	s0,sp,48
20016d56:	fca42e23          	sw	a0,-36(s0)
20016d5a:	fcb42c23          	sw	a1,-40(s0)
/home/nicoladgg/wsFreedomStudio/sifive_hifive1_revb_hello/freedom-metal/src/drivers/sifive_gpio0.c:78
20016d5e:	fdc42503          	lw	a0,-36(s0)
20016d62:	a9dff0ef          	jal	ra,200167fe <__metal_driver_sifive_gpio0_base>
20016d66:	87aa                	mv	a5,a0
20016d68:	fef42623          	sw	a5,-20(s0)
/home/nicoladgg/wsFreedomStudio/sifive_hifive1_revb_hello/freedom-metal/src/drivers/sifive_gpio0.c:80
20016d6c:	fec42783          	lw	a5,-20(s0)
20016d70:	07b1                	addi	a5,a5,12
20016d72:	439c                	lw	a5,0(a5)
/home/nicoladgg/wsFreedomStudio/sifive_hifive1_revb_hello/freedom-metal/src/drivers/sifive_gpio0.c:81
20016d74:	fd842703          	lw	a4,-40(s0)
20016d78:	fff74713          	not	a4,a4
20016d7c:	86ba                	mv	a3,a4
/home/nicoladgg/wsFreedomStudio/sifive_hifive1_revb_hello/freedom-metal/src/drivers/sifive_gpio0.c:80
20016d7e:	fec42703          	lw	a4,-20(s0)
20016d82:	0731                	addi	a4,a4,12
20016d84:	8ff5                	and	a5,a5,a3
20016d86:	c31c                	sw	a5,0(a4)
/home/nicoladgg/wsFreedomStudio/sifive_hifive1_revb_hello/freedom-metal/src/drivers/sifive_gpio0.c:83
20016d88:	4781                	li	a5,0
/home/nicoladgg/wsFreedomStudio/sifive_hifive1_revb_hello/freedom-metal/src/drivers/sifive_gpio0.c:84
20016d8a:	853e                	mv	a0,a5
20016d8c:	50b2                	lw	ra,44(sp)
20016d8e:	5422                	lw	s0,40(sp)
20016d90:	6145                	addi	sp,sp,48
20016d92:	8082                	ret

20016d94 <__metal_driver_sifive_gpio0_output_toggle>:
__metal_driver_sifive_gpio0_output_toggle():
/home/nicoladgg/wsFreedomStudio/sifive_hifive1_revb_hello/freedom-metal/src/drivers/sifive_gpio0.c:87
20016d94:	7179                	addi	sp,sp,-48
20016d96:	d606                	sw	ra,44(sp)
20016d98:	d422                	sw	s0,40(sp)
20016d9a:	1800                	addi	s0,sp,48
20016d9c:	fca42e23          	sw	a0,-36(s0)
20016da0:	fcb42c23          	sw	a1,-40(s0)
/home/nicoladgg/wsFreedomStudio/sifive_hifive1_revb_hello/freedom-metal/src/drivers/sifive_gpio0.c:88
20016da4:	fdc42503          	lw	a0,-36(s0)
20016da8:	a57ff0ef          	jal	ra,200167fe <__metal_driver_sifive_gpio0_base>
20016dac:	87aa                	mv	a5,a0
20016dae:	fef42623          	sw	a5,-20(s0)
/home/nicoladgg/wsFreedomStudio/sifive_hifive1_revb_hello/freedom-metal/src/drivers/sifive_gpio0.c:91
20016db2:	fec42783          	lw	a5,-20(s0)
20016db6:	07b1                	addi	a5,a5,12
20016db8:	4398                	lw	a4,0(a5)
/home/nicoladgg/wsFreedomStudio/sifive_hifive1_revb_hello/freedom-metal/src/drivers/sifive_gpio0.c:92
20016dba:	fd842783          	lw	a5,-40(s0)
/home/nicoladgg/wsFreedomStudio/sifive_hifive1_revb_hello/freedom-metal/src/drivers/sifive_gpio0.c:90
20016dbe:	fec42683          	lw	a3,-20(s0)
20016dc2:	06b1                	addi	a3,a3,12
/home/nicoladgg/wsFreedomStudio/sifive_hifive1_revb_hello/freedom-metal/src/drivers/sifive_gpio0.c:92
20016dc4:	8fb9                	xor	a5,a5,a4
/home/nicoladgg/wsFreedomStudio/sifive_hifive1_revb_hello/freedom-metal/src/drivers/sifive_gpio0.c:90
20016dc6:	c29c                	sw	a5,0(a3)
/home/nicoladgg/wsFreedomStudio/sifive_hifive1_revb_hello/freedom-metal/src/drivers/sifive_gpio0.c:95
20016dc8:	4781                	li	a5,0
/home/nicoladgg/wsFreedomStudio/sifive_hifive1_revb_hello/freedom-metal/src/drivers/sifive_gpio0.c:96
20016dca:	853e                	mv	a0,a5
20016dcc:	50b2                	lw	ra,44(sp)
20016dce:	5422                	lw	s0,40(sp)
20016dd0:	6145                	addi	sp,sp,48
20016dd2:	8082                	ret

20016dd4 <__metal_driver_sifive_gpio0_enable_io>:
__metal_driver_sifive_gpio0_enable_io():
/home/nicoladgg/wsFreedomStudio/sifive_hifive1_revb_hello/freedom-metal/src/drivers/sifive_gpio0.c:99
20016dd4:	7179                	addi	sp,sp,-48
20016dd6:	d606                	sw	ra,44(sp)
20016dd8:	d422                	sw	s0,40(sp)
20016dda:	1800                	addi	s0,sp,48
20016ddc:	fca42e23          	sw	a0,-36(s0)
20016de0:	fcb42c23          	sw	a1,-40(s0)
20016de4:	fcc42a23          	sw	a2,-44(s0)
/home/nicoladgg/wsFreedomStudio/sifive_hifive1_revb_hello/freedom-metal/src/drivers/sifive_gpio0.c:100
20016de8:	fdc42503          	lw	a0,-36(s0)
20016dec:	a13ff0ef          	jal	ra,200167fe <__metal_driver_sifive_gpio0_base>
20016df0:	87aa                	mv	a5,a0
20016df2:	fef42623          	sw	a5,-20(s0)
/home/nicoladgg/wsFreedomStudio/sifive_hifive1_revb_hello/freedom-metal/src/drivers/sifive_gpio0.c:103
20016df6:	fec42783          	lw	a5,-20(s0)
20016dfa:	03c78793          	addi	a5,a5,60
20016dfe:	4398                	lw	a4,0(a5)
20016e00:	fd842783          	lw	a5,-40(s0)
20016e04:	fec42683          	lw	a3,-20(s0)
20016e08:	03c68693          	addi	a3,a3,60 # 7ff0003c <metal_segment_data_source_start+0x5fee7c84>
20016e0c:	8fd9                	or	a5,a5,a4
20016e0e:	c29c                	sw	a5,0(a3)
/home/nicoladgg/wsFreedomStudio/sifive_hifive1_revb_hello/freedom-metal/src/drivers/sifive_gpio0.c:104
20016e10:	fec42783          	lw	a5,-20(s0)
20016e14:	03878793          	addi	a5,a5,56
20016e18:	4398                	lw	a4,0(a5)
20016e1a:	fd442783          	lw	a5,-44(s0)
20016e1e:	fec42683          	lw	a3,-20(s0)
20016e22:	03868693          	addi	a3,a3,56
20016e26:	8fd9                	or	a5,a5,a4
20016e28:	c29c                	sw	a5,0(a3)
/home/nicoladgg/wsFreedomStudio/sifive_hifive1_revb_hello/freedom-metal/src/drivers/sifive_gpio0.c:107
20016e2a:	4781                	li	a5,0
/home/nicoladgg/wsFreedomStudio/sifive_hifive1_revb_hello/freedom-metal/src/drivers/sifive_gpio0.c:108
20016e2c:	853e                	mv	a0,a5
20016e2e:	50b2                	lw	ra,44(sp)
20016e30:	5422                	lw	s0,40(sp)
20016e32:	6145                	addi	sp,sp,48
20016e34:	8082                	ret

20016e36 <__metal_driver_sifive_gpio0_disable_io>:
__metal_driver_sifive_gpio0_disable_io():
/home/nicoladgg/wsFreedomStudio/sifive_hifive1_revb_hello/freedom-metal/src/drivers/sifive_gpio0.c:111
20016e36:	7179                	addi	sp,sp,-48
20016e38:	d606                	sw	ra,44(sp)
20016e3a:	d422                	sw	s0,40(sp)
20016e3c:	1800                	addi	s0,sp,48
20016e3e:	fca42e23          	sw	a0,-36(s0)
20016e42:	fcb42c23          	sw	a1,-40(s0)
/home/nicoladgg/wsFreedomStudio/sifive_hifive1_revb_hello/freedom-metal/src/drivers/sifive_gpio0.c:112
20016e46:	fdc42503          	lw	a0,-36(s0)
20016e4a:	9b5ff0ef          	jal	ra,200167fe <__metal_driver_sifive_gpio0_base>
20016e4e:	87aa                	mv	a5,a0
20016e50:	fef42623          	sw	a5,-20(s0)
/home/nicoladgg/wsFreedomStudio/sifive_hifive1_revb_hello/freedom-metal/src/drivers/sifive_gpio0.c:114
20016e54:	fec42783          	lw	a5,-20(s0)
20016e58:	03878793          	addi	a5,a5,56
20016e5c:	439c                	lw	a5,0(a5)
/home/nicoladgg/wsFreedomStudio/sifive_hifive1_revb_hello/freedom-metal/src/drivers/sifive_gpio0.c:115
20016e5e:	fd842703          	lw	a4,-40(s0)
20016e62:	fff74713          	not	a4,a4
20016e66:	86ba                	mv	a3,a4
/home/nicoladgg/wsFreedomStudio/sifive_hifive1_revb_hello/freedom-metal/src/drivers/sifive_gpio0.c:114
20016e68:	fec42703          	lw	a4,-20(s0)
20016e6c:	03870713          	addi	a4,a4,56
20016e70:	8ff5                	and	a5,a5,a3
20016e72:	c31c                	sw	a5,0(a4)
/home/nicoladgg/wsFreedomStudio/sifive_hifive1_revb_hello/freedom-metal/src/drivers/sifive_gpio0.c:117
20016e74:	4781                	li	a5,0
/home/nicoladgg/wsFreedomStudio/sifive_hifive1_revb_hello/freedom-metal/src/drivers/sifive_gpio0.c:118
20016e76:	853e                	mv	a0,a5
20016e78:	50b2                	lw	ra,44(sp)
20016e7a:	5422                	lw	s0,40(sp)
20016e7c:	6145                	addi	sp,sp,48
20016e7e:	8082                	ret

20016e80 <__metal_driver_sifive_gpio0_config_int>:
__metal_driver_sifive_gpio0_config_int():
/home/nicoladgg/wsFreedomStudio/sifive_hifive1_revb_hello/freedom-metal/src/drivers/sifive_gpio0.c:121
20016e80:	7179                	addi	sp,sp,-48
20016e82:	d606                	sw	ra,44(sp)
20016e84:	d422                	sw	s0,40(sp)
20016e86:	1800                	addi	s0,sp,48
20016e88:	fca42e23          	sw	a0,-36(s0)
20016e8c:	fcb42c23          	sw	a1,-40(s0)
20016e90:	fcc42a23          	sw	a2,-44(s0)
/home/nicoladgg/wsFreedomStudio/sifive_hifive1_revb_hello/freedom-metal/src/drivers/sifive_gpio0.c:122
20016e94:	fdc42503          	lw	a0,-36(s0)
20016e98:	967ff0ef          	jal	ra,200167fe <__metal_driver_sifive_gpio0_base>
20016e9c:	87aa                	mv	a5,a0
20016e9e:	fef42623          	sw	a5,-20(s0)
20016ea2:	fd442703          	lw	a4,-44(s0)
20016ea6:	479d                	li	a5,7
20016ea8:	1ce7e963          	bltu	a5,a4,2001707a <__metal_driver_sifive_gpio0_config_int+0x1fa>
20016eac:	fd442783          	lw	a5,-44(s0)
20016eb0:	00279713          	slli	a4,a5,0x2
20016eb4:	200117b7          	lui	a5,0x20011
20016eb8:	16878793          	addi	a5,a5,360 # 20011168 <__metal_driver_vtable_sifive_fe310_g000_pll+0xc>
20016ebc:	97ba                	add	a5,a5,a4
20016ebe:	439c                	lw	a5,0(a5)
20016ec0:	8782                	jr	a5
/home/nicoladgg/wsFreedomStudio/sifive_hifive1_revb_hello/freedom-metal/src/drivers/sifive_gpio0.c:127
20016ec2:	fec42783          	lw	a5,-20(s0)
20016ec6:	07e1                	addi	a5,a5,24
20016ec8:	439c                	lw	a5,0(a5)
20016eca:	fd842703          	lw	a4,-40(s0)
20016ece:	fff74713          	not	a4,a4
20016ed2:	86ba                	mv	a3,a4
20016ed4:	fec42703          	lw	a4,-20(s0)
20016ed8:	0761                	addi	a4,a4,24
20016eda:	8ff5                	and	a5,a5,a3
20016edc:	c31c                	sw	a5,0(a4)
/home/nicoladgg/wsFreedomStudio/sifive_hifive1_revb_hello/freedom-metal/src/drivers/sifive_gpio0.c:129
20016ede:	fec42783          	lw	a5,-20(s0)
20016ee2:	02078793          	addi	a5,a5,32
20016ee6:	439c                	lw	a5,0(a5)
20016ee8:	fd842703          	lw	a4,-40(s0)
20016eec:	fff74713          	not	a4,a4
20016ef0:	86ba                	mv	a3,a4
20016ef2:	fec42703          	lw	a4,-20(s0)
20016ef6:	02070713          	addi	a4,a4,32
20016efa:	8ff5                	and	a5,a5,a3
20016efc:	c31c                	sw	a5,0(a4)
/home/nicoladgg/wsFreedomStudio/sifive_hifive1_revb_hello/freedom-metal/src/drivers/sifive_gpio0.c:131
20016efe:	fec42783          	lw	a5,-20(s0)
20016f02:	02878793          	addi	a5,a5,40
20016f06:	439c                	lw	a5,0(a5)
20016f08:	fd842703          	lw	a4,-40(s0)
20016f0c:	fff74713          	not	a4,a4
20016f10:	86ba                	mv	a3,a4
20016f12:	fec42703          	lw	a4,-20(s0)
20016f16:	02870713          	addi	a4,a4,40
20016f1a:	8ff5                	and	a5,a5,a3
20016f1c:	c31c                	sw	a5,0(a4)
/home/nicoladgg/wsFreedomStudio/sifive_hifive1_revb_hello/freedom-metal/src/drivers/sifive_gpio0.c:133
20016f1e:	fec42783          	lw	a5,-20(s0)
20016f22:	03078793          	addi	a5,a5,48
20016f26:	439c                	lw	a5,0(a5)
20016f28:	fd842703          	lw	a4,-40(s0)
20016f2c:	fff74713          	not	a4,a4
20016f30:	86ba                	mv	a3,a4
20016f32:	fec42703          	lw	a4,-20(s0)
20016f36:	03070713          	addi	a4,a4,48
20016f3a:	8ff5                	and	a5,a5,a3
20016f3c:	c31c                	sw	a5,0(a4)
/home/nicoladgg/wsFreedomStudio/sifive_hifive1_revb_hello/freedom-metal/src/drivers/sifive_gpio0.c:134
20016f3e:	aa35                	j	2001707a <__metal_driver_sifive_gpio0_config_int+0x1fa>
/home/nicoladgg/wsFreedomStudio/sifive_hifive1_revb_hello/freedom-metal/src/drivers/sifive_gpio0.c:137
20016f40:	fec42783          	lw	a5,-20(s0)
20016f44:	07e1                	addi	a5,a5,24
20016f46:	4398                	lw	a4,0(a5)
20016f48:	fd842783          	lw	a5,-40(s0)
20016f4c:	fec42683          	lw	a3,-20(s0)
20016f50:	06e1                	addi	a3,a3,24
20016f52:	8fd9                	or	a5,a5,a4
20016f54:	c29c                	sw	a5,0(a3)
/home/nicoladgg/wsFreedomStudio/sifive_hifive1_revb_hello/freedom-metal/src/drivers/sifive_gpio0.c:138
20016f56:	a215                	j	2001707a <__metal_driver_sifive_gpio0_config_int+0x1fa>
/home/nicoladgg/wsFreedomStudio/sifive_hifive1_revb_hello/freedom-metal/src/drivers/sifive_gpio0.c:141
20016f58:	fec42783          	lw	a5,-20(s0)
20016f5c:	02078793          	addi	a5,a5,32
20016f60:	4398                	lw	a4,0(a5)
20016f62:	fd842783          	lw	a5,-40(s0)
20016f66:	fec42683          	lw	a3,-20(s0)
20016f6a:	02068693          	addi	a3,a3,32
20016f6e:	8fd9                	or	a5,a5,a4
20016f70:	c29c                	sw	a5,0(a3)
/home/nicoladgg/wsFreedomStudio/sifive_hifive1_revb_hello/freedom-metal/src/drivers/sifive_gpio0.c:142
20016f72:	a221                	j	2001707a <__metal_driver_sifive_gpio0_config_int+0x1fa>
/home/nicoladgg/wsFreedomStudio/sifive_hifive1_revb_hello/freedom-metal/src/drivers/sifive_gpio0.c:145
20016f74:	fec42783          	lw	a5,-20(s0)
20016f78:	07e1                	addi	a5,a5,24
20016f7a:	4398                	lw	a4,0(a5)
20016f7c:	fd842783          	lw	a5,-40(s0)
20016f80:	fec42683          	lw	a3,-20(s0)
20016f84:	06e1                	addi	a3,a3,24
20016f86:	8fd9                	or	a5,a5,a4
20016f88:	c29c                	sw	a5,0(a3)
/home/nicoladgg/wsFreedomStudio/sifive_hifive1_revb_hello/freedom-metal/src/drivers/sifive_gpio0.c:147
20016f8a:	fec42783          	lw	a5,-20(s0)
20016f8e:	02078793          	addi	a5,a5,32
20016f92:	4398                	lw	a4,0(a5)
20016f94:	fd842783          	lw	a5,-40(s0)
20016f98:	fec42683          	lw	a3,-20(s0)
20016f9c:	02068693          	addi	a3,a3,32
20016fa0:	8fd9                	or	a5,a5,a4
20016fa2:	c29c                	sw	a5,0(a3)
/home/nicoladgg/wsFreedomStudio/sifive_hifive1_revb_hello/freedom-metal/src/drivers/sifive_gpio0.c:148
20016fa4:	a8d9                	j	2001707a <__metal_driver_sifive_gpio0_config_int+0x1fa>
/home/nicoladgg/wsFreedomStudio/sifive_hifive1_revb_hello/freedom-metal/src/drivers/sifive_gpio0.c:151
20016fa6:	fec42783          	lw	a5,-20(s0)
20016faa:	02878793          	addi	a5,a5,40
20016fae:	4398                	lw	a4,0(a5)
20016fb0:	fd842783          	lw	a5,-40(s0)
20016fb4:	fec42683          	lw	a3,-20(s0)
20016fb8:	02868693          	addi	a3,a3,40
20016fbc:	8fd9                	or	a5,a5,a4
20016fbe:	c29c                	sw	a5,0(a3)
/home/nicoladgg/wsFreedomStudio/sifive_hifive1_revb_hello/freedom-metal/src/drivers/sifive_gpio0.c:152
20016fc0:	a86d                	j	2001707a <__metal_driver_sifive_gpio0_config_int+0x1fa>
/home/nicoladgg/wsFreedomStudio/sifive_hifive1_revb_hello/freedom-metal/src/drivers/sifive_gpio0.c:155
20016fc2:	fec42783          	lw	a5,-20(s0)
20016fc6:	03078793          	addi	a5,a5,48
20016fca:	4398                	lw	a4,0(a5)
20016fcc:	fd842783          	lw	a5,-40(s0)
20016fd0:	fec42683          	lw	a3,-20(s0)
20016fd4:	03068693          	addi	a3,a3,48
20016fd8:	8fd9                	or	a5,a5,a4
20016fda:	c29c                	sw	a5,0(a3)
/home/nicoladgg/wsFreedomStudio/sifive_hifive1_revb_hello/freedom-metal/src/drivers/sifive_gpio0.c:156
20016fdc:	a879                	j	2001707a <__metal_driver_sifive_gpio0_config_int+0x1fa>
/home/nicoladgg/wsFreedomStudio/sifive_hifive1_revb_hello/freedom-metal/src/drivers/sifive_gpio0.c:159
20016fde:	fec42783          	lw	a5,-20(s0)
20016fe2:	02878793          	addi	a5,a5,40
20016fe6:	4398                	lw	a4,0(a5)
20016fe8:	fd842783          	lw	a5,-40(s0)
20016fec:	fec42683          	lw	a3,-20(s0)
20016ff0:	02868693          	addi	a3,a3,40
20016ff4:	8fd9                	or	a5,a5,a4
20016ff6:	c29c                	sw	a5,0(a3)
/home/nicoladgg/wsFreedomStudio/sifive_hifive1_revb_hello/freedom-metal/src/drivers/sifive_gpio0.c:161
20016ff8:	fec42783          	lw	a5,-20(s0)
20016ffc:	03078793          	addi	a5,a5,48
20017000:	4398                	lw	a4,0(a5)
20017002:	fd842783          	lw	a5,-40(s0)
20017006:	fec42683          	lw	a3,-20(s0)
2001700a:	03068693          	addi	a3,a3,48
2001700e:	8fd9                	or	a5,a5,a4
20017010:	c29c                	sw	a5,0(a3)
/home/nicoladgg/wsFreedomStudio/sifive_hifive1_revb_hello/freedom-metal/src/drivers/sifive_gpio0.c:162
20017012:	a0a5                	j	2001707a <__metal_driver_sifive_gpio0_config_int+0x1fa>
/home/nicoladgg/wsFreedomStudio/sifive_hifive1_revb_hello/freedom-metal/src/drivers/sifive_gpio0.c:165
20017014:	fec42783          	lw	a5,-20(s0)
20017018:	07e1                	addi	a5,a5,24
2001701a:	4398                	lw	a4,0(a5)
2001701c:	fd842783          	lw	a5,-40(s0)
20017020:	fec42683          	lw	a3,-20(s0)
20017024:	06e1                	addi	a3,a3,24
20017026:	8fd9                	or	a5,a5,a4
20017028:	c29c                	sw	a5,0(a3)
/home/nicoladgg/wsFreedomStudio/sifive_hifive1_revb_hello/freedom-metal/src/drivers/sifive_gpio0.c:167
2001702a:	fec42783          	lw	a5,-20(s0)
2001702e:	02078793          	addi	a5,a5,32
20017032:	4398                	lw	a4,0(a5)
20017034:	fd842783          	lw	a5,-40(s0)
20017038:	fec42683          	lw	a3,-20(s0)
2001703c:	02068693          	addi	a3,a3,32
20017040:	8fd9                	or	a5,a5,a4
20017042:	c29c                	sw	a5,0(a3)
/home/nicoladgg/wsFreedomStudio/sifive_hifive1_revb_hello/freedom-metal/src/drivers/sifive_gpio0.c:169
20017044:	fec42783          	lw	a5,-20(s0)
20017048:	02878793          	addi	a5,a5,40
2001704c:	4398                	lw	a4,0(a5)
2001704e:	fd842783          	lw	a5,-40(s0)
20017052:	fec42683          	lw	a3,-20(s0)
20017056:	02868693          	addi	a3,a3,40
2001705a:	8fd9                	or	a5,a5,a4
2001705c:	c29c                	sw	a5,0(a3)
/home/nicoladgg/wsFreedomStudio/sifive_hifive1_revb_hello/freedom-metal/src/drivers/sifive_gpio0.c:171
2001705e:	fec42783          	lw	a5,-20(s0)
20017062:	03078793          	addi	a5,a5,48
20017066:	4398                	lw	a4,0(a5)
20017068:	fd842783          	lw	a5,-40(s0)
2001706c:	fec42683          	lw	a3,-20(s0)
20017070:	03068693          	addi	a3,a3,48
20017074:	8fd9                	or	a5,a5,a4
20017076:	c29c                	sw	a5,0(a3)
/home/nicoladgg/wsFreedomStudio/sifive_hifive1_revb_hello/freedom-metal/src/drivers/sifive_gpio0.c:172
20017078:	0001                	nop
/home/nicoladgg/wsFreedomStudio/sifive_hifive1_revb_hello/freedom-metal/src/drivers/sifive_gpio0.c:174
2001707a:	4781                	li	a5,0
/home/nicoladgg/wsFreedomStudio/sifive_hifive1_revb_hello/freedom-metal/src/drivers/sifive_gpio0.c:175
2001707c:	853e                	mv	a0,a5
2001707e:	50b2                	lw	ra,44(sp)
20017080:	5422                	lw	s0,40(sp)
20017082:	6145                	addi	sp,sp,48
20017084:	8082                	ret

20017086 <__metal_driver_sifive_gpio0_clear_int>:
__metal_driver_sifive_gpio0_clear_int():
/home/nicoladgg/wsFreedomStudio/sifive_hifive1_revb_hello/freedom-metal/src/drivers/sifive_gpio0.c:178
20017086:	7179                	addi	sp,sp,-48
20017088:	d606                	sw	ra,44(sp)
2001708a:	d422                	sw	s0,40(sp)
2001708c:	1800                	addi	s0,sp,48
2001708e:	fca42e23          	sw	a0,-36(s0)
20017092:	fcb42c23          	sw	a1,-40(s0)
20017096:	fcc42a23          	sw	a2,-44(s0)
/home/nicoladgg/wsFreedomStudio/sifive_hifive1_revb_hello/freedom-metal/src/drivers/sifive_gpio0.c:179
2001709a:	fdc42503          	lw	a0,-36(s0)
2001709e:	f60ff0ef          	jal	ra,200167fe <__metal_driver_sifive_gpio0_base>
200170a2:	87aa                	mv	a5,a0
200170a4:	fef42623          	sw	a5,-20(s0)
200170a8:	fd442703          	lw	a4,-44(s0)
200170ac:	479d                	li	a5,7
200170ae:	14e7ea63          	bltu	a5,a4,20017202 <__metal_driver_sifive_gpio0_clear_int+0x17c>
200170b2:	fd442783          	lw	a5,-44(s0)
200170b6:	00279713          	slli	a4,a5,0x2
200170ba:	200117b7          	lui	a5,0x20011
200170be:	18878793          	addi	a5,a5,392 # 20011188 <__metal_driver_vtable_sifive_fe310_g000_pll+0x2c>
200170c2:	97ba                	add	a5,a5,a4
200170c4:	439c                	lw	a5,0(a5)
200170c6:	8782                	jr	a5
/home/nicoladgg/wsFreedomStudio/sifive_hifive1_revb_hello/freedom-metal/src/drivers/sifive_gpio0.c:184
200170c8:	fec42783          	lw	a5,-20(s0)
200170cc:	07f1                	addi	a5,a5,28
200170ce:	4398                	lw	a4,0(a5)
200170d0:	fd842783          	lw	a5,-40(s0)
200170d4:	fec42683          	lw	a3,-20(s0)
200170d8:	06f1                	addi	a3,a3,28
200170da:	8fd9                	or	a5,a5,a4
200170dc:	c29c                	sw	a5,0(a3)
/home/nicoladgg/wsFreedomStudio/sifive_hifive1_revb_hello/freedom-metal/src/drivers/sifive_gpio0.c:185
200170de:	a215                	j	20017202 <__metal_driver_sifive_gpio0_clear_int+0x17c>
/home/nicoladgg/wsFreedomStudio/sifive_hifive1_revb_hello/freedom-metal/src/drivers/sifive_gpio0.c:188
200170e0:	fec42783          	lw	a5,-20(s0)
200170e4:	02478793          	addi	a5,a5,36
200170e8:	4398                	lw	a4,0(a5)
200170ea:	fd842783          	lw	a5,-40(s0)
200170ee:	fec42683          	lw	a3,-20(s0)
200170f2:	02468693          	addi	a3,a3,36
200170f6:	8fd9                	or	a5,a5,a4
200170f8:	c29c                	sw	a5,0(a3)
/home/nicoladgg/wsFreedomStudio/sifive_hifive1_revb_hello/freedom-metal/src/drivers/sifive_gpio0.c:189
200170fa:	a221                	j	20017202 <__metal_driver_sifive_gpio0_clear_int+0x17c>
/home/nicoladgg/wsFreedomStudio/sifive_hifive1_revb_hello/freedom-metal/src/drivers/sifive_gpio0.c:192
200170fc:	fec42783          	lw	a5,-20(s0)
20017100:	07f1                	addi	a5,a5,28
20017102:	4398                	lw	a4,0(a5)
20017104:	fd842783          	lw	a5,-40(s0)
20017108:	fec42683          	lw	a3,-20(s0)
2001710c:	06f1                	addi	a3,a3,28
2001710e:	8fd9                	or	a5,a5,a4
20017110:	c29c                	sw	a5,0(a3)
/home/nicoladgg/wsFreedomStudio/sifive_hifive1_revb_hello/freedom-metal/src/drivers/sifive_gpio0.c:194
20017112:	fec42783          	lw	a5,-20(s0)
20017116:	02478793          	addi	a5,a5,36
2001711a:	4398                	lw	a4,0(a5)
2001711c:	fd842783          	lw	a5,-40(s0)
20017120:	fec42683          	lw	a3,-20(s0)
20017124:	02468693          	addi	a3,a3,36
20017128:	8fd9                	or	a5,a5,a4
2001712a:	c29c                	sw	a5,0(a3)
/home/nicoladgg/wsFreedomStudio/sifive_hifive1_revb_hello/freedom-metal/src/drivers/sifive_gpio0.c:195
2001712c:	a8d9                	j	20017202 <__metal_driver_sifive_gpio0_clear_int+0x17c>
/home/nicoladgg/wsFreedomStudio/sifive_hifive1_revb_hello/freedom-metal/src/drivers/sifive_gpio0.c:198
2001712e:	fec42783          	lw	a5,-20(s0)
20017132:	02c78793          	addi	a5,a5,44
20017136:	4398                	lw	a4,0(a5)
20017138:	fd842783          	lw	a5,-40(s0)
2001713c:	fec42683          	lw	a3,-20(s0)
20017140:	02c68693          	addi	a3,a3,44
20017144:	8fd9                	or	a5,a5,a4
20017146:	c29c                	sw	a5,0(a3)
/home/nicoladgg/wsFreedomStudio/sifive_hifive1_revb_hello/freedom-metal/src/drivers/sifive_gpio0.c:199
20017148:	a86d                	j	20017202 <__metal_driver_sifive_gpio0_clear_int+0x17c>
/home/nicoladgg/wsFreedomStudio/sifive_hifive1_revb_hello/freedom-metal/src/drivers/sifive_gpio0.c:202
2001714a:	fec42783          	lw	a5,-20(s0)
2001714e:	03478793          	addi	a5,a5,52
20017152:	4398                	lw	a4,0(a5)
20017154:	fd842783          	lw	a5,-40(s0)
20017158:	fec42683          	lw	a3,-20(s0)
2001715c:	03468693          	addi	a3,a3,52
20017160:	8fd9                	or	a5,a5,a4
20017162:	c29c                	sw	a5,0(a3)
/home/nicoladgg/wsFreedomStudio/sifive_hifive1_revb_hello/freedom-metal/src/drivers/sifive_gpio0.c:203
20017164:	a879                	j	20017202 <__metal_driver_sifive_gpio0_clear_int+0x17c>
/home/nicoladgg/wsFreedomStudio/sifive_hifive1_revb_hello/freedom-metal/src/drivers/sifive_gpio0.c:206
20017166:	fec42783          	lw	a5,-20(s0)
2001716a:	02c78793          	addi	a5,a5,44
2001716e:	4398                	lw	a4,0(a5)
20017170:	fd842783          	lw	a5,-40(s0)
20017174:	fec42683          	lw	a3,-20(s0)
20017178:	02c68693          	addi	a3,a3,44
2001717c:	8fd9                	or	a5,a5,a4
2001717e:	c29c                	sw	a5,0(a3)
/home/nicoladgg/wsFreedomStudio/sifive_hifive1_revb_hello/freedom-metal/src/drivers/sifive_gpio0.c:208
20017180:	fec42783          	lw	a5,-20(s0)
20017184:	03478793          	addi	a5,a5,52
20017188:	4398                	lw	a4,0(a5)
2001718a:	fd842783          	lw	a5,-40(s0)
2001718e:	fec42683          	lw	a3,-20(s0)
20017192:	03468693          	addi	a3,a3,52
20017196:	8fd9                	or	a5,a5,a4
20017198:	c29c                	sw	a5,0(a3)
/home/nicoladgg/wsFreedomStudio/sifive_hifive1_revb_hello/freedom-metal/src/drivers/sifive_gpio0.c:209
2001719a:	a0a5                	j	20017202 <__metal_driver_sifive_gpio0_clear_int+0x17c>
/home/nicoladgg/wsFreedomStudio/sifive_hifive1_revb_hello/freedom-metal/src/drivers/sifive_gpio0.c:212
2001719c:	fec42783          	lw	a5,-20(s0)
200171a0:	07f1                	addi	a5,a5,28
200171a2:	4398                	lw	a4,0(a5)
200171a4:	fd842783          	lw	a5,-40(s0)
200171a8:	fec42683          	lw	a3,-20(s0)
200171ac:	06f1                	addi	a3,a3,28
200171ae:	8fd9                	or	a5,a5,a4
200171b0:	c29c                	sw	a5,0(a3)
/home/nicoladgg/wsFreedomStudio/sifive_hifive1_revb_hello/freedom-metal/src/drivers/sifive_gpio0.c:214
200171b2:	fec42783          	lw	a5,-20(s0)
200171b6:	02478793          	addi	a5,a5,36
200171ba:	4398                	lw	a4,0(a5)
200171bc:	fd842783          	lw	a5,-40(s0)
200171c0:	fec42683          	lw	a3,-20(s0)
200171c4:	02468693          	addi	a3,a3,36
200171c8:	8fd9                	or	a5,a5,a4
200171ca:	c29c                	sw	a5,0(a3)
/home/nicoladgg/wsFreedomStudio/sifive_hifive1_revb_hello/freedom-metal/src/drivers/sifive_gpio0.c:216
200171cc:	fec42783          	lw	a5,-20(s0)
200171d0:	02c78793          	addi	a5,a5,44
200171d4:	4398                	lw	a4,0(a5)
200171d6:	fd842783          	lw	a5,-40(s0)
200171da:	fec42683          	lw	a3,-20(s0)
200171de:	02c68693          	addi	a3,a3,44
200171e2:	8fd9                	or	a5,a5,a4
200171e4:	c29c                	sw	a5,0(a3)
/home/nicoladgg/wsFreedomStudio/sifive_hifive1_revb_hello/freedom-metal/src/drivers/sifive_gpio0.c:218
200171e6:	fec42783          	lw	a5,-20(s0)
200171ea:	03478793          	addi	a5,a5,52
200171ee:	4398                	lw	a4,0(a5)
200171f0:	fd842783          	lw	a5,-40(s0)
200171f4:	fec42683          	lw	a3,-20(s0)
200171f8:	03468693          	addi	a3,a3,52
200171fc:	8fd9                	or	a5,a5,a4
200171fe:	c29c                	sw	a5,0(a3)
/home/nicoladgg/wsFreedomStudio/sifive_hifive1_revb_hello/freedom-metal/src/drivers/sifive_gpio0.c:219
20017200:	0001                	nop
/home/nicoladgg/wsFreedomStudio/sifive_hifive1_revb_hello/freedom-metal/src/drivers/sifive_gpio0.c:221
20017202:	4781                	li	a5,0
/home/nicoladgg/wsFreedomStudio/sifive_hifive1_revb_hello/freedom-metal/src/drivers/sifive_gpio0.c:222
20017204:	853e                	mv	a0,a5
20017206:	50b2                	lw	ra,44(sp)
20017208:	5422                	lw	s0,40(sp)
2001720a:	6145                	addi	sp,sp,48
2001720c:	8082                	ret

2001720e <__metal_driver_gpio_interrupt_controller>:
__metal_driver_gpio_interrupt_controller():
/home/nicoladgg/wsFreedomStudio/sifive_hifive1_revb_hello/freedom-metal/src/drivers/sifive_gpio0.c:225
2001720e:	1101                	addi	sp,sp,-32
20017210:	ce06                	sw	ra,28(sp)
20017212:	cc22                	sw	s0,24(sp)
20017214:	1000                	addi	s0,sp,32
20017216:	fea42623          	sw	a0,-20(s0)
/home/nicoladgg/wsFreedomStudio/sifive_hifive1_revb_hello/freedom-metal/src/drivers/sifive_gpio0.c:226
2001721a:	fec42503          	lw	a0,-20(s0)
2001721e:	e06ff0ef          	jal	ra,20016824 <__metal_driver_sifive_gpio0_interrupt_parent>
20017222:	87aa                	mv	a5,a0
/home/nicoladgg/wsFreedomStudio/sifive_hifive1_revb_hello/freedom-metal/src/drivers/sifive_gpio0.c:227
20017224:	853e                	mv	a0,a5
20017226:	40f2                	lw	ra,28(sp)
20017228:	4462                	lw	s0,24(sp)
2001722a:	6105                	addi	sp,sp,32
2001722c:	8082                	ret

2001722e <__metal_driver_gpio_get_interrupt_id>:
__metal_driver_gpio_get_interrupt_id():
/home/nicoladgg/wsFreedomStudio/sifive_hifive1_revb_hello/freedom-metal/src/drivers/sifive_gpio0.c:229
2001722e:	7179                	addi	sp,sp,-48
20017230:	d606                	sw	ra,44(sp)
20017232:	d422                	sw	s0,40(sp)
20017234:	1800                	addi	s0,sp,48
20017236:	fca42e23          	sw	a0,-36(s0)
2001723a:	fcb42c23          	sw	a1,-40(s0)
/home/nicoladgg/wsFreedomStudio/sifive_hifive1_revb_hello/freedom-metal/src/drivers/sifive_gpio0.c:231
2001723e:	fd842583          	lw	a1,-40(s0)
20017242:	fdc42503          	lw	a0,-36(s0)
20017246:	e08ff0ef          	jal	ra,2001684e <__metal_driver_sifive_gpio0_interrupt_lines>
2001724a:	fea42623          	sw	a0,-20(s0)
/home/nicoladgg/wsFreedomStudio/sifive_hifive1_revb_hello/freedom-metal/src/drivers/sifive_gpio0.c:232
2001724e:	fec42783          	lw	a5,-20(s0)
/home/nicoladgg/wsFreedomStudio/sifive_hifive1_revb_hello/freedom-metal/src/drivers/sifive_gpio0.c:233
20017252:	853e                	mv	a0,a5
20017254:	50b2                	lw	ra,44(sp)
20017256:	5422                	lw	s0,40(sp)
20017258:	6145                	addi	sp,sp,48
2001725a:	8082                	ret

2001725c <__metal_driver_sifive_uart0_control_base>:
__metal_driver_sifive_uart0_control_base():
/home/nicoladgg/wsFreedomStudio/sifive_hifive1_revb_hello/bsp/build/debug/./metal/machine.h:1066
2001725c:	1101                	addi	sp,sp,-32
2001725e:	ce22                	sw	s0,28(sp)
20017260:	1000                	addi	s0,sp,32
20017262:	fea42623          	sw	a0,-20(s0)
/home/nicoladgg/wsFreedomStudio/sifive_hifive1_revb_hello/bsp/build/debug/./metal/machine.h:1067
20017266:	fec42703          	lw	a4,-20(s0)
2001726a:	800017b7          	lui	a5,0x80001
2001726e:	a3878793          	addi	a5,a5,-1480 # 80000a38 <metal_segment_heap_target_end+0xfffff2b8>
20017272:	00f71563          	bne	a4,a5,2001727c <__metal_driver_sifive_uart0_control_base+0x20>
/home/nicoladgg/wsFreedomStudio/sifive_hifive1_revb_hello/bsp/build/debug/./metal/machine.h:1068
20017276:	100137b7          	lui	a5,0x10013
2001727a:	a829                	j	20017294 <__metal_driver_sifive_uart0_control_base+0x38>
/home/nicoladgg/wsFreedomStudio/sifive_hifive1_revb_hello/bsp/build/debug/./metal/machine.h:1070
2001727c:	fec42703          	lw	a4,-20(s0)
20017280:	800017b7          	lui	a5,0x80001
20017284:	a5878793          	addi	a5,a5,-1448 # 80000a58 <metal_segment_heap_target_end+0xfffff2d8>
20017288:	00f71563          	bne	a4,a5,20017292 <__metal_driver_sifive_uart0_control_base+0x36>
/home/nicoladgg/wsFreedomStudio/sifive_hifive1_revb_hello/bsp/build/debug/./metal/machine.h:1071
2001728c:	100237b7          	lui	a5,0x10023
20017290:	a011                	j	20017294 <__metal_driver_sifive_uart0_control_base+0x38>
/home/nicoladgg/wsFreedomStudio/sifive_hifive1_revb_hello/bsp/build/debug/./metal/machine.h:1074
20017292:	4781                	li	a5,0
/home/nicoladgg/wsFreedomStudio/sifive_hifive1_revb_hello/bsp/build/debug/./metal/machine.h:1076
20017294:	853e                	mv	a0,a5
20017296:	4472                	lw	s0,28(sp)
20017298:	6105                	addi	sp,sp,32
2001729a:	8082                	ret

2001729c <__metal_driver_sifive_uart0_interrupt_parent>:
__metal_driver_sifive_uart0_interrupt_parent():
/home/nicoladgg/wsFreedomStudio/sifive_hifive1_revb_hello/bsp/build/debug/./metal/machine.h:1105
2001729c:	1101                	addi	sp,sp,-32
2001729e:	ce22                	sw	s0,28(sp)
200172a0:	1000                	addi	s0,sp,32
200172a2:	fea42623          	sw	a0,-20(s0)
/home/nicoladgg/wsFreedomStudio/sifive_hifive1_revb_hello/bsp/build/debug/./metal/machine.h:1106
200172a6:	fec42703          	lw	a4,-20(s0)
200172aa:	800017b7          	lui	a5,0x80001
200172ae:	a3878793          	addi	a5,a5,-1480 # 80000a38 <metal_segment_heap_target_end+0xfffff2b8>
200172b2:	00f71763          	bne	a4,a5,200172c0 <__metal_driver_sifive_uart0_interrupt_parent+0x24>
/home/nicoladgg/wsFreedomStudio/sifive_hifive1_revb_hello/bsp/build/debug/./metal/machine.h:1107
200172b6:	800007b7          	lui	a5,0x80000
200172ba:	46078793          	addi	a5,a5,1120 # 80000460 <metal_segment_heap_target_end+0xffffece0>
200172be:	a839                	j	200172dc <__metal_driver_sifive_uart0_interrupt_parent+0x40>
/home/nicoladgg/wsFreedomStudio/sifive_hifive1_revb_hello/bsp/build/debug/./metal/machine.h:1109
200172c0:	fec42703          	lw	a4,-20(s0)
200172c4:	800017b7          	lui	a5,0x80001
200172c8:	a5878793          	addi	a5,a5,-1448 # 80000a58 <metal_segment_heap_target_end+0xfffff2d8>
200172cc:	00f71763          	bne	a4,a5,200172da <__metal_driver_sifive_uart0_interrupt_parent+0x3e>
/home/nicoladgg/wsFreedomStudio/sifive_hifive1_revb_hello/bsp/build/debug/./metal/machine.h:1110
200172d0:	800007b7          	lui	a5,0x80000
200172d4:	46078793          	addi	a5,a5,1120 # 80000460 <metal_segment_heap_target_end+0xffffece0>
200172d8:	a011                	j	200172dc <__metal_driver_sifive_uart0_interrupt_parent+0x40>
/home/nicoladgg/wsFreedomStudio/sifive_hifive1_revb_hello/bsp/build/debug/./metal/machine.h:1113
200172da:	4781                	li	a5,0
/home/nicoladgg/wsFreedomStudio/sifive_hifive1_revb_hello/bsp/build/debug/./metal/machine.h:1115
200172dc:	853e                	mv	a0,a5
200172de:	4472                	lw	s0,28(sp)
200172e0:	6105                	addi	sp,sp,32
200172e2:	8082                	ret

200172e4 <__metal_driver_sifive_uart0_interrupt_line>:
__metal_driver_sifive_uart0_interrupt_line():
/home/nicoladgg/wsFreedomStudio/sifive_hifive1_revb_hello/bsp/build/debug/./metal/machine.h:1118
200172e4:	1101                	addi	sp,sp,-32
200172e6:	ce22                	sw	s0,28(sp)
200172e8:	1000                	addi	s0,sp,32
200172ea:	fea42623          	sw	a0,-20(s0)
/home/nicoladgg/wsFreedomStudio/sifive_hifive1_revb_hello/bsp/build/debug/./metal/machine.h:1119
200172ee:	fec42703          	lw	a4,-20(s0)
200172f2:	800017b7          	lui	a5,0x80001
200172f6:	a3878793          	addi	a5,a5,-1480 # 80000a38 <metal_segment_heap_target_end+0xfffff2b8>
200172fa:	00f71463          	bne	a4,a5,20017302 <__metal_driver_sifive_uart0_interrupt_line+0x1e>
/home/nicoladgg/wsFreedomStudio/sifive_hifive1_revb_hello/bsp/build/debug/./metal/machine.h:1120
200172fe:	478d                	li	a5,3
20017300:	a821                	j	20017318 <__metal_driver_sifive_uart0_interrupt_line+0x34>
/home/nicoladgg/wsFreedomStudio/sifive_hifive1_revb_hello/bsp/build/debug/./metal/machine.h:1122
20017302:	fec42703          	lw	a4,-20(s0)
20017306:	800017b7          	lui	a5,0x80001
2001730a:	a5878793          	addi	a5,a5,-1448 # 80000a58 <metal_segment_heap_target_end+0xfffff2d8>
2001730e:	00f71463          	bne	a4,a5,20017316 <__metal_driver_sifive_uart0_interrupt_line+0x32>
/home/nicoladgg/wsFreedomStudio/sifive_hifive1_revb_hello/bsp/build/debug/./metal/machine.h:1123
20017312:	4791                	li	a5,4
20017314:	a011                	j	20017318 <__metal_driver_sifive_uart0_interrupt_line+0x34>
/home/nicoladgg/wsFreedomStudio/sifive_hifive1_revb_hello/bsp/build/debug/./metal/machine.h:1126
20017316:	4781                	li	a5,0
/home/nicoladgg/wsFreedomStudio/sifive_hifive1_revb_hello/bsp/build/debug/./metal/machine.h:1128
20017318:	853e                	mv	a0,a5
2001731a:	4472                	lw	s0,28(sp)
2001731c:	6105                	addi	sp,sp,32
2001731e:	8082                	ret

20017320 <__metal_driver_sifive_uart0_clock>:
__metal_driver_sifive_uart0_clock():
/home/nicoladgg/wsFreedomStudio/sifive_hifive1_revb_hello/bsp/build/debug/./metal/machine.h:1131
20017320:	1101                	addi	sp,sp,-32
20017322:	ce22                	sw	s0,28(sp)
20017324:	1000                	addi	s0,sp,32
20017326:	fea42623          	sw	a0,-20(s0)
/home/nicoladgg/wsFreedomStudio/sifive_hifive1_revb_hello/bsp/build/debug/./metal/machine.h:1132
2001732a:	fec42703          	lw	a4,-20(s0)
2001732e:	800017b7          	lui	a5,0x80001
20017332:	a3878793          	addi	a5,a5,-1480 # 80000a38 <metal_segment_heap_target_end+0xfffff2b8>
20017336:	00f71763          	bne	a4,a5,20017344 <__metal_driver_sifive_uart0_clock+0x24>
/home/nicoladgg/wsFreedomStudio/sifive_hifive1_revb_hello/bsp/build/debug/./metal/machine.h:1133
2001733a:	800017b7          	lui	a5,0x80001
2001733e:	a9078793          	addi	a5,a5,-1392 # 80000a90 <metal_segment_heap_target_end+0xfffff310>
20017342:	a839                	j	20017360 <__metal_driver_sifive_uart0_clock+0x40>
/home/nicoladgg/wsFreedomStudio/sifive_hifive1_revb_hello/bsp/build/debug/./metal/machine.h:1135
20017344:	fec42703          	lw	a4,-20(s0)
20017348:	800017b7          	lui	a5,0x80001
2001734c:	a5878793          	addi	a5,a5,-1448 # 80000a58 <metal_segment_heap_target_end+0xfffff2d8>
20017350:	00f71763          	bne	a4,a5,2001735e <__metal_driver_sifive_uart0_clock+0x3e>
/home/nicoladgg/wsFreedomStudio/sifive_hifive1_revb_hello/bsp/build/debug/./metal/machine.h:1136
20017354:	800017b7          	lui	a5,0x80001
20017358:	a9078793          	addi	a5,a5,-1392 # 80000a90 <metal_segment_heap_target_end+0xfffff310>
2001735c:	a011                	j	20017360 <__metal_driver_sifive_uart0_clock+0x40>
/home/nicoladgg/wsFreedomStudio/sifive_hifive1_revb_hello/bsp/build/debug/./metal/machine.h:1139
2001735e:	4781                	li	a5,0
/home/nicoladgg/wsFreedomStudio/sifive_hifive1_revb_hello/bsp/build/debug/./metal/machine.h:1141
20017360:	853e                	mv	a0,a5
20017362:	4472                	lw	s0,28(sp)
20017364:	6105                	addi	sp,sp,32
20017366:	8082                	ret

20017368 <__metal_driver_sifive_uart0_pinmux>:
__metal_driver_sifive_uart0_pinmux():
/home/nicoladgg/wsFreedomStudio/sifive_hifive1_revb_hello/bsp/build/debug/./metal/machine.h:1144
20017368:	1101                	addi	sp,sp,-32
2001736a:	ce22                	sw	s0,28(sp)
2001736c:	1000                	addi	s0,sp,32
2001736e:	fea42623          	sw	a0,-20(s0)
/home/nicoladgg/wsFreedomStudio/sifive_hifive1_revb_hello/bsp/build/debug/./metal/machine.h:1145
20017372:	fec42703          	lw	a4,-20(s0)
20017376:	800017b7          	lui	a5,0x80001
2001737a:	a3878793          	addi	a5,a5,-1480 # 80000a38 <metal_segment_heap_target_end+0xfffff2b8>
2001737e:	00f71563          	bne	a4,a5,20017388 <__metal_driver_sifive_uart0_pinmux+0x20>
/home/nicoladgg/wsFreedomStudio/sifive_hifive1_revb_hello/bsp/build/debug/./metal/machine.h:1146
20017382:	81818793          	addi	a5,gp,-2024 # 80000ab8 <__metal_dt_gpio_10012000>
20017386:	a829                	j	200173a0 <__metal_driver_sifive_uart0_pinmux+0x38>
/home/nicoladgg/wsFreedomStudio/sifive_hifive1_revb_hello/bsp/build/debug/./metal/machine.h:1148
20017388:	fec42703          	lw	a4,-20(s0)
2001738c:	800017b7          	lui	a5,0x80001
20017390:	a5878793          	addi	a5,a5,-1448 # 80000a58 <metal_segment_heap_target_end+0xfffff2d8>
20017394:	00f71563          	bne	a4,a5,2001739e <__metal_driver_sifive_uart0_pinmux+0x36>
/home/nicoladgg/wsFreedomStudio/sifive_hifive1_revb_hello/bsp/build/debug/./metal/machine.h:1149
20017398:	81818793          	addi	a5,gp,-2024 # 80000ab8 <__metal_dt_gpio_10012000>
2001739c:	a011                	j	200173a0 <__metal_driver_sifive_uart0_pinmux+0x38>
/home/nicoladgg/wsFreedomStudio/sifive_hifive1_revb_hello/bsp/build/debug/./metal/machine.h:1152
2001739e:	4781                	li	a5,0
/home/nicoladgg/wsFreedomStudio/sifive_hifive1_revb_hello/bsp/build/debug/./metal/machine.h:1154
200173a0:	853e                	mv	a0,a5
200173a2:	4472                	lw	s0,28(sp)
200173a4:	6105                	addi	sp,sp,32
200173a6:	8082                	ret

200173a8 <__metal_driver_sifive_uart0_pinmux_output_selector>:
__metal_driver_sifive_uart0_pinmux_output_selector():
/home/nicoladgg/wsFreedomStudio/sifive_hifive1_revb_hello/bsp/build/debug/./metal/machine.h:1157
200173a8:	1101                	addi	sp,sp,-32
200173aa:	ce22                	sw	s0,28(sp)
200173ac:	1000                	addi	s0,sp,32
200173ae:	fea42623          	sw	a0,-20(s0)
/home/nicoladgg/wsFreedomStudio/sifive_hifive1_revb_hello/bsp/build/debug/./metal/machine.h:1158
200173b2:	fec42703          	lw	a4,-20(s0)
200173b6:	800017b7          	lui	a5,0x80001
200173ba:	a3878793          	addi	a5,a5,-1480 # 80000a38 <metal_segment_heap_target_end+0xfffff2b8>
200173be:	00f71463          	bne	a4,a5,200173c6 <__metal_driver_sifive_uart0_pinmux_output_selector+0x1e>
/home/nicoladgg/wsFreedomStudio/sifive_hifive1_revb_hello/bsp/build/debug/./metal/machine.h:1159
200173c2:	4781                	li	a5,0
200173c4:	a821                	j	200173dc <__metal_driver_sifive_uart0_pinmux_output_selector+0x34>
/home/nicoladgg/wsFreedomStudio/sifive_hifive1_revb_hello/bsp/build/debug/./metal/machine.h:1161
200173c6:	fec42703          	lw	a4,-20(s0)
200173ca:	800017b7          	lui	a5,0x80001
200173ce:	a5878793          	addi	a5,a5,-1448 # 80000a58 <metal_segment_heap_target_end+0xfffff2d8>
200173d2:	00f71463          	bne	a4,a5,200173da <__metal_driver_sifive_uart0_pinmux_output_selector+0x32>
/home/nicoladgg/wsFreedomStudio/sifive_hifive1_revb_hello/bsp/build/debug/./metal/machine.h:1162
200173d6:	4781                	li	a5,0
200173d8:	a011                	j	200173dc <__metal_driver_sifive_uart0_pinmux_output_selector+0x34>
/home/nicoladgg/wsFreedomStudio/sifive_hifive1_revb_hello/bsp/build/debug/./metal/machine.h:1165
200173da:	4781                	li	a5,0
/home/nicoladgg/wsFreedomStudio/sifive_hifive1_revb_hello/bsp/build/debug/./metal/machine.h:1167
200173dc:	853e                	mv	a0,a5
200173de:	4472                	lw	s0,28(sp)
200173e0:	6105                	addi	sp,sp,32
200173e2:	8082                	ret

200173e4 <__metal_driver_sifive_uart0_pinmux_source_selector>:
__metal_driver_sifive_uart0_pinmux_source_selector():
/home/nicoladgg/wsFreedomStudio/sifive_hifive1_revb_hello/bsp/build/debug/./metal/machine.h:1170
200173e4:	1101                	addi	sp,sp,-32
200173e6:	ce22                	sw	s0,28(sp)
200173e8:	1000                	addi	s0,sp,32
200173ea:	fea42623          	sw	a0,-20(s0)
/home/nicoladgg/wsFreedomStudio/sifive_hifive1_revb_hello/bsp/build/debug/./metal/machine.h:1171
200173ee:	fec42703          	lw	a4,-20(s0)
200173f2:	800017b7          	lui	a5,0x80001
200173f6:	a3878793          	addi	a5,a5,-1480 # 80000a38 <metal_segment_heap_target_end+0xfffff2b8>
200173fa:	00f71563          	bne	a4,a5,20017404 <__metal_driver_sifive_uart0_pinmux_source_selector+0x20>
/home/nicoladgg/wsFreedomStudio/sifive_hifive1_revb_hello/bsp/build/debug/./metal/machine.h:1172
200173fe:	000307b7          	lui	a5,0x30
20017402:	a829                	j	2001741c <__metal_driver_sifive_uart0_pinmux_source_selector+0x38>
/home/nicoladgg/wsFreedomStudio/sifive_hifive1_revb_hello/bsp/build/debug/./metal/machine.h:1174
20017404:	fec42703          	lw	a4,-20(s0)
20017408:	800017b7          	lui	a5,0x80001
2001740c:	a5878793          	addi	a5,a5,-1448 # 80000a58 <metal_segment_heap_target_end+0xfffff2d8>
20017410:	00f71563          	bne	a4,a5,2001741a <__metal_driver_sifive_uart0_pinmux_source_selector+0x36>
/home/nicoladgg/wsFreedomStudio/sifive_hifive1_revb_hello/bsp/build/debug/./metal/machine.h:1175
20017414:	008407b7          	lui	a5,0x840
20017418:	a011                	j	2001741c <__metal_driver_sifive_uart0_pinmux_source_selector+0x38>
/home/nicoladgg/wsFreedomStudio/sifive_hifive1_revb_hello/bsp/build/debug/./metal/machine.h:1178
2001741a:	4781                	li	a5,0
/home/nicoladgg/wsFreedomStudio/sifive_hifive1_revb_hello/bsp/build/debug/./metal/machine.h:1180
2001741c:	853e                	mv	a0,a5
2001741e:	4472                	lw	s0,28(sp)
20017420:	6105                	addi	sp,sp,32
20017422:	8082                	ret

20017424 <__metal_driver_sifive_uart0_interrupt_controller>:
__metal_driver_sifive_uart0_interrupt_controller():
/home/nicoladgg/wsFreedomStudio/sifive_hifive1_revb_hello/freedom-metal/src/drivers/sifive_uart0.c:37
20017424:	1101                	addi	sp,sp,-32
20017426:	ce06                	sw	ra,28(sp)
20017428:	cc22                	sw	s0,24(sp)
2001742a:	1000                	addi	s0,sp,32
2001742c:	fea42623          	sw	a0,-20(s0)
/home/nicoladgg/wsFreedomStudio/sifive_hifive1_revb_hello/freedom-metal/src/drivers/sifive_uart0.c:38
20017430:	fec42503          	lw	a0,-20(s0)
20017434:	e69ff0ef          	jal	ra,2001729c <__metal_driver_sifive_uart0_interrupt_parent>
20017438:	87aa                	mv	a5,a0
/home/nicoladgg/wsFreedomStudio/sifive_hifive1_revb_hello/freedom-metal/src/drivers/sifive_uart0.c:39
2001743a:	853e                	mv	a0,a5
2001743c:	40f2                	lw	ra,28(sp)
2001743e:	4462                	lw	s0,24(sp)
20017440:	6105                	addi	sp,sp,32
20017442:	8082                	ret

20017444 <__metal_driver_sifive_uart0_get_interrupt_id>:
__metal_driver_sifive_uart0_get_interrupt_id():
/home/nicoladgg/wsFreedomStudio/sifive_hifive1_revb_hello/freedom-metal/src/drivers/sifive_uart0.c:41
20017444:	1101                	addi	sp,sp,-32
20017446:	ce06                	sw	ra,28(sp)
20017448:	cc22                	sw	s0,24(sp)
2001744a:	1000                	addi	s0,sp,32
2001744c:	fea42623          	sw	a0,-20(s0)
/home/nicoladgg/wsFreedomStudio/sifive_hifive1_revb_hello/freedom-metal/src/drivers/sifive_uart0.c:42
20017450:	fec42503          	lw	a0,-20(s0)
20017454:	e91ff0ef          	jal	ra,200172e4 <__metal_driver_sifive_uart0_interrupt_line>
20017458:	87aa                	mv	a5,a0
/home/nicoladgg/wsFreedomStudio/sifive_hifive1_revb_hello/freedom-metal/src/drivers/sifive_uart0.c:43
2001745a:	853e                	mv	a0,a5
2001745c:	40f2                	lw	ra,28(sp)
2001745e:	4462                	lw	s0,24(sp)
20017460:	6105                	addi	sp,sp,32
20017462:	8082                	ret

20017464 <__metal_driver_sifive_uart0_tx_interrupt_enable>:
__metal_driver_sifive_uart0_tx_interrupt_enable():
/home/nicoladgg/wsFreedomStudio/sifive_hifive1_revb_hello/freedom-metal/src/drivers/sifive_uart0.c:45
20017464:	7179                	addi	sp,sp,-48
20017466:	d606                	sw	ra,44(sp)
20017468:	d422                	sw	s0,40(sp)
2001746a:	1800                	addi	s0,sp,48
2001746c:	fca42e23          	sw	a0,-36(s0)
/home/nicoladgg/wsFreedomStudio/sifive_hifive1_revb_hello/freedom-metal/src/drivers/sifive_uart0.c:46
20017470:	fdc42503          	lw	a0,-36(s0)
20017474:	de9ff0ef          	jal	ra,2001725c <__metal_driver_sifive_uart0_control_base>
20017478:	87aa                	mv	a5,a0
2001747a:	fef42623          	sw	a5,-20(s0)
/home/nicoladgg/wsFreedomStudio/sifive_hifive1_revb_hello/freedom-metal/src/drivers/sifive_uart0.c:48
2001747e:	fec42783          	lw	a5,-20(s0)
20017482:	07c1                	addi	a5,a5,16
20017484:	439c                	lw	a5,0(a5)
20017486:	fec42703          	lw	a4,-20(s0)
2001748a:	0741                	addi	a4,a4,16
2001748c:	0017e793          	ori	a5,a5,1
20017490:	c31c                	sw	a5,0(a4)
/home/nicoladgg/wsFreedomStudio/sifive_hifive1_revb_hello/freedom-metal/src/drivers/sifive_uart0.c:49
20017492:	4781                	li	a5,0
/home/nicoladgg/wsFreedomStudio/sifive_hifive1_revb_hello/freedom-metal/src/drivers/sifive_uart0.c:50
20017494:	853e                	mv	a0,a5
20017496:	50b2                	lw	ra,44(sp)
20017498:	5422                	lw	s0,40(sp)
2001749a:	6145                	addi	sp,sp,48
2001749c:	8082                	ret

2001749e <__metal_driver_sifive_uart0_tx_interrupt_disable>:
__metal_driver_sifive_uart0_tx_interrupt_disable():
/home/nicoladgg/wsFreedomStudio/sifive_hifive1_revb_hello/freedom-metal/src/drivers/sifive_uart0.c:52
2001749e:	7179                	addi	sp,sp,-48
200174a0:	d606                	sw	ra,44(sp)
200174a2:	d422                	sw	s0,40(sp)
200174a4:	1800                	addi	s0,sp,48
200174a6:	fca42e23          	sw	a0,-36(s0)
/home/nicoladgg/wsFreedomStudio/sifive_hifive1_revb_hello/freedom-metal/src/drivers/sifive_uart0.c:53
200174aa:	fdc42503          	lw	a0,-36(s0)
200174ae:	dafff0ef          	jal	ra,2001725c <__metal_driver_sifive_uart0_control_base>
200174b2:	87aa                	mv	a5,a0
200174b4:	fef42623          	sw	a5,-20(s0)
/home/nicoladgg/wsFreedomStudio/sifive_hifive1_revb_hello/freedom-metal/src/drivers/sifive_uart0.c:55
200174b8:	fec42783          	lw	a5,-20(s0)
200174bc:	07c1                	addi	a5,a5,16
200174be:	439c                	lw	a5,0(a5)
200174c0:	fec42703          	lw	a4,-20(s0)
200174c4:	0741                	addi	a4,a4,16
200174c6:	9bf9                	andi	a5,a5,-2
200174c8:	c31c                	sw	a5,0(a4)
/home/nicoladgg/wsFreedomStudio/sifive_hifive1_revb_hello/freedom-metal/src/drivers/sifive_uart0.c:56
200174ca:	4781                	li	a5,0
/home/nicoladgg/wsFreedomStudio/sifive_hifive1_revb_hello/freedom-metal/src/drivers/sifive_uart0.c:57
200174cc:	853e                	mv	a0,a5
200174ce:	50b2                	lw	ra,44(sp)
200174d0:	5422                	lw	s0,40(sp)
200174d2:	6145                	addi	sp,sp,48
200174d4:	8082                	ret

200174d6 <__metal_driver_sifive_uart0_rx_interrupt_enable>:
__metal_driver_sifive_uart0_rx_interrupt_enable():
/home/nicoladgg/wsFreedomStudio/sifive_hifive1_revb_hello/freedom-metal/src/drivers/sifive_uart0.c:59
200174d6:	7179                	addi	sp,sp,-48
200174d8:	d606                	sw	ra,44(sp)
200174da:	d422                	sw	s0,40(sp)
200174dc:	1800                	addi	s0,sp,48
200174de:	fca42e23          	sw	a0,-36(s0)
/home/nicoladgg/wsFreedomStudio/sifive_hifive1_revb_hello/freedom-metal/src/drivers/sifive_uart0.c:60
200174e2:	fdc42503          	lw	a0,-36(s0)
200174e6:	d77ff0ef          	jal	ra,2001725c <__metal_driver_sifive_uart0_control_base>
200174ea:	87aa                	mv	a5,a0
200174ec:	fef42623          	sw	a5,-20(s0)
/home/nicoladgg/wsFreedomStudio/sifive_hifive1_revb_hello/freedom-metal/src/drivers/sifive_uart0.c:62
200174f0:	fec42783          	lw	a5,-20(s0)
200174f4:	07c1                	addi	a5,a5,16
200174f6:	439c                	lw	a5,0(a5)
200174f8:	fec42703          	lw	a4,-20(s0)
200174fc:	0741                	addi	a4,a4,16
200174fe:	0027e793          	ori	a5,a5,2
20017502:	c31c                	sw	a5,0(a4)
/home/nicoladgg/wsFreedomStudio/sifive_hifive1_revb_hello/freedom-metal/src/drivers/sifive_uart0.c:63
20017504:	4781                	li	a5,0
/home/nicoladgg/wsFreedomStudio/sifive_hifive1_revb_hello/freedom-metal/src/drivers/sifive_uart0.c:64
20017506:	853e                	mv	a0,a5
20017508:	50b2                	lw	ra,44(sp)
2001750a:	5422                	lw	s0,40(sp)
2001750c:	6145                	addi	sp,sp,48
2001750e:	8082                	ret

20017510 <__metal_driver_sifive_uart0_rx_interrupt_disable>:
__metal_driver_sifive_uart0_rx_interrupt_disable():
/home/nicoladgg/wsFreedomStudio/sifive_hifive1_revb_hello/freedom-metal/src/drivers/sifive_uart0.c:66
20017510:	7179                	addi	sp,sp,-48
20017512:	d606                	sw	ra,44(sp)
20017514:	d422                	sw	s0,40(sp)
20017516:	1800                	addi	s0,sp,48
20017518:	fca42e23          	sw	a0,-36(s0)
/home/nicoladgg/wsFreedomStudio/sifive_hifive1_revb_hello/freedom-metal/src/drivers/sifive_uart0.c:67
2001751c:	fdc42503          	lw	a0,-36(s0)
20017520:	d3dff0ef          	jal	ra,2001725c <__metal_driver_sifive_uart0_control_base>
20017524:	87aa                	mv	a5,a0
20017526:	fef42623          	sw	a5,-20(s0)
/home/nicoladgg/wsFreedomStudio/sifive_hifive1_revb_hello/freedom-metal/src/drivers/sifive_uart0.c:69
2001752a:	fec42783          	lw	a5,-20(s0)
2001752e:	07c1                	addi	a5,a5,16
20017530:	439c                	lw	a5,0(a5)
20017532:	fec42703          	lw	a4,-20(s0)
20017536:	0741                	addi	a4,a4,16
20017538:	9bf5                	andi	a5,a5,-3
2001753a:	c31c                	sw	a5,0(a4)
/home/nicoladgg/wsFreedomStudio/sifive_hifive1_revb_hello/freedom-metal/src/drivers/sifive_uart0.c:70
2001753c:	4781                	li	a5,0
/home/nicoladgg/wsFreedomStudio/sifive_hifive1_revb_hello/freedom-metal/src/drivers/sifive_uart0.c:71
2001753e:	853e                	mv	a0,a5
20017540:	50b2                	lw	ra,44(sp)
20017542:	5422                	lw	s0,40(sp)
20017544:	6145                	addi	sp,sp,48
20017546:	8082                	ret

20017548 <__metal_driver_sifive_uart0_txready>:
__metal_driver_sifive_uart0_txready():
/home/nicoladgg/wsFreedomStudio/sifive_hifive1_revb_hello/freedom-metal/src/drivers/sifive_uart0.c:73
20017548:	7179                	addi	sp,sp,-48
2001754a:	d606                	sw	ra,44(sp)
2001754c:	d422                	sw	s0,40(sp)
2001754e:	1800                	addi	s0,sp,48
20017550:	fca42e23          	sw	a0,-36(s0)
/home/nicoladgg/wsFreedomStudio/sifive_hifive1_revb_hello/freedom-metal/src/drivers/sifive_uart0.c:74
20017554:	fdc42503          	lw	a0,-36(s0)
20017558:	d05ff0ef          	jal	ra,2001725c <__metal_driver_sifive_uart0_control_base>
2001755c:	87aa                	mv	a5,a0
2001755e:	fef42623          	sw	a5,-20(s0)
/home/nicoladgg/wsFreedomStudio/sifive_hifive1_revb_hello/freedom-metal/src/drivers/sifive_uart0.c:76
20017562:	fec42783          	lw	a5,-20(s0)
20017566:	439c                	lw	a5,0(a5)
20017568:	83fd                	srli	a5,a5,0x1f
2001756a:	0ff7f793          	zext.b	a5,a5
/home/nicoladgg/wsFreedomStudio/sifive_hifive1_revb_hello/freedom-metal/src/drivers/sifive_uart0.c:77
2001756e:	853e                	mv	a0,a5
20017570:	50b2                	lw	ra,44(sp)
20017572:	5422                	lw	s0,40(sp)
20017574:	6145                	addi	sp,sp,48
20017576:	8082                	ret

20017578 <__metal_driver_sifive_uart0_set_tx_watermark>:
__metal_driver_sifive_uart0_set_tx_watermark():
/home/nicoladgg/wsFreedomStudio/sifive_hifive1_revb_hello/freedom-metal/src/drivers/sifive_uart0.c:80
20017578:	7179                	addi	sp,sp,-48
2001757a:	d606                	sw	ra,44(sp)
2001757c:	d422                	sw	s0,40(sp)
2001757e:	1800                	addi	s0,sp,48
20017580:	fca42e23          	sw	a0,-36(s0)
20017584:	fcb42c23          	sw	a1,-40(s0)
/home/nicoladgg/wsFreedomStudio/sifive_hifive1_revb_hello/freedom-metal/src/drivers/sifive_uart0.c:81
20017588:	fdc42503          	lw	a0,-36(s0)
2001758c:	cd1ff0ef          	jal	ra,2001725c <__metal_driver_sifive_uart0_control_base>
20017590:	87aa                	mv	a5,a0
20017592:	fef42623          	sw	a5,-20(s0)
/home/nicoladgg/wsFreedomStudio/sifive_hifive1_revb_hello/freedom-metal/src/drivers/sifive_uart0.c:83
20017596:	fec42783          	lw	a5,-20(s0)
2001759a:	07a1                	addi	a5,a5,8
2001759c:	4398                	lw	a4,0(a5)
2001759e:	fd842783          	lw	a5,-40(s0)
200175a2:	01079693          	slli	a3,a5,0x10
200175a6:	000707b7          	lui	a5,0x70
200175aa:	8ff5                	and	a5,a5,a3
200175ac:	fec42683          	lw	a3,-20(s0)
200175b0:	06a1                	addi	a3,a3,8
200175b2:	8fd9                	or	a5,a5,a4
200175b4:	c29c                	sw	a5,0(a3)
/home/nicoladgg/wsFreedomStudio/sifive_hifive1_revb_hello/freedom-metal/src/drivers/sifive_uart0.c:84
200175b6:	4781                	li	a5,0
/home/nicoladgg/wsFreedomStudio/sifive_hifive1_revb_hello/freedom-metal/src/drivers/sifive_uart0.c:85
200175b8:	853e                	mv	a0,a5
200175ba:	50b2                	lw	ra,44(sp)
200175bc:	5422                	lw	s0,40(sp)
200175be:	6145                	addi	sp,sp,48
200175c0:	8082                	ret

200175c2 <__metal_driver_sifive_uart0_get_tx_watermark>:
__metal_driver_sifive_uart0_get_tx_watermark():
/home/nicoladgg/wsFreedomStudio/sifive_hifive1_revb_hello/freedom-metal/src/drivers/sifive_uart0.c:87
200175c2:	7179                	addi	sp,sp,-48
200175c4:	d606                	sw	ra,44(sp)
200175c6:	d422                	sw	s0,40(sp)
200175c8:	1800                	addi	s0,sp,48
200175ca:	fca42e23          	sw	a0,-36(s0)
/home/nicoladgg/wsFreedomStudio/sifive_hifive1_revb_hello/freedom-metal/src/drivers/sifive_uart0.c:88
200175ce:	fdc42503          	lw	a0,-36(s0)
200175d2:	c8bff0ef          	jal	ra,2001725c <__metal_driver_sifive_uart0_control_base>
200175d6:	87aa                	mv	a5,a0
200175d8:	fef42623          	sw	a5,-20(s0)
/home/nicoladgg/wsFreedomStudio/sifive_hifive1_revb_hello/freedom-metal/src/drivers/sifive_uart0.c:90
200175dc:	fec42783          	lw	a5,-20(s0)
200175e0:	07a1                	addi	a5,a5,8
200175e2:	439c                	lw	a5,0(a5)
200175e4:	83c1                	srli	a5,a5,0x10
200175e6:	8b9d                	andi	a5,a5,7
/home/nicoladgg/wsFreedomStudio/sifive_hifive1_revb_hello/freedom-metal/src/drivers/sifive_uart0.c:91
200175e8:	853e                	mv	a0,a5
200175ea:	50b2                	lw	ra,44(sp)
200175ec:	5422                	lw	s0,40(sp)
200175ee:	6145                	addi	sp,sp,48
200175f0:	8082                	ret

200175f2 <__metal_driver_sifive_uart0_set_rx_watermark>:
__metal_driver_sifive_uart0_set_rx_watermark():
/home/nicoladgg/wsFreedomStudio/sifive_hifive1_revb_hello/freedom-metal/src/drivers/sifive_uart0.c:94
200175f2:	7179                	addi	sp,sp,-48
200175f4:	d606                	sw	ra,44(sp)
200175f6:	d422                	sw	s0,40(sp)
200175f8:	1800                	addi	s0,sp,48
200175fa:	fca42e23          	sw	a0,-36(s0)
200175fe:	fcb42c23          	sw	a1,-40(s0)
/home/nicoladgg/wsFreedomStudio/sifive_hifive1_revb_hello/freedom-metal/src/drivers/sifive_uart0.c:95
20017602:	fdc42503          	lw	a0,-36(s0)
20017606:	c57ff0ef          	jal	ra,2001725c <__metal_driver_sifive_uart0_control_base>
2001760a:	87aa                	mv	a5,a0
2001760c:	fef42623          	sw	a5,-20(s0)
/home/nicoladgg/wsFreedomStudio/sifive_hifive1_revb_hello/freedom-metal/src/drivers/sifive_uart0.c:97
20017610:	fec42783          	lw	a5,-20(s0)
20017614:	07b1                	addi	a5,a5,12
20017616:	4398                	lw	a4,0(a5)
20017618:	fd842783          	lw	a5,-40(s0)
2001761c:	01079693          	slli	a3,a5,0x10
20017620:	000707b7          	lui	a5,0x70
20017624:	8ff5                	and	a5,a5,a3
20017626:	fec42683          	lw	a3,-20(s0)
2001762a:	06b1                	addi	a3,a3,12
2001762c:	8fd9                	or	a5,a5,a4
2001762e:	c29c                	sw	a5,0(a3)
/home/nicoladgg/wsFreedomStudio/sifive_hifive1_revb_hello/freedom-metal/src/drivers/sifive_uart0.c:98
20017630:	4781                	li	a5,0
/home/nicoladgg/wsFreedomStudio/sifive_hifive1_revb_hello/freedom-metal/src/drivers/sifive_uart0.c:99
20017632:	853e                	mv	a0,a5
20017634:	50b2                	lw	ra,44(sp)
20017636:	5422                	lw	s0,40(sp)
20017638:	6145                	addi	sp,sp,48
2001763a:	8082                	ret

2001763c <__metal_driver_sifive_uart0_get_rx_watermark>:
__metal_driver_sifive_uart0_get_rx_watermark():
/home/nicoladgg/wsFreedomStudio/sifive_hifive1_revb_hello/freedom-metal/src/drivers/sifive_uart0.c:101
2001763c:	7179                	addi	sp,sp,-48
2001763e:	d606                	sw	ra,44(sp)
20017640:	d422                	sw	s0,40(sp)
20017642:	1800                	addi	s0,sp,48
20017644:	fca42e23          	sw	a0,-36(s0)
/home/nicoladgg/wsFreedomStudio/sifive_hifive1_revb_hello/freedom-metal/src/drivers/sifive_uart0.c:102
20017648:	fdc42503          	lw	a0,-36(s0)
2001764c:	c11ff0ef          	jal	ra,2001725c <__metal_driver_sifive_uart0_control_base>
20017650:	87aa                	mv	a5,a0
20017652:	fef42623          	sw	a5,-20(s0)
/home/nicoladgg/wsFreedomStudio/sifive_hifive1_revb_hello/freedom-metal/src/drivers/sifive_uart0.c:104
20017656:	fec42783          	lw	a5,-20(s0)
2001765a:	07b1                	addi	a5,a5,12
2001765c:	439c                	lw	a5,0(a5)
2001765e:	83c1                	srli	a5,a5,0x10
20017660:	8b9d                	andi	a5,a5,7
/home/nicoladgg/wsFreedomStudio/sifive_hifive1_revb_hello/freedom-metal/src/drivers/sifive_uart0.c:105
20017662:	853e                	mv	a0,a5
20017664:	50b2                	lw	ra,44(sp)
20017666:	5422                	lw	s0,40(sp)
20017668:	6145                	addi	sp,sp,48
2001766a:	8082                	ret

2001766c <__metal_driver_sifive_uart0_putc>:
__metal_driver_sifive_uart0_putc():
/home/nicoladgg/wsFreedomStudio/sifive_hifive1_revb_hello/freedom-metal/src/drivers/sifive_uart0.c:107
2001766c:	7179                	addi	sp,sp,-48
2001766e:	d606                	sw	ra,44(sp)
20017670:	d422                	sw	s0,40(sp)
20017672:	1800                	addi	s0,sp,48
20017674:	fca42e23          	sw	a0,-36(s0)
20017678:	fcb42c23          	sw	a1,-40(s0)
/home/nicoladgg/wsFreedomStudio/sifive_hifive1_revb_hello/freedom-metal/src/drivers/sifive_uart0.c:108
2001767c:	fdc42503          	lw	a0,-36(s0)
20017680:	bddff0ef          	jal	ra,2001725c <__metal_driver_sifive_uart0_control_base>
20017684:	87aa                	mv	a5,a0
20017686:	fef42623          	sw	a5,-20(s0)
/home/nicoladgg/wsFreedomStudio/sifive_hifive1_revb_hello/freedom-metal/src/drivers/sifive_uart0.c:110
2001768a:	0001                	nop
/home/nicoladgg/wsFreedomStudio/sifive_hifive1_revb_hello/freedom-metal/src/drivers/sifive_uart0.c:110 (discriminator 1)
2001768c:	fdc42503          	lw	a0,-36(s0)
20017690:	eb9ff0ef          	jal	ra,20017548 <__metal_driver_sifive_uart0_txready>
20017694:	87aa                	mv	a5,a0
20017696:	fbfd                	bnez	a5,2001768c <__metal_driver_sifive_uart0_putc+0x20>
/home/nicoladgg/wsFreedomStudio/sifive_hifive1_revb_hello/freedom-metal/src/drivers/sifive_uart0.c:113
20017698:	fec42783          	lw	a5,-20(s0)
2001769c:	fd842703          	lw	a4,-40(s0)
200176a0:	c398                	sw	a4,0(a5)
/home/nicoladgg/wsFreedomStudio/sifive_hifive1_revb_hello/freedom-metal/src/drivers/sifive_uart0.c:114
200176a2:	4781                	li	a5,0
/home/nicoladgg/wsFreedomStudio/sifive_hifive1_revb_hello/freedom-metal/src/drivers/sifive_uart0.c:115
200176a4:	853e                	mv	a0,a5
200176a6:	50b2                	lw	ra,44(sp)
200176a8:	5422                	lw	s0,40(sp)
200176aa:	6145                	addi	sp,sp,48
200176ac:	8082                	ret

200176ae <__metal_driver_sifive_uart0_getc>:
__metal_driver_sifive_uart0_getc():
/home/nicoladgg/wsFreedomStudio/sifive_hifive1_revb_hello/freedom-metal/src/drivers/sifive_uart0.c:117
200176ae:	7179                	addi	sp,sp,-48
200176b0:	d606                	sw	ra,44(sp)
200176b2:	d422                	sw	s0,40(sp)
200176b4:	1800                	addi	s0,sp,48
200176b6:	fca42e23          	sw	a0,-36(s0)
200176ba:	fcb42c23          	sw	a1,-40(s0)
/home/nicoladgg/wsFreedomStudio/sifive_hifive1_revb_hello/freedom-metal/src/drivers/sifive_uart0.c:119
200176be:	fdc42503          	lw	a0,-36(s0)
200176c2:	b9bff0ef          	jal	ra,2001725c <__metal_driver_sifive_uart0_control_base>
200176c6:	87aa                	mv	a5,a0
200176c8:	fef42623          	sw	a5,-20(s0)
/home/nicoladgg/wsFreedomStudio/sifive_hifive1_revb_hello/freedom-metal/src/drivers/sifive_uart0.c:121
200176cc:	fec42783          	lw	a5,-20(s0)
200176d0:	0791                	addi	a5,a5,4
200176d2:	439c                	lw	a5,0(a5)
200176d4:	fef42423          	sw	a5,-24(s0)
/home/nicoladgg/wsFreedomStudio/sifive_hifive1_revb_hello/freedom-metal/src/drivers/sifive_uart0.c:123
200176d8:	fe842783          	lw	a5,-24(s0)
200176dc:	0007d763          	bgez	a5,200176ea <__metal_driver_sifive_uart0_getc+0x3c>
/home/nicoladgg/wsFreedomStudio/sifive_hifive1_revb_hello/freedom-metal/src/drivers/sifive_uart0.c:124
200176e0:	fd842783          	lw	a5,-40(s0)
200176e4:	577d                	li	a4,-1
200176e6:	c398                	sw	a4,0(a5)
200176e8:	a801                	j	200176f8 <__metal_driver_sifive_uart0_getc+0x4a>
/home/nicoladgg/wsFreedomStudio/sifive_hifive1_revb_hello/freedom-metal/src/drivers/sifive_uart0.c:126
200176ea:	fe842783          	lw	a5,-24(s0)
200176ee:	0ff7f713          	zext.b	a4,a5
200176f2:	fd842783          	lw	a5,-40(s0)
200176f6:	c398                	sw	a4,0(a5)
/home/nicoladgg/wsFreedomStudio/sifive_hifive1_revb_hello/freedom-metal/src/drivers/sifive_uart0.c:128
200176f8:	4781                	li	a5,0
/home/nicoladgg/wsFreedomStudio/sifive_hifive1_revb_hello/freedom-metal/src/drivers/sifive_uart0.c:129
200176fa:	853e                	mv	a0,a5
200176fc:	50b2                	lw	ra,44(sp)
200176fe:	5422                	lw	s0,40(sp)
20017700:	6145                	addi	sp,sp,48
20017702:	8082                	ret

20017704 <__metal_driver_sifive_uart0_get_baud_rate>:
__metal_driver_sifive_uart0_get_baud_rate():
/home/nicoladgg/wsFreedomStudio/sifive_hifive1_revb_hello/freedom-metal/src/drivers/sifive_uart0.c:131
20017704:	7179                	addi	sp,sp,-48
20017706:	d622                	sw	s0,44(sp)
20017708:	1800                	addi	s0,sp,48
2001770a:	fca42e23          	sw	a0,-36(s0)
/home/nicoladgg/wsFreedomStudio/sifive_hifive1_revb_hello/freedom-metal/src/drivers/sifive_uart0.c:132
2001770e:	fdc42783          	lw	a5,-36(s0)
20017712:	fef42623          	sw	a5,-20(s0)
/home/nicoladgg/wsFreedomStudio/sifive_hifive1_revb_hello/freedom-metal/src/drivers/sifive_uart0.c:133
20017716:	fec42783          	lw	a5,-20(s0)
2001771a:	43dc                	lw	a5,4(a5)
/home/nicoladgg/wsFreedomStudio/sifive_hifive1_revb_hello/freedom-metal/src/drivers/sifive_uart0.c:134
2001771c:	853e                	mv	a0,a5
2001771e:	5432                	lw	s0,44(sp)
20017720:	6145                	addi	sp,sp,48
20017722:	8082                	ret

20017724 <__metal_driver_sifive_uart0_set_baud_rate>:
__metal_driver_sifive_uart0_set_baud_rate():
/home/nicoladgg/wsFreedomStudio/sifive_hifive1_revb_hello/freedom-metal/src/drivers/sifive_uart0.c:137
20017724:	7179                	addi	sp,sp,-48
20017726:	d606                	sw	ra,44(sp)
20017728:	d422                	sw	s0,40(sp)
2001772a:	1800                	addi	s0,sp,48
2001772c:	fca42e23          	sw	a0,-36(s0)
20017730:	fcb42c23          	sw	a1,-40(s0)
/home/nicoladgg/wsFreedomStudio/sifive_hifive1_revb_hello/freedom-metal/src/drivers/sifive_uart0.c:138
20017734:	fdc42783          	lw	a5,-36(s0)
20017738:	fef42623          	sw	a5,-20(s0)
/home/nicoladgg/wsFreedomStudio/sifive_hifive1_revb_hello/freedom-metal/src/drivers/sifive_uart0.c:139
2001773c:	fdc42503          	lw	a0,-36(s0)
20017740:	b1dff0ef          	jal	ra,2001725c <__metal_driver_sifive_uart0_control_base>
20017744:	87aa                	mv	a5,a0
20017746:	fef42423          	sw	a5,-24(s0)
/home/nicoladgg/wsFreedomStudio/sifive_hifive1_revb_hello/freedom-metal/src/drivers/sifive_uart0.c:140
2001774a:	fdc42503          	lw	a0,-36(s0)
2001774e:	bd3ff0ef          	jal	ra,20017320 <__metal_driver_sifive_uart0_clock>
20017752:	fea42223          	sw	a0,-28(s0)
/home/nicoladgg/wsFreedomStudio/sifive_hifive1_revb_hello/freedom-metal/src/drivers/sifive_uart0.c:142
20017756:	fd842703          	lw	a4,-40(s0)
2001775a:	fec42783          	lw	a5,-20(s0)
2001775e:	c3d8                	sw	a4,4(a5)
/home/nicoladgg/wsFreedomStudio/sifive_hifive1_revb_hello/freedom-metal/src/drivers/sifive_uart0.c:144
20017760:	fe442783          	lw	a5,-28(s0)
20017764:	cbb1                	beqz	a5,200177b8 <__metal_driver_sifive_uart0_set_baud_rate+0x94>
/home/nicoladgg/wsFreedomStudio/sifive_hifive1_revb_hello/freedom-metal/src/drivers/sifive_uart0.c:145
20017766:	fe442783          	lw	a5,-28(s0)
2001776a:	439c                	lw	a5,0(a5)
2001776c:	439c                	lw	a5,0(a5)
2001776e:	fe442503          	lw	a0,-28(s0)
20017772:	9782                	jalr	a5
20017774:	fea42023          	sw	a0,-32(s0)
/home/nicoladgg/wsFreedomStudio/sifive_hifive1_revb_hello/freedom-metal/src/drivers/sifive_uart0.c:146
20017778:	fe042703          	lw	a4,-32(s0)
2001777c:	fd842783          	lw	a5,-40(s0)
20017780:	02f747b3          	div	a5,a4,a5
20017784:	fff78713          	addi	a4,a5,-1 # 6ffff <__heap_size+0x6f7ff>
20017788:	fe842783          	lw	a5,-24(s0)
2001778c:	07e1                	addi	a5,a5,24
2001778e:	c398                	sw	a4,0(a5)
/home/nicoladgg/wsFreedomStudio/sifive_hifive1_revb_hello/freedom-metal/src/drivers/sifive_uart0.c:147
20017790:	fe842783          	lw	a5,-24(s0)
20017794:	07a1                	addi	a5,a5,8
20017796:	439c                	lw	a5,0(a5)
20017798:	fe842703          	lw	a4,-24(s0)
2001779c:	0721                	addi	a4,a4,8
2001779e:	0017e793          	ori	a5,a5,1
200177a2:	c31c                	sw	a5,0(a4)
/home/nicoladgg/wsFreedomStudio/sifive_hifive1_revb_hello/freedom-metal/src/drivers/sifive_uart0.c:148
200177a4:	fe842783          	lw	a5,-24(s0)
200177a8:	07b1                	addi	a5,a5,12
200177aa:	439c                	lw	a5,0(a5)
200177ac:	fe842703          	lw	a4,-24(s0)
200177b0:	0731                	addi	a4,a4,12
200177b2:	0017e793          	ori	a5,a5,1
200177b6:	c31c                	sw	a5,0(a4)
/home/nicoladgg/wsFreedomStudio/sifive_hifive1_revb_hello/freedom-metal/src/drivers/sifive_uart0.c:150
200177b8:	4781                	li	a5,0
/home/nicoladgg/wsFreedomStudio/sifive_hifive1_revb_hello/freedom-metal/src/drivers/sifive_uart0.c:151
200177ba:	853e                	mv	a0,a5
200177bc:	50b2                	lw	ra,44(sp)
200177be:	5422                	lw	s0,40(sp)
200177c0:	6145                	addi	sp,sp,48
200177c2:	8082                	ret

200177c4 <pre_rate_change_callback_func>:
pre_rate_change_callback_func():
/home/nicoladgg/wsFreedomStudio/sifive_hifive1_revb_hello/freedom-metal/src/drivers/sifive_uart0.c:153
200177c4:	7139                	addi	sp,sp,-64
200177c6:	de06                	sw	ra,60(sp)
200177c8:	dc22                	sw	s0,56(sp)
200177ca:	0080                	addi	s0,sp,64
200177cc:	fca42623          	sw	a0,-52(s0)
/home/nicoladgg/wsFreedomStudio/sifive_hifive1_revb_hello/freedom-metal/src/drivers/sifive_uart0.c:154
200177d0:	fcc42783          	lw	a5,-52(s0)
200177d4:	fef42623          	sw	a5,-20(s0)
/home/nicoladgg/wsFreedomStudio/sifive_hifive1_revb_hello/freedom-metal/src/drivers/sifive_uart0.c:156
200177d8:	fcc42503          	lw	a0,-52(s0)
200177dc:	a81ff0ef          	jal	ra,2001725c <__metal_driver_sifive_uart0_control_base>
200177e0:	87aa                	mv	a5,a0
/home/nicoladgg/wsFreedomStudio/sifive_hifive1_revb_hello/freedom-metal/src/drivers/sifive_uart0.c:155
200177e2:	fef42423          	sw	a5,-24(s0)
/home/nicoladgg/wsFreedomStudio/sifive_hifive1_revb_hello/freedom-metal/src/drivers/sifive_uart0.c:158
200177e6:	fcc42503          	lw	a0,-52(s0)
200177ea:	b37ff0ef          	jal	ra,20017320 <__metal_driver_sifive_uart0_clock>
200177ee:	fea42223          	sw	a0,-28(s0)
/home/nicoladgg/wsFreedomStudio/sifive_hifive1_revb_hello/freedom-metal/src/drivers/sifive_uart0.c:163
200177f2:	fe842783          	lw	a5,-24(s0)
200177f6:	07a1                	addi	a5,a5,8
200177f8:	4398                	lw	a4,0(a5)
200177fa:	fe842783          	lw	a5,-24(s0)
200177fe:	07a1                	addi	a5,a5,8
20017800:	86be                	mv	a3,a5
20017802:	fff907b7          	lui	a5,0xfff90
20017806:	17fd                	addi	a5,a5,-1
20017808:	8ff9                	and	a5,a5,a4
2001780a:	c29c                	sw	a5,0(a3)
/home/nicoladgg/wsFreedomStudio/sifive_hifive1_revb_hello/freedom-metal/src/drivers/sifive_uart0.c:164
2001780c:	fe842783          	lw	a5,-24(s0)
20017810:	07a1                	addi	a5,a5,8
20017812:	4398                	lw	a4,0(a5)
20017814:	fe842783          	lw	a5,-24(s0)
20017818:	07a1                	addi	a5,a5,8
2001781a:	86be                	mv	a3,a5
2001781c:	67c1                	lui	a5,0x10
2001781e:	8fd9                	or	a5,a5,a4
20017820:	c29c                	sw	a5,0(a3)
/home/nicoladgg/wsFreedomStudio/sifive_hifive1_revb_hello/freedom-metal/src/drivers/sifive_uart0.c:166
20017822:	0001                	nop
/home/nicoladgg/wsFreedomStudio/sifive_hifive1_revb_hello/freedom-metal/src/drivers/sifive_uart0.c:166 (discriminator 1)
20017824:	fe842783          	lw	a5,-24(s0)
20017828:	07d1                	addi	a5,a5,20
2001782a:	439c                	lw	a5,0(a5)
2001782c:	8b85                	andi	a5,a5,1
2001782e:	dbfd                	beqz	a5,20017824 <pre_rate_change_callback_func+0x60>
/home/nicoladgg/wsFreedomStudio/sifive_hifive1_revb_hello/freedom-metal/src/drivers/sifive_uart0.c:174
20017830:	fe842783          	lw	a5,-24(s0)
20017834:	07a1                	addi	a5,a5,8
20017836:	439c                	lw	a5,0(a5)
20017838:	8b89                	andi	a5,a5,2
2001783a:	c399                	beqz	a5,20017840 <pre_rate_change_callback_func+0x7c>
/home/nicoladgg/wsFreedomStudio/sifive_hifive1_revb_hello/freedom-metal/src/drivers/sifive_uart0.c:174 (discriminator 1)
2001783c:	47a5                	li	a5,9
2001783e:	a011                	j	20017842 <pre_rate_change_callback_func+0x7e>
/home/nicoladgg/wsFreedomStudio/sifive_hifive1_revb_hello/freedom-metal/src/drivers/sifive_uart0.c:174 (discriminator 2)
20017840:	47a9                	li	a5,10
/home/nicoladgg/wsFreedomStudio/sifive_hifive1_revb_hello/freedom-metal/src/drivers/sifive_uart0.c:173
20017842:	fef42023          	sw	a5,-32(s0)
/home/nicoladgg/wsFreedomStudio/sifive_hifive1_revb_hello/freedom-metal/src/drivers/sifive_uart0.c:175
20017846:	fe442783          	lw	a5,-28(s0)
2001784a:	439c                	lw	a5,0(a5)
2001784c:	439c                	lw	a5,0(a5)
2001784e:	fe442503          	lw	a0,-28(s0)
20017852:	9782                	jalr	a5
20017854:	fca42e23          	sw	a0,-36(s0)
/home/nicoladgg/wsFreedomStudio/sifive_hifive1_revb_hello/freedom-metal/src/drivers/sifive_uart0.c:176
20017858:	fe042703          	lw	a4,-32(s0)
2001785c:	fdc42783          	lw	a5,-36(s0)
20017860:	02f707b3          	mul	a5,a4,a5
20017864:	873e                	mv	a4,a5
20017866:	fec42783          	lw	a5,-20(s0)
2001786a:	43dc                	lw	a5,4(a5)
2001786c:	02f757b3          	divu	a5,a4,a5
20017870:	fcf42c23          	sw	a5,-40(s0)
/home/nicoladgg/wsFreedomStudio/sifive_hifive1_revb_hello/freedom-metal/src/drivers/sifive_uart0.c:178
20017874:	fc042a23          	sw	zero,-44(s0)
20017878:	a039                	j	20017886 <pre_rate_change_callback_func+0xc2>
/home/nicoladgg/wsFreedomStudio/sifive_hifive1_revb_hello/freedom-metal/src/drivers/sifive_uart0.c:179 (discriminator 3)
2001787a:	0001                	nop
/home/nicoladgg/wsFreedomStudio/sifive_hifive1_revb_hello/freedom-metal/src/drivers/sifive_uart0.c:178 (discriminator 3)
2001787c:	fd442783          	lw	a5,-44(s0)
20017880:	0785                	addi	a5,a5,1
20017882:	fcf42a23          	sw	a5,-44(s0)
/home/nicoladgg/wsFreedomStudio/sifive_hifive1_revb_hello/freedom-metal/src/drivers/sifive_uart0.c:178 (discriminator 1)
20017886:	fd442783          	lw	a5,-44(s0)
2001788a:	fd842703          	lw	a4,-40(s0)
2001788e:	fee7c6e3          	blt	a5,a4,2001787a <pre_rate_change_callback_func+0xb6>
/home/nicoladgg/wsFreedomStudio/sifive_hifive1_revb_hello/freedom-metal/src/drivers/sifive_uart0.c:180
20017892:	0001                	nop
20017894:	0001                	nop
20017896:	50f2                	lw	ra,60(sp)
20017898:	5462                	lw	s0,56(sp)
2001789a:	6121                	addi	sp,sp,64
2001789c:	8082                	ret

2001789e <post_rate_change_callback_func>:
post_rate_change_callback_func():
/home/nicoladgg/wsFreedomStudio/sifive_hifive1_revb_hello/freedom-metal/src/drivers/sifive_uart0.c:182
2001789e:	7179                	addi	sp,sp,-48
200178a0:	d606                	sw	ra,44(sp)
200178a2:	d422                	sw	s0,40(sp)
200178a4:	1800                	addi	s0,sp,48
200178a6:	fca42e23          	sw	a0,-36(s0)
/home/nicoladgg/wsFreedomStudio/sifive_hifive1_revb_hello/freedom-metal/src/drivers/sifive_uart0.c:183
200178aa:	fdc42783          	lw	a5,-36(s0)
200178ae:	fef42623          	sw	a5,-20(s0)
/home/nicoladgg/wsFreedomStudio/sifive_hifive1_revb_hello/freedom-metal/src/drivers/sifive_uart0.c:184
200178b2:	fec42703          	lw	a4,-20(s0)
200178b6:	fec42783          	lw	a5,-20(s0)
200178ba:	43dc                	lw	a5,4(a5)
200178bc:	85be                	mv	a1,a5
200178be:	853a                	mv	a0,a4
200178c0:	2161                	jal	20017d48 <metal_uart_set_baud_rate>
/home/nicoladgg/wsFreedomStudio/sifive_hifive1_revb_hello/freedom-metal/src/drivers/sifive_uart0.c:185
200178c2:	0001                	nop
200178c4:	50b2                	lw	ra,44(sp)
200178c6:	5422                	lw	s0,40(sp)
200178c8:	6145                	addi	sp,sp,48
200178ca:	8082                	ret

200178cc <__metal_driver_sifive_uart0_init>:
__metal_driver_sifive_uart0_init():
/home/nicoladgg/wsFreedomStudio/sifive_hifive1_revb_hello/freedom-metal/src/drivers/sifive_uart0.c:187
200178cc:	7139                	addi	sp,sp,-64
200178ce:	de06                	sw	ra,60(sp)
200178d0:	dc22                	sw	s0,56(sp)
200178d2:	0080                	addi	s0,sp,64
200178d4:	fca42623          	sw	a0,-52(s0)
200178d8:	fcb42423          	sw	a1,-56(s0)
/home/nicoladgg/wsFreedomStudio/sifive_hifive1_revb_hello/freedom-metal/src/drivers/sifive_uart0.c:188
200178dc:	fcc42783          	lw	a5,-52(s0)
200178e0:	fef42623          	sw	a5,-20(s0)
/home/nicoladgg/wsFreedomStudio/sifive_hifive1_revb_hello/freedom-metal/src/drivers/sifive_uart0.c:189
200178e4:	fcc42503          	lw	a0,-52(s0)
200178e8:	a39ff0ef          	jal	ra,20017320 <__metal_driver_sifive_uart0_clock>
200178ec:	fea42423          	sw	a0,-24(s0)
/home/nicoladgg/wsFreedomStudio/sifive_hifive1_revb_hello/freedom-metal/src/drivers/sifive_uart0.c:191
200178f0:	fcc42503          	lw	a0,-52(s0)
200178f4:	a75ff0ef          	jal	ra,20017368 <__metal_driver_sifive_uart0_pinmux>
200178f8:	fea42223          	sw	a0,-28(s0)
/home/nicoladgg/wsFreedomStudio/sifive_hifive1_revb_hello/freedom-metal/src/drivers/sifive_uart0.c:193
200178fc:	fe842783          	lw	a5,-24(s0)
20017900:	c7b9                	beqz	a5,2001794e <__metal_driver_sifive_uart0_init+0x82>
/home/nicoladgg/wsFreedomStudio/sifive_hifive1_revb_hello/freedom-metal/src/drivers/sifive_uart0.c:194
20017902:	fec42783          	lw	a5,-20(s0)
20017906:	20017737          	lui	a4,0x20017
2001790a:	7c470713          	addi	a4,a4,1988 # 200177c4 <pre_rate_change_callback_func>
2001790e:	c798                	sw	a4,8(a5)
/home/nicoladgg/wsFreedomStudio/sifive_hifive1_revb_hello/freedom-metal/src/drivers/sifive_uart0.c:196
20017910:	fec42783          	lw	a5,-20(s0)
20017914:	fcc42703          	lw	a4,-52(s0)
20017918:	c7d8                	sw	a4,12(a5)
/home/nicoladgg/wsFreedomStudio/sifive_hifive1_revb_hello/freedom-metal/src/drivers/sifive_uart0.c:197
2001791a:	fec42783          	lw	a5,-20(s0)
2001791e:	07a1                	addi	a5,a5,8
20017920:	85be                	mv	a1,a5
20017922:	fe842503          	lw	a0,-24(s0)
20017926:	2abd                	jal	20017aa4 <metal_clock_register_pre_rate_change_callback>
/home/nicoladgg/wsFreedomStudio/sifive_hifive1_revb_hello/freedom-metal/src/drivers/sifive_uart0.c:200
20017928:	fec42783          	lw	a5,-20(s0)
2001792c:	20018737          	lui	a4,0x20018
20017930:	89e70713          	addi	a4,a4,-1890 # 2001789e <post_rate_change_callback_func>
20017934:	cbd8                	sw	a4,20(a5)
/home/nicoladgg/wsFreedomStudio/sifive_hifive1_revb_hello/freedom-metal/src/drivers/sifive_uart0.c:202
20017936:	fec42783          	lw	a5,-20(s0)
2001793a:	fcc42703          	lw	a4,-52(s0)
2001793e:	cf98                	sw	a4,24(a5)
/home/nicoladgg/wsFreedomStudio/sifive_hifive1_revb_hello/freedom-metal/src/drivers/sifive_uart0.c:203
20017940:	fec42783          	lw	a5,-20(s0)
20017944:	07d1                	addi	a5,a5,20
20017946:	85be                	mv	a1,a5
20017948:	fe842503          	lw	a0,-24(s0)
2001794c:	2269                	jal	20017ad6 <metal_clock_register_post_rate_change_callback>
/home/nicoladgg/wsFreedomStudio/sifive_hifive1_revb_hello/freedom-metal/src/drivers/sifive_uart0.c:207
2001794e:	fec42783          	lw	a5,-20(s0)
20017952:	fc842583          	lw	a1,-56(s0)
20017956:	853e                	mv	a0,a5
20017958:	2ec5                	jal	20017d48 <metal_uart_set_baud_rate>
/home/nicoladgg/wsFreedomStudio/sifive_hifive1_revb_hello/freedom-metal/src/drivers/sifive_uart0.c:209
2001795a:	fe442783          	lw	a5,-28(s0)
2001795e:	cb95                	beqz	a5,20017992 <__metal_driver_sifive_uart0_init+0xc6>
/home/nicoladgg/wsFreedomStudio/sifive_hifive1_revb_hello/freedom-metal/src/drivers/sifive_uart0.c:211
20017960:	fcc42503          	lw	a0,-52(s0)
20017964:	a45ff0ef          	jal	ra,200173a8 <__metal_driver_sifive_uart0_pinmux_output_selector>
20017968:	87aa                	mv	a5,a0
/home/nicoladgg/wsFreedomStudio/sifive_hifive1_revb_hello/freedom-metal/src/drivers/sifive_uart0.c:210
2001796a:	fef42023          	sw	a5,-32(s0)
/home/nicoladgg/wsFreedomStudio/sifive_hifive1_revb_hello/freedom-metal/src/drivers/sifive_uart0.c:213
2001796e:	fcc42503          	lw	a0,-52(s0)
20017972:	a73ff0ef          	jal	ra,200173e4 <__metal_driver_sifive_uart0_pinmux_source_selector>
20017976:	87aa                	mv	a5,a0
/home/nicoladgg/wsFreedomStudio/sifive_hifive1_revb_hello/freedom-metal/src/drivers/sifive_uart0.c:212
20017978:	fcf42e23          	sw	a5,-36(s0)
/home/nicoladgg/wsFreedomStudio/sifive_hifive1_revb_hello/freedom-metal/src/drivers/sifive_uart0.c:214
2001797c:	fe442783          	lw	a5,-28(s0)
20017980:	439c                	lw	a5,0(a5)
20017982:	53dc                	lw	a5,36(a5)
20017984:	fdc42603          	lw	a2,-36(s0)
20017988:	fe042583          	lw	a1,-32(s0)
2001798c:	fe442503          	lw	a0,-28(s0)
20017990:	9782                	jalr	a5
/home/nicoladgg/wsFreedomStudio/sifive_hifive1_revb_hello/freedom-metal/src/drivers/sifive_uart0.c:218
20017992:	0001                	nop
20017994:	50f2                	lw	ra,60(sp)
20017996:	5462                	lw	s0,56(sp)
20017998:	6121                	addi	sp,sp,64
2001799a:	8082                	ret

2001799c <_metal_clock_call_all_callbacks>:
_metal_clock_call_all_callbacks():
/home/nicoladgg/wsFreedomStudio/sifive_hifive1_revb_hello/freedom-metal/metal/clock.h:50
2001799c:	7179                	addi	sp,sp,-48
2001799e:	d606                	sw	ra,44(sp)
200179a0:	d422                	sw	s0,40(sp)
200179a2:	1800                	addi	s0,sp,48
200179a4:	fca42e23          	sw	a0,-36(s0)
/home/nicoladgg/wsFreedomStudio/sifive_hifive1_revb_hello/freedom-metal/metal/clock.h:51
200179a8:	fdc42783          	lw	a5,-36(s0)
200179ac:	fef42623          	sw	a5,-20(s0)
/home/nicoladgg/wsFreedomStudio/sifive_hifive1_revb_hello/freedom-metal/metal/clock.h:52
200179b0:	a831                	j	200179cc <_metal_clock_call_all_callbacks+0x30>
/home/nicoladgg/wsFreedomStudio/sifive_hifive1_revb_hello/freedom-metal/metal/clock.h:53
200179b2:	fec42783          	lw	a5,-20(s0)
200179b6:	4398                	lw	a4,0(a5)
200179b8:	fec42783          	lw	a5,-20(s0)
200179bc:	43dc                	lw	a5,4(a5)
200179be:	853e                	mv	a0,a5
200179c0:	9702                	jalr	a4
/home/nicoladgg/wsFreedomStudio/sifive_hifive1_revb_hello/freedom-metal/metal/clock.h:54
200179c2:	fec42783          	lw	a5,-20(s0)
200179c6:	479c                	lw	a5,8(a5)
200179c8:	fef42623          	sw	a5,-20(s0)
/home/nicoladgg/wsFreedomStudio/sifive_hifive1_revb_hello/freedom-metal/metal/clock.h:52
200179cc:	fec42783          	lw	a5,-20(s0)
200179d0:	f3ed                	bnez	a5,200179b2 <_metal_clock_call_all_callbacks+0x16>
/home/nicoladgg/wsFreedomStudio/sifive_hifive1_revb_hello/freedom-metal/metal/clock.h:56
200179d2:	0001                	nop
200179d4:	0001                	nop
200179d6:	50b2                	lw	ra,44(sp)
200179d8:	5422                	lw	s0,40(sp)
200179da:	6145                	addi	sp,sp,48
200179dc:	8082                	ret

200179de <_metal_clock_append_to_callbacks>:
_metal_clock_append_to_callbacks():
/home/nicoladgg/wsFreedomStudio/sifive_hifive1_revb_hello/freedom-metal/metal/clock.h:63
200179de:	7179                	addi	sp,sp,-48
200179e0:	d622                	sw	s0,44(sp)
200179e2:	1800                	addi	s0,sp,48
200179e4:	fca42e23          	sw	a0,-36(s0)
200179e8:	fcb42c23          	sw	a1,-40(s0)
/home/nicoladgg/wsFreedomStudio/sifive_hifive1_revb_hello/freedom-metal/metal/clock.h:64
200179ec:	fd842783          	lw	a5,-40(s0)
200179f0:	0007a423          	sw	zero,8(a5) # 10008 <__heap_size+0xf808>
/home/nicoladgg/wsFreedomStudio/sifive_hifive1_revb_hello/freedom-metal/metal/clock.h:66
200179f4:	fdc42783          	lw	a5,-36(s0)
200179f8:	e781                	bnez	a5,20017a00 <_metal_clock_append_to_callbacks+0x22>
/home/nicoladgg/wsFreedomStudio/sifive_hifive1_revb_hello/freedom-metal/metal/clock.h:67
200179fa:	fd842783          	lw	a5,-40(s0)
200179fe:	a035                	j	20017a2a <_metal_clock_append_to_callbacks+0x4c>
/home/nicoladgg/wsFreedomStudio/sifive_hifive1_revb_hello/freedom-metal/metal/clock.h:70
20017a00:	fdc42783          	lw	a5,-36(s0)
20017a04:	fef42623          	sw	a5,-20(s0)
/home/nicoladgg/wsFreedomStudio/sifive_hifive1_revb_hello/freedom-metal/metal/clock.h:72
20017a08:	a031                	j	20017a14 <_metal_clock_append_to_callbacks+0x36>
/home/nicoladgg/wsFreedomStudio/sifive_hifive1_revb_hello/freedom-metal/metal/clock.h:73
20017a0a:	fec42783          	lw	a5,-20(s0)
20017a0e:	479c                	lw	a5,8(a5)
20017a10:	fef42623          	sw	a5,-20(s0)
/home/nicoladgg/wsFreedomStudio/sifive_hifive1_revb_hello/freedom-metal/metal/clock.h:72
20017a14:	fec42783          	lw	a5,-20(s0)
20017a18:	479c                	lw	a5,8(a5)
20017a1a:	fbe5                	bnez	a5,20017a0a <_metal_clock_append_to_callbacks+0x2c>
/home/nicoladgg/wsFreedomStudio/sifive_hifive1_revb_hello/freedom-metal/metal/clock.h:76
20017a1c:	fec42783          	lw	a5,-20(s0)
20017a20:	fd842703          	lw	a4,-40(s0)
20017a24:	c798                	sw	a4,8(a5)
/home/nicoladgg/wsFreedomStudio/sifive_hifive1_revb_hello/freedom-metal/metal/clock.h:78
20017a26:	fdc42783          	lw	a5,-36(s0)
/home/nicoladgg/wsFreedomStudio/sifive_hifive1_revb_hello/freedom-metal/metal/clock.h:79
20017a2a:	853e                	mv	a0,a5
20017a2c:	5432                	lw	s0,44(sp)
20017a2e:	6145                	addi	sp,sp,48
20017a30:	8082                	ret

20017a32 <metal_clock_get_rate_hz>:
metal_clock_get_rate_hz():
/home/nicoladgg/wsFreedomStudio/sifive_hifive1_revb_hello/freedom-metal/metal/clock.h:110
20017a32:	1101                	addi	sp,sp,-32
20017a34:	ce06                	sw	ra,28(sp)
20017a36:	cc22                	sw	s0,24(sp)
20017a38:	1000                	addi	s0,sp,32
20017a3a:	fea42623          	sw	a0,-20(s0)
/home/nicoladgg/wsFreedomStudio/sifive_hifive1_revb_hello/freedom-metal/metal/clock.h:111
20017a3e:	fec42783          	lw	a5,-20(s0)
20017a42:	439c                	lw	a5,0(a5)
20017a44:	439c                	lw	a5,0(a5)
20017a46:	fec42503          	lw	a0,-20(s0)
20017a4a:	9782                	jalr	a5
20017a4c:	87aa                	mv	a5,a0
/home/nicoladgg/wsFreedomStudio/sifive_hifive1_revb_hello/freedom-metal/metal/clock.h:112
20017a4e:	853e                	mv	a0,a5
20017a50:	40f2                	lw	ra,28(sp)
20017a52:	4462                	lw	s0,24(sp)
20017a54:	6105                	addi	sp,sp,32
20017a56:	8082                	ret

20017a58 <metal_clock_set_rate_hz>:
metal_clock_set_rate_hz():
/home/nicoladgg/wsFreedomStudio/sifive_hifive1_revb_hello/freedom-metal/metal/clock.h:128
20017a58:	7179                	addi	sp,sp,-48
20017a5a:	d606                	sw	ra,44(sp)
20017a5c:	d422                	sw	s0,40(sp)
20017a5e:	1800                	addi	s0,sp,48
20017a60:	fca42e23          	sw	a0,-36(s0)
20017a64:	fcb42c23          	sw	a1,-40(s0)
/home/nicoladgg/wsFreedomStudio/sifive_hifive1_revb_hello/freedom-metal/metal/clock.h:129
20017a68:	fdc42783          	lw	a5,-36(s0)
20017a6c:	43dc                	lw	a5,4(a5)
20017a6e:	853e                	mv	a0,a5
20017a70:	f2dff0ef          	jal	ra,2001799c <_metal_clock_call_all_callbacks>
/home/nicoladgg/wsFreedomStudio/sifive_hifive1_revb_hello/freedom-metal/metal/clock.h:131
20017a74:	fdc42783          	lw	a5,-36(s0)
20017a78:	439c                	lw	a5,0(a5)
20017a7a:	43dc                	lw	a5,4(a5)
20017a7c:	fd842583          	lw	a1,-40(s0)
20017a80:	fdc42503          	lw	a0,-36(s0)
20017a84:	9782                	jalr	a5
20017a86:	fea42623          	sw	a0,-20(s0)
/home/nicoladgg/wsFreedomStudio/sifive_hifive1_revb_hello/freedom-metal/metal/clock.h:133
20017a8a:	fdc42783          	lw	a5,-36(s0)
20017a8e:	479c                	lw	a5,8(a5)
20017a90:	853e                	mv	a0,a5
20017a92:	f0bff0ef          	jal	ra,2001799c <_metal_clock_call_all_callbacks>
/home/nicoladgg/wsFreedomStudio/sifive_hifive1_revb_hello/freedom-metal/metal/clock.h:135
20017a96:	fec42783          	lw	a5,-20(s0)
/home/nicoladgg/wsFreedomStudio/sifive_hifive1_revb_hello/freedom-metal/metal/clock.h:136
20017a9a:	853e                	mv	a0,a5
20017a9c:	50b2                	lw	ra,44(sp)
20017a9e:	5422                	lw	s0,40(sp)
20017aa0:	6145                	addi	sp,sp,48
20017aa2:	8082                	ret

20017aa4 <metal_clock_register_pre_rate_change_callback>:
metal_clock_register_pre_rate_change_callback():
/home/nicoladgg/wsFreedomStudio/sifive_hifive1_revb_hello/freedom-metal/metal/clock.h:146
20017aa4:	1101                	addi	sp,sp,-32
20017aa6:	ce06                	sw	ra,28(sp)
20017aa8:	cc22                	sw	s0,24(sp)
20017aaa:	1000                	addi	s0,sp,32
20017aac:	fea42623          	sw	a0,-20(s0)
20017ab0:	feb42423          	sw	a1,-24(s0)
/home/nicoladgg/wsFreedomStudio/sifive_hifive1_revb_hello/freedom-metal/metal/clock.h:148
20017ab4:	fec42783          	lw	a5,-20(s0)
20017ab8:	43dc                	lw	a5,4(a5)
20017aba:	fe842583          	lw	a1,-24(s0)
20017abe:	853e                	mv	a0,a5
20017ac0:	f1fff0ef          	jal	ra,200179de <_metal_clock_append_to_callbacks>
20017ac4:	872a                	mv	a4,a0
/home/nicoladgg/wsFreedomStudio/sifive_hifive1_revb_hello/freedom-metal/metal/clock.h:147
20017ac6:	fec42783          	lw	a5,-20(s0)
20017aca:	c3d8                	sw	a4,4(a5)
/home/nicoladgg/wsFreedomStudio/sifive_hifive1_revb_hello/freedom-metal/metal/clock.h:149
20017acc:	0001                	nop
20017ace:	40f2                	lw	ra,28(sp)
20017ad0:	4462                	lw	s0,24(sp)
20017ad2:	6105                	addi	sp,sp,32
20017ad4:	8082                	ret

20017ad6 <metal_clock_register_post_rate_change_callback>:
metal_clock_register_post_rate_change_callback():
/home/nicoladgg/wsFreedomStudio/sifive_hifive1_revb_hello/freedom-metal/metal/clock.h:159
20017ad6:	1101                	addi	sp,sp,-32
20017ad8:	ce06                	sw	ra,28(sp)
20017ada:	cc22                	sw	s0,24(sp)
20017adc:	1000                	addi	s0,sp,32
20017ade:	fea42623          	sw	a0,-20(s0)
20017ae2:	feb42423          	sw	a1,-24(s0)
/home/nicoladgg/wsFreedomStudio/sifive_hifive1_revb_hello/freedom-metal/metal/clock.h:161
20017ae6:	fec42783          	lw	a5,-20(s0)
20017aea:	479c                	lw	a5,8(a5)
20017aec:	fe842583          	lw	a1,-24(s0)
20017af0:	853e                	mv	a0,a5
20017af2:	eedff0ef          	jal	ra,200179de <_metal_clock_append_to_callbacks>
20017af6:	872a                	mv	a4,a0
/home/nicoladgg/wsFreedomStudio/sifive_hifive1_revb_hello/freedom-metal/metal/clock.h:160
20017af8:	fec42783          	lw	a5,-20(s0)
20017afc:	c798                	sw	a4,8(a5)
/home/nicoladgg/wsFreedomStudio/sifive_hifive1_revb_hello/freedom-metal/metal/clock.h:162
20017afe:	0001                	nop
20017b00:	40f2                	lw	ra,28(sp)
20017b02:	4462                	lw	s0,24(sp)
20017b04:	6105                	addi	sp,sp,32
20017b06:	8082                	ret

20017b08 <metal_cpu_get_mtime>:
metal_cpu_get_mtime():
/home/nicoladgg/wsFreedomStudio/sifive_hifive1_revb_hello/freedom-metal/metal/cpu.h:97
20017b08:	1101                	addi	sp,sp,-32
20017b0a:	ce06                	sw	ra,28(sp)
20017b0c:	cc22                	sw	s0,24(sp)
20017b0e:	1000                	addi	s0,sp,32
20017b10:	fea42623          	sw	a0,-20(s0)
/home/nicoladgg/wsFreedomStudio/sifive_hifive1_revb_hello/freedom-metal/metal/cpu.h:98
20017b14:	fec42783          	lw	a5,-20(s0)
20017b18:	439c                	lw	a5,0(a5)
20017b1a:	479c                	lw	a5,8(a5)
20017b1c:	fec42503          	lw	a0,-20(s0)
20017b20:	9782                	jalr	a5
20017b22:	872a                	mv	a4,a0
20017b24:	87ae                	mv	a5,a1
/home/nicoladgg/wsFreedomStudio/sifive_hifive1_revb_hello/freedom-metal/metal/cpu.h:99
20017b26:	853a                	mv	a0,a4
20017b28:	85be                	mv	a1,a5
20017b2a:	40f2                	lw	ra,28(sp)
20017b2c:	4462                	lw	s0,24(sp)
20017b2e:	6105                	addi	sp,sp,32
20017b30:	8082                	ret

20017b32 <metal_cpu_set_mtimecmp>:
metal_cpu_set_mtimecmp():
/home/nicoladgg/wsFreedomStudio/sifive_hifive1_revb_hello/freedom-metal/metal/cpu.h:112
20017b32:	1101                	addi	sp,sp,-32
20017b34:	ce06                	sw	ra,28(sp)
20017b36:	cc22                	sw	s0,24(sp)
20017b38:	1000                	addi	s0,sp,32
20017b3a:	fea42623          	sw	a0,-20(s0)
20017b3e:	feb42023          	sw	a1,-32(s0)
20017b42:	fec42223          	sw	a2,-28(s0)
/home/nicoladgg/wsFreedomStudio/sifive_hifive1_revb_hello/freedom-metal/metal/cpu.h:113
20017b46:	fec42783          	lw	a5,-20(s0)
20017b4a:	439c                	lw	a5,0(a5)
20017b4c:	47dc                	lw	a5,12(a5)
20017b4e:	fe042583          	lw	a1,-32(s0)
20017b52:	fe442603          	lw	a2,-28(s0)
20017b56:	fec42503          	lw	a0,-20(s0)
20017b5a:	9782                	jalr	a5
20017b5c:	87aa                	mv	a5,a0
/home/nicoladgg/wsFreedomStudio/sifive_hifive1_revb_hello/freedom-metal/metal/cpu.h:114
20017b5e:	853e                	mv	a0,a5
20017b60:	40f2                	lw	ra,28(sp)
20017b62:	4462                	lw	s0,24(sp)
20017b64:	6105                	addi	sp,sp,32
20017b66:	8082                	ret

20017b68 <metal_cpu_timer_interrupt_controller>:
metal_cpu_timer_interrupt_controller():
/home/nicoladgg/wsFreedomStudio/sifive_hifive1_revb_hello/freedom-metal/metal/cpu.h:126
20017b68:	1101                	addi	sp,sp,-32
20017b6a:	ce06                	sw	ra,28(sp)
20017b6c:	cc22                	sw	s0,24(sp)
20017b6e:	1000                	addi	s0,sp,32
20017b70:	fea42623          	sw	a0,-20(s0)
/home/nicoladgg/wsFreedomStudio/sifive_hifive1_revb_hello/freedom-metal/metal/cpu.h:127
20017b74:	fec42783          	lw	a5,-20(s0)
20017b78:	439c                	lw	a5,0(a5)
20017b7a:	4b9c                	lw	a5,16(a5)
20017b7c:	fec42503          	lw	a0,-20(s0)
20017b80:	9782                	jalr	a5
20017b82:	87aa                	mv	a5,a0
/home/nicoladgg/wsFreedomStudio/sifive_hifive1_revb_hello/freedom-metal/metal/cpu.h:128
20017b84:	853e                	mv	a0,a5
20017b86:	40f2                	lw	ra,28(sp)
20017b88:	4462                	lw	s0,24(sp)
20017b8a:	6105                	addi	sp,sp,32
20017b8c:	8082                	ret

20017b8e <metal_cpu_timer_get_interrupt_id>:
metal_cpu_timer_get_interrupt_id():
/home/nicoladgg/wsFreedomStudio/sifive_hifive1_revb_hello/freedom-metal/metal/cpu.h:137
20017b8e:	1101                	addi	sp,sp,-32
20017b90:	ce06                	sw	ra,28(sp)
20017b92:	cc22                	sw	s0,24(sp)
20017b94:	1000                	addi	s0,sp,32
20017b96:	fea42623          	sw	a0,-20(s0)
/home/nicoladgg/wsFreedomStudio/sifive_hifive1_revb_hello/freedom-metal/metal/cpu.h:138
20017b9a:	fec42783          	lw	a5,-20(s0)
20017b9e:	439c                	lw	a5,0(a5)
20017ba0:	4bdc                	lw	a5,20(a5)
20017ba2:	fec42503          	lw	a0,-20(s0)
20017ba6:	9782                	jalr	a5
20017ba8:	87aa                	mv	a5,a0
/home/nicoladgg/wsFreedomStudio/sifive_hifive1_revb_hello/freedom-metal/metal/cpu.h:139
20017baa:	853e                	mv	a0,a5
20017bac:	40f2                	lw	ra,28(sp)
20017bae:	4462                	lw	s0,24(sp)
20017bb0:	6105                	addi	sp,sp,32
20017bb2:	8082                	ret

20017bb4 <metal_cpu_interrupt_controller>:
metal_cpu_interrupt_controller():
/home/nicoladgg/wsFreedomStudio/sifive_hifive1_revb_hello/freedom-metal/metal/cpu.h:224
20017bb4:	1101                	addi	sp,sp,-32
20017bb6:	ce06                	sw	ra,28(sp)
20017bb8:	cc22                	sw	s0,24(sp)
20017bba:	1000                	addi	s0,sp,32
20017bbc:	fea42623          	sw	a0,-20(s0)
/home/nicoladgg/wsFreedomStudio/sifive_hifive1_revb_hello/freedom-metal/metal/cpu.h:225
20017bc0:	fec42783          	lw	a5,-20(s0)
20017bc4:	439c                	lw	a5,0(a5)
20017bc6:	57dc                	lw	a5,44(a5)
20017bc8:	fec42503          	lw	a0,-20(s0)
20017bcc:	9782                	jalr	a5
20017bce:	87aa                	mv	a5,a0
/home/nicoladgg/wsFreedomStudio/sifive_hifive1_revb_hello/freedom-metal/metal/cpu.h:226
20017bd0:	853e                	mv	a0,a5
20017bd2:	40f2                	lw	ra,28(sp)
20017bd4:	4462                	lw	s0,24(sp)
20017bd6:	6105                	addi	sp,sp,32
20017bd8:	8082                	ret

20017bda <metal_cpu_get>:
metal_cpu_get():
/home/nicoladgg/wsFreedomStudio/sifive_hifive1_revb_hello/freedom-metal/src/cpu.c:7
20017bda:	1101                	addi	sp,sp,-32
20017bdc:	ce22                	sw	s0,28(sp)
20017bde:	1000                	addi	s0,sp,32
20017be0:	fea42623          	sw	a0,-20(s0)
/home/nicoladgg/wsFreedomStudio/sifive_hifive1_revb_hello/freedom-metal/src/cpu.c:8
20017be4:	fec42783          	lw	a5,-20(s0)
20017be8:	eb99                	bnez	a5,20017bfe <metal_cpu_get+0x24>
/home/nicoladgg/wsFreedomStudio/sifive_hifive1_revb_hello/freedom-metal/src/cpu.c:9
20017bea:	800017b7          	lui	a5,0x80001
20017bee:	fec42703          	lw	a4,-20(s0)
20017bf2:	070a                	slli	a4,a4,0x2
20017bf4:	aa078793          	addi	a5,a5,-1376 # 80000aa0 <metal_segment_heap_target_end+0xfffff320>
20017bf8:	97ba                	add	a5,a5,a4
20017bfa:	439c                	lw	a5,0(a5)
20017bfc:	a011                	j	20017c00 <metal_cpu_get+0x26>
/home/nicoladgg/wsFreedomStudio/sifive_hifive1_revb_hello/freedom-metal/src/cpu.c:11
20017bfe:	4781                	li	a5,0
/home/nicoladgg/wsFreedomStudio/sifive_hifive1_revb_hello/freedom-metal/src/cpu.c:12
20017c00:	853e                	mv	a0,a5
20017c02:	4472                	lw	s0,28(sp)
20017c04:	6105                	addi	sp,sp,32
20017c06:	8082                	ret

20017c08 <metal_cpu_get_current_hartid>:
metal_cpu_get_current_hartid():
/home/nicoladgg/wsFreedomStudio/sifive_hifive1_revb_hello/freedom-metal/src/cpu.c:14
20017c08:	1101                	addi	sp,sp,-32
20017c0a:	ce22                	sw	s0,28(sp)
20017c0c:	1000                	addi	s0,sp,32
/home/nicoladgg/wsFreedomStudio/sifive_hifive1_revb_hello/freedom-metal/src/cpu.c:17
20017c0e:	f14027f3          	csrr	a5,mhartid
20017c12:	fef42623          	sw	a5,-20(s0)
/home/nicoladgg/wsFreedomStudio/sifive_hifive1_revb_hello/freedom-metal/src/cpu.c:18
20017c16:	fec42783          	lw	a5,-20(s0)
/home/nicoladgg/wsFreedomStudio/sifive_hifive1_revb_hello/freedom-metal/src/cpu.c:20
20017c1a:	853e                	mv	a0,a5
20017c1c:	4472                	lw	s0,28(sp)
20017c1e:	6105                	addi	sp,sp,32
20017c20:	8082                	ret

20017c22 <metal_interrupt_init>:
metal_interrupt_init():
/home/nicoladgg/wsFreedomStudio/sifive_hifive1_revb_hello/freedom-metal/metal/interrupt.h:130
20017c22:	1101                	addi	sp,sp,-32
20017c24:	ce06                	sw	ra,28(sp)
20017c26:	cc22                	sw	s0,24(sp)
20017c28:	1000                	addi	s0,sp,32
20017c2a:	fea42623          	sw	a0,-20(s0)
/home/nicoladgg/wsFreedomStudio/sifive_hifive1_revb_hello/freedom-metal/metal/interrupt.h:131
20017c2e:	fec42783          	lw	a5,-20(s0)
20017c32:	439c                	lw	a5,0(a5)
20017c34:	439c                	lw	a5,0(a5)
20017c36:	fec42503          	lw	a0,-20(s0)
20017c3a:	9782                	jalr	a5
/home/nicoladgg/wsFreedomStudio/sifive_hifive1_revb_hello/freedom-metal/metal/interrupt.h:132
20017c3c:	0001                	nop
20017c3e:	40f2                	lw	ra,28(sp)
20017c40:	4462                	lw	s0,24(sp)
20017c42:	6105                	addi	sp,sp,32
20017c44:	8082                	ret

20017c46 <metal_interrupt_register_handler>:
metal_interrupt_register_handler():
/home/nicoladgg/wsFreedomStudio/sifive_hifive1_revb_hello/freedom-metal/metal/interrupt.h:240
20017c46:	1101                	addi	sp,sp,-32
20017c48:	ce06                	sw	ra,28(sp)
20017c4a:	cc22                	sw	s0,24(sp)
20017c4c:	1000                	addi	s0,sp,32
20017c4e:	fea42623          	sw	a0,-20(s0)
20017c52:	feb42423          	sw	a1,-24(s0)
20017c56:	fec42223          	sw	a2,-28(s0)
20017c5a:	fed42023          	sw	a3,-32(s0)
/home/nicoladgg/wsFreedomStudio/sifive_hifive1_revb_hello/freedom-metal/metal/interrupt.h:241
20017c5e:	fec42783          	lw	a5,-20(s0)
20017c62:	439c                	lw	a5,0(a5)
20017c64:	4fdc                	lw	a5,28(a5)
20017c66:	fe042683          	lw	a3,-32(s0)
20017c6a:	fe442603          	lw	a2,-28(s0)
20017c6e:	fe842583          	lw	a1,-24(s0)
20017c72:	fec42503          	lw	a0,-20(s0)
20017c76:	9782                	jalr	a5
20017c78:	87aa                	mv	a5,a0
/home/nicoladgg/wsFreedomStudio/sifive_hifive1_revb_hello/freedom-metal/metal/interrupt.h:243
20017c7a:	853e                	mv	a0,a5
20017c7c:	40f2                	lw	ra,28(sp)
20017c7e:	4462                	lw	s0,24(sp)
20017c80:	6105                	addi	sp,sp,32
20017c82:	8082                	ret

20017c84 <metal_interrupt_enable>:
metal_interrupt_enable():
/home/nicoladgg/wsFreedomStudio/sifive_hifive1_revb_hello/freedom-metal/metal/interrupt.h:267
20017c84:	1101                	addi	sp,sp,-32
20017c86:	ce06                	sw	ra,28(sp)
20017c88:	cc22                	sw	s0,24(sp)
20017c8a:	1000                	addi	s0,sp,32
20017c8c:	fea42623          	sw	a0,-20(s0)
20017c90:	feb42423          	sw	a1,-24(s0)
/home/nicoladgg/wsFreedomStudio/sifive_hifive1_revb_hello/freedom-metal/metal/interrupt.h:268
20017c94:	fec42783          	lw	a5,-20(s0)
20017c98:	439c                	lw	a5,0(a5)
20017c9a:	53dc                	lw	a5,36(a5)
20017c9c:	fe842583          	lw	a1,-24(s0)
20017ca0:	fec42503          	lw	a0,-20(s0)
20017ca4:	9782                	jalr	a5
20017ca6:	87aa                	mv	a5,a0
/home/nicoladgg/wsFreedomStudio/sifive_hifive1_revb_hello/freedom-metal/metal/interrupt.h:269
20017ca8:	853e                	mv	a0,a5
20017caa:	40f2                	lw	ra,28(sp)
20017cac:	4462                	lw	s0,24(sp)
20017cae:	6105                	addi	sp,sp,32
20017cb0:	8082                	ret

20017cb2 <metal_interrupt_disable>:
metal_interrupt_disable():
/home/nicoladgg/wsFreedomStudio/sifive_hifive1_revb_hello/freedom-metal/metal/interrupt.h:278
20017cb2:	1101                	addi	sp,sp,-32
20017cb4:	ce06                	sw	ra,28(sp)
20017cb6:	cc22                	sw	s0,24(sp)
20017cb8:	1000                	addi	s0,sp,32
20017cba:	fea42623          	sw	a0,-20(s0)
20017cbe:	feb42423          	sw	a1,-24(s0)
/home/nicoladgg/wsFreedomStudio/sifive_hifive1_revb_hello/freedom-metal/metal/interrupt.h:279
20017cc2:	fec42783          	lw	a5,-20(s0)
20017cc6:	439c                	lw	a5,0(a5)
20017cc8:	579c                	lw	a5,40(a5)
20017cca:	fe842583          	lw	a1,-24(s0)
20017cce:	fec42503          	lw	a0,-20(s0)
20017cd2:	9782                	jalr	a5
20017cd4:	87aa                	mv	a5,a0
/home/nicoladgg/wsFreedomStudio/sifive_hifive1_revb_hello/freedom-metal/metal/interrupt.h:280
20017cd6:	853e                	mv	a0,a5
20017cd8:	40f2                	lw	ra,28(sp)
20017cda:	4462                	lw	s0,24(sp)
20017cdc:	6105                	addi	sp,sp,32
20017cde:	8082                	ret

20017ce0 <metal_shutdown>:
metal_shutdown():
/home/nicoladgg/wsFreedomStudio/sifive_hifive1_revb_hello/freedom-metal/src/shutdown.c:17
20017ce0:	1101                	addi	sp,sp,-32
20017ce2:	ce22                	sw	s0,28(sp)
20017ce4:	1000                	addi	s0,sp,32
20017ce6:	fea42623          	sw	a0,-20(s0)
/home/nicoladgg/wsFreedomStudio/sifive_hifive1_revb_hello/freedom-metal/src/shutdown.c:19 (discriminator 1)
20017cea:	0001                	nop
20017cec:	bffd                	j	20017cea <metal_shutdown+0xa>

20017cee <metal_uart_init>:
metal_uart_init():
/home/nicoladgg/wsFreedomStudio/sifive_hifive1_revb_hello/freedom-metal/metal/uart.h:59
20017cee:	1101                	addi	sp,sp,-32
20017cf0:	ce06                	sw	ra,28(sp)
20017cf2:	cc22                	sw	s0,24(sp)
20017cf4:	1000                	addi	s0,sp,32
20017cf6:	fea42623          	sw	a0,-20(s0)
20017cfa:	feb42423          	sw	a1,-24(s0)
/home/nicoladgg/wsFreedomStudio/sifive_hifive1_revb_hello/freedom-metal/metal/uart.h:60
20017cfe:	fec42783          	lw	a5,-20(s0)
20017d02:	439c                	lw	a5,0(a5)
20017d04:	439c                	lw	a5,0(a5)
20017d06:	fe842583          	lw	a1,-24(s0)
20017d0a:	fec42503          	lw	a0,-20(s0)
20017d0e:	9782                	jalr	a5
/home/nicoladgg/wsFreedomStudio/sifive_hifive1_revb_hello/freedom-metal/metal/uart.h:61
20017d10:	0001                	nop
20017d12:	40f2                	lw	ra,28(sp)
20017d14:	4462                	lw	s0,24(sp)
20017d16:	6105                	addi	sp,sp,32
20017d18:	8082                	ret

20017d1a <metal_uart_putc>:
metal_uart_putc():
/home/nicoladgg/wsFreedomStudio/sifive_hifive1_revb_hello/freedom-metal/metal/uart.h:69
20017d1a:	1101                	addi	sp,sp,-32
20017d1c:	ce06                	sw	ra,28(sp)
20017d1e:	cc22                	sw	s0,24(sp)
20017d20:	1000                	addi	s0,sp,32
20017d22:	fea42623          	sw	a0,-20(s0)
20017d26:	feb42423          	sw	a1,-24(s0)
/home/nicoladgg/wsFreedomStudio/sifive_hifive1_revb_hello/freedom-metal/metal/uart.h:70
20017d2a:	fec42783          	lw	a5,-20(s0)
20017d2e:	439c                	lw	a5,0(a5)
20017d30:	43dc                	lw	a5,4(a5)
20017d32:	fe842583          	lw	a1,-24(s0)
20017d36:	fec42503          	lw	a0,-20(s0)
20017d3a:	9782                	jalr	a5
20017d3c:	87aa                	mv	a5,a0
/home/nicoladgg/wsFreedomStudio/sifive_hifive1_revb_hello/freedom-metal/metal/uart.h:71
20017d3e:	853e                	mv	a0,a5
20017d40:	40f2                	lw	ra,28(sp)
20017d42:	4462                	lw	s0,24(sp)
20017d44:	6105                	addi	sp,sp,32
20017d46:	8082                	ret

20017d48 <metal_uart_set_baud_rate>:
metal_uart_set_baud_rate():
/home/nicoladgg/wsFreedomStudio/sifive_hifive1_revb_hello/freedom-metal/metal/uart.h:111
20017d48:	1101                	addi	sp,sp,-32
20017d4a:	ce06                	sw	ra,28(sp)
20017d4c:	cc22                	sw	s0,24(sp)
20017d4e:	1000                	addi	s0,sp,32
20017d50:	fea42623          	sw	a0,-20(s0)
20017d54:	feb42423          	sw	a1,-24(s0)
/home/nicoladgg/wsFreedomStudio/sifive_hifive1_revb_hello/freedom-metal/metal/uart.h:112
20017d58:	fec42783          	lw	a5,-20(s0)
20017d5c:	439c                	lw	a5,0(a5)
20017d5e:	4bdc                	lw	a5,20(a5)
20017d60:	fe842583          	lw	a1,-24(s0)
20017d64:	fec42503          	lw	a0,-20(s0)
20017d68:	9782                	jalr	a5
20017d6a:	87aa                	mv	a5,a0
/home/nicoladgg/wsFreedomStudio/sifive_hifive1_revb_hello/freedom-metal/metal/uart.h:113
20017d6c:	853e                	mv	a0,a5
20017d6e:	40f2                	lw	ra,28(sp)
20017d70:	4462                	lw	s0,24(sp)
20017d72:	6105                	addi	sp,sp,32
20017d74:	8082                	ret
	...

20017d80 <__metal_vector_table>:
IRQ_0():
/home/nicoladgg/wsFreedomStudio/sifive_hifive1_revb_hello/freedom-metal/src/vector.S:96
20017d80:	860fc06f          	j	20013de0 <metal_interrupt_vector_handler>

20017d84 <IRQ_1>:
IRQ_1():
/home/nicoladgg/wsFreedomStudio/sifive_hifive1_revb_hello/freedom-metal/src/vector.S:98
20017d84:	85cfc06f          	j	20013de0 <metal_interrupt_vector_handler>

20017d88 <IRQ_2>:
IRQ_2():
/home/nicoladgg/wsFreedomStudio/sifive_hifive1_revb_hello/freedom-metal/src/vector.S:100
20017d88:	858fc06f          	j	20013de0 <metal_interrupt_vector_handler>

20017d8c <IRQ_3>:
IRQ_3():
/home/nicoladgg/wsFreedomStudio/sifive_hifive1_revb_hello/freedom-metal/src/vector.S:102
20017d8c:	882fc06f          	j	20013e0e <metal_software_interrupt_vector_handler>

20017d90 <IRQ_4>:
IRQ_4():
/home/nicoladgg/wsFreedomStudio/sifive_hifive1_revb_hello/freedom-metal/src/vector.S:104
20017d90:	850fc06f          	j	20013de0 <metal_interrupt_vector_handler>

20017d94 <IRQ_5>:
IRQ_5():
/home/nicoladgg/wsFreedomStudio/sifive_hifive1_revb_hello/freedom-metal/src/vector.S:106
20017d94:	84cfc06f          	j	20013de0 <metal_interrupt_vector_handler>

20017d98 <IRQ_6>:
IRQ_6():
/home/nicoladgg/wsFreedomStudio/sifive_hifive1_revb_hello/freedom-metal/src/vector.S:108
20017d98:	848fc06f          	j	20013de0 <metal_interrupt_vector_handler>

20017d9c <IRQ_7>:
IRQ_7():
/home/nicoladgg/wsFreedomStudio/sifive_hifive1_revb_hello/freedom-metal/src/vector.S:110
20017d9c:	96cfc06f          	j	20013f08 <metal_timer_interrupt_vector_handler>

20017da0 <IRQ_8>:
IRQ_8():
/home/nicoladgg/wsFreedomStudio/sifive_hifive1_revb_hello/freedom-metal/src/vector.S:112
20017da0:	840fc06f          	j	20013de0 <metal_interrupt_vector_handler>

20017da4 <IRQ_9>:
IRQ_9():
/home/nicoladgg/wsFreedomStudio/sifive_hifive1_revb_hello/freedom-metal/src/vector.S:114
20017da4:	83cfc06f          	j	20013de0 <metal_interrupt_vector_handler>

20017da8 <IRQ_10>:
IRQ_10():
/home/nicoladgg/wsFreedomStudio/sifive_hifive1_revb_hello/freedom-metal/src/vector.S:116
20017da8:	838fc06f          	j	20013de0 <metal_interrupt_vector_handler>

20017dac <IRQ_11>:
IRQ_11():
/home/nicoladgg/wsFreedomStudio/sifive_hifive1_revb_hello/freedom-metal/src/vector.S:118
20017dac:	834fc06f          	j	20013de0 <metal_interrupt_vector_handler>

20017db0 <IRQ_12>:
IRQ_12():
/home/nicoladgg/wsFreedomStudio/sifive_hifive1_revb_hello/freedom-metal/src/vector.S:120
20017db0:	830fc06f          	j	20013de0 <metal_interrupt_vector_handler>

20017db4 <IRQ_13>:
IRQ_13():
/home/nicoladgg/wsFreedomStudio/sifive_hifive1_revb_hello/freedom-metal/src/vector.S:122
20017db4:	82cfc06f          	j	20013de0 <metal_interrupt_vector_handler>

20017db8 <IRQ_14>:
IRQ_14():
/home/nicoladgg/wsFreedomStudio/sifive_hifive1_revb_hello/freedom-metal/src/vector.S:124
20017db8:	828fc06f          	j	20013de0 <metal_interrupt_vector_handler>

20017dbc <IRQ_15>:
IRQ_15():
/home/nicoladgg/wsFreedomStudio/sifive_hifive1_revb_hello/freedom-metal/src/vector.S:126
20017dbc:	824fc06f          	j	20013de0 <metal_interrupt_vector_handler>

20017dc0 <IRQ_LC0>:
IRQ_LC0():
/home/nicoladgg/wsFreedomStudio/sifive_hifive1_revb_hello/freedom-metal/src/vector.S:128
20017dc0:	cbafc06f          	j	2001427a <metal_lc0_interrupt_vector_handler>

20017dc4 <IRQ_LC1>:
IRQ_LC1():
/home/nicoladgg/wsFreedomStudio/sifive_hifive1_revb_hello/freedom-metal/src/vector.S:130
20017dc4:	d4cfc06f          	j	20014310 <metal_lc1_interrupt_vector_handler>

20017dc8 <IRQ_LC2>:
IRQ_LC2():
/home/nicoladgg/wsFreedomStudio/sifive_hifive1_revb_hello/freedom-metal/src/vector.S:132
20017dc8:	ddefc06f          	j	200143a6 <metal_lc2_interrupt_vector_handler>

20017dcc <IRQ_LC3>:
IRQ_LC3():
/home/nicoladgg/wsFreedomStudio/sifive_hifive1_revb_hello/freedom-metal/src/vector.S:134
20017dcc:	e70fc06f          	j	2001443c <metal_lc3_interrupt_vector_handler>

20017dd0 <IRQ_LC4>:
IRQ_LC4():
/home/nicoladgg/wsFreedomStudio/sifive_hifive1_revb_hello/freedom-metal/src/vector.S:136
20017dd0:	f02fc06f          	j	200144d2 <metal_lc4_interrupt_vector_handler>

20017dd4 <IRQ_LC5>:
IRQ_LC5():
/home/nicoladgg/wsFreedomStudio/sifive_hifive1_revb_hello/freedom-metal/src/vector.S:138
20017dd4:	f94fc06f          	j	20014568 <metal_lc5_interrupt_vector_handler>

20017dd8 <IRQ_LC6>:
IRQ_LC6():
/home/nicoladgg/wsFreedomStudio/sifive_hifive1_revb_hello/freedom-metal/src/vector.S:140
20017dd8:	827fc06f          	j	200145fe <metal_lc6_interrupt_vector_handler>

20017ddc <IRQ_LC7>:
IRQ_LC7():
/home/nicoladgg/wsFreedomStudio/sifive_hifive1_revb_hello/freedom-metal/src/vector.S:142
20017ddc:	8b9fc06f          	j	20014694 <metal_lc7_interrupt_vector_handler>

20017de0 <IRQ_LC8>:
IRQ_LC8():
/home/nicoladgg/wsFreedomStudio/sifive_hifive1_revb_hello/freedom-metal/src/vector.S:144
20017de0:	94bfc06f          	j	2001472a <metal_lc8_interrupt_vector_handler>

20017de4 <IRQ_LC9>:
IRQ_LC9():
/home/nicoladgg/wsFreedomStudio/sifive_hifive1_revb_hello/freedom-metal/src/vector.S:146
20017de4:	9ddfc06f          	j	200147c0 <metal_lc9_interrupt_vector_handler>

20017de8 <IRQ_LC10>:
IRQ_LC10():
/home/nicoladgg/wsFreedomStudio/sifive_hifive1_revb_hello/freedom-metal/src/vector.S:148
20017de8:	a6ffc06f          	j	20014856 <metal_lc10_interrupt_vector_handler>

20017dec <IRQ_LC11>:
IRQ_LC11():
/home/nicoladgg/wsFreedomStudio/sifive_hifive1_revb_hello/freedom-metal/src/vector.S:150
20017dec:	b01fc06f          	j	200148ec <metal_lc11_interrupt_vector_handler>

20017df0 <IRQ_LC12>:
IRQ_LC12():
/home/nicoladgg/wsFreedomStudio/sifive_hifive1_revb_hello/freedom-metal/src/vector.S:152
20017df0:	b93fc06f          	j	20014982 <metal_lc12_interrupt_vector_handler>

20017df4 <IRQ_LC13>:
IRQ_LC13():
/home/nicoladgg/wsFreedomStudio/sifive_hifive1_revb_hello/freedom-metal/src/vector.S:154
20017df4:	c25fc06f          	j	20014a18 <metal_lc13_interrupt_vector_handler>

20017df8 <IRQ_LC14>:
IRQ_LC14():
/home/nicoladgg/wsFreedomStudio/sifive_hifive1_revb_hello/freedom-metal/src/vector.S:156
20017df8:	cb7fc06f          	j	20014aae <metal_lc14_interrupt_vector_handler>

20017dfc <IRQ_LC15>:
IRQ_LC15():
/home/nicoladgg/wsFreedomStudio/sifive_hifive1_revb_hello/freedom-metal/src/vector.S:158
20017dfc:	d49fc06f          	j	20014b44 <metal_lc15_interrupt_vector_handler>

20017e00 <__metal_driver_fixed_clock_rate>:
__metal_driver_fixed_clock_rate():
/home/nicoladgg/wsFreedomStudio/sifive_hifive1_revb_hello/bsp/build/debug/./metal/machine.h:208
20017e00:	1101                	addi	sp,sp,-32
20017e02:	ce22                	sw	s0,28(sp)
20017e04:	1000                	addi	s0,sp,32
20017e06:	fea42623          	sw	a0,-20(s0)
/home/nicoladgg/wsFreedomStudio/sifive_hifive1_revb_hello/bsp/build/debug/./metal/machine.h:209
20017e0a:	fec42703          	lw	a4,-20(s0)
20017e0e:	800007b7          	lui	a5,0x80000
20017e12:	06078793          	addi	a5,a5,96 # 80000060 <metal_segment_heap_target_end+0xffffe8e0>
20017e16:	00f71763          	bne	a4,a5,20017e24 <__metal_driver_fixed_clock_rate+0x24>
/home/nicoladgg/wsFreedomStudio/sifive_hifive1_revb_hello/bsp/build/debug/./metal/machine.h:210
20017e1a:	00f427b7          	lui	a5,0xf42
20017e1e:	40078793          	addi	a5,a5,1024 # f42400 <__heap_size+0xf41c00>
20017e22:	a099                	j	20017e68 <__metal_driver_fixed_clock_rate+0x68>
/home/nicoladgg/wsFreedomStudio/sifive_hifive1_revb_hello/bsp/build/debug/./metal/machine.h:212
20017e24:	fec42703          	lw	a4,-20(s0)
20017e28:	800007b7          	lui	a5,0x80000
20017e2c:	06c78793          	addi	a5,a5,108 # 8000006c <metal_segment_heap_target_end+0xffffe8ec>
20017e30:	00f71763          	bne	a4,a5,20017e3e <__metal_driver_fixed_clock_rate+0x3e>
/home/nicoladgg/wsFreedomStudio/sifive_hifive1_revb_hello/bsp/build/debug/./metal/machine.h:213
20017e34:	044aa7b7          	lui	a5,0x44aa
20017e38:	20078793          	addi	a5,a5,512 # 44aa200 <__heap_size+0x44a9a00>
20017e3c:	a035                	j	20017e68 <__metal_driver_fixed_clock_rate+0x68>
/home/nicoladgg/wsFreedomStudio/sifive_hifive1_revb_hello/bsp/build/debug/./metal/machine.h:215
20017e3e:	fec42703          	lw	a4,-20(s0)
20017e42:	800007b7          	lui	a5,0x80000
20017e46:	07878793          	addi	a5,a5,120 # 80000078 <metal_segment_heap_target_end+0xffffe8f8>
20017e4a:	00f71463          	bne	a4,a5,20017e52 <__metal_driver_fixed_clock_rate+0x52>
/home/nicoladgg/wsFreedomStudio/sifive_hifive1_revb_hello/bsp/build/debug/./metal/machine.h:216
20017e4e:	67a1                	lui	a5,0x8
20017e50:	a821                	j	20017e68 <__metal_driver_fixed_clock_rate+0x68>
/home/nicoladgg/wsFreedomStudio/sifive_hifive1_revb_hello/bsp/build/debug/./metal/machine.h:218
20017e52:	fec42703          	lw	a4,-20(s0)
20017e56:	800007b7          	lui	a5,0x80000
20017e5a:	08478793          	addi	a5,a5,132 # 80000084 <metal_segment_heap_target_end+0xffffe904>
20017e5e:	00f71463          	bne	a4,a5,20017e66 <__metal_driver_fixed_clock_rate+0x66>
/home/nicoladgg/wsFreedomStudio/sifive_hifive1_revb_hello/bsp/build/debug/./metal/machine.h:219
20017e62:	67a1                	lui	a5,0x8
20017e64:	a011                	j	20017e68 <__metal_driver_fixed_clock_rate+0x68>
/home/nicoladgg/wsFreedomStudio/sifive_hifive1_revb_hello/bsp/build/debug/./metal/machine.h:222
20017e66:	4781                	li	a5,0
/home/nicoladgg/wsFreedomStudio/sifive_hifive1_revb_hello/bsp/build/debug/./metal/machine.h:224
20017e68:	853e                	mv	a0,a5
20017e6a:	4472                	lw	s0,28(sp)
20017e6c:	6105                	addi	sp,sp,32
20017e6e:	8082                	ret

20017e70 <__metal_driver_fixed_clock_get_rate_hz>:
__metal_driver_fixed_clock_get_rate_hz():
/home/nicoladgg/wsFreedomStudio/sifive_hifive1_revb_hello/freedom-metal/src/drivers/fixed-clock.c:12
20017e70:	1101                	addi	sp,sp,-32
20017e72:	ce06                	sw	ra,28(sp)
20017e74:	cc22                	sw	s0,24(sp)
20017e76:	1000                	addi	s0,sp,32
20017e78:	fea42623          	sw	a0,-20(s0)
/home/nicoladgg/wsFreedomStudio/sifive_hifive1_revb_hello/freedom-metal/src/drivers/fixed-clock.c:13
20017e7c:	fec42503          	lw	a0,-20(s0)
20017e80:	f81ff0ef          	jal	ra,20017e00 <__metal_driver_fixed_clock_rate>
20017e84:	87aa                	mv	a5,a0
/home/nicoladgg/wsFreedomStudio/sifive_hifive1_revb_hello/freedom-metal/src/drivers/fixed-clock.c:14
20017e86:	853e                	mv	a0,a5
20017e88:	40f2                	lw	ra,28(sp)
20017e8a:	4462                	lw	s0,24(sp)
20017e8c:	6105                	addi	sp,sp,32
20017e8e:	8082                	ret

20017e90 <__metal_driver_fixed_clock_set_rate_hz>:
__metal_driver_fixed_clock_set_rate_hz():
/home/nicoladgg/wsFreedomStudio/sifive_hifive1_revb_hello/freedom-metal/src/drivers/fixed-clock.c:17
20017e90:	1101                	addi	sp,sp,-32
20017e92:	ce06                	sw	ra,28(sp)
20017e94:	cc22                	sw	s0,24(sp)
20017e96:	1000                	addi	s0,sp,32
20017e98:	fea42623          	sw	a0,-20(s0)
20017e9c:	feb42423          	sw	a1,-24(s0)
/home/nicoladgg/wsFreedomStudio/sifive_hifive1_revb_hello/freedom-metal/src/drivers/fixed-clock.c:18
20017ea0:	fec42503          	lw	a0,-20(s0)
20017ea4:	fcdff0ef          	jal	ra,20017e70 <__metal_driver_fixed_clock_get_rate_hz>
20017ea8:	87aa                	mv	a5,a0
/home/nicoladgg/wsFreedomStudio/sifive_hifive1_revb_hello/freedom-metal/src/drivers/fixed-clock.c:19
20017eaa:	853e                	mv	a0,a5
20017eac:	40f2                	lw	ra,28(sp)
20017eae:	4462                	lw	s0,24(sp)
20017eb0:	6105                	addi	sp,sp,32
20017eb2:	8082                	ret

20017eb4 <_close>:
_close():
/home/nicoladgg/wsFreedomStudio/sifive_hifive1_revb_hello/freedom-metal/gloss/sys_close.c:3
20017eb4:	1101                	addi	sp,sp,-32
20017eb6:	ce06                	sw	ra,28(sp)
20017eb8:	cc22                	sw	s0,24(sp)
20017eba:	1000                	addi	s0,sp,32
20017ebc:	fea42623          	sw	a0,-20(s0)
/home/nicoladgg/wsFreedomStudio/sifive_hifive1_revb_hello/freedom-metal/gloss/sys_close.c:4
20017ec0:	2a49                	jal	20018052 <__errno>
20017ec2:	872a                	mv	a4,a0
20017ec4:	05800793          	li	a5,88
20017ec8:	c31c                	sw	a5,0(a4)
/home/nicoladgg/wsFreedomStudio/sifive_hifive1_revb_hello/freedom-metal/gloss/sys_close.c:5
20017eca:	57fd                	li	a5,-1
/home/nicoladgg/wsFreedomStudio/sifive_hifive1_revb_hello/freedom-metal/gloss/sys_close.c:6
20017ecc:	853e                	mv	a0,a5
20017ece:	40f2                	lw	ra,28(sp)
20017ed0:	4462                	lw	s0,24(sp)
20017ed2:	6105                	addi	sp,sp,32
20017ed4:	8082                	ret

20017ed6 <_fstat>:
_fstat():
/home/nicoladgg/wsFreedomStudio/sifive_hifive1_revb_hello/freedom-metal/gloss/sys_fstat.c:4
20017ed6:	1101                	addi	sp,sp,-32
20017ed8:	ce06                	sw	ra,28(sp)
20017eda:	cc22                	sw	s0,24(sp)
20017edc:	1000                	addi	s0,sp,32
20017ede:	fea42623          	sw	a0,-20(s0)
20017ee2:	feb42423          	sw	a1,-24(s0)
/home/nicoladgg/wsFreedomStudio/sifive_hifive1_revb_hello/freedom-metal/gloss/sys_fstat.c:5
20017ee6:	22b5                	jal	20018052 <__errno>
20017ee8:	872a                	mv	a4,a0
20017eea:	fa800793          	li	a5,-88
20017eee:	c31c                	sw	a5,0(a4)
/home/nicoladgg/wsFreedomStudio/sifive_hifive1_revb_hello/freedom-metal/gloss/sys_fstat.c:6
20017ef0:	57fd                	li	a5,-1
/home/nicoladgg/wsFreedomStudio/sifive_hifive1_revb_hello/freedom-metal/gloss/sys_fstat.c:7
20017ef2:	853e                	mv	a0,a5
20017ef4:	40f2                	lw	ra,28(sp)
20017ef6:	4462                	lw	s0,24(sp)
20017ef8:	6105                	addi	sp,sp,32
20017efa:	8082                	ret

20017efc <_isatty>:
_isatty():
/home/nicoladgg/wsFreedomStudio/sifive_hifive1_revb_hello/freedom-metal/gloss/sys_isatty.c:3
20017efc:	1101                	addi	sp,sp,-32
20017efe:	ce22                	sw	s0,28(sp)
20017f00:	1000                	addi	s0,sp,32
20017f02:	fea42623          	sw	a0,-20(s0)
20017f06:	fec42783          	lw	a5,-20(s0)
20017f0a:	17fd                	addi	a5,a5,-1
20017f0c:	0017b793          	seqz	a5,a5
20017f10:	0ff7f793          	zext.b	a5,a5
20017f14:	853e                	mv	a0,a5
20017f16:	4472                	lw	s0,28(sp)
20017f18:	6105                	addi	sp,sp,32
20017f1a:	8082                	ret

20017f1c <_lseek>:
_lseek():
/home/nicoladgg/wsFreedomStudio/sifive_hifive1_revb_hello/freedom-metal/gloss/sys_lseek.c:4
20017f1c:	1101                	addi	sp,sp,-32
20017f1e:	ce06                	sw	ra,28(sp)
20017f20:	cc22                	sw	s0,24(sp)
20017f22:	1000                	addi	s0,sp,32
20017f24:	fea42623          	sw	a0,-20(s0)
20017f28:	feb42423          	sw	a1,-24(s0)
20017f2c:	fec42223          	sw	a2,-28(s0)
/home/nicoladgg/wsFreedomStudio/sifive_hifive1_revb_hello/freedom-metal/gloss/sys_lseek.c:5
20017f30:	220d                	jal	20018052 <__errno>
20017f32:	872a                	mv	a4,a0
20017f34:	05800793          	li	a5,88
20017f38:	c31c                	sw	a5,0(a4)
/home/nicoladgg/wsFreedomStudio/sifive_hifive1_revb_hello/freedom-metal/gloss/sys_lseek.c:6
20017f3a:	57fd                	li	a5,-1
/home/nicoladgg/wsFreedomStudio/sifive_hifive1_revb_hello/freedom-metal/gloss/sys_lseek.c:7
20017f3c:	853e                	mv	a0,a5
20017f3e:	40f2                	lw	ra,28(sp)
20017f40:	4462                	lw	s0,24(sp)
20017f42:	6105                	addi	sp,sp,32
20017f44:	8082                	ret

20017f46 <_read>:
_read():
/home/nicoladgg/wsFreedomStudio/sifive_hifive1_revb_hello/freedom-metal/gloss/sys_read.c:4
20017f46:	1101                	addi	sp,sp,-32
20017f48:	ce06                	sw	ra,28(sp)
20017f4a:	cc22                	sw	s0,24(sp)
20017f4c:	1000                	addi	s0,sp,32
20017f4e:	fea42623          	sw	a0,-20(s0)
20017f52:	feb42423          	sw	a1,-24(s0)
20017f56:	fec42223          	sw	a2,-28(s0)
/home/nicoladgg/wsFreedomStudio/sifive_hifive1_revb_hello/freedom-metal/gloss/sys_read.c:5
20017f5a:	28e5                	jal	20018052 <__errno>
20017f5c:	872a                	mv	a4,a0
20017f5e:	05800793          	li	a5,88
20017f62:	c31c                	sw	a5,0(a4)
/home/nicoladgg/wsFreedomStudio/sifive_hifive1_revb_hello/freedom-metal/gloss/sys_read.c:6
20017f64:	57fd                	li	a5,-1
/home/nicoladgg/wsFreedomStudio/sifive_hifive1_revb_hello/freedom-metal/gloss/sys_read.c:7
20017f66:	853e                	mv	a0,a5
20017f68:	40f2                	lw	ra,28(sp)
20017f6a:	4462                	lw	s0,24(sp)
20017f6c:	6105                	addi	sp,sp,32
20017f6e:	8082                	ret

20017f70 <_sbrk>:
_sbrk():
/home/nicoladgg/wsFreedomStudio/sifive_hifive1_revb_hello/freedom-metal/gloss/sys_sbrk.c:24
20017f70:	7179                	addi	sp,sp,-48
20017f72:	d606                	sw	ra,44(sp)
20017f74:	d422                	sw	s0,40(sp)
20017f76:	1800                	addi	s0,sp,48
20017f78:	fca42e23          	sw	a0,-36(s0)
/home/nicoladgg/wsFreedomStudio/sifive_hifive1_revb_hello/freedom-metal/gloss/sys_sbrk.c:25
20017f7c:	8201a783          	lw	a5,-2016(gp) # 80000ac0 <__brk>
20017f80:	fef42623          	sw	a5,-20(s0)
/home/nicoladgg/wsFreedomStudio/sifive_hifive1_revb_hello/freedom-metal/gloss/sys_sbrk.c:28
20017f84:	ce018713          	addi	a4,gp,-800 # 80000f80 <_sp>
20017f88:	4e018793          	addi	a5,gp,1248 # 80001780 <metal_segment_heap_target_end>
20017f8c:	00f71463          	bne	a4,a5,20017f94 <_sbrk+0x24>
/home/nicoladgg/wsFreedomStudio/sifive_hifive1_revb_hello/freedom-metal/gloss/sys_sbrk.c:29
20017f90:	57fd                	li	a5,-1
20017f92:	a83d                	j	20017fd0 <_sbrk+0x60>
/home/nicoladgg/wsFreedomStudio/sifive_hifive1_revb_hello/freedom-metal/gloss/sys_sbrk.c:33
20017f94:	8201a703          	lw	a4,-2016(gp) # 80000ac0 <__brk>
20017f98:	fdc42783          	lw	a5,-36(s0)
20017f9c:	973e                	add	a4,a4,a5
20017f9e:	4e018793          	addi	a5,gp,1248 # 80001780 <metal_segment_heap_target_end>
20017fa2:	02f77263          	bgeu	a4,a5,20017fc6 <_sbrk+0x56>
/home/nicoladgg/wsFreedomStudio/sifive_hifive1_revb_hello/freedom-metal/gloss/sys_sbrk.c:34
20017fa6:	8201a703          	lw	a4,-2016(gp) # 80000ac0 <__brk>
20017faa:	fdc42783          	lw	a5,-36(s0)
20017fae:	973e                	add	a4,a4,a5
20017fb0:	82e1a023          	sw	a4,-2016(gp) # 80000ac0 <__brk>
/home/nicoladgg/wsFreedomStudio/sifive_hifive1_revb_hello/freedom-metal/gloss/sys_sbrk.c:40
20017fb4:	fdc42583          	lw	a1,-36(s0)
20017fb8:	fec42503          	lw	a0,-20(s0)
20017fbc:	8cef80ef          	jal	ra,2001008a <metal_mem_scrub>
/home/nicoladgg/wsFreedomStudio/sifive_hifive1_revb_hello/freedom-metal/gloss/sys_sbrk.c:42
20017fc0:	fec42783          	lw	a5,-20(s0)
20017fc4:	a031                	j	20017fd0 <_sbrk+0x60>
/home/nicoladgg/wsFreedomStudio/sifive_hifive1_revb_hello/freedom-metal/gloss/sys_sbrk.c:36
20017fc6:	4e018713          	addi	a4,gp,1248 # 80001780 <metal_segment_heap_target_end>
20017fca:	82e1a023          	sw	a4,-2016(gp) # 80000ac0 <__brk>
/home/nicoladgg/wsFreedomStudio/sifive_hifive1_revb_hello/freedom-metal/gloss/sys_sbrk.c:37
20017fce:	57fd                	li	a5,-1
/home/nicoladgg/wsFreedomStudio/sifive_hifive1_revb_hello/freedom-metal/gloss/sys_sbrk.c:43
20017fd0:	853e                	mv	a0,a5
20017fd2:	50b2                	lw	ra,44(sp)
20017fd4:	5422                	lw	s0,40(sp)
20017fd6:	6145                	addi	sp,sp,48
20017fd8:	8082                	ret

20017fda <_write>:
_write():
/home/nicoladgg/wsFreedomStudio/sifive_hifive1_revb_hello/freedom-metal/gloss/sys_write.c:7
20017fda:	7179                	addi	sp,sp,-48
20017fdc:	d606                	sw	ra,44(sp)
20017fde:	d422                	sw	s0,40(sp)
20017fe0:	1800                	addi	s0,sp,48
20017fe2:	fca42e23          	sw	a0,-36(s0)
20017fe6:	fcb42c23          	sw	a1,-40(s0)
20017fea:	fcc42a23          	sw	a2,-44(s0)
/home/nicoladgg/wsFreedomStudio/sifive_hifive1_revb_hello/freedom-metal/gloss/sys_write.c:8
20017fee:	fdc42703          	lw	a4,-36(s0)
20017ff2:	4785                	li	a5,1
20017ff4:	00f70963          	beq	a4,a5,20018006 <_write+0x2c>
/home/nicoladgg/wsFreedomStudio/sifive_hifive1_revb_hello/freedom-metal/gloss/sys_write.c:9
20017ff8:	28a9                	jal	20018052 <__errno>
20017ffa:	872a                	mv	a4,a0
20017ffc:	05800793          	li	a5,88
20018000:	c31c                	sw	a5,0(a4)
/home/nicoladgg/wsFreedomStudio/sifive_hifive1_revb_hello/freedom-metal/gloss/sys_write.c:10
20018002:	57fd                	li	a5,-1
20018004:	a82d                	j	2001803e <_write+0x64>
/home/nicoladgg/wsFreedomStudio/sifive_hifive1_revb_hello/freedom-metal/gloss/sys_write.c:13
20018006:	fd842783          	lw	a5,-40(s0)
2001800a:	fef42423          	sw	a5,-24(s0)
/home/nicoladgg/wsFreedomStudio/sifive_hifive1_revb_hello/freedom-metal/gloss/sys_write.c:14
2001800e:	fe042623          	sw	zero,-20(s0)
20018012:	a839                	j	20018030 <_write+0x56>
/home/nicoladgg/wsFreedomStudio/sifive_hifive1_revb_hello/freedom-metal/gloss/sys_write.c:15 (discriminator 3)
20018014:	fe842703          	lw	a4,-24(s0)
20018018:	fec42783          	lw	a5,-20(s0)
2001801c:	97ba                	add	a5,a5,a4
2001801e:	0007c783          	lbu	a5,0(a5) # 8000 <__heap_size+0x7800>
20018022:	853e                	mv	a0,a5
20018024:	2e91                	jal	20018378 <metal_tty_putc>
/home/nicoladgg/wsFreedomStudio/sifive_hifive1_revb_hello/freedom-metal/gloss/sys_write.c:14 (discriminator 3)
20018026:	fec42783          	lw	a5,-20(s0)
2001802a:	0785                	addi	a5,a5,1
2001802c:	fef42623          	sw	a5,-20(s0)
/home/nicoladgg/wsFreedomStudio/sifive_hifive1_revb_hello/freedom-metal/gloss/sys_write.c:14 (discriminator 1)
20018030:	fec42703          	lw	a4,-20(s0)
20018034:	fd442783          	lw	a5,-44(s0)
20018038:	fcf76ee3          	bltu	a4,a5,20018014 <_write+0x3a>
/home/nicoladgg/wsFreedomStudio/sifive_hifive1_revb_hello/freedom-metal/gloss/sys_write.c:16
2001803c:	4781                	li	a5,0
/home/nicoladgg/wsFreedomStudio/sifive_hifive1_revb_hello/freedom-metal/gloss/sys_write.c:17
2001803e:	853e                	mv	a0,a5
20018040:	50b2                	lw	ra,44(sp)
20018042:	5422                	lw	s0,40(sp)
20018044:	6145                	addi	sp,sp,48
20018046:	8082                	ret

20018048 <atexit>:
atexit():
20018048:	85aa                	mv	a1,a0
2001804a:	4681                	li	a3,0
2001804c:	4601                	li	a2,0
2001804e:	4501                	li	a0,0
20018050:	a0e1                	j	20018118 <__register_exitproc>

20018052 <__errno>:
__errno():
20018052:	5ffe9517          	auipc	a0,0x5ffe9
20018056:	a5252503          	lw	a0,-1454(a0) # 80000aa4 <_impure_ptr>
2001805a:	8082                	ret

2001805c <exit>:
exit():
2001805c:	1141                	addi	sp,sp,-16
2001805e:	c422                	sw	s0,8(sp)
20018060:	c606                	sw	ra,12(sp)
20018062:	00000797          	auipc	a5,0x0
20018066:	13278793          	addi	a5,a5,306 # 20018194 <__call_exitprocs>
2001806a:	842a                	mv	s0,a0
2001806c:	c399                	beqz	a5,20018072 <exit+0x16>
2001806e:	4581                	li	a1,0
20018070:	2215                	jal	20018194 <__call_exitprocs>
20018072:	ffff9517          	auipc	a0,0xffff9
20018076:	1c652503          	lw	a0,454(a0) # 20011238 <_global_impure_ptr>
2001807a:	551c                	lw	a5,40(a0)
2001807c:	c391                	beqz	a5,20018080 <exit+0x24>
2001807e:	9782                	jalr	a5
20018080:	8522                	mv	a0,s0
20018082:	2e39                	jal	200183a0 <_exit>

20018084 <__libc_fini_array>:
__libc_fini_array():
20018084:	1141                	addi	sp,sp,-16
20018086:	c422                	sw	s0,8(sp)
20018088:	c226                	sw	s1,4(sp)
2001808a:	ffff8417          	auipc	s0,0xffff8
2001808e:	26640413          	addi	s0,s0,614 # 200102f0 <__fini_array_end>
20018092:	ffff8497          	auipc	s1,0xffff8
20018096:	25e48493          	addi	s1,s1,606 # 200102f0 <__fini_array_end>
2001809a:	8c05                	sub	s0,s0,s1
2001809c:	c606                	sw	ra,12(sp)
2001809e:	8409                	srai	s0,s0,0x2
200180a0:	e411                	bnez	s0,200180ac <__libc_fini_array+0x28>
200180a2:	40b2                	lw	ra,12(sp)
200180a4:	4422                	lw	s0,8(sp)
200180a6:	4492                	lw	s1,4(sp)
200180a8:	0141                	addi	sp,sp,16
200180aa:	8082                	ret
200180ac:	147d                	addi	s0,s0,-1
200180ae:	00241793          	slli	a5,s0,0x2
200180b2:	97a6                	add	a5,a5,s1
200180b4:	439c                	lw	a5,0(a5)
200180b6:	9782                	jalr	a5
200180b8:	b7e5                	j	200180a0 <__libc_fini_array+0x1c>

200180ba <__libc_init_array>:
__libc_init_array():
200180ba:	1141                	addi	sp,sp,-16
200180bc:	c422                	sw	s0,8(sp)
200180be:	c226                	sw	s1,4(sp)
200180c0:	ffff8417          	auipc	s0,0xffff8
200180c4:	22040413          	addi	s0,s0,544 # 200102e0 <_metal_sifive_fe310_g000_pll_init_ptr>
200180c8:	ffff8497          	auipc	s1,0xffff8
200180cc:	21848493          	addi	s1,s1,536 # 200102e0 <_metal_sifive_fe310_g000_pll_init_ptr>
200180d0:	8c81                	sub	s1,s1,s0
200180d2:	c04a                	sw	s2,0(sp)
200180d4:	c606                	sw	ra,12(sp)
200180d6:	8489                	srai	s1,s1,0x2
200180d8:	4901                	li	s2,0
200180da:	02991563          	bne	s2,s1,20018104 <__libc_init_array+0x4a>
200180de:	ffff8417          	auipc	s0,0xffff8
200180e2:	20240413          	addi	s0,s0,514 # 200102e0 <_metal_sifive_fe310_g000_pll_init_ptr>
200180e6:	ffff8497          	auipc	s1,0xffff8
200180ea:	1fa48493          	addi	s1,s1,506 # 200102e0 <_metal_sifive_fe310_g000_pll_init_ptr>
200180ee:	8c81                	sub	s1,s1,s0
200180f0:	8489                	srai	s1,s1,0x2
200180f2:	4901                	li	s2,0
200180f4:	00991d63          	bne	s2,s1,2001810e <__libc_init_array+0x54>
200180f8:	40b2                	lw	ra,12(sp)
200180fa:	4422                	lw	s0,8(sp)
200180fc:	4492                	lw	s1,4(sp)
200180fe:	4902                	lw	s2,0(sp)
20018100:	0141                	addi	sp,sp,16
20018102:	8082                	ret
20018104:	401c                	lw	a5,0(s0)
20018106:	0905                	addi	s2,s2,1
20018108:	0411                	addi	s0,s0,4
2001810a:	9782                	jalr	a5
2001810c:	b7f9                	j	200180da <__libc_init_array+0x20>
2001810e:	401c                	lw	a5,0(s0)
20018110:	0905                	addi	s2,s2,1
20018112:	0411                	addi	s0,s0,4
20018114:	9782                	jalr	a5
20018116:	bff9                	j	200180f4 <__libc_init_array+0x3a>

20018118 <__register_exitproc>:
__register_exitproc():
20018118:	88aa                	mv	a7,a0
2001811a:	5ffe9517          	auipc	a0,0x5ffe9
2001811e:	9ba50513          	addi	a0,a0,-1606 # 80000ad4 <_global_atexit>
20018122:	411c                	lw	a5,0(a0)
20018124:	ef91                	bnez	a5,20018140 <__register_exitproc+0x28>
20018126:	5ffe9717          	auipc	a4,0x5ffe9
2001812a:	9ba70713          	addi	a4,a4,-1606 # 80000ae0 <_global_atexit0>
2001812e:	c118                	sw	a4,0(a0)
20018130:	00000513          	li	a0,0
20018134:	87ba                	mv	a5,a4
20018136:	c509                	beqz	a0,20018140 <__register_exitproc+0x28>
20018138:	411c                	lw	a5,0(a0)
2001813a:	08f72423          	sw	a5,136(a4)
2001813e:	87ba                	mv	a5,a4
20018140:	43d8                	lw	a4,4(a5)
20018142:	487d                	li	a6,31
20018144:	557d                	li	a0,-1
20018146:	04e84663          	blt	a6,a4,20018192 <__register_exitproc+0x7a>
2001814a:	02088d63          	beqz	a7,20018184 <__register_exitproc+0x6c>
2001814e:	0887a803          	lw	a6,136(a5)
20018152:	04080063          	beqz	a6,20018192 <__register_exitproc+0x7a>
20018156:	00271513          	slli	a0,a4,0x2
2001815a:	9542                	add	a0,a0,a6
2001815c:	c110                	sw	a2,0(a0)
2001815e:	10082303          	lw	t1,256(a6)
20018162:	4605                	li	a2,1
20018164:	00e61633          	sll	a2,a2,a4
20018168:	00c36333          	or	t1,t1,a2
2001816c:	10682023          	sw	t1,256(a6)
20018170:	08d52023          	sw	a3,128(a0)
20018174:	4689                	li	a3,2
20018176:	00d89763          	bne	a7,a3,20018184 <__register_exitproc+0x6c>
2001817a:	10482683          	lw	a3,260(a6)
2001817e:	8e55                	or	a2,a2,a3
20018180:	10c82223          	sw	a2,260(a6)
20018184:	00170693          	addi	a3,a4,1
20018188:	070a                	slli	a4,a4,0x2
2001818a:	c3d4                	sw	a3,4(a5)
2001818c:	97ba                	add	a5,a5,a4
2001818e:	c78c                	sw	a1,8(a5)
20018190:	4501                	li	a0,0
20018192:	8082                	ret

20018194 <__call_exitprocs>:
__call_exitprocs():
20018194:	7179                	addi	sp,sp,-48
20018196:	ca56                	sw	s5,20(sp)
20018198:	c85a                	sw	s6,16(sp)
2001819a:	c65e                	sw	s7,12(sp)
2001819c:	c462                	sw	s8,8(sp)
2001819e:	d606                	sw	ra,44(sp)
200181a0:	d422                	sw	s0,40(sp)
200181a2:	d226                	sw	s1,36(sp)
200181a4:	d04a                	sw	s2,32(sp)
200181a6:	ce4e                	sw	s3,28(sp)
200181a8:	cc52                	sw	s4,24(sp)
200181aa:	c266                	sw	s9,4(sp)
200181ac:	8b2a                	mv	s6,a0
200181ae:	8aae                	mv	s5,a1
200181b0:	5ffe9b97          	auipc	s7,0x5ffe9
200181b4:	924b8b93          	addi	s7,s7,-1756 # 80000ad4 <_global_atexit>
200181b8:	4c05                	li	s8,1
200181ba:	000ba483          	lw	s1,0(s7)
200181be:	cc81                	beqz	s1,200181d6 <__call_exitprocs+0x42>
200181c0:	40c0                	lw	s0,4(s1)
200181c2:	0884a983          	lw	s3,136(s1)
200181c6:	fff40913          	addi	s2,s0,-1
200181ca:	040a                	slli	s0,s0,0x2
200181cc:	00898a33          	add	s4,s3,s0
200181d0:	9426                	add	s0,s0,s1
200181d2:	00095f63          	bgez	s2,200181f0 <__call_exitprocs+0x5c>
200181d6:	50b2                	lw	ra,44(sp)
200181d8:	5422                	lw	s0,40(sp)
200181da:	5492                	lw	s1,36(sp)
200181dc:	5902                	lw	s2,32(sp)
200181de:	49f2                	lw	s3,28(sp)
200181e0:	4a62                	lw	s4,24(sp)
200181e2:	4ad2                	lw	s5,20(sp)
200181e4:	4b42                	lw	s6,16(sp)
200181e6:	4bb2                	lw	s7,12(sp)
200181e8:	4c22                	lw	s8,8(sp)
200181ea:	4c92                	lw	s9,4(sp)
200181ec:	6145                	addi	sp,sp,48
200181ee:	8082                	ret
200181f0:	000a8c63          	beqz	s5,20018208 <__call_exitprocs+0x74>
200181f4:	00099663          	bnez	s3,20018200 <__call_exitprocs+0x6c>
200181f8:	197d                	addi	s2,s2,-1
200181fa:	1a71                	addi	s4,s4,-4
200181fc:	1471                	addi	s0,s0,-4
200181fe:	bfd1                	j	200181d2 <__call_exitprocs+0x3e>
20018200:	07ca2783          	lw	a5,124(s4)
20018204:	ff579ae3          	bne	a5,s5,200181f8 <__call_exitprocs+0x64>
20018208:	40d8                	lw	a4,4(s1)
2001820a:	405c                	lw	a5,4(s0)
2001820c:	177d                	addi	a4,a4,-1
2001820e:	03271863          	bne	a4,s2,2001823e <__call_exitprocs+0xaa>
20018212:	0124a223          	sw	s2,4(s1)
20018216:	d3ed                	beqz	a5,200181f8 <__call_exitprocs+0x64>
20018218:	0044ac83          	lw	s9,4(s1)
2001821c:	00098863          	beqz	s3,2001822c <__call_exitprocs+0x98>
20018220:	1009a683          	lw	a3,256(s3)
20018224:	012c1733          	sll	a4,s8,s2
20018228:	8ef9                	and	a3,a3,a4
2001822a:	ee89                	bnez	a3,20018244 <__call_exitprocs+0xb0>
2001822c:	9782                	jalr	a5
2001822e:	40d8                	lw	a4,4(s1)
20018230:	000ba783          	lw	a5,0(s7)
20018234:	f99713e3          	bne	a4,s9,200181ba <__call_exitprocs+0x26>
20018238:	fcf480e3          	beq	s1,a5,200181f8 <__call_exitprocs+0x64>
2001823c:	bfbd                	j	200181ba <__call_exitprocs+0x26>
2001823e:	00042223          	sw	zero,4(s0)
20018242:	bfd1                	j	20018216 <__call_exitprocs+0x82>
20018244:	1049a683          	lw	a3,260(s3)
20018248:	ffca2583          	lw	a1,-4(s4)
2001824c:	8f75                	and	a4,a4,a3
2001824e:	e701                	bnez	a4,20018256 <__call_exitprocs+0xc2>
20018250:	855a                	mv	a0,s6
20018252:	9782                	jalr	a5
20018254:	bfe9                	j	2001822e <__call_exitprocs+0x9a>
20018256:	852e                	mv	a0,a1
20018258:	9782                	jalr	a5
2001825a:	bfd1                	j	2001822e <__call_exitprocs+0x9a>

2001825c <metal_init>:
metal_init():
/home/nicoladgg/wsFreedomStudio/sifive_hifive1_revb_hello/freedom-metal/src/init.c:17
2001825c:	1101                	addi	sp,sp,-32
2001825e:	ce06                	sw	ra,28(sp)
20018260:	cc22                	sw	s0,24(sp)
20018262:	1000                	addi	s0,sp,32
/home/nicoladgg/wsFreedomStudio/sifive_hifive1_revb_hello/freedom-metal/src/init.c:20
20018264:	800017b7          	lui	a5,0x80001
20018268:	ad87a783          	lw	a5,-1320(a5) # 80000ad8 <metal_segment_heap_target_end+0xfffff358>
2001826c:	efa9                	bnez	a5,200182c6 <metal_init+0x6a>
/home/nicoladgg/wsFreedomStudio/sifive_hifive1_revb_hello/freedom-metal/src/init.c:23
2001826e:	800017b7          	lui	a5,0x80001
20018272:	4705                	li	a4,1
20018274:	ace7ac23          	sw	a4,-1320(a5) # 80000ad8 <metal_segment_heap_target_end+0xfffff358>
/home/nicoladgg/wsFreedomStudio/sifive_hifive1_revb_hello/freedom-metal/src/init.c:25
20018278:	200107b7          	lui	a5,0x20010
2001827c:	2ec78713          	addi	a4,a5,748 # 200102ec <metal_sifive_fe310_g000_pll_init>
20018280:	200107b7          	lui	a5,0x20010
20018284:	2e078793          	addi	a5,a5,736 # 200102e0 <_metal_sifive_fe310_g000_pll_init_ptr>
20018288:	04e7f163          	bgeu	a5,a4,200182ca <metal_init+0x6e>
/home/nicoladgg/wsFreedomStudio/sifive_hifive1_revb_hello/freedom-metal/src/init.c:29
2001828c:	200107b7          	lui	a5,0x20010
20018290:	2e078793          	addi	a5,a5,736 # 200102e0 <_metal_sifive_fe310_g000_pll_init_ptr>
20018294:	fef42623          	sw	a5,-20(s0)
/home/nicoladgg/wsFreedomStudio/sifive_hifive1_revb_hello/freedom-metal/src/init.c:30
20018298:	a831                	j	200182b4 <metal_init+0x58>
/home/nicoladgg/wsFreedomStudio/sifive_hifive1_revb_hello/freedom-metal/src/init.c:31
2001829a:	fec42783          	lw	a5,-20(s0)
2001829e:	439c                	lw	a5,0(a5)
200182a0:	fef42423          	sw	a5,-24(s0)
/home/nicoladgg/wsFreedomStudio/sifive_hifive1_revb_hello/freedom-metal/src/init.c:33
200182a4:	fe842783          	lw	a5,-24(s0)
200182a8:	9782                	jalr	a5
/home/nicoladgg/wsFreedomStudio/sifive_hifive1_revb_hello/freedom-metal/src/init.c:35
200182aa:	fec42783          	lw	a5,-20(s0)
200182ae:	0791                	addi	a5,a5,4
200182b0:	fef42623          	sw	a5,-20(s0)
/home/nicoladgg/wsFreedomStudio/sifive_hifive1_revb_hello/freedom-metal/src/init.c:30
200182b4:	fec42703          	lw	a4,-20(s0)
200182b8:	200107b7          	lui	a5,0x20010
200182bc:	2ec78793          	addi	a5,a5,748 # 200102ec <metal_sifive_fe310_g000_pll_init>
200182c0:	fcf71de3          	bne	a4,a5,2001829a <metal_init+0x3e>
200182c4:	a021                	j	200182cc <metal_init+0x70>
/home/nicoladgg/wsFreedomStudio/sifive_hifive1_revb_hello/freedom-metal/src/init.c:21
200182c6:	0001                	nop
200182c8:	a011                	j	200182cc <metal_init+0x70>
/home/nicoladgg/wsFreedomStudio/sifive_hifive1_revb_hello/freedom-metal/src/init.c:26
200182ca:	0001                	nop
/home/nicoladgg/wsFreedomStudio/sifive_hifive1_revb_hello/freedom-metal/src/init.c:37
200182cc:	40f2                	lw	ra,28(sp)
200182ce:	4462                	lw	s0,24(sp)
200182d0:	6105                	addi	sp,sp,32
200182d2:	8082                	ret

200182d4 <metal_fini>:
metal_fini():
/home/nicoladgg/wsFreedomStudio/sifive_hifive1_revb_hello/freedom-metal/src/init.c:39
200182d4:	1101                	addi	sp,sp,-32
200182d6:	ce06                	sw	ra,28(sp)
200182d8:	cc22                	sw	s0,24(sp)
200182da:	1000                	addi	s0,sp,32
/home/nicoladgg/wsFreedomStudio/sifive_hifive1_revb_hello/freedom-metal/src/init.c:42
200182dc:	800017b7          	lui	a5,0x80001
200182e0:	adc7a783          	lw	a5,-1316(a5) # 80000adc <metal_segment_heap_target_end+0xfffff35c>
200182e4:	efa9                	bnez	a5,2001833e <metal_fini+0x6a>
/home/nicoladgg/wsFreedomStudio/sifive_hifive1_revb_hello/freedom-metal/src/init.c:45
200182e6:	800017b7          	lui	a5,0x80001
200182ea:	4705                	li	a4,1
200182ec:	ace7ae23          	sw	a4,-1316(a5) # 80000adc <metal_segment_heap_target_end+0xfffff35c>
/home/nicoladgg/wsFreedomStudio/sifive_hifive1_revb_hello/freedom-metal/src/init.c:47
200182f0:	200107b7          	lui	a5,0x20010
200182f4:	2f078713          	addi	a4,a5,752 # 200102f0 <__fini_array_end>
200182f8:	200107b7          	lui	a5,0x20010
200182fc:	2f078793          	addi	a5,a5,752 # 200102f0 <__fini_array_end>
20018300:	04e7f163          	bgeu	a5,a4,20018342 <metal_fini+0x6e>
/home/nicoladgg/wsFreedomStudio/sifive_hifive1_revb_hello/freedom-metal/src/init.c:51
20018304:	200107b7          	lui	a5,0x20010
20018308:	2f078793          	addi	a5,a5,752 # 200102f0 <__fini_array_end>
2001830c:	fef42623          	sw	a5,-20(s0)
/home/nicoladgg/wsFreedomStudio/sifive_hifive1_revb_hello/freedom-metal/src/init.c:52
20018310:	a831                	j	2001832c <metal_fini+0x58>
/home/nicoladgg/wsFreedomStudio/sifive_hifive1_revb_hello/freedom-metal/src/init.c:53
20018312:	fec42783          	lw	a5,-20(s0)
20018316:	439c                	lw	a5,0(a5)
20018318:	fef42423          	sw	a5,-24(s0)
/home/nicoladgg/wsFreedomStudio/sifive_hifive1_revb_hello/freedom-metal/src/init.c:55
2001831c:	fe842783          	lw	a5,-24(s0)
20018320:	9782                	jalr	a5
/home/nicoladgg/wsFreedomStudio/sifive_hifive1_revb_hello/freedom-metal/src/init.c:57
20018322:	fec42783          	lw	a5,-20(s0)
20018326:	0791                	addi	a5,a5,4
20018328:	fef42623          	sw	a5,-20(s0)
/home/nicoladgg/wsFreedomStudio/sifive_hifive1_revb_hello/freedom-metal/src/init.c:52
2001832c:	fec42703          	lw	a4,-20(s0)
20018330:	200107b7          	lui	a5,0x20010
20018334:	2f078793          	addi	a5,a5,752 # 200102f0 <__fini_array_end>
20018338:	fcf71de3          	bne	a4,a5,20018312 <metal_fini+0x3e>
2001833c:	a021                	j	20018344 <metal_fini+0x70>
/home/nicoladgg/wsFreedomStudio/sifive_hifive1_revb_hello/freedom-metal/src/init.c:43
2001833e:	0001                	nop
20018340:	a011                	j	20018344 <metal_fini+0x70>
/home/nicoladgg/wsFreedomStudio/sifive_hifive1_revb_hello/freedom-metal/src/init.c:48
20018342:	0001                	nop
/home/nicoladgg/wsFreedomStudio/sifive_hifive1_revb_hello/freedom-metal/src/init.c:59
20018344:	40f2                	lw	ra,28(sp)
20018346:	4462                	lw	s0,24(sp)
20018348:	6105                	addi	sp,sp,32
2001834a:	8082                	ret

2001834c <metal_init_run>:
metal_init_run():
/home/nicoladgg/wsFreedomStudio/sifive_hifive1_revb_hello/freedom-metal/src/init.c:69
2001834c:	1141                	addi	sp,sp,-16
2001834e:	c606                	sw	ra,12(sp)
20018350:	c422                	sw	s0,8(sp)
20018352:	0800                	addi	s0,sp,16
20018354:	f09ff0ef          	jal	ra,2001825c <metal_init>
20018358:	0001                	nop
2001835a:	40b2                	lw	ra,12(sp)
2001835c:	4422                	lw	s0,8(sp)
2001835e:	0141                	addi	sp,sp,16
20018360:	8082                	ret

20018362 <metal_fini_run>:
metal_fini_run():
/home/nicoladgg/wsFreedomStudio/sifive_hifive1_revb_hello/freedom-metal/src/init.c:72
20018362:	1141                	addi	sp,sp,-16
20018364:	c606                	sw	ra,12(sp)
20018366:	c422                	sw	s0,8(sp)
20018368:	0800                	addi	s0,sp,16
2001836a:	f6bff0ef          	jal	ra,200182d4 <metal_fini>
2001836e:	0001                	nop
20018370:	40b2                	lw	ra,12(sp)
20018372:	4422                	lw	s0,8(sp)
20018374:	0141                	addi	sp,sp,16
20018376:	8082                	ret

20018378 <metal_tty_putc>:
metal_tty_putc():
/home/nicoladgg/wsFreedomStudio/sifive_hifive1_revb_hello/freedom-metal/src/tty.c:12
20018378:	1101                	addi	sp,sp,-32
2001837a:	ce06                	sw	ra,28(sp)
2001837c:	cc22                	sw	s0,24(sp)
2001837e:	1000                	addi	s0,sp,32
20018380:	fea42623          	sw	a0,-20(s0)
/home/nicoladgg/wsFreedomStudio/sifive_hifive1_revb_hello/freedom-metal/src/tty.c:13
20018384:	fec42583          	lw	a1,-20(s0)
20018388:	800017b7          	lui	a5,0x80001
2001838c:	a3878513          	addi	a0,a5,-1480 # 80000a38 <metal_segment_heap_target_end+0xfffff2b8>
20018390:	98bff0ef          	jal	ra,20017d1a <metal_uart_putc>
20018394:	87aa                	mv	a5,a0
/home/nicoladgg/wsFreedomStudio/sifive_hifive1_revb_hello/freedom-metal/src/tty.c:14
20018396:	853e                	mv	a0,a5
20018398:	40f2                	lw	ra,28(sp)
2001839a:	4462                	lw	s0,24(sp)
2001839c:	6105                	addi	sp,sp,32
2001839e:	8082                	ret

200183a0 <_exit>:
_exit():
/home/nicoladgg/wsFreedomStudio/sifive_hifive1_revb_hello/freedom-metal/gloss/sys_exit.c:3
200183a0:	1101                	addi	sp,sp,-32
200183a2:	ce06                	sw	ra,28(sp)
200183a4:	cc22                	sw	s0,24(sp)
200183a6:	1000                	addi	s0,sp,32
200183a8:	fea42623          	sw	a0,-20(s0)
/home/nicoladgg/wsFreedomStudio/sifive_hifive1_revb_hello/freedom-metal/gloss/sys_exit.c:4
200183ac:	fec42503          	lw	a0,-20(s0)
200183b0:	931ff0ef          	jal	ra,20017ce0 <metal_shutdown>
