
/home/nicoladgg/wsFreedomStudio/SiFive_HiFive_RevB_Projects/src/debug/main.elf:     file format elf32-littleriscv
/home/nicoladgg/wsFreedomStudio/SiFive_HiFive_RevB_Projects/src/debug/main.elf
architecture: riscv:rv32, flags 0x00000112:
EXEC_P, HAS_SYMS, D_PAGED
start address 0x20010000

Program Header:
    LOAD off    0x00001000 vaddr 0x20010000 paddr 0x20010000 align 2**12
         filesz 0x00000d94 memsz 0x00000d94 flags rwx
    LOAD off    0x00006000 vaddr 0x80000000 paddr 0x200142c8 align 2**12
         filesz 0x000004ac memsz 0x000004ac flags rw-
     TLS off    0x00000000 vaddr 0x00000000 paddr 0x00000000 align 2**2
         filesz 0x00000000 memsz 0x00000000 flags ---
    LOAD off    0x000004b0 vaddr 0x800004b0 paddr 0x800004b0 align 2**12
         filesz 0x00000000 memsz 0x00000f10 flags rw-
    LOAD off    0x00000114 vaddr 0x00000000 paddr 0x00000000 align 2**12
         filesz 0x00000000 memsz 0x00000000 flags ---
    LOAD off    0x00001e00 vaddr 0x20010e00 paddr 0x20010e00 align 2**12
         filesz 0x000034c2 memsz 0x000034c2 flags r-x
    LOAD off    0x00000114 vaddr 0x00000000 paddr 0x00000000 align 2**12
         filesz 0x00000000 memsz 0x00000000 flags ---

Sections:
Idx Name              Size      VMA       LMA       File off  Algn  Flags
  0 .init             000002dc  20010000  20010000  00001000  2**4  CONTENTS, ALLOC, LOAD, READONLY, CODE
  1 .init_array       00000008  200102e0  200102e0  000012e0  2**3  CONTENTS, ALLOC, LOAD, DATA
  2 .ctors            00000056  200102e8  200102e8  000012e8  2**1  CONTENTS, ALLOC, LOAD, READONLY, CODE
  3 .rodata           00000a54  20010340  20010340  00001340  2**2  CONTENTS, ALLOC, LOAD, READONLY, DATA
  4 .text             000034c2  20010e00  20010e00  00001e00  2**7  CONTENTS, ALLOC, LOAD, READONLY, CODE
  5 .data             000004ac  80000000  200142c8  00006000  2**3  CONTENTS, ALLOC, LOAD, DATA
  6 .bss              0000030c  800004b0  800004b0  000064b0  2**3  ALLOC
  7 .stack            00000400  800007c0  800007c0  000064b0  2**4  ALLOC
  8 .heap             00000800  80000bc0  80000bc0  000064b0  2**3  ALLOC
  9 .debug_info       00015d47  00000000  00000000  000064ac  2**0  CONTENTS, READONLY, DEBUGGING, OCTETS
 10 .debug_abbrev     00001bcb  00000000  00000000  0001c1f3  2**0  CONTENTS, READONLY, DEBUGGING, OCTETS
 11 .debug_aranges    000007e8  00000000  00000000  0001ddc0  2**3  CONTENTS, READONLY, DEBUGGING, OCTETS
 12 .debug_ranges     000006c8  00000000  00000000  0001e5a8  2**3  CONTENTS, READONLY, DEBUGGING, OCTETS
 13 .debug_line       00007a37  00000000  00000000  0001ec70  2**0  CONTENTS, READONLY, DEBUGGING, OCTETS
 14 .debug_str        00003d8e  00000000  00000000  000266a7  2**0  CONTENTS, READONLY, DEBUGGING, OCTETS
 15 .comment          00000030  00000000  00000000  0002a435  2**0  CONTENTS, READONLY
 16 .riscv.attributes 0000002f  00000000  00000000  0002a465  2**0  CONTENTS, READONLY
 17 .debug_frame      000021a4  00000000  00000000  0002a494  2**2  CONTENTS, READONLY, DEBUGGING, OCTETS
SYMBOL TABLE:
20010000 l    d  .init	00000000 .init
200102e0 l    d  .init_array	00000000 .init_array
200102e8 l    d  .ctors	00000000 .ctors
20010340 l    d  .rodata	00000000 .rodata
20010e00 l    d  .text	00000000 .text
80000000 l    d  .data	00000000 .data
800004b0 l    d  .bss	00000000 .bss
800007c0 l    d  .stack	00000000 .stack
80000bc0 l    d  .heap	00000000 .heap
00000000 l    d  .debug_info	00000000 .debug_info
00000000 l    d  .debug_abbrev	00000000 .debug_abbrev
00000000 l    d  .debug_aranges	00000000 .debug_aranges
00000000 l    d  .debug_ranges	00000000 .debug_ranges
00000000 l    d  .debug_line	00000000 .debug_line
00000000 l    d  .debug_str	00000000 .debug_str
00000000 l    d  .comment	00000000 .comment
00000000 l    d  .riscv.attributes	00000000 .riscv.attributes
00000000 l    d  .debug_frame	00000000 .debug_frame
00000000 l    df *ABS*	00000000 scrub.o
200100c0 l     F .init	00000000 __metal_memory_scrub
2001012e l       .init	00000000 skip_scrub
00000000 l    df *ABS*	00000000 synchronize_harts.c
00000000 l    df *ABS*	00000000 crt0.o
20010240 l       .init	00000000 _skip_init
20010340 l       .rodata	00000000 argv
20010344 l       .rodata	00000000 envp
20010348 l       .rodata	00000000 name
00000000 l    df *ABS*	00000000 sifive_fe310-g000_pll.c
2001390c l     F .text	0000001a __metal_driver_sifive_fe310_g000_pll_pllsel0
20013926 l     F .text	0000001a __metal_driver_sifive_fe310_g000_pll_pllref
20013940 l     F .text	00000016 __metal_driver_sifive_fe310_g000_pll_divider_base
20013956 l     F .text	00000014 __metal_driver_sifive_fe310_g000_pll_divider_offset
2001396a l     F .text	00000012 __metal_driver_sifive_fe310_g000_pll_config_base
2001397c l     F .text	00000010 __metal_driver_sifive_fe310_g000_pll_config_offset
2001398c l     F .text	00000016 __metal_driver_sifive_fe310_g000_pll_init_rate
200139a2 l     F .text	00000012 __metal_driver_sifive_fe310_g000_prci_base
200139b4 l     F .text	00000016 __metal_driver_sifive_fe310_g000_prci_vtable
200104e0 l     O .rodata	00000880 pll_configs
200139ca l     F .text	0000004e get_pll_config_freq
20013c24 l     F .text	000000aa find_closest_config
20013cce l     F .text	000001a8 configure_pll
00000000 l    df *ABS*	00000000 riscv_clint0.c
20011620 l     F .text	00000026 __metal_driver_sifive_clint0_control_base
20011646 l     F .text	00000024 __metal_driver_sifive_clint0_num_interrupts
2001166a l     F .text	0000003c __metal_driver_sifive_clint0_interrupt_parents
200116a6 l     F .text	00000030 __metal_driver_sifive_clint0_interrupt_lines
20011806 l     F .text	00000036 _get_cpu_intc
00000000 l    df *ABS*	00000000 riscv_cpu.c
20011d42 l     F .text	00000024 __metal_driver_cpu_hartid
20011d66 l     F .text	0000002a __metal_driver_cpu_timebase
20011d90 l     F .text	0000002a __metal_driver_cpu_interrupt_controller
20011dba l     F .text	00000024 __metal_driver_cpu_buserror
00000000 l    df *ABS*	00000000 impure.c
80000000 l     O .data	00000060 impure_data
00000000 l    df *ABS*	00000000 sifive_fe310-g000_hfrosc.c
2001371c l     F .text	0000001a __metal_driver_sifive_fe310_g000_hfrosc_ref
20013736 l     F .text	00000016 __metal_driver_sifive_fe310_g000_hfrosc_config_base
2001374c l     F .text	00000014 __metal_driver_sifive_fe310_g000_hfrosc_config_offset
20013760 l     F .text	00000016 __metal_driver_sifive_fe310_g000_prci_vtable
00000000 l    df *ABS*	00000000 sifive_fe310-g000_hfxosc.c
2001381c l     F .text	0000001a __metal_driver_sifive_fe310_g000_hfxosc_ref
20013836 l     F .text	00000016 __metal_driver_sifive_fe310_g000_hfxosc_config_base
2001384c l     F .text	00000014 __metal_driver_sifive_fe310_g000_hfxosc_config_offset
20013860 l     F .text	00000016 __metal_driver_sifive_fe310_g000_prci_vtable
00000000 l    df *ABS*	00000000 sifive_fe310-g000_prci.c
20013fd6 l     F .text	00000012 __metal_driver_sifive_fe310_g000_prci_base
00000000 l    df *ABS*	00000000 fixed-clock.c
20014200 l     F .text	00000070 __metal_driver_fixed_clock_rate
00000000 l    df *ABS*	00000000 main.c
00000000 l    df *ABS*	00000000 atexit.c
00000000 l    df *ABS*	00000000 exit.c
00000000 l    df *ABS*	00000000 fini.c
00000000 l    df *ABS*	00000000 init.c
00000000 l    df *ABS*	00000000 __atexit.c
800004c0 l     O .bss	0000008c _global_atexit0
00000000 l    df *ABS*	00000000 __call_atexit.c
00000000 l    df *ABS*	00000000 init.c
800004b8 l     O .bss	00000004 init_done.1
800004bc l     O .bss	00000004 fini_done.0
00000000 l    df *ABS*	00000000 clock.c
00000000 l    df *ABS*	00000000 cpu.c
00000000 l    df *ABS*	00000000 shutdown.c
00000000 l    df *ABS*	00000000 vector.o
20014180 l       .text	00000000 IRQ_0
20014184 l       .text	00000000 IRQ_1
20014188 l       .text	00000000 IRQ_2
2001418c l       .text	00000000 IRQ_3
20014190 l       .text	00000000 IRQ_4
20014194 l       .text	00000000 IRQ_5
20014198 l       .text	00000000 IRQ_6
2001419c l       .text	00000000 IRQ_7
200141a0 l       .text	00000000 IRQ_8
200141a4 l       .text	00000000 IRQ_9
200141a8 l       .text	00000000 IRQ_10
200141ac l       .text	00000000 IRQ_11
200141b0 l       .text	00000000 IRQ_12
200141b4 l       .text	00000000 IRQ_13
200141b8 l       .text	00000000 IRQ_14
200141bc l       .text	00000000 IRQ_15
200141c0 l       .text	00000000 IRQ_LC0
200141c4 l       .text	00000000 IRQ_LC1
200141c8 l       .text	00000000 IRQ_LC2
200141cc l       .text	00000000 IRQ_LC3
200141d0 l       .text	00000000 IRQ_LC4
200141d4 l       .text	00000000 IRQ_LC5
200141d8 l       .text	00000000 IRQ_LC6
200141dc l       .text	00000000 IRQ_LC7
200141e0 l       .text	00000000 IRQ_LC8
200141e4 l       .text	00000000 IRQ_LC9
200141e8 l       .text	00000000 IRQ_LC10
200141ec l       .text	00000000 IRQ_LC11
200141f0 l       .text	00000000 IRQ_LC12
200141f4 l       .text	00000000 IRQ_LC13
200141f8 l       .text	00000000 IRQ_LC14
200141fc l       .text	00000000 IRQ_LC15
00000000 l    df *ABS*	00000000 sys_exit.c
00000000 l    df *ABS*	00000000 inline.c
00000000 l    df *ABS*	00000000 
200102e8 l       .init_array	00000000 metal_constructors_end
200102e8 l       .init_array	00000000 __fini_array_end
200102e8 l       .init_array	00000000 metal_destructors_end
200102e8 l       .init_array	00000000 metal_destructors_start
200102e8 l       .init_array	00000000 __fini_array_start
200102e0 l       .init_array	00000000 __init_array_end
200102e0 l       .init_array	00000000 __preinit_array_end
200102e0 l       .init_array	00000000 __init_array_start
200102e0 l       .init_array	00000000 metal_constructors_start
200102e0 l       .init_array	00000000 __preinit_array_start
2001263a  w    F .text	00000092 metal_lc4_interrupt_vector_handler
20014090 g     F .text	00000026 metal_clock_get_rate_hz
200119e2 g     F .text	00000058 __metal_driver_riscv_clint0_set_vector_mode
200125a8  w    F .text	00000092 metal_lc3_interrupt_vector_handler
20012e1c g     F .text	00000058 __metal_valid_interrupt_id
8000054c g     O .bss	00000270 irq_functions
200102e4 g     O .init_array	00000004 _use_hfxosc_ptr
20013294 g     F .text	0000001c __metal_driver_riscv_cpu_controller_get_vector_mode
80000c88 g       .data	00000000 __global_pointer$
20013060 g     F .text	000001e0 __metal_driver_riscv_cpu_controller_interrupt_register
200102e0 g     O .init_array	00000004 _metal_sifive_fe310_g000_pll_init_ptr
800004b0 g       .data	00000000 __tls_base
20014124 g     F .text	0000002a metal_cpu_get
20010354 g     O .rodata	00000064 __metal_driver_vtable_riscv_clint0
800007bc g       .bss	00000000 metal_segment_bss_target_end
200116d6 g     F .text	0000009a __metal_clint0_mtime_get
20013690 g     F .text	0000002e __metal_driver_cpu_get_instruction_length
00000001 g       *ABS*	00000000 __metal_chicken_bit
08000000 g       .rodata	00000000 metal_segment_itim_target_start
20010142 g     F .init	0000000e __metal_synchronize_harts
800004b0 g       .data	00000000 metal_segment_bss_target_start
20011770 g     F .text	00000096 __metal_driver_riscv_clint0_mtimecmp_set
20013ab8 g     F .text	0000016c __metal_driver_sifive_fe310_g000_pll_get_rate_hz
00000400 g       *ABS*	00000000 __stack_size
20012914  w    F .text	00000092 metal_lc9_interrupt_vector_handler
200100cc  w    F .init	00000000 __metal_before_start
200115f8  w    F .text	00000014 metal_init_run
2001049c g     O .rodata	00000044 __metal_driver_vtable_cpu
00000000 g       *ABS*	00000000 __metal_eccscrub_bit
20013320 g     F .text	00000070 __metal_driver_cpu_mcycle_get
20010d60 g     O .rodata	0000000c __metal_driver_vtable_sifive_fe310_g000_pll
800004a0 g     O .data	00000008 __metal_dt_cpu_0
20012882  w    F .text	00000092 metal_lc8_interrupt_vector_handler
20013e76 g     F .text	00000160 __metal_driver_sifive_fe310_g000_pll_set_rate_hz
20012b5c  w    F .text	00000092 metal_lc13_interrupt_vector_handler
20011f48 g     F .text	00000018 __metal_default_exception_handler
20011d0e g     F .text	00000034 __metal_driver_riscv_clint0_set_interrupt
200132b0 g     F .text	00000054 __metal_driver_riscv_cpu_controller_set_vector_mode
20011dde g     F .text	0000002c __metal_driver_cpu_get
20010438 g     O .rodata	00000064 __metal_driver_vtable_riscv_cpu_intc
20011e3c g     F .text	00000018 __metal_interrupt_global_disable
200127f0  w    F .text	00000092 metal_lc7_interrupt_vector_handler
200129a6  w    F .text	00000092 metal_lc10_interrupt_vector_handler
20012f30 g     F .text	0000004e __metal_exception_register
20011508 g     F .text	00000078 metal_init
200134b2 g     F .text	00000016 __metal_driver_cpu_timer_controller_interrupt
80000000 g       .rodata	00000000 metal_segment_lim_target_end
2001127e g     F .text	00000022 clint_timer_interrupt_handler
20010f40 g     F .text	00000090 interrupt_service_routine
20012034 g     F .text	00000064 __metal_default_sw_handler
8000006c g     O .data	0000000c __metal_dt_clock_2
20010d8c g     O .rodata	00000008 __metal_driver_vtable_fixed_clock
20010d70 g     O .rodata	00000004 _global_impure_ptr
20012098  w    F .text	0000008e metal_timer_interrupt_vector_handler
20011366 g     F .text	0000005e __libc_init_array
20012a38  w    F .text	00000092 metal_lc11_interrupt_vector_handler
200138ea g     F .text	00000022 __metal_driver_sifive_fe310_g000_hfxosc_set_rate_hz
20013240 g     F .text	0000002a __metal_driver_riscv_cpu_controller_interrupt_enable
2001404e g     F .text	00000042 _metal_clock_call_all_callbacks
200102ba g     F .init	00000002 _init
20011e9e g     F .text	0000001a __metal_interrupt_timer_disable
20013568 g     F .text	00000062 __metal_driver_cpu_clear_sw_ipi
80000488 g     O .data	00000004 cpu_freq
20011330 g     F .text	00000036 __libc_fini_array
80000478 g     O .data	0000000c __metal_dt_clock_4
20011580 g     F .text	00000078 metal_fini
200134f2 g     F .text	00000014 __metal_driver_cpu_get_sw_interrupt_id
200136fc g     F .text	00000020 __metal_driver_cpu_get_buserror
80000000 g       .data	00000000 metal_segment_data_target_start
20011ef0 g     F .text	0000002c __metal_interrupt_local_enable
20011cda g     F .text	00000034 __metal_driver_riscv_clint0_clear_interrupt
8000048c g     O .data	00000004 mtimecmp
00000000 g       *ABS*	00000000 __tbss_size
80000060 g     O .data	0000000c __metal_dt_clock_0
00000800 g       *ABS*	00000000 __heap_size
20012126 g     F .text	00000016 __metal_default_beu_handler
20011ed4 g     F .text	0000001c __metal_interrupt_external_disable
20013304 g     F .text	0000001c __metal_driver_riscv_cpu_controller_command_request
20012f7e g     F .text	000000e2 __metal_driver_riscv_cpu_controller_interrupt_init
2001364a g     F .text	00000046 __metal_driver_cpu_exception_register
20011e54 g     F .text	00000018 __metal_interrupt_software_enable
20012484  w    F .text	00000092 metal_lc1_interrupt_vector_handler
800004b4 g     O .bss	00000004 _global_atexit
20012d12 g     F .text	00000058 __metal_controller_interrupt_vector_mode
20011440 g     F .text	000000c8 __call_exitprocs
80000bc0 g       .stack	00000000 _sp
20010150 g     F .init	00000000 _start
20013776 g     F .text	00000084 __metal_driver_sifive_fe310_g000_hfrosc_get_rate_hz
2001362a g     F .text	00000020 __metal_driver_cpu_controller_interrupt
200136be g     F .text	0000001e __metal_driver_cpu_get_exception_pc
20010e00 g     F .text	00000074 plic_interrupt_enable
20011eb8 g     F .text	0000001c __metal_interrupt_external_enable
200113c4 g     F .text	0000007c __register_exitproc
2001275e  w    F .text	00000092 metal_lc6_interrupt_vector_handler
20011e0a g     F .text	0000001a __metal_myhart_id
20011fa6  w    F .text	0000008e metal_software_interrupt_vector_handler
2001326a g     F .text	0000002a __metal_driver_riscv_cpu_controller_interrupt_disable
200112a0 g     F .text	0000005c handler
200118c4 g     F .text	000000da __metal_driver_riscv_clint0_register
80000498 g     O .data	00000008 __metal_dt_clint_2000000
200140b6 g     F .text	00000048 metal_clock_set_rate_hz
200102bc  w    F .init	00000000 secondary_main
20011f78  w    F .text	0000002e metal_interrupt_vector_handler
20010ff6 g     F .text	00000048 set_freq_320MHz
20013fe8 g     F .text	0000002e __metal_driver_sifive_fe310_g000_prci_get_reg
20012e74 g     F .text	000000bc __metal_local_interrupt_enable
20011b9e g     F .text	0000013c __metal_driver_riscv_clint0_command_request
200126cc  w    F .text	00000092 metal_lc5_interrupt_vector_handler
200110f4 g     F .text	0000018a main
800004b0 g       .data	00000000 metal_segment_data_target_end
20010d74 g     O .rodata	00000008 __metal_driver_vtable_sifive_fe310_g000_hfrosc
20013506 g     F .text	00000062 __metal_driver_cpu_set_sw_ipi
200135ca g     F .text	00000060 __metal_driver_cpu_get_msip
20014168 g     F .text	0000000e metal_shutdown
08000000 g       .rodata	00000000 metal_segment_itim_target_end
200136dc g     F .text	00000020 __metal_driver_cpu_set_exception_pc
20012aca  w    F .text	00000092 metal_lc12_interrupt_vector_handler
2001008a g     F .init	00000000 metal_mem_scrub
200119c6 g     F .text	0000001c __metal_driver_riscv_clint0_get_vector_mode
800004a8 g     O .data	00000004 __metal_dt_prci_10008000
20013390 g     F .text	00000046 __metal_driver_cpu_timebase_get
20010000 g       .init	00000000 _enter
2001414e g     F .text	0000001a metal_cpu_get_current_hartid
80000490 g     O .data	00000004 mtime
20013876 g     F .text	00000074 __metal_driver_sifive_fe310_g000_hfxosc_get_rate_hz
20014180 g       .text	00000000 __metal_vector_table
20010d98 g       *ABS*	00000000 metal_segment_itim_source_start
80000494  w    O .data	00000004 __metal_cpu_table
80000090 g     O .data	000003d0 __metal_dt_cpu_0_interrupt_controller
200102ba g     F .init	00000002 _fini
2001103e g     F .text	000000b6 rtc_next_wake_time
80000000 g       .rodata	00000000 metal_segment_lim_target_start
20010314 g     F .ctors	0000002a use_hfxosc
20011e24 g     F .text	00000018 __metal_interrupt_global_enable
200112fc g     F .text	0000000a atexit
20011e84 g     F .text	0000001a __metal_interrupt_timer_enable
20011aec g     F .text	000000b2 __metal_driver_riscv_clint0_disable
2001343c g     F .text	00000076 __metal_driver_cpu_mtimecmp_set
20013a18 g     F .text	000000a0 __metal_driver_sifive_fe310_g000_pll_init
80000078 g     O .data	0000000c __metal_dt_clock_5
20014016 g     F .text	00000038 __metal_driver_sifive_fe310_g000_prci_set_reg
20014270 g     F .text	0000001e __metal_driver_fixed_clock_get_rate_hz
20011a3a g     F .text	000000b2 __metal_driver_riscv_clint0_enable
200142c8 g       *ABS*	00000000 metal_segment_data_source_start
20010134 g       .init	00000000 early_trap_vector
20012d6a g     F .text	000000b2 __metal_controller_interrupt_vector
8000046c g     O .data	0000000c __metal_dt_clock_1
2001213c g     F .text	00000066 __metal_default_timer_handler
20012516  w    F .text	00000092 metal_lc2_interrupt_vector_handler
20012c80  w    F .text	00000092 metal_lc15_interrupt_vector_handler
200140fe g     F .text	00000026 metal_cpu_interrupt_controller
20010e74 g     F .text	00000066 plic_interrupt_handler
20011306 g     F .text	0000002a exit
2001428e g     F .text	00000022 __metal_driver_fixed_clock_set_rate_hz
20010d98 g       *ABS*	00000000 metal_segment_lim_source_start
20011f60 g     F .text	00000018 __metal_default_interrupt_handler
2001160c  w    F .text	00000014 metal_fini_run
20012200 g     F .text	00000178 __metal_exception_handler
200123f2  w    F .text	00000092 metal_lc0_interrupt_vector_handler
200142b0 g     F .text	00000012 _exit
200133d6 g     F .text	00000066 __metal_driver_cpu_mtime_get
2001199e g     F .text	00000028 __metal_driver_riscv_clint0_vector_register
20010eda g     F .text	0000004a interrupt_enable
20012bee  w    F .text	00000092 metal_lc14_interrupt_vector_handler
20010d7c g     O .rodata	00000008 __metal_driver_vtable_sifive_fe310_g000_hfxosc
2001183c g     F .text	00000088 __metal_driver_riscv_clint0_init
200102e8 g     F .ctors	0000002c metal_sifive_fe310_g000_pll_init
800004b0 g     O .bss	00000004 taken
200134c8 g     F .text	00000014 __metal_driver_cpu_get_timer_interrupt_id
20010088  w      .init	00000000 __register_frame_info
200137fa g     F .text	00000022 __metal_driver_sifive_fe310_g000_hfrosc_set_rate_hz
200134dc g     F .text	00000016 __metal_driver_cpu_sw_controller_interrupt
20011f1c g     F .text	0000002c __metal_interrupt_local_disable
20011e6c g     F .text	00000018 __metal_interrupt_software_disable
80000460 g     O .data	0000000c __metal_dt_clock_3
80000084 g     O .data	0000000c __metal_dt_clock_6
20010d84 g     O .rodata	00000008 __metal_driver_vtable_sifive_fe310_g000_prci
00000000 g       *ABS*	00000000 __metal_boot_hart



Disassembly of section .init:

20010000 <_enter>:
_enter():
/home/nicoladgg/wsFreedomStudio/sifive_hifive1_revb_hello/freedom-metal/src/entry.S:24
20010000:	5fff1197          	auipc	gp,0x5fff1
20010004:	c8818193          	addi	gp,gp,-888 # 80000c88 <__global_pointer$>
/home/nicoladgg/wsFreedomStudio/sifive_hifive1_revb_hello/freedom-metal/src/entry.S:28
20010008:	00000297          	auipc	t0,0x0
2001000c:	01828293          	addi	t0,t0,24 # 20010020 <_enter+0x20>
/home/nicoladgg/wsFreedomStudio/sifive_hifive1_revb_hello/freedom-metal/src/entry.S:29
20010010:	30529073          	csrw	mtvec,t0
/home/nicoladgg/wsFreedomStudio/sifive_hifive1_revb_hello/freedom-metal/src/entry.S:31
20010014:	00100293          	li	t0,1
/home/nicoladgg/wsFreedomStudio/sifive_hifive1_revb_hello/freedom-metal/src/entry.S:32
20010018:	00028463          	beqz	t0,20010020 <_enter+0x20>
/home/nicoladgg/wsFreedomStudio/sifive_hifive1_revb_hello/freedom-metal/src/entry.S:34
2001001c:	7c105073          	csrwi	0x7c1,0
/home/nicoladgg/wsFreedomStudio/sifive_hifive1_revb_hello/freedom-metal/src/entry.S:39
20010020:	00000297          	auipc	t0,0x0
20010024:	11428293          	addi	t0,t0,276 # 20010134 <early_trap_vector>
/home/nicoladgg/wsFreedomStudio/sifive_hifive1_revb_hello/freedom-metal/src/entry.S:40
20010028:	30529073          	csrw	mtvec,t0
/home/nicoladgg/wsFreedomStudio/sifive_hifive1_revb_hello/freedom-metal/src/entry.S:48
2001002c:	00000113          	li	sp,0
/home/nicoladgg/wsFreedomStudio/sifive_hifive1_revb_hello/freedom-metal/src/entry.S:55
20010030:	00011463          	bnez	sp,20010038 <_enter+0x38>
/home/nicoladgg/wsFreedomStudio/sifive_hifive1_revb_hello/freedom-metal/src/entry.S:56
20010034:	f3818113          	addi	sp,gp,-200 # 80000bc0 <_sp>
/home/nicoladgg/wsFreedomStudio/sifive_hifive1_revb_hello/freedom-metal/src/entry.S:59
20010038:	f1402573          	csrr	a0,mhartid
/home/nicoladgg/wsFreedomStudio/sifive_hifive1_revb_hello/freedom-metal/src/entry.S:60
2001003c:	4281                	li	t0,0
/home/nicoladgg/wsFreedomStudio/sifive_hifive1_revb_hello/freedom-metal/src/entry.S:61
2001003e:	40000313          	li	t1,1024
/home/nicoladgg/wsFreedomStudio/sifive_hifive1_revb_hello/freedom-metal/src/entry.S:63
20010042:	ff017113          	andi	sp,sp,-16
/home/nicoladgg/wsFreedomStudio/sifive_hifive1_revb_hello/freedom-metal/src/entry.S:64
20010046:	00a28563          	beq	t0,a0,20010050 <_enter+0x50>
/home/nicoladgg/wsFreedomStudio/sifive_hifive1_revb_hello/freedom-metal/src/entry.S:65
2001004a:	911a                	add	sp,sp,t1
/home/nicoladgg/wsFreedomStudio/sifive_hifive1_revb_hello/freedom-metal/src/entry.S:66
2001004c:	0285                	addi	t0,t0,1
/home/nicoladgg/wsFreedomStudio/sifive_hifive1_revb_hello/freedom-metal/src/entry.S:67
2001004e:	bfd5                	j	20010042 <_enter+0x42>
/home/nicoladgg/wsFreedomStudio/sifive_hifive1_revb_hello/freedom-metal/src/entry.S:76
20010050:	00000097          	auipc	ra,0x0
20010054:	07c08093          	addi	ra,ra,124 # 200100cc <__metal_before_start>
/home/nicoladgg/wsFreedomStudio/sifive_hifive1_revb_hello/freedom-metal/src/entry.S:77
20010058:	00008363          	beqz	ra,2001005e <_enter+0x5e>
/home/nicoladgg/wsFreedomStudio/sifive_hifive1_revb_hello/freedom-metal/src/entry.S:78
2001005c:	9082                	jalr	ra
/home/nicoladgg/wsFreedomStudio/sifive_hifive1_revb_hello/freedom-metal/src/entry.S:84
2001005e:	f1402573          	csrr	a0,mhartid
/home/nicoladgg/wsFreedomStudio/sifive_hifive1_revb_hello/freedom-metal/src/entry.S:85
20010062:	4581                	li	a1,0
/home/nicoladgg/wsFreedomStudio/sifive_hifive1_revb_hello/freedom-metal/src/entry.S:86
20010064:	4601                	li	a2,0
/home/nicoladgg/wsFreedomStudio/sifive_hifive1_revb_hello/freedom-metal/src/entry.S:87
20010066:	20ed                	jal	20010150 <_start>
/home/nicoladgg/wsFreedomStudio/sifive_hifive1_revb_hello/freedom-metal/src/entry.S:92
20010068:	00000093          	li	ra,0
/home/nicoladgg/wsFreedomStudio/sifive_hifive1_revb_hello/freedom-metal/src/entry.S:93
2001006c:	00008363          	beqz	ra,20010072 <_enter+0x72>
/home/nicoladgg/wsFreedomStudio/sifive_hifive1_revb_hello/freedom-metal/src/entry.S:94
20010070:	9082                	jalr	ra
/home/nicoladgg/wsFreedomStudio/sifive_hifive1_revb_hello/freedom-metal/src/entry.S:99
20010072:	00000297          	auipc	t0,0x0
20010076:	00c28293          	addi	t0,t0,12 # 2001007e <_enter+0x7e>
/home/nicoladgg/wsFreedomStudio/sifive_hifive1_revb_hello/freedom-metal/src/entry.S:100
2001007a:	30529073          	csrw	mtvec,t0
/home/nicoladgg/wsFreedomStudio/sifive_hifive1_revb_hello/freedom-metal/src/entry.S:102
2001007e:	00002303          	lw	t1,0(zero) # 0 <__metal_boot_hart>
/home/nicoladgg/wsFreedomStudio/sifive_hifive1_revb_hello/freedom-metal/src/entry.S:103
20010082:	bff5                	j	2001007e <_enter+0x7e>
20010084:	0000                	unimp
	...

20010088 <__register_frame_info>:
__register_frame_info():
/home/nicoladgg/wsFreedomStudio/sifive_hifive1_revb_hello/freedom-metal/src/entry.S:117
20010088:	8082                	ret

2001008a <metal_mem_scrub>:
metal_mem_scrub():
/home/nicoladgg/wsFreedomStudio/sifive_hifive1_revb_hello/freedom-metal/src/scrub.S:24
2001008a:	46a1                	li	a3,8
/home/nicoladgg/wsFreedomStudio/sifive_hifive1_revb_hello/freedom-metal/src/scrub.S:25
2001008c:	3006b373          	csrrc	t1,mstatus,a3
/home/nicoladgg/wsFreedomStudio/sifive_hifive1_revb_hello/freedom-metal/src/scrub.S:28
20010090:	4291                	li	t0,4
/home/nicoladgg/wsFreedomStudio/sifive_hifive1_revb_hello/freedom-metal/src/scrub.S:30
20010092:	0055c563          	blt	a1,t0,2001009c <metal_mem_scrub+0x12>
/home/nicoladgg/wsFreedomStudio/sifive_hifive1_revb_hello/freedom-metal/src/scrub.S:31
20010096:	00357613          	andi	a2,a0,3
/home/nicoladgg/wsFreedomStudio/sifive_hifive1_revb_hello/freedom-metal/src/scrub.S:32
2001009a:	ca11                	beqz	a2,200100ae <metal_mem_scrub+0x24>
/home/nicoladgg/wsFreedomStudio/sifive_hifive1_revb_hello/freedom-metal/src/scrub.S:34
2001009c:	00050023          	sb	zero,0(a0)
/home/nicoladgg/wsFreedomStudio/sifive_hifive1_revb_hello/freedom-metal/src/scrub.S:35
200100a0:	0505                	addi	a0,a0,1
/home/nicoladgg/wsFreedomStudio/sifive_hifive1_revb_hello/freedom-metal/src/scrub.S:36
200100a2:	15fd                	addi	a1,a1,-1
/home/nicoladgg/wsFreedomStudio/sifive_hifive1_revb_hello/freedom-metal/src/scrub.S:37
200100a4:	feb047e3          	bgtz	a1,20010092 <metal_mem_scrub+0x8>
/home/nicoladgg/wsFreedomStudio/sifive_hifive1_revb_hello/freedom-metal/src/scrub.S:38
200100a8:	30031073          	csrw	mstatus,t1
/home/nicoladgg/wsFreedomStudio/sifive_hifive1_revb_hello/freedom-metal/src/scrub.S:39
200100ac:	8082                	ret
/home/nicoladgg/wsFreedomStudio/sifive_hifive1_revb_hello/freedom-metal/src/scrub.S:41
200100ae:	00052023          	sw	zero,0(a0)
/home/nicoladgg/wsFreedomStudio/sifive_hifive1_revb_hello/freedom-metal/src/scrub.S:42
200100b2:	0511                	addi	a0,a0,4
/home/nicoladgg/wsFreedomStudio/sifive_hifive1_revb_hello/freedom-metal/src/scrub.S:43
200100b4:	15f1                	addi	a1,a1,-4
/home/nicoladgg/wsFreedomStudio/sifive_hifive1_revb_hello/freedom-metal/src/scrub.S:44
200100b6:	fcb04ee3          	bgtz	a1,20010092 <metal_mem_scrub+0x8>
/home/nicoladgg/wsFreedomStudio/sifive_hifive1_revb_hello/freedom-metal/src/scrub.S:45
200100ba:	30031073          	csrw	mstatus,t1
/home/nicoladgg/wsFreedomStudio/sifive_hifive1_revb_hello/freedom-metal/src/scrub.S:46
200100be:	8082                	ret

200100c0 <__metal_memory_scrub>:
__metal_memory_scrub():
/home/nicoladgg/wsFreedomStudio/sifive_hifive1_revb_hello/freedom-metal/src/scrub.S:74
200100c0:	00032023          	sw	zero,0(t1)
/home/nicoladgg/wsFreedomStudio/sifive_hifive1_revb_hello/freedom-metal/src/scrub.S:75
200100c4:	0311                	addi	t1,t1,4
/home/nicoladgg/wsFreedomStudio/sifive_hifive1_revb_hello/freedom-metal/src/scrub.S:76
200100c6:	fe734de3          	blt	t1,t2,200100c0 <__metal_memory_scrub>
/home/nicoladgg/wsFreedomStudio/sifive_hifive1_revb_hello/freedom-metal/src/scrub.S:82
200100ca:	8082                	ret

200100cc <__metal_before_start>:
__metal_before_start():
/home/nicoladgg/wsFreedomStudio/sifive_hifive1_revb_hello/freedom-metal/src/scrub.S:94
200100cc:	8406                	mv	s0,ra
/home/nicoladgg/wsFreedomStudio/sifive_hifive1_revb_hello/freedom-metal/src/scrub.S:96
200100ce:	dfff0297          	auipc	t0,0xdfff0
200100d2:	f3228293          	addi	t0,t0,-206 # 0 <__metal_boot_hart>
/home/nicoladgg/wsFreedomStudio/sifive_hifive1_revb_hello/freedom-metal/src/scrub.S:97
200100d6:	04028c63          	beqz	t0,2001012e <skip_scrub>
/home/nicoladgg/wsFreedomStudio/sifive_hifive1_revb_hello/freedom-metal/src/scrub.S:99
200100da:	dfff0297          	auipc	t0,0xdfff0
200100de:	f2628293          	addi	t0,t0,-218 # 0 <__metal_boot_hart>
/home/nicoladgg/wsFreedomStudio/sifive_hifive1_revb_hello/freedom-metal/src/scrub.S:100
200100e2:	f14027f3          	csrr	a5,mhartid
/home/nicoladgg/wsFreedomStudio/sifive_hifive1_revb_hello/freedom-metal/src/scrub.S:103
200100e6:	46a1                	li	a3,8
/home/nicoladgg/wsFreedomStudio/sifive_hifive1_revb_hello/freedom-metal/src/scrub.S:104
200100e8:	3006b073          	csrc	mstatus,a3
/home/nicoladgg/wsFreedomStudio/sifive_hifive1_revb_hello/freedom-metal/src/scrub.S:107
200100ec:	830a                	mv	t1,sp
/home/nicoladgg/wsFreedomStudio/sifive_hifive1_revb_hello/freedom-metal/src/scrub.S:108
200100ee:	dfff0397          	auipc	t2,0xdfff0
200100f2:	31238393          	addi	t2,t2,786 # 400 <__stack_size>
/home/nicoladgg/wsFreedomStudio/sifive_hifive1_revb_hello/freedom-metal/src/scrub.S:109
200100f6:	938a                	add	t2,t2,sp
/home/nicoladgg/wsFreedomStudio/sifive_hifive1_revb_hello/freedom-metal/src/scrub.S:110
200100f8:	00730363          	beq	t1,t2,200100fe <__metal_before_start+0x32>
/home/nicoladgg/wsFreedomStudio/sifive_hifive1_revb_hello/freedom-metal/src/scrub.S:111
200100fc:	37d1                	jal	200100c0 <__metal_memory_scrub>
/home/nicoladgg/wsFreedomStudio/sifive_hifive1_revb_hello/freedom-metal/src/scrub.S:113
200100fe:	02579863          	bne	a5,t0,2001012e <skip_scrub>
/home/nicoladgg/wsFreedomStudio/sifive_hifive1_revb_hello/freedom-metal/src/scrub.S:116
20010102:	5fff0317          	auipc	t1,0x5fff0
20010106:	efe30313          	addi	t1,t1,-258 # 80000000 <impure_data>
/home/nicoladgg/wsFreedomStudio/sifive_hifive1_revb_hello/freedom-metal/src/scrub.S:117
2001010a:	5fff0397          	auipc	t2,0x5fff0
2001010e:	3a638393          	addi	t2,t2,934 # 800004b0 <taken>
/home/nicoladgg/wsFreedomStudio/sifive_hifive1_revb_hello/freedom-metal/src/scrub.S:118
20010112:	00730363          	beq	t1,t2,20010118 <__metal_before_start+0x4c>
/home/nicoladgg/wsFreedomStudio/sifive_hifive1_revb_hello/freedom-metal/src/scrub.S:119
20010116:	376d                	jal	200100c0 <__metal_memory_scrub>
/home/nicoladgg/wsFreedomStudio/sifive_hifive1_revb_hello/freedom-metal/src/scrub.S:122
20010118:	e7ff0317          	auipc	t1,0xe7ff0
2001011c:	ee830313          	addi	t1,t1,-280 # 8000000 <metal_segment_itim_target_end>
/home/nicoladgg/wsFreedomStudio/sifive_hifive1_revb_hello/freedom-metal/src/scrub.S:123
20010120:	e7ff0397          	auipc	t2,0xe7ff0
20010124:	ee038393          	addi	t2,t2,-288 # 8000000 <metal_segment_itim_target_end>
/home/nicoladgg/wsFreedomStudio/sifive_hifive1_revb_hello/freedom-metal/src/scrub.S:124
20010128:	00730363          	beq	t1,t2,2001012e <skip_scrub>
/home/nicoladgg/wsFreedomStudio/sifive_hifive1_revb_hello/freedom-metal/src/scrub.S:125
2001012c:	3f51                	jal	200100c0 <__metal_memory_scrub>

2001012e <skip_scrub>:
skip_scrub():
/home/nicoladgg/wsFreedomStudio/sifive_hifive1_revb_hello/freedom-metal/src/scrub.S:129
2001012e:	80a2                	mv	ra,s0
/home/nicoladgg/wsFreedomStudio/sifive_hifive1_revb_hello/freedom-metal/src/scrub.S:130
20010130:	8082                	ret
	...

20010134 <early_trap_vector>:
early_trap_vector():
/home/nicoladgg/wsFreedomStudio/sifive_hifive1_revb_hello/freedom-metal/src/trap.S:64
20010134:	342022f3          	csrr	t0,mcause
/home/nicoladgg/wsFreedomStudio/sifive_hifive1_revb_hello/freedom-metal/src/trap.S:65
20010138:	34102373          	csrr	t1,mepc
/home/nicoladgg/wsFreedomStudio/sifive_hifive1_revb_hello/freedom-metal/src/trap.S:66
2001013c:	343023f3          	csrr	t2,mtval
/home/nicoladgg/wsFreedomStudio/sifive_hifive1_revb_hello/freedom-metal/src/trap.S:67
20010140:	bfd5                	j	20010134 <early_trap_vector>

20010142 <__metal_synchronize_harts>:
__metal_synchronize_harts():
/home/nicoladgg/wsFreedomStudio/sifive_hifive1_revb_hello/freedom-metal/src/synchronize_harts.c:19
20010142:	1141                	addi	sp,sp,-16
20010144:	c622                	sw	s0,12(sp)
20010146:	0800                	addi	s0,sp,16
/home/nicoladgg/wsFreedomStudio/sifive_hifive1_revb_hello/freedom-metal/src/synchronize_harts.c:66
20010148:	0001                	nop
2001014a:	4432                	lw	s0,12(sp)
2001014c:	0141                	addi	sp,sp,16
2001014e:	8082                	ret

20010150 <_start>:
_start():
/home/nicoladgg/wsFreedomStudio/sifive_hifive1_revb_hello/freedom-metal/gloss/crt0.S:36
20010150:	8406                	mv	s0,ra
/home/nicoladgg/wsFreedomStudio/sifive_hifive1_revb_hello/freedom-metal/gloss/crt0.S:44
20010152:	5fff1197          	auipc	gp,0x5fff1
20010156:	b3618193          	addi	gp,gp,-1226 # 80000c88 <__global_pointer$>
/home/nicoladgg/wsFreedomStudio/sifive_hifive1_revb_hello/freedom-metal/gloss/crt0.S:50
2001015a:	00000293          	li	t0,0
/home/nicoladgg/wsFreedomStudio/sifive_hifive1_revb_hello/freedom-metal/gloss/crt0.S:51
2001015e:	0e551163          	bne	a0,t0,20010240 <_skip_init>
/home/nicoladgg/wsFreedomStudio/sifive_hifive1_revb_hello/freedom-metal/gloss/crt0.S:60
20010162:	00004297          	auipc	t0,0x4
20010166:	16628293          	addi	t0,t0,358 # 200142c8 <metal_segment_data_source_start>
/home/nicoladgg/wsFreedomStudio/sifive_hifive1_revb_hello/freedom-metal/gloss/crt0.S:61
2001016a:	5fff0317          	auipc	t1,0x5fff0
2001016e:	e9630313          	addi	t1,t1,-362 # 80000000 <impure_data>
/home/nicoladgg/wsFreedomStudio/sifive_hifive1_revb_hello/freedom-metal/gloss/crt0.S:62
20010172:	5fff0397          	auipc	t2,0x5fff0
20010176:	33e38393          	addi	t2,t2,830 # 800004b0 <taken>
/home/nicoladgg/wsFreedomStudio/sifive_hifive1_revb_hello/freedom-metal/gloss/crt0.S:64
2001017a:	00628c63          	beq	t0,t1,20010192 <_start+0x42>
/home/nicoladgg/wsFreedomStudio/sifive_hifive1_revb_hello/freedom-metal/gloss/crt0.S:65
2001017e:	00735a63          	bge	t1,t2,20010192 <_start+0x42>
/home/nicoladgg/wsFreedomStudio/sifive_hifive1_revb_hello/freedom-metal/gloss/crt0.S:69
20010182:	0002a503          	lw	a0,0(t0)
/home/nicoladgg/wsFreedomStudio/sifive_hifive1_revb_hello/freedom-metal/gloss/crt0.S:70
20010186:	0291                	addi	t0,t0,4
/home/nicoladgg/wsFreedomStudio/sifive_hifive1_revb_hello/freedom-metal/gloss/crt0.S:71
20010188:	00a32023          	sw	a0,0(t1)
/home/nicoladgg/wsFreedomStudio/sifive_hifive1_revb_hello/freedom-metal/gloss/crt0.S:72
2001018c:	0311                	addi	t1,t1,4
/home/nicoladgg/wsFreedomStudio/sifive_hifive1_revb_hello/freedom-metal/gloss/crt0.S:73
2001018e:	fe734ae3          	blt	t1,t2,20010182 <_start+0x32>
/home/nicoladgg/wsFreedomStudio/sifive_hifive1_revb_hello/freedom-metal/gloss/crt0.S:84
20010192:	00001297          	auipc	t0,0x1
20010196:	c0628293          	addi	t0,t0,-1018 # 20010d98 <metal_segment_itim_source_start>
/home/nicoladgg/wsFreedomStudio/sifive_hifive1_revb_hello/freedom-metal/gloss/crt0.S:85
2001019a:	e7ff0317          	auipc	t1,0xe7ff0
2001019e:	e6630313          	addi	t1,t1,-410 # 8000000 <metal_segment_itim_target_end>
/home/nicoladgg/wsFreedomStudio/sifive_hifive1_revb_hello/freedom-metal/gloss/crt0.S:86
200101a2:	e7ff0397          	auipc	t2,0xe7ff0
200101a6:	e5e38393          	addi	t2,t2,-418 # 8000000 <metal_segment_itim_target_end>
/home/nicoladgg/wsFreedomStudio/sifive_hifive1_revb_hello/freedom-metal/gloss/crt0.S:88
200101aa:	00628c63          	beq	t0,t1,200101c2 <_start+0x72>
/home/nicoladgg/wsFreedomStudio/sifive_hifive1_revb_hello/freedom-metal/gloss/crt0.S:89
200101ae:	00735a63          	bge	t1,t2,200101c2 <_start+0x72>
/home/nicoladgg/wsFreedomStudio/sifive_hifive1_revb_hello/freedom-metal/gloss/crt0.S:93
200101b2:	0002a503          	lw	a0,0(t0)
/home/nicoladgg/wsFreedomStudio/sifive_hifive1_revb_hello/freedom-metal/gloss/crt0.S:94
200101b6:	0291                	addi	t0,t0,4
/home/nicoladgg/wsFreedomStudio/sifive_hifive1_revb_hello/freedom-metal/gloss/crt0.S:95
200101b8:	00a32023          	sw	a0,0(t1)
/home/nicoladgg/wsFreedomStudio/sifive_hifive1_revb_hello/freedom-metal/gloss/crt0.S:96
200101bc:	0311                	addi	t1,t1,4
/home/nicoladgg/wsFreedomStudio/sifive_hifive1_revb_hello/freedom-metal/gloss/crt0.S:97
200101be:	fe734ae3          	blt	t1,t2,200101b2 <_start+0x62>
/home/nicoladgg/wsFreedomStudio/sifive_hifive1_revb_hello/freedom-metal/gloss/crt0.S:109
200101c2:	0000100f          	fence.i
/home/nicoladgg/wsFreedomStudio/sifive_hifive1_revb_hello/freedom-metal/gloss/crt0.S:114
200101c6:	00001297          	auipc	t0,0x1
200101ca:	bd228293          	addi	t0,t0,-1070 # 20010d98 <metal_segment_itim_source_start>
/home/nicoladgg/wsFreedomStudio/sifive_hifive1_revb_hello/freedom-metal/gloss/crt0.S:115
200101ce:	5fff0317          	auipc	t1,0x5fff0
200101d2:	e3230313          	addi	t1,t1,-462 # 80000000 <impure_data>
/home/nicoladgg/wsFreedomStudio/sifive_hifive1_revb_hello/freedom-metal/gloss/crt0.S:116
200101d6:	5fff0397          	auipc	t2,0x5fff0
200101da:	e2a38393          	addi	t2,t2,-470 # 80000000 <impure_data>
/home/nicoladgg/wsFreedomStudio/sifive_hifive1_revb_hello/freedom-metal/gloss/crt0.S:118
200101de:	00628c63          	beq	t0,t1,200101f6 <_start+0xa6>
/home/nicoladgg/wsFreedomStudio/sifive_hifive1_revb_hello/freedom-metal/gloss/crt0.S:119
200101e2:	00735a63          	bge	t1,t2,200101f6 <_start+0xa6>
/home/nicoladgg/wsFreedomStudio/sifive_hifive1_revb_hello/freedom-metal/gloss/crt0.S:123
200101e6:	0002a503          	lw	a0,0(t0)
/home/nicoladgg/wsFreedomStudio/sifive_hifive1_revb_hello/freedom-metal/gloss/crt0.S:124
200101ea:	0291                	addi	t0,t0,4
/home/nicoladgg/wsFreedomStudio/sifive_hifive1_revb_hello/freedom-metal/gloss/crt0.S:125
200101ec:	00a32023          	sw	a0,0(t1)
/home/nicoladgg/wsFreedomStudio/sifive_hifive1_revb_hello/freedom-metal/gloss/crt0.S:126
200101f0:	0311                	addi	t1,t1,4
/home/nicoladgg/wsFreedomStudio/sifive_hifive1_revb_hello/freedom-metal/gloss/crt0.S:127
200101f2:	fe734ae3          	blt	t1,t2,200101e6 <_start+0x96>
/home/nicoladgg/wsFreedomStudio/sifive_hifive1_revb_hello/freedom-metal/gloss/crt0.S:139
200101f6:	0000100f          	fence.i
/home/nicoladgg/wsFreedomStudio/sifive_hifive1_revb_hello/freedom-metal/gloss/crt0.S:142
200101fa:	5fff0317          	auipc	t1,0x5fff0
200101fe:	2b630313          	addi	t1,t1,694 # 800004b0 <taken>
/home/nicoladgg/wsFreedomStudio/sifive_hifive1_revb_hello/freedom-metal/gloss/crt0.S:143
20010202:	b3418393          	addi	t2,gp,-1228 # 800007bc <metal_segment_bss_target_end>
/home/nicoladgg/wsFreedomStudio/sifive_hifive1_revb_hello/freedom-metal/gloss/crt0.S:145
20010206:	00735763          	bge	t1,t2,20010214 <_start+0xc4>
/home/nicoladgg/wsFreedomStudio/sifive_hifive1_revb_hello/freedom-metal/gloss/crt0.S:149
2001020a:	00032023          	sw	zero,0(t1)
/home/nicoladgg/wsFreedomStudio/sifive_hifive1_revb_hello/freedom-metal/gloss/crt0.S:150
2001020e:	0311                	addi	t1,t1,4
/home/nicoladgg/wsFreedomStudio/sifive_hifive1_revb_hello/freedom-metal/gloss/crt0.S:151
20010210:	fe734de3          	blt	t1,t2,2001020a <_start+0xba>
/home/nicoladgg/wsFreedomStudio/sifive_hifive1_revb_hello/freedom-metal/gloss/crt0.S:161
20010214:	5fff0217          	auipc	tp,0x5fff0
20010218:	29c20213          	addi	tp,tp,668 # 800004b0 <taken>
/home/nicoladgg/wsFreedomStudio/sifive_hifive1_revb_hello/freedom-metal/gloss/crt0.S:166
2001021c:	c211                	beqz	a2,20010220 <_start+0xd0>
/home/nicoladgg/wsFreedomStudio/sifive_hifive1_revb_hello/freedom-metal/gloss/crt0.S:167
2001021e:	9602                	jalr	a2
/home/nicoladgg/wsFreedomStudio/sifive_hifive1_revb_hello/freedom-metal/gloss/crt0.S:171
20010220:	00001517          	auipc	a0,0x1
20010224:	11050513          	addi	a0,a0,272 # 20011330 <__libc_fini_array>
/home/nicoladgg/wsFreedomStudio/sifive_hifive1_revb_hello/freedom-metal/gloss/crt0.S:172
20010228:	0d4010ef          	jal	ra,200112fc <atexit>
/home/nicoladgg/wsFreedomStudio/sifive_hifive1_revb_hello/freedom-metal/gloss/crt0.S:173
2001022c:	13a010ef          	jal	ra,20011366 <__libc_init_array>
/home/nicoladgg/wsFreedomStudio/sifive_hifive1_revb_hello/freedom-metal/gloss/crt0.S:177
20010230:	00001517          	auipc	a0,0x1
20010234:	3dc50513          	addi	a0,a0,988 # 2001160c <metal_fini_run>
/home/nicoladgg/wsFreedomStudio/sifive_hifive1_revb_hello/freedom-metal/gloss/crt0.S:178
20010238:	0c4010ef          	jal	ra,200112fc <atexit>
/home/nicoladgg/wsFreedomStudio/sifive_hifive1_revb_hello/freedom-metal/gloss/crt0.S:179
2001023c:	3bc010ef          	jal	ra,200115f8 <metal_init_run>

20010240 <_skip_init>:
_skip_init():
/home/nicoladgg/wsFreedomStudio/sifive_hifive1_revb_hello/freedom-metal/gloss/crt0.S:185
20010240:	3709                	jal	20010142 <__metal_synchronize_harts>
/home/nicoladgg/wsFreedomStudio/sifive_hifive1_revb_hello/freedom-metal/gloss/crt0.S:188
20010242:	56fd                	li	a3,-1
/home/nicoladgg/wsFreedomStudio/sifive_hifive1_revb_hello/freedom-metal/gloss/crt0.S:189
20010244:	3046b073          	csrc	mie,a3
/home/nicoladgg/wsFreedomStudio/sifive_hifive1_revb_hello/freedom-metal/gloss/crt0.S:190
20010248:	3446b073          	csrc	mip,a3
/home/nicoladgg/wsFreedomStudio/sifive_hifive1_revb_hello/freedom-metal/gloss/crt0.S:194
2001024c:	301027f3          	csrr	a5,misa
/home/nicoladgg/wsFreedomStudio/sifive_hifive1_revb_hello/freedom-metal/gloss/crt0.S:195
20010250:	00042737          	lui	a4,0x42
/home/nicoladgg/wsFreedomStudio/sifive_hifive1_revb_hello/freedom-metal/gloss/crt0.S:196
20010254:	8f7d                	and	a4,a4,a5
/home/nicoladgg/wsFreedomStudio/sifive_hifive1_revb_hello/freedom-metal/gloss/crt0.S:197
20010256:	c709                	beqz	a4,20010260 <_skip_init+0x20>
/home/nicoladgg/wsFreedomStudio/sifive_hifive1_revb_hello/freedom-metal/gloss/crt0.S:198
20010258:	3036b073          	csrc	mideleg,a3
/home/nicoladgg/wsFreedomStudio/sifive_hifive1_revb_hello/freedom-metal/gloss/crt0.S:199
2001025c:	3026b073          	csrc	medeleg,a3
/home/nicoladgg/wsFreedomStudio/sifive_hifive1_revb_hello/freedom-metal/gloss/crt0.S:203
20010260:	00040737          	lui	a4,0x40
/home/nicoladgg/wsFreedomStudio/sifive_hifive1_revb_hello/freedom-metal/gloss/crt0.S:204
20010264:	8f7d                	and	a4,a4,a5
/home/nicoladgg/wsFreedomStudio/sifive_hifive1_revb_hello/freedom-metal/gloss/crt0.S:205
20010266:	c319                	beqz	a4,2001026c <_skip_init+0x2c>
/home/nicoladgg/wsFreedomStudio/sifive_hifive1_revb_hello/freedom-metal/gloss/crt0.S:206
20010268:	1806b073          	csrc	satp,a3
/home/nicoladgg/wsFreedomStudio/sifive_hifive1_revb_hello/freedom-metal/gloss/crt0.S:210
2001026c:	6741                	lui	a4,0x10
2001026e:	02870713          	addi	a4,a4,40 # 10028 <__heap_size+0xf828>
/home/nicoladgg/wsFreedomStudio/sifive_hifive1_revb_hello/freedom-metal/gloss/crt0.S:211
20010272:	8ff9                	and	a5,a5,a4
/home/nicoladgg/wsFreedomStudio/sifive_hifive1_revb_hello/freedom-metal/gloss/crt0.S:212
20010274:	cb89                	beqz	a5,20010286 <_skip_init+0x46>
/home/nicoladgg/wsFreedomStudio/sifive_hifive1_revb_hello/freedom-metal/gloss/crt0.S:213
20010276:	300027f3          	csrr	a5,mstatus
/home/nicoladgg/wsFreedomStudio/sifive_hifive1_revb_hello/freedom-metal/gloss/crt0.S:214
2001027a:	6709                	lui	a4,0x2
/home/nicoladgg/wsFreedomStudio/sifive_hifive1_revb_hello/freedom-metal/gloss/crt0.S:215
2001027c:	8fd9                	or	a5,a5,a4
/home/nicoladgg/wsFreedomStudio/sifive_hifive1_revb_hello/freedom-metal/gloss/crt0.S:216
2001027e:	30079073          	csrw	mstatus,a5
/home/nicoladgg/wsFreedomStudio/sifive_hifive1_revb_hello/freedom-metal/gloss/crt0.S:217
20010282:	00305073          	csrwi	fcsr,0
/home/nicoladgg/wsFreedomStudio/sifive_hifive1_revb_hello/freedom-metal/gloss/crt0.S:221
20010286:	301027f3          	csrr	a5,misa
/home/nicoladgg/wsFreedomStudio/sifive_hifive1_revb_hello/freedom-metal/gloss/crt0.S:222
2001028a:	00200737          	lui	a4,0x200
/home/nicoladgg/wsFreedomStudio/sifive_hifive1_revb_hello/freedom-metal/gloss/crt0.S:223
2001028e:	8ff9                	and	a5,a5,a4
/home/nicoladgg/wsFreedomStudio/sifive_hifive1_revb_hello/freedom-metal/gloss/crt0.S:224
20010290:	c799                	beqz	a5,2001029e <_skip_init+0x5e>
/home/nicoladgg/wsFreedomStudio/sifive_hifive1_revb_hello/freedom-metal/gloss/crt0.S:225
20010292:	300027f3          	csrr	a5,mstatus
/home/nicoladgg/wsFreedomStudio/sifive_hifive1_revb_hello/freedom-metal/gloss/crt0.S:226
20010296:	2007e793          	ori	a5,a5,512
/home/nicoladgg/wsFreedomStudio/sifive_hifive1_revb_hello/freedom-metal/gloss/crt0.S:227
2001029a:	30079073          	csrw	mstatus,a5
/home/nicoladgg/wsFreedomStudio/sifive_hifive1_revb_hello/freedom-metal/gloss/crt0.S:233
2001029e:	4505                	li	a0,1
/home/nicoladgg/wsFreedomStudio/sifive_hifive1_revb_hello/freedom-metal/gloss/crt0.S:234
200102a0:	00000597          	auipc	a1,0x0
200102a4:	0a058593          	addi	a1,a1,160 # 20010340 <argv>
/home/nicoladgg/wsFreedomStudio/sifive_hifive1_revb_hello/freedom-metal/gloss/crt0.S:235
200102a8:	00000617          	auipc	a2,0x0
200102ac:	09c60613          	addi	a2,a2,156 # 20010344 <envp>
/home/nicoladgg/wsFreedomStudio/sifive_hifive1_revb_hello/freedom-metal/gloss/crt0.S:236
200102b0:	2031                	jal	200102bc <secondary_main>
/home/nicoladgg/wsFreedomStudio/sifive_hifive1_revb_hello/freedom-metal/gloss/crt0.S:242
200102b2:	054010ef          	jal	ra,20011306 <exit>
/home/nicoladgg/wsFreedomStudio/sifive_hifive1_revb_hello/freedom-metal/gloss/crt0.S:247
200102b6:	80a2                	mv	ra,s0
/home/nicoladgg/wsFreedomStudio/sifive_hifive1_revb_hello/freedom-metal/gloss/crt0.S:248
200102b8:	8082                	ret

200102ba <_fini>:
_init():
/home/nicoladgg/wsFreedomStudio/sifive_hifive1_revb_hello/freedom-metal/gloss/crt0.S:260
200102ba:	8082                	ret

200102bc <secondary_main>:
secondary_main():
/home/nicoladgg/wsFreedomStudio/sifive_hifive1_revb_hello/freedom-metal/gloss/crt0.S:271
200102bc:	1141                	addi	sp,sp,-16
/home/nicoladgg/wsFreedomStudio/sifive_hifive1_revb_hello/freedom-metal/gloss/crt0.S:273
200102be:	c206                	sw	ra,4(sp)
/home/nicoladgg/wsFreedomStudio/sifive_hifive1_revb_hello/freedom-metal/gloss/crt0.S:277
200102c0:	f14022f3          	csrr	t0,mhartid
/home/nicoladgg/wsFreedomStudio/sifive_hifive1_revb_hello/freedom-metal/gloss/crt0.S:278
200102c4:	00000313          	li	t1,0
/home/nicoladgg/wsFreedomStudio/sifive_hifive1_revb_hello/freedom-metal/gloss/crt0.S:279
200102c8:	00628563          	beq	t0,t1,200102d2 <secondary_main+0x16>
/home/nicoladgg/wsFreedomStudio/sifive_hifive1_revb_hello/freedom-metal/gloss/crt0.S:281
200102cc:	10500073          	wfi
/home/nicoladgg/wsFreedomStudio/sifive_hifive1_revb_hello/freedom-metal/gloss/crt0.S:282
200102d0:	bff5                	j	200102cc <secondary_main+0x10>
/home/nicoladgg/wsFreedomStudio/sifive_hifive1_revb_hello/freedom-metal/gloss/crt0.S:284
200102d2:	623000ef          	jal	ra,200110f4 <main>
/home/nicoladgg/wsFreedomStudio/sifive_hifive1_revb_hello/freedom-metal/gloss/crt0.S:286
200102d6:	4092                	lw	ra,4(sp)
/home/nicoladgg/wsFreedomStudio/sifive_hifive1_revb_hello/freedom-metal/gloss/crt0.S:290
200102d8:	0141                	addi	sp,sp,16
/home/nicoladgg/wsFreedomStudio/sifive_hifive1_revb_hello/freedom-metal/gloss/crt0.S:291
200102da:	8082                	ret

Disassembly of section .ctors:

200102e8 <metal_sifive_fe310_g000_pll_init>:
metal_sifive_fe310_g000_pll_init():
/home/nicoladgg/wsFreedomStudio/sifive_hifive1_revb_hello/freedom-metal/src/drivers/sifive_fe310-g000_pll.c:151
200102e8:	1101                	addi	sp,sp,-32
200102ea:	ce06                	sw	ra,28(sp)
200102ec:	cc22                	sw	s0,24(sp)
200102ee:	1000                	addi	s0,sp,32
/home/nicoladgg/wsFreedomStudio/sifive_hifive1_revb_hello/freedom-metal/src/drivers/sifive_fe310-g000_pll.c:152
200102f0:	69c030ef          	jal	ra,2001398c <__metal_driver_sifive_fe310_g000_pll_init_rate>
200102f4:	fea42623          	sw	a0,-20(s0)
/home/nicoladgg/wsFreedomStudio/sifive_hifive1_revb_hello/freedom-metal/src/drivers/sifive_fe310-g000_pll.c:154
200102f8:	fec42783          	lw	a5,-20(s0)
200102fc:	c799                	beqz	a5,2001030a <metal_sifive_fe310_g000_pll_init+0x22>
/home/nicoladgg/wsFreedomStudio/sifive_hifive1_revb_hello/freedom-metal/src/drivers/sifive_fe310-g000_pll.c:155
200102fe:	800007b7          	lui	a5,0x80000
20010302:	47878513          	addi	a0,a5,1144 # 80000478 <__global_pointer$+0xfffff7f0>
20010306:	712030ef          	jal	ra,20013a18 <__metal_driver_sifive_fe310_g000_pll_init>
/home/nicoladgg/wsFreedomStudio/sifive_hifive1_revb_hello/freedom-metal/src/drivers/sifive_fe310-g000_pll.c:157
2001030a:	0001                	nop
2001030c:	40f2                	lw	ra,28(sp)
2001030e:	4462                	lw	s0,24(sp)
20010310:	6105                	addi	sp,sp,32
20010312:	8082                	ret

20010314 <use_hfxosc>:
use_hfxosc():
/home/nicoladgg/wsFreedomStudio/sifive_hifive1_revb_hello/freedom-metal/src/drivers/sifive_fe310-g000_pll.c:389
20010314:	1101                	addi	sp,sp,-32
20010316:	ce06                	sw	ra,28(sp)
20010318:	cc22                	sw	s0,24(sp)
2001031a:	1000                	addi	s0,sp,32
/home/nicoladgg/wsFreedomStudio/sifive_hifive1_revb_hello/freedom-metal/src/drivers/sifive_fe310-g000_pll.c:390
2001031c:	670030ef          	jal	ra,2001398c <__metal_driver_sifive_fe310_g000_pll_init_rate>
20010320:	fea42623          	sw	a0,-20(s0)
/home/nicoladgg/wsFreedomStudio/sifive_hifive1_revb_hello/freedom-metal/src/drivers/sifive_fe310-g000_pll.c:391
20010324:	fec42583          	lw	a1,-20(s0)
20010328:	800007b7          	lui	a5,0x80000
2001032c:	47878513          	addi	a0,a5,1144 # 80000478 <__global_pointer$+0xfffff7f0>
20010330:	587030ef          	jal	ra,200140b6 <metal_clock_set_rate_hz>
/home/nicoladgg/wsFreedomStudio/sifive_hifive1_revb_hello/freedom-metal/src/drivers/sifive_fe310-g000_pll.c:393
20010334:	0001                	nop
20010336:	40f2                	lw	ra,28(sp)
20010338:	4462                	lw	s0,24(sp)
2001033a:	6105                	addi	sp,sp,32
2001033c:	8082                	ret

Disassembly of section .text:

20010e00 <plic_interrupt_enable>:
plic_interrupt_enable():
/home/nicoladgg/wsFreedomStudio/SiFive_HiFive_RevB_Projects/src/./include/devices/../devices/plic.h:55

#include "../../include/platform.h"
#include <math.h>

int plic_interrupt_enable()
{
20010e00:	1101                	addi	sp,sp,-32
20010e02:	ce22                	sw	s0,28(sp)
20010e04:	1000                	addi	s0,sp,32
/home/nicoladgg/wsFreedomStudio/SiFive_HiFive_RevB_Projects/src/./include/devices/../devices/plic.h:58
    uint32_t mstatus, mie;

    mstatus = 0;
20010e06:	fe042623          	sw	zero,-20(s0)
/home/nicoladgg/wsFreedomStudio/SiFive_HiFive_RevB_Projects/src/./include/devices/../devices/plic.h:60

    __asm__ volatile("csrw mstatus, %0" : :  "r"(mstatus));
20010e0a:	fec42783          	lw	a5,-20(s0)
20010e0e:	30079073          	csrw	mstatus,a5
/home/nicoladgg/wsFreedomStudio/SiFive_HiFive_RevB_Projects/src/./include/devices/../devices/plic.h:62

    __asm__ volatile("csrr %0, mie" : "=r"(mie));
20010e12:	304027f3          	csrr	a5,mie
20010e16:	fef42423          	sw	a5,-24(s0)
/home/nicoladgg/wsFreedomStudio/SiFive_HiFive_RevB_Projects/src/./include/devices/../devices/plic.h:64

    if ((mie & 0x800) == 0)
20010e1a:	fe842703          	lw	a4,-24(s0)
20010e1e:	6785                	lui	a5,0x1
20010e20:	80078793          	addi	a5,a5,-2048 # 800 <__heap_size>
20010e24:	8ff9                	and	a5,a5,a4
20010e26:	e3b1                	bnez	a5,20010e6a <plic_interrupt_enable+0x6a>
/home/nicoladgg/wsFreedomStudio/SiFive_HiFive_RevB_Projects/src/./include/devices/../devices/plic.h:66
    {
        mie |= MIE_MEIE;
20010e28:	fe842703          	lw	a4,-24(s0)
20010e2c:	6785                	lui	a5,0x1
20010e2e:	80078793          	addi	a5,a5,-2048 # 800 <__heap_size>
20010e32:	8fd9                	or	a5,a5,a4
20010e34:	fef42423          	sw	a5,-24(s0)
/home/nicoladgg/wsFreedomStudio/SiFive_HiFive_RevB_Projects/src/./include/devices/../devices/plic.h:67
        __asm__ volatile("csrw mie, %0" : : "r"(mie));
20010e38:	fe842783          	lw	a5,-24(s0)
20010e3c:	30479073          	csrw	mie,a5
/home/nicoladgg/wsFreedomStudio/SiFive_HiFive_RevB_Projects/src/./include/devices/../devices/plic.h:68
        PLIC_REG(PLIC_ENABLE_OFFSET) = 0;
20010e40:	0c0027b7          	lui	a5,0xc002
20010e44:	0007a023          	sw	zero,0(a5) # c002000 <metal_segment_itim_target_end+0x4002000>
/home/nicoladgg/wsFreedomStudio/SiFive_HiFive_RevB_Projects/src/./include/devices/../devices/plic.h:69
        PLIC_REG(PLIC_ENABLE_OFFSET_2) = 0;
20010e48:	0c0027b7          	lui	a5,0xc002
20010e4c:	0791                	addi	a5,a5,4
20010e4e:	0007a023          	sw	zero,0(a5) # c002000 <metal_segment_itim_target_end+0x4002000>
/home/nicoladgg/wsFreedomStudio/SiFive_HiFive_RevB_Projects/src/./include/devices/../devices/plic.h:70
        mstatus |= MSTATUS_MIE;
20010e52:	fec42783          	lw	a5,-20(s0)
20010e56:	0087e793          	ori	a5,a5,8
20010e5a:	fef42623          	sw	a5,-20(s0)
/home/nicoladgg/wsFreedomStudio/SiFive_HiFive_RevB_Projects/src/./include/devices/../devices/plic.h:71
        __asm__ volatile("csrw mstatus, %0" : : "r"(mstatus));
20010e5e:	fec42783          	lw	a5,-20(s0)
20010e62:	30079073          	csrw	mstatus,a5
/home/nicoladgg/wsFreedomStudio/SiFive_HiFive_RevB_Projects/src/./include/devices/../devices/plic.h:73

        return 0;
20010e66:	4781                	li	a5,0
20010e68:	a011                	j	20010e6c <plic_interrupt_enable+0x6c>
/home/nicoladgg/wsFreedomStudio/SiFive_HiFive_RevB_Projects/src/./include/devices/../devices/plic.h:76
    }

    return -1;
20010e6a:	57fd                	li	a5,-1
/home/nicoladgg/wsFreedomStudio/SiFive_HiFive_RevB_Projects/src/./include/devices/../devices/plic.h:77
}
20010e6c:	853e                	mv	a0,a5
20010e6e:	4472                	lw	s0,28(sp)
20010e70:	6105                	addi	sp,sp,32
20010e72:	8082                	ret

20010e74 <plic_interrupt_handler>:
plic_interrupt_handler():
/home/nicoladgg/wsFreedomStudio/SiFive_HiFive_RevB_Projects/src/./include/devices/../devices/plic.h:80

void plic_interrupt_handler()
{
20010e74:	1101                	addi	sp,sp,-32
20010e76:	ce06                	sw	ra,28(sp)
20010e78:	cc22                	sw	s0,24(sp)
20010e7a:	1000                	addi	s0,sp,32
/home/nicoladgg/wsFreedomStudio/SiFive_HiFive_RevB_Projects/src/./include/devices/../devices/plic.h:85

    uint32_t pending, claim;
    unsigned int int_number;

    claim = PLIC_REG(PLIC_CLAIM_OFFSET);
20010e7c:	0c2007b7          	lui	a5,0xc200
20010e80:	0791                	addi	a5,a5,4
20010e82:	439c                	lw	a5,0(a5)
20010e84:	fef42623          	sw	a5,-20(s0)
/home/nicoladgg/wsFreedomStudio/SiFive_HiFive_RevB_Projects/src/./include/devices/../devices/plic.h:86
    pending = PLIC_REG(PLIC_PENDING_OFFSET);
20010e88:	0c0017b7          	lui	a5,0xc001
20010e8c:	439c                	lw	a5,0(a5)
20010e8e:	fef42423          	sw	a5,-24(s0)
/home/nicoladgg/wsFreedomStudio/SiFive_HiFive_RevB_Projects/src/./include/devices/../devices/plic.h:88

    int_number = claim - 1;
20010e92:	fec42783          	lw	a5,-20(s0)
20010e96:	17fd                	addi	a5,a5,-1
20010e98:	fef42223          	sw	a5,-28(s0)
/home/nicoladgg/wsFreedomStudio/SiFive_HiFive_RevB_Projects/src/./include/devices/../devices/plic.h:90

    if (irq_functions[int_number].active)
20010e9c:	800007b7          	lui	a5,0x80000
20010ea0:	54c78693          	addi	a3,a5,1356 # 8000054c <__global_pointer$+0xfffff8c4>
20010ea4:	fe442703          	lw	a4,-28(s0)
20010ea8:	87ba                	mv	a5,a4
20010eaa:	0786                	slli	a5,a5,0x1
20010eac:	97ba                	add	a5,a5,a4
20010eae:	078a                	slli	a5,a5,0x2
20010eb0:	97b6                	add	a5,a5,a3
20010eb2:	43dc                	lw	a5,4(a5)
20010eb4:	cf91                	beqz	a5,20010ed0 <plic_interrupt_handler+0x5c>
/home/nicoladgg/wsFreedomStudio/SiFive_HiFive_RevB_Projects/src/./include/devices/../devices/plic.h:92
    {
        irq_functions[int_number].irq_handler();
20010eb6:	800007b7          	lui	a5,0x80000
20010eba:	54c78693          	addi	a3,a5,1356 # 8000054c <__global_pointer$+0xfffff8c4>
20010ebe:	fe442703          	lw	a4,-28(s0)
20010ec2:	87ba                	mv	a5,a4
20010ec4:	0786                	slli	a5,a5,0x1
20010ec6:	97ba                	add	a5,a5,a4
20010ec8:	078a                	slli	a5,a5,0x2
20010eca:	97b6                	add	a5,a5,a3
20010ecc:	439c                	lw	a5,0(a5)
20010ece:	9782                	jalr	a5
/home/nicoladgg/wsFreedomStudio/SiFive_HiFive_RevB_Projects/src/./include/devices/../devices/plic.h:94
    }
}
20010ed0:	0001                	nop
20010ed2:	40f2                	lw	ra,28(sp)
20010ed4:	4462                	lw	s0,24(sp)
20010ed6:	6105                	addi	sp,sp,32
20010ed8:	8082                	ret

20010eda <interrupt_enable>:
interrupt_enable():
/home/nicoladgg/wsFreedomStudio/SiFive_HiFive_RevB_Projects/src/./include/devices/../interrupt.h:15

int interrupt_enable();
void interrupt_service_routine() __attribute__((interrupt, aligned(64)));

int interrupt_enable()
{
20010eda:	1101                	addi	sp,sp,-32
20010edc:	ce22                	sw	s0,28(sp)
20010ede:	1000                	addi	s0,sp,32
/home/nicoladgg/wsFreedomStudio/SiFive_HiFive_RevB_Projects/src/./include/devices/../interrupt.h:18
    uint32_t mstatus, mie;

    __asm__ volatile("csrr %0, mstatus" : "=r"(mstatus));
20010ee0:	300027f3          	csrr	a5,mstatus
20010ee4:	fef42623          	sw	a5,-20(s0)
/home/nicoladgg/wsFreedomStudio/SiFive_HiFive_RevB_Projects/src/./include/devices/../interrupt.h:20

    if ((mstatus & 0b1000) == 0)
20010ee8:	fec42783          	lw	a5,-20(s0)
20010eec:	8ba1                	andi	a5,a5,8
20010eee:	e795                	bnez	a5,20010f1a <interrupt_enable+0x40>
/home/nicoladgg/wsFreedomStudio/SiFive_HiFive_RevB_Projects/src/./include/devices/../interrupt.h:22
    {
    	mie = 0;
20010ef0:	fe042423          	sw	zero,-24(s0)
/home/nicoladgg/wsFreedomStudio/SiFive_HiFive_RevB_Projects/src/./include/devices/../interrupt.h:23
    	__asm__ volatile("csrw mie, %0" : : "r"(mie));
20010ef4:	fe842783          	lw	a5,-24(s0)
20010ef8:	30479073          	csrw	mie,a5
/home/nicoladgg/wsFreedomStudio/SiFive_HiFive_RevB_Projects/src/./include/devices/../interrupt.h:26
    	//mtvec |= MTVEC_ENABLE_DIRECT;
    	//__asm__ volatile("csrw mtvec, %I" : : "r"((unsigned long) interrupt_service_routine));
        write_csr(mtvec, ((unsigned long)&interrupt_service_routine | MTVEC_ENABLE_DIRECT));
20010efc:	200117b7          	lui	a5,0x20011
20010f00:	f4078793          	addi	a5,a5,-192 # 20010f40 <interrupt_service_routine>
20010f04:	30579073          	csrw	mtvec,a5
/home/nicoladgg/wsFreedomStudio/SiFive_HiFive_RevB_Projects/src/./include/devices/../interrupt.h:27
        mstatus = MSTATUS_MIE;
20010f08:	47a1                	li	a5,8
20010f0a:	fef42623          	sw	a5,-20(s0)
/home/nicoladgg/wsFreedomStudio/SiFive_HiFive_RevB_Projects/src/./include/devices/../interrupt.h:28
        __asm__ volatile("csrw mstatus, %0" : : "r"(mstatus));
20010f0e:	fec42783          	lw	a5,-20(s0)
20010f12:	30079073          	csrw	mstatus,a5
/home/nicoladgg/wsFreedomStudio/SiFive_HiFive_RevB_Projects/src/./include/devices/../interrupt.h:35
    else
    {
        return -INT_ERR_ACTIVE;
    }

    return INT_OK;
20010f16:	4781                	li	a5,0
20010f18:	a011                	j	20010f1c <interrupt_enable+0x42>
/home/nicoladgg/wsFreedomStudio/SiFive_HiFive_RevB_Projects/src/./include/devices/../interrupt.h:32
        return -INT_ERR_ACTIVE;
20010f1a:	57fd                	li	a5,-1
/home/nicoladgg/wsFreedomStudio/SiFive_HiFive_RevB_Projects/src/./include/devices/../interrupt.h:36
}
20010f1c:	853e                	mv	a0,a5
20010f1e:	4472                	lw	s0,28(sp)
20010f20:	6105                	addi	sp,sp,32
20010f22:	8082                	ret
	...

20010f40 <interrupt_service_routine>:
interrupt_service_routine():
/home/nicoladgg/wsFreedomStudio/SiFive_HiFive_RevB_Projects/src/./include/devices/../interrupt.h:39

void interrupt_service_routine()
{
20010f40:	711d                	addi	sp,sp,-96
20010f42:	ce86                	sw	ra,92(sp)
20010f44:	cc96                	sw	t0,88(sp)
20010f46:	ca9a                	sw	t1,84(sp)
20010f48:	c89e                	sw	t2,80(sp)
20010f4a:	c6a2                	sw	s0,76(sp)
20010f4c:	c4aa                	sw	a0,72(sp)
20010f4e:	c2ae                	sw	a1,68(sp)
20010f50:	c0b2                	sw	a2,64(sp)
20010f52:	de36                	sw	a3,60(sp)
20010f54:	dc3a                	sw	a4,56(sp)
20010f56:	da3e                	sw	a5,52(sp)
20010f58:	d842                	sw	a6,48(sp)
20010f5a:	d646                	sw	a7,44(sp)
20010f5c:	d472                	sw	t3,40(sp)
20010f5e:	d276                	sw	t4,36(sp)
20010f60:	d07a                	sw	t5,32(sp)
20010f62:	ce7e                	sw	t6,28(sp)
20010f64:	1080                	addi	s0,sp,96
/home/nicoladgg/wsFreedomStudio/SiFive_HiFive_RevB_Projects/src/./include/devices/../interrupt.h:49
                     "sw a1, 0(a0)\n\t"
                     "sw a2, 4(a0)\n\t"
                     "sw a3, 8(a0)\n\t"
                     "sw a4, 12(a0)\n\t");*/

    __asm__ volatile("csrr %0, mcause" : "=r"(mcause));
20010f66:	342027f3          	csrr	a5,mcause
20010f6a:	faf42623          	sw	a5,-84(s0)
/home/nicoladgg/wsFreedomStudio/SiFive_HiFive_RevB_Projects/src/./include/devices/../interrupt.h:50
    if (mcause & MCAUSE_INT)
20010f6e:	fac42783          	lw	a5,-84(s0)
20010f72:	0207da63          	bgez	a5,20010fa6 <interrupt_service_routine+0x66>
/home/nicoladgg/wsFreedomStudio/SiFive_HiFive_RevB_Projects/src/./include/devices/../interrupt.h:52
    {
        if (mcause == ((1 << 31) | MCAUSE_MTI))
20010f76:	fac42703          	lw	a4,-84(s0)
20010f7a:	800007b7          	lui	a5,0x80000
20010f7e:	079d                	addi	a5,a5,7
20010f80:	00f71463          	bne	a4,a5,20010f88 <interrupt_service_routine+0x48>
/home/nicoladgg/wsFreedomStudio/SiFive_HiFive_RevB_Projects/src/./include/devices/../interrupt.h:54
        {
            clint_timer_interrupt_handler();
20010f84:	2ced                	jal	2001127e <clint_timer_interrupt_handler>
/home/nicoladgg/wsFreedomStudio/SiFive_HiFive_RevB_Projects/src/./include/devices/../interrupt.h:70
                     "lw a3, 8(a0)\n\t"
                     "lw a2, 4(a0)\n\t"
                     "lw a1, 0(a0)\n\t"
                     "csrrw a0, mscratch, a0\n\t"
                     "mret");*/
}
20010f86:	a005                	j	20010fa6 <interrupt_service_routine+0x66>
/home/nicoladgg/wsFreedomStudio/SiFive_HiFive_RevB_Projects/src/./include/devices/../interrupt.h:56
        else if (mcause == ((1 << 31) | MCAUSE_MSI))
20010f88:	fac42703          	lw	a4,-84(s0)
20010f8c:	800007b7          	lui	a5,0x80000
20010f90:	078d                	addi	a5,a5,3
20010f92:	00f70a63          	beq	a4,a5,20010fa6 <interrupt_service_routine+0x66>
/home/nicoladgg/wsFreedomStudio/SiFive_HiFive_RevB_Projects/src/./include/devices/../interrupt.h:58
        else if (mcause == ((1 << 31) | MCAUSE_MEI))
20010f96:	fac42703          	lw	a4,-84(s0)
20010f9a:	800007b7          	lui	a5,0x80000
20010f9e:	07ad                	addi	a5,a5,11
20010fa0:	00f71363          	bne	a4,a5,20010fa6 <interrupt_service_routine+0x66>
/home/nicoladgg/wsFreedomStudio/SiFive_HiFive_RevB_Projects/src/./include/devices/../interrupt.h:60
            plic_interrupt_handler();
20010fa4:	3dc1                	jal	20010e74 <plic_interrupt_handler>
/home/nicoladgg/wsFreedomStudio/SiFive_HiFive_RevB_Projects/src/./include/devices/../interrupt.h:70
}
20010fa6:	0001                	nop
20010fa8:	40f6                	lw	ra,92(sp)
20010faa:	42e6                	lw	t0,88(sp)
20010fac:	4356                	lw	t1,84(sp)
20010fae:	43c6                	lw	t2,80(sp)
20010fb0:	4436                	lw	s0,76(sp)
20010fb2:	4526                	lw	a0,72(sp)
20010fb4:	4596                	lw	a1,68(sp)
20010fb6:	4606                	lw	a2,64(sp)
20010fb8:	56f2                	lw	a3,60(sp)
20010fba:	5762                	lw	a4,56(sp)
20010fbc:	57d2                	lw	a5,52(sp)
20010fbe:	5842                	lw	a6,48(sp)
20010fc0:	58b2                	lw	a7,44(sp)
20010fc2:	5e22                	lw	t3,40(sp)
20010fc4:	5e92                	lw	t4,36(sp)
20010fc6:	5f02                	lw	t5,32(sp)
20010fc8:	4ff2                	lw	t6,28(sp)
20010fca:	6125                	addi	sp,sp,96
20010fcc:	30200073          	mret
	...

20010ff6 <set_freq_320MHz>:
set_freq_320MHz():
/home/nicoladgg/wsFreedomStudio/SiFive_HiFive_RevB_Projects/src/include/cpu_freq.h:34

    cpu_freq = 384000000;
}

void set_freq_320MHz()
{
20010ff6:	1141                	addi	sp,sp,-16
20010ff8:	c622                	sw	s0,12(sp)
20010ffa:	0800                	addi	s0,sp,16
/home/nicoladgg/wsFreedomStudio/SiFive_HiFive_RevB_Projects/src/include/cpu_freq.h:39
    /* Divide standard frequency by 2 PLL_R = 0b01 = 2,
	 * multiply by 80 PLL_F = 80/2-1 = M/2-1 = 39,
	 * divide by 2 PLL_Q = 1 = 0b01 = 2
	 */
    PRCI_REG(PRCI_PLLCFG) = PLL_R(1) | PLL_F(39) | PLL_Q(0b01) | PLL_REFSEL(1);
20010ffc:	100087b7          	lui	a5,0x10008
20011000:	07a1                	addi	a5,a5,8
20011002:	00020737          	lui	a4,0x20
20011006:	67170713          	addi	a4,a4,1649 # 20671 <__heap_size+0x1fe71>
2001100a:	c398                	sw	a4,0(a5)
/home/nicoladgg/wsFreedomStudio/SiFive_HiFive_RevB_Projects/src/include/cpu_freq.h:41

    while (PRCI_REG(PRCI_PLLCFG) & PLL_LOCK(1) == 0)
2001100c:	0001                	nop
2001100e:	100087b7          	lui	a5,0x10008
20011012:	07a1                	addi	a5,a5,8
20011014:	439c                	lw	a5,0(a5)
/home/nicoladgg/wsFreedomStudio/SiFive_HiFive_RevB_Projects/src/include/cpu_freq.h:44
        ;

    PRCI_REG(PRCI_PLLCFG) |= PLL_SEL(1);
20011016:	100087b7          	lui	a5,0x10008
2001101a:	07a1                	addi	a5,a5,8
2001101c:	4394                	lw	a3,0(a5)
2001101e:	100087b7          	lui	a5,0x10008
20011022:	07a1                	addi	a5,a5,8
20011024:	6741                	lui	a4,0x10
20011026:	8f55                	or	a4,a4,a3
20011028:	c398                	sw	a4,0(a5)
/home/nicoladgg/wsFreedomStudio/SiFive_HiFive_RevB_Projects/src/include/cpu_freq.h:46

    cpu_freq = 320000000;
2001102a:	800007b7          	lui	a5,0x80000
2001102e:	1312d737          	lui	a4,0x1312d
20011032:	48e7a423          	sw	a4,1160(a5) # 80000488 <__global_pointer$+0xfffff800>
/home/nicoladgg/wsFreedomStudio/SiFive_HiFive_RevB_Projects/src/include/cpu_freq.h:47
}
20011036:	0001                	nop
20011038:	4432                	lw	s0,12(sp)
2001103a:	0141                	addi	sp,sp,16
2001103c:	8082                	ret

2001103e <rtc_next_wake_time>:
rtc_next_wake_time():
/home/nicoladgg/wsFreedomStudio/SiFive_HiFive_RevB_Projects/src/include/devices/aon.h:105
{
    AON_REG(AON_RTCCFG) |= AON_RTCCFG_ENALWAYS;
}

void rtc_next_wake_time(uint64_t next)
{
2001103e:	7179                	addi	sp,sp,-48
20011040:	d622                	sw	s0,44(sp)
20011042:	1800                	addi	s0,sp,48
20011044:	fca42c23          	sw	a0,-40(s0)
20011048:	fcb42e23          	sw	a1,-36(s0)
/home/nicoladgg/wsFreedomStudio/SiFive_HiFive_RevB_Projects/src/include/devices/aon.h:109
	uint64_t time;
	uint32_t mie, mip;

	__asm__ volatile("csrr %0, mie" : "=r"(mie));
2001104c:	304027f3          	csrr	a5,mie
20011050:	fef42623          	sw	a5,-20(s0)
/home/nicoladgg/wsFreedomStudio/SiFive_HiFive_RevB_Projects/src/include/devices/aon.h:110
	__asm__ volatile("csrr %0, mie" : "=r"(mip));
20011054:	304027f3          	csrr	a5,mie
20011058:	fef42423          	sw	a5,-24(s0)
/home/nicoladgg/wsFreedomStudio/SiFive_HiFive_RevB_Projects/src/include/devices/aon.h:112

	mie &= ~(MIE_MTIE);
2001105c:	fec42783          	lw	a5,-20(s0)
20011060:	f7f7f793          	andi	a5,a5,-129
20011064:	fef42623          	sw	a5,-20(s0)
/home/nicoladgg/wsFreedomStudio/SiFive_HiFive_RevB_Projects/src/include/devices/aon.h:113
	mip &= ~(MIE_MTIE);
20011068:	fe842783          	lw	a5,-24(s0)
2001106c:	f7f7f793          	andi	a5,a5,-129
20011070:	fef42423          	sw	a5,-24(s0)
/home/nicoladgg/wsFreedomStudio/SiFive_HiFive_RevB_Projects/src/include/devices/aon.h:115

	__asm__ volatile("csrw mie, %0" : : "r" (mie));
20011074:	fec42783          	lw	a5,-20(s0)
20011078:	30479073          	csrw	mie,a5
/home/nicoladgg/wsFreedomStudio/SiFive_HiFive_RevB_Projects/src/include/devices/aon.h:117

	time = *mtime;
2001107c:	800007b7          	lui	a5,0x80000
20011080:	4907a783          	lw	a5,1168(a5) # 80000490 <__global_pointer$+0xfffff808>
20011084:	4398                	lw	a4,0(a5)
20011086:	43dc                	lw	a5,4(a5)
20011088:	fee42023          	sw	a4,-32(s0)
2001108c:	fef42223          	sw	a5,-28(s0)
/home/nicoladgg/wsFreedomStudio/SiFive_HiFive_RevB_Projects/src/include/devices/aon.h:118
	time += next;
20011090:	fe042603          	lw	a2,-32(s0)
20011094:	fe442683          	lw	a3,-28(s0)
20011098:	fd842503          	lw	a0,-40(s0)
2001109c:	fdc42583          	lw	a1,-36(s0)
200110a0:	00a60733          	add	a4,a2,a0
200110a4:	883a                	mv	a6,a4
200110a6:	00c83833          	sltu	a6,a6,a2
200110aa:	00b687b3          	add	a5,a3,a1
200110ae:	00f806b3          	add	a3,a6,a5
200110b2:	87b6                	mv	a5,a3
200110b4:	fee42023          	sw	a4,-32(s0)
200110b8:	fef42223          	sw	a5,-28(s0)
/home/nicoladgg/wsFreedomStudio/SiFive_HiFive_RevB_Projects/src/include/devices/aon.h:119
	*mtimecmp = time;
200110bc:	800007b7          	lui	a5,0x80000
200110c0:	48c7a683          	lw	a3,1164(a5) # 8000048c <__global_pointer$+0xfffff804>
200110c4:	fe042703          	lw	a4,-32(s0)
200110c8:	fe442783          	lw	a5,-28(s0)
200110cc:	c298                	sw	a4,0(a3)
200110ce:	c2dc                	sw	a5,4(a3)
/home/nicoladgg/wsFreedomStudio/SiFive_HiFive_RevB_Projects/src/include/devices/aon.h:121

	mie |= MIE_MTIE;
200110d0:	fec42783          	lw	a5,-20(s0)
200110d4:	0807e793          	ori	a5,a5,128
200110d8:	fef42623          	sw	a5,-20(s0)
/home/nicoladgg/wsFreedomStudio/SiFive_HiFive_RevB_Projects/src/include/devices/aon.h:123

	__asm__ volatile("csrw mie, %0" : : "r" (mip));
200110dc:	fe842783          	lw	a5,-24(s0)
200110e0:	30479073          	csrw	mie,a5
/home/nicoladgg/wsFreedomStudio/SiFive_HiFive_RevB_Projects/src/include/devices/aon.h:124
	__asm__ volatile("csrw mie, %0" : : "r" (mie));
200110e4:	fec42783          	lw	a5,-20(s0)
200110e8:	30479073          	csrw	mie,a5
/home/nicoladgg/wsFreedomStudio/SiFive_HiFive_RevB_Projects/src/include/devices/aon.h:125
}
200110ec:	0001                	nop
200110ee:	5432                	lw	s0,44(sp)
200110f0:	6145                	addi	sp,sp,48
200110f2:	8082                	ret

200110f4 <main>:
main():
/home/nicoladgg/wsFreedomStudio/SiFive_HiFive_RevB_Projects/src/main.c:19
void wait_timer();
int taken = 0;


int main (void)
{
200110f4:	1101                	addi	sp,sp,-32
200110f6:	ce06                	sw	ra,28(sp)
200110f8:	cc22                	sw	s0,24(sp)
200110fa:	1000                	addi	s0,sp,32
/home/nicoladgg/wsFreedomStudio/SiFive_HiFive_RevB_Projects/src/main.c:22
    int rc;

    set_freq_320MHz();
200110fc:	3ded                	jal	20010ff6 <set_freq_320MHz>
/home/nicoladgg/wsFreedomStudio/SiFive_HiFive_RevB_Projects/src/main.c:24

    interrupt_enable();
200110fe:	3bf1                	jal	20010eda <interrupt_enable>
/home/nicoladgg/wsFreedomStudio/SiFive_HiFive_RevB_Projects/src/main.c:26
    //clint_interrupt_timer_enable();
    plic_interrupt_enable();
20011100:	3301                	jal	20010e00 <plic_interrupt_enable>
/home/nicoladgg/wsFreedomStudio/SiFive_HiFive_RevB_Projects/src/main.c:31

    //rtc_enable();

    //GPIO_REG(GPIO_OUTPUT_EN) |= (1 << variant_pin_map[3].bit_pos);
    GPIO_REG(GPIO_OUTPUT_EN) |= (1 << variant_pin_map[3].bit_pos);
20011102:	100127b7          	lui	a5,0x10012
20011106:	07a1                	addi	a5,a5,8
20011108:	4398                	lw	a4,0(a5)
2001110a:	47cd                	li	a5,19
2001110c:	86be                	mv	a3,a5
2001110e:	4785                	li	a5,1
20011110:	00d797b3          	sll	a5,a5,a3
20011114:	86be                	mv	a3,a5
20011116:	100127b7          	lui	a5,0x10012
2001111a:	07a1                	addi	a5,a5,8
2001111c:	8f55                	or	a4,a4,a3
2001111e:	c398                	sw	a4,0(a5)
/home/nicoladgg/wsFreedomStudio/SiFive_HiFive_RevB_Projects/src/main.c:32
    GPIO_REG(GPIO_INPUT_EN)  |= (1 << variant_pin_map[PIN].bit_pos);
20011120:	100127b7          	lui	a5,0x10012
20011124:	0791                	addi	a5,a5,4
20011126:	4398                	lw	a4,0(a5)
20011128:	47dd                	li	a5,23
2001112a:	86be                	mv	a3,a5
2001112c:	4785                	li	a5,1
2001112e:	00d797b3          	sll	a5,a5,a3
20011132:	86be                	mv	a3,a5
20011134:	100127b7          	lui	a5,0x10012
20011138:	0791                	addi	a5,a5,4
2001113a:	8f55                	or	a4,a4,a3
2001113c:	c398                	sw	a4,0(a5)
/home/nicoladgg/wsFreedomStudio/SiFive_HiFive_RevB_Projects/src/main.c:34

    unsigned int gpio = variant_pin_map[PIN].bit_pos;
2001113e:	47dd                	li	a5,23
20011140:	fef42623          	sw	a5,-20(s0)
/home/nicoladgg/wsFreedomStudio/SiFive_HiFive_RevB_Projects/src/main.c:36

    irq_functions[gpio + IRQ_GPIO - 1].active = 1;
20011144:	fec42783          	lw	a5,-20(s0)
20011148:	00778713          	addi	a4,a5,7 # 10012007 <metal_segment_itim_target_end+0x8012007>
2001114c:	800007b7          	lui	a5,0x80000
20011150:	54c78693          	addi	a3,a5,1356 # 8000054c <__global_pointer$+0xfffff8c4>
20011154:	87ba                	mv	a5,a4
20011156:	0786                	slli	a5,a5,0x1
20011158:	97ba                	add	a5,a5,a4
2001115a:	078a                	slli	a5,a5,0x2
2001115c:	97b6                	add	a5,a5,a3
2001115e:	4705                	li	a4,1
20011160:	c3d8                	sw	a4,4(a5)
/home/nicoladgg/wsFreedomStudio/SiFive_HiFive_RevB_Projects/src/main.c:37
    irq_functions[gpio + IRQ_GPIO - 1].priority = 7;
20011162:	fec42783          	lw	a5,-20(s0)
20011166:	00778713          	addi	a4,a5,7
2001116a:	800007b7          	lui	a5,0x80000
2001116e:	54c78693          	addi	a3,a5,1356 # 8000054c <__global_pointer$+0xfffff8c4>
20011172:	87ba                	mv	a5,a4
20011174:	0786                	slli	a5,a5,0x1
20011176:	97ba                	add	a5,a5,a4
20011178:	078a                	slli	a5,a5,0x2
2001117a:	97b6                	add	a5,a5,a3
2001117c:	471d                	li	a4,7
2001117e:	c798                	sw	a4,8(a5)
/home/nicoladgg/wsFreedomStudio/SiFive_HiFive_RevB_Projects/src/main.c:38
    irq_functions[gpio + IRQ_GPIO - 1].irq_handler = handler;
20011180:	fec42783          	lw	a5,-20(s0)
20011184:	00778713          	addi	a4,a5,7
20011188:	800007b7          	lui	a5,0x80000
2001118c:	54c78693          	addi	a3,a5,1356 # 8000054c <__global_pointer$+0xfffff8c4>
20011190:	87ba                	mv	a5,a4
20011192:	0786                	slli	a5,a5,0x1
20011194:	97ba                	add	a5,a5,a4
20011196:	078a                	slli	a5,a5,0x2
20011198:	97b6                	add	a5,a5,a3
2001119a:	20011737          	lui	a4,0x20011
2001119e:	2a070713          	addi	a4,a4,672 # 200112a0 <handler>
200111a2:	c398                	sw	a4,0(a5)
/home/nicoladgg/wsFreedomStudio/SiFive_HiFive_RevB_Projects/src/main.c:40

    PLIC_REG(PLIC_ENABLE_OFFSET) |= (1 << (IRQ_GPIO + gpio));
200111a4:	0c0027b7          	lui	a5,0xc002
200111a8:	4398                	lw	a4,0(a5)
200111aa:	fec42783          	lw	a5,-20(s0)
200111ae:	07a1                	addi	a5,a5,8
200111b0:	4685                	li	a3,1
200111b2:	00f697b3          	sll	a5,a3,a5
200111b6:	86be                	mv	a3,a5
200111b8:	0c0027b7          	lui	a5,0xc002
200111bc:	8f55                	or	a4,a4,a3
200111be:	c398                	sw	a4,0(a5)
/home/nicoladgg/wsFreedomStudio/SiFive_HiFive_RevB_Projects/src/main.c:41
    PLIC_REG(PLIC_PRIORITY_OFFSET + 4 * (IRQ_GPIO + gpio)) = 7;
200111c0:	fec42703          	lw	a4,-20(s0)
200111c4:	030007b7          	lui	a5,0x3000
200111c8:	07a1                	addi	a5,a5,8
200111ca:	97ba                	add	a5,a5,a4
200111cc:	078a                	slli	a5,a5,0x2
200111ce:	873e                	mv	a4,a5
200111d0:	479d                	li	a5,7
200111d2:	c31c                	sw	a5,0(a4)
/home/nicoladgg/wsFreedomStudio/SiFive_HiFive_RevB_Projects/src/main.c:42
	GPIO_REG(GPIO_FALL_IE) |= (1 << gpio);
200111d4:	100127b7          	lui	a5,0x10012
200111d8:	02078793          	addi	a5,a5,32 # 10012020 <metal_segment_itim_target_end+0x8012020>
200111dc:	4398                	lw	a4,0(a5)
200111de:	fec42783          	lw	a5,-20(s0)
200111e2:	4685                	li	a3,1
200111e4:	00f697b3          	sll	a5,a3,a5
200111e8:	86be                	mv	a3,a5
200111ea:	100127b7          	lui	a5,0x10012
200111ee:	02078793          	addi	a5,a5,32 # 10012020 <metal_segment_itim_target_end+0x8012020>
200111f2:	8f55                	or	a4,a4,a3
200111f4:	c398                	sw	a4,0(a5)
/home/nicoladgg/wsFreedomStudio/SiFive_HiFive_RevB_Projects/src/main.c:48

    //rtc_next_wake_time(RTC_FREQ);

    while (1)
    {
    	if(taken)
200111f6:	800007b7          	lui	a5,0x80000
200111fa:	4b07a783          	lw	a5,1200(a5) # 800004b0 <__global_pointer$+0xfffff828>
200111fe:	dfe5                	beqz	a5,200111f6 <main+0x102>
/home/nicoladgg/wsFreedomStudio/SiFive_HiFive_RevB_Projects/src/main.c:50
    	{
    		GPIO_REG(GPIO_OUTPUT_VAL) ^= (1 << variant_pin_map[3].bit_pos);
20011200:	100127b7          	lui	a5,0x10012
20011204:	07b1                	addi	a5,a5,12
20011206:	4398                	lw	a4,0(a5)
20011208:	47cd                	li	a5,19
2001120a:	86be                	mv	a3,a5
2001120c:	4785                	li	a5,1
2001120e:	00d797b3          	sll	a5,a5,a3
20011212:	86be                	mv	a3,a5
20011214:	100127b7          	lui	a5,0x10012
20011218:	07b1                	addi	a5,a5,12
2001121a:	8f35                	xor	a4,a4,a3
2001121c:	c398                	sw	a4,0(a5)
/home/nicoladgg/wsFreedomStudio/SiFive_HiFive_RevB_Projects/src/main.c:51
    		taken = 0;
2001121e:	800007b7          	lui	a5,0x80000
20011222:	4a07a823          	sw	zero,1200(a5) # 800004b0 <__global_pointer$+0xfffff828>
/home/nicoladgg/wsFreedomStudio/SiFive_HiFive_RevB_Projects/src/main.c:52
    		interrupt_enable();
20011226:	3955                	jal	20010eda <interrupt_enable>
/home/nicoladgg/wsFreedomStudio/SiFive_HiFive_RevB_Projects/src/main.c:53
    		plic_interrupt_enable();
20011228:	3ee1                	jal	20010e00 <plic_interrupt_enable>
/home/nicoladgg/wsFreedomStudio/SiFive_HiFive_RevB_Projects/src/main.c:54
    		PLIC_REG(PLIC_ENABLE_OFFSET) |= (1 << (IRQ_GPIO + gpio));
2001122a:	0c0027b7          	lui	a5,0xc002
2001122e:	4398                	lw	a4,0(a5)
20011230:	fec42783          	lw	a5,-20(s0)
20011234:	07a1                	addi	a5,a5,8
20011236:	4685                	li	a3,1
20011238:	00f697b3          	sll	a5,a3,a5
2001123c:	86be                	mv	a3,a5
2001123e:	0c0027b7          	lui	a5,0xc002
20011242:	8f55                	or	a4,a4,a3
20011244:	c398                	sw	a4,0(a5)
/home/nicoladgg/wsFreedomStudio/SiFive_HiFive_RevB_Projects/src/main.c:55
    		PLIC_REG(PLIC_PRIORITY_OFFSET + 4 * (IRQ_GPIO + gpio)) = 7;
20011246:	fec42703          	lw	a4,-20(s0)
2001124a:	030007b7          	lui	a5,0x3000
2001124e:	07a1                	addi	a5,a5,8
20011250:	97ba                	add	a5,a5,a4
20011252:	078a                	slli	a5,a5,0x2
20011254:	873e                	mv	a4,a5
20011256:	479d                	li	a5,7
20011258:	c31c                	sw	a5,0(a4)
/home/nicoladgg/wsFreedomStudio/SiFive_HiFive_RevB_Projects/src/main.c:56
    		GPIO_REG(GPIO_FALL_IE) |= (1 << gpio);
2001125a:	100127b7          	lui	a5,0x10012
2001125e:	02078793          	addi	a5,a5,32 # 10012020 <metal_segment_itim_target_end+0x8012020>
20011262:	4398                	lw	a4,0(a5)
20011264:	fec42783          	lw	a5,-20(s0)
20011268:	4685                	li	a3,1
2001126a:	00f697b3          	sll	a5,a3,a5
2001126e:	86be                	mv	a3,a5
20011270:	100127b7          	lui	a5,0x10012
20011274:	02078793          	addi	a5,a5,32 # 10012020 <metal_segment_itim_target_end+0x8012020>
20011278:	8f55                	or	a4,a4,a3
2001127a:	c398                	sw	a4,0(a5)
/home/nicoladgg/wsFreedomStudio/SiFive_HiFive_RevB_Projects/src/main.c:48
    	if(taken)
2001127c:	bfad                	j	200111f6 <main+0x102>

2001127e <clint_timer_interrupt_handler>:
clint_timer_interrupt_handler():
/home/nicoladgg/wsFreedomStudio/SiFive_HiFive_RevB_Projects/src/main.c:73
	    taken = 0;
	}
}

void clint_timer_interrupt_handler()
{
2001127e:	1141                	addi	sp,sp,-16
20011280:	c606                	sw	ra,12(sp)
20011282:	c422                	sw	s0,8(sp)
20011284:	0800                	addi	s0,sp,16
/home/nicoladgg/wsFreedomStudio/SiFive_HiFive_RevB_Projects/src/main.c:74
    rtc_next_wake_time(2 * RTC_FREQ);
20011286:	6541                	lui	a0,0x10
20011288:	4581                	li	a1,0
2001128a:	3b55                	jal	2001103e <rtc_next_wake_time>
/home/nicoladgg/wsFreedomStudio/SiFive_HiFive_RevB_Projects/src/main.c:75
    taken = 1;
2001128c:	800007b7          	lui	a5,0x80000
20011290:	4705                	li	a4,1
20011292:	4ae7a823          	sw	a4,1200(a5) # 800004b0 <__global_pointer$+0xfffff828>
/home/nicoladgg/wsFreedomStudio/SiFive_HiFive_RevB_Projects/src/main.c:76
}
20011296:	0001                	nop
20011298:	40b2                	lw	ra,12(sp)
2001129a:	4422                	lw	s0,8(sp)
2001129c:	0141                	addi	sp,sp,16
2001129e:	8082                	ret

200112a0 <handler>:
handler():
/home/nicoladgg/wsFreedomStudio/SiFive_HiFive_RevB_Projects/src/main.c:79

void handler()
{
200112a0:	1141                	addi	sp,sp,-16
200112a2:	c622                	sw	s0,12(sp)
200112a4:	0800                	addi	s0,sp,16
/home/nicoladgg/wsFreedomStudio/SiFive_HiFive_RevB_Projects/src/main.c:80
    PLIC_REG(PLIC_ENABLE_OFFSET) &= ~(1 << (IRQ_GPIO + 23));
200112a6:	0c0027b7          	lui	a5,0xc002
200112aa:	4394                	lw	a3,0(a5)
200112ac:	0c0027b7          	lui	a5,0xc002
200112b0:	80000737          	lui	a4,0x80000
200112b4:	fff74713          	not	a4,a4
200112b8:	8f75                	and	a4,a4,a3
200112ba:	c398                	sw	a4,0(a5)
/home/nicoladgg/wsFreedomStudio/SiFive_HiFive_RevB_Projects/src/main.c:81
	taken = GPIO_REG(GPIO_FALL_IP);
200112bc:	100127b7          	lui	a5,0x10012
200112c0:	02478793          	addi	a5,a5,36 # 10012024 <metal_segment_itim_target_end+0x8012024>
200112c4:	439c                	lw	a5,0(a5)
200112c6:	873e                	mv	a4,a5
200112c8:	800007b7          	lui	a5,0x80000
200112cc:	4ae7a823          	sw	a4,1200(a5) # 800004b0 <__global_pointer$+0xfffff828>
/home/nicoladgg/wsFreedomStudio/SiFive_HiFive_RevB_Projects/src/main.c:82
	GPIO_REG(GPIO_FALL_IP) = taken;
200112d0:	800007b7          	lui	a5,0x80000
200112d4:	4b07a703          	lw	a4,1200(a5) # 800004b0 <__global_pointer$+0xfffff828>
200112d8:	100127b7          	lui	a5,0x10012
200112dc:	02478793          	addi	a5,a5,36 # 10012024 <metal_segment_itim_target_end+0x8012024>
200112e0:	c398                	sw	a4,0(a5)
/home/nicoladgg/wsFreedomStudio/SiFive_HiFive_RevB_Projects/src/main.c:83
    PLIC_REG(PLIC_ENABLE_OFFSET) |= (1 << (IRQ_GPIO + 23));
200112e2:	0c0027b7          	lui	a5,0xc002
200112e6:	4394                	lw	a3,0(a5)
200112e8:	0c0027b7          	lui	a5,0xc002
200112ec:	80000737          	lui	a4,0x80000
200112f0:	8f55                	or	a4,a4,a3
200112f2:	c398                	sw	a4,0(a5)
/home/nicoladgg/wsFreedomStudio/SiFive_HiFive_RevB_Projects/src/main.c:84
}
200112f4:	0001                	nop
200112f6:	4432                	lw	s0,12(sp)
200112f8:	0141                	addi	sp,sp,16
200112fa:	8082                	ret

200112fc <atexit>:
atexit():
200112fc:	85aa                	mv	a1,a0
200112fe:	4681                	li	a3,0
20011300:	4601                	li	a2,0
20011302:	4501                	li	a0,0
20011304:	a0c1                	j	200113c4 <__register_exitproc>

20011306 <exit>:
exit():
20011306:	1141                	addi	sp,sp,-16
20011308:	c422                	sw	s0,8(sp)
2001130a:	c606                	sw	ra,12(sp)
2001130c:	00000797          	auipc	a5,0x0
20011310:	13478793          	addi	a5,a5,308 # 20011440 <__call_exitprocs>
20011314:	842a                	mv	s0,a0
20011316:	c399                	beqz	a5,2001131c <exit+0x16>
20011318:	4581                	li	a1,0
2001131a:	221d                	jal	20011440 <__call_exitprocs>
2001131c:	00000517          	auipc	a0,0x0
20011320:	a5452503          	lw	a0,-1452(a0) # 20010d70 <_global_impure_ptr>
20011324:	551c                	lw	a5,40(a0)
20011326:	c391                	beqz	a5,2001132a <exit+0x24>
20011328:	9782                	jalr	a5
2001132a:	8522                	mv	a0,s0
2001132c:	785020ef          	jal	ra,200142b0 <_exit>

20011330 <__libc_fini_array>:
__libc_fini_array():
20011330:	1141                	addi	sp,sp,-16
20011332:	c422                	sw	s0,8(sp)
20011334:	c226                	sw	s1,4(sp)
20011336:	fffff417          	auipc	s0,0xfffff
2001133a:	fb240413          	addi	s0,s0,-78 # 200102e8 <metal_sifive_fe310_g000_pll_init>
2001133e:	fffff497          	auipc	s1,0xfffff
20011342:	faa48493          	addi	s1,s1,-86 # 200102e8 <metal_sifive_fe310_g000_pll_init>
20011346:	8c05                	sub	s0,s0,s1
20011348:	c606                	sw	ra,12(sp)
2001134a:	8409                	srai	s0,s0,0x2
2001134c:	e411                	bnez	s0,20011358 <__libc_fini_array+0x28>
2001134e:	40b2                	lw	ra,12(sp)
20011350:	4422                	lw	s0,8(sp)
20011352:	4492                	lw	s1,4(sp)
20011354:	0141                	addi	sp,sp,16
20011356:	8082                	ret
20011358:	147d                	addi	s0,s0,-1
2001135a:	00241793          	slli	a5,s0,0x2
2001135e:	97a6                	add	a5,a5,s1
20011360:	439c                	lw	a5,0(a5)
20011362:	9782                	jalr	a5
20011364:	b7e5                	j	2001134c <__libc_fini_array+0x1c>

20011366 <__libc_init_array>:
__libc_init_array():
20011366:	1141                	addi	sp,sp,-16
20011368:	c422                	sw	s0,8(sp)
2001136a:	c226                	sw	s1,4(sp)
2001136c:	fffff417          	auipc	s0,0xfffff
20011370:	f7440413          	addi	s0,s0,-140 # 200102e0 <_metal_sifive_fe310_g000_pll_init_ptr>
20011374:	fffff497          	auipc	s1,0xfffff
20011378:	f6c48493          	addi	s1,s1,-148 # 200102e0 <_metal_sifive_fe310_g000_pll_init_ptr>
2001137c:	8c81                	sub	s1,s1,s0
2001137e:	c04a                	sw	s2,0(sp)
20011380:	c606                	sw	ra,12(sp)
20011382:	8489                	srai	s1,s1,0x2
20011384:	4901                	li	s2,0
20011386:	02991563          	bne	s2,s1,200113b0 <__libc_init_array+0x4a>
2001138a:	fffff417          	auipc	s0,0xfffff
2001138e:	f5640413          	addi	s0,s0,-170 # 200102e0 <_metal_sifive_fe310_g000_pll_init_ptr>
20011392:	fffff497          	auipc	s1,0xfffff
20011396:	f4e48493          	addi	s1,s1,-178 # 200102e0 <_metal_sifive_fe310_g000_pll_init_ptr>
2001139a:	8c81                	sub	s1,s1,s0
2001139c:	8489                	srai	s1,s1,0x2
2001139e:	4901                	li	s2,0
200113a0:	00991d63          	bne	s2,s1,200113ba <__libc_init_array+0x54>
200113a4:	40b2                	lw	ra,12(sp)
200113a6:	4422                	lw	s0,8(sp)
200113a8:	4492                	lw	s1,4(sp)
200113aa:	4902                	lw	s2,0(sp)
200113ac:	0141                	addi	sp,sp,16
200113ae:	8082                	ret
200113b0:	401c                	lw	a5,0(s0)
200113b2:	0905                	addi	s2,s2,1
200113b4:	0411                	addi	s0,s0,4
200113b6:	9782                	jalr	a5
200113b8:	b7f9                	j	20011386 <__libc_init_array+0x20>
200113ba:	401c                	lw	a5,0(s0)
200113bc:	0905                	addi	s2,s2,1
200113be:	0411                	addi	s0,s0,4
200113c0:	9782                	jalr	a5
200113c2:	bff9                	j	200113a0 <__libc_init_array+0x3a>

200113c4 <__register_exitproc>:
__register_exitproc():
200113c4:	88aa                	mv	a7,a0
200113c6:	5ffef517          	auipc	a0,0x5ffef
200113ca:	0ee50513          	addi	a0,a0,238 # 800004b4 <_global_atexit>
200113ce:	411c                	lw	a5,0(a0)
200113d0:	ef91                	bnez	a5,200113ec <__register_exitproc+0x28>
200113d2:	5ffef717          	auipc	a4,0x5ffef
200113d6:	0ee70713          	addi	a4,a4,238 # 800004c0 <_global_atexit0>
200113da:	c118                	sw	a4,0(a0)
200113dc:	00000513          	li	a0,0
200113e0:	87ba                	mv	a5,a4
200113e2:	c509                	beqz	a0,200113ec <__register_exitproc+0x28>
200113e4:	411c                	lw	a5,0(a0)
200113e6:	08f72423          	sw	a5,136(a4)
200113ea:	87ba                	mv	a5,a4
200113ec:	43d8                	lw	a4,4(a5)
200113ee:	487d                	li	a6,31
200113f0:	557d                	li	a0,-1
200113f2:	04e84663          	blt	a6,a4,2001143e <__register_exitproc+0x7a>
200113f6:	02088d63          	beqz	a7,20011430 <__register_exitproc+0x6c>
200113fa:	0887a803          	lw	a6,136(a5)
200113fe:	04080063          	beqz	a6,2001143e <__register_exitproc+0x7a>
20011402:	00271513          	slli	a0,a4,0x2
20011406:	9542                	add	a0,a0,a6
20011408:	c110                	sw	a2,0(a0)
2001140a:	10082303          	lw	t1,256(a6)
2001140e:	4605                	li	a2,1
20011410:	00e61633          	sll	a2,a2,a4
20011414:	00c36333          	or	t1,t1,a2
20011418:	10682023          	sw	t1,256(a6)
2001141c:	08d52023          	sw	a3,128(a0)
20011420:	4689                	li	a3,2
20011422:	00d89763          	bne	a7,a3,20011430 <__register_exitproc+0x6c>
20011426:	10482683          	lw	a3,260(a6)
2001142a:	8e55                	or	a2,a2,a3
2001142c:	10c82223          	sw	a2,260(a6)
20011430:	00170693          	addi	a3,a4,1
20011434:	070a                	slli	a4,a4,0x2
20011436:	c3d4                	sw	a3,4(a5)
20011438:	97ba                	add	a5,a5,a4
2001143a:	c78c                	sw	a1,8(a5)
2001143c:	4501                	li	a0,0
2001143e:	8082                	ret

20011440 <__call_exitprocs>:
__call_exitprocs():
20011440:	7179                	addi	sp,sp,-48
20011442:	ca56                	sw	s5,20(sp)
20011444:	c85a                	sw	s6,16(sp)
20011446:	c65e                	sw	s7,12(sp)
20011448:	c462                	sw	s8,8(sp)
2001144a:	d606                	sw	ra,44(sp)
2001144c:	d422                	sw	s0,40(sp)
2001144e:	d226                	sw	s1,36(sp)
20011450:	d04a                	sw	s2,32(sp)
20011452:	ce4e                	sw	s3,28(sp)
20011454:	cc52                	sw	s4,24(sp)
20011456:	c266                	sw	s9,4(sp)
20011458:	8b2a                	mv	s6,a0
2001145a:	8aae                	mv	s5,a1
2001145c:	5ffefb97          	auipc	s7,0x5ffef
20011460:	058b8b93          	addi	s7,s7,88 # 800004b4 <_global_atexit>
20011464:	4c05                	li	s8,1
20011466:	000ba483          	lw	s1,0(s7)
2001146a:	cc81                	beqz	s1,20011482 <__call_exitprocs+0x42>
2001146c:	40c0                	lw	s0,4(s1)
2001146e:	0884a983          	lw	s3,136(s1)
20011472:	fff40913          	addi	s2,s0,-1
20011476:	040a                	slli	s0,s0,0x2
20011478:	00898a33          	add	s4,s3,s0
2001147c:	9426                	add	s0,s0,s1
2001147e:	00095f63          	bgez	s2,2001149c <__call_exitprocs+0x5c>
20011482:	50b2                	lw	ra,44(sp)
20011484:	5422                	lw	s0,40(sp)
20011486:	5492                	lw	s1,36(sp)
20011488:	5902                	lw	s2,32(sp)
2001148a:	49f2                	lw	s3,28(sp)
2001148c:	4a62                	lw	s4,24(sp)
2001148e:	4ad2                	lw	s5,20(sp)
20011490:	4b42                	lw	s6,16(sp)
20011492:	4bb2                	lw	s7,12(sp)
20011494:	4c22                	lw	s8,8(sp)
20011496:	4c92                	lw	s9,4(sp)
20011498:	6145                	addi	sp,sp,48
2001149a:	8082                	ret
2001149c:	000a8c63          	beqz	s5,200114b4 <__call_exitprocs+0x74>
200114a0:	00099663          	bnez	s3,200114ac <__call_exitprocs+0x6c>
200114a4:	197d                	addi	s2,s2,-1
200114a6:	1a71                	addi	s4,s4,-4
200114a8:	1471                	addi	s0,s0,-4
200114aa:	bfd1                	j	2001147e <__call_exitprocs+0x3e>
200114ac:	07ca2783          	lw	a5,124(s4)
200114b0:	ff579ae3          	bne	a5,s5,200114a4 <__call_exitprocs+0x64>
200114b4:	40d8                	lw	a4,4(s1)
200114b6:	405c                	lw	a5,4(s0)
200114b8:	177d                	addi	a4,a4,-1
200114ba:	03271863          	bne	a4,s2,200114ea <__call_exitprocs+0xaa>
200114be:	0124a223          	sw	s2,4(s1)
200114c2:	d3ed                	beqz	a5,200114a4 <__call_exitprocs+0x64>
200114c4:	0044ac83          	lw	s9,4(s1)
200114c8:	00098863          	beqz	s3,200114d8 <__call_exitprocs+0x98>
200114cc:	1009a683          	lw	a3,256(s3)
200114d0:	012c1733          	sll	a4,s8,s2
200114d4:	8ef9                	and	a3,a3,a4
200114d6:	ee89                	bnez	a3,200114f0 <__call_exitprocs+0xb0>
200114d8:	9782                	jalr	a5
200114da:	40d8                	lw	a4,4(s1)
200114dc:	000ba783          	lw	a5,0(s7)
200114e0:	f99713e3          	bne	a4,s9,20011466 <__call_exitprocs+0x26>
200114e4:	fcf480e3          	beq	s1,a5,200114a4 <__call_exitprocs+0x64>
200114e8:	bfbd                	j	20011466 <__call_exitprocs+0x26>
200114ea:	00042223          	sw	zero,4(s0)
200114ee:	bfd1                	j	200114c2 <__call_exitprocs+0x82>
200114f0:	1049a683          	lw	a3,260(s3)
200114f4:	ffca2583          	lw	a1,-4(s4)
200114f8:	8f75                	and	a4,a4,a3
200114fa:	e701                	bnez	a4,20011502 <__call_exitprocs+0xc2>
200114fc:	855a                	mv	a0,s6
200114fe:	9782                	jalr	a5
20011500:	bfe9                	j	200114da <__call_exitprocs+0x9a>
20011502:	852e                	mv	a0,a1
20011504:	9782                	jalr	a5
20011506:	bfd1                	j	200114da <__call_exitprocs+0x9a>

20011508 <metal_init>:
metal_init():
/home/nicoladgg/wsFreedomStudio/sifive_hifive1_revb_hello/freedom-metal/src/init.c:17
20011508:	1101                	addi	sp,sp,-32
2001150a:	ce06                	sw	ra,28(sp)
2001150c:	cc22                	sw	s0,24(sp)
2001150e:	1000                	addi	s0,sp,32
/home/nicoladgg/wsFreedomStudio/sifive_hifive1_revb_hello/freedom-metal/src/init.c:20
20011510:	800007b7          	lui	a5,0x80000
20011514:	4b87a783          	lw	a5,1208(a5) # 800004b8 <__global_pointer$+0xfffff830>
20011518:	efa9                	bnez	a5,20011572 <metal_init+0x6a>
/home/nicoladgg/wsFreedomStudio/sifive_hifive1_revb_hello/freedom-metal/src/init.c:23
2001151a:	800007b7          	lui	a5,0x80000
2001151e:	4705                	li	a4,1
20011520:	4ae7ac23          	sw	a4,1208(a5) # 800004b8 <__global_pointer$+0xfffff830>
/home/nicoladgg/wsFreedomStudio/sifive_hifive1_revb_hello/freedom-metal/src/init.c:25
20011524:	200107b7          	lui	a5,0x20010
20011528:	2e878713          	addi	a4,a5,744 # 200102e8 <metal_sifive_fe310_g000_pll_init>
2001152c:	200107b7          	lui	a5,0x20010
20011530:	2e078793          	addi	a5,a5,736 # 200102e0 <_metal_sifive_fe310_g000_pll_init_ptr>
20011534:	04e7f163          	bgeu	a5,a4,20011576 <metal_init+0x6e>
/home/nicoladgg/wsFreedomStudio/sifive_hifive1_revb_hello/freedom-metal/src/init.c:29
20011538:	200107b7          	lui	a5,0x20010
2001153c:	2e078793          	addi	a5,a5,736 # 200102e0 <_metal_sifive_fe310_g000_pll_init_ptr>
20011540:	fef42623          	sw	a5,-20(s0)
/home/nicoladgg/wsFreedomStudio/sifive_hifive1_revb_hello/freedom-metal/src/init.c:30
20011544:	a831                	j	20011560 <metal_init+0x58>
/home/nicoladgg/wsFreedomStudio/sifive_hifive1_revb_hello/freedom-metal/src/init.c:31
20011546:	fec42783          	lw	a5,-20(s0)
2001154a:	439c                	lw	a5,0(a5)
2001154c:	fef42423          	sw	a5,-24(s0)
/home/nicoladgg/wsFreedomStudio/sifive_hifive1_revb_hello/freedom-metal/src/init.c:33
20011550:	fe842783          	lw	a5,-24(s0)
20011554:	9782                	jalr	a5
/home/nicoladgg/wsFreedomStudio/sifive_hifive1_revb_hello/freedom-metal/src/init.c:35
20011556:	fec42783          	lw	a5,-20(s0)
2001155a:	0791                	addi	a5,a5,4
2001155c:	fef42623          	sw	a5,-20(s0)
/home/nicoladgg/wsFreedomStudio/sifive_hifive1_revb_hello/freedom-metal/src/init.c:30
20011560:	fec42703          	lw	a4,-20(s0)
20011564:	200107b7          	lui	a5,0x20010
20011568:	2e878793          	addi	a5,a5,744 # 200102e8 <metal_sifive_fe310_g000_pll_init>
2001156c:	fcf71de3          	bne	a4,a5,20011546 <metal_init+0x3e>
20011570:	a021                	j	20011578 <metal_init+0x70>
/home/nicoladgg/wsFreedomStudio/sifive_hifive1_revb_hello/freedom-metal/src/init.c:21
20011572:	0001                	nop
20011574:	a011                	j	20011578 <metal_init+0x70>
/home/nicoladgg/wsFreedomStudio/sifive_hifive1_revb_hello/freedom-metal/src/init.c:26
20011576:	0001                	nop
/home/nicoladgg/wsFreedomStudio/sifive_hifive1_revb_hello/freedom-metal/src/init.c:37
20011578:	40f2                	lw	ra,28(sp)
2001157a:	4462                	lw	s0,24(sp)
2001157c:	6105                	addi	sp,sp,32
2001157e:	8082                	ret

20011580 <metal_fini>:
metal_fini():
/home/nicoladgg/wsFreedomStudio/sifive_hifive1_revb_hello/freedom-metal/src/init.c:39
20011580:	1101                	addi	sp,sp,-32
20011582:	ce06                	sw	ra,28(sp)
20011584:	cc22                	sw	s0,24(sp)
20011586:	1000                	addi	s0,sp,32
/home/nicoladgg/wsFreedomStudio/sifive_hifive1_revb_hello/freedom-metal/src/init.c:42
20011588:	800007b7          	lui	a5,0x80000
2001158c:	4bc7a783          	lw	a5,1212(a5) # 800004bc <__global_pointer$+0xfffff834>
20011590:	efa9                	bnez	a5,200115ea <metal_fini+0x6a>
/home/nicoladgg/wsFreedomStudio/sifive_hifive1_revb_hello/freedom-metal/src/init.c:45
20011592:	800007b7          	lui	a5,0x80000
20011596:	4705                	li	a4,1
20011598:	4ae7ae23          	sw	a4,1212(a5) # 800004bc <__global_pointer$+0xfffff834>
/home/nicoladgg/wsFreedomStudio/sifive_hifive1_revb_hello/freedom-metal/src/init.c:47
2001159c:	200107b7          	lui	a5,0x20010
200115a0:	2e878713          	addi	a4,a5,744 # 200102e8 <metal_sifive_fe310_g000_pll_init>
200115a4:	200107b7          	lui	a5,0x20010
200115a8:	2e878793          	addi	a5,a5,744 # 200102e8 <metal_sifive_fe310_g000_pll_init>
200115ac:	04e7f163          	bgeu	a5,a4,200115ee <metal_fini+0x6e>
/home/nicoladgg/wsFreedomStudio/sifive_hifive1_revb_hello/freedom-metal/src/init.c:51
200115b0:	200107b7          	lui	a5,0x20010
200115b4:	2e878793          	addi	a5,a5,744 # 200102e8 <metal_sifive_fe310_g000_pll_init>
200115b8:	fef42623          	sw	a5,-20(s0)
/home/nicoladgg/wsFreedomStudio/sifive_hifive1_revb_hello/freedom-metal/src/init.c:52
200115bc:	a831                	j	200115d8 <metal_fini+0x58>
/home/nicoladgg/wsFreedomStudio/sifive_hifive1_revb_hello/freedom-metal/src/init.c:53
200115be:	fec42783          	lw	a5,-20(s0)
200115c2:	439c                	lw	a5,0(a5)
200115c4:	fef42423          	sw	a5,-24(s0)
/home/nicoladgg/wsFreedomStudio/sifive_hifive1_revb_hello/freedom-metal/src/init.c:55
200115c8:	fe842783          	lw	a5,-24(s0)
200115cc:	9782                	jalr	a5
/home/nicoladgg/wsFreedomStudio/sifive_hifive1_revb_hello/freedom-metal/src/init.c:57
200115ce:	fec42783          	lw	a5,-20(s0)
200115d2:	0791                	addi	a5,a5,4
200115d4:	fef42623          	sw	a5,-20(s0)
/home/nicoladgg/wsFreedomStudio/sifive_hifive1_revb_hello/freedom-metal/src/init.c:52
200115d8:	fec42703          	lw	a4,-20(s0)
200115dc:	200107b7          	lui	a5,0x20010
200115e0:	2e878793          	addi	a5,a5,744 # 200102e8 <metal_sifive_fe310_g000_pll_init>
200115e4:	fcf71de3          	bne	a4,a5,200115be <metal_fini+0x3e>
200115e8:	a021                	j	200115f0 <metal_fini+0x70>
/home/nicoladgg/wsFreedomStudio/sifive_hifive1_revb_hello/freedom-metal/src/init.c:43
200115ea:	0001                	nop
200115ec:	a011                	j	200115f0 <metal_fini+0x70>
/home/nicoladgg/wsFreedomStudio/sifive_hifive1_revb_hello/freedom-metal/src/init.c:48
200115ee:	0001                	nop
/home/nicoladgg/wsFreedomStudio/sifive_hifive1_revb_hello/freedom-metal/src/init.c:59
200115f0:	40f2                	lw	ra,28(sp)
200115f2:	4462                	lw	s0,24(sp)
200115f4:	6105                	addi	sp,sp,32
200115f6:	8082                	ret

200115f8 <metal_init_run>:
metal_init_run():
/home/nicoladgg/wsFreedomStudio/sifive_hifive1_revb_hello/freedom-metal/src/init.c:69
200115f8:	1141                	addi	sp,sp,-16
200115fa:	c606                	sw	ra,12(sp)
200115fc:	c422                	sw	s0,8(sp)
200115fe:	0800                	addi	s0,sp,16
20011600:	3721                	jal	20011508 <metal_init>
20011602:	0001                	nop
20011604:	40b2                	lw	ra,12(sp)
20011606:	4422                	lw	s0,8(sp)
20011608:	0141                	addi	sp,sp,16
2001160a:	8082                	ret

2001160c <metal_fini_run>:
metal_fini_run():
/home/nicoladgg/wsFreedomStudio/sifive_hifive1_revb_hello/freedom-metal/src/init.c:72
2001160c:	1141                	addi	sp,sp,-16
2001160e:	c606                	sw	ra,12(sp)
20011610:	c422                	sw	s0,8(sp)
20011612:	0800                	addi	s0,sp,16
20011614:	37b5                	jal	20011580 <metal_fini>
20011616:	0001                	nop
20011618:	40b2                	lw	ra,12(sp)
2001161a:	4422                	lw	s0,8(sp)
2001161c:	0141                	addi	sp,sp,16
2001161e:	8082                	ret

20011620 <__metal_driver_sifive_clint0_control_base>:
__metal_driver_sifive_clint0_control_base():
/home/nicoladgg/wsFreedomStudio/sifive_hifive1_revb_hello/bsp/build/debug/./metal/machine.h:233
20011620:	1101                	addi	sp,sp,-32
20011622:	ce22                	sw	s0,28(sp)
20011624:	1000                	addi	s0,sp,32
20011626:	fea42623          	sw	a0,-20(s0)
/home/nicoladgg/wsFreedomStudio/sifive_hifive1_revb_hello/bsp/build/debug/./metal/machine.h:234
2001162a:	fec42703          	lw	a4,-20(s0)
2001162e:	81018793          	addi	a5,gp,-2032 # 80000498 <__metal_dt_clint_2000000>
20011632:	00f71563          	bne	a4,a5,2001163c <__metal_driver_sifive_clint0_control_base+0x1c>
/home/nicoladgg/wsFreedomStudio/sifive_hifive1_revb_hello/bsp/build/debug/./metal/machine.h:235
20011636:	020007b7          	lui	a5,0x2000
2001163a:	a011                	j	2001163e <__metal_driver_sifive_clint0_control_base+0x1e>
/home/nicoladgg/wsFreedomStudio/sifive_hifive1_revb_hello/bsp/build/debug/./metal/machine.h:238
2001163c:	4781                	li	a5,0
/home/nicoladgg/wsFreedomStudio/sifive_hifive1_revb_hello/bsp/build/debug/./metal/machine.h:240
2001163e:	853e                	mv	a0,a5
20011640:	4472                	lw	s0,28(sp)
20011642:	6105                	addi	sp,sp,32
20011644:	8082                	ret

20011646 <__metal_driver_sifive_clint0_num_interrupts>:
__metal_driver_sifive_clint0_num_interrupts():
/home/nicoladgg/wsFreedomStudio/sifive_hifive1_revb_hello/bsp/build/debug/./metal/machine.h:253
20011646:	1101                	addi	sp,sp,-32
20011648:	ce22                	sw	s0,28(sp)
2001164a:	1000                	addi	s0,sp,32
2001164c:	fea42623          	sw	a0,-20(s0)
/home/nicoladgg/wsFreedomStudio/sifive_hifive1_revb_hello/bsp/build/debug/./metal/machine.h:254
20011650:	fec42703          	lw	a4,-20(s0)
20011654:	81018793          	addi	a5,gp,-2032 # 80000498 <__metal_dt_clint_2000000>
20011658:	00f71463          	bne	a4,a5,20011660 <__metal_driver_sifive_clint0_num_interrupts+0x1a>
/home/nicoladgg/wsFreedomStudio/sifive_hifive1_revb_hello/bsp/build/debug/./metal/machine.h:255
2001165c:	4789                	li	a5,2
2001165e:	a011                	j	20011662 <__metal_driver_sifive_clint0_num_interrupts+0x1c>
/home/nicoladgg/wsFreedomStudio/sifive_hifive1_revb_hello/bsp/build/debug/./metal/machine.h:258
20011660:	4781                	li	a5,0
/home/nicoladgg/wsFreedomStudio/sifive_hifive1_revb_hello/bsp/build/debug/./metal/machine.h:260
20011662:	853e                	mv	a0,a5
20011664:	4472                	lw	s0,28(sp)
20011666:	6105                	addi	sp,sp,32
20011668:	8082                	ret

2001166a <__metal_driver_sifive_clint0_interrupt_parents>:
__metal_driver_sifive_clint0_interrupt_parents():
/home/nicoladgg/wsFreedomStudio/sifive_hifive1_revb_hello/bsp/build/debug/./metal/machine.h:263
2001166a:	1101                	addi	sp,sp,-32
2001166c:	ce22                	sw	s0,28(sp)
2001166e:	1000                	addi	s0,sp,32
20011670:	fea42623          	sw	a0,-20(s0)
20011674:	feb42423          	sw	a1,-24(s0)
/home/nicoladgg/wsFreedomStudio/sifive_hifive1_revb_hello/bsp/build/debug/./metal/machine.h:264
20011678:	fe842783          	lw	a5,-24(s0)
2001167c:	e791                	bnez	a5,20011688 <__metal_driver_sifive_clint0_interrupt_parents+0x1e>
/home/nicoladgg/wsFreedomStudio/sifive_hifive1_revb_hello/bsp/build/debug/./metal/machine.h:265
2001167e:	800007b7          	lui	a5,0x80000
20011682:	09078793          	addi	a5,a5,144 # 80000090 <__global_pointer$+0xfffff408>
20011686:	a821                	j	2001169e <__metal_driver_sifive_clint0_interrupt_parents+0x34>
/home/nicoladgg/wsFreedomStudio/sifive_hifive1_revb_hello/bsp/build/debug/./metal/machine.h:267
20011688:	fe842703          	lw	a4,-24(s0)
2001168c:	4785                	li	a5,1
2001168e:	00f71763          	bne	a4,a5,2001169c <__metal_driver_sifive_clint0_interrupt_parents+0x32>
/home/nicoladgg/wsFreedomStudio/sifive_hifive1_revb_hello/bsp/build/debug/./metal/machine.h:268
20011692:	800007b7          	lui	a5,0x80000
20011696:	09078793          	addi	a5,a5,144 # 80000090 <__global_pointer$+0xfffff408>
2001169a:	a011                	j	2001169e <__metal_driver_sifive_clint0_interrupt_parents+0x34>
/home/nicoladgg/wsFreedomStudio/sifive_hifive1_revb_hello/bsp/build/debug/./metal/machine.h:271
2001169c:	4781                	li	a5,0
/home/nicoladgg/wsFreedomStudio/sifive_hifive1_revb_hello/bsp/build/debug/./metal/machine.h:273
2001169e:	853e                	mv	a0,a5
200116a0:	4472                	lw	s0,28(sp)
200116a2:	6105                	addi	sp,sp,32
200116a4:	8082                	ret

200116a6 <__metal_driver_sifive_clint0_interrupt_lines>:
__metal_driver_sifive_clint0_interrupt_lines():
/home/nicoladgg/wsFreedomStudio/sifive_hifive1_revb_hello/bsp/build/debug/./metal/machine.h:276
200116a6:	1101                	addi	sp,sp,-32
200116a8:	ce22                	sw	s0,28(sp)
200116aa:	1000                	addi	s0,sp,32
200116ac:	fea42623          	sw	a0,-20(s0)
200116b0:	feb42423          	sw	a1,-24(s0)
/home/nicoladgg/wsFreedomStudio/sifive_hifive1_revb_hello/bsp/build/debug/./metal/machine.h:277
200116b4:	fe842783          	lw	a5,-24(s0)
200116b8:	e399                	bnez	a5,200116be <__metal_driver_sifive_clint0_interrupt_lines+0x18>
/home/nicoladgg/wsFreedomStudio/sifive_hifive1_revb_hello/bsp/build/debug/./metal/machine.h:278
200116ba:	478d                	li	a5,3
200116bc:	a809                	j	200116ce <__metal_driver_sifive_clint0_interrupt_lines+0x28>
/home/nicoladgg/wsFreedomStudio/sifive_hifive1_revb_hello/bsp/build/debug/./metal/machine.h:280
200116be:	fe842703          	lw	a4,-24(s0)
200116c2:	4785                	li	a5,1
200116c4:	00f71463          	bne	a4,a5,200116cc <__metal_driver_sifive_clint0_interrupt_lines+0x26>
/home/nicoladgg/wsFreedomStudio/sifive_hifive1_revb_hello/bsp/build/debug/./metal/machine.h:281
200116c8:	479d                	li	a5,7
200116ca:	a011                	j	200116ce <__metal_driver_sifive_clint0_interrupt_lines+0x28>
/home/nicoladgg/wsFreedomStudio/sifive_hifive1_revb_hello/bsp/build/debug/./metal/machine.h:284
200116cc:	4781                	li	a5,0
/home/nicoladgg/wsFreedomStudio/sifive_hifive1_revb_hello/bsp/build/debug/./metal/machine.h:286
200116ce:	853e                	mv	a0,a5
200116d0:	4472                	lw	s0,28(sp)
200116d2:	6105                	addi	sp,sp,32
200116d4:	8082                	ret

200116d6 <__metal_clint0_mtime_get>:
__metal_clint0_mtime_get():
/home/nicoladgg/wsFreedomStudio/sifive_hifive1_revb_hello/freedom-metal/src/drivers/riscv_clint0.c:14
200116d6:	715d                	addi	sp,sp,-80
200116d8:	c686                	sw	ra,76(sp)
200116da:	c4a2                	sw	s0,72(sp)
200116dc:	c2ca                	sw	s2,68(sp)
200116de:	c0ce                	sw	s3,64(sp)
200116e0:	de52                	sw	s4,60(sp)
200116e2:	dc56                	sw	s5,56(sp)
200116e4:	da5a                	sw	s6,52(sp)
200116e6:	d85e                	sw	s7,48(sp)
200116e8:	d662                	sw	s8,44(sp)
200116ea:	d466                	sw	s9,40(sp)
200116ec:	0880                	addi	s0,sp,80
200116ee:	faa42e23          	sw	a0,-68(s0)
/home/nicoladgg/wsFreedomStudio/sifive_hifive1_revb_hello/freedom-metal/src/drivers/riscv_clint0.c:17
200116f2:	fbc42783          	lw	a5,-68(s0)
200116f6:	853e                	mv	a0,a5
200116f8:	3725                	jal	20011620 <__metal_driver_sifive_clint0_control_base>
200116fa:	fca42623          	sw	a0,-52(s0)
/home/nicoladgg/wsFreedomStudio/sifive_hifive1_revb_hello/freedom-metal/src/drivers/riscv_clint0.c:21 (discriminator 1)
200116fe:	fcc42703          	lw	a4,-52(s0)
20011702:	67b1                	lui	a5,0xc
20011704:	17f1                	addi	a5,a5,-4
20011706:	97ba                	add	a5,a5,a4
20011708:	439c                	lw	a5,0(a5)
2001170a:	fcf42423          	sw	a5,-56(s0)
/home/nicoladgg/wsFreedomStudio/sifive_hifive1_revb_hello/freedom-metal/src/drivers/riscv_clint0.c:23 (discriminator 1)
2001170e:	fcc42703          	lw	a4,-52(s0)
20011712:	67b1                	lui	a5,0xc
20011714:	17e1                	addi	a5,a5,-8
20011716:	97ba                	add	a5,a5,a4
20011718:	439c                	lw	a5,0(a5)
2001171a:	fcf42223          	sw	a5,-60(s0)
/home/nicoladgg/wsFreedomStudio/sifive_hifive1_revb_hello/freedom-metal/src/drivers/riscv_clint0.c:25 (discriminator 1)
2001171e:	fcc42703          	lw	a4,-52(s0)
20011722:	67b1                	lui	a5,0xc
20011724:	17f1                	addi	a5,a5,-4
20011726:	97ba                	add	a5,a5,a4
20011728:	439c                	lw	a5,0(a5)
2001172a:	fc842703          	lw	a4,-56(s0)
2001172e:	fcf718e3          	bne	a4,a5,200116fe <__metal_clint0_mtime_get+0x28>
/home/nicoladgg/wsFreedomStudio/sifive_hifive1_revb_hello/freedom-metal/src/drivers/riscv_clint0.c:29
20011732:	fc842783          	lw	a5,-56(s0)
20011736:	8c3e                	mv	s8,a5
20011738:	4c81                	li	s9,0
2001173a:	000c1993          	slli	s3,s8,0x0
2001173e:	4901                	li	s2,0
20011740:	fc442783          	lw	a5,-60(s0)
20011744:	8a3e                	mv	s4,a5
20011746:	4a81                	li	s5,0
20011748:	01496b33          	or	s6,s2,s4
2001174c:	0159ebb3          	or	s7,s3,s5
20011750:	875a                	mv	a4,s6
20011752:	87de                	mv	a5,s7
/home/nicoladgg/wsFreedomStudio/sifive_hifive1_revb_hello/freedom-metal/src/drivers/riscv_clint0.c:30
20011754:	853a                	mv	a0,a4
20011756:	85be                	mv	a1,a5
20011758:	40b6                	lw	ra,76(sp)
2001175a:	4426                	lw	s0,72(sp)
2001175c:	4916                	lw	s2,68(sp)
2001175e:	4986                	lw	s3,64(sp)
20011760:	5a72                	lw	s4,60(sp)
20011762:	5ae2                	lw	s5,56(sp)
20011764:	5b52                	lw	s6,52(sp)
20011766:	5bc2                	lw	s7,48(sp)
20011768:	5c32                	lw	s8,44(sp)
2001176a:	5ca2                	lw	s9,40(sp)
2001176c:	6161                	addi	sp,sp,80
2001176e:	8082                	ret

20011770 <__metal_driver_riscv_clint0_mtimecmp_set>:
__metal_driver_riscv_clint0_mtimecmp_set():
/home/nicoladgg/wsFreedomStudio/sifive_hifive1_revb_hello/freedom-metal/src/drivers/riscv_clint0.c:34
20011770:	7179                	addi	sp,sp,-48
20011772:	d606                	sw	ra,44(sp)
20011774:	d422                	sw	s0,40(sp)
20011776:	d24a                	sw	s2,36(sp)
20011778:	d04e                	sw	s3,32(sp)
2001177a:	1800                	addi	s0,sp,48
2001177c:	fca42e23          	sw	a0,-36(s0)
20011780:	fcb42c23          	sw	a1,-40(s0)
20011784:	fcc42823          	sw	a2,-48(s0)
20011788:	fcd42a23          	sw	a3,-44(s0)
/home/nicoladgg/wsFreedomStudio/sifive_hifive1_revb_hello/freedom-metal/src/drivers/riscv_clint0.c:35
2001178c:	fdc42783          	lw	a5,-36(s0)
20011790:	fef42623          	sw	a5,-20(s0)
/home/nicoladgg/wsFreedomStudio/sifive_hifive1_revb_hello/freedom-metal/src/drivers/riscv_clint0.c:38
20011794:	fec42783          	lw	a5,-20(s0)
20011798:	853e                	mv	a0,a5
2001179a:	3559                	jal	20011620 <__metal_driver_sifive_clint0_control_base>
2001179c:	fea42423          	sw	a0,-24(s0)
/home/nicoladgg/wsFreedomStudio/sifive_hifive1_revb_hello/freedom-metal/src/drivers/riscv_clint0.c:45
200117a0:	fd842783          	lw	a5,-40(s0)
200117a4:	078e                	slli	a5,a5,0x3
200117a6:	873e                	mv	a4,a5
200117a8:	fe842783          	lw	a5,-24(s0)
200117ac:	973e                	add	a4,a4,a5
200117ae:	6791                	lui	a5,0x4
200117b0:	0791                	addi	a5,a5,4
200117b2:	97ba                	add	a5,a5,a4
200117b4:	873e                	mv	a4,a5
/home/nicoladgg/wsFreedomStudio/sifive_hifive1_revb_hello/freedom-metal/src/drivers/riscv_clint0.c:47
200117b6:	57fd                	li	a5,-1
200117b8:	c31c                	sw	a5,0(a4)
/home/nicoladgg/wsFreedomStudio/sifive_hifive1_revb_hello/freedom-metal/src/drivers/riscv_clint0.c:48
200117ba:	fd842783          	lw	a5,-40(s0)
200117be:	078e                	slli	a5,a5,0x3
200117c0:	873e                	mv	a4,a5
200117c2:	fe842783          	lw	a5,-24(s0)
200117c6:	973e                	add	a4,a4,a5
200117c8:	6791                	lui	a5,0x4
200117ca:	97ba                	add	a5,a5,a4
200117cc:	873e                	mv	a4,a5
/home/nicoladgg/wsFreedomStudio/sifive_hifive1_revb_hello/freedom-metal/src/drivers/riscv_clint0.c:50
200117ce:	fd042783          	lw	a5,-48(s0)
/home/nicoladgg/wsFreedomStudio/sifive_hifive1_revb_hello/freedom-metal/src/drivers/riscv_clint0.c:49
200117d2:	c31c                	sw	a5,0(a4)
/home/nicoladgg/wsFreedomStudio/sifive_hifive1_revb_hello/freedom-metal/src/drivers/riscv_clint0.c:53
200117d4:	fd442783          	lw	a5,-44(s0)
200117d8:	0007d913          	srli	s2,a5,0x0
200117dc:	4981                	li	s3,0
/home/nicoladgg/wsFreedomStudio/sifive_hifive1_revb_hello/freedom-metal/src/drivers/riscv_clint0.c:51
200117de:	fd842783          	lw	a5,-40(s0)
200117e2:	078e                	slli	a5,a5,0x3
200117e4:	873e                	mv	a4,a5
200117e6:	fe842783          	lw	a5,-24(s0)
200117ea:	973e                	add	a4,a4,a5
200117ec:	6791                	lui	a5,0x4
200117ee:	0791                	addi	a5,a5,4
200117f0:	97ba                	add	a5,a5,a4
/home/nicoladgg/wsFreedomStudio/sifive_hifive1_revb_hello/freedom-metal/src/drivers/riscv_clint0.c:53
200117f2:	874a                	mv	a4,s2
200117f4:	c398                	sw	a4,0(a5)
/home/nicoladgg/wsFreedomStudio/sifive_hifive1_revb_hello/freedom-metal/src/drivers/riscv_clint0.c:54
200117f6:	4781                	li	a5,0
/home/nicoladgg/wsFreedomStudio/sifive_hifive1_revb_hello/freedom-metal/src/drivers/riscv_clint0.c:55
200117f8:	853e                	mv	a0,a5
200117fa:	50b2                	lw	ra,44(sp)
200117fc:	5422                	lw	s0,40(sp)
200117fe:	5912                	lw	s2,36(sp)
20011800:	5982                	lw	s3,32(sp)
20011802:	6145                	addi	sp,sp,48
20011804:	8082                	ret

20011806 <_get_cpu_intc>:
_get_cpu_intc():
/home/nicoladgg/wsFreedomStudio/sifive_hifive1_revb_hello/freedom-metal/src/drivers/riscv_clint0.c:57
20011806:	1101                	addi	sp,sp,-32
20011808:	ce06                	sw	ra,28(sp)
2001180a:	cc22                	sw	s0,24(sp)
2001180c:	1000                	addi	s0,sp,32
/home/nicoladgg/wsFreedomStudio/sifive_hifive1_revb_hello/freedom-metal/src/drivers/riscv_clint0.c:58
2001180e:	fe042623          	sw	zero,-20(s0)
/home/nicoladgg/wsFreedomStudio/sifive_hifive1_revb_hello/freedom-metal/src/drivers/riscv_clint0.c:59
20011812:	f14027f3          	csrr	a5,mhartid
20011816:	fef42623          	sw	a5,-20(s0)
/home/nicoladgg/wsFreedomStudio/sifive_hifive1_revb_hello/freedom-metal/src/drivers/riscv_clint0.c:62
2001181a:	fec42783          	lw	a5,-20(s0)
2001181e:	853e                	mv	a0,a5
20011820:	105020ef          	jal	ra,20014124 <metal_cpu_get>
20011824:	fea42423          	sw	a0,-24(s0)
/home/nicoladgg/wsFreedomStudio/sifive_hifive1_revb_hello/freedom-metal/src/drivers/riscv_clint0.c:64
20011828:	fe842503          	lw	a0,-24(s0)
2001182c:	0d3020ef          	jal	ra,200140fe <metal_cpu_interrupt_controller>
20011830:	87aa                	mv	a5,a0
/home/nicoladgg/wsFreedomStudio/sifive_hifive1_revb_hello/freedom-metal/src/drivers/riscv_clint0.c:65
20011832:	853e                	mv	a0,a5
20011834:	40f2                	lw	ra,28(sp)
20011836:	4462                	lw	s0,24(sp)
20011838:	6105                	addi	sp,sp,32
2001183a:	8082                	ret

2001183c <__metal_driver_riscv_clint0_init>:
__metal_driver_riscv_clint0_init():
/home/nicoladgg/wsFreedomStudio/sifive_hifive1_revb_hello/freedom-metal/src/drivers/riscv_clint0.c:67
2001183c:	7139                	addi	sp,sp,-64
2001183e:	de06                	sw	ra,60(sp)
20011840:	dc22                	sw	s0,56(sp)
20011842:	0080                	addi	s0,sp,64
20011844:	fca42623          	sw	a0,-52(s0)
/home/nicoladgg/wsFreedomStudio/sifive_hifive1_revb_hello/freedom-metal/src/drivers/riscv_clint0.c:69
20011848:	fcc42503          	lw	a0,-52(s0)
2001184c:	3bed                	jal	20011646 <__metal_driver_sifive_clint0_num_interrupts>
2001184e:	fea42423          	sw	a0,-24(s0)
/home/nicoladgg/wsFreedomStudio/sifive_hifive1_revb_hello/freedom-metal/src/drivers/riscv_clint0.c:70
20011852:	fcc42783          	lw	a5,-52(s0)
20011856:	fef42223          	sw	a5,-28(s0)
/home/nicoladgg/wsFreedomStudio/sifive_hifive1_revb_hello/freedom-metal/src/drivers/riscv_clint0.c:73
2001185a:	fe442783          	lw	a5,-28(s0)
2001185e:	43dc                	lw	a5,4(a5)
20011860:	efa9                	bnez	a5,200118ba <__metal_driver_riscv_clint0_init+0x7e>
/home/nicoladgg/wsFreedomStudio/sifive_hifive1_revb_hello/freedom-metal/src/drivers/riscv_clint0.c:76
20011862:	fe042623          	sw	zero,-20(s0)
20011866:	a081                	j	200118a6 <__metal_driver_riscv_clint0_init+0x6a>
/home/nicoladgg/wsFreedomStudio/sifive_hifive1_revb_hello/freedom-metal/src/drivers/riscv_clint0.c:78 (discriminator 3)
20011868:	fec42583          	lw	a1,-20(s0)
2001186c:	fcc42503          	lw	a0,-52(s0)
20011870:	3bed                	jal	2001166a <__metal_driver_sifive_clint0_interrupt_parents>
20011872:	fea42023          	sw	a0,-32(s0)
/home/nicoladgg/wsFreedomStudio/sifive_hifive1_revb_hello/freedom-metal/src/drivers/riscv_clint0.c:80 (discriminator 3)
20011876:	fec42583          	lw	a1,-20(s0)
2001187a:	fcc42503          	lw	a0,-52(s0)
2001187e:	3525                	jal	200116a6 <__metal_driver_sifive_clint0_interrupt_lines>
20011880:	fca42e23          	sw	a0,-36(s0)
/home/nicoladgg/wsFreedomStudio/sifive_hifive1_revb_hello/freedom-metal/src/drivers/riscv_clint0.c:81 (discriminator 3)
20011884:	fe042783          	lw	a5,-32(s0)
20011888:	439c                	lw	a5,0(a5)
2001188a:	4fdc                	lw	a5,28(a5)
2001188c:	fcc42683          	lw	a3,-52(s0)
20011890:	4601                	li	a2,0
20011892:	fdc42583          	lw	a1,-36(s0)
20011896:	fe042503          	lw	a0,-32(s0)
2001189a:	9782                	jalr	a5
/home/nicoladgg/wsFreedomStudio/sifive_hifive1_revb_hello/freedom-metal/src/drivers/riscv_clint0.c:76 (discriminator 3)
2001189c:	fec42783          	lw	a5,-20(s0)
200118a0:	0785                	addi	a5,a5,1
200118a2:	fef42623          	sw	a5,-20(s0)
/home/nicoladgg/wsFreedomStudio/sifive_hifive1_revb_hello/freedom-metal/src/drivers/riscv_clint0.c:76 (discriminator 1)
200118a6:	fec42703          	lw	a4,-20(s0)
200118aa:	fe842783          	lw	a5,-24(s0)
200118ae:	faf74de3          	blt	a4,a5,20011868 <__metal_driver_riscv_clint0_init+0x2c>
/home/nicoladgg/wsFreedomStudio/sifive_hifive1_revb_hello/freedom-metal/src/drivers/riscv_clint0.c:83
200118b2:	fe442783          	lw	a5,-28(s0)
200118b6:	4705                	li	a4,1
200118b8:	c3d8                	sw	a4,4(a5)
/home/nicoladgg/wsFreedomStudio/sifive_hifive1_revb_hello/freedom-metal/src/drivers/riscv_clint0.c:85
200118ba:	0001                	nop
200118bc:	50f2                	lw	ra,60(sp)
200118be:	5462                	lw	s0,56(sp)
200118c0:	6121                	addi	sp,sp,64
200118c2:	8082                	ret

200118c4 <__metal_driver_riscv_clint0_register>:
__metal_driver_riscv_clint0_register():
/home/nicoladgg/wsFreedomStudio/sifive_hifive1_revb_hello/freedom-metal/src/drivers/riscv_clint0.c:89
200118c4:	7139                	addi	sp,sp,-64
200118c6:	de06                	sw	ra,60(sp)
200118c8:	dc22                	sw	s0,56(sp)
200118ca:	0080                	addi	s0,sp,64
200118cc:	fca42623          	sw	a0,-52(s0)
200118d0:	fcb42423          	sw	a1,-56(s0)
200118d4:	fcc42223          	sw	a2,-60(s0)
200118d8:	fcd42023          	sw	a3,-64(s0)
/home/nicoladgg/wsFreedomStudio/sifive_hifive1_revb_hello/freedom-metal/src/drivers/riscv_clint0.c:90
200118dc:	57fd                	li	a5,-1
200118de:	fef42623          	sw	a5,-20(s0)
/home/nicoladgg/wsFreedomStudio/sifive_hifive1_revb_hello/freedom-metal/src/drivers/riscv_clint0.c:91
200118e2:	430010ef          	jal	ra,20012d12 <__metal_controller_interrupt_vector_mode>
200118e6:	fea42023          	sw	a0,-32(s0)
/home/nicoladgg/wsFreedomStudio/sifive_hifive1_revb_hello/freedom-metal/src/drivers/riscv_clint0.c:92
200118ea:	fe042423          	sw	zero,-24(s0)
/home/nicoladgg/wsFreedomStudio/sifive_hifive1_revb_hello/freedom-metal/src/drivers/riscv_clint0.c:93
200118ee:	3f21                	jal	20011806 <_get_cpu_intc>
200118f0:	fca42e23          	sw	a0,-36(s0)
/home/nicoladgg/wsFreedomStudio/sifive_hifive1_revb_hello/freedom-metal/src/drivers/riscv_clint0.c:95
200118f4:	fcc42503          	lw	a0,-52(s0)
200118f8:	33b9                	jal	20011646 <__metal_driver_sifive_clint0_num_interrupts>
200118fa:	fca42c23          	sw	a0,-40(s0)
/home/nicoladgg/wsFreedomStudio/sifive_hifive1_revb_hello/freedom-metal/src/drivers/riscv_clint0.c:97
200118fe:	fe042703          	lw	a4,-32(s0)
20011902:	4785                	li	a5,1
20011904:	00f70863          	beq	a4,a5,20011914 <__metal_driver_riscv_clint0_register+0x50>
/home/nicoladgg/wsFreedomStudio/sifive_hifive1_revb_hello/freedom-metal/src/drivers/riscv_clint0.c:97 (discriminator 1)
20011908:	fe042783          	lw	a5,-32(s0)
2001190c:	c781                	beqz	a5,20011914 <__metal_driver_riscv_clint0_register+0x50>
/home/nicoladgg/wsFreedomStudio/sifive_hifive1_revb_hello/freedom-metal/src/drivers/riscv_clint0.c:98
2001190e:	fec42783          	lw	a5,-20(s0)
20011912:	a049                	j	20011994 <__metal_driver_riscv_clint0_register+0xd0>
/home/nicoladgg/wsFreedomStudio/sifive_hifive1_revb_hello/freedom-metal/src/drivers/riscv_clint0.c:101
20011914:	fe042223          	sw	zero,-28(s0)
20011918:	a091                	j	2001195c <__metal_driver_riscv_clint0_register+0x98>
/home/nicoladgg/wsFreedomStudio/sifive_hifive1_revb_hello/freedom-metal/src/drivers/riscv_clint0.c:102
2001191a:	fe442583          	lw	a1,-28(s0)
2001191e:	fcc42503          	lw	a0,-52(s0)
20011922:	3351                	jal	200116a6 <__metal_driver_sifive_clint0_interrupt_lines>
20011924:	fca42a23          	sw	a0,-44(s0)
/home/nicoladgg/wsFreedomStudio/sifive_hifive1_revb_hello/freedom-metal/src/drivers/riscv_clint0.c:103
20011928:	fe442583          	lw	a1,-28(s0)
2001192c:	fcc42503          	lw	a0,-52(s0)
20011930:	3b2d                	jal	2001166a <__metal_driver_sifive_clint0_interrupt_parents>
20011932:	fea42423          	sw	a0,-24(s0)
/home/nicoladgg/wsFreedomStudio/sifive_hifive1_revb_hello/freedom-metal/src/drivers/riscv_clint0.c:104
20011936:	fdc42703          	lw	a4,-36(s0)
2001193a:	fe842783          	lw	a5,-24(s0)
2001193e:	00f71863          	bne	a4,a5,2001194e <__metal_driver_riscv_clint0_register+0x8a>
/home/nicoladgg/wsFreedomStudio/sifive_hifive1_revb_hello/freedom-metal/src/drivers/riscv_clint0.c:104 (discriminator 1)
20011942:	fc842703          	lw	a4,-56(s0)
20011946:	fd442783          	lw	a5,-44(s0)
2001194a:	02f70063          	beq	a4,a5,2001196a <__metal_driver_riscv_clint0_register+0xa6>
/home/nicoladgg/wsFreedomStudio/sifive_hifive1_revb_hello/freedom-metal/src/drivers/riscv_clint0.c:107 (discriminator 2)
2001194e:	fe042423          	sw	zero,-24(s0)
/home/nicoladgg/wsFreedomStudio/sifive_hifive1_revb_hello/freedom-metal/src/drivers/riscv_clint0.c:101 (discriminator 2)
20011952:	fe442783          	lw	a5,-28(s0)
20011956:	0785                	addi	a5,a5,1
20011958:	fef42223          	sw	a5,-28(s0)
/home/nicoladgg/wsFreedomStudio/sifive_hifive1_revb_hello/freedom-metal/src/drivers/riscv_clint0.c:101 (discriminator 1)
2001195c:	fe442703          	lw	a4,-28(s0)
20011960:	fd842783          	lw	a5,-40(s0)
20011964:	faf74be3          	blt	a4,a5,2001191a <__metal_driver_riscv_clint0_register+0x56>
20011968:	a011                	j	2001196c <__metal_driver_riscv_clint0_register+0xa8>
/home/nicoladgg/wsFreedomStudio/sifive_hifive1_revb_hello/freedom-metal/src/drivers/riscv_clint0.c:105
2001196a:	0001                	nop
/home/nicoladgg/wsFreedomStudio/sifive_hifive1_revb_hello/freedom-metal/src/drivers/riscv_clint0.c:111
2001196c:	fe842783          	lw	a5,-24(s0)
20011970:	c385                	beqz	a5,20011990 <__metal_driver_riscv_clint0_register+0xcc>
/home/nicoladgg/wsFreedomStudio/sifive_hifive1_revb_hello/freedom-metal/src/drivers/riscv_clint0.c:112
20011972:	fe842783          	lw	a5,-24(s0)
20011976:	439c                	lw	a5,0(a5)
20011978:	4fdc                	lw	a5,28(a5)
2001197a:	fc042683          	lw	a3,-64(s0)
2001197e:	fc442603          	lw	a2,-60(s0)
20011982:	fc842583          	lw	a1,-56(s0)
20011986:	fe842503          	lw	a0,-24(s0)
2001198a:	9782                	jalr	a5
2001198c:	fea42623          	sw	a0,-20(s0)
/home/nicoladgg/wsFreedomStudio/sifive_hifive1_revb_hello/freedom-metal/src/drivers/riscv_clint0.c:114
20011990:	fec42783          	lw	a5,-20(s0)
/home/nicoladgg/wsFreedomStudio/sifive_hifive1_revb_hello/freedom-metal/src/drivers/riscv_clint0.c:115
20011994:	853e                	mv	a0,a5
20011996:	50f2                	lw	ra,60(sp)
20011998:	5462                	lw	s0,56(sp)
2001199a:	6121                	addi	sp,sp,64
2001199c:	8082                	ret

2001199e <__metal_driver_riscv_clint0_vector_register>:
__metal_driver_riscv_clint0_vector_register():
/home/nicoladgg/wsFreedomStudio/sifive_hifive1_revb_hello/freedom-metal/src/drivers/riscv_clint0.c:119
2001199e:	7179                	addi	sp,sp,-48
200119a0:	d622                	sw	s0,44(sp)
200119a2:	1800                	addi	s0,sp,48
200119a4:	fca42e23          	sw	a0,-36(s0)
200119a8:	fcb42c23          	sw	a1,-40(s0)
200119ac:	fcc42a23          	sw	a2,-44(s0)
200119b0:	fcd42823          	sw	a3,-48(s0)
/home/nicoladgg/wsFreedomStudio/sifive_hifive1_revb_hello/freedom-metal/src/drivers/riscv_clint0.c:121
200119b4:	57fd                	li	a5,-1
200119b6:	fef42623          	sw	a5,-20(s0)
/home/nicoladgg/wsFreedomStudio/sifive_hifive1_revb_hello/freedom-metal/src/drivers/riscv_clint0.c:122
200119ba:	fec42783          	lw	a5,-20(s0)
/home/nicoladgg/wsFreedomStudio/sifive_hifive1_revb_hello/freedom-metal/src/drivers/riscv_clint0.c:123
200119be:	853e                	mv	a0,a5
200119c0:	5432                	lw	s0,44(sp)
200119c2:	6145                	addi	sp,sp,48
200119c4:	8082                	ret

200119c6 <__metal_driver_riscv_clint0_get_vector_mode>:
__metal_driver_riscv_clint0_get_vector_mode():
/home/nicoladgg/wsFreedomStudio/sifive_hifive1_revb_hello/freedom-metal/src/drivers/riscv_clint0.c:126
200119c6:	1101                	addi	sp,sp,-32
200119c8:	ce06                	sw	ra,28(sp)
200119ca:	cc22                	sw	s0,24(sp)
200119cc:	1000                	addi	s0,sp,32
200119ce:	fea42623          	sw	a0,-20(s0)
/home/nicoladgg/wsFreedomStudio/sifive_hifive1_revb_hello/freedom-metal/src/drivers/riscv_clint0.c:127
200119d2:	340010ef          	jal	ra,20012d12 <__metal_controller_interrupt_vector_mode>
200119d6:	87aa                	mv	a5,a0
/home/nicoladgg/wsFreedomStudio/sifive_hifive1_revb_hello/freedom-metal/src/drivers/riscv_clint0.c:128
200119d8:	853e                	mv	a0,a5
200119da:	40f2                	lw	ra,28(sp)
200119dc:	4462                	lw	s0,24(sp)
200119de:	6105                	addi	sp,sp,32
200119e0:	8082                	ret

200119e2 <__metal_driver_riscv_clint0_set_vector_mode>:
__metal_driver_riscv_clint0_set_vector_mode():
/home/nicoladgg/wsFreedomStudio/sifive_hifive1_revb_hello/freedom-metal/src/drivers/riscv_clint0.c:131
200119e2:	7179                	addi	sp,sp,-48
200119e4:	d606                	sw	ra,44(sp)
200119e6:	d422                	sw	s0,40(sp)
200119e8:	1800                	addi	s0,sp,48
200119ea:	fca42e23          	sw	a0,-36(s0)
200119ee:	fcb42c23          	sw	a1,-40(s0)
/home/nicoladgg/wsFreedomStudio/sifive_hifive1_revb_hello/freedom-metal/src/drivers/riscv_clint0.c:132
200119f2:	57fd                	li	a5,-1
200119f4:	fef42623          	sw	a5,-20(s0)
/home/nicoladgg/wsFreedomStudio/sifive_hifive1_revb_hello/freedom-metal/src/drivers/riscv_clint0.c:133
200119f8:	3539                	jal	20011806 <_get_cpu_intc>
200119fa:	fea42423          	sw	a0,-24(s0)
/home/nicoladgg/wsFreedomStudio/sifive_hifive1_revb_hello/freedom-metal/src/drivers/riscv_clint0.c:135
200119fe:	fe842783          	lw	a5,-24(s0)
20011a02:	c395                	beqz	a5,20011a26 <__metal_driver_riscv_clint0_set_vector_mode+0x44>
/home/nicoladgg/wsFreedomStudio/sifive_hifive1_revb_hello/freedom-metal/src/drivers/riscv_clint0.c:138
20011a04:	fd842703          	lw	a4,-40(s0)
20011a08:	4785                	li	a5,1
20011a0a:	02e7e063          	bltu	a5,a4,20011a2a <__metal_driver_riscv_clint0_set_vector_mode+0x48>
/home/nicoladgg/wsFreedomStudio/sifive_hifive1_revb_hello/freedom-metal/src/drivers/riscv_clint0.c:141
20011a0e:	fe842783          	lw	a5,-24(s0)
20011a12:	439c                	lw	a5,0(a5)
20011a14:	43dc                	lw	a5,4(a5)
20011a16:	fd842583          	lw	a1,-40(s0)
20011a1a:	fe842503          	lw	a0,-24(s0)
20011a1e:	9782                	jalr	a5
20011a20:	fea42623          	sw	a0,-20(s0)
/home/nicoladgg/wsFreedomStudio/sifive_hifive1_revb_hello/freedom-metal/src/drivers/riscv_clint0.c:142
20011a24:	a021                	j	20011a2c <__metal_driver_riscv_clint0_set_vector_mode+0x4a>
/home/nicoladgg/wsFreedomStudio/sifive_hifive1_revb_hello/freedom-metal/src/drivers/riscv_clint0.c:146
20011a26:	0001                	nop
20011a28:	a011                	j	20011a2c <__metal_driver_riscv_clint0_set_vector_mode+0x4a>
/home/nicoladgg/wsFreedomStudio/sifive_hifive1_revb_hello/freedom-metal/src/drivers/riscv_clint0.c:144
20011a2a:	0001                	nop
/home/nicoladgg/wsFreedomStudio/sifive_hifive1_revb_hello/freedom-metal/src/drivers/riscv_clint0.c:147
20011a2c:	fec42783          	lw	a5,-20(s0)
/home/nicoladgg/wsFreedomStudio/sifive_hifive1_revb_hello/freedom-metal/src/drivers/riscv_clint0.c:148
20011a30:	853e                	mv	a0,a5
20011a32:	50b2                	lw	ra,44(sp)
20011a34:	5422                	lw	s0,40(sp)
20011a36:	6145                	addi	sp,sp,48
20011a38:	8082                	ret

20011a3a <__metal_driver_riscv_clint0_enable>:
__metal_driver_riscv_clint0_enable():
/home/nicoladgg/wsFreedomStudio/sifive_hifive1_revb_hello/freedom-metal/src/drivers/riscv_clint0.c:151
20011a3a:	7139                	addi	sp,sp,-64
20011a3c:	de06                	sw	ra,60(sp)
20011a3e:	dc22                	sw	s0,56(sp)
20011a40:	0080                	addi	s0,sp,64
20011a42:	fca42623          	sw	a0,-52(s0)
20011a46:	fcb42423          	sw	a1,-56(s0)
/home/nicoladgg/wsFreedomStudio/sifive_hifive1_revb_hello/freedom-metal/src/drivers/riscv_clint0.c:152
20011a4a:	57fd                	li	a5,-1
20011a4c:	fef42623          	sw	a5,-20(s0)
/home/nicoladgg/wsFreedomStudio/sifive_hifive1_revb_hello/freedom-metal/src/drivers/riscv_clint0.c:154
20011a50:	fc842783          	lw	a5,-56(s0)
20011a54:	c7c9                	beqz	a5,20011ade <__metal_driver_riscv_clint0_enable+0xa4>
/home/nicoladgg/wsFreedomStudio/sifive_hifive1_revb_hello/freedom-metal/src/drivers/riscv_clint0.c:155
20011a56:	fe042423          	sw	zero,-24(s0)
/home/nicoladgg/wsFreedomStudio/sifive_hifive1_revb_hello/freedom-metal/src/drivers/riscv_clint0.c:156
20011a5a:	3375                	jal	20011806 <_get_cpu_intc>
20011a5c:	fea42023          	sw	a0,-32(s0)
/home/nicoladgg/wsFreedomStudio/sifive_hifive1_revb_hello/freedom-metal/src/drivers/riscv_clint0.c:158
20011a60:	fcc42503          	lw	a0,-52(s0)
20011a64:	36cd                	jal	20011646 <__metal_driver_sifive_clint0_num_interrupts>
20011a66:	fca42e23          	sw	a0,-36(s0)
/home/nicoladgg/wsFreedomStudio/sifive_hifive1_revb_hello/freedom-metal/src/drivers/riscv_clint0.c:160
20011a6a:	fe042223          	sw	zero,-28(s0)
20011a6e:	a091                	j	20011ab2 <__metal_driver_riscv_clint0_enable+0x78>
/home/nicoladgg/wsFreedomStudio/sifive_hifive1_revb_hello/freedom-metal/src/drivers/riscv_clint0.c:162
20011a70:	fe442583          	lw	a1,-28(s0)
20011a74:	fcc42503          	lw	a0,-52(s0)
20011a78:	313d                	jal	200116a6 <__metal_driver_sifive_clint0_interrupt_lines>
20011a7a:	fca42c23          	sw	a0,-40(s0)
/home/nicoladgg/wsFreedomStudio/sifive_hifive1_revb_hello/freedom-metal/src/drivers/riscv_clint0.c:164
20011a7e:	fe442583          	lw	a1,-28(s0)
20011a82:	fcc42503          	lw	a0,-52(s0)
20011a86:	36d5                	jal	2001166a <__metal_driver_sifive_clint0_interrupt_parents>
20011a88:	fea42423          	sw	a0,-24(s0)
/home/nicoladgg/wsFreedomStudio/sifive_hifive1_revb_hello/freedom-metal/src/drivers/riscv_clint0.c:165
20011a8c:	fe042703          	lw	a4,-32(s0)
20011a90:	fe842783          	lw	a5,-24(s0)
20011a94:	00f71863          	bne	a4,a5,20011aa4 <__metal_driver_riscv_clint0_enable+0x6a>
/home/nicoladgg/wsFreedomStudio/sifive_hifive1_revb_hello/freedom-metal/src/drivers/riscv_clint0.c:165 (discriminator 1)
20011a98:	fc842703          	lw	a4,-56(s0)
20011a9c:	fd842783          	lw	a5,-40(s0)
20011aa0:	02f70063          	beq	a4,a5,20011ac0 <__metal_driver_riscv_clint0_enable+0x86>
/home/nicoladgg/wsFreedomStudio/sifive_hifive1_revb_hello/freedom-metal/src/drivers/riscv_clint0.c:168 (discriminator 2)
20011aa4:	fe042423          	sw	zero,-24(s0)
/home/nicoladgg/wsFreedomStudio/sifive_hifive1_revb_hello/freedom-metal/src/drivers/riscv_clint0.c:160 (discriminator 2)
20011aa8:	fe442783          	lw	a5,-28(s0)
20011aac:	0785                	addi	a5,a5,1
20011aae:	fef42223          	sw	a5,-28(s0)
/home/nicoladgg/wsFreedomStudio/sifive_hifive1_revb_hello/freedom-metal/src/drivers/riscv_clint0.c:160 (discriminator 1)
20011ab2:	fe442703          	lw	a4,-28(s0)
20011ab6:	fdc42783          	lw	a5,-36(s0)
20011aba:	faf74be3          	blt	a4,a5,20011a70 <__metal_driver_riscv_clint0_enable+0x36>
20011abe:	a011                	j	20011ac2 <__metal_driver_riscv_clint0_enable+0x88>
/home/nicoladgg/wsFreedomStudio/sifive_hifive1_revb_hello/freedom-metal/src/drivers/riscv_clint0.c:166
20011ac0:	0001                	nop
/home/nicoladgg/wsFreedomStudio/sifive_hifive1_revb_hello/freedom-metal/src/drivers/riscv_clint0.c:172
20011ac2:	fe842783          	lw	a5,-24(s0)
20011ac6:	cf81                	beqz	a5,20011ade <__metal_driver_riscv_clint0_enable+0xa4>
/home/nicoladgg/wsFreedomStudio/sifive_hifive1_revb_hello/freedom-metal/src/drivers/riscv_clint0.c:173
20011ac8:	fe842783          	lw	a5,-24(s0)
20011acc:	439c                	lw	a5,0(a5)
20011ace:	53dc                	lw	a5,36(a5)
20011ad0:	fc842583          	lw	a1,-56(s0)
20011ad4:	fe842503          	lw	a0,-24(s0)
20011ad8:	9782                	jalr	a5
20011ada:	fea42623          	sw	a0,-20(s0)
/home/nicoladgg/wsFreedomStudio/sifive_hifive1_revb_hello/freedom-metal/src/drivers/riscv_clint0.c:177
20011ade:	fec42783          	lw	a5,-20(s0)
/home/nicoladgg/wsFreedomStudio/sifive_hifive1_revb_hello/freedom-metal/src/drivers/riscv_clint0.c:178
20011ae2:	853e                	mv	a0,a5
20011ae4:	50f2                	lw	ra,60(sp)
20011ae6:	5462                	lw	s0,56(sp)
20011ae8:	6121                	addi	sp,sp,64
20011aea:	8082                	ret

20011aec <__metal_driver_riscv_clint0_disable>:
__metal_driver_riscv_clint0_disable():
/home/nicoladgg/wsFreedomStudio/sifive_hifive1_revb_hello/freedom-metal/src/drivers/riscv_clint0.c:181
20011aec:	7139                	addi	sp,sp,-64
20011aee:	de06                	sw	ra,60(sp)
20011af0:	dc22                	sw	s0,56(sp)
20011af2:	0080                	addi	s0,sp,64
20011af4:	fca42623          	sw	a0,-52(s0)
20011af8:	fcb42423          	sw	a1,-56(s0)
/home/nicoladgg/wsFreedomStudio/sifive_hifive1_revb_hello/freedom-metal/src/drivers/riscv_clint0.c:182
20011afc:	57fd                	li	a5,-1
20011afe:	fef42623          	sw	a5,-20(s0)
/home/nicoladgg/wsFreedomStudio/sifive_hifive1_revb_hello/freedom-metal/src/drivers/riscv_clint0.c:184
20011b02:	fc842783          	lw	a5,-56(s0)
20011b06:	c7c9                	beqz	a5,20011b90 <__metal_driver_riscv_clint0_disable+0xa4>
/home/nicoladgg/wsFreedomStudio/sifive_hifive1_revb_hello/freedom-metal/src/drivers/riscv_clint0.c:185
20011b08:	fe042423          	sw	zero,-24(s0)
/home/nicoladgg/wsFreedomStudio/sifive_hifive1_revb_hello/freedom-metal/src/drivers/riscv_clint0.c:186
20011b0c:	39ed                	jal	20011806 <_get_cpu_intc>
20011b0e:	fea42023          	sw	a0,-32(s0)
/home/nicoladgg/wsFreedomStudio/sifive_hifive1_revb_hello/freedom-metal/src/drivers/riscv_clint0.c:188
20011b12:	fcc42503          	lw	a0,-52(s0)
20011b16:	3e05                	jal	20011646 <__metal_driver_sifive_clint0_num_interrupts>
20011b18:	fca42e23          	sw	a0,-36(s0)
/home/nicoladgg/wsFreedomStudio/sifive_hifive1_revb_hello/freedom-metal/src/drivers/riscv_clint0.c:190
20011b1c:	fe042223          	sw	zero,-28(s0)
20011b20:	a091                	j	20011b64 <__metal_driver_riscv_clint0_disable+0x78>
/home/nicoladgg/wsFreedomStudio/sifive_hifive1_revb_hello/freedom-metal/src/drivers/riscv_clint0.c:192
20011b22:	fe442583          	lw	a1,-28(s0)
20011b26:	fcc42503          	lw	a0,-52(s0)
20011b2a:	3eb5                	jal	200116a6 <__metal_driver_sifive_clint0_interrupt_lines>
20011b2c:	fca42c23          	sw	a0,-40(s0)
/home/nicoladgg/wsFreedomStudio/sifive_hifive1_revb_hello/freedom-metal/src/drivers/riscv_clint0.c:194
20011b30:	fe442583          	lw	a1,-28(s0)
20011b34:	fcc42503          	lw	a0,-52(s0)
20011b38:	3e0d                	jal	2001166a <__metal_driver_sifive_clint0_interrupt_parents>
20011b3a:	fea42423          	sw	a0,-24(s0)
/home/nicoladgg/wsFreedomStudio/sifive_hifive1_revb_hello/freedom-metal/src/drivers/riscv_clint0.c:195
20011b3e:	fe042703          	lw	a4,-32(s0)
20011b42:	fe842783          	lw	a5,-24(s0)
20011b46:	00f71863          	bne	a4,a5,20011b56 <__metal_driver_riscv_clint0_disable+0x6a>
/home/nicoladgg/wsFreedomStudio/sifive_hifive1_revb_hello/freedom-metal/src/drivers/riscv_clint0.c:195 (discriminator 1)
20011b4a:	fc842703          	lw	a4,-56(s0)
20011b4e:	fd842783          	lw	a5,-40(s0)
20011b52:	02f70063          	beq	a4,a5,20011b72 <__metal_driver_riscv_clint0_disable+0x86>
/home/nicoladgg/wsFreedomStudio/sifive_hifive1_revb_hello/freedom-metal/src/drivers/riscv_clint0.c:198 (discriminator 2)
20011b56:	fe042423          	sw	zero,-24(s0)
/home/nicoladgg/wsFreedomStudio/sifive_hifive1_revb_hello/freedom-metal/src/drivers/riscv_clint0.c:190 (discriminator 2)
20011b5a:	fe442783          	lw	a5,-28(s0)
20011b5e:	0785                	addi	a5,a5,1
20011b60:	fef42223          	sw	a5,-28(s0)
/home/nicoladgg/wsFreedomStudio/sifive_hifive1_revb_hello/freedom-metal/src/drivers/riscv_clint0.c:190 (discriminator 1)
20011b64:	fe442703          	lw	a4,-28(s0)
20011b68:	fdc42783          	lw	a5,-36(s0)
20011b6c:	faf74be3          	blt	a4,a5,20011b22 <__metal_driver_riscv_clint0_disable+0x36>
20011b70:	a011                	j	20011b74 <__metal_driver_riscv_clint0_disable+0x88>
/home/nicoladgg/wsFreedomStudio/sifive_hifive1_revb_hello/freedom-metal/src/drivers/riscv_clint0.c:196
20011b72:	0001                	nop
/home/nicoladgg/wsFreedomStudio/sifive_hifive1_revb_hello/freedom-metal/src/drivers/riscv_clint0.c:202
20011b74:	fe842783          	lw	a5,-24(s0)
20011b78:	cf81                	beqz	a5,20011b90 <__metal_driver_riscv_clint0_disable+0xa4>
/home/nicoladgg/wsFreedomStudio/sifive_hifive1_revb_hello/freedom-metal/src/drivers/riscv_clint0.c:203
20011b7a:	fe842783          	lw	a5,-24(s0)
20011b7e:	439c                	lw	a5,0(a5)
20011b80:	579c                	lw	a5,40(a5)
20011b82:	fc842583          	lw	a1,-56(s0)
20011b86:	fe842503          	lw	a0,-24(s0)
20011b8a:	9782                	jalr	a5
20011b8c:	fea42623          	sw	a0,-20(s0)
/home/nicoladgg/wsFreedomStudio/sifive_hifive1_revb_hello/freedom-metal/src/drivers/riscv_clint0.c:207
20011b90:	fec42783          	lw	a5,-20(s0)
/home/nicoladgg/wsFreedomStudio/sifive_hifive1_revb_hello/freedom-metal/src/drivers/riscv_clint0.c:208
20011b94:	853e                	mv	a0,a5
20011b96:	50f2                	lw	ra,60(sp)
20011b98:	5462                	lw	s0,56(sp)
20011b9a:	6121                	addi	sp,sp,64
20011b9c:	8082                	ret

20011b9e <__metal_driver_riscv_clint0_command_request>:
__metal_driver_riscv_clint0_command_request():
/home/nicoladgg/wsFreedomStudio/sifive_hifive1_revb_hello/freedom-metal/src/drivers/riscv_clint0.c:211
20011b9e:	7179                	addi	sp,sp,-48
20011ba0:	d606                	sw	ra,44(sp)
20011ba2:	d422                	sw	s0,40(sp)
20011ba4:	1800                	addi	s0,sp,48
20011ba6:	fca42e23          	sw	a0,-36(s0)
20011baa:	fcb42c23          	sw	a1,-40(s0)
20011bae:	fcc42a23          	sw	a2,-44(s0)
/home/nicoladgg/wsFreedomStudio/sifive_hifive1_revb_hello/freedom-metal/src/drivers/riscv_clint0.c:213
20011bb2:	57fd                	li	a5,-1
20011bb4:	fef42623          	sw	a5,-20(s0)
/home/nicoladgg/wsFreedomStudio/sifive_hifive1_revb_hello/freedom-metal/src/drivers/riscv_clint0.c:214
20011bb8:	fdc42783          	lw	a5,-36(s0)
20011bbc:	fef42423          	sw	a5,-24(s0)
/home/nicoladgg/wsFreedomStudio/sifive_hifive1_revb_hello/freedom-metal/src/drivers/riscv_clint0.c:217
20011bc0:	fdc42503          	lw	a0,-36(s0)
20011bc4:	3cb1                	jal	20011620 <__metal_driver_sifive_clint0_control_base>
20011bc6:	fea42223          	sw	a0,-28(s0)
/home/nicoladgg/wsFreedomStudio/sifive_hifive1_revb_hello/freedom-metal/src/drivers/riscv_clint0.c:219
20011bca:	fd842703          	lw	a4,-40(s0)
20011bce:	4791                	li	a5,4
20011bd0:	0cf70063          	beq	a4,a5,20011c90 <__metal_driver_riscv_clint0_command_request+0xf2>
20011bd4:	fd842703          	lw	a4,-40(s0)
20011bd8:	4791                	li	a5,4
20011bda:	0ee7c063          	blt	a5,a4,20011cba <__metal_driver_riscv_clint0_command_request+0x11c>
20011bde:	fd842703          	lw	a4,-40(s0)
20011be2:	478d                	li	a5,3
20011be4:	06f70563          	beq	a4,a5,20011c4e <__metal_driver_riscv_clint0_command_request+0xb0>
20011be8:	fd842703          	lw	a4,-40(s0)
20011bec:	478d                	li	a5,3
20011bee:	0ce7c663          	blt	a5,a4,20011cba <__metal_driver_riscv_clint0_command_request+0x11c>
20011bf2:	fd842703          	lw	a4,-40(s0)
20011bf6:	4785                	li	a5,1
20011bf8:	00f70863          	beq	a4,a5,20011c08 <__metal_driver_riscv_clint0_command_request+0x6a>
20011bfc:	fd842703          	lw	a4,-40(s0)
20011c00:	4789                	li	a5,2
20011c02:	02f70263          	beq	a4,a5,20011c26 <__metal_driver_riscv_clint0_command_request+0x88>
/home/nicoladgg/wsFreedomStudio/sifive_hifive1_revb_hello/freedom-metal/src/drivers/riscv_clint0.c:263
20011c06:	a855                	j	20011cba <__metal_driver_riscv_clint0_command_request+0x11c>
/home/nicoladgg/wsFreedomStudio/sifive_hifive1_revb_hello/freedom-metal/src/drivers/riscv_clint0.c:221
20011c08:	fd442783          	lw	a5,-44(s0)
20011c0c:	cbcd                	beqz	a5,20011cbe <__metal_driver_riscv_clint0_command_request+0x120>
/home/nicoladgg/wsFreedomStudio/sifive_hifive1_revb_hello/freedom-metal/src/drivers/riscv_clint0.c:222
20011c0e:	fe842503          	lw	a0,-24(s0)
20011c12:	34d1                	jal	200116d6 <__metal_clint0_mtime_get>
20011c14:	872a                	mv	a4,a0
20011c16:	87ae                	mv	a5,a1
20011c18:	fd442683          	lw	a3,-44(s0)
20011c1c:	c298                	sw	a4,0(a3)
20011c1e:	c2dc                	sw	a5,4(a3)
/home/nicoladgg/wsFreedomStudio/sifive_hifive1_revb_hello/freedom-metal/src/drivers/riscv_clint0.c:223
20011c20:	fe042623          	sw	zero,-20(s0)
/home/nicoladgg/wsFreedomStudio/sifive_hifive1_revb_hello/freedom-metal/src/drivers/riscv_clint0.c:225
20011c24:	a869                	j	20011cbe <__metal_driver_riscv_clint0_command_request+0x120>
/home/nicoladgg/wsFreedomStudio/sifive_hifive1_revb_hello/freedom-metal/src/drivers/riscv_clint0.c:227
20011c26:	fd442783          	lw	a5,-44(s0)
20011c2a:	cfc1                	beqz	a5,20011cc2 <__metal_driver_riscv_clint0_command_request+0x124>
/home/nicoladgg/wsFreedomStudio/sifive_hifive1_revb_hello/freedom-metal/src/drivers/riscv_clint0.c:228
20011c2c:	fd442783          	lw	a5,-44(s0)
20011c30:	439c                	lw	a5,0(a5)
20011c32:	fef42023          	sw	a5,-32(s0)
/home/nicoladgg/wsFreedomStudio/sifive_hifive1_revb_hello/freedom-metal/src/drivers/riscv_clint0.c:229
20011c36:	fe042783          	lw	a5,-32(s0)
20011c3a:	078a                	slli	a5,a5,0x2
20011c3c:	873e                	mv	a4,a5
20011c3e:	fe442783          	lw	a5,-28(s0)
20011c42:	97ba                	add	a5,a5,a4
/home/nicoladgg/wsFreedomStudio/sifive_hifive1_revb_hello/freedom-metal/src/drivers/riscv_clint0.c:230
20011c44:	0007a023          	sw	zero,0(a5) # 4000 <__heap_size+0x3800>
/home/nicoladgg/wsFreedomStudio/sifive_hifive1_revb_hello/freedom-metal/src/drivers/riscv_clint0.c:231
20011c48:	fe042623          	sw	zero,-20(s0)
/home/nicoladgg/wsFreedomStudio/sifive_hifive1_revb_hello/freedom-metal/src/drivers/riscv_clint0.c:233
20011c4c:	a89d                	j	20011cc2 <__metal_driver_riscv_clint0_command_request+0x124>
/home/nicoladgg/wsFreedomStudio/sifive_hifive1_revb_hello/freedom-metal/src/drivers/riscv_clint0.c:235
20011c4e:	fd442783          	lw	a5,-44(s0)
20011c52:	cbb5                	beqz	a5,20011cc6 <__metal_driver_riscv_clint0_command_request+0x128>
/home/nicoladgg/wsFreedomStudio/sifive_hifive1_revb_hello/freedom-metal/src/drivers/riscv_clint0.c:236
20011c54:	fd442783          	lw	a5,-44(s0)
20011c58:	439c                	lw	a5,0(a5)
20011c5a:	fef42023          	sw	a5,-32(s0)
/home/nicoladgg/wsFreedomStudio/sifive_hifive1_revb_hello/freedom-metal/src/drivers/riscv_clint0.c:237
20011c5e:	fe042783          	lw	a5,-32(s0)
20011c62:	078a                	slli	a5,a5,0x2
20011c64:	873e                	mv	a4,a5
20011c66:	fe442783          	lw	a5,-28(s0)
20011c6a:	97ba                	add	a5,a5,a4
20011c6c:	873e                	mv	a4,a5
/home/nicoladgg/wsFreedomStudio/sifive_hifive1_revb_hello/freedom-metal/src/drivers/riscv_clint0.c:238
20011c6e:	4785                	li	a5,1
20011c70:	c31c                	sw	a5,0(a4)
/home/nicoladgg/wsFreedomStudio/sifive_hifive1_revb_hello/freedom-metal/src/drivers/riscv_clint0.c:248
20011c72:	0480000f          	fence	o,i
/home/nicoladgg/wsFreedomStudio/sifive_hifive1_revb_hello/freedom-metal/src/drivers/riscv_clint0.c:249
20011c76:	fe042783          	lw	a5,-32(s0)
20011c7a:	078a                	slli	a5,a5,0x2
20011c7c:	873e                	mv	a4,a5
20011c7e:	fe442783          	lw	a5,-28(s0)
20011c82:	97ba                	add	a5,a5,a4
20011c84:	439c                	lw	a5,0(a5)
20011c86:	fef42623          	sw	a5,-20(s0)
/home/nicoladgg/wsFreedomStudio/sifive_hifive1_revb_hello/freedom-metal/src/drivers/riscv_clint0.c:251
20011c8a:	fe042623          	sw	zero,-20(s0)
/home/nicoladgg/wsFreedomStudio/sifive_hifive1_revb_hello/freedom-metal/src/drivers/riscv_clint0.c:253
20011c8e:	a825                	j	20011cc6 <__metal_driver_riscv_clint0_command_request+0x128>
/home/nicoladgg/wsFreedomStudio/sifive_hifive1_revb_hello/freedom-metal/src/drivers/riscv_clint0.c:255
20011c90:	fe042623          	sw	zero,-20(s0)
/home/nicoladgg/wsFreedomStudio/sifive_hifive1_revb_hello/freedom-metal/src/drivers/riscv_clint0.c:256
20011c94:	fd442783          	lw	a5,-44(s0)
20011c98:	cb8d                	beqz	a5,20011cca <__metal_driver_riscv_clint0_command_request+0x12c>
/home/nicoladgg/wsFreedomStudio/sifive_hifive1_revb_hello/freedom-metal/src/drivers/riscv_clint0.c:257
20011c9a:	fd442783          	lw	a5,-44(s0)
20011c9e:	439c                	lw	a5,0(a5)
20011ca0:	fef42023          	sw	a5,-32(s0)
/home/nicoladgg/wsFreedomStudio/sifive_hifive1_revb_hello/freedom-metal/src/drivers/riscv_clint0.c:258
20011ca4:	fe042783          	lw	a5,-32(s0)
20011ca8:	078a                	slli	a5,a5,0x2
20011caa:	873e                	mv	a4,a5
20011cac:	fe442783          	lw	a5,-28(s0)
20011cb0:	97ba                	add	a5,a5,a4
20011cb2:	439c                	lw	a5,0(a5)
20011cb4:	fef42623          	sw	a5,-20(s0)
/home/nicoladgg/wsFreedomStudio/sifive_hifive1_revb_hello/freedom-metal/src/drivers/riscv_clint0.c:261
20011cb8:	a809                	j	20011cca <__metal_driver_riscv_clint0_command_request+0x12c>
/home/nicoladgg/wsFreedomStudio/sifive_hifive1_revb_hello/freedom-metal/src/drivers/riscv_clint0.c:263
20011cba:	0001                	nop
20011cbc:	a801                	j	20011ccc <__metal_driver_riscv_clint0_command_request+0x12e>
/home/nicoladgg/wsFreedomStudio/sifive_hifive1_revb_hello/freedom-metal/src/drivers/riscv_clint0.c:225
20011cbe:	0001                	nop
20011cc0:	a031                	j	20011ccc <__metal_driver_riscv_clint0_command_request+0x12e>
/home/nicoladgg/wsFreedomStudio/sifive_hifive1_revb_hello/freedom-metal/src/drivers/riscv_clint0.c:233
20011cc2:	0001                	nop
20011cc4:	a021                	j	20011ccc <__metal_driver_riscv_clint0_command_request+0x12e>
/home/nicoladgg/wsFreedomStudio/sifive_hifive1_revb_hello/freedom-metal/src/drivers/riscv_clint0.c:253
20011cc6:	0001                	nop
20011cc8:	a011                	j	20011ccc <__metal_driver_riscv_clint0_command_request+0x12e>
/home/nicoladgg/wsFreedomStudio/sifive_hifive1_revb_hello/freedom-metal/src/drivers/riscv_clint0.c:261
20011cca:	0001                	nop
/home/nicoladgg/wsFreedomStudio/sifive_hifive1_revb_hello/freedom-metal/src/drivers/riscv_clint0.c:266
20011ccc:	fec42783          	lw	a5,-20(s0)
/home/nicoladgg/wsFreedomStudio/sifive_hifive1_revb_hello/freedom-metal/src/drivers/riscv_clint0.c:267
20011cd0:	853e                	mv	a0,a5
20011cd2:	50b2                	lw	ra,44(sp)
20011cd4:	5422                	lw	s0,40(sp)
20011cd6:	6145                	addi	sp,sp,48
20011cd8:	8082                	ret

20011cda <__metal_driver_riscv_clint0_clear_interrupt>:
__metal_driver_riscv_clint0_clear_interrupt():
/home/nicoladgg/wsFreedomStudio/sifive_hifive1_revb_hello/freedom-metal/src/drivers/riscv_clint0.c:270
20011cda:	7179                	addi	sp,sp,-48
20011cdc:	d606                	sw	ra,44(sp)
20011cde:	d422                	sw	s0,40(sp)
20011ce0:	1800                	addi	s0,sp,48
20011ce2:	fca42e23          	sw	a0,-36(s0)
20011ce6:	fcb42c23          	sw	a1,-40(s0)
/home/nicoladgg/wsFreedomStudio/sifive_hifive1_revb_hello/freedom-metal/src/drivers/riscv_clint0.c:271
20011cea:	464020ef          	jal	ra,2001414e <metal_cpu_get_current_hartid>
20011cee:	87aa                	mv	a5,a0
20011cf0:	fef42623          	sw	a5,-20(s0)
/home/nicoladgg/wsFreedomStudio/sifive_hifive1_revb_hello/freedom-metal/src/drivers/riscv_clint0.c:272
20011cf4:	fec40793          	addi	a5,s0,-20
20011cf8:	863e                	mv	a2,a5
20011cfa:	4589                	li	a1,2
20011cfc:	fdc42503          	lw	a0,-36(s0)
20011d00:	3d79                	jal	20011b9e <__metal_driver_riscv_clint0_command_request>
20011d02:	87aa                	mv	a5,a0
/home/nicoladgg/wsFreedomStudio/sifive_hifive1_revb_hello/freedom-metal/src/drivers/riscv_clint0.c:274
20011d04:	853e                	mv	a0,a5
20011d06:	50b2                	lw	ra,44(sp)
20011d08:	5422                	lw	s0,40(sp)
20011d0a:	6145                	addi	sp,sp,48
20011d0c:	8082                	ret

20011d0e <__metal_driver_riscv_clint0_set_interrupt>:
__metal_driver_riscv_clint0_set_interrupt():
/home/nicoladgg/wsFreedomStudio/sifive_hifive1_revb_hello/freedom-metal/src/drivers/riscv_clint0.c:277
20011d0e:	7179                	addi	sp,sp,-48
20011d10:	d606                	sw	ra,44(sp)
20011d12:	d422                	sw	s0,40(sp)
20011d14:	1800                	addi	s0,sp,48
20011d16:	fca42e23          	sw	a0,-36(s0)
20011d1a:	fcb42c23          	sw	a1,-40(s0)
/home/nicoladgg/wsFreedomStudio/sifive_hifive1_revb_hello/freedom-metal/src/drivers/riscv_clint0.c:278
20011d1e:	430020ef          	jal	ra,2001414e <metal_cpu_get_current_hartid>
20011d22:	87aa                	mv	a5,a0
20011d24:	fef42623          	sw	a5,-20(s0)
/home/nicoladgg/wsFreedomStudio/sifive_hifive1_revb_hello/freedom-metal/src/drivers/riscv_clint0.c:279
20011d28:	fec40793          	addi	a5,s0,-20
20011d2c:	863e                	mv	a2,a5
20011d2e:	458d                	li	a1,3
20011d30:	fdc42503          	lw	a0,-36(s0)
20011d34:	35ad                	jal	20011b9e <__metal_driver_riscv_clint0_command_request>
20011d36:	87aa                	mv	a5,a0
/home/nicoladgg/wsFreedomStudio/sifive_hifive1_revb_hello/freedom-metal/src/drivers/riscv_clint0.c:281
20011d38:	853e                	mv	a0,a5
20011d3a:	50b2                	lw	ra,44(sp)
20011d3c:	5422                	lw	s0,40(sp)
20011d3e:	6145                	addi	sp,sp,48
20011d40:	8082                	ret

20011d42 <__metal_driver_cpu_hartid>:
__metal_driver_cpu_hartid():
/home/nicoladgg/wsFreedomStudio/sifive_hifive1_revb_hello/bsp/build/debug/./metal/machine.h:292
20011d42:	1101                	addi	sp,sp,-32
20011d44:	ce22                	sw	s0,28(sp)
20011d46:	1000                	addi	s0,sp,32
20011d48:	fea42623          	sw	a0,-20(s0)
/home/nicoladgg/wsFreedomStudio/sifive_hifive1_revb_hello/bsp/build/debug/./metal/machine.h:293
20011d4c:	fec42703          	lw	a4,-20(s0)
20011d50:	81818793          	addi	a5,gp,-2024 # 800004a0 <__metal_dt_cpu_0>
20011d54:	00f71463          	bne	a4,a5,20011d5c <__metal_driver_cpu_hartid+0x1a>
/home/nicoladgg/wsFreedomStudio/sifive_hifive1_revb_hello/bsp/build/debug/./metal/machine.h:294
20011d58:	4781                	li	a5,0
20011d5a:	a011                	j	20011d5e <__metal_driver_cpu_hartid+0x1c>
/home/nicoladgg/wsFreedomStudio/sifive_hifive1_revb_hello/bsp/build/debug/./metal/machine.h:297
20011d5c:	57fd                	li	a5,-1
/home/nicoladgg/wsFreedomStudio/sifive_hifive1_revb_hello/bsp/build/debug/./metal/machine.h:299
20011d5e:	853e                	mv	a0,a5
20011d60:	4472                	lw	s0,28(sp)
20011d62:	6105                	addi	sp,sp,32
20011d64:	8082                	ret

20011d66 <__metal_driver_cpu_timebase>:
__metal_driver_cpu_timebase():
/home/nicoladgg/wsFreedomStudio/sifive_hifive1_revb_hello/bsp/build/debug/./metal/machine.h:302
20011d66:	1101                	addi	sp,sp,-32
20011d68:	ce22                	sw	s0,28(sp)
20011d6a:	1000                	addi	s0,sp,32
20011d6c:	fea42623          	sw	a0,-20(s0)
/home/nicoladgg/wsFreedomStudio/sifive_hifive1_revb_hello/bsp/build/debug/./metal/machine.h:303
20011d70:	fec42703          	lw	a4,-20(s0)
20011d74:	81818793          	addi	a5,gp,-2024 # 800004a0 <__metal_dt_cpu_0>
20011d78:	00f71763          	bne	a4,a5,20011d86 <__metal_driver_cpu_timebase+0x20>
/home/nicoladgg/wsFreedomStudio/sifive_hifive1_revb_hello/bsp/build/debug/./metal/machine.h:304
20011d7c:	00f427b7          	lui	a5,0xf42
20011d80:	40078793          	addi	a5,a5,1024 # f42400 <__heap_size+0xf41c00>
20011d84:	a011                	j	20011d88 <__metal_driver_cpu_timebase+0x22>
/home/nicoladgg/wsFreedomStudio/sifive_hifive1_revb_hello/bsp/build/debug/./metal/machine.h:307
20011d86:	4781                	li	a5,0
/home/nicoladgg/wsFreedomStudio/sifive_hifive1_revb_hello/bsp/build/debug/./metal/machine.h:309
20011d88:	853e                	mv	a0,a5
20011d8a:	4472                	lw	s0,28(sp)
20011d8c:	6105                	addi	sp,sp,32
20011d8e:	8082                	ret

20011d90 <__metal_driver_cpu_interrupt_controller>:
__metal_driver_cpu_interrupt_controller():
/home/nicoladgg/wsFreedomStudio/sifive_hifive1_revb_hello/bsp/build/debug/./metal/machine.h:312
20011d90:	1101                	addi	sp,sp,-32
20011d92:	ce22                	sw	s0,28(sp)
20011d94:	1000                	addi	s0,sp,32
20011d96:	fea42623          	sw	a0,-20(s0)
/home/nicoladgg/wsFreedomStudio/sifive_hifive1_revb_hello/bsp/build/debug/./metal/machine.h:313
20011d9a:	fec42703          	lw	a4,-20(s0)
20011d9e:	81818793          	addi	a5,gp,-2024 # 800004a0 <__metal_dt_cpu_0>
20011da2:	00f71763          	bne	a4,a5,20011db0 <__metal_driver_cpu_interrupt_controller+0x20>
/home/nicoladgg/wsFreedomStudio/sifive_hifive1_revb_hello/bsp/build/debug/./metal/machine.h:314
20011da6:	800007b7          	lui	a5,0x80000
20011daa:	09078793          	addi	a5,a5,144 # 80000090 <__global_pointer$+0xfffff408>
20011dae:	a011                	j	20011db2 <__metal_driver_cpu_interrupt_controller+0x22>
/home/nicoladgg/wsFreedomStudio/sifive_hifive1_revb_hello/bsp/build/debug/./metal/machine.h:317
20011db0:	4781                	li	a5,0
/home/nicoladgg/wsFreedomStudio/sifive_hifive1_revb_hello/bsp/build/debug/./metal/machine.h:319
20011db2:	853e                	mv	a0,a5
20011db4:	4472                	lw	s0,28(sp)
20011db6:	6105                	addi	sp,sp,32
20011db8:	8082                	ret

20011dba <__metal_driver_cpu_buserror>:
__metal_driver_cpu_buserror():
/home/nicoladgg/wsFreedomStudio/sifive_hifive1_revb_hello/bsp/build/debug/./metal/machine.h:332
20011dba:	1101                	addi	sp,sp,-32
20011dbc:	ce22                	sw	s0,28(sp)
20011dbe:	1000                	addi	s0,sp,32
20011dc0:	fea42623          	sw	a0,-20(s0)
/home/nicoladgg/wsFreedomStudio/sifive_hifive1_revb_hello/bsp/build/debug/./metal/machine.h:333
20011dc4:	fec42703          	lw	a4,-20(s0)
20011dc8:	81818793          	addi	a5,gp,-2024 # 800004a0 <__metal_dt_cpu_0>
20011dcc:	00f71463          	bne	a4,a5,20011dd4 <__metal_driver_cpu_buserror+0x1a>
/home/nicoladgg/wsFreedomStudio/sifive_hifive1_revb_hello/bsp/build/debug/./metal/machine.h:334
20011dd0:	4781                	li	a5,0
20011dd2:	a011                	j	20011dd6 <__metal_driver_cpu_buserror+0x1c>
/home/nicoladgg/wsFreedomStudio/sifive_hifive1_revb_hello/bsp/build/debug/./metal/machine.h:337
20011dd4:	4781                	li	a5,0
/home/nicoladgg/wsFreedomStudio/sifive_hifive1_revb_hello/bsp/build/debug/./metal/machine.h:339
20011dd6:	853e                	mv	a0,a5
20011dd8:	4472                	lw	s0,28(sp)
20011dda:	6105                	addi	sp,sp,32
20011ddc:	8082                	ret

20011dde <__metal_driver_cpu_get>:
__metal_driver_cpu_get():
/home/nicoladgg/wsFreedomStudio/sifive_hifive1_revb_hello/freedom-metal/src/drivers/riscv_cpu.c:25
20011dde:	1101                	addi	sp,sp,-32
20011de0:	ce22                	sw	s0,28(sp)
20011de2:	1000                	addi	s0,sp,32
20011de4:	fea42623          	sw	a0,-20(s0)
/home/nicoladgg/wsFreedomStudio/sifive_hifive1_revb_hello/freedom-metal/src/drivers/riscv_cpu.c:26
20011de8:	fec42783          	lw	a5,-20(s0)
20011dec:	00f04a63          	bgtz	a5,20011e00 <__metal_driver_cpu_get+0x22>
/home/nicoladgg/wsFreedomStudio/sifive_hifive1_revb_hello/freedom-metal/src/drivers/riscv_cpu.c:27
20011df0:	fec42703          	lw	a4,-20(s0)
20011df4:	070a                	slli	a4,a4,0x2
20011df6:	80c18793          	addi	a5,gp,-2036 # 80000494 <__metal_cpu_table>
20011dfa:	97ba                	add	a5,a5,a4
20011dfc:	439c                	lw	a5,0(a5)
20011dfe:	a011                	j	20011e02 <__metal_driver_cpu_get+0x24>
/home/nicoladgg/wsFreedomStudio/sifive_hifive1_revb_hello/freedom-metal/src/drivers/riscv_cpu.c:29
20011e00:	4781                	li	a5,0
/home/nicoladgg/wsFreedomStudio/sifive_hifive1_revb_hello/freedom-metal/src/drivers/riscv_cpu.c:30
20011e02:	853e                	mv	a0,a5
20011e04:	4472                	lw	s0,28(sp)
20011e06:	6105                	addi	sp,sp,32
20011e08:	8082                	ret

20011e0a <__metal_myhart_id>:
__metal_myhart_id():
/home/nicoladgg/wsFreedomStudio/sifive_hifive1_revb_hello/freedom-metal/src/drivers/riscv_cpu.c:32
20011e0a:	1101                	addi	sp,sp,-32
20011e0c:	ce22                	sw	s0,28(sp)
20011e0e:	1000                	addi	s0,sp,32
/home/nicoladgg/wsFreedomStudio/sifive_hifive1_revb_hello/freedom-metal/src/drivers/riscv_cpu.c:34
20011e10:	f14027f3          	csrr	a5,mhartid
20011e14:	fef42623          	sw	a5,-20(s0)
/home/nicoladgg/wsFreedomStudio/sifive_hifive1_revb_hello/freedom-metal/src/drivers/riscv_cpu.c:35
20011e18:	fec42783          	lw	a5,-20(s0)
/home/nicoladgg/wsFreedomStudio/sifive_hifive1_revb_hello/freedom-metal/src/drivers/riscv_cpu.c:36
20011e1c:	853e                	mv	a0,a5
20011e1e:	4472                	lw	s0,28(sp)
20011e20:	6105                	addi	sp,sp,32
20011e22:	8082                	ret

20011e24 <__metal_interrupt_global_enable>:
__metal_interrupt_global_enable():
/home/nicoladgg/wsFreedomStudio/sifive_hifive1_revb_hello/freedom-metal/src/drivers/riscv_cpu.c:45
20011e24:	1101                	addi	sp,sp,-32
20011e26:	ce22                	sw	s0,28(sp)
20011e28:	1000                	addi	s0,sp,32
/home/nicoladgg/wsFreedomStudio/sifive_hifive1_revb_hello/freedom-metal/src/drivers/riscv_cpu.c:47
20011e2a:	47a1                	li	a5,8
20011e2c:	3007a7f3          	csrrs	a5,mstatus,a5
20011e30:	fef42623          	sw	a5,-20(s0)
/home/nicoladgg/wsFreedomStudio/sifive_hifive1_revb_hello/freedom-metal/src/drivers/riscv_cpu.c:50
20011e34:	0001                	nop
20011e36:	4472                	lw	s0,28(sp)
20011e38:	6105                	addi	sp,sp,32
20011e3a:	8082                	ret

20011e3c <__metal_interrupt_global_disable>:
__metal_interrupt_global_disable():
/home/nicoladgg/wsFreedomStudio/sifive_hifive1_revb_hello/freedom-metal/src/drivers/riscv_cpu.c:52
20011e3c:	1101                	addi	sp,sp,-32
20011e3e:	ce22                	sw	s0,28(sp)
20011e40:	1000                	addi	s0,sp,32
/home/nicoladgg/wsFreedomStudio/sifive_hifive1_revb_hello/freedom-metal/src/drivers/riscv_cpu.c:54
20011e42:	47a1                	li	a5,8
20011e44:	3007b7f3          	csrrc	a5,mstatus,a5
20011e48:	fef42623          	sw	a5,-20(s0)
/home/nicoladgg/wsFreedomStudio/sifive_hifive1_revb_hello/freedom-metal/src/drivers/riscv_cpu.c:57
20011e4c:	0001                	nop
20011e4e:	4472                	lw	s0,28(sp)
20011e50:	6105                	addi	sp,sp,32
20011e52:	8082                	ret

20011e54 <__metal_interrupt_software_enable>:
__metal_interrupt_software_enable():
/home/nicoladgg/wsFreedomStudio/sifive_hifive1_revb_hello/freedom-metal/src/drivers/riscv_cpu.c:59
20011e54:	1101                	addi	sp,sp,-32
20011e56:	ce22                	sw	s0,28(sp)
20011e58:	1000                	addi	s0,sp,32
/home/nicoladgg/wsFreedomStudio/sifive_hifive1_revb_hello/freedom-metal/src/drivers/riscv_cpu.c:61
20011e5a:	47a1                	li	a5,8
20011e5c:	3047a7f3          	csrrs	a5,mie,a5
20011e60:	fef42623          	sw	a5,-20(s0)
/home/nicoladgg/wsFreedomStudio/sifive_hifive1_revb_hello/freedom-metal/src/drivers/riscv_cpu.c:64
20011e64:	0001                	nop
20011e66:	4472                	lw	s0,28(sp)
20011e68:	6105                	addi	sp,sp,32
20011e6a:	8082                	ret

20011e6c <__metal_interrupt_software_disable>:
__metal_interrupt_software_disable():
/home/nicoladgg/wsFreedomStudio/sifive_hifive1_revb_hello/freedom-metal/src/drivers/riscv_cpu.c:66
20011e6c:	1101                	addi	sp,sp,-32
20011e6e:	ce22                	sw	s0,28(sp)
20011e70:	1000                	addi	s0,sp,32
/home/nicoladgg/wsFreedomStudio/sifive_hifive1_revb_hello/freedom-metal/src/drivers/riscv_cpu.c:68
20011e72:	47a1                	li	a5,8
20011e74:	3047b7f3          	csrrc	a5,mie,a5
20011e78:	fef42623          	sw	a5,-20(s0)
/home/nicoladgg/wsFreedomStudio/sifive_hifive1_revb_hello/freedom-metal/src/drivers/riscv_cpu.c:71
20011e7c:	0001                	nop
20011e7e:	4472                	lw	s0,28(sp)
20011e80:	6105                	addi	sp,sp,32
20011e82:	8082                	ret

20011e84 <__metal_interrupt_timer_enable>:
__metal_interrupt_timer_enable():
/home/nicoladgg/wsFreedomStudio/sifive_hifive1_revb_hello/freedom-metal/src/drivers/riscv_cpu.c:73
20011e84:	1101                	addi	sp,sp,-32
20011e86:	ce22                	sw	s0,28(sp)
20011e88:	1000                	addi	s0,sp,32
/home/nicoladgg/wsFreedomStudio/sifive_hifive1_revb_hello/freedom-metal/src/drivers/riscv_cpu.c:75
20011e8a:	08000793          	li	a5,128
20011e8e:	3047a7f3          	csrrs	a5,mie,a5
20011e92:	fef42623          	sw	a5,-20(s0)
/home/nicoladgg/wsFreedomStudio/sifive_hifive1_revb_hello/freedom-metal/src/drivers/riscv_cpu.c:78
20011e96:	0001                	nop
20011e98:	4472                	lw	s0,28(sp)
20011e9a:	6105                	addi	sp,sp,32
20011e9c:	8082                	ret

20011e9e <__metal_interrupt_timer_disable>:
__metal_interrupt_timer_disable():
/home/nicoladgg/wsFreedomStudio/sifive_hifive1_revb_hello/freedom-metal/src/drivers/riscv_cpu.c:80
20011e9e:	1101                	addi	sp,sp,-32
20011ea0:	ce22                	sw	s0,28(sp)
20011ea2:	1000                	addi	s0,sp,32
/home/nicoladgg/wsFreedomStudio/sifive_hifive1_revb_hello/freedom-metal/src/drivers/riscv_cpu.c:82
20011ea4:	08000793          	li	a5,128
20011ea8:	3047b7f3          	csrrc	a5,mie,a5
20011eac:	fef42623          	sw	a5,-20(s0)
/home/nicoladgg/wsFreedomStudio/sifive_hifive1_revb_hello/freedom-metal/src/drivers/riscv_cpu.c:85
20011eb0:	0001                	nop
20011eb2:	4472                	lw	s0,28(sp)
20011eb4:	6105                	addi	sp,sp,32
20011eb6:	8082                	ret

20011eb8 <__metal_interrupt_external_enable>:
__metal_interrupt_external_enable():
/home/nicoladgg/wsFreedomStudio/sifive_hifive1_revb_hello/freedom-metal/src/drivers/riscv_cpu.c:87
20011eb8:	1101                	addi	sp,sp,-32
20011eba:	ce22                	sw	s0,28(sp)
20011ebc:	1000                	addi	s0,sp,32
/home/nicoladgg/wsFreedomStudio/sifive_hifive1_revb_hello/freedom-metal/src/drivers/riscv_cpu.c:89
20011ebe:	6785                	lui	a5,0x1
20011ec0:	80078793          	addi	a5,a5,-2048 # 800 <__heap_size>
20011ec4:	3047a7f3          	csrrs	a5,mie,a5
20011ec8:	fef42623          	sw	a5,-20(s0)
/home/nicoladgg/wsFreedomStudio/sifive_hifive1_revb_hello/freedom-metal/src/drivers/riscv_cpu.c:92
20011ecc:	0001                	nop
20011ece:	4472                	lw	s0,28(sp)
20011ed0:	6105                	addi	sp,sp,32
20011ed2:	8082                	ret

20011ed4 <__metal_interrupt_external_disable>:
__metal_interrupt_external_disable():
/home/nicoladgg/wsFreedomStudio/sifive_hifive1_revb_hello/freedom-metal/src/drivers/riscv_cpu.c:94
20011ed4:	1101                	addi	sp,sp,-32
20011ed6:	ce22                	sw	s0,28(sp)
20011ed8:	1000                	addi	s0,sp,32
/home/nicoladgg/wsFreedomStudio/sifive_hifive1_revb_hello/freedom-metal/src/drivers/riscv_cpu.c:96
20011eda:	6785                	lui	a5,0x1
20011edc:	80078793          	addi	a5,a5,-2048 # 800 <__heap_size>
20011ee0:	3047b7f3          	csrrc	a5,mie,a5
20011ee4:	fef42623          	sw	a5,-20(s0)
/home/nicoladgg/wsFreedomStudio/sifive_hifive1_revb_hello/freedom-metal/src/drivers/riscv_cpu.c:99
20011ee8:	0001                	nop
20011eea:	4472                	lw	s0,28(sp)
20011eec:	6105                	addi	sp,sp,32
20011eee:	8082                	ret

20011ef0 <__metal_interrupt_local_enable>:
__metal_interrupt_local_enable():
/home/nicoladgg/wsFreedomStudio/sifive_hifive1_revb_hello/freedom-metal/src/drivers/riscv_cpu.c:101
20011ef0:	7179                	addi	sp,sp,-48
20011ef2:	d622                	sw	s0,44(sp)
20011ef4:	1800                	addi	s0,sp,48
20011ef6:	fca42e23          	sw	a0,-36(s0)
/home/nicoladgg/wsFreedomStudio/sifive_hifive1_revb_hello/freedom-metal/src/drivers/riscv_cpu.c:102
20011efa:	fdc42783          	lw	a5,-36(s0)
20011efe:	4705                	li	a4,1
20011f00:	00f717b3          	sll	a5,a4,a5
20011f04:	fef42623          	sw	a5,-20(s0)
/home/nicoladgg/wsFreedomStudio/sifive_hifive1_revb_hello/freedom-metal/src/drivers/riscv_cpu.c:104
20011f08:	fec42783          	lw	a5,-20(s0)
20011f0c:	3047a7f3          	csrrs	a5,mie,a5
20011f10:	fef42423          	sw	a5,-24(s0)
/home/nicoladgg/wsFreedomStudio/sifive_hifive1_revb_hello/freedom-metal/src/drivers/riscv_cpu.c:105
20011f14:	0001                	nop
20011f16:	5432                	lw	s0,44(sp)
20011f18:	6145                	addi	sp,sp,48
20011f1a:	8082                	ret

20011f1c <__metal_interrupt_local_disable>:
__metal_interrupt_local_disable():
/home/nicoladgg/wsFreedomStudio/sifive_hifive1_revb_hello/freedom-metal/src/drivers/riscv_cpu.c:107
20011f1c:	7179                	addi	sp,sp,-48
20011f1e:	d622                	sw	s0,44(sp)
20011f20:	1800                	addi	s0,sp,48
20011f22:	fca42e23          	sw	a0,-36(s0)
/home/nicoladgg/wsFreedomStudio/sifive_hifive1_revb_hello/freedom-metal/src/drivers/riscv_cpu.c:108
20011f26:	fdc42783          	lw	a5,-36(s0)
20011f2a:	4705                	li	a4,1
20011f2c:	00f717b3          	sll	a5,a4,a5
20011f30:	fef42623          	sw	a5,-20(s0)
/home/nicoladgg/wsFreedomStudio/sifive_hifive1_revb_hello/freedom-metal/src/drivers/riscv_cpu.c:110
20011f34:	fec42783          	lw	a5,-20(s0)
20011f38:	3047b7f3          	csrrc	a5,mie,a5
20011f3c:	fef42423          	sw	a5,-24(s0)
/home/nicoladgg/wsFreedomStudio/sifive_hifive1_revb_hello/freedom-metal/src/drivers/riscv_cpu.c:111
20011f40:	0001                	nop
20011f42:	5432                	lw	s0,44(sp)
20011f44:	6145                	addi	sp,sp,48
20011f46:	8082                	ret

20011f48 <__metal_default_exception_handler>:
__metal_default_exception_handler():
/home/nicoladgg/wsFreedomStudio/sifive_hifive1_revb_hello/freedom-metal/src/drivers/riscv_cpu.c:113
20011f48:	1101                	addi	sp,sp,-32
20011f4a:	ce06                	sw	ra,28(sp)
20011f4c:	cc22                	sw	s0,24(sp)
20011f4e:	1000                	addi	s0,sp,32
20011f50:	fea42623          	sw	a0,-20(s0)
20011f54:	feb42423          	sw	a1,-24(s0)
/home/nicoladgg/wsFreedomStudio/sifive_hifive1_revb_hello/freedom-metal/src/drivers/riscv_cpu.c:114
20011f58:	06400513          	li	a0,100
20011f5c:	20c020ef          	jal	ra,20014168 <metal_shutdown>

20011f60 <__metal_default_interrupt_handler>:
__metal_default_interrupt_handler():
/home/nicoladgg/wsFreedomStudio/sifive_hifive1_revb_hello/freedom-metal/src/drivers/riscv_cpu.c:117
20011f60:	1101                	addi	sp,sp,-32
20011f62:	ce06                	sw	ra,28(sp)
20011f64:	cc22                	sw	s0,24(sp)
20011f66:	1000                	addi	s0,sp,32
20011f68:	fea42623          	sw	a0,-20(s0)
20011f6c:	feb42423          	sw	a1,-24(s0)
/home/nicoladgg/wsFreedomStudio/sifive_hifive1_revb_hello/freedom-metal/src/drivers/riscv_cpu.c:118
20011f70:	0c800513          	li	a0,200
20011f74:	1f4020ef          	jal	ra,20014168 <metal_shutdown>

20011f78 <metal_interrupt_vector_handler>:
metal_interrupt_vector_handler():
/home/nicoladgg/wsFreedomStudio/sifive_hifive1_revb_hello/freedom-metal/src/drivers/riscv_cpu.c:122
20011f78:	715d                	addi	sp,sp,-80
20011f7a:	c686                	sw	ra,76(sp)
20011f7c:	c496                	sw	t0,72(sp)
20011f7e:	c29a                	sw	t1,68(sp)
20011f80:	c09e                	sw	t2,64(sp)
20011f82:	de22                	sw	s0,60(sp)
20011f84:	dc2a                	sw	a0,56(sp)
20011f86:	da2e                	sw	a1,52(sp)
20011f88:	d832                	sw	a2,48(sp)
20011f8a:	d636                	sw	a3,44(sp)
20011f8c:	d43a                	sw	a4,40(sp)
20011f8e:	d23e                	sw	a5,36(sp)
20011f90:	d042                	sw	a6,32(sp)
20011f92:	ce46                	sw	a7,28(sp)
20011f94:	cc72                	sw	t3,24(sp)
20011f96:	ca76                	sw	t4,20(sp)
20011f98:	c87a                	sw	t5,16(sp)
20011f9a:	c67e                	sw	t6,12(sp)
20011f9c:	0880                	addi	s0,sp,80
/home/nicoladgg/wsFreedomStudio/sifive_hifive1_revb_hello/freedom-metal/src/drivers/riscv_cpu.c:123
20011f9e:	12c00513          	li	a0,300
20011fa2:	1c6020ef          	jal	ra,20014168 <metal_shutdown>

20011fa6 <metal_software_interrupt_vector_handler>:
metal_software_interrupt_vector_handler():
/home/nicoladgg/wsFreedomStudio/sifive_hifive1_revb_hello/freedom-metal/src/drivers/riscv_cpu.c:128
20011fa6:	711d                	addi	sp,sp,-96
20011fa8:	ce86                	sw	ra,92(sp)
20011faa:	cc96                	sw	t0,88(sp)
20011fac:	ca9a                	sw	t1,84(sp)
20011fae:	c89e                	sw	t2,80(sp)
20011fb0:	c6a2                	sw	s0,76(sp)
20011fb2:	c4aa                	sw	a0,72(sp)
20011fb4:	c2ae                	sw	a1,68(sp)
20011fb6:	c0b2                	sw	a2,64(sp)
20011fb8:	de36                	sw	a3,60(sp)
20011fba:	dc3a                	sw	a4,56(sp)
20011fbc:	da3e                	sw	a5,52(sp)
20011fbe:	d842                	sw	a6,48(sp)
20011fc0:	d646                	sw	a7,44(sp)
20011fc2:	d472                	sw	t3,40(sp)
20011fc4:	d276                	sw	t4,36(sp)
20011fc6:	d07a                	sw	t5,32(sp)
20011fc8:	ce7e                	sw	t6,28(sp)
20011fca:	1080                	addi	s0,sp,96
/home/nicoladgg/wsFreedomStudio/sifive_hifive1_revb_hello/freedom-metal/src/drivers/riscv_cpu.c:129
20011fcc:	3d3d                	jal	20011e0a <__metal_myhart_id>
20011fce:	872a                	mv	a4,a0
20011fd0:	070a                	slli	a4,a4,0x2
20011fd2:	80c18793          	addi	a5,gp,-2036 # 80000494 <__metal_cpu_table>
20011fd6:	97ba                	add	a5,a5,a4
20011fd8:	439c                	lw	a5,0(a5)
20011fda:	faf42623          	sw	a5,-84(s0)
20011fde:	fac42783          	lw	a5,-84(s0)
20011fe2:	c785                	beqz	a5,2001200a <metal_software_interrupt_vector_handler+0x64>
/home/nicoladgg/wsFreedomStudio/sifive_hifive1_revb_hello/freedom-metal/src/drivers/riscv_cpu.c:129 (discriminator 1)
20011fe4:	fac42503          	lw	a0,-84(s0)
20011fe8:	3365                	jal	20011d90 <__metal_driver_cpu_interrupt_controller>
20011fea:	faa42423          	sw	a0,-88(s0)
20011fee:	fa842783          	lw	a5,-88(s0)
20011ff2:	0e07a783          	lw	a5,224(a5)
20011ff6:	faf42223          	sw	a5,-92(s0)
20011ffa:	fa842783          	lw	a5,-88(s0)
20011ffe:	0d87a783          	lw	a5,216(a5)
20012002:	fa442583          	lw	a1,-92(s0)
20012006:	450d                	li	a0,3
20012008:	9782                	jalr	a5
/home/nicoladgg/wsFreedomStudio/sifive_hifive1_revb_hello/freedom-metal/src/drivers/riscv_cpu.c:130
2001200a:	0001                	nop
2001200c:	40f6                	lw	ra,92(sp)
2001200e:	42e6                	lw	t0,88(sp)
20012010:	4356                	lw	t1,84(sp)
20012012:	43c6                	lw	t2,80(sp)
20012014:	4436                	lw	s0,76(sp)
20012016:	4526                	lw	a0,72(sp)
20012018:	4596                	lw	a1,68(sp)
2001201a:	4606                	lw	a2,64(sp)
2001201c:	56f2                	lw	a3,60(sp)
2001201e:	5762                	lw	a4,56(sp)
20012020:	57d2                	lw	a5,52(sp)
20012022:	5842                	lw	a6,48(sp)
20012024:	58b2                	lw	a7,44(sp)
20012026:	5e22                	lw	t3,40(sp)
20012028:	5e92                	lw	t4,36(sp)
2001202a:	5f02                	lw	t5,32(sp)
2001202c:	4ff2                	lw	t6,28(sp)
2001202e:	6125                	addi	sp,sp,96
20012030:	30200073          	mret

20012034 <__metal_default_sw_handler>:
__metal_default_sw_handler():
/home/nicoladgg/wsFreedomStudio/sifive_hifive1_revb_hello/freedom-metal/src/drivers/riscv_cpu.c:132
20012034:	7179                	addi	sp,sp,-48
20012036:	d606                	sw	ra,44(sp)
20012038:	d422                	sw	s0,40(sp)
2001203a:	1800                	addi	s0,sp,48
2001203c:	fca42e23          	sw	a0,-36(s0)
20012040:	fcb42c23          	sw	a1,-40(s0)
/home/nicoladgg/wsFreedomStudio/sifive_hifive1_revb_hello/freedom-metal/src/drivers/riscv_cpu.c:135
20012044:	33d9                	jal	20011e0a <__metal_myhart_id>
20012046:	872a                	mv	a4,a0
20012048:	070a                	slli	a4,a4,0x2
2001204a:	80c18793          	addi	a5,gp,-2036 # 80000494 <__metal_cpu_table>
2001204e:	97ba                	add	a5,a5,a4
20012050:	439c                	lw	a5,0(a5)
20012052:	fef42623          	sw	a5,-20(s0)
/home/nicoladgg/wsFreedomStudio/sifive_hifive1_revb_hello/freedom-metal/src/drivers/riscv_cpu.c:137
20012056:	342027f3          	csrr	a5,mcause
2001205a:	fef42423          	sw	a5,-24(s0)
/home/nicoladgg/wsFreedomStudio/sifive_hifive1_revb_hello/freedom-metal/src/drivers/riscv_cpu.c:138
2001205e:	fec42783          	lw	a5,-20(s0)
20012062:	c795                	beqz	a5,2001208e <__metal_default_sw_handler+0x5a>
/home/nicoladgg/wsFreedomStudio/sifive_hifive1_revb_hello/freedom-metal/src/drivers/riscv_cpu.c:140
20012064:	fec42503          	lw	a0,-20(s0)
20012068:	3325                	jal	20011d90 <__metal_driver_cpu_interrupt_controller>
2001206a:	fea42223          	sw	a0,-28(s0)
/home/nicoladgg/wsFreedomStudio/sifive_hifive1_revb_hello/freedom-metal/src/drivers/riscv_cpu.c:141
2001206e:	fe842783          	lw	a5,-24(s0)
20012072:	3ff7f793          	andi	a5,a5,1023
20012076:	fe442703          	lw	a4,-28(s0)
2001207a:	0e878793          	addi	a5,a5,232
2001207e:	078a                	slli	a5,a5,0x2
20012080:	97ba                	add	a5,a5,a4
20012082:	439c                	lw	a5,0(a5)
20012084:	fdc42583          	lw	a1,-36(s0)
20012088:	fec42503          	lw	a0,-20(s0)
2001208c:	9782                	jalr	a5
/home/nicoladgg/wsFreedomStudio/sifive_hifive1_revb_hello/freedom-metal/src/drivers/riscv_cpu.c:144
2001208e:	0001                	nop
20012090:	50b2                	lw	ra,44(sp)
20012092:	5422                	lw	s0,40(sp)
20012094:	6145                	addi	sp,sp,48
20012096:	8082                	ret

20012098 <metal_timer_interrupt_vector_handler>:
metal_timer_interrupt_vector_handler():
/home/nicoladgg/wsFreedomStudio/sifive_hifive1_revb_hello/freedom-metal/src/drivers/riscv_cpu.c:148
20012098:	711d                	addi	sp,sp,-96
2001209a:	ce86                	sw	ra,92(sp)
2001209c:	cc96                	sw	t0,88(sp)
2001209e:	ca9a                	sw	t1,84(sp)
200120a0:	c89e                	sw	t2,80(sp)
200120a2:	c6a2                	sw	s0,76(sp)
200120a4:	c4aa                	sw	a0,72(sp)
200120a6:	c2ae                	sw	a1,68(sp)
200120a8:	c0b2                	sw	a2,64(sp)
200120aa:	de36                	sw	a3,60(sp)
200120ac:	dc3a                	sw	a4,56(sp)
200120ae:	da3e                	sw	a5,52(sp)
200120b0:	d842                	sw	a6,48(sp)
200120b2:	d646                	sw	a7,44(sp)
200120b4:	d472                	sw	t3,40(sp)
200120b6:	d276                	sw	t4,36(sp)
200120b8:	d07a                	sw	t5,32(sp)
200120ba:	ce7e                	sw	t6,28(sp)
200120bc:	1080                	addi	s0,sp,96
/home/nicoladgg/wsFreedomStudio/sifive_hifive1_revb_hello/freedom-metal/src/drivers/riscv_cpu.c:149
200120be:	33b1                	jal	20011e0a <__metal_myhart_id>
200120c0:	872a                	mv	a4,a0
200120c2:	070a                	slli	a4,a4,0x2
200120c4:	80c18793          	addi	a5,gp,-2036 # 80000494 <__metal_cpu_table>
200120c8:	97ba                	add	a5,a5,a4
200120ca:	439c                	lw	a5,0(a5)
200120cc:	faf42623          	sw	a5,-84(s0)
200120d0:	fac42783          	lw	a5,-84(s0)
200120d4:	c785                	beqz	a5,200120fc <metal_timer_interrupt_vector_handler+0x64>
/home/nicoladgg/wsFreedomStudio/sifive_hifive1_revb_hello/freedom-metal/src/drivers/riscv_cpu.c:149 (discriminator 1)
200120d6:	fac42503          	lw	a0,-84(s0)
200120da:	395d                	jal	20011d90 <__metal_driver_cpu_interrupt_controller>
200120dc:	faa42423          	sw	a0,-88(s0)
200120e0:	fa842783          	lw	a5,-88(s0)
200120e4:	1407a783          	lw	a5,320(a5)
200120e8:	faf42223          	sw	a5,-92(s0)
200120ec:	fa842783          	lw	a5,-88(s0)
200120f0:	1387a783          	lw	a5,312(a5)
200120f4:	fa442583          	lw	a1,-92(s0)
200120f8:	451d                	li	a0,7
200120fa:	9782                	jalr	a5
/home/nicoladgg/wsFreedomStudio/sifive_hifive1_revb_hello/freedom-metal/src/drivers/riscv_cpu.c:150
200120fc:	0001                	nop
200120fe:	40f6                	lw	ra,92(sp)
20012100:	42e6                	lw	t0,88(sp)
20012102:	4356                	lw	t1,84(sp)
20012104:	43c6                	lw	t2,80(sp)
20012106:	4436                	lw	s0,76(sp)
20012108:	4526                	lw	a0,72(sp)
2001210a:	4596                	lw	a1,68(sp)
2001210c:	4606                	lw	a2,64(sp)
2001210e:	56f2                	lw	a3,60(sp)
20012110:	5762                	lw	a4,56(sp)
20012112:	57d2                	lw	a5,52(sp)
20012114:	5842                	lw	a6,48(sp)
20012116:	58b2                	lw	a7,44(sp)
20012118:	5e22                	lw	t3,40(sp)
2001211a:	5e92                	lw	t4,36(sp)
2001211c:	5f02                	lw	t5,32(sp)
2001211e:	4ff2                	lw	t6,28(sp)
20012120:	6125                	addi	sp,sp,96
20012122:	30200073          	mret

20012126 <__metal_default_beu_handler>:
__metal_default_beu_handler():
/home/nicoladgg/wsFreedomStudio/sifive_hifive1_revb_hello/freedom-metal/src/drivers/riscv_cpu.c:152
20012126:	1101                	addi	sp,sp,-32
20012128:	ce22                	sw	s0,28(sp)
2001212a:	1000                	addi	s0,sp,32
2001212c:	fea42623          	sw	a0,-20(s0)
20012130:	feb42423          	sw	a1,-24(s0)
20012134:	0001                	nop
20012136:	4472                	lw	s0,28(sp)
20012138:	6105                	addi	sp,sp,32
2001213a:	8082                	ret

2001213c <__metal_default_timer_handler>:
__metal_default_timer_handler():
/home/nicoladgg/wsFreedomStudio/sifive_hifive1_revb_hello/freedom-metal/src/drivers/riscv_cpu.c:154
2001213c:	7179                	addi	sp,sp,-48
2001213e:	d606                	sw	ra,44(sp)
20012140:	d422                	sw	s0,40(sp)
20012142:	1800                	addi	s0,sp,48
20012144:	fca42e23          	sw	a0,-36(s0)
20012148:	fcb42c23          	sw	a1,-40(s0)
/home/nicoladgg/wsFreedomStudio/sifive_hifive1_revb_hello/freedom-metal/src/drivers/riscv_cpu.c:155
2001214c:	397d                	jal	20011e0a <__metal_myhart_id>
2001214e:	87aa                	mv	a5,a0
20012150:	853e                	mv	a0,a5
20012152:	3171                	jal	20011dde <__metal_driver_cpu_get>
20012154:	fea42623          	sw	a0,-20(s0)
/home/nicoladgg/wsFreedomStudio/sifive_hifive1_revb_hello/freedom-metal/src/drivers/riscv_cpu.c:156
20012158:	fec42503          	lw	a0,-20(s0)
2001215c:	27a010ef          	jal	ra,200133d6 <__metal_driver_cpu_mtime_get>
20012160:	fea42023          	sw	a0,-32(s0)
20012164:	feb42223          	sw	a1,-28(s0)
/home/nicoladgg/wsFreedomStudio/sifive_hifive1_revb_hello/freedom-metal/src/drivers/riscv_cpu.c:159
20012168:	fe042703          	lw	a4,-32(s0)
2001216c:	fe442783          	lw	a5,-28(s0)
20012170:	4529                	li	a0,10
20012172:	4581                	li	a1,0
20012174:	00a70633          	add	a2,a4,a0
20012178:	8832                	mv	a6,a2
2001217a:	00e83833          	sltu	a6,a6,a4
2001217e:	00b786b3          	add	a3,a5,a1
20012182:	00d807b3          	add	a5,a6,a3
20012186:	86be                	mv	a3,a5
20012188:	8732                	mv	a4,a2
2001218a:	87b6                	mv	a5,a3
2001218c:	85ba                	mv	a1,a4
2001218e:	863e                	mv	a2,a5
20012190:	fec42503          	lw	a0,-20(s0)
20012194:	2a8010ef          	jal	ra,2001343c <__metal_driver_cpu_mtimecmp_set>
/home/nicoladgg/wsFreedomStudio/sifive_hifive1_revb_hello/freedom-metal/src/drivers/riscv_cpu.c:160
20012198:	0001                	nop
2001219a:	50b2                	lw	ra,44(sp)
2001219c:	5422                	lw	s0,40(sp)
2001219e:	6145                	addi	sp,sp,48
200121a0:	8082                	ret
	...

20012200 <__metal_exception_handler>:
__metal_exception_handler():
/home/nicoladgg/wsFreedomStudio/sifive_hifive1_revb_hello/freedom-metal/src/drivers/riscv_cpu.c:169
20012200:	7119                	addi	sp,sp,-128
20012202:	de86                	sw	ra,124(sp)
20012204:	dc96                	sw	t0,120(sp)
20012206:	da9a                	sw	t1,116(sp)
20012208:	d89e                	sw	t2,112(sp)
2001220a:	d6a2                	sw	s0,108(sp)
2001220c:	d4aa                	sw	a0,104(sp)
2001220e:	d2ae                	sw	a1,100(sp)
20012210:	d0b2                	sw	a2,96(sp)
20012212:	ceb6                	sw	a3,92(sp)
20012214:	ccba                	sw	a4,88(sp)
20012216:	cabe                	sw	a5,84(sp)
20012218:	c8c2                	sw	a6,80(sp)
2001221a:	c6c6                	sw	a7,76(sp)
2001221c:	c4f2                	sw	t3,72(sp)
2001221e:	c2f6                	sw	t4,68(sp)
20012220:	c0fa                	sw	t5,64(sp)
20012222:	de7e                	sw	t6,60(sp)
20012224:	0100                	addi	s0,sp,128
/home/nicoladgg/wsFreedomStudio/sifive_hifive1_revb_hello/freedom-metal/src/drivers/riscv_cpu.c:174
20012226:	36d5                	jal	20011e0a <__metal_myhart_id>
20012228:	872a                	mv	a4,a0
2001222a:	070a                	slli	a4,a4,0x2
2001222c:	80c18793          	addi	a5,gp,-2036 # 80000494 <__metal_cpu_table>
20012230:	97ba                	add	a5,a5,a4
20012232:	439c                	lw	a5,0(a5)
20012234:	faf42623          	sw	a5,-84(s0)
/home/nicoladgg/wsFreedomStudio/sifive_hifive1_revb_hello/freedom-metal/src/drivers/riscv_cpu.c:176
20012238:	342027f3          	csrr	a5,mcause
2001223c:	faf42423          	sw	a5,-88(s0)
/home/nicoladgg/wsFreedomStudio/sifive_hifive1_revb_hello/freedom-metal/src/drivers/riscv_cpu.c:177
20012240:	341027f3          	csrr	a5,mepc
20012244:	faf42223          	sw	a5,-92(s0)
/home/nicoladgg/wsFreedomStudio/sifive_hifive1_revb_hello/freedom-metal/src/drivers/riscv_cpu.c:178
20012248:	343027f3          	csrr	a5,mtval
2001224c:	faf42023          	sw	a5,-96(s0)
/home/nicoladgg/wsFreedomStudio/sifive_hifive1_revb_hello/freedom-metal/src/drivers/riscv_cpu.c:179
20012250:	305027f3          	csrr	a5,mtvec
20012254:	f8f42e23          	sw	a5,-100(s0)
/home/nicoladgg/wsFreedomStudio/sifive_hifive1_revb_hello/freedom-metal/src/drivers/riscv_cpu.c:181
20012258:	fac42783          	lw	a5,-84(s0)
2001225c:	cbf5                	beqz	a5,20012350 <__metal_exception_handler+0x150>
/home/nicoladgg/wsFreedomStudio/sifive_hifive1_revb_hello/freedom-metal/src/drivers/riscv_cpu.c:183
2001225e:	fac42503          	lw	a0,-84(s0)
20012262:	363d                	jal	20011d90 <__metal_driver_cpu_interrupt_controller>
20012264:	f8a42c23          	sw	a0,-104(s0)
/home/nicoladgg/wsFreedomStudio/sifive_hifive1_revb_hello/freedom-metal/src/drivers/riscv_cpu.c:184
20012268:	fa842783          	lw	a5,-88(s0)
2001226c:	3ff7f793          	andi	a5,a5,1023
20012270:	f8f42a23          	sw	a5,-108(s0)
/home/nicoladgg/wsFreedomStudio/sifive_hifive1_revb_hello/freedom-metal/src/drivers/riscv_cpu.c:185
20012274:	fa842783          	lw	a5,-88(s0)
20012278:	0a07de63          	bgez	a5,20012334 <__metal_exception_handler+0x134>
/home/nicoladgg/wsFreedomStudio/sifive_hifive1_revb_hello/freedom-metal/src/drivers/riscv_cpu.c:186
2001227c:	f9442703          	lw	a4,-108(s0)
20012280:	08000793          	li	a5,128
20012284:	02f71263          	bne	a4,a5,200122a8 <__metal_exception_handler+0xa8>
/home/nicoladgg/wsFreedomStudio/sifive_hifive1_revb_hello/freedom-metal/src/drivers/riscv_cpu.c:187
20012288:	f9842783          	lw	a5,-104(s0)
2001228c:	3987a783          	lw	a5,920(a5)
20012290:	f8f42623          	sw	a5,-116(s0)
/home/nicoladgg/wsFreedomStudio/sifive_hifive1_revb_hello/freedom-metal/src/drivers/riscv_cpu.c:188
20012294:	f9842783          	lw	a5,-104(s0)
20012298:	3907a783          	lw	a5,912(a5)
2001229c:	f8c42583          	lw	a1,-116(s0)
200122a0:	f9442503          	lw	a0,-108(s0)
200122a4:	9782                	jalr	a5
/home/nicoladgg/wsFreedomStudio/sifive_hifive1_revb_hello/freedom-metal/src/drivers/riscv_cpu.c:189
200122a6:	a06d                	j	20012350 <__metal_exception_handler+0x150>
/home/nicoladgg/wsFreedomStudio/sifive_hifive1_revb_hello/freedom-metal/src/drivers/riscv_cpu.c:191
200122a8:	f9442703          	lw	a4,-108(s0)
200122ac:	47ad                	li	a5,11
200122ae:	00e7d763          	bge	a5,a4,200122bc <__metal_exception_handler+0xbc>
/home/nicoladgg/wsFreedomStudio/sifive_hifive1_revb_hello/freedom-metal/src/drivers/riscv_cpu.c:192 (discriminator 1)
200122b2:	f9c42783          	lw	a5,-100(s0)
200122b6:	03f7f793          	andi	a5,a5,63
/home/nicoladgg/wsFreedomStudio/sifive_hifive1_revb_hello/freedom-metal/src/drivers/riscv_cpu.c:191 (discriminator 1)
200122ba:	ef9d                	bnez	a5,200122f8 <__metal_exception_handler+0xf8>
/home/nicoladgg/wsFreedomStudio/sifive_hifive1_revb_hello/freedom-metal/src/drivers/riscv_cpu.c:193
200122bc:	f9842683          	lw	a3,-104(s0)
200122c0:	f9442703          	lw	a4,-108(s0)
200122c4:	87ba                	mv	a5,a4
200122c6:	0786                	slli	a5,a5,0x1
200122c8:	97ba                	add	a5,a5,a4
200122ca:	078e                	slli	a5,a5,0x3
200122cc:	97b6                	add	a5,a5,a3
200122ce:	0987a783          	lw	a5,152(a5)
200122d2:	f8f42623          	sw	a5,-116(s0)
/home/nicoladgg/wsFreedomStudio/sifive_hifive1_revb_hello/freedom-metal/src/drivers/riscv_cpu.c:194
200122d6:	f9842683          	lw	a3,-104(s0)
200122da:	f9442703          	lw	a4,-108(s0)
200122de:	87ba                	mv	a5,a4
200122e0:	0786                	slli	a5,a5,0x1
200122e2:	97ba                	add	a5,a5,a4
200122e4:	078e                	slli	a5,a5,0x3
200122e6:	97b6                	add	a5,a5,a3
200122e8:	0907a783          	lw	a5,144(a5)
200122ec:	f8c42583          	lw	a1,-116(s0)
200122f0:	f9442503          	lw	a0,-108(s0)
200122f4:	9782                	jalr	a5
/home/nicoladgg/wsFreedomStudio/sifive_hifive1_revb_hello/freedom-metal/src/drivers/riscv_cpu.c:195
200122f6:	a8a9                	j	20012350 <__metal_exception_handler+0x150>
/home/nicoladgg/wsFreedomStudio/sifive_hifive1_revb_hello/freedom-metal/src/drivers/riscv_cpu.c:197
200122f8:	f9c42783          	lw	a5,-100(s0)
200122fc:	03f7f713          	andi	a4,a5,63
20012300:	4789                	li	a5,2
20012302:	04f71763          	bne	a4,a5,20012350 <__metal_exception_handler+0x150>
/home/nicoladgg/wsFreedomStudio/sifive_hifive1_revb_hello/freedom-metal/src/drivers/riscv_cpu.c:201
20012306:	307027f3          	csrr	a5,mtvt
2001230a:	f8f42823          	sw	a5,-112(s0)
/home/nicoladgg/wsFreedomStudio/sifive_hifive1_revb_hello/freedom-metal/src/drivers/riscv_cpu.c:202
2001230e:	f9842783          	lw	a5,-104(s0)
20012312:	0dc7a783          	lw	a5,220(a5)
20012316:	f8f42623          	sw	a5,-116(s0)
/home/nicoladgg/wsFreedomStudio/sifive_hifive1_revb_hello/freedom-metal/src/drivers/riscv_cpu.c:203
2001231a:	f9042783          	lw	a5,-112(s0)
2001231e:	439c                	lw	a5,0(a5)
20012320:	f8f42423          	sw	a5,-120(s0)
/home/nicoladgg/wsFreedomStudio/sifive_hifive1_revb_hello/freedom-metal/src/drivers/riscv_cpu.c:204
20012324:	f8842783          	lw	a5,-120(s0)
20012328:	f8c42583          	lw	a1,-116(s0)
2001232c:	f9442503          	lw	a0,-108(s0)
20012330:	9782                	jalr	a5
/home/nicoladgg/wsFreedomStudio/sifive_hifive1_revb_hello/freedom-metal/src/drivers/riscv_cpu.c:205
20012332:	a839                	j	20012350 <__metal_exception_handler+0x150>
/home/nicoladgg/wsFreedomStudio/sifive_hifive1_revb_hello/freedom-metal/src/drivers/riscv_cpu.c:208
20012334:	f9842703          	lw	a4,-104(s0)
20012338:	f9442783          	lw	a5,-108(s0)
2001233c:	0e878793          	addi	a5,a5,232
20012340:	078a                	slli	a5,a5,0x2
20012342:	97ba                	add	a5,a5,a4
20012344:	439c                	lw	a5,0(a5)
20012346:	f9442583          	lw	a1,-108(s0)
2001234a:	fac42503          	lw	a0,-84(s0)
2001234e:	9782                	jalr	a5
/home/nicoladgg/wsFreedomStudio/sifive_hifive1_revb_hello/freedom-metal/src/drivers/riscv_cpu.c:211
20012350:	50f6                	lw	ra,124(sp)
20012352:	52e6                	lw	t0,120(sp)
20012354:	5356                	lw	t1,116(sp)
20012356:	53c6                	lw	t2,112(sp)
20012358:	5436                	lw	s0,108(sp)
2001235a:	5526                	lw	a0,104(sp)
2001235c:	5596                	lw	a1,100(sp)
2001235e:	5606                	lw	a2,96(sp)
20012360:	46f6                	lw	a3,92(sp)
20012362:	4766                	lw	a4,88(sp)
20012364:	47d6                	lw	a5,84(sp)
20012366:	4846                	lw	a6,80(sp)
20012368:	48b6                	lw	a7,76(sp)
2001236a:	4e26                	lw	t3,72(sp)
2001236c:	4e96                	lw	t4,68(sp)
2001236e:	4f06                	lw	t5,64(sp)
20012370:	5ff2                	lw	t6,60(sp)
20012372:	6109                	addi	sp,sp,128
20012374:	30200073          	mret
	...

200123f2 <metal_lc0_interrupt_vector_handler>:
metal_lc0_interrupt_vector_handler():
/home/nicoladgg/wsFreedomStudio/sifive_hifive1_revb_hello/freedom-metal/src/drivers/riscv_cpu.c:214
200123f2:	711d                	addi	sp,sp,-96
200123f4:	ce86                	sw	ra,92(sp)
200123f6:	cc96                	sw	t0,88(sp)
200123f8:	ca9a                	sw	t1,84(sp)
200123fa:	c89e                	sw	t2,80(sp)
200123fc:	c6a2                	sw	s0,76(sp)
200123fe:	c4aa                	sw	a0,72(sp)
20012400:	c2ae                	sw	a1,68(sp)
20012402:	c0b2                	sw	a2,64(sp)
20012404:	de36                	sw	a3,60(sp)
20012406:	dc3a                	sw	a4,56(sp)
20012408:	da3e                	sw	a5,52(sp)
2001240a:	d842                	sw	a6,48(sp)
2001240c:	d646                	sw	a7,44(sp)
2001240e:	d472                	sw	t3,40(sp)
20012410:	d276                	sw	t4,36(sp)
20012412:	d07a                	sw	t5,32(sp)
20012414:	ce7e                	sw	t6,28(sp)
20012416:	1080                	addi	s0,sp,96
/home/nicoladgg/wsFreedomStudio/sifive_hifive1_revb_hello/freedom-metal/src/drivers/riscv_cpu.c:215
20012418:	9f3ff0ef          	jal	ra,20011e0a <__metal_myhart_id>
2001241c:	872a                	mv	a4,a0
2001241e:	070a                	slli	a4,a4,0x2
20012420:	80c18793          	addi	a5,gp,-2036 # 80000494 <__metal_cpu_table>
20012424:	97ba                	add	a5,a5,a4
20012426:	439c                	lw	a5,0(a5)
20012428:	faf42623          	sw	a5,-84(s0)
2001242c:	fac42783          	lw	a5,-84(s0)
20012430:	c78d                	beqz	a5,2001245a <metal_lc0_interrupt_vector_handler+0x68>
/home/nicoladgg/wsFreedomStudio/sifive_hifive1_revb_hello/freedom-metal/src/drivers/riscv_cpu.c:215 (discriminator 1)
20012432:	fac42503          	lw	a0,-84(s0)
20012436:	95bff0ef          	jal	ra,20011d90 <__metal_driver_cpu_interrupt_controller>
2001243a:	faa42423          	sw	a0,-88(s0)
2001243e:	fa842783          	lw	a5,-88(s0)
20012442:	2187a783          	lw	a5,536(a5)
20012446:	faf42223          	sw	a5,-92(s0)
2001244a:	fa842783          	lw	a5,-88(s0)
2001244e:	2107a783          	lw	a5,528(a5)
20012452:	fa442583          	lw	a1,-92(s0)
20012456:	4541                	li	a0,16
20012458:	9782                	jalr	a5
/home/nicoladgg/wsFreedomStudio/sifive_hifive1_revb_hello/freedom-metal/src/drivers/riscv_cpu.c:216
2001245a:	0001                	nop
2001245c:	40f6                	lw	ra,92(sp)
2001245e:	42e6                	lw	t0,88(sp)
20012460:	4356                	lw	t1,84(sp)
20012462:	43c6                	lw	t2,80(sp)
20012464:	4436                	lw	s0,76(sp)
20012466:	4526                	lw	a0,72(sp)
20012468:	4596                	lw	a1,68(sp)
2001246a:	4606                	lw	a2,64(sp)
2001246c:	56f2                	lw	a3,60(sp)
2001246e:	5762                	lw	a4,56(sp)
20012470:	57d2                	lw	a5,52(sp)
20012472:	5842                	lw	a6,48(sp)
20012474:	58b2                	lw	a7,44(sp)
20012476:	5e22                	lw	t3,40(sp)
20012478:	5e92                	lw	t4,36(sp)
2001247a:	5f02                	lw	t5,32(sp)
2001247c:	4ff2                	lw	t6,28(sp)
2001247e:	6125                	addi	sp,sp,96
20012480:	30200073          	mret

20012484 <metal_lc1_interrupt_vector_handler>:
metal_lc1_interrupt_vector_handler():
/home/nicoladgg/wsFreedomStudio/sifive_hifive1_revb_hello/freedom-metal/src/drivers/riscv_cpu.c:219
20012484:	711d                	addi	sp,sp,-96
20012486:	ce86                	sw	ra,92(sp)
20012488:	cc96                	sw	t0,88(sp)
2001248a:	ca9a                	sw	t1,84(sp)
2001248c:	c89e                	sw	t2,80(sp)
2001248e:	c6a2                	sw	s0,76(sp)
20012490:	c4aa                	sw	a0,72(sp)
20012492:	c2ae                	sw	a1,68(sp)
20012494:	c0b2                	sw	a2,64(sp)
20012496:	de36                	sw	a3,60(sp)
20012498:	dc3a                	sw	a4,56(sp)
2001249a:	da3e                	sw	a5,52(sp)
2001249c:	d842                	sw	a6,48(sp)
2001249e:	d646                	sw	a7,44(sp)
200124a0:	d472                	sw	t3,40(sp)
200124a2:	d276                	sw	t4,36(sp)
200124a4:	d07a                	sw	t5,32(sp)
200124a6:	ce7e                	sw	t6,28(sp)
200124a8:	1080                	addi	s0,sp,96
/home/nicoladgg/wsFreedomStudio/sifive_hifive1_revb_hello/freedom-metal/src/drivers/riscv_cpu.c:220
200124aa:	961ff0ef          	jal	ra,20011e0a <__metal_myhart_id>
200124ae:	872a                	mv	a4,a0
200124b0:	070a                	slli	a4,a4,0x2
200124b2:	80c18793          	addi	a5,gp,-2036 # 80000494 <__metal_cpu_table>
200124b6:	97ba                	add	a5,a5,a4
200124b8:	439c                	lw	a5,0(a5)
200124ba:	faf42623          	sw	a5,-84(s0)
200124be:	fac42783          	lw	a5,-84(s0)
200124c2:	c78d                	beqz	a5,200124ec <metal_lc1_interrupt_vector_handler+0x68>
/home/nicoladgg/wsFreedomStudio/sifive_hifive1_revb_hello/freedom-metal/src/drivers/riscv_cpu.c:220 (discriminator 1)
200124c4:	fac42503          	lw	a0,-84(s0)
200124c8:	8c9ff0ef          	jal	ra,20011d90 <__metal_driver_cpu_interrupt_controller>
200124cc:	faa42423          	sw	a0,-88(s0)
200124d0:	fa842783          	lw	a5,-88(s0)
200124d4:	2307a783          	lw	a5,560(a5)
200124d8:	faf42223          	sw	a5,-92(s0)
200124dc:	fa842783          	lw	a5,-88(s0)
200124e0:	2287a783          	lw	a5,552(a5)
200124e4:	fa442583          	lw	a1,-92(s0)
200124e8:	4545                	li	a0,17
200124ea:	9782                	jalr	a5
/home/nicoladgg/wsFreedomStudio/sifive_hifive1_revb_hello/freedom-metal/src/drivers/riscv_cpu.c:221
200124ec:	0001                	nop
200124ee:	40f6                	lw	ra,92(sp)
200124f0:	42e6                	lw	t0,88(sp)
200124f2:	4356                	lw	t1,84(sp)
200124f4:	43c6                	lw	t2,80(sp)
200124f6:	4436                	lw	s0,76(sp)
200124f8:	4526                	lw	a0,72(sp)
200124fa:	4596                	lw	a1,68(sp)
200124fc:	4606                	lw	a2,64(sp)
200124fe:	56f2                	lw	a3,60(sp)
20012500:	5762                	lw	a4,56(sp)
20012502:	57d2                	lw	a5,52(sp)
20012504:	5842                	lw	a6,48(sp)
20012506:	58b2                	lw	a7,44(sp)
20012508:	5e22                	lw	t3,40(sp)
2001250a:	5e92                	lw	t4,36(sp)
2001250c:	5f02                	lw	t5,32(sp)
2001250e:	4ff2                	lw	t6,28(sp)
20012510:	6125                	addi	sp,sp,96
20012512:	30200073          	mret

20012516 <metal_lc2_interrupt_vector_handler>:
metal_lc2_interrupt_vector_handler():
/home/nicoladgg/wsFreedomStudio/sifive_hifive1_revb_hello/freedom-metal/src/drivers/riscv_cpu.c:224
20012516:	711d                	addi	sp,sp,-96
20012518:	ce86                	sw	ra,92(sp)
2001251a:	cc96                	sw	t0,88(sp)
2001251c:	ca9a                	sw	t1,84(sp)
2001251e:	c89e                	sw	t2,80(sp)
20012520:	c6a2                	sw	s0,76(sp)
20012522:	c4aa                	sw	a0,72(sp)
20012524:	c2ae                	sw	a1,68(sp)
20012526:	c0b2                	sw	a2,64(sp)
20012528:	de36                	sw	a3,60(sp)
2001252a:	dc3a                	sw	a4,56(sp)
2001252c:	da3e                	sw	a5,52(sp)
2001252e:	d842                	sw	a6,48(sp)
20012530:	d646                	sw	a7,44(sp)
20012532:	d472                	sw	t3,40(sp)
20012534:	d276                	sw	t4,36(sp)
20012536:	d07a                	sw	t5,32(sp)
20012538:	ce7e                	sw	t6,28(sp)
2001253a:	1080                	addi	s0,sp,96
/home/nicoladgg/wsFreedomStudio/sifive_hifive1_revb_hello/freedom-metal/src/drivers/riscv_cpu.c:225
2001253c:	8cfff0ef          	jal	ra,20011e0a <__metal_myhart_id>
20012540:	872a                	mv	a4,a0
20012542:	070a                	slli	a4,a4,0x2
20012544:	80c18793          	addi	a5,gp,-2036 # 80000494 <__metal_cpu_table>
20012548:	97ba                	add	a5,a5,a4
2001254a:	439c                	lw	a5,0(a5)
2001254c:	faf42623          	sw	a5,-84(s0)
20012550:	fac42783          	lw	a5,-84(s0)
20012554:	c78d                	beqz	a5,2001257e <metal_lc2_interrupt_vector_handler+0x68>
/home/nicoladgg/wsFreedomStudio/sifive_hifive1_revb_hello/freedom-metal/src/drivers/riscv_cpu.c:225 (discriminator 1)
20012556:	fac42503          	lw	a0,-84(s0)
2001255a:	837ff0ef          	jal	ra,20011d90 <__metal_driver_cpu_interrupt_controller>
2001255e:	faa42423          	sw	a0,-88(s0)
20012562:	fa842783          	lw	a5,-88(s0)
20012566:	2487a783          	lw	a5,584(a5)
2001256a:	faf42223          	sw	a5,-92(s0)
2001256e:	fa842783          	lw	a5,-88(s0)
20012572:	2407a783          	lw	a5,576(a5)
20012576:	fa442583          	lw	a1,-92(s0)
2001257a:	4549                	li	a0,18
2001257c:	9782                	jalr	a5
/home/nicoladgg/wsFreedomStudio/sifive_hifive1_revb_hello/freedom-metal/src/drivers/riscv_cpu.c:226
2001257e:	0001                	nop
20012580:	40f6                	lw	ra,92(sp)
20012582:	42e6                	lw	t0,88(sp)
20012584:	4356                	lw	t1,84(sp)
20012586:	43c6                	lw	t2,80(sp)
20012588:	4436                	lw	s0,76(sp)
2001258a:	4526                	lw	a0,72(sp)
2001258c:	4596                	lw	a1,68(sp)
2001258e:	4606                	lw	a2,64(sp)
20012590:	56f2                	lw	a3,60(sp)
20012592:	5762                	lw	a4,56(sp)
20012594:	57d2                	lw	a5,52(sp)
20012596:	5842                	lw	a6,48(sp)
20012598:	58b2                	lw	a7,44(sp)
2001259a:	5e22                	lw	t3,40(sp)
2001259c:	5e92                	lw	t4,36(sp)
2001259e:	5f02                	lw	t5,32(sp)
200125a0:	4ff2                	lw	t6,28(sp)
200125a2:	6125                	addi	sp,sp,96
200125a4:	30200073          	mret

200125a8 <metal_lc3_interrupt_vector_handler>:
metal_lc3_interrupt_vector_handler():
/home/nicoladgg/wsFreedomStudio/sifive_hifive1_revb_hello/freedom-metal/src/drivers/riscv_cpu.c:229
200125a8:	711d                	addi	sp,sp,-96
200125aa:	ce86                	sw	ra,92(sp)
200125ac:	cc96                	sw	t0,88(sp)
200125ae:	ca9a                	sw	t1,84(sp)
200125b0:	c89e                	sw	t2,80(sp)
200125b2:	c6a2                	sw	s0,76(sp)
200125b4:	c4aa                	sw	a0,72(sp)
200125b6:	c2ae                	sw	a1,68(sp)
200125b8:	c0b2                	sw	a2,64(sp)
200125ba:	de36                	sw	a3,60(sp)
200125bc:	dc3a                	sw	a4,56(sp)
200125be:	da3e                	sw	a5,52(sp)
200125c0:	d842                	sw	a6,48(sp)
200125c2:	d646                	sw	a7,44(sp)
200125c4:	d472                	sw	t3,40(sp)
200125c6:	d276                	sw	t4,36(sp)
200125c8:	d07a                	sw	t5,32(sp)
200125ca:	ce7e                	sw	t6,28(sp)
200125cc:	1080                	addi	s0,sp,96
/home/nicoladgg/wsFreedomStudio/sifive_hifive1_revb_hello/freedom-metal/src/drivers/riscv_cpu.c:230
200125ce:	83dff0ef          	jal	ra,20011e0a <__metal_myhart_id>
200125d2:	872a                	mv	a4,a0
200125d4:	070a                	slli	a4,a4,0x2
200125d6:	80c18793          	addi	a5,gp,-2036 # 80000494 <__metal_cpu_table>
200125da:	97ba                	add	a5,a5,a4
200125dc:	439c                	lw	a5,0(a5)
200125de:	faf42623          	sw	a5,-84(s0)
200125e2:	fac42783          	lw	a5,-84(s0)
200125e6:	c78d                	beqz	a5,20012610 <metal_lc3_interrupt_vector_handler+0x68>
/home/nicoladgg/wsFreedomStudio/sifive_hifive1_revb_hello/freedom-metal/src/drivers/riscv_cpu.c:230 (discriminator 1)
200125e8:	fac42503          	lw	a0,-84(s0)
200125ec:	fa4ff0ef          	jal	ra,20011d90 <__metal_driver_cpu_interrupt_controller>
200125f0:	faa42423          	sw	a0,-88(s0)
200125f4:	fa842783          	lw	a5,-88(s0)
200125f8:	2607a783          	lw	a5,608(a5)
200125fc:	faf42223          	sw	a5,-92(s0)
20012600:	fa842783          	lw	a5,-88(s0)
20012604:	2587a783          	lw	a5,600(a5)
20012608:	fa442583          	lw	a1,-92(s0)
2001260c:	454d                	li	a0,19
2001260e:	9782                	jalr	a5
/home/nicoladgg/wsFreedomStudio/sifive_hifive1_revb_hello/freedom-metal/src/drivers/riscv_cpu.c:231
20012610:	0001                	nop
20012612:	40f6                	lw	ra,92(sp)
20012614:	42e6                	lw	t0,88(sp)
20012616:	4356                	lw	t1,84(sp)
20012618:	43c6                	lw	t2,80(sp)
2001261a:	4436                	lw	s0,76(sp)
2001261c:	4526                	lw	a0,72(sp)
2001261e:	4596                	lw	a1,68(sp)
20012620:	4606                	lw	a2,64(sp)
20012622:	56f2                	lw	a3,60(sp)
20012624:	5762                	lw	a4,56(sp)
20012626:	57d2                	lw	a5,52(sp)
20012628:	5842                	lw	a6,48(sp)
2001262a:	58b2                	lw	a7,44(sp)
2001262c:	5e22                	lw	t3,40(sp)
2001262e:	5e92                	lw	t4,36(sp)
20012630:	5f02                	lw	t5,32(sp)
20012632:	4ff2                	lw	t6,28(sp)
20012634:	6125                	addi	sp,sp,96
20012636:	30200073          	mret

2001263a <metal_lc4_interrupt_vector_handler>:
metal_lc4_interrupt_vector_handler():
/home/nicoladgg/wsFreedomStudio/sifive_hifive1_revb_hello/freedom-metal/src/drivers/riscv_cpu.c:234
2001263a:	711d                	addi	sp,sp,-96
2001263c:	ce86                	sw	ra,92(sp)
2001263e:	cc96                	sw	t0,88(sp)
20012640:	ca9a                	sw	t1,84(sp)
20012642:	c89e                	sw	t2,80(sp)
20012644:	c6a2                	sw	s0,76(sp)
20012646:	c4aa                	sw	a0,72(sp)
20012648:	c2ae                	sw	a1,68(sp)
2001264a:	c0b2                	sw	a2,64(sp)
2001264c:	de36                	sw	a3,60(sp)
2001264e:	dc3a                	sw	a4,56(sp)
20012650:	da3e                	sw	a5,52(sp)
20012652:	d842                	sw	a6,48(sp)
20012654:	d646                	sw	a7,44(sp)
20012656:	d472                	sw	t3,40(sp)
20012658:	d276                	sw	t4,36(sp)
2001265a:	d07a                	sw	t5,32(sp)
2001265c:	ce7e                	sw	t6,28(sp)
2001265e:	1080                	addi	s0,sp,96
/home/nicoladgg/wsFreedomStudio/sifive_hifive1_revb_hello/freedom-metal/src/drivers/riscv_cpu.c:235
20012660:	faaff0ef          	jal	ra,20011e0a <__metal_myhart_id>
20012664:	872a                	mv	a4,a0
20012666:	070a                	slli	a4,a4,0x2
20012668:	80c18793          	addi	a5,gp,-2036 # 80000494 <__metal_cpu_table>
2001266c:	97ba                	add	a5,a5,a4
2001266e:	439c                	lw	a5,0(a5)
20012670:	faf42623          	sw	a5,-84(s0)
20012674:	fac42783          	lw	a5,-84(s0)
20012678:	c78d                	beqz	a5,200126a2 <metal_lc4_interrupt_vector_handler+0x68>
/home/nicoladgg/wsFreedomStudio/sifive_hifive1_revb_hello/freedom-metal/src/drivers/riscv_cpu.c:235 (discriminator 1)
2001267a:	fac42503          	lw	a0,-84(s0)
2001267e:	f12ff0ef          	jal	ra,20011d90 <__metal_driver_cpu_interrupt_controller>
20012682:	faa42423          	sw	a0,-88(s0)
20012686:	fa842783          	lw	a5,-88(s0)
2001268a:	2787a783          	lw	a5,632(a5)
2001268e:	faf42223          	sw	a5,-92(s0)
20012692:	fa842783          	lw	a5,-88(s0)
20012696:	2707a783          	lw	a5,624(a5)
2001269a:	fa442583          	lw	a1,-92(s0)
2001269e:	4551                	li	a0,20
200126a0:	9782                	jalr	a5
/home/nicoladgg/wsFreedomStudio/sifive_hifive1_revb_hello/freedom-metal/src/drivers/riscv_cpu.c:236
200126a2:	0001                	nop
200126a4:	40f6                	lw	ra,92(sp)
200126a6:	42e6                	lw	t0,88(sp)
200126a8:	4356                	lw	t1,84(sp)
200126aa:	43c6                	lw	t2,80(sp)
200126ac:	4436                	lw	s0,76(sp)
200126ae:	4526                	lw	a0,72(sp)
200126b0:	4596                	lw	a1,68(sp)
200126b2:	4606                	lw	a2,64(sp)
200126b4:	56f2                	lw	a3,60(sp)
200126b6:	5762                	lw	a4,56(sp)
200126b8:	57d2                	lw	a5,52(sp)
200126ba:	5842                	lw	a6,48(sp)
200126bc:	58b2                	lw	a7,44(sp)
200126be:	5e22                	lw	t3,40(sp)
200126c0:	5e92                	lw	t4,36(sp)
200126c2:	5f02                	lw	t5,32(sp)
200126c4:	4ff2                	lw	t6,28(sp)
200126c6:	6125                	addi	sp,sp,96
200126c8:	30200073          	mret

200126cc <metal_lc5_interrupt_vector_handler>:
metal_lc5_interrupt_vector_handler():
/home/nicoladgg/wsFreedomStudio/sifive_hifive1_revb_hello/freedom-metal/src/drivers/riscv_cpu.c:239
200126cc:	711d                	addi	sp,sp,-96
200126ce:	ce86                	sw	ra,92(sp)
200126d0:	cc96                	sw	t0,88(sp)
200126d2:	ca9a                	sw	t1,84(sp)
200126d4:	c89e                	sw	t2,80(sp)
200126d6:	c6a2                	sw	s0,76(sp)
200126d8:	c4aa                	sw	a0,72(sp)
200126da:	c2ae                	sw	a1,68(sp)
200126dc:	c0b2                	sw	a2,64(sp)
200126de:	de36                	sw	a3,60(sp)
200126e0:	dc3a                	sw	a4,56(sp)
200126e2:	da3e                	sw	a5,52(sp)
200126e4:	d842                	sw	a6,48(sp)
200126e6:	d646                	sw	a7,44(sp)
200126e8:	d472                	sw	t3,40(sp)
200126ea:	d276                	sw	t4,36(sp)
200126ec:	d07a                	sw	t5,32(sp)
200126ee:	ce7e                	sw	t6,28(sp)
200126f0:	1080                	addi	s0,sp,96
/home/nicoladgg/wsFreedomStudio/sifive_hifive1_revb_hello/freedom-metal/src/drivers/riscv_cpu.c:240
200126f2:	f18ff0ef          	jal	ra,20011e0a <__metal_myhart_id>
200126f6:	872a                	mv	a4,a0
200126f8:	070a                	slli	a4,a4,0x2
200126fa:	80c18793          	addi	a5,gp,-2036 # 80000494 <__metal_cpu_table>
200126fe:	97ba                	add	a5,a5,a4
20012700:	439c                	lw	a5,0(a5)
20012702:	faf42623          	sw	a5,-84(s0)
20012706:	fac42783          	lw	a5,-84(s0)
2001270a:	c78d                	beqz	a5,20012734 <metal_lc5_interrupt_vector_handler+0x68>
/home/nicoladgg/wsFreedomStudio/sifive_hifive1_revb_hello/freedom-metal/src/drivers/riscv_cpu.c:240 (discriminator 1)
2001270c:	fac42503          	lw	a0,-84(s0)
20012710:	e80ff0ef          	jal	ra,20011d90 <__metal_driver_cpu_interrupt_controller>
20012714:	faa42423          	sw	a0,-88(s0)
20012718:	fa842783          	lw	a5,-88(s0)
2001271c:	2907a783          	lw	a5,656(a5)
20012720:	faf42223          	sw	a5,-92(s0)
20012724:	fa842783          	lw	a5,-88(s0)
20012728:	2887a783          	lw	a5,648(a5)
2001272c:	fa442583          	lw	a1,-92(s0)
20012730:	4555                	li	a0,21
20012732:	9782                	jalr	a5
/home/nicoladgg/wsFreedomStudio/sifive_hifive1_revb_hello/freedom-metal/src/drivers/riscv_cpu.c:241
20012734:	0001                	nop
20012736:	40f6                	lw	ra,92(sp)
20012738:	42e6                	lw	t0,88(sp)
2001273a:	4356                	lw	t1,84(sp)
2001273c:	43c6                	lw	t2,80(sp)
2001273e:	4436                	lw	s0,76(sp)
20012740:	4526                	lw	a0,72(sp)
20012742:	4596                	lw	a1,68(sp)
20012744:	4606                	lw	a2,64(sp)
20012746:	56f2                	lw	a3,60(sp)
20012748:	5762                	lw	a4,56(sp)
2001274a:	57d2                	lw	a5,52(sp)
2001274c:	5842                	lw	a6,48(sp)
2001274e:	58b2                	lw	a7,44(sp)
20012750:	5e22                	lw	t3,40(sp)
20012752:	5e92                	lw	t4,36(sp)
20012754:	5f02                	lw	t5,32(sp)
20012756:	4ff2                	lw	t6,28(sp)
20012758:	6125                	addi	sp,sp,96
2001275a:	30200073          	mret

2001275e <metal_lc6_interrupt_vector_handler>:
metal_lc6_interrupt_vector_handler():
/home/nicoladgg/wsFreedomStudio/sifive_hifive1_revb_hello/freedom-metal/src/drivers/riscv_cpu.c:244
2001275e:	711d                	addi	sp,sp,-96
20012760:	ce86                	sw	ra,92(sp)
20012762:	cc96                	sw	t0,88(sp)
20012764:	ca9a                	sw	t1,84(sp)
20012766:	c89e                	sw	t2,80(sp)
20012768:	c6a2                	sw	s0,76(sp)
2001276a:	c4aa                	sw	a0,72(sp)
2001276c:	c2ae                	sw	a1,68(sp)
2001276e:	c0b2                	sw	a2,64(sp)
20012770:	de36                	sw	a3,60(sp)
20012772:	dc3a                	sw	a4,56(sp)
20012774:	da3e                	sw	a5,52(sp)
20012776:	d842                	sw	a6,48(sp)
20012778:	d646                	sw	a7,44(sp)
2001277a:	d472                	sw	t3,40(sp)
2001277c:	d276                	sw	t4,36(sp)
2001277e:	d07a                	sw	t5,32(sp)
20012780:	ce7e                	sw	t6,28(sp)
20012782:	1080                	addi	s0,sp,96
/home/nicoladgg/wsFreedomStudio/sifive_hifive1_revb_hello/freedom-metal/src/drivers/riscv_cpu.c:245
20012784:	e86ff0ef          	jal	ra,20011e0a <__metal_myhart_id>
20012788:	872a                	mv	a4,a0
2001278a:	070a                	slli	a4,a4,0x2
2001278c:	80c18793          	addi	a5,gp,-2036 # 80000494 <__metal_cpu_table>
20012790:	97ba                	add	a5,a5,a4
20012792:	439c                	lw	a5,0(a5)
20012794:	faf42623          	sw	a5,-84(s0)
20012798:	fac42783          	lw	a5,-84(s0)
2001279c:	c78d                	beqz	a5,200127c6 <metal_lc6_interrupt_vector_handler+0x68>
/home/nicoladgg/wsFreedomStudio/sifive_hifive1_revb_hello/freedom-metal/src/drivers/riscv_cpu.c:245 (discriminator 1)
2001279e:	fac42503          	lw	a0,-84(s0)
200127a2:	deeff0ef          	jal	ra,20011d90 <__metal_driver_cpu_interrupt_controller>
200127a6:	faa42423          	sw	a0,-88(s0)
200127aa:	fa842783          	lw	a5,-88(s0)
200127ae:	2a87a783          	lw	a5,680(a5)
200127b2:	faf42223          	sw	a5,-92(s0)
200127b6:	fa842783          	lw	a5,-88(s0)
200127ba:	2a07a783          	lw	a5,672(a5)
200127be:	fa442583          	lw	a1,-92(s0)
200127c2:	4559                	li	a0,22
200127c4:	9782                	jalr	a5
/home/nicoladgg/wsFreedomStudio/sifive_hifive1_revb_hello/freedom-metal/src/drivers/riscv_cpu.c:246
200127c6:	0001                	nop
200127c8:	40f6                	lw	ra,92(sp)
200127ca:	42e6                	lw	t0,88(sp)
200127cc:	4356                	lw	t1,84(sp)
200127ce:	43c6                	lw	t2,80(sp)
200127d0:	4436                	lw	s0,76(sp)
200127d2:	4526                	lw	a0,72(sp)
200127d4:	4596                	lw	a1,68(sp)
200127d6:	4606                	lw	a2,64(sp)
200127d8:	56f2                	lw	a3,60(sp)
200127da:	5762                	lw	a4,56(sp)
200127dc:	57d2                	lw	a5,52(sp)
200127de:	5842                	lw	a6,48(sp)
200127e0:	58b2                	lw	a7,44(sp)
200127e2:	5e22                	lw	t3,40(sp)
200127e4:	5e92                	lw	t4,36(sp)
200127e6:	5f02                	lw	t5,32(sp)
200127e8:	4ff2                	lw	t6,28(sp)
200127ea:	6125                	addi	sp,sp,96
200127ec:	30200073          	mret

200127f0 <metal_lc7_interrupt_vector_handler>:
metal_lc7_interrupt_vector_handler():
/home/nicoladgg/wsFreedomStudio/sifive_hifive1_revb_hello/freedom-metal/src/drivers/riscv_cpu.c:249
200127f0:	711d                	addi	sp,sp,-96
200127f2:	ce86                	sw	ra,92(sp)
200127f4:	cc96                	sw	t0,88(sp)
200127f6:	ca9a                	sw	t1,84(sp)
200127f8:	c89e                	sw	t2,80(sp)
200127fa:	c6a2                	sw	s0,76(sp)
200127fc:	c4aa                	sw	a0,72(sp)
200127fe:	c2ae                	sw	a1,68(sp)
20012800:	c0b2                	sw	a2,64(sp)
20012802:	de36                	sw	a3,60(sp)
20012804:	dc3a                	sw	a4,56(sp)
20012806:	da3e                	sw	a5,52(sp)
20012808:	d842                	sw	a6,48(sp)
2001280a:	d646                	sw	a7,44(sp)
2001280c:	d472                	sw	t3,40(sp)
2001280e:	d276                	sw	t4,36(sp)
20012810:	d07a                	sw	t5,32(sp)
20012812:	ce7e                	sw	t6,28(sp)
20012814:	1080                	addi	s0,sp,96
/home/nicoladgg/wsFreedomStudio/sifive_hifive1_revb_hello/freedom-metal/src/drivers/riscv_cpu.c:250
20012816:	df4ff0ef          	jal	ra,20011e0a <__metal_myhart_id>
2001281a:	872a                	mv	a4,a0
2001281c:	070a                	slli	a4,a4,0x2
2001281e:	80c18793          	addi	a5,gp,-2036 # 80000494 <__metal_cpu_table>
20012822:	97ba                	add	a5,a5,a4
20012824:	439c                	lw	a5,0(a5)
20012826:	faf42623          	sw	a5,-84(s0)
2001282a:	fac42783          	lw	a5,-84(s0)
2001282e:	c78d                	beqz	a5,20012858 <metal_lc7_interrupt_vector_handler+0x68>
/home/nicoladgg/wsFreedomStudio/sifive_hifive1_revb_hello/freedom-metal/src/drivers/riscv_cpu.c:250 (discriminator 1)
20012830:	fac42503          	lw	a0,-84(s0)
20012834:	d5cff0ef          	jal	ra,20011d90 <__metal_driver_cpu_interrupt_controller>
20012838:	faa42423          	sw	a0,-88(s0)
2001283c:	fa842783          	lw	a5,-88(s0)
20012840:	2c07a783          	lw	a5,704(a5)
20012844:	faf42223          	sw	a5,-92(s0)
20012848:	fa842783          	lw	a5,-88(s0)
2001284c:	2b87a783          	lw	a5,696(a5)
20012850:	fa442583          	lw	a1,-92(s0)
20012854:	455d                	li	a0,23
20012856:	9782                	jalr	a5
/home/nicoladgg/wsFreedomStudio/sifive_hifive1_revb_hello/freedom-metal/src/drivers/riscv_cpu.c:251
20012858:	0001                	nop
2001285a:	40f6                	lw	ra,92(sp)
2001285c:	42e6                	lw	t0,88(sp)
2001285e:	4356                	lw	t1,84(sp)
20012860:	43c6                	lw	t2,80(sp)
20012862:	4436                	lw	s0,76(sp)
20012864:	4526                	lw	a0,72(sp)
20012866:	4596                	lw	a1,68(sp)
20012868:	4606                	lw	a2,64(sp)
2001286a:	56f2                	lw	a3,60(sp)
2001286c:	5762                	lw	a4,56(sp)
2001286e:	57d2                	lw	a5,52(sp)
20012870:	5842                	lw	a6,48(sp)
20012872:	58b2                	lw	a7,44(sp)
20012874:	5e22                	lw	t3,40(sp)
20012876:	5e92                	lw	t4,36(sp)
20012878:	5f02                	lw	t5,32(sp)
2001287a:	4ff2                	lw	t6,28(sp)
2001287c:	6125                	addi	sp,sp,96
2001287e:	30200073          	mret

20012882 <metal_lc8_interrupt_vector_handler>:
metal_lc8_interrupt_vector_handler():
/home/nicoladgg/wsFreedomStudio/sifive_hifive1_revb_hello/freedom-metal/src/drivers/riscv_cpu.c:254
20012882:	711d                	addi	sp,sp,-96
20012884:	ce86                	sw	ra,92(sp)
20012886:	cc96                	sw	t0,88(sp)
20012888:	ca9a                	sw	t1,84(sp)
2001288a:	c89e                	sw	t2,80(sp)
2001288c:	c6a2                	sw	s0,76(sp)
2001288e:	c4aa                	sw	a0,72(sp)
20012890:	c2ae                	sw	a1,68(sp)
20012892:	c0b2                	sw	a2,64(sp)
20012894:	de36                	sw	a3,60(sp)
20012896:	dc3a                	sw	a4,56(sp)
20012898:	da3e                	sw	a5,52(sp)
2001289a:	d842                	sw	a6,48(sp)
2001289c:	d646                	sw	a7,44(sp)
2001289e:	d472                	sw	t3,40(sp)
200128a0:	d276                	sw	t4,36(sp)
200128a2:	d07a                	sw	t5,32(sp)
200128a4:	ce7e                	sw	t6,28(sp)
200128a6:	1080                	addi	s0,sp,96
/home/nicoladgg/wsFreedomStudio/sifive_hifive1_revb_hello/freedom-metal/src/drivers/riscv_cpu.c:255
200128a8:	d62ff0ef          	jal	ra,20011e0a <__metal_myhart_id>
200128ac:	872a                	mv	a4,a0
200128ae:	070a                	slli	a4,a4,0x2
200128b0:	80c18793          	addi	a5,gp,-2036 # 80000494 <__metal_cpu_table>
200128b4:	97ba                	add	a5,a5,a4
200128b6:	439c                	lw	a5,0(a5)
200128b8:	faf42623          	sw	a5,-84(s0)
200128bc:	fac42783          	lw	a5,-84(s0)
200128c0:	c78d                	beqz	a5,200128ea <metal_lc8_interrupt_vector_handler+0x68>
/home/nicoladgg/wsFreedomStudio/sifive_hifive1_revb_hello/freedom-metal/src/drivers/riscv_cpu.c:255 (discriminator 1)
200128c2:	fac42503          	lw	a0,-84(s0)
200128c6:	ccaff0ef          	jal	ra,20011d90 <__metal_driver_cpu_interrupt_controller>
200128ca:	faa42423          	sw	a0,-88(s0)
200128ce:	fa842783          	lw	a5,-88(s0)
200128d2:	2d87a783          	lw	a5,728(a5)
200128d6:	faf42223          	sw	a5,-92(s0)
200128da:	fa842783          	lw	a5,-88(s0)
200128de:	2d07a783          	lw	a5,720(a5)
200128e2:	fa442583          	lw	a1,-92(s0)
200128e6:	4561                	li	a0,24
200128e8:	9782                	jalr	a5
/home/nicoladgg/wsFreedomStudio/sifive_hifive1_revb_hello/freedom-metal/src/drivers/riscv_cpu.c:256
200128ea:	0001                	nop
200128ec:	40f6                	lw	ra,92(sp)
200128ee:	42e6                	lw	t0,88(sp)
200128f0:	4356                	lw	t1,84(sp)
200128f2:	43c6                	lw	t2,80(sp)
200128f4:	4436                	lw	s0,76(sp)
200128f6:	4526                	lw	a0,72(sp)
200128f8:	4596                	lw	a1,68(sp)
200128fa:	4606                	lw	a2,64(sp)
200128fc:	56f2                	lw	a3,60(sp)
200128fe:	5762                	lw	a4,56(sp)
20012900:	57d2                	lw	a5,52(sp)
20012902:	5842                	lw	a6,48(sp)
20012904:	58b2                	lw	a7,44(sp)
20012906:	5e22                	lw	t3,40(sp)
20012908:	5e92                	lw	t4,36(sp)
2001290a:	5f02                	lw	t5,32(sp)
2001290c:	4ff2                	lw	t6,28(sp)
2001290e:	6125                	addi	sp,sp,96
20012910:	30200073          	mret

20012914 <metal_lc9_interrupt_vector_handler>:
metal_lc9_interrupt_vector_handler():
/home/nicoladgg/wsFreedomStudio/sifive_hifive1_revb_hello/freedom-metal/src/drivers/riscv_cpu.c:259
20012914:	711d                	addi	sp,sp,-96
20012916:	ce86                	sw	ra,92(sp)
20012918:	cc96                	sw	t0,88(sp)
2001291a:	ca9a                	sw	t1,84(sp)
2001291c:	c89e                	sw	t2,80(sp)
2001291e:	c6a2                	sw	s0,76(sp)
20012920:	c4aa                	sw	a0,72(sp)
20012922:	c2ae                	sw	a1,68(sp)
20012924:	c0b2                	sw	a2,64(sp)
20012926:	de36                	sw	a3,60(sp)
20012928:	dc3a                	sw	a4,56(sp)
2001292a:	da3e                	sw	a5,52(sp)
2001292c:	d842                	sw	a6,48(sp)
2001292e:	d646                	sw	a7,44(sp)
20012930:	d472                	sw	t3,40(sp)
20012932:	d276                	sw	t4,36(sp)
20012934:	d07a                	sw	t5,32(sp)
20012936:	ce7e                	sw	t6,28(sp)
20012938:	1080                	addi	s0,sp,96
/home/nicoladgg/wsFreedomStudio/sifive_hifive1_revb_hello/freedom-metal/src/drivers/riscv_cpu.c:260
2001293a:	cd0ff0ef          	jal	ra,20011e0a <__metal_myhart_id>
2001293e:	872a                	mv	a4,a0
20012940:	070a                	slli	a4,a4,0x2
20012942:	80c18793          	addi	a5,gp,-2036 # 80000494 <__metal_cpu_table>
20012946:	97ba                	add	a5,a5,a4
20012948:	439c                	lw	a5,0(a5)
2001294a:	faf42623          	sw	a5,-84(s0)
2001294e:	fac42783          	lw	a5,-84(s0)
20012952:	c78d                	beqz	a5,2001297c <metal_lc9_interrupt_vector_handler+0x68>
/home/nicoladgg/wsFreedomStudio/sifive_hifive1_revb_hello/freedom-metal/src/drivers/riscv_cpu.c:260 (discriminator 1)
20012954:	fac42503          	lw	a0,-84(s0)
20012958:	c38ff0ef          	jal	ra,20011d90 <__metal_driver_cpu_interrupt_controller>
2001295c:	faa42423          	sw	a0,-88(s0)
20012960:	fa842783          	lw	a5,-88(s0)
20012964:	2f07a783          	lw	a5,752(a5)
20012968:	faf42223          	sw	a5,-92(s0)
2001296c:	fa842783          	lw	a5,-88(s0)
20012970:	2e87a783          	lw	a5,744(a5)
20012974:	fa442583          	lw	a1,-92(s0)
20012978:	4565                	li	a0,25
2001297a:	9782                	jalr	a5
/home/nicoladgg/wsFreedomStudio/sifive_hifive1_revb_hello/freedom-metal/src/drivers/riscv_cpu.c:261
2001297c:	0001                	nop
2001297e:	40f6                	lw	ra,92(sp)
20012980:	42e6                	lw	t0,88(sp)
20012982:	4356                	lw	t1,84(sp)
20012984:	43c6                	lw	t2,80(sp)
20012986:	4436                	lw	s0,76(sp)
20012988:	4526                	lw	a0,72(sp)
2001298a:	4596                	lw	a1,68(sp)
2001298c:	4606                	lw	a2,64(sp)
2001298e:	56f2                	lw	a3,60(sp)
20012990:	5762                	lw	a4,56(sp)
20012992:	57d2                	lw	a5,52(sp)
20012994:	5842                	lw	a6,48(sp)
20012996:	58b2                	lw	a7,44(sp)
20012998:	5e22                	lw	t3,40(sp)
2001299a:	5e92                	lw	t4,36(sp)
2001299c:	5f02                	lw	t5,32(sp)
2001299e:	4ff2                	lw	t6,28(sp)
200129a0:	6125                	addi	sp,sp,96
200129a2:	30200073          	mret

200129a6 <metal_lc10_interrupt_vector_handler>:
metal_lc10_interrupt_vector_handler():
/home/nicoladgg/wsFreedomStudio/sifive_hifive1_revb_hello/freedom-metal/src/drivers/riscv_cpu.c:265
200129a6:	711d                	addi	sp,sp,-96
200129a8:	ce86                	sw	ra,92(sp)
200129aa:	cc96                	sw	t0,88(sp)
200129ac:	ca9a                	sw	t1,84(sp)
200129ae:	c89e                	sw	t2,80(sp)
200129b0:	c6a2                	sw	s0,76(sp)
200129b2:	c4aa                	sw	a0,72(sp)
200129b4:	c2ae                	sw	a1,68(sp)
200129b6:	c0b2                	sw	a2,64(sp)
200129b8:	de36                	sw	a3,60(sp)
200129ba:	dc3a                	sw	a4,56(sp)
200129bc:	da3e                	sw	a5,52(sp)
200129be:	d842                	sw	a6,48(sp)
200129c0:	d646                	sw	a7,44(sp)
200129c2:	d472                	sw	t3,40(sp)
200129c4:	d276                	sw	t4,36(sp)
200129c6:	d07a                	sw	t5,32(sp)
200129c8:	ce7e                	sw	t6,28(sp)
200129ca:	1080                	addi	s0,sp,96
/home/nicoladgg/wsFreedomStudio/sifive_hifive1_revb_hello/freedom-metal/src/drivers/riscv_cpu.c:266
200129cc:	c3eff0ef          	jal	ra,20011e0a <__metal_myhart_id>
200129d0:	872a                	mv	a4,a0
200129d2:	070a                	slli	a4,a4,0x2
200129d4:	80c18793          	addi	a5,gp,-2036 # 80000494 <__metal_cpu_table>
200129d8:	97ba                	add	a5,a5,a4
200129da:	439c                	lw	a5,0(a5)
200129dc:	faf42623          	sw	a5,-84(s0)
200129e0:	fac42783          	lw	a5,-84(s0)
200129e4:	c78d                	beqz	a5,20012a0e <metal_lc10_interrupt_vector_handler+0x68>
/home/nicoladgg/wsFreedomStudio/sifive_hifive1_revb_hello/freedom-metal/src/drivers/riscv_cpu.c:266 (discriminator 1)
200129e6:	fac42503          	lw	a0,-84(s0)
200129ea:	ba6ff0ef          	jal	ra,20011d90 <__metal_driver_cpu_interrupt_controller>
200129ee:	faa42423          	sw	a0,-88(s0)
200129f2:	fa842783          	lw	a5,-88(s0)
200129f6:	3087a783          	lw	a5,776(a5)
200129fa:	faf42223          	sw	a5,-92(s0)
200129fe:	fa842783          	lw	a5,-88(s0)
20012a02:	3007a783          	lw	a5,768(a5)
20012a06:	fa442583          	lw	a1,-92(s0)
20012a0a:	4569                	li	a0,26
20012a0c:	9782                	jalr	a5
/home/nicoladgg/wsFreedomStudio/sifive_hifive1_revb_hello/freedom-metal/src/drivers/riscv_cpu.c:267
20012a0e:	0001                	nop
20012a10:	40f6                	lw	ra,92(sp)
20012a12:	42e6                	lw	t0,88(sp)
20012a14:	4356                	lw	t1,84(sp)
20012a16:	43c6                	lw	t2,80(sp)
20012a18:	4436                	lw	s0,76(sp)
20012a1a:	4526                	lw	a0,72(sp)
20012a1c:	4596                	lw	a1,68(sp)
20012a1e:	4606                	lw	a2,64(sp)
20012a20:	56f2                	lw	a3,60(sp)
20012a22:	5762                	lw	a4,56(sp)
20012a24:	57d2                	lw	a5,52(sp)
20012a26:	5842                	lw	a6,48(sp)
20012a28:	58b2                	lw	a7,44(sp)
20012a2a:	5e22                	lw	t3,40(sp)
20012a2c:	5e92                	lw	t4,36(sp)
20012a2e:	5f02                	lw	t5,32(sp)
20012a30:	4ff2                	lw	t6,28(sp)
20012a32:	6125                	addi	sp,sp,96
20012a34:	30200073          	mret

20012a38 <metal_lc11_interrupt_vector_handler>:
metal_lc11_interrupt_vector_handler():
/home/nicoladgg/wsFreedomStudio/sifive_hifive1_revb_hello/freedom-metal/src/drivers/riscv_cpu.c:271
20012a38:	711d                	addi	sp,sp,-96
20012a3a:	ce86                	sw	ra,92(sp)
20012a3c:	cc96                	sw	t0,88(sp)
20012a3e:	ca9a                	sw	t1,84(sp)
20012a40:	c89e                	sw	t2,80(sp)
20012a42:	c6a2                	sw	s0,76(sp)
20012a44:	c4aa                	sw	a0,72(sp)
20012a46:	c2ae                	sw	a1,68(sp)
20012a48:	c0b2                	sw	a2,64(sp)
20012a4a:	de36                	sw	a3,60(sp)
20012a4c:	dc3a                	sw	a4,56(sp)
20012a4e:	da3e                	sw	a5,52(sp)
20012a50:	d842                	sw	a6,48(sp)
20012a52:	d646                	sw	a7,44(sp)
20012a54:	d472                	sw	t3,40(sp)
20012a56:	d276                	sw	t4,36(sp)
20012a58:	d07a                	sw	t5,32(sp)
20012a5a:	ce7e                	sw	t6,28(sp)
20012a5c:	1080                	addi	s0,sp,96
/home/nicoladgg/wsFreedomStudio/sifive_hifive1_revb_hello/freedom-metal/src/drivers/riscv_cpu.c:272
20012a5e:	bacff0ef          	jal	ra,20011e0a <__metal_myhart_id>
20012a62:	872a                	mv	a4,a0
20012a64:	070a                	slli	a4,a4,0x2
20012a66:	80c18793          	addi	a5,gp,-2036 # 80000494 <__metal_cpu_table>
20012a6a:	97ba                	add	a5,a5,a4
20012a6c:	439c                	lw	a5,0(a5)
20012a6e:	faf42623          	sw	a5,-84(s0)
20012a72:	fac42783          	lw	a5,-84(s0)
20012a76:	c78d                	beqz	a5,20012aa0 <metal_lc11_interrupt_vector_handler+0x68>
/home/nicoladgg/wsFreedomStudio/sifive_hifive1_revb_hello/freedom-metal/src/drivers/riscv_cpu.c:272 (discriminator 1)
20012a78:	fac42503          	lw	a0,-84(s0)
20012a7c:	b14ff0ef          	jal	ra,20011d90 <__metal_driver_cpu_interrupt_controller>
20012a80:	faa42423          	sw	a0,-88(s0)
20012a84:	fa842783          	lw	a5,-88(s0)
20012a88:	3207a783          	lw	a5,800(a5)
20012a8c:	faf42223          	sw	a5,-92(s0)
20012a90:	fa842783          	lw	a5,-88(s0)
20012a94:	3187a783          	lw	a5,792(a5)
20012a98:	fa442583          	lw	a1,-92(s0)
20012a9c:	456d                	li	a0,27
20012a9e:	9782                	jalr	a5
/home/nicoladgg/wsFreedomStudio/sifive_hifive1_revb_hello/freedom-metal/src/drivers/riscv_cpu.c:273
20012aa0:	0001                	nop
20012aa2:	40f6                	lw	ra,92(sp)
20012aa4:	42e6                	lw	t0,88(sp)
20012aa6:	4356                	lw	t1,84(sp)
20012aa8:	43c6                	lw	t2,80(sp)
20012aaa:	4436                	lw	s0,76(sp)
20012aac:	4526                	lw	a0,72(sp)
20012aae:	4596                	lw	a1,68(sp)
20012ab0:	4606                	lw	a2,64(sp)
20012ab2:	56f2                	lw	a3,60(sp)
20012ab4:	5762                	lw	a4,56(sp)
20012ab6:	57d2                	lw	a5,52(sp)
20012ab8:	5842                	lw	a6,48(sp)
20012aba:	58b2                	lw	a7,44(sp)
20012abc:	5e22                	lw	t3,40(sp)
20012abe:	5e92                	lw	t4,36(sp)
20012ac0:	5f02                	lw	t5,32(sp)
20012ac2:	4ff2                	lw	t6,28(sp)
20012ac4:	6125                	addi	sp,sp,96
20012ac6:	30200073          	mret

20012aca <metal_lc12_interrupt_vector_handler>:
metal_lc12_interrupt_vector_handler():
/home/nicoladgg/wsFreedomStudio/sifive_hifive1_revb_hello/freedom-metal/src/drivers/riscv_cpu.c:277
20012aca:	711d                	addi	sp,sp,-96
20012acc:	ce86                	sw	ra,92(sp)
20012ace:	cc96                	sw	t0,88(sp)
20012ad0:	ca9a                	sw	t1,84(sp)
20012ad2:	c89e                	sw	t2,80(sp)
20012ad4:	c6a2                	sw	s0,76(sp)
20012ad6:	c4aa                	sw	a0,72(sp)
20012ad8:	c2ae                	sw	a1,68(sp)
20012ada:	c0b2                	sw	a2,64(sp)
20012adc:	de36                	sw	a3,60(sp)
20012ade:	dc3a                	sw	a4,56(sp)
20012ae0:	da3e                	sw	a5,52(sp)
20012ae2:	d842                	sw	a6,48(sp)
20012ae4:	d646                	sw	a7,44(sp)
20012ae6:	d472                	sw	t3,40(sp)
20012ae8:	d276                	sw	t4,36(sp)
20012aea:	d07a                	sw	t5,32(sp)
20012aec:	ce7e                	sw	t6,28(sp)
20012aee:	1080                	addi	s0,sp,96
/home/nicoladgg/wsFreedomStudio/sifive_hifive1_revb_hello/freedom-metal/src/drivers/riscv_cpu.c:278
20012af0:	b1aff0ef          	jal	ra,20011e0a <__metal_myhart_id>
20012af4:	872a                	mv	a4,a0
20012af6:	070a                	slli	a4,a4,0x2
20012af8:	80c18793          	addi	a5,gp,-2036 # 80000494 <__metal_cpu_table>
20012afc:	97ba                	add	a5,a5,a4
20012afe:	439c                	lw	a5,0(a5)
20012b00:	faf42623          	sw	a5,-84(s0)
20012b04:	fac42783          	lw	a5,-84(s0)
20012b08:	c78d                	beqz	a5,20012b32 <metal_lc12_interrupt_vector_handler+0x68>
/home/nicoladgg/wsFreedomStudio/sifive_hifive1_revb_hello/freedom-metal/src/drivers/riscv_cpu.c:278 (discriminator 1)
20012b0a:	fac42503          	lw	a0,-84(s0)
20012b0e:	a82ff0ef          	jal	ra,20011d90 <__metal_driver_cpu_interrupt_controller>
20012b12:	faa42423          	sw	a0,-88(s0)
20012b16:	fa842783          	lw	a5,-88(s0)
20012b1a:	3387a783          	lw	a5,824(a5)
20012b1e:	faf42223          	sw	a5,-92(s0)
20012b22:	fa842783          	lw	a5,-88(s0)
20012b26:	3307a783          	lw	a5,816(a5)
20012b2a:	fa442583          	lw	a1,-92(s0)
20012b2e:	4571                	li	a0,28
20012b30:	9782                	jalr	a5
/home/nicoladgg/wsFreedomStudio/sifive_hifive1_revb_hello/freedom-metal/src/drivers/riscv_cpu.c:279
20012b32:	0001                	nop
20012b34:	40f6                	lw	ra,92(sp)
20012b36:	42e6                	lw	t0,88(sp)
20012b38:	4356                	lw	t1,84(sp)
20012b3a:	43c6                	lw	t2,80(sp)
20012b3c:	4436                	lw	s0,76(sp)
20012b3e:	4526                	lw	a0,72(sp)
20012b40:	4596                	lw	a1,68(sp)
20012b42:	4606                	lw	a2,64(sp)
20012b44:	56f2                	lw	a3,60(sp)
20012b46:	5762                	lw	a4,56(sp)
20012b48:	57d2                	lw	a5,52(sp)
20012b4a:	5842                	lw	a6,48(sp)
20012b4c:	58b2                	lw	a7,44(sp)
20012b4e:	5e22                	lw	t3,40(sp)
20012b50:	5e92                	lw	t4,36(sp)
20012b52:	5f02                	lw	t5,32(sp)
20012b54:	4ff2                	lw	t6,28(sp)
20012b56:	6125                	addi	sp,sp,96
20012b58:	30200073          	mret

20012b5c <metal_lc13_interrupt_vector_handler>:
metal_lc13_interrupt_vector_handler():
/home/nicoladgg/wsFreedomStudio/sifive_hifive1_revb_hello/freedom-metal/src/drivers/riscv_cpu.c:283
20012b5c:	711d                	addi	sp,sp,-96
20012b5e:	ce86                	sw	ra,92(sp)
20012b60:	cc96                	sw	t0,88(sp)
20012b62:	ca9a                	sw	t1,84(sp)
20012b64:	c89e                	sw	t2,80(sp)
20012b66:	c6a2                	sw	s0,76(sp)
20012b68:	c4aa                	sw	a0,72(sp)
20012b6a:	c2ae                	sw	a1,68(sp)
20012b6c:	c0b2                	sw	a2,64(sp)
20012b6e:	de36                	sw	a3,60(sp)
20012b70:	dc3a                	sw	a4,56(sp)
20012b72:	da3e                	sw	a5,52(sp)
20012b74:	d842                	sw	a6,48(sp)
20012b76:	d646                	sw	a7,44(sp)
20012b78:	d472                	sw	t3,40(sp)
20012b7a:	d276                	sw	t4,36(sp)
20012b7c:	d07a                	sw	t5,32(sp)
20012b7e:	ce7e                	sw	t6,28(sp)
20012b80:	1080                	addi	s0,sp,96
/home/nicoladgg/wsFreedomStudio/sifive_hifive1_revb_hello/freedom-metal/src/drivers/riscv_cpu.c:284
20012b82:	a88ff0ef          	jal	ra,20011e0a <__metal_myhart_id>
20012b86:	872a                	mv	a4,a0
20012b88:	070a                	slli	a4,a4,0x2
20012b8a:	80c18793          	addi	a5,gp,-2036 # 80000494 <__metal_cpu_table>
20012b8e:	97ba                	add	a5,a5,a4
20012b90:	439c                	lw	a5,0(a5)
20012b92:	faf42623          	sw	a5,-84(s0)
20012b96:	fac42783          	lw	a5,-84(s0)
20012b9a:	c78d                	beqz	a5,20012bc4 <metal_lc13_interrupt_vector_handler+0x68>
/home/nicoladgg/wsFreedomStudio/sifive_hifive1_revb_hello/freedom-metal/src/drivers/riscv_cpu.c:284 (discriminator 1)
20012b9c:	fac42503          	lw	a0,-84(s0)
20012ba0:	9f0ff0ef          	jal	ra,20011d90 <__metal_driver_cpu_interrupt_controller>
20012ba4:	faa42423          	sw	a0,-88(s0)
20012ba8:	fa842783          	lw	a5,-88(s0)
20012bac:	3507a783          	lw	a5,848(a5)
20012bb0:	faf42223          	sw	a5,-92(s0)
20012bb4:	fa842783          	lw	a5,-88(s0)
20012bb8:	3487a783          	lw	a5,840(a5)
20012bbc:	fa442583          	lw	a1,-92(s0)
20012bc0:	4575                	li	a0,29
20012bc2:	9782                	jalr	a5
/home/nicoladgg/wsFreedomStudio/sifive_hifive1_revb_hello/freedom-metal/src/drivers/riscv_cpu.c:285
20012bc4:	0001                	nop
20012bc6:	40f6                	lw	ra,92(sp)
20012bc8:	42e6                	lw	t0,88(sp)
20012bca:	4356                	lw	t1,84(sp)
20012bcc:	43c6                	lw	t2,80(sp)
20012bce:	4436                	lw	s0,76(sp)
20012bd0:	4526                	lw	a0,72(sp)
20012bd2:	4596                	lw	a1,68(sp)
20012bd4:	4606                	lw	a2,64(sp)
20012bd6:	56f2                	lw	a3,60(sp)
20012bd8:	5762                	lw	a4,56(sp)
20012bda:	57d2                	lw	a5,52(sp)
20012bdc:	5842                	lw	a6,48(sp)
20012bde:	58b2                	lw	a7,44(sp)
20012be0:	5e22                	lw	t3,40(sp)
20012be2:	5e92                	lw	t4,36(sp)
20012be4:	5f02                	lw	t5,32(sp)
20012be6:	4ff2                	lw	t6,28(sp)
20012be8:	6125                	addi	sp,sp,96
20012bea:	30200073          	mret

20012bee <metal_lc14_interrupt_vector_handler>:
metal_lc14_interrupt_vector_handler():
/home/nicoladgg/wsFreedomStudio/sifive_hifive1_revb_hello/freedom-metal/src/drivers/riscv_cpu.c:289
20012bee:	711d                	addi	sp,sp,-96
20012bf0:	ce86                	sw	ra,92(sp)
20012bf2:	cc96                	sw	t0,88(sp)
20012bf4:	ca9a                	sw	t1,84(sp)
20012bf6:	c89e                	sw	t2,80(sp)
20012bf8:	c6a2                	sw	s0,76(sp)
20012bfa:	c4aa                	sw	a0,72(sp)
20012bfc:	c2ae                	sw	a1,68(sp)
20012bfe:	c0b2                	sw	a2,64(sp)
20012c00:	de36                	sw	a3,60(sp)
20012c02:	dc3a                	sw	a4,56(sp)
20012c04:	da3e                	sw	a5,52(sp)
20012c06:	d842                	sw	a6,48(sp)
20012c08:	d646                	sw	a7,44(sp)
20012c0a:	d472                	sw	t3,40(sp)
20012c0c:	d276                	sw	t4,36(sp)
20012c0e:	d07a                	sw	t5,32(sp)
20012c10:	ce7e                	sw	t6,28(sp)
20012c12:	1080                	addi	s0,sp,96
/home/nicoladgg/wsFreedomStudio/sifive_hifive1_revb_hello/freedom-metal/src/drivers/riscv_cpu.c:290
20012c14:	9f6ff0ef          	jal	ra,20011e0a <__metal_myhart_id>
20012c18:	872a                	mv	a4,a0
20012c1a:	070a                	slli	a4,a4,0x2
20012c1c:	80c18793          	addi	a5,gp,-2036 # 80000494 <__metal_cpu_table>
20012c20:	97ba                	add	a5,a5,a4
20012c22:	439c                	lw	a5,0(a5)
20012c24:	faf42623          	sw	a5,-84(s0)
20012c28:	fac42783          	lw	a5,-84(s0)
20012c2c:	c78d                	beqz	a5,20012c56 <metal_lc14_interrupt_vector_handler+0x68>
/home/nicoladgg/wsFreedomStudio/sifive_hifive1_revb_hello/freedom-metal/src/drivers/riscv_cpu.c:290 (discriminator 1)
20012c2e:	fac42503          	lw	a0,-84(s0)
20012c32:	95eff0ef          	jal	ra,20011d90 <__metal_driver_cpu_interrupt_controller>
20012c36:	faa42423          	sw	a0,-88(s0)
20012c3a:	fa842783          	lw	a5,-88(s0)
20012c3e:	3687a783          	lw	a5,872(a5)
20012c42:	faf42223          	sw	a5,-92(s0)
20012c46:	fa842783          	lw	a5,-88(s0)
20012c4a:	3607a783          	lw	a5,864(a5)
20012c4e:	fa442583          	lw	a1,-92(s0)
20012c52:	4579                	li	a0,30
20012c54:	9782                	jalr	a5
/home/nicoladgg/wsFreedomStudio/sifive_hifive1_revb_hello/freedom-metal/src/drivers/riscv_cpu.c:291
20012c56:	0001                	nop
20012c58:	40f6                	lw	ra,92(sp)
20012c5a:	42e6                	lw	t0,88(sp)
20012c5c:	4356                	lw	t1,84(sp)
20012c5e:	43c6                	lw	t2,80(sp)
20012c60:	4436                	lw	s0,76(sp)
20012c62:	4526                	lw	a0,72(sp)
20012c64:	4596                	lw	a1,68(sp)
20012c66:	4606                	lw	a2,64(sp)
20012c68:	56f2                	lw	a3,60(sp)
20012c6a:	5762                	lw	a4,56(sp)
20012c6c:	57d2                	lw	a5,52(sp)
20012c6e:	5842                	lw	a6,48(sp)
20012c70:	58b2                	lw	a7,44(sp)
20012c72:	5e22                	lw	t3,40(sp)
20012c74:	5e92                	lw	t4,36(sp)
20012c76:	5f02                	lw	t5,32(sp)
20012c78:	4ff2                	lw	t6,28(sp)
20012c7a:	6125                	addi	sp,sp,96
20012c7c:	30200073          	mret

20012c80 <metal_lc15_interrupt_vector_handler>:
metal_lc15_interrupt_vector_handler():
/home/nicoladgg/wsFreedomStudio/sifive_hifive1_revb_hello/freedom-metal/src/drivers/riscv_cpu.c:295
20012c80:	711d                	addi	sp,sp,-96
20012c82:	ce86                	sw	ra,92(sp)
20012c84:	cc96                	sw	t0,88(sp)
20012c86:	ca9a                	sw	t1,84(sp)
20012c88:	c89e                	sw	t2,80(sp)
20012c8a:	c6a2                	sw	s0,76(sp)
20012c8c:	c4aa                	sw	a0,72(sp)
20012c8e:	c2ae                	sw	a1,68(sp)
20012c90:	c0b2                	sw	a2,64(sp)
20012c92:	de36                	sw	a3,60(sp)
20012c94:	dc3a                	sw	a4,56(sp)
20012c96:	da3e                	sw	a5,52(sp)
20012c98:	d842                	sw	a6,48(sp)
20012c9a:	d646                	sw	a7,44(sp)
20012c9c:	d472                	sw	t3,40(sp)
20012c9e:	d276                	sw	t4,36(sp)
20012ca0:	d07a                	sw	t5,32(sp)
20012ca2:	ce7e                	sw	t6,28(sp)
20012ca4:	1080                	addi	s0,sp,96
/home/nicoladgg/wsFreedomStudio/sifive_hifive1_revb_hello/freedom-metal/src/drivers/riscv_cpu.c:296
20012ca6:	964ff0ef          	jal	ra,20011e0a <__metal_myhart_id>
20012caa:	872a                	mv	a4,a0
20012cac:	070a                	slli	a4,a4,0x2
20012cae:	80c18793          	addi	a5,gp,-2036 # 80000494 <__metal_cpu_table>
20012cb2:	97ba                	add	a5,a5,a4
20012cb4:	439c                	lw	a5,0(a5)
20012cb6:	faf42623          	sw	a5,-84(s0)
20012cba:	fac42783          	lw	a5,-84(s0)
20012cbe:	c78d                	beqz	a5,20012ce8 <metal_lc15_interrupt_vector_handler+0x68>
/home/nicoladgg/wsFreedomStudio/sifive_hifive1_revb_hello/freedom-metal/src/drivers/riscv_cpu.c:296 (discriminator 1)
20012cc0:	fac42503          	lw	a0,-84(s0)
20012cc4:	8ccff0ef          	jal	ra,20011d90 <__metal_driver_cpu_interrupt_controller>
20012cc8:	faa42423          	sw	a0,-88(s0)
20012ccc:	fa842783          	lw	a5,-88(s0)
20012cd0:	3807a783          	lw	a5,896(a5)
20012cd4:	faf42223          	sw	a5,-92(s0)
20012cd8:	fa842783          	lw	a5,-88(s0)
20012cdc:	3787a783          	lw	a5,888(a5)
20012ce0:	fa442583          	lw	a1,-92(s0)
20012ce4:	457d                	li	a0,31
20012ce6:	9782                	jalr	a5
/home/nicoladgg/wsFreedomStudio/sifive_hifive1_revb_hello/freedom-metal/src/drivers/riscv_cpu.c:297
20012ce8:	0001                	nop
20012cea:	40f6                	lw	ra,92(sp)
20012cec:	42e6                	lw	t0,88(sp)
20012cee:	4356                	lw	t1,84(sp)
20012cf0:	43c6                	lw	t2,80(sp)
20012cf2:	4436                	lw	s0,76(sp)
20012cf4:	4526                	lw	a0,72(sp)
20012cf6:	4596                	lw	a1,68(sp)
20012cf8:	4606                	lw	a2,64(sp)
20012cfa:	56f2                	lw	a3,60(sp)
20012cfc:	5762                	lw	a4,56(sp)
20012cfe:	57d2                	lw	a5,52(sp)
20012d00:	5842                	lw	a6,48(sp)
20012d02:	58b2                	lw	a7,44(sp)
20012d04:	5e22                	lw	t3,40(sp)
20012d06:	5e92                	lw	t4,36(sp)
20012d08:	5f02                	lw	t5,32(sp)
20012d0a:	4ff2                	lw	t6,28(sp)
20012d0c:	6125                	addi	sp,sp,96
20012d0e:	30200073          	mret

20012d12 <__metal_controller_interrupt_vector_mode>:
__metal_controller_interrupt_vector_mode():
/home/nicoladgg/wsFreedomStudio/sifive_hifive1_revb_hello/freedom-metal/src/drivers/riscv_cpu.c:299
20012d12:	1101                	addi	sp,sp,-32
20012d14:	ce22                	sw	s0,28(sp)
20012d16:	1000                	addi	s0,sp,32
/home/nicoladgg/wsFreedomStudio/sifive_hifive1_revb_hello/freedom-metal/src/drivers/riscv_cpu.c:302
20012d18:	305027f3          	csrr	a5,mtvec
20012d1c:	fef42623          	sw	a5,-20(s0)
/home/nicoladgg/wsFreedomStudio/sifive_hifive1_revb_hello/freedom-metal/src/drivers/riscv_cpu.c:303
20012d20:	fec42783          	lw	a5,-20(s0)
20012d24:	03f7f793          	andi	a5,a5,63
20012d28:	fef42623          	sw	a5,-20(s0)
/home/nicoladgg/wsFreedomStudio/sifive_hifive1_revb_hello/freedom-metal/src/drivers/riscv_cpu.c:305
20012d2c:	fec42703          	lw	a4,-20(s0)
20012d30:	478d                	li	a5,3
20012d32:	02f70363          	beq	a4,a5,20012d58 <__metal_controller_interrupt_vector_mode+0x46>
20012d36:	fec42703          	lw	a4,-20(s0)
20012d3a:	478d                	li	a5,3
20012d3c:	02e7e263          	bltu	a5,a4,20012d60 <__metal_controller_interrupt_vector_mode+0x4e>
20012d40:	fec42703          	lw	a4,-20(s0)
20012d44:	4785                	li	a5,1
20012d46:	00f70b63          	beq	a4,a5,20012d5c <__metal_controller_interrupt_vector_mode+0x4a>
20012d4a:	fec42703          	lw	a4,-20(s0)
20012d4e:	4789                	li	a5,2
20012d50:	00f71863          	bne	a4,a5,20012d60 <__metal_controller_interrupt_vector_mode+0x4e>
/home/nicoladgg/wsFreedomStudio/sifive_hifive1_revb_hello/freedom-metal/src/drivers/riscv_cpu.c:307
20012d54:	478d                	li	a5,3
20012d56:	a031                	j	20012d62 <__metal_controller_interrupt_vector_mode+0x50>
/home/nicoladgg/wsFreedomStudio/sifive_hifive1_revb_hello/freedom-metal/src/drivers/riscv_cpu.c:309
20012d58:	4791                	li	a5,4
20012d5a:	a021                	j	20012d62 <__metal_controller_interrupt_vector_mode+0x50>
/home/nicoladgg/wsFreedomStudio/sifive_hifive1_revb_hello/freedom-metal/src/drivers/riscv_cpu.c:311
20012d5c:	4785                	li	a5,1
20012d5e:	a011                	j	20012d62 <__metal_controller_interrupt_vector_mode+0x50>
/home/nicoladgg/wsFreedomStudio/sifive_hifive1_revb_hello/freedom-metal/src/drivers/riscv_cpu.c:313
20012d60:	4781                	li	a5,0
/home/nicoladgg/wsFreedomStudio/sifive_hifive1_revb_hello/freedom-metal/src/drivers/riscv_cpu.c:314
20012d62:	853e                	mv	a0,a5
20012d64:	4472                	lw	s0,28(sp)
20012d66:	6105                	addi	sp,sp,32
20012d68:	8082                	ret

20012d6a <__metal_controller_interrupt_vector>:
__metal_controller_interrupt_vector():
/home/nicoladgg/wsFreedomStudio/sifive_hifive1_revb_hello/freedom-metal/src/drivers/riscv_cpu.c:317
20012d6a:	7179                	addi	sp,sp,-48
20012d6c:	d622                	sw	s0,44(sp)
20012d6e:	1800                	addi	s0,sp,48
20012d70:	fca42e23          	sw	a0,-36(s0)
20012d74:	fcb42c23          	sw	a1,-40(s0)
/home/nicoladgg/wsFreedomStudio/sifive_hifive1_revb_hello/freedom-metal/src/drivers/riscv_cpu.c:320
20012d78:	305027f3          	csrr	a5,mtvec
20012d7c:	fef42623          	sw	a5,-20(s0)
/home/nicoladgg/wsFreedomStudio/sifive_hifive1_revb_hello/freedom-metal/src/drivers/riscv_cpu.c:321
20012d80:	fec42783          	lw	a5,-20(s0)
20012d84:	fc07f793          	andi	a5,a5,-64
20012d88:	fef42623          	sw	a5,-20(s0)
/home/nicoladgg/wsFreedomStudio/sifive_hifive1_revb_hello/freedom-metal/src/drivers/riscv_cpu.c:322
20012d8c:	fd842783          	lw	a5,-40(s0)
20012d90:	fef42423          	sw	a5,-24(s0)
/home/nicoladgg/wsFreedomStudio/sifive_hifive1_revb_hello/freedom-metal/src/drivers/riscv_cpu.c:324
20012d94:	fdc42703          	lw	a4,-36(s0)
20012d98:	4791                	li	a5,4
20012d9a:	04f70563          	beq	a4,a5,20012de4 <__metal_controller_interrupt_vector+0x7a>
20012d9e:	fdc42703          	lw	a4,-36(s0)
20012da2:	4791                	li	a5,4
20012da4:	06e7e863          	bltu	a5,a4,20012e14 <__metal_controller_interrupt_vector+0xaa>
20012da8:	fdc42703          	lw	a4,-36(s0)
20012dac:	478d                	li	a5,3
20012dae:	06e7e363          	bltu	a5,a4,20012e14 <__metal_controller_interrupt_vector+0xaa>
20012db2:	fdc42703          	lw	a4,-36(s0)
20012db6:	4789                	li	a5,2
20012db8:	00f77b63          	bgeu	a4,a5,20012dce <__metal_controller_interrupt_vector+0x64>
20012dbc:	fdc42783          	lw	a5,-36(s0)
20012dc0:	c7a1                	beqz	a5,20012e08 <__metal_controller_interrupt_vector+0x9e>
20012dc2:	fdc42703          	lw	a4,-36(s0)
20012dc6:	4785                	li	a5,1
20012dc8:	02f70963          	beq	a4,a5,20012dfa <__metal_controller_interrupt_vector+0x90>
/home/nicoladgg/wsFreedomStudio/sifive_hifive1_revb_hello/freedom-metal/src/drivers/riscv_cpu.c:344
20012dcc:	a0a1                	j	20012e14 <__metal_controller_interrupt_vector+0xaa>
/home/nicoladgg/wsFreedomStudio/sifive_hifive1_revb_hello/freedom-metal/src/drivers/riscv_cpu.c:327
20012dce:	fe842783          	lw	a5,-24(s0)
20012dd2:	30779073          	csrw	mtvt,a5
/home/nicoladgg/wsFreedomStudio/sifive_hifive1_revb_hello/freedom-metal/src/drivers/riscv_cpu.c:328
20012dd6:	fec42783          	lw	a5,-20(s0)
20012dda:	0027e793          	ori	a5,a5,2
20012dde:	30579073          	csrw	mtvec,a5
/home/nicoladgg/wsFreedomStudio/sifive_hifive1_revb_hello/freedom-metal/src/drivers/riscv_cpu.c:329
20012de2:	a80d                	j	20012e14 <__metal_controller_interrupt_vector+0xaa>
/home/nicoladgg/wsFreedomStudio/sifive_hifive1_revb_hello/freedom-metal/src/drivers/riscv_cpu.c:331
20012de4:	fe842783          	lw	a5,-24(s0)
20012de8:	30779073          	csrw	mtvt,a5
/home/nicoladgg/wsFreedomStudio/sifive_hifive1_revb_hello/freedom-metal/src/drivers/riscv_cpu.c:333
20012dec:	fec42783          	lw	a5,-20(s0)
20012df0:	0037e793          	ori	a5,a5,3
/home/nicoladgg/wsFreedomStudio/sifive_hifive1_revb_hello/freedom-metal/src/drivers/riscv_cpu.c:332
20012df4:	30579073          	csrw	mtvec,a5
/home/nicoladgg/wsFreedomStudio/sifive_hifive1_revb_hello/freedom-metal/src/drivers/riscv_cpu.c:334
20012df8:	a831                	j	20012e14 <__metal_controller_interrupt_vector+0xaa>
/home/nicoladgg/wsFreedomStudio/sifive_hifive1_revb_hello/freedom-metal/src/drivers/riscv_cpu.c:337
20012dfa:	fe842783          	lw	a5,-24(s0)
20012dfe:	0017e793          	ori	a5,a5,1
/home/nicoladgg/wsFreedomStudio/sifive_hifive1_revb_hello/freedom-metal/src/drivers/riscv_cpu.c:336
20012e02:	30579073          	csrw	mtvec,a5
/home/nicoladgg/wsFreedomStudio/sifive_hifive1_revb_hello/freedom-metal/src/drivers/riscv_cpu.c:338
20012e06:	a039                	j	20012e14 <__metal_controller_interrupt_vector+0xaa>
/home/nicoladgg/wsFreedomStudio/sifive_hifive1_revb_hello/freedom-metal/src/drivers/riscv_cpu.c:341
20012e08:	fe842783          	lw	a5,-24(s0)
20012e0c:	9bf1                	andi	a5,a5,-4
/home/nicoladgg/wsFreedomStudio/sifive_hifive1_revb_hello/freedom-metal/src/drivers/riscv_cpu.c:340
20012e0e:	30579073          	csrw	mtvec,a5
/home/nicoladgg/wsFreedomStudio/sifive_hifive1_revb_hello/freedom-metal/src/drivers/riscv_cpu.c:342
20012e12:	0001                	nop
/home/nicoladgg/wsFreedomStudio/sifive_hifive1_revb_hello/freedom-metal/src/drivers/riscv_cpu.c:344
20012e14:	0001                	nop
20012e16:	5432                	lw	s0,44(sp)
20012e18:	6145                	addi	sp,sp,48
20012e1a:	8082                	ret

20012e1c <__metal_valid_interrupt_id>:
__metal_valid_interrupt_id():
/home/nicoladgg/wsFreedomStudio/sifive_hifive1_revb_hello/freedom-metal/src/drivers/riscv_cpu.c:346
20012e1c:	1101                	addi	sp,sp,-32
20012e1e:	ce22                	sw	s0,28(sp)
20012e20:	1000                	addi	s0,sp,32
20012e22:	fea42623          	sw	a0,-20(s0)
/home/nicoladgg/wsFreedomStudio/sifive_hifive1_revb_hello/freedom-metal/src/drivers/riscv_cpu.c:347
20012e26:	fec42703          	lw	a4,-20(s0)
20012e2a:	47fd                	li	a5,31
20012e2c:	02e7c663          	blt	a5,a4,20012e58 <__metal_valid_interrupt_id+0x3c>
20012e30:	fec42703          	lw	a4,-20(s0)
20012e34:	478d                	li	a5,3
20012e36:	02f74963          	blt	a4,a5,20012e68 <__metal_valid_interrupt_id+0x4c>
20012e3a:	fec42783          	lw	a5,-20(s0)
20012e3e:	4705                	li	a4,1
20012e40:	00f71733          	sll	a4,a4,a5
20012e44:	77c5                	lui	a5,0xffff1
20012e46:	88878793          	addi	a5,a5,-1912 # ffff0888 <__global_pointer$+0x7ffefc00>
20012e4a:	8ff9                	and	a5,a5,a4
20012e4c:	00f037b3          	snez	a5,a5
20012e50:	0ff7f793          	zext.b	a5,a5
20012e54:	eb81                	bnez	a5,20012e64 <__metal_valid_interrupt_id+0x48>
/home/nicoladgg/wsFreedomStudio/sifive_hifive1_revb_hello/freedom-metal/src/drivers/riscv_cpu.c:370
20012e56:	a809                	j	20012e68 <__metal_valid_interrupt_id+0x4c>
/home/nicoladgg/wsFreedomStudio/sifive_hifive1_revb_hello/freedom-metal/src/drivers/riscv_cpu.c:347
20012e58:	fec42703          	lw	a4,-20(s0)
20012e5c:	08000793          	li	a5,128
20012e60:	00f71463          	bne	a4,a5,20012e68 <__metal_valid_interrupt_id+0x4c>
/home/nicoladgg/wsFreedomStudio/sifive_hifive1_revb_hello/freedom-metal/src/drivers/riscv_cpu.c:368
20012e64:	4785                	li	a5,1
20012e66:	a019                	j	20012e6c <__metal_valid_interrupt_id+0x50>
/home/nicoladgg/wsFreedomStudio/sifive_hifive1_revb_hello/freedom-metal/src/drivers/riscv_cpu.c:370
20012e68:	0001                	nop
/home/nicoladgg/wsFreedomStudio/sifive_hifive1_revb_hello/freedom-metal/src/drivers/riscv_cpu.c:373
20012e6a:	4781                	li	a5,0
/home/nicoladgg/wsFreedomStudio/sifive_hifive1_revb_hello/freedom-metal/src/drivers/riscv_cpu.c:374
20012e6c:	853e                	mv	a0,a5
20012e6e:	4472                	lw	s0,28(sp)
20012e70:	6105                	addi	sp,sp,32
20012e72:	8082                	ret

20012e74 <__metal_local_interrupt_enable>:
__metal_local_interrupt_enable():
/home/nicoladgg/wsFreedomStudio/sifive_hifive1_revb_hello/freedom-metal/src/drivers/riscv_cpu.c:377
20012e74:	7179                	addi	sp,sp,-48
20012e76:	d606                	sw	ra,44(sp)
20012e78:	d422                	sw	s0,40(sp)
20012e7a:	1800                	addi	s0,sp,48
20012e7c:	fca42e23          	sw	a0,-36(s0)
20012e80:	fcb42c23          	sw	a1,-40(s0)
20012e84:	fcc42a23          	sw	a2,-44(s0)
/home/nicoladgg/wsFreedomStudio/sifive_hifive1_revb_hello/freedom-metal/src/drivers/riscv_cpu.c:378
20012e88:	fe042623          	sw	zero,-20(s0)
/home/nicoladgg/wsFreedomStudio/sifive_hifive1_revb_hello/freedom-metal/src/drivers/riscv_cpu.c:380
20012e8c:	fdc42783          	lw	a5,-36(s0)
20012e90:	e399                	bnez	a5,20012e96 <__metal_local_interrupt_enable+0x22>
/home/nicoladgg/wsFreedomStudio/sifive_hifive1_revb_hello/freedom-metal/src/drivers/riscv_cpu.c:381
20012e92:	57fd                	li	a5,-1
20012e94:	a849                	j	20012f26 <__metal_local_interrupt_enable+0xb2>
20012e96:	fd842703          	lw	a4,-40(s0)
20012e9a:	47fd                	li	a5,31
20012e9c:	08e7e063          	bltu	a5,a4,20012f1c <__metal_local_interrupt_enable+0xa8>
20012ea0:	fd842783          	lw	a5,-40(s0)
20012ea4:	00279713          	slli	a4,a5,0x2
20012ea8:	200107b7          	lui	a5,0x20010
20012eac:	3b878793          	addi	a5,a5,952 # 200103b8 <__metal_driver_vtable_riscv_clint0+0x64>
20012eb0:	97ba                	add	a5,a5,a4
20012eb2:	439c                	lw	a5,0(a5)
20012eb4:	8782                	jr	a5
/home/nicoladgg/wsFreedomStudio/sifive_hifive1_revb_hello/freedom-metal/src/drivers/riscv_cpu.c:386
20012eb6:	fd442783          	lw	a5,-44(s0)
20012eba:	c781                	beqz	a5,20012ec2 <__metal_local_interrupt_enable+0x4e>
/home/nicoladgg/wsFreedomStudio/sifive_hifive1_revb_hello/freedom-metal/src/drivers/riscv_cpu.c:387
20012ebc:	f69fe0ef          	jal	ra,20011e24 <__metal_interrupt_global_enable>
/home/nicoladgg/wsFreedomStudio/sifive_hifive1_revb_hello/freedom-metal/src/drivers/riscv_cpu.c:391
20012ec0:	a08d                	j	20012f22 <__metal_local_interrupt_enable+0xae>
/home/nicoladgg/wsFreedomStudio/sifive_hifive1_revb_hello/freedom-metal/src/drivers/riscv_cpu.c:389
20012ec2:	f7bfe0ef          	jal	ra,20011e3c <__metal_interrupt_global_disable>
/home/nicoladgg/wsFreedomStudio/sifive_hifive1_revb_hello/freedom-metal/src/drivers/riscv_cpu.c:391
20012ec6:	a8b1                	j	20012f22 <__metal_local_interrupt_enable+0xae>
/home/nicoladgg/wsFreedomStudio/sifive_hifive1_revb_hello/freedom-metal/src/drivers/riscv_cpu.c:393
20012ec8:	fd442783          	lw	a5,-44(s0)
20012ecc:	c781                	beqz	a5,20012ed4 <__metal_local_interrupt_enable+0x60>
/home/nicoladgg/wsFreedomStudio/sifive_hifive1_revb_hello/freedom-metal/src/drivers/riscv_cpu.c:394
20012ece:	f87fe0ef          	jal	ra,20011e54 <__metal_interrupt_software_enable>
/home/nicoladgg/wsFreedomStudio/sifive_hifive1_revb_hello/freedom-metal/src/drivers/riscv_cpu.c:398
20012ed2:	a881                	j	20012f22 <__metal_local_interrupt_enable+0xae>
/home/nicoladgg/wsFreedomStudio/sifive_hifive1_revb_hello/freedom-metal/src/drivers/riscv_cpu.c:396
20012ed4:	f99fe0ef          	jal	ra,20011e6c <__metal_interrupt_software_disable>
/home/nicoladgg/wsFreedomStudio/sifive_hifive1_revb_hello/freedom-metal/src/drivers/riscv_cpu.c:398
20012ed8:	a0a9                	j	20012f22 <__metal_local_interrupt_enable+0xae>
/home/nicoladgg/wsFreedomStudio/sifive_hifive1_revb_hello/freedom-metal/src/drivers/riscv_cpu.c:400
20012eda:	fd442783          	lw	a5,-44(s0)
20012ede:	c781                	beqz	a5,20012ee6 <__metal_local_interrupt_enable+0x72>
/home/nicoladgg/wsFreedomStudio/sifive_hifive1_revb_hello/freedom-metal/src/drivers/riscv_cpu.c:401
20012ee0:	fa5fe0ef          	jal	ra,20011e84 <__metal_interrupt_timer_enable>
/home/nicoladgg/wsFreedomStudio/sifive_hifive1_revb_hello/freedom-metal/src/drivers/riscv_cpu.c:405
20012ee4:	a83d                	j	20012f22 <__metal_local_interrupt_enable+0xae>
/home/nicoladgg/wsFreedomStudio/sifive_hifive1_revb_hello/freedom-metal/src/drivers/riscv_cpu.c:403
20012ee6:	fb9fe0ef          	jal	ra,20011e9e <__metal_interrupt_timer_disable>
/home/nicoladgg/wsFreedomStudio/sifive_hifive1_revb_hello/freedom-metal/src/drivers/riscv_cpu.c:405
20012eea:	a825                	j	20012f22 <__metal_local_interrupt_enable+0xae>
/home/nicoladgg/wsFreedomStudio/sifive_hifive1_revb_hello/freedom-metal/src/drivers/riscv_cpu.c:407
20012eec:	fd442783          	lw	a5,-44(s0)
20012ef0:	c781                	beqz	a5,20012ef8 <__metal_local_interrupt_enable+0x84>
/home/nicoladgg/wsFreedomStudio/sifive_hifive1_revb_hello/freedom-metal/src/drivers/riscv_cpu.c:408
20012ef2:	fc7fe0ef          	jal	ra,20011eb8 <__metal_interrupt_external_enable>
/home/nicoladgg/wsFreedomStudio/sifive_hifive1_revb_hello/freedom-metal/src/drivers/riscv_cpu.c:412
20012ef6:	a035                	j	20012f22 <__metal_local_interrupt_enable+0xae>
/home/nicoladgg/wsFreedomStudio/sifive_hifive1_revb_hello/freedom-metal/src/drivers/riscv_cpu.c:410
20012ef8:	fddfe0ef          	jal	ra,20011ed4 <__metal_interrupt_external_disable>
/home/nicoladgg/wsFreedomStudio/sifive_hifive1_revb_hello/freedom-metal/src/drivers/riscv_cpu.c:412
20012efc:	a01d                	j	20012f22 <__metal_local_interrupt_enable+0xae>
/home/nicoladgg/wsFreedomStudio/sifive_hifive1_revb_hello/freedom-metal/src/drivers/riscv_cpu.c:429
20012efe:	fd442783          	lw	a5,-44(s0)
20012f02:	c799                	beqz	a5,20012f10 <__metal_local_interrupt_enable+0x9c>
/home/nicoladgg/wsFreedomStudio/sifive_hifive1_revb_hello/freedom-metal/src/drivers/riscv_cpu.c:430
20012f04:	fd842783          	lw	a5,-40(s0)
20012f08:	853e                	mv	a0,a5
20012f0a:	fe7fe0ef          	jal	ra,20011ef0 <__metal_interrupt_local_enable>
/home/nicoladgg/wsFreedomStudio/sifive_hifive1_revb_hello/freedom-metal/src/drivers/riscv_cpu.c:434
20012f0e:	a811                	j	20012f22 <__metal_local_interrupt_enable+0xae>
/home/nicoladgg/wsFreedomStudio/sifive_hifive1_revb_hello/freedom-metal/src/drivers/riscv_cpu.c:432
20012f10:	fd842783          	lw	a5,-40(s0)
20012f14:	853e                	mv	a0,a5
20012f16:	806ff0ef          	jal	ra,20011f1c <__metal_interrupt_local_disable>
/home/nicoladgg/wsFreedomStudio/sifive_hifive1_revb_hello/freedom-metal/src/drivers/riscv_cpu.c:434
20012f1a:	a021                	j	20012f22 <__metal_local_interrupt_enable+0xae>
/home/nicoladgg/wsFreedomStudio/sifive_hifive1_revb_hello/freedom-metal/src/drivers/riscv_cpu.c:436
20012f1c:	57fd                	li	a5,-1
20012f1e:	fef42623          	sw	a5,-20(s0)
/home/nicoladgg/wsFreedomStudio/sifive_hifive1_revb_hello/freedom-metal/src/drivers/riscv_cpu.c:438
20012f22:	fec42783          	lw	a5,-20(s0)
/home/nicoladgg/wsFreedomStudio/sifive_hifive1_revb_hello/freedom-metal/src/drivers/riscv_cpu.c:439
20012f26:	853e                	mv	a0,a5
20012f28:	50b2                	lw	ra,44(sp)
20012f2a:	5422                	lw	s0,40(sp)
20012f2c:	6145                	addi	sp,sp,48
20012f2e:	8082                	ret

20012f30 <__metal_exception_register>:
__metal_exception_register():
/home/nicoladgg/wsFreedomStudio/sifive_hifive1_revb_hello/freedom-metal/src/drivers/riscv_cpu.c:442
20012f30:	7179                	addi	sp,sp,-48
20012f32:	d622                	sw	s0,44(sp)
20012f34:	1800                	addi	s0,sp,48
20012f36:	fca42e23          	sw	a0,-36(s0)
20012f3a:	fcb42c23          	sw	a1,-40(s0)
20012f3e:	fcc42a23          	sw	a2,-44(s0)
/home/nicoladgg/wsFreedomStudio/sifive_hifive1_revb_hello/freedom-metal/src/drivers/riscv_cpu.c:443
20012f42:	fdc42783          	lw	a5,-36(s0)
20012f46:	fef42623          	sw	a5,-20(s0)
/home/nicoladgg/wsFreedomStudio/sifive_hifive1_revb_hello/freedom-metal/src/drivers/riscv_cpu.c:445
20012f4a:	fd842703          	lw	a4,-40(s0)
20012f4e:	47ad                	li	a5,11
20012f50:	02e7c263          	blt	a5,a4,20012f74 <__metal_exception_register+0x44>
/home/nicoladgg/wsFreedomStudio/sifive_hifive1_revb_hello/freedom-metal/src/drivers/riscv_cpu.c:445 (discriminator 1)
20012f54:	fd442783          	lw	a5,-44(s0)
20012f58:	cf91                	beqz	a5,20012f74 <__metal_exception_register+0x44>
/home/nicoladgg/wsFreedomStudio/sifive_hifive1_revb_hello/freedom-metal/src/drivers/riscv_cpu.c:446
20012f5a:	fec42703          	lw	a4,-20(s0)
20012f5e:	fd842783          	lw	a5,-40(s0)
20012f62:	0e878793          	addi	a5,a5,232
20012f66:	078a                	slli	a5,a5,0x2
20012f68:	97ba                	add	a5,a5,a4
20012f6a:	fd442703          	lw	a4,-44(s0)
20012f6e:	c398                	sw	a4,0(a5)
/home/nicoladgg/wsFreedomStudio/sifive_hifive1_revb_hello/freedom-metal/src/drivers/riscv_cpu.c:447
20012f70:	4781                	li	a5,0
20012f72:	a011                	j	20012f76 <__metal_exception_register+0x46>
/home/nicoladgg/wsFreedomStudio/sifive_hifive1_revb_hello/freedom-metal/src/drivers/riscv_cpu.c:449
20012f74:	57fd                	li	a5,-1
/home/nicoladgg/wsFreedomStudio/sifive_hifive1_revb_hello/freedom-metal/src/drivers/riscv_cpu.c:450
20012f76:	853e                	mv	a0,a5
20012f78:	5432                	lw	s0,44(sp)
20012f7a:	6145                	addi	sp,sp,48
20012f7c:	8082                	ret

20012f7e <__metal_driver_riscv_cpu_controller_interrupt_init>:
__metal_driver_riscv_cpu_controller_interrupt_init():
/home/nicoladgg/wsFreedomStudio/sifive_hifive1_revb_hello/freedom-metal/src/drivers/riscv_cpu.c:454
20012f7e:	7179                	addi	sp,sp,-48
20012f80:	d606                	sw	ra,44(sp)
20012f82:	d422                	sw	s0,40(sp)
20012f84:	1800                	addi	s0,sp,48
20012f86:	fca42e23          	sw	a0,-36(s0)
/home/nicoladgg/wsFreedomStudio/sifive_hifive1_revb_hello/freedom-metal/src/drivers/riscv_cpu.c:455
20012f8a:	fdc42783          	lw	a5,-36(s0)
20012f8e:	fef42223          	sw	a5,-28(s0)
/home/nicoladgg/wsFreedomStudio/sifive_hifive1_revb_hello/freedom-metal/src/drivers/riscv_cpu.c:457
20012f92:	fe442783          	lw	a5,-28(s0)
20012f96:	43dc                	lw	a5,4(a5)
20012f98:	efdd                	bnez	a5,20013056 <__metal_driver_riscv_cpu_controller_interrupt_init+0xd8>
/home/nicoladgg/wsFreedomStudio/sifive_hifive1_revb_hello/freedom-metal/src/drivers/riscv_cpu.c:459
20012f9a:	fe042623          	sw	zero,-20(s0)
20012f9e:	a0b9                	j	20012fec <__metal_driver_riscv_cpu_controller_interrupt_init+0x6e>
/home/nicoladgg/wsFreedomStudio/sifive_hifive1_revb_hello/freedom-metal/src/drivers/riscv_cpu.c:460 (discriminator 3)
20012fa0:	fe442683          	lw	a3,-28(s0)
20012fa4:	fec42703          	lw	a4,-20(s0)
20012fa8:	87ba                	mv	a5,a4
20012faa:	0786                	slli	a5,a5,0x1
20012fac:	97ba                	add	a5,a5,a4
20012fae:	078e                	slli	a5,a5,0x3
20012fb0:	97b6                	add	a5,a5,a3
20012fb2:	0807a823          	sw	zero,144(a5)
/home/nicoladgg/wsFreedomStudio/sifive_hifive1_revb_hello/freedom-metal/src/drivers/riscv_cpu.c:461 (discriminator 3)
20012fb6:	fe442683          	lw	a3,-28(s0)
20012fba:	fec42703          	lw	a4,-20(s0)
20012fbe:	87ba                	mv	a5,a4
20012fc0:	0786                	slli	a5,a5,0x1
20012fc2:	97ba                	add	a5,a5,a4
20012fc4:	078e                	slli	a5,a5,0x3
20012fc6:	97b6                	add	a5,a5,a3
20012fc8:	0807aa23          	sw	zero,148(a5)
/home/nicoladgg/wsFreedomStudio/sifive_hifive1_revb_hello/freedom-metal/src/drivers/riscv_cpu.c:462 (discriminator 3)
20012fcc:	fe442683          	lw	a3,-28(s0)
20012fd0:	fec42703          	lw	a4,-20(s0)
20012fd4:	87ba                	mv	a5,a4
20012fd6:	0786                	slli	a5,a5,0x1
20012fd8:	97ba                	add	a5,a5,a4
20012fda:	078e                	slli	a5,a5,0x3
20012fdc:	97b6                	add	a5,a5,a3
20012fde:	0807ac23          	sw	zero,152(a5)
/home/nicoladgg/wsFreedomStudio/sifive_hifive1_revb_hello/freedom-metal/src/drivers/riscv_cpu.c:459 (discriminator 3)
20012fe2:	fec42783          	lw	a5,-20(s0)
20012fe6:	0785                	addi	a5,a5,1
20012fe8:	fef42623          	sw	a5,-20(s0)
/home/nicoladgg/wsFreedomStudio/sifive_hifive1_revb_hello/freedom-metal/src/drivers/riscv_cpu.c:459 (discriminator 1)
20012fec:	fec42703          	lw	a4,-20(s0)
20012ff0:	47fd                	li	a5,31
20012ff2:	fae7d7e3          	bge	a5,a4,20012fa0 <__metal_driver_riscv_cpu_controller_interrupt_init+0x22>
/home/nicoladgg/wsFreedomStudio/sifive_hifive1_revb_hello/freedom-metal/src/drivers/riscv_cpu.c:465
20012ff6:	fe042423          	sw	zero,-24(s0)
20012ffa:	a01d                	j	20013020 <__metal_driver_riscv_cpu_controller_interrupt_init+0xa2>
/home/nicoladgg/wsFreedomStudio/sifive_hifive1_revb_hello/freedom-metal/src/drivers/riscv_cpu.c:466 (discriminator 3)
20012ffc:	fe442703          	lw	a4,-28(s0)
20013000:	fe842783          	lw	a5,-24(s0)
20013004:	0e878793          	addi	a5,a5,232
20013008:	078a                	slli	a5,a5,0x2
2001300a:	97ba                	add	a5,a5,a4
2001300c:	20012737          	lui	a4,0x20012
20013010:	f4870713          	addi	a4,a4,-184 # 20011f48 <__metal_default_exception_handler>
20013014:	c398                	sw	a4,0(a5)
/home/nicoladgg/wsFreedomStudio/sifive_hifive1_revb_hello/freedom-metal/src/drivers/riscv_cpu.c:465 (discriminator 3)
20013016:	fe842783          	lw	a5,-24(s0)
2001301a:	0785                	addi	a5,a5,1
2001301c:	fef42423          	sw	a5,-24(s0)
/home/nicoladgg/wsFreedomStudio/sifive_hifive1_revb_hello/freedom-metal/src/drivers/riscv_cpu.c:465 (discriminator 1)
20013020:	fe842703          	lw	a4,-24(s0)
20013024:	47ad                	li	a5,11
20013026:	fce7dbe3          	bge	a5,a4,20012ffc <__metal_driver_riscv_cpu_controller_interrupt_init+0x7e>
/home/nicoladgg/wsFreedomStudio/sifive_hifive1_revb_hello/freedom-metal/src/drivers/riscv_cpu.c:475
2001302a:	305027f3          	csrr	a5,mtvec
2001302e:	fef42023          	sw	a5,-32(s0)
/home/nicoladgg/wsFreedomStudio/sifive_hifive1_revb_hello/freedom-metal/src/drivers/riscv_cpu.c:476
20013032:	200107b7          	lui	a5,0x20010
20013036:	13478793          	addi	a5,a5,308 # 20010134 <early_trap_vector>
2001303a:	fe042703          	lw	a4,-32(s0)
2001303e:	00f71863          	bne	a4,a5,2001304e <__metal_driver_riscv_cpu_controller_interrupt_init+0xd0>
/home/nicoladgg/wsFreedomStudio/sifive_hifive1_revb_hello/freedom-metal/src/drivers/riscv_cpu.c:477
20013042:	200127b7          	lui	a5,0x20012
20013046:	20078593          	addi	a1,a5,512 # 20012200 <__metal_exception_handler>
2001304a:	4501                	li	a0,0
2001304c:	3b39                	jal	20012d6a <__metal_controller_interrupt_vector>
/home/nicoladgg/wsFreedomStudio/sifive_hifive1_revb_hello/freedom-metal/src/drivers/riscv_cpu.c:481
2001304e:	fe442783          	lw	a5,-28(s0)
20013052:	4705                	li	a4,1
20013054:	c3d8                	sw	a4,4(a5)
/home/nicoladgg/wsFreedomStudio/sifive_hifive1_revb_hello/freedom-metal/src/drivers/riscv_cpu.c:483
20013056:	0001                	nop
20013058:	50b2                	lw	ra,44(sp)
2001305a:	5422                	lw	s0,40(sp)
2001305c:	6145                	addi	sp,sp,48
2001305e:	8082                	ret

20013060 <__metal_driver_riscv_cpu_controller_interrupt_register>:
__metal_driver_riscv_cpu_controller_interrupt_register():
/home/nicoladgg/wsFreedomStudio/sifive_hifive1_revb_hello/freedom-metal/src/drivers/riscv_cpu.c:487
20013060:	7179                	addi	sp,sp,-48
20013062:	d606                	sw	ra,44(sp)
20013064:	d422                	sw	s0,40(sp)
20013066:	1800                	addi	s0,sp,48
20013068:	fca42e23          	sw	a0,-36(s0)
2001306c:	fcb42c23          	sw	a1,-40(s0)
20013070:	fcc42a23          	sw	a2,-44(s0)
20013074:	fcd42823          	sw	a3,-48(s0)
/home/nicoladgg/wsFreedomStudio/sifive_hifive1_revb_hello/freedom-metal/src/drivers/riscv_cpu.c:488
20013078:	fe042623          	sw	zero,-20(s0)
/home/nicoladgg/wsFreedomStudio/sifive_hifive1_revb_hello/freedom-metal/src/drivers/riscv_cpu.c:489
2001307c:	fdc42783          	lw	a5,-36(s0)
20013080:	fef42423          	sw	a5,-24(s0)
/home/nicoladgg/wsFreedomStudio/sifive_hifive1_revb_hello/freedom-metal/src/drivers/riscv_cpu.c:491
20013084:	fd842503          	lw	a0,-40(s0)
20013088:	3b51                	jal	20012e1c <__metal_valid_interrupt_id>
2001308a:	87aa                	mv	a5,a0
2001308c:	e399                	bnez	a5,20013092 <__metal_driver_riscv_cpu_controller_interrupt_register+0x32>
/home/nicoladgg/wsFreedomStudio/sifive_hifive1_revb_hello/freedom-metal/src/drivers/riscv_cpu.c:492
2001308e:	57d5                	li	a5,-11
20013090:	a25d                	j	20013236 <__metal_driver_riscv_cpu_controller_interrupt_register+0x1d6>
/home/nicoladgg/wsFreedomStudio/sifive_hifive1_revb_hello/freedom-metal/src/drivers/riscv_cpu.c:494
20013092:	fd842703          	lw	a4,-40(s0)
20013096:	08000793          	li	a5,128
2001309a:	00f71763          	bne	a4,a5,200130a8 <__metal_driver_riscv_cpu_controller_interrupt_register+0x48>
/home/nicoladgg/wsFreedomStudio/sifive_hifive1_revb_hello/freedom-metal/src/drivers/riscv_cpu.c:495 (discriminator 1)
2001309e:	3995                	jal	20012d12 <__metal_controller_interrupt_vector_mode>
200130a0:	87aa                	mv	a5,a0
/home/nicoladgg/wsFreedomStudio/sifive_hifive1_revb_hello/freedom-metal/src/drivers/riscv_cpu.c:494 (discriminator 1)
200130a2:	c399                	beqz	a5,200130a8 <__metal_driver_riscv_cpu_controller_interrupt_register+0x48>
/home/nicoladgg/wsFreedomStudio/sifive_hifive1_revb_hello/freedom-metal/src/drivers/riscv_cpu.c:498
200130a4:	57cd                	li	a5,-13
200130a6:	aa41                	j	20013236 <__metal_driver_riscv_cpu_controller_interrupt_register+0x1d6>
/home/nicoladgg/wsFreedomStudio/sifive_hifive1_revb_hello/freedom-metal/src/drivers/riscv_cpu.c:501
200130a8:	fd442783          	lw	a5,-44(s0)
200130ac:	cfb9                	beqz	a5,2001310a <__metal_driver_riscv_cpu_controller_interrupt_register+0xaa>
/home/nicoladgg/wsFreedomStudio/sifive_hifive1_revb_hello/freedom-metal/src/drivers/riscv_cpu.c:502
200130ae:	fd842703          	lw	a4,-40(s0)
200130b2:	08000793          	li	a5,128
200130b6:	00f71f63          	bne	a4,a5,200130d4 <__metal_driver_riscv_cpu_controller_interrupt_register+0x74>
/home/nicoladgg/wsFreedomStudio/sifive_hifive1_revb_hello/freedom-metal/src/drivers/riscv_cpu.c:503
200130ba:	fe842783          	lw	a5,-24(s0)
200130be:	fd442703          	lw	a4,-44(s0)
200130c2:	38e7a823          	sw	a4,912(a5)
/home/nicoladgg/wsFreedomStudio/sifive_hifive1_revb_hello/freedom-metal/src/drivers/riscv_cpu.c:504
200130c6:	fe842783          	lw	a5,-24(s0)
200130ca:	fd042703          	lw	a4,-48(s0)
200130ce:	38e7ac23          	sw	a4,920(a5)
200130d2:	a285                	j	20013232 <__metal_driver_riscv_cpu_controller_interrupt_register+0x1d2>
/home/nicoladgg/wsFreedomStudio/sifive_hifive1_revb_hello/freedom-metal/src/drivers/riscv_cpu.c:506
200130d4:	fe842683          	lw	a3,-24(s0)
200130d8:	fd842703          	lw	a4,-40(s0)
200130dc:	87ba                	mv	a5,a4
200130de:	0786                	slli	a5,a5,0x1
200130e0:	97ba                	add	a5,a5,a4
200130e2:	078e                	slli	a5,a5,0x3
200130e4:	97b6                	add	a5,a5,a3
200130e6:	fd442703          	lw	a4,-44(s0)
200130ea:	08e7a823          	sw	a4,144(a5)
/home/nicoladgg/wsFreedomStudio/sifive_hifive1_revb_hello/freedom-metal/src/drivers/riscv_cpu.c:507
200130ee:	fe842683          	lw	a3,-24(s0)
200130f2:	fd842703          	lw	a4,-40(s0)
200130f6:	87ba                	mv	a5,a4
200130f8:	0786                	slli	a5,a5,0x1
200130fa:	97ba                	add	a5,a5,a4
200130fc:	078e                	slli	a5,a5,0x3
200130fe:	97b6                	add	a5,a5,a3
20013100:	fd042703          	lw	a4,-48(s0)
20013104:	08e7ac23          	sw	a4,152(a5)
20013108:	a22d                	j	20013232 <__metal_driver_riscv_cpu_controller_interrupt_register+0x1d2>
/home/nicoladgg/wsFreedomStudio/sifive_hifive1_revb_hello/freedom-metal/src/drivers/riscv_cpu.c:510
2001310a:	fd842703          	lw	a4,-40(s0)
2001310e:	08000793          	li	a5,128
20013112:	0cf70163          	beq	a4,a5,200131d4 <__metal_driver_riscv_cpu_controller_interrupt_register+0x174>
20013116:	fd842703          	lw	a4,-40(s0)
2001311a:	08000793          	li	a5,128
2001311e:	10e7c763          	blt	a5,a4,2001322c <__metal_driver_riscv_cpu_controller_interrupt_register+0x1cc>
20013122:	fd842703          	lw	a4,-40(s0)
20013126:	47fd                	li	a5,31
20013128:	10e7c263          	blt	a5,a4,2001322c <__metal_driver_riscv_cpu_controller_interrupt_register+0x1cc>
2001312c:	fd842703          	lw	a4,-40(s0)
20013130:	47c1                	li	a5,16
20013132:	0cf75063          	bge	a4,a5,200131f2 <__metal_driver_riscv_cpu_controller_interrupt_register+0x192>
20013136:	fd842703          	lw	a4,-40(s0)
2001313a:	47ad                	li	a5,11
2001313c:	0af70b63          	beq	a4,a5,200131f2 <__metal_driver_riscv_cpu_controller_interrupt_register+0x192>
20013140:	fd842703          	lw	a4,-40(s0)
20013144:	47ad                	li	a5,11
20013146:	0ee7c363          	blt	a5,a4,2001322c <__metal_driver_riscv_cpu_controller_interrupt_register+0x1cc>
2001314a:	fd842703          	lw	a4,-40(s0)
2001314e:	478d                	li	a5,3
20013150:	00f70863          	beq	a4,a5,20013160 <__metal_driver_riscv_cpu_controller_interrupt_register+0x100>
20013154:	fd842703          	lw	a4,-40(s0)
20013158:	479d                	li	a5,7
2001315a:	04f70063          	beq	a4,a5,2001319a <__metal_driver_riscv_cpu_controller_interrupt_register+0x13a>
2001315e:	a0f9                	j	2001322c <__metal_driver_riscv_cpu_controller_interrupt_register+0x1cc>
/home/nicoladgg/wsFreedomStudio/sifive_hifive1_revb_hello/freedom-metal/src/drivers/riscv_cpu.c:512
20013160:	fe842683          	lw	a3,-24(s0)
20013164:	fd842703          	lw	a4,-40(s0)
20013168:	87ba                	mv	a5,a4
2001316a:	0786                	slli	a5,a5,0x1
2001316c:	97ba                	add	a5,a5,a4
2001316e:	078e                	slli	a5,a5,0x3
20013170:	97b6                	add	a5,a5,a3
20013172:	20012737          	lui	a4,0x20012
20013176:	03470713          	addi	a4,a4,52 # 20012034 <__metal_default_sw_handler>
2001317a:	08e7a823          	sw	a4,144(a5)
/home/nicoladgg/wsFreedomStudio/sifive_hifive1_revb_hello/freedom-metal/src/drivers/riscv_cpu.c:513
2001317e:	fe842683          	lw	a3,-24(s0)
20013182:	fd842703          	lw	a4,-40(s0)
20013186:	87ba                	mv	a5,a4
20013188:	0786                	slli	a5,a5,0x1
2001318a:	97ba                	add	a5,a5,a4
2001318c:	078e                	slli	a5,a5,0x3
2001318e:	97b6                	add	a5,a5,a3
20013190:	fd042703          	lw	a4,-48(s0)
20013194:	08e7aa23          	sw	a4,148(a5)
/home/nicoladgg/wsFreedomStudio/sifive_hifive1_revb_hello/freedom-metal/src/drivers/riscv_cpu.c:514
20013198:	a869                	j	20013232 <__metal_driver_riscv_cpu_controller_interrupt_register+0x1d2>
/home/nicoladgg/wsFreedomStudio/sifive_hifive1_revb_hello/freedom-metal/src/drivers/riscv_cpu.c:516
2001319a:	fe842683          	lw	a3,-24(s0)
2001319e:	fd842703          	lw	a4,-40(s0)
200131a2:	87ba                	mv	a5,a4
200131a4:	0786                	slli	a5,a5,0x1
200131a6:	97ba                	add	a5,a5,a4
200131a8:	078e                	slli	a5,a5,0x3
200131aa:	97b6                	add	a5,a5,a3
200131ac:	20012737          	lui	a4,0x20012
200131b0:	13c70713          	addi	a4,a4,316 # 2001213c <__metal_default_timer_handler>
200131b4:	08e7a823          	sw	a4,144(a5)
/home/nicoladgg/wsFreedomStudio/sifive_hifive1_revb_hello/freedom-metal/src/drivers/riscv_cpu.c:517
200131b8:	fe842683          	lw	a3,-24(s0)
200131bc:	fd842703          	lw	a4,-40(s0)
200131c0:	87ba                	mv	a5,a4
200131c2:	0786                	slli	a5,a5,0x1
200131c4:	97ba                	add	a5,a5,a4
200131c6:	078e                	slli	a5,a5,0x3
200131c8:	97b6                	add	a5,a5,a3
200131ca:	fd042703          	lw	a4,-48(s0)
200131ce:	08e7aa23          	sw	a4,148(a5)
/home/nicoladgg/wsFreedomStudio/sifive_hifive1_revb_hello/freedom-metal/src/drivers/riscv_cpu.c:518
200131d2:	a085                	j	20013232 <__metal_driver_riscv_cpu_controller_interrupt_register+0x1d2>
/home/nicoladgg/wsFreedomStudio/sifive_hifive1_revb_hello/freedom-metal/src/drivers/riscv_cpu.c:520
200131d4:	fe842783          	lw	a5,-24(s0)
200131d8:	20012737          	lui	a4,0x20012
200131dc:	12670713          	addi	a4,a4,294 # 20012126 <__metal_default_beu_handler>
200131e0:	38e7a823          	sw	a4,912(a5)
/home/nicoladgg/wsFreedomStudio/sifive_hifive1_revb_hello/freedom-metal/src/drivers/riscv_cpu.c:521
200131e4:	fe842783          	lw	a5,-24(s0)
200131e8:	fd042703          	lw	a4,-48(s0)
200131ec:	38e7ac23          	sw	a4,920(a5)
/home/nicoladgg/wsFreedomStudio/sifive_hifive1_revb_hello/freedom-metal/src/drivers/riscv_cpu.c:522
200131f0:	a089                	j	20013232 <__metal_driver_riscv_cpu_controller_interrupt_register+0x1d2>
/home/nicoladgg/wsFreedomStudio/sifive_hifive1_revb_hello/freedom-metal/src/drivers/riscv_cpu.c:540
200131f2:	fe842683          	lw	a3,-24(s0)
200131f6:	fd842703          	lw	a4,-40(s0)
200131fa:	87ba                	mv	a5,a4
200131fc:	0786                	slli	a5,a5,0x1
200131fe:	97ba                	add	a5,a5,a4
20013200:	078e                	slli	a5,a5,0x3
20013202:	97b6                	add	a5,a5,a3
20013204:	20012737          	lui	a4,0x20012
20013208:	f6070713          	addi	a4,a4,-160 # 20011f60 <__metal_default_interrupt_handler>
2001320c:	08e7a823          	sw	a4,144(a5)
/home/nicoladgg/wsFreedomStudio/sifive_hifive1_revb_hello/freedom-metal/src/drivers/riscv_cpu.c:542
20013210:	fe842683          	lw	a3,-24(s0)
20013214:	fd842703          	lw	a4,-40(s0)
20013218:	87ba                	mv	a5,a4
2001321a:	0786                	slli	a5,a5,0x1
2001321c:	97ba                	add	a5,a5,a4
2001321e:	078e                	slli	a5,a5,0x3
20013220:	97b6                	add	a5,a5,a3
20013222:	fd042703          	lw	a4,-48(s0)
20013226:	08e7aa23          	sw	a4,148(a5)
/home/nicoladgg/wsFreedomStudio/sifive_hifive1_revb_hello/freedom-metal/src/drivers/riscv_cpu.c:543
2001322a:	a021                	j	20013232 <__metal_driver_riscv_cpu_controller_interrupt_register+0x1d2>
/home/nicoladgg/wsFreedomStudio/sifive_hifive1_revb_hello/freedom-metal/src/drivers/riscv_cpu.c:545
2001322c:	57d1                	li	a5,-12
2001322e:	fef42623          	sw	a5,-20(s0)
/home/nicoladgg/wsFreedomStudio/sifive_hifive1_revb_hello/freedom-metal/src/drivers/riscv_cpu.c:548
20013232:	fec42783          	lw	a5,-20(s0)
/home/nicoladgg/wsFreedomStudio/sifive_hifive1_revb_hello/freedom-metal/src/drivers/riscv_cpu.c:549
20013236:	853e                	mv	a0,a5
20013238:	50b2                	lw	ra,44(sp)
2001323a:	5422                	lw	s0,40(sp)
2001323c:	6145                	addi	sp,sp,48
2001323e:	8082                	ret

20013240 <__metal_driver_riscv_cpu_controller_interrupt_enable>:
__metal_driver_riscv_cpu_controller_interrupt_enable():
/home/nicoladgg/wsFreedomStudio/sifive_hifive1_revb_hello/freedom-metal/src/drivers/riscv_cpu.c:552
20013240:	1101                	addi	sp,sp,-32
20013242:	ce06                	sw	ra,28(sp)
20013244:	cc22                	sw	s0,24(sp)
20013246:	1000                	addi	s0,sp,32
20013248:	fea42623          	sw	a0,-20(s0)
2001324c:	feb42423          	sw	a1,-24(s0)
/home/nicoladgg/wsFreedomStudio/sifive_hifive1_revb_hello/freedom-metal/src/drivers/riscv_cpu.c:553
20013250:	fe842783          	lw	a5,-24(s0)
20013254:	4605                	li	a2,1
20013256:	85be                	mv	a1,a5
20013258:	fec42503          	lw	a0,-20(s0)
2001325c:	3921                	jal	20012e74 <__metal_local_interrupt_enable>
2001325e:	87aa                	mv	a5,a0
/home/nicoladgg/wsFreedomStudio/sifive_hifive1_revb_hello/freedom-metal/src/drivers/riscv_cpu.c:554
20013260:	853e                	mv	a0,a5
20013262:	40f2                	lw	ra,28(sp)
20013264:	4462                	lw	s0,24(sp)
20013266:	6105                	addi	sp,sp,32
20013268:	8082                	ret

2001326a <__metal_driver_riscv_cpu_controller_interrupt_disable>:
__metal_driver_riscv_cpu_controller_interrupt_disable():
/home/nicoladgg/wsFreedomStudio/sifive_hifive1_revb_hello/freedom-metal/src/drivers/riscv_cpu.c:557
2001326a:	1101                	addi	sp,sp,-32
2001326c:	ce06                	sw	ra,28(sp)
2001326e:	cc22                	sw	s0,24(sp)
20013270:	1000                	addi	s0,sp,32
20013272:	fea42623          	sw	a0,-20(s0)
20013276:	feb42423          	sw	a1,-24(s0)
/home/nicoladgg/wsFreedomStudio/sifive_hifive1_revb_hello/freedom-metal/src/drivers/riscv_cpu.c:558
2001327a:	fe842783          	lw	a5,-24(s0)
2001327e:	4601                	li	a2,0
20013280:	85be                	mv	a1,a5
20013282:	fec42503          	lw	a0,-20(s0)
20013286:	36fd                	jal	20012e74 <__metal_local_interrupt_enable>
20013288:	87aa                	mv	a5,a0
/home/nicoladgg/wsFreedomStudio/sifive_hifive1_revb_hello/freedom-metal/src/drivers/riscv_cpu.c:559
2001328a:	853e                	mv	a0,a5
2001328c:	40f2                	lw	ra,28(sp)
2001328e:	4462                	lw	s0,24(sp)
20013290:	6105                	addi	sp,sp,32
20013292:	8082                	ret

20013294 <__metal_driver_riscv_cpu_controller_get_vector_mode>:
__metal_driver_riscv_cpu_controller_get_vector_mode():
/home/nicoladgg/wsFreedomStudio/sifive_hifive1_revb_hello/freedom-metal/src/drivers/riscv_cpu.c:591
20013294:	1101                	addi	sp,sp,-32
20013296:	ce06                	sw	ra,28(sp)
20013298:	cc22                	sw	s0,24(sp)
2001329a:	1000                	addi	s0,sp,32
2001329c:	fea42623          	sw	a0,-20(s0)
/home/nicoladgg/wsFreedomStudio/sifive_hifive1_revb_hello/freedom-metal/src/drivers/riscv_cpu.c:592
200132a0:	a73ff0ef          	jal	ra,20012d12 <__metal_controller_interrupt_vector_mode>
200132a4:	87aa                	mv	a5,a0
/home/nicoladgg/wsFreedomStudio/sifive_hifive1_revb_hello/freedom-metal/src/drivers/riscv_cpu.c:593
200132a6:	853e                	mv	a0,a5
200132a8:	40f2                	lw	ra,28(sp)
200132aa:	4462                	lw	s0,24(sp)
200132ac:	6105                	addi	sp,sp,32
200132ae:	8082                	ret

200132b0 <__metal_driver_riscv_cpu_controller_set_vector_mode>:
__metal_driver_riscv_cpu_controller_set_vector_mode():
/home/nicoladgg/wsFreedomStudio/sifive_hifive1_revb_hello/freedom-metal/src/drivers/riscv_cpu.c:596
200132b0:	1101                	addi	sp,sp,-32
200132b2:	ce06                	sw	ra,28(sp)
200132b4:	cc22                	sw	s0,24(sp)
200132b6:	1000                	addi	s0,sp,32
200132b8:	fea42623          	sw	a0,-20(s0)
200132bc:	feb42423          	sw	a1,-24(s0)
/home/nicoladgg/wsFreedomStudio/sifive_hifive1_revb_hello/freedom-metal/src/drivers/riscv_cpu.c:598
200132c0:	fe842783          	lw	a5,-24(s0)
200132c4:	eb99                	bnez	a5,200132da <__metal_driver_riscv_cpu_controller_set_vector_mode+0x2a>
/home/nicoladgg/wsFreedomStudio/sifive_hifive1_revb_hello/freedom-metal/src/drivers/riscv_cpu.c:599
200132c6:	200127b7          	lui	a5,0x20012
200132ca:	20078593          	addi	a1,a5,512 # 20012200 <__metal_exception_handler>
200132ce:	fe842503          	lw	a0,-24(s0)
200132d2:	a99ff0ef          	jal	ra,20012d6a <__metal_controller_interrupt_vector>
/home/nicoladgg/wsFreedomStudio/sifive_hifive1_revb_hello/freedom-metal/src/drivers/riscv_cpu.c:601
200132d6:	4781                	li	a5,0
200132d8:	a00d                	j	200132fa <__metal_driver_riscv_cpu_controller_set_vector_mode+0x4a>
/home/nicoladgg/wsFreedomStudio/sifive_hifive1_revb_hello/freedom-metal/src/drivers/riscv_cpu.c:603
200132da:	fe842703          	lw	a4,-24(s0)
200132de:	4785                	li	a5,1
200132e0:	00f71c63          	bne	a4,a5,200132f8 <__metal_driver_riscv_cpu_controller_set_vector_mode+0x48>
/home/nicoladgg/wsFreedomStudio/sifive_hifive1_revb_hello/freedom-metal/src/drivers/riscv_cpu.c:604
200132e4:	200147b7          	lui	a5,0x20014
200132e8:	18078593          	addi	a1,a5,384 # 20014180 <__metal_vector_table>
200132ec:	fe842503          	lw	a0,-24(s0)
200132f0:	a7bff0ef          	jal	ra,20012d6a <__metal_controller_interrupt_vector>
/home/nicoladgg/wsFreedomStudio/sifive_hifive1_revb_hello/freedom-metal/src/drivers/riscv_cpu.c:606
200132f4:	4781                	li	a5,0
200132f6:	a011                	j	200132fa <__metal_driver_riscv_cpu_controller_set_vector_mode+0x4a>
/home/nicoladgg/wsFreedomStudio/sifive_hifive1_revb_hello/freedom-metal/src/drivers/riscv_cpu.c:608
200132f8:	57fd                	li	a5,-1
/home/nicoladgg/wsFreedomStudio/sifive_hifive1_revb_hello/freedom-metal/src/drivers/riscv_cpu.c:609
200132fa:	853e                	mv	a0,a5
200132fc:	40f2                	lw	ra,28(sp)
200132fe:	4462                	lw	s0,24(sp)
20013300:	6105                	addi	sp,sp,32
20013302:	8082                	ret

20013304 <__metal_driver_riscv_cpu_controller_command_request>:
__metal_driver_riscv_cpu_controller_command_request():
/home/nicoladgg/wsFreedomStudio/sifive_hifive1_revb_hello/freedom-metal/src/drivers/riscv_cpu.c:612
20013304:	1101                	addi	sp,sp,-32
20013306:	ce22                	sw	s0,28(sp)
20013308:	1000                	addi	s0,sp,32
2001330a:	fea42623          	sw	a0,-20(s0)
2001330e:	feb42423          	sw	a1,-24(s0)
20013312:	fec42223          	sw	a2,-28(s0)
/home/nicoladgg/wsFreedomStudio/sifive_hifive1_revb_hello/freedom-metal/src/drivers/riscv_cpu.c:615
20013316:	4781                	li	a5,0
/home/nicoladgg/wsFreedomStudio/sifive_hifive1_revb_hello/freedom-metal/src/drivers/riscv_cpu.c:616
20013318:	853e                	mv	a0,a5
2001331a:	4472                	lw	s0,28(sp)
2001331c:	6105                	addi	sp,sp,32
2001331e:	8082                	ret

20013320 <__metal_driver_cpu_mcycle_get>:
__metal_driver_cpu_mcycle_get():
/home/nicoladgg/wsFreedomStudio/sifive_hifive1_revb_hello/freedom-metal/src/drivers/riscv_cpu.c:620
20013320:	7139                	addi	sp,sp,-64
20013322:	de22                	sw	s0,60(sp)
20013324:	0080                	addi	s0,sp,64
20013326:	fca42623          	sw	a0,-52(s0)
/home/nicoladgg/wsFreedomStudio/sifive_hifive1_revb_hello/freedom-metal/src/drivers/riscv_cpu.c:621
2001332a:	4501                	li	a0,0
2001332c:	4581                	li	a1,0
2001332e:	fea42423          	sw	a0,-24(s0)
20013332:	feb42623          	sw	a1,-20(s0)
/home/nicoladgg/wsFreedomStudio/sifive_hifive1_revb_hello/freedom-metal/src/drivers/riscv_cpu.c:627 (discriminator 1)
20013336:	b80025f3          	csrr	a1,mcycleh
2001333a:	feb42223          	sw	a1,-28(s0)
/home/nicoladgg/wsFreedomStudio/sifive_hifive1_revb_hello/freedom-metal/src/drivers/riscv_cpu.c:628 (discriminator 1)
2001333e:	b00025f3          	csrr	a1,mcycle
20013342:	feb42023          	sw	a1,-32(s0)
/home/nicoladgg/wsFreedomStudio/sifive_hifive1_revb_hello/freedom-metal/src/drivers/riscv_cpu.c:629 (discriminator 1)
20013346:	b80025f3          	csrr	a1,mcycleh
2001334a:	fcb42e23          	sw	a1,-36(s0)
/home/nicoladgg/wsFreedomStudio/sifive_hifive1_revb_hello/freedom-metal/src/drivers/riscv_cpu.c:632 (discriminator 1)
2001334e:	fe442503          	lw	a0,-28(s0)
20013352:	fdc42583          	lw	a1,-36(s0)
20013356:	feb510e3          	bne	a0,a1,20013336 <__metal_driver_cpu_mcycle_get+0x16>
/home/nicoladgg/wsFreedomStudio/sifive_hifive1_revb_hello/freedom-metal/src/drivers/riscv_cpu.c:634
2001335a:	fe442583          	lw	a1,-28(s0)
2001335e:	882e                	mv	a6,a1
20013360:	4881                	li	a7,0
20013362:	00081793          	slli	a5,a6,0x0
20013366:	4701                	li	a4,0
20013368:	fe042583          	lw	a1,-32(s0)
2001336c:	862e                	mv	a2,a1
2001336e:	4681                	li	a3,0
20013370:	00c765b3          	or	a1,a4,a2
20013374:	feb42423          	sw	a1,-24(s0)
20013378:	8fd5                	or	a5,a5,a3
2001337a:	fef42623          	sw	a5,-20(s0)
/home/nicoladgg/wsFreedomStudio/sifive_hifive1_revb_hello/freedom-metal/src/drivers/riscv_cpu.c:639
2001337e:	fe842703          	lw	a4,-24(s0)
20013382:	fec42783          	lw	a5,-20(s0)
/home/nicoladgg/wsFreedomStudio/sifive_hifive1_revb_hello/freedom-metal/src/drivers/riscv_cpu.c:640
20013386:	853a                	mv	a0,a4
20013388:	85be                	mv	a1,a5
2001338a:	5472                	lw	s0,60(sp)
2001338c:	6121                	addi	sp,sp,64
2001338e:	8082                	ret

20013390 <__metal_driver_cpu_timebase_get>:
__metal_driver_cpu_timebase_get():
/home/nicoladgg/wsFreedomStudio/sifive_hifive1_revb_hello/freedom-metal/src/drivers/riscv_cpu.c:642
20013390:	7179                	addi	sp,sp,-48
20013392:	d606                	sw	ra,44(sp)
20013394:	d422                	sw	s0,40(sp)
20013396:	d24a                	sw	s2,36(sp)
20013398:	d04e                	sw	s3,32(sp)
2001339a:	1800                	addi	s0,sp,48
2001339c:	fca42e23          	sw	a0,-36(s0)
/home/nicoladgg/wsFreedomStudio/sifive_hifive1_revb_hello/freedom-metal/src/drivers/riscv_cpu.c:644
200133a0:	fdc42783          	lw	a5,-36(s0)
200133a4:	e781                	bnez	a5,200133ac <__metal_driver_cpu_timebase_get+0x1c>
/home/nicoladgg/wsFreedomStudio/sifive_hifive1_revb_hello/freedom-metal/src/drivers/riscv_cpu.c:645
200133a6:	4901                	li	s2,0
200133a8:	4981                	li	s3,0
200133aa:	a821                	j	200133c2 <__metal_driver_cpu_timebase_get+0x32>
/home/nicoladgg/wsFreedomStudio/sifive_hifive1_revb_hello/freedom-metal/src/drivers/riscv_cpu.c:648
200133ac:	fdc42503          	lw	a0,-36(s0)
200133b0:	9b7fe0ef          	jal	ra,20011d66 <__metal_driver_cpu_timebase>
200133b4:	fea42623          	sw	a0,-20(s0)
/home/nicoladgg/wsFreedomStudio/sifive_hifive1_revb_hello/freedom-metal/src/drivers/riscv_cpu.c:649
200133b8:	fec42783          	lw	a5,-20(s0)
200133bc:	893e                	mv	s2,a5
200133be:	87fd                	srai	a5,a5,0x1f
200133c0:	89be                	mv	s3,a5
/home/nicoladgg/wsFreedomStudio/sifive_hifive1_revb_hello/freedom-metal/src/drivers/riscv_cpu.c:650
200133c2:	874a                	mv	a4,s2
200133c4:	87ce                	mv	a5,s3
200133c6:	853a                	mv	a0,a4
200133c8:	85be                	mv	a1,a5
200133ca:	50b2                	lw	ra,44(sp)
200133cc:	5422                	lw	s0,40(sp)
200133ce:	5912                	lw	s2,36(sp)
200133d0:	5982                	lw	s3,32(sp)
200133d2:	6145                	addi	sp,sp,48
200133d4:	8082                	ret

200133d6 <__metal_driver_cpu_mtime_get>:
__metal_driver_cpu_mtime_get():
/home/nicoladgg/wsFreedomStudio/sifive_hifive1_revb_hello/freedom-metal/src/drivers/riscv_cpu.c:652
200133d6:	7179                	addi	sp,sp,-48
200133d8:	d606                	sw	ra,44(sp)
200133da:	d422                	sw	s0,40(sp)
200133dc:	1800                	addi	s0,sp,48
200133de:	fca42e23          	sw	a0,-36(s0)
/home/nicoladgg/wsFreedomStudio/sifive_hifive1_revb_hello/freedom-metal/src/drivers/riscv_cpu.c:653
200133e2:	4781                	li	a5,0
200133e4:	4801                	li	a6,0
200133e6:	fef42023          	sw	a5,-32(s0)
200133ea:	ff042223          	sw	a6,-28(s0)
/home/nicoladgg/wsFreedomStudio/sifive_hifive1_revb_hello/freedom-metal/src/drivers/riscv_cpu.c:657
200133ee:	fdc42503          	lw	a0,-36(s0)
200133f2:	99ffe0ef          	jal	ra,20011d90 <__metal_driver_cpu_interrupt_controller>
200133f6:	fea42623          	sw	a0,-20(s0)
/home/nicoladgg/wsFreedomStudio/sifive_hifive1_revb_hello/freedom-metal/src/drivers/riscv_cpu.c:659
200133fa:	fec42783          	lw	a5,-20(s0)
200133fe:	c78d                	beqz	a5,20013428 <__metal_driver_cpu_mtime_get+0x52>
/home/nicoladgg/wsFreedomStudio/sifive_hifive1_revb_hello/freedom-metal/src/drivers/riscv_cpu.c:660
20013400:	fec42783          	lw	a5,-20(s0)
20013404:	13c7a783          	lw	a5,316(a5)
20013408:	fef42423          	sw	a5,-24(s0)
/home/nicoladgg/wsFreedomStudio/sifive_hifive1_revb_hello/freedom-metal/src/drivers/riscv_cpu.c:661
2001340c:	fe842783          	lw	a5,-24(s0)
20013410:	cf81                	beqz	a5,20013428 <__metal_driver_cpu_mtime_get+0x52>
/home/nicoladgg/wsFreedomStudio/sifive_hifive1_revb_hello/freedom-metal/src/drivers/riscv_cpu.c:662
20013412:	fe842783          	lw	a5,-24(s0)
20013416:	439c                	lw	a5,0(a5)
20013418:	47f8                	lw	a4,76(a5)
2001341a:	fe040793          	addi	a5,s0,-32
2001341e:	863e                	mv	a2,a5
20013420:	4585                	li	a1,1
20013422:	fe842503          	lw	a0,-24(s0)
20013426:	9702                	jalr	a4
/home/nicoladgg/wsFreedomStudio/sifive_hifive1_revb_hello/freedom-metal/src/drivers/riscv_cpu.c:666
20013428:	fe042703          	lw	a4,-32(s0)
2001342c:	fe442783          	lw	a5,-28(s0)
/home/nicoladgg/wsFreedomStudio/sifive_hifive1_revb_hello/freedom-metal/src/drivers/riscv_cpu.c:667
20013430:	853a                	mv	a0,a4
20013432:	85be                	mv	a1,a5
20013434:	50b2                	lw	ra,44(sp)
20013436:	5422                	lw	s0,40(sp)
20013438:	6145                	addi	sp,sp,48
2001343a:	8082                	ret

2001343c <__metal_driver_cpu_mtimecmp_set>:
__metal_driver_cpu_mtimecmp_set():
/home/nicoladgg/wsFreedomStudio/sifive_hifive1_revb_hello/freedom-metal/src/drivers/riscv_cpu.c:670
2001343c:	7179                	addi	sp,sp,-48
2001343e:	d606                	sw	ra,44(sp)
20013440:	d422                	sw	s0,40(sp)
20013442:	d226                	sw	s1,36(sp)
20013444:	1800                	addi	s0,sp,48
20013446:	fca42e23          	sw	a0,-36(s0)
2001344a:	fcb42823          	sw	a1,-48(s0)
2001344e:	fcc42a23          	sw	a2,-44(s0)
/home/nicoladgg/wsFreedomStudio/sifive_hifive1_revb_hello/freedom-metal/src/drivers/riscv_cpu.c:671
20013452:	57fd                	li	a5,-1
20013454:	fef42623          	sw	a5,-20(s0)
/home/nicoladgg/wsFreedomStudio/sifive_hifive1_revb_hello/freedom-metal/src/drivers/riscv_cpu.c:675
20013458:	fdc42503          	lw	a0,-36(s0)
2001345c:	935fe0ef          	jal	ra,20011d90 <__metal_driver_cpu_interrupt_controller>
20013460:	fea42423          	sw	a0,-24(s0)
/home/nicoladgg/wsFreedomStudio/sifive_hifive1_revb_hello/freedom-metal/src/drivers/riscv_cpu.c:677
20013464:	fe842783          	lw	a5,-24(s0)
20013468:	cf8d                	beqz	a5,200134a2 <__metal_driver_cpu_mtimecmp_set+0x66>
/home/nicoladgg/wsFreedomStudio/sifive_hifive1_revb_hello/freedom-metal/src/drivers/riscv_cpu.c:678
2001346a:	fe842783          	lw	a5,-24(s0)
2001346e:	13c7a783          	lw	a5,316(a5)
20013472:	fef42223          	sw	a5,-28(s0)
/home/nicoladgg/wsFreedomStudio/sifive_hifive1_revb_hello/freedom-metal/src/drivers/riscv_cpu.c:679
20013476:	fe442783          	lw	a5,-28(s0)
2001347a:	c785                	beqz	a5,200134a2 <__metal_driver_cpu_mtimecmp_set+0x66>
/home/nicoladgg/wsFreedomStudio/sifive_hifive1_revb_hello/freedom-metal/src/drivers/riscv_cpu.c:680
2001347c:	fe442783          	lw	a5,-28(s0)
20013480:	439c                	lw	a5,0(a5)
20013482:	4ba4                	lw	s1,80(a5)
20013484:	fdc42503          	lw	a0,-36(s0)
20013488:	8bbfe0ef          	jal	ra,20011d42 <__metal_driver_cpu_hartid>
2001348c:	87aa                	mv	a5,a0
2001348e:	fd042603          	lw	a2,-48(s0)
20013492:	fd442683          	lw	a3,-44(s0)
20013496:	85be                	mv	a1,a5
20013498:	fe442503          	lw	a0,-28(s0)
2001349c:	9482                	jalr	s1
2001349e:	fea42623          	sw	a0,-20(s0)
/home/nicoladgg/wsFreedomStudio/sifive_hifive1_revb_hello/freedom-metal/src/drivers/riscv_cpu.c:684
200134a2:	fec42783          	lw	a5,-20(s0)
/home/nicoladgg/wsFreedomStudio/sifive_hifive1_revb_hello/freedom-metal/src/drivers/riscv_cpu.c:685
200134a6:	853e                	mv	a0,a5
200134a8:	50b2                	lw	ra,44(sp)
200134aa:	5422                	lw	s0,40(sp)
200134ac:	5492                	lw	s1,36(sp)
200134ae:	6145                	addi	sp,sp,48
200134b0:	8082                	ret

200134b2 <__metal_driver_cpu_timer_controller_interrupt>:
__metal_driver_cpu_timer_controller_interrupt():
/home/nicoladgg/wsFreedomStudio/sifive_hifive1_revb_hello/freedom-metal/src/drivers/riscv_cpu.c:688
200134b2:	1101                	addi	sp,sp,-32
200134b4:	ce22                	sw	s0,28(sp)
200134b6:	1000                	addi	s0,sp,32
200134b8:	fea42623          	sw	a0,-20(s0)
/home/nicoladgg/wsFreedomStudio/sifive_hifive1_revb_hello/freedom-metal/src/drivers/riscv_cpu.c:690
200134bc:	81018793          	addi	a5,gp,-2032 # 80000498 <__metal_dt_clint_2000000>
/home/nicoladgg/wsFreedomStudio/sifive_hifive1_revb_hello/freedom-metal/src/drivers/riscv_cpu.c:699
200134c0:	853e                	mv	a0,a5
200134c2:	4472                	lw	s0,28(sp)
200134c4:	6105                	addi	sp,sp,32
200134c6:	8082                	ret

200134c8 <__metal_driver_cpu_get_timer_interrupt_id>:
__metal_driver_cpu_get_timer_interrupt_id():
/home/nicoladgg/wsFreedomStudio/sifive_hifive1_revb_hello/freedom-metal/src/drivers/riscv_cpu.c:701
200134c8:	1101                	addi	sp,sp,-32
200134ca:	ce22                	sw	s0,28(sp)
200134cc:	1000                	addi	s0,sp,32
200134ce:	fea42623          	sw	a0,-20(s0)
/home/nicoladgg/wsFreedomStudio/sifive_hifive1_revb_hello/freedom-metal/src/drivers/riscv_cpu.c:702
200134d2:	479d                	li	a5,7
/home/nicoladgg/wsFreedomStudio/sifive_hifive1_revb_hello/freedom-metal/src/drivers/riscv_cpu.c:703
200134d4:	853e                	mv	a0,a5
200134d6:	4472                	lw	s0,28(sp)
200134d8:	6105                	addi	sp,sp,32
200134da:	8082                	ret

200134dc <__metal_driver_cpu_sw_controller_interrupt>:
__metal_driver_cpu_sw_controller_interrupt():
/home/nicoladgg/wsFreedomStudio/sifive_hifive1_revb_hello/freedom-metal/src/drivers/riscv_cpu.c:706
200134dc:	1101                	addi	sp,sp,-32
200134de:	ce22                	sw	s0,28(sp)
200134e0:	1000                	addi	s0,sp,32
200134e2:	fea42623          	sw	a0,-20(s0)
/home/nicoladgg/wsFreedomStudio/sifive_hifive1_revb_hello/freedom-metal/src/drivers/riscv_cpu.c:708
200134e6:	81018793          	addi	a5,gp,-2032 # 80000498 <__metal_dt_clint_2000000>
/home/nicoladgg/wsFreedomStudio/sifive_hifive1_revb_hello/freedom-metal/src/drivers/riscv_cpu.c:717
200134ea:	853e                	mv	a0,a5
200134ec:	4472                	lw	s0,28(sp)
200134ee:	6105                	addi	sp,sp,32
200134f0:	8082                	ret

200134f2 <__metal_driver_cpu_get_sw_interrupt_id>:
__metal_driver_cpu_get_sw_interrupt_id():
/home/nicoladgg/wsFreedomStudio/sifive_hifive1_revb_hello/freedom-metal/src/drivers/riscv_cpu.c:719
200134f2:	1101                	addi	sp,sp,-32
200134f4:	ce22                	sw	s0,28(sp)
200134f6:	1000                	addi	s0,sp,32
200134f8:	fea42623          	sw	a0,-20(s0)
/home/nicoladgg/wsFreedomStudio/sifive_hifive1_revb_hello/freedom-metal/src/drivers/riscv_cpu.c:720
200134fc:	478d                	li	a5,3
/home/nicoladgg/wsFreedomStudio/sifive_hifive1_revb_hello/freedom-metal/src/drivers/riscv_cpu.c:721
200134fe:	853e                	mv	a0,a5
20013500:	4472                	lw	s0,28(sp)
20013502:	6105                	addi	sp,sp,32
20013504:	8082                	ret

20013506 <__metal_driver_cpu_set_sw_ipi>:
__metal_driver_cpu_set_sw_ipi():
/home/nicoladgg/wsFreedomStudio/sifive_hifive1_revb_hello/freedom-metal/src/drivers/riscv_cpu.c:723
20013506:	7179                	addi	sp,sp,-48
20013508:	d606                	sw	ra,44(sp)
2001350a:	d422                	sw	s0,40(sp)
2001350c:	1800                	addi	s0,sp,48
2001350e:	fca42e23          	sw	a0,-36(s0)
20013512:	fcb42c23          	sw	a1,-40(s0)
/home/nicoladgg/wsFreedomStudio/sifive_hifive1_revb_hello/freedom-metal/src/drivers/riscv_cpu.c:724
20013516:	57fd                	li	a5,-1
20013518:	fef42623          	sw	a5,-20(s0)
/home/nicoladgg/wsFreedomStudio/sifive_hifive1_revb_hello/freedom-metal/src/drivers/riscv_cpu.c:728
2001351c:	fdc42503          	lw	a0,-36(s0)
20013520:	871fe0ef          	jal	ra,20011d90 <__metal_driver_cpu_interrupt_controller>
20013524:	fea42423          	sw	a0,-24(s0)
/home/nicoladgg/wsFreedomStudio/sifive_hifive1_revb_hello/freedom-metal/src/drivers/riscv_cpu.c:730
20013528:	fe842783          	lw	a5,-24(s0)
2001352c:	c79d                	beqz	a5,2001355a <__metal_driver_cpu_set_sw_ipi+0x54>
/home/nicoladgg/wsFreedomStudio/sifive_hifive1_revb_hello/freedom-metal/src/drivers/riscv_cpu.c:731
2001352e:	fe842783          	lw	a5,-24(s0)
20013532:	0dc7a783          	lw	a5,220(a5)
20013536:	fef42223          	sw	a5,-28(s0)
/home/nicoladgg/wsFreedomStudio/sifive_hifive1_revb_hello/freedom-metal/src/drivers/riscv_cpu.c:732
2001353a:	fe442783          	lw	a5,-28(s0)
2001353e:	cf91                	beqz	a5,2001355a <__metal_driver_cpu_set_sw_ipi+0x54>
/home/nicoladgg/wsFreedomStudio/sifive_hifive1_revb_hello/freedom-metal/src/drivers/riscv_cpu.c:733
20013540:	fe442783          	lw	a5,-28(s0)
20013544:	439c                	lw	a5,0(a5)
20013546:	47f8                	lw	a4,76(a5)
20013548:	fd840793          	addi	a5,s0,-40
2001354c:	863e                	mv	a2,a5
2001354e:	458d                	li	a1,3
20013550:	fe442503          	lw	a0,-28(s0)
20013554:	9702                	jalr	a4
20013556:	fea42623          	sw	a0,-20(s0)
/home/nicoladgg/wsFreedomStudio/sifive_hifive1_revb_hello/freedom-metal/src/drivers/riscv_cpu.c:737
2001355a:	fec42783          	lw	a5,-20(s0)
/home/nicoladgg/wsFreedomStudio/sifive_hifive1_revb_hello/freedom-metal/src/drivers/riscv_cpu.c:738
2001355e:	853e                	mv	a0,a5
20013560:	50b2                	lw	ra,44(sp)
20013562:	5422                	lw	s0,40(sp)
20013564:	6145                	addi	sp,sp,48
20013566:	8082                	ret

20013568 <__metal_driver_cpu_clear_sw_ipi>:
__metal_driver_cpu_clear_sw_ipi():
/home/nicoladgg/wsFreedomStudio/sifive_hifive1_revb_hello/freedom-metal/src/drivers/riscv_cpu.c:740
20013568:	7179                	addi	sp,sp,-48
2001356a:	d606                	sw	ra,44(sp)
2001356c:	d422                	sw	s0,40(sp)
2001356e:	1800                	addi	s0,sp,48
20013570:	fca42e23          	sw	a0,-36(s0)
20013574:	fcb42c23          	sw	a1,-40(s0)
/home/nicoladgg/wsFreedomStudio/sifive_hifive1_revb_hello/freedom-metal/src/drivers/riscv_cpu.c:741
20013578:	57fd                	li	a5,-1
2001357a:	fef42623          	sw	a5,-20(s0)
/home/nicoladgg/wsFreedomStudio/sifive_hifive1_revb_hello/freedom-metal/src/drivers/riscv_cpu.c:745
2001357e:	fdc42503          	lw	a0,-36(s0)
20013582:	80ffe0ef          	jal	ra,20011d90 <__metal_driver_cpu_interrupt_controller>
20013586:	fea42423          	sw	a0,-24(s0)
/home/nicoladgg/wsFreedomStudio/sifive_hifive1_revb_hello/freedom-metal/src/drivers/riscv_cpu.c:747
2001358a:	fe842783          	lw	a5,-24(s0)
2001358e:	c79d                	beqz	a5,200135bc <__metal_driver_cpu_clear_sw_ipi+0x54>
/home/nicoladgg/wsFreedomStudio/sifive_hifive1_revb_hello/freedom-metal/src/drivers/riscv_cpu.c:748
20013590:	fe842783          	lw	a5,-24(s0)
20013594:	0dc7a783          	lw	a5,220(a5)
20013598:	fef42223          	sw	a5,-28(s0)
/home/nicoladgg/wsFreedomStudio/sifive_hifive1_revb_hello/freedom-metal/src/drivers/riscv_cpu.c:749
2001359c:	fe442783          	lw	a5,-28(s0)
200135a0:	cf91                	beqz	a5,200135bc <__metal_driver_cpu_clear_sw_ipi+0x54>
/home/nicoladgg/wsFreedomStudio/sifive_hifive1_revb_hello/freedom-metal/src/drivers/riscv_cpu.c:750
200135a2:	fe442783          	lw	a5,-28(s0)
200135a6:	439c                	lw	a5,0(a5)
200135a8:	47f8                	lw	a4,76(a5)
200135aa:	fd840793          	addi	a5,s0,-40
200135ae:	863e                	mv	a2,a5
200135b0:	4589                	li	a1,2
200135b2:	fe442503          	lw	a0,-28(s0)
200135b6:	9702                	jalr	a4
200135b8:	fea42623          	sw	a0,-20(s0)
/home/nicoladgg/wsFreedomStudio/sifive_hifive1_revb_hello/freedom-metal/src/drivers/riscv_cpu.c:754
200135bc:	fec42783          	lw	a5,-20(s0)
/home/nicoladgg/wsFreedomStudio/sifive_hifive1_revb_hello/freedom-metal/src/drivers/riscv_cpu.c:755
200135c0:	853e                	mv	a0,a5
200135c2:	50b2                	lw	ra,44(sp)
200135c4:	5422                	lw	s0,40(sp)
200135c6:	6145                	addi	sp,sp,48
200135c8:	8082                	ret

200135ca <__metal_driver_cpu_get_msip>:
__metal_driver_cpu_get_msip():
/home/nicoladgg/wsFreedomStudio/sifive_hifive1_revb_hello/freedom-metal/src/drivers/riscv_cpu.c:757
200135ca:	7179                	addi	sp,sp,-48
200135cc:	d606                	sw	ra,44(sp)
200135ce:	d422                	sw	s0,40(sp)
200135d0:	1800                	addi	s0,sp,48
200135d2:	fca42e23          	sw	a0,-36(s0)
200135d6:	fcb42c23          	sw	a1,-40(s0)
/home/nicoladgg/wsFreedomStudio/sifive_hifive1_revb_hello/freedom-metal/src/drivers/riscv_cpu.c:758
200135da:	fe042623          	sw	zero,-20(s0)
/home/nicoladgg/wsFreedomStudio/sifive_hifive1_revb_hello/freedom-metal/src/drivers/riscv_cpu.c:762
200135de:	fdc42503          	lw	a0,-36(s0)
200135e2:	faefe0ef          	jal	ra,20011d90 <__metal_driver_cpu_interrupt_controller>
200135e6:	fea42423          	sw	a0,-24(s0)
/home/nicoladgg/wsFreedomStudio/sifive_hifive1_revb_hello/freedom-metal/src/drivers/riscv_cpu.c:764
200135ea:	fe842783          	lw	a5,-24(s0)
200135ee:	c79d                	beqz	a5,2001361c <__metal_driver_cpu_get_msip+0x52>
/home/nicoladgg/wsFreedomStudio/sifive_hifive1_revb_hello/freedom-metal/src/drivers/riscv_cpu.c:765
200135f0:	fe842783          	lw	a5,-24(s0)
200135f4:	0dc7a783          	lw	a5,220(a5)
200135f8:	fef42223          	sw	a5,-28(s0)
/home/nicoladgg/wsFreedomStudio/sifive_hifive1_revb_hello/freedom-metal/src/drivers/riscv_cpu.c:766
200135fc:	fe442783          	lw	a5,-28(s0)
20013600:	cf91                	beqz	a5,2001361c <__metal_driver_cpu_get_msip+0x52>
/home/nicoladgg/wsFreedomStudio/sifive_hifive1_revb_hello/freedom-metal/src/drivers/riscv_cpu.c:767
20013602:	fe442783          	lw	a5,-28(s0)
20013606:	439c                	lw	a5,0(a5)
20013608:	47f8                	lw	a4,76(a5)
2001360a:	fd840793          	addi	a5,s0,-40
2001360e:	863e                	mv	a2,a5
20013610:	4591                	li	a1,4
20013612:	fe442503          	lw	a0,-28(s0)
20013616:	9702                	jalr	a4
20013618:	fea42623          	sw	a0,-20(s0)
/home/nicoladgg/wsFreedomStudio/sifive_hifive1_revb_hello/freedom-metal/src/drivers/riscv_cpu.c:771
2001361c:	fec42783          	lw	a5,-20(s0)
/home/nicoladgg/wsFreedomStudio/sifive_hifive1_revb_hello/freedom-metal/src/drivers/riscv_cpu.c:772
20013620:	853e                	mv	a0,a5
20013622:	50b2                	lw	ra,44(sp)
20013624:	5422                	lw	s0,40(sp)
20013626:	6145                	addi	sp,sp,48
20013628:	8082                	ret

2001362a <__metal_driver_cpu_controller_interrupt>:
__metal_driver_cpu_controller_interrupt():
/home/nicoladgg/wsFreedomStudio/sifive_hifive1_revb_hello/freedom-metal/src/drivers/riscv_cpu.c:775
2001362a:	1101                	addi	sp,sp,-32
2001362c:	ce06                	sw	ra,28(sp)
2001362e:	cc22                	sw	s0,24(sp)
20013630:	1000                	addi	s0,sp,32
20013632:	fea42623          	sw	a0,-20(s0)
/home/nicoladgg/wsFreedomStudio/sifive_hifive1_revb_hello/freedom-metal/src/drivers/riscv_cpu.c:776
20013636:	fec42503          	lw	a0,-20(s0)
2001363a:	f56fe0ef          	jal	ra,20011d90 <__metal_driver_cpu_interrupt_controller>
2001363e:	87aa                	mv	a5,a0
/home/nicoladgg/wsFreedomStudio/sifive_hifive1_revb_hello/freedom-metal/src/drivers/riscv_cpu.c:777
20013640:	853e                	mv	a0,a5
20013642:	40f2                	lw	ra,28(sp)
20013644:	4462                	lw	s0,24(sp)
20013646:	6105                	addi	sp,sp,32
20013648:	8082                	ret

2001364a <__metal_driver_cpu_exception_register>:
__metal_driver_cpu_exception_register():
/home/nicoladgg/wsFreedomStudio/sifive_hifive1_revb_hello/freedom-metal/src/drivers/riscv_cpu.c:798
2001364a:	7179                	addi	sp,sp,-48
2001364c:	d606                	sw	ra,44(sp)
2001364e:	d422                	sw	s0,40(sp)
20013650:	1800                	addi	s0,sp,48
20013652:	fca42e23          	sw	a0,-36(s0)
20013656:	fcb42c23          	sw	a1,-40(s0)
2001365a:	fcc42a23          	sw	a2,-44(s0)
/home/nicoladgg/wsFreedomStudio/sifive_hifive1_revb_hello/freedom-metal/src/drivers/riscv_cpu.c:801
2001365e:	fdc42503          	lw	a0,-36(s0)
20013662:	f2efe0ef          	jal	ra,20011d90 <__metal_driver_cpu_interrupt_controller>
20013666:	fea42623          	sw	a0,-20(s0)
/home/nicoladgg/wsFreedomStudio/sifive_hifive1_revb_hello/freedom-metal/src/drivers/riscv_cpu.c:803
2001366a:	fec42783          	lw	a5,-20(s0)
2001366e:	cb99                	beqz	a5,20013684 <__metal_driver_cpu_exception_register+0x3a>
/home/nicoladgg/wsFreedomStudio/sifive_hifive1_revb_hello/freedom-metal/src/drivers/riscv_cpu.c:804
20013670:	fd442603          	lw	a2,-44(s0)
20013674:	fd842583          	lw	a1,-40(s0)
20013678:	fec42503          	lw	a0,-20(s0)
2001367c:	8b5ff0ef          	jal	ra,20012f30 <__metal_exception_register>
20013680:	87aa                	mv	a5,a0
20013682:	a011                	j	20013686 <__metal_driver_cpu_exception_register+0x3c>
/home/nicoladgg/wsFreedomStudio/sifive_hifive1_revb_hello/freedom-metal/src/drivers/riscv_cpu.c:807
20013684:	57fd                	li	a5,-1
/home/nicoladgg/wsFreedomStudio/sifive_hifive1_revb_hello/freedom-metal/src/drivers/riscv_cpu.c:808
20013686:	853e                	mv	a0,a5
20013688:	50b2                	lw	ra,44(sp)
2001368a:	5422                	lw	s0,40(sp)
2001368c:	6145                	addi	sp,sp,48
2001368e:	8082                	ret

20013690 <__metal_driver_cpu_get_instruction_length>:
__metal_driver_cpu_get_instruction_length():
/home/nicoladgg/wsFreedomStudio/sifive_hifive1_revb_hello/freedom-metal/src/drivers/riscv_cpu.c:811
20013690:	1101                	addi	sp,sp,-32
20013692:	ce22                	sw	s0,28(sp)
20013694:	1000                	addi	s0,sp,32
20013696:	fea42623          	sw	a0,-20(s0)
2001369a:	feb42423          	sw	a1,-24(s0)
/home/nicoladgg/wsFreedomStudio/sifive_hifive1_revb_hello/freedom-metal/src/drivers/riscv_cpu.c:817
2001369e:	fe842783          	lw	a5,-24(s0)
200136a2:	0007d783          	lhu	a5,0(a5)
200136a6:	0037f713          	andi	a4,a5,3
/home/nicoladgg/wsFreedomStudio/sifive_hifive1_revb_hello/freedom-metal/src/drivers/riscv_cpu.c:820
200136aa:	478d                	li	a5,3
200136ac:	00f71463          	bne	a4,a5,200136b4 <__metal_driver_cpu_get_instruction_length+0x24>
/home/nicoladgg/wsFreedomStudio/sifive_hifive1_revb_hello/freedom-metal/src/drivers/riscv_cpu.c:820 (discriminator 1)
200136b0:	4791                	li	a5,4
200136b2:	a011                	j	200136b6 <__metal_driver_cpu_get_instruction_length+0x26>
/home/nicoladgg/wsFreedomStudio/sifive_hifive1_revb_hello/freedom-metal/src/drivers/riscv_cpu.c:820 (discriminator 2)
200136b4:	4789                	li	a5,2
/home/nicoladgg/wsFreedomStudio/sifive_hifive1_revb_hello/freedom-metal/src/drivers/riscv_cpu.c:821 (discriminator 5)
200136b6:	853e                	mv	a0,a5
200136b8:	4472                	lw	s0,28(sp)
200136ba:	6105                	addi	sp,sp,32
200136bc:	8082                	ret

200136be <__metal_driver_cpu_get_exception_pc>:
__metal_driver_cpu_get_exception_pc():
/home/nicoladgg/wsFreedomStudio/sifive_hifive1_revb_hello/freedom-metal/src/drivers/riscv_cpu.c:823
200136be:	7179                	addi	sp,sp,-48
200136c0:	d622                	sw	s0,44(sp)
200136c2:	1800                	addi	s0,sp,48
200136c4:	fca42e23          	sw	a0,-36(s0)
/home/nicoladgg/wsFreedomStudio/sifive_hifive1_revb_hello/freedom-metal/src/drivers/riscv_cpu.c:825
200136c8:	341027f3          	csrr	a5,mepc
200136cc:	fef42623          	sw	a5,-20(s0)
/home/nicoladgg/wsFreedomStudio/sifive_hifive1_revb_hello/freedom-metal/src/drivers/riscv_cpu.c:826
200136d0:	fec42783          	lw	a5,-20(s0)
/home/nicoladgg/wsFreedomStudio/sifive_hifive1_revb_hello/freedom-metal/src/drivers/riscv_cpu.c:827
200136d4:	853e                	mv	a0,a5
200136d6:	5432                	lw	s0,44(sp)
200136d8:	6145                	addi	sp,sp,48
200136da:	8082                	ret

200136dc <__metal_driver_cpu_set_exception_pc>:
__metal_driver_cpu_set_exception_pc():
/home/nicoladgg/wsFreedomStudio/sifive_hifive1_revb_hello/freedom-metal/src/drivers/riscv_cpu.c:829
200136dc:	1101                	addi	sp,sp,-32
200136de:	ce22                	sw	s0,28(sp)
200136e0:	1000                	addi	s0,sp,32
200136e2:	fea42623          	sw	a0,-20(s0)
200136e6:	feb42423          	sw	a1,-24(s0)
/home/nicoladgg/wsFreedomStudio/sifive_hifive1_revb_hello/freedom-metal/src/drivers/riscv_cpu.c:830
200136ea:	fe842783          	lw	a5,-24(s0)
200136ee:	34179073          	csrw	mepc,a5
/home/nicoladgg/wsFreedomStudio/sifive_hifive1_revb_hello/freedom-metal/src/drivers/riscv_cpu.c:831
200136f2:	4781                	li	a5,0
/home/nicoladgg/wsFreedomStudio/sifive_hifive1_revb_hello/freedom-metal/src/drivers/riscv_cpu.c:832
200136f4:	853e                	mv	a0,a5
200136f6:	4472                	lw	s0,28(sp)
200136f8:	6105                	addi	sp,sp,32
200136fa:	8082                	ret

200136fc <__metal_driver_cpu_get_buserror>:
__metal_driver_cpu_get_buserror():
/home/nicoladgg/wsFreedomStudio/sifive_hifive1_revb_hello/freedom-metal/src/drivers/riscv_cpu.c:834
200136fc:	1101                	addi	sp,sp,-32
200136fe:	ce06                	sw	ra,28(sp)
20013700:	cc22                	sw	s0,24(sp)
20013702:	1000                	addi	s0,sp,32
20013704:	fea42623          	sw	a0,-20(s0)
/home/nicoladgg/wsFreedomStudio/sifive_hifive1_revb_hello/freedom-metal/src/drivers/riscv_cpu.c:835
20013708:	fec42503          	lw	a0,-20(s0)
2001370c:	eaefe0ef          	jal	ra,20011dba <__metal_driver_cpu_buserror>
20013710:	87aa                	mv	a5,a0
/home/nicoladgg/wsFreedomStudio/sifive_hifive1_revb_hello/freedom-metal/src/drivers/riscv_cpu.c:836
20013712:	853e                	mv	a0,a5
20013714:	40f2                	lw	ra,28(sp)
20013716:	4462                	lw	s0,24(sp)
20013718:	6105                	addi	sp,sp,32
2001371a:	8082                	ret

2001371c <__metal_driver_sifive_fe310_g000_hfrosc_ref>:
__metal_driver_sifive_fe310_g000_hfrosc_ref():
/home/nicoladgg/wsFreedomStudio/sifive_hifive1_revb_hello/bsp/build/debug/./metal/machine.h:1242
2001371c:	1101                	addi	sp,sp,-32
2001371e:	ce22                	sw	s0,28(sp)
20013720:	1000                	addi	s0,sp,32
20013722:	fea42623          	sw	a0,-20(s0)
/home/nicoladgg/wsFreedomStudio/sifive_hifive1_revb_hello/bsp/build/debug/./metal/machine.h:1243
20013726:	800007b7          	lui	a5,0x80000
2001372a:	06c78793          	addi	a5,a5,108 # 8000006c <__global_pointer$+0xfffff3e4>
/home/nicoladgg/wsFreedomStudio/sifive_hifive1_revb_hello/bsp/build/debug/./metal/machine.h:1244
2001372e:	853e                	mv	a0,a5
20013730:	4472                	lw	s0,28(sp)
20013732:	6105                	addi	sp,sp,32
20013734:	8082                	ret

20013736 <__metal_driver_sifive_fe310_g000_hfrosc_config_base>:
__metal_driver_sifive_fe310_g000_hfrosc_config_base():
/home/nicoladgg/wsFreedomStudio/sifive_hifive1_revb_hello/bsp/build/debug/./metal/machine.h:1247
20013736:	1101                	addi	sp,sp,-32
20013738:	ce22                	sw	s0,28(sp)
2001373a:	1000                	addi	s0,sp,32
2001373c:	fea42623          	sw	a0,-20(s0)
/home/nicoladgg/wsFreedomStudio/sifive_hifive1_revb_hello/bsp/build/debug/./metal/machine.h:1248
20013740:	82018793          	addi	a5,gp,-2016 # 800004a8 <__metal_dt_prci_10008000>
/home/nicoladgg/wsFreedomStudio/sifive_hifive1_revb_hello/bsp/build/debug/./metal/machine.h:1249
20013744:	853e                	mv	a0,a5
20013746:	4472                	lw	s0,28(sp)
20013748:	6105                	addi	sp,sp,32
2001374a:	8082                	ret

2001374c <__metal_driver_sifive_fe310_g000_hfrosc_config_offset>:
__metal_driver_sifive_fe310_g000_hfrosc_config_offset():
/home/nicoladgg/wsFreedomStudio/sifive_hifive1_revb_hello/bsp/build/debug/./metal/machine.h:1257
2001374c:	1101                	addi	sp,sp,-32
2001374e:	ce22                	sw	s0,28(sp)
20013750:	1000                	addi	s0,sp,32
20013752:	fea42623          	sw	a0,-20(s0)
/home/nicoladgg/wsFreedomStudio/sifive_hifive1_revb_hello/bsp/build/debug/./metal/machine.h:1258
20013756:	4781                	li	a5,0
/home/nicoladgg/wsFreedomStudio/sifive_hifive1_revb_hello/bsp/build/debug/./metal/machine.h:1259
20013758:	853e                	mv	a0,a5
2001375a:	4472                	lw	s0,28(sp)
2001375c:	6105                	addi	sp,sp,32
2001375e:	8082                	ret

20013760 <__metal_driver_sifive_fe310_g000_prci_vtable>:
__metal_driver_sifive_fe310_g000_prci_vtable():
/home/nicoladgg/wsFreedomStudio/sifive_hifive1_revb_hello/bsp/build/debug/./metal/machine.h:1374
20013760:	1141                	addi	sp,sp,-16
20013762:	c622                	sw	s0,12(sp)
20013764:	0800                	addi	s0,sp,16
/home/nicoladgg/wsFreedomStudio/sifive_hifive1_revb_hello/bsp/build/debug/./metal/machine.h:1375
20013766:	200117b7          	lui	a5,0x20011
2001376a:	d8478793          	addi	a5,a5,-636 # 20010d84 <__metal_driver_vtable_sifive_fe310_g000_prci>
/home/nicoladgg/wsFreedomStudio/sifive_hifive1_revb_hello/bsp/build/debug/./metal/machine.h:1376
2001376e:	853e                	mv	a0,a5
20013770:	4432                	lw	s0,12(sp)
20013772:	0141                	addi	sp,sp,16
20013774:	8082                	ret

20013776 <__metal_driver_sifive_fe310_g000_hfrosc_get_rate_hz>:
__metal_driver_sifive_fe310_g000_hfrosc_get_rate_hz():
/home/nicoladgg/wsFreedomStudio/sifive_hifive1_revb_hello/freedom-metal/src/drivers/sifive_fe310-g000_hfrosc.c:17
20013776:	7139                	addi	sp,sp,-64
20013778:	de06                	sw	ra,60(sp)
2001377a:	dc22                	sw	s0,56(sp)
2001377c:	0080                	addi	s0,sp,64
2001377e:	fca42623          	sw	a0,-52(s0)
/home/nicoladgg/wsFreedomStudio/sifive_hifive1_revb_hello/freedom-metal/src/drivers/sifive_fe310-g000_hfrosc.c:19
20013782:	fcc42503          	lw	a0,-52(s0)
20013786:	3f59                	jal	2001371c <__metal_driver_sifive_fe310_g000_hfrosc_ref>
20013788:	fea42623          	sw	a0,-20(s0)
/home/nicoladgg/wsFreedomStudio/sifive_hifive1_revb_hello/freedom-metal/src/drivers/sifive_fe310-g000_hfrosc.c:21
2001378c:	fcc42503          	lw	a0,-52(s0)
20013790:	3f75                	jal	2001374c <__metal_driver_sifive_fe310_g000_hfrosc_config_offset>
20013792:	fea42423          	sw	a0,-24(s0)
/home/nicoladgg/wsFreedomStudio/sifive_hifive1_revb_hello/freedom-metal/src/drivers/sifive_fe310-g000_hfrosc.c:23
20013796:	fcc42503          	lw	a0,-52(s0)
2001379a:	3f71                	jal	20013736 <__metal_driver_sifive_fe310_g000_hfrosc_config_base>
2001379c:	fea42223          	sw	a0,-28(s0)
/home/nicoladgg/wsFreedomStudio/sifive_hifive1_revb_hello/freedom-metal/src/drivers/sifive_fe310-g000_hfrosc.c:25
200137a0:	37c1                	jal	20013760 <__metal_driver_sifive_fe310_g000_prci_vtable>
200137a2:	fea42023          	sw	a0,-32(s0)
/home/nicoladgg/wsFreedomStudio/sifive_hifive1_revb_hello/freedom-metal/src/drivers/sifive_fe310-g000_hfrosc.c:26
200137a6:	fe042783          	lw	a5,-32(s0)
200137aa:	439c                	lw	a5,0(a5)
200137ac:	fe842583          	lw	a1,-24(s0)
200137b0:	fe442503          	lw	a0,-28(s0)
200137b4:	9782                	jalr	a5
200137b6:	fca42e23          	sw	a0,-36(s0)
/home/nicoladgg/wsFreedomStudio/sifive_hifive1_revb_hello/freedom-metal/src/drivers/sifive_fe310-g000_hfrosc.c:28
200137ba:	fdc42703          	lw	a4,-36(s0)
200137be:	400007b7          	lui	a5,0x40000
200137c2:	8ff9                	and	a5,a5,a4
200137c4:	e399                	bnez	a5,200137ca <__metal_driver_sifive_fe310_g000_hfrosc_get_rate_hz+0x54>
/home/nicoladgg/wsFreedomStudio/sifive_hifive1_revb_hello/freedom-metal/src/drivers/sifive_fe310-g000_hfrosc.c:29
200137c6:	57fd                	li	a5,-1
200137c8:	a025                	j	200137f0 <__metal_driver_sifive_fe310_g000_hfrosc_get_rate_hz+0x7a>
/home/nicoladgg/wsFreedomStudio/sifive_hifive1_revb_hello/freedom-metal/src/drivers/sifive_fe310-g000_hfrosc.c:30
200137ca:	fdc42783          	lw	a5,-36(s0)
200137ce:	0007c463          	bltz	a5,200137d6 <__metal_driver_sifive_fe310_g000_hfrosc_get_rate_hz+0x60>
/home/nicoladgg/wsFreedomStudio/sifive_hifive1_revb_hello/freedom-metal/src/drivers/sifive_fe310-g000_hfrosc.c:31
200137d2:	57fd                	li	a5,-1
200137d4:	a831                	j	200137f0 <__metal_driver_sifive_fe310_g000_hfrosc_get_rate_hz+0x7a>
/home/nicoladgg/wsFreedomStudio/sifive_hifive1_revb_hello/freedom-metal/src/drivers/sifive_fe310-g000_hfrosc.c:32
200137d6:	fec42503          	lw	a0,-20(s0)
200137da:	0b7000ef          	jal	ra,20014090 <metal_clock_get_rate_hz>
200137de:	87aa                	mv	a5,a0
200137e0:	873e                	mv	a4,a5
200137e2:	fdc42783          	lw	a5,-36(s0)
200137e6:	03f7f793          	andi	a5,a5,63
200137ea:	0785                	addi	a5,a5,1
200137ec:	02f757b3          	divu	a5,a4,a5
/home/nicoladgg/wsFreedomStudio/sifive_hifive1_revb_hello/freedom-metal/src/drivers/sifive_fe310-g000_hfrosc.c:33
200137f0:	853e                	mv	a0,a5
200137f2:	50f2                	lw	ra,60(sp)
200137f4:	5462                	lw	s0,56(sp)
200137f6:	6121                	addi	sp,sp,64
200137f8:	8082                	ret

200137fa <__metal_driver_sifive_fe310_g000_hfrosc_set_rate_hz>:
__metal_driver_sifive_fe310_g000_hfrosc_set_rate_hz():
/home/nicoladgg/wsFreedomStudio/sifive_hifive1_revb_hello/freedom-metal/src/drivers/sifive_fe310-g000_hfrosc.c:36
200137fa:	1101                	addi	sp,sp,-32
200137fc:	ce06                	sw	ra,28(sp)
200137fe:	cc22                	sw	s0,24(sp)
20013800:	1000                	addi	s0,sp,32
20013802:	fea42623          	sw	a0,-20(s0)
20013806:	feb42423          	sw	a1,-24(s0)
/home/nicoladgg/wsFreedomStudio/sifive_hifive1_revb_hello/freedom-metal/src/drivers/sifive_fe310-g000_hfrosc.c:37
2001380a:	fec42503          	lw	a0,-20(s0)
2001380e:	37a5                	jal	20013776 <__metal_driver_sifive_fe310_g000_hfrosc_get_rate_hz>
20013810:	87aa                	mv	a5,a0
/home/nicoladgg/wsFreedomStudio/sifive_hifive1_revb_hello/freedom-metal/src/drivers/sifive_fe310-g000_hfrosc.c:38
20013812:	853e                	mv	a0,a5
20013814:	40f2                	lw	ra,28(sp)
20013816:	4462                	lw	s0,24(sp)
20013818:	6105                	addi	sp,sp,32
2001381a:	8082                	ret

2001381c <__metal_driver_sifive_fe310_g000_hfxosc_ref>:
__metal_driver_sifive_fe310_g000_hfxosc_ref():
/home/nicoladgg/wsFreedomStudio/sifive_hifive1_revb_hello/bsp/build/debug/./metal/machine.h:1265
2001381c:	1101                	addi	sp,sp,-32
2001381e:	ce22                	sw	s0,28(sp)
20013820:	1000                	addi	s0,sp,32
20013822:	fea42623          	sw	a0,-20(s0)
/home/nicoladgg/wsFreedomStudio/sifive_hifive1_revb_hello/bsp/build/debug/./metal/machine.h:1266
20013826:	800007b7          	lui	a5,0x80000
2001382a:	06078793          	addi	a5,a5,96 # 80000060 <__global_pointer$+0xfffff3d8>
/home/nicoladgg/wsFreedomStudio/sifive_hifive1_revb_hello/bsp/build/debug/./metal/machine.h:1267
2001382e:	853e                	mv	a0,a5
20013830:	4472                	lw	s0,28(sp)
20013832:	6105                	addi	sp,sp,32
20013834:	8082                	ret

20013836 <__metal_driver_sifive_fe310_g000_hfxosc_config_base>:
__metal_driver_sifive_fe310_g000_hfxosc_config_base():
/home/nicoladgg/wsFreedomStudio/sifive_hifive1_revb_hello/bsp/build/debug/./metal/machine.h:1270
20013836:	1101                	addi	sp,sp,-32
20013838:	ce22                	sw	s0,28(sp)
2001383a:	1000                	addi	s0,sp,32
2001383c:	fea42623          	sw	a0,-20(s0)
/home/nicoladgg/wsFreedomStudio/sifive_hifive1_revb_hello/bsp/build/debug/./metal/machine.h:1271
20013840:	82018793          	addi	a5,gp,-2016 # 800004a8 <__metal_dt_prci_10008000>
/home/nicoladgg/wsFreedomStudio/sifive_hifive1_revb_hello/bsp/build/debug/./metal/machine.h:1272
20013844:	853e                	mv	a0,a5
20013846:	4472                	lw	s0,28(sp)
20013848:	6105                	addi	sp,sp,32
2001384a:	8082                	ret

2001384c <__metal_driver_sifive_fe310_g000_hfxosc_config_offset>:
__metal_driver_sifive_fe310_g000_hfxosc_config_offset():
/home/nicoladgg/wsFreedomStudio/sifive_hifive1_revb_hello/bsp/build/debug/./metal/machine.h:1275
2001384c:	1101                	addi	sp,sp,-32
2001384e:	ce22                	sw	s0,28(sp)
20013850:	1000                	addi	s0,sp,32
20013852:	fea42623          	sw	a0,-20(s0)
/home/nicoladgg/wsFreedomStudio/sifive_hifive1_revb_hello/bsp/build/debug/./metal/machine.h:1276
20013856:	4791                	li	a5,4
/home/nicoladgg/wsFreedomStudio/sifive_hifive1_revb_hello/bsp/build/debug/./metal/machine.h:1277
20013858:	853e                	mv	a0,a5
2001385a:	4472                	lw	s0,28(sp)
2001385c:	6105                	addi	sp,sp,32
2001385e:	8082                	ret

20013860 <__metal_driver_sifive_fe310_g000_prci_vtable>:
__metal_driver_sifive_fe310_g000_prci_vtable():
/home/nicoladgg/wsFreedomStudio/sifive_hifive1_revb_hello/bsp/build/debug/./metal/machine.h:1374
20013860:	1141                	addi	sp,sp,-16
20013862:	c622                	sw	s0,12(sp)
20013864:	0800                	addi	s0,sp,16
/home/nicoladgg/wsFreedomStudio/sifive_hifive1_revb_hello/bsp/build/debug/./metal/machine.h:1375
20013866:	200117b7          	lui	a5,0x20011
2001386a:	d8478793          	addi	a5,a5,-636 # 20010d84 <__metal_driver_vtable_sifive_fe310_g000_prci>
/home/nicoladgg/wsFreedomStudio/sifive_hifive1_revb_hello/bsp/build/debug/./metal/machine.h:1376
2001386e:	853e                	mv	a0,a5
20013870:	4432                	lw	s0,12(sp)
20013872:	0141                	addi	sp,sp,16
20013874:	8082                	ret

20013876 <__metal_driver_sifive_fe310_g000_hfxosc_get_rate_hz>:
__metal_driver_sifive_fe310_g000_hfxosc_get_rate_hz():
/home/nicoladgg/wsFreedomStudio/sifive_hifive1_revb_hello/freedom-metal/src/drivers/sifive_fe310-g000_hfxosc.c:15
20013876:	7139                	addi	sp,sp,-64
20013878:	de06                	sw	ra,60(sp)
2001387a:	dc22                	sw	s0,56(sp)
2001387c:	0080                	addi	s0,sp,64
2001387e:	fca42623          	sw	a0,-52(s0)
/home/nicoladgg/wsFreedomStudio/sifive_hifive1_revb_hello/freedom-metal/src/drivers/sifive_fe310-g000_hfxosc.c:17
20013882:	fcc42503          	lw	a0,-52(s0)
20013886:	3f59                	jal	2001381c <__metal_driver_sifive_fe310_g000_hfxosc_ref>
20013888:	fea42623          	sw	a0,-20(s0)
/home/nicoladgg/wsFreedomStudio/sifive_hifive1_revb_hello/freedom-metal/src/drivers/sifive_fe310-g000_hfxosc.c:19
2001388c:	fcc42503          	lw	a0,-52(s0)
20013890:	3f75                	jal	2001384c <__metal_driver_sifive_fe310_g000_hfxosc_config_offset>
20013892:	fea42423          	sw	a0,-24(s0)
/home/nicoladgg/wsFreedomStudio/sifive_hifive1_revb_hello/freedom-metal/src/drivers/sifive_fe310-g000_hfxosc.c:21
20013896:	fcc42503          	lw	a0,-52(s0)
2001389a:	3f71                	jal	20013836 <__metal_driver_sifive_fe310_g000_hfxosc_config_base>
2001389c:	fea42223          	sw	a0,-28(s0)
/home/nicoladgg/wsFreedomStudio/sifive_hifive1_revb_hello/freedom-metal/src/drivers/sifive_fe310-g000_hfxosc.c:23
200138a0:	37c1                	jal	20013860 <__metal_driver_sifive_fe310_g000_prci_vtable>
200138a2:	fea42023          	sw	a0,-32(s0)
/home/nicoladgg/wsFreedomStudio/sifive_hifive1_revb_hello/freedom-metal/src/drivers/sifive_fe310-g000_hfxosc.c:24
200138a6:	fe042783          	lw	a5,-32(s0)
200138aa:	439c                	lw	a5,0(a5)
200138ac:	fe842583          	lw	a1,-24(s0)
200138b0:	fe442503          	lw	a0,-28(s0)
200138b4:	9782                	jalr	a5
200138b6:	fca42e23          	sw	a0,-36(s0)
/home/nicoladgg/wsFreedomStudio/sifive_hifive1_revb_hello/freedom-metal/src/drivers/sifive_fe310-g000_hfxosc.c:26
200138ba:	fdc42703          	lw	a4,-36(s0)
200138be:	400007b7          	lui	a5,0x40000
200138c2:	8ff9                	and	a5,a5,a4
200138c4:	e399                	bnez	a5,200138ca <__metal_driver_sifive_fe310_g000_hfxosc_get_rate_hz+0x54>
/home/nicoladgg/wsFreedomStudio/sifive_hifive1_revb_hello/freedom-metal/src/drivers/sifive_fe310-g000_hfxosc.c:27
200138c6:	57fd                	li	a5,-1
200138c8:	a821                	j	200138e0 <__metal_driver_sifive_fe310_g000_hfxosc_get_rate_hz+0x6a>
/home/nicoladgg/wsFreedomStudio/sifive_hifive1_revb_hello/freedom-metal/src/drivers/sifive_fe310-g000_hfxosc.c:28
200138ca:	fdc42783          	lw	a5,-36(s0)
200138ce:	0007c463          	bltz	a5,200138d6 <__metal_driver_sifive_fe310_g000_hfxosc_get_rate_hz+0x60>
/home/nicoladgg/wsFreedomStudio/sifive_hifive1_revb_hello/freedom-metal/src/drivers/sifive_fe310-g000_hfxosc.c:29
200138d2:	57fd                	li	a5,-1
200138d4:	a031                	j	200138e0 <__metal_driver_sifive_fe310_g000_hfxosc_get_rate_hz+0x6a>
/home/nicoladgg/wsFreedomStudio/sifive_hifive1_revb_hello/freedom-metal/src/drivers/sifive_fe310-g000_hfxosc.c:30
200138d6:	fec42503          	lw	a0,-20(s0)
200138da:	7b6000ef          	jal	ra,20014090 <metal_clock_get_rate_hz>
200138de:	87aa                	mv	a5,a0
/home/nicoladgg/wsFreedomStudio/sifive_hifive1_revb_hello/freedom-metal/src/drivers/sifive_fe310-g000_hfxosc.c:31
200138e0:	853e                	mv	a0,a5
200138e2:	50f2                	lw	ra,60(sp)
200138e4:	5462                	lw	s0,56(sp)
200138e6:	6121                	addi	sp,sp,64
200138e8:	8082                	ret

200138ea <__metal_driver_sifive_fe310_g000_hfxosc_set_rate_hz>:
__metal_driver_sifive_fe310_g000_hfxosc_set_rate_hz():
/home/nicoladgg/wsFreedomStudio/sifive_hifive1_revb_hello/freedom-metal/src/drivers/sifive_fe310-g000_hfxosc.c:34
200138ea:	1101                	addi	sp,sp,-32
200138ec:	ce06                	sw	ra,28(sp)
200138ee:	cc22                	sw	s0,24(sp)
200138f0:	1000                	addi	s0,sp,32
200138f2:	fea42623          	sw	a0,-20(s0)
200138f6:	feb42423          	sw	a1,-24(s0)
/home/nicoladgg/wsFreedomStudio/sifive_hifive1_revb_hello/freedom-metal/src/drivers/sifive_fe310-g000_hfxosc.c:35
200138fa:	fec42503          	lw	a0,-20(s0)
200138fe:	3fa5                	jal	20013876 <__metal_driver_sifive_fe310_g000_hfxosc_get_rate_hz>
20013900:	87aa                	mv	a5,a0
/home/nicoladgg/wsFreedomStudio/sifive_hifive1_revb_hello/freedom-metal/src/drivers/sifive_fe310-g000_hfxosc.c:36
20013902:	853e                	mv	a0,a5
20013904:	40f2                	lw	ra,28(sp)
20013906:	4462                	lw	s0,24(sp)
20013908:	6105                	addi	sp,sp,32
2001390a:	8082                	ret

2001390c <__metal_driver_sifive_fe310_g000_pll_pllsel0>:
__metal_driver_sifive_fe310_g000_pll_pllsel0():
/home/nicoladgg/wsFreedomStudio/sifive_hifive1_revb_hello/bsp/build/debug/./metal/machine.h:1326
2001390c:	1101                	addi	sp,sp,-32
2001390e:	ce22                	sw	s0,28(sp)
20013910:	1000                	addi	s0,sp,32
20013912:	fea42623          	sw	a0,-20(s0)
/home/nicoladgg/wsFreedomStudio/sifive_hifive1_revb_hello/bsp/build/debug/./metal/machine.h:1327
20013916:	800007b7          	lui	a5,0x80000
2001391a:	46078793          	addi	a5,a5,1120 # 80000460 <__global_pointer$+0xfffff7d8>
/home/nicoladgg/wsFreedomStudio/sifive_hifive1_revb_hello/bsp/build/debug/./metal/machine.h:1328
2001391e:	853e                	mv	a0,a5
20013920:	4472                	lw	s0,28(sp)
20013922:	6105                	addi	sp,sp,32
20013924:	8082                	ret

20013926 <__metal_driver_sifive_fe310_g000_pll_pllref>:
__metal_driver_sifive_fe310_g000_pll_pllref():
/home/nicoladgg/wsFreedomStudio/sifive_hifive1_revb_hello/bsp/build/debug/./metal/machine.h:1331
20013926:	1101                	addi	sp,sp,-32
20013928:	ce22                	sw	s0,28(sp)
2001392a:	1000                	addi	s0,sp,32
2001392c:	fea42623          	sw	a0,-20(s0)
/home/nicoladgg/wsFreedomStudio/sifive_hifive1_revb_hello/bsp/build/debug/./metal/machine.h:1332
20013930:	800007b7          	lui	a5,0x80000
20013934:	46c78793          	addi	a5,a5,1132 # 8000046c <__global_pointer$+0xfffff7e4>
/home/nicoladgg/wsFreedomStudio/sifive_hifive1_revb_hello/bsp/build/debug/./metal/machine.h:1333
20013938:	853e                	mv	a0,a5
2001393a:	4472                	lw	s0,28(sp)
2001393c:	6105                	addi	sp,sp,32
2001393e:	8082                	ret

20013940 <__metal_driver_sifive_fe310_g000_pll_divider_base>:
__metal_driver_sifive_fe310_g000_pll_divider_base():
/home/nicoladgg/wsFreedomStudio/sifive_hifive1_revb_hello/bsp/build/debug/./metal/machine.h:1336
20013940:	1101                	addi	sp,sp,-32
20013942:	ce22                	sw	s0,28(sp)
20013944:	1000                	addi	s0,sp,32
20013946:	fea42623          	sw	a0,-20(s0)
/home/nicoladgg/wsFreedomStudio/sifive_hifive1_revb_hello/bsp/build/debug/./metal/machine.h:1337
2001394a:	82018793          	addi	a5,gp,-2016 # 800004a8 <__metal_dt_prci_10008000>
/home/nicoladgg/wsFreedomStudio/sifive_hifive1_revb_hello/bsp/build/debug/./metal/machine.h:1338
2001394e:	853e                	mv	a0,a5
20013950:	4472                	lw	s0,28(sp)
20013952:	6105                	addi	sp,sp,32
20013954:	8082                	ret

20013956 <__metal_driver_sifive_fe310_g000_pll_divider_offset>:
__metal_driver_sifive_fe310_g000_pll_divider_offset():
/home/nicoladgg/wsFreedomStudio/sifive_hifive1_revb_hello/bsp/build/debug/./metal/machine.h:1341
20013956:	1101                	addi	sp,sp,-32
20013958:	ce22                	sw	s0,28(sp)
2001395a:	1000                	addi	s0,sp,32
2001395c:	fea42623          	sw	a0,-20(s0)
/home/nicoladgg/wsFreedomStudio/sifive_hifive1_revb_hello/bsp/build/debug/./metal/machine.h:1342
20013960:	47b1                	li	a5,12
/home/nicoladgg/wsFreedomStudio/sifive_hifive1_revb_hello/bsp/build/debug/./metal/machine.h:1343
20013962:	853e                	mv	a0,a5
20013964:	4472                	lw	s0,28(sp)
20013966:	6105                	addi	sp,sp,32
20013968:	8082                	ret

2001396a <__metal_driver_sifive_fe310_g000_pll_config_base>:
__metal_driver_sifive_fe310_g000_pll_config_base():
/home/nicoladgg/wsFreedomStudio/sifive_hifive1_revb_hello/bsp/build/debug/./metal/machine.h:1346
2001396a:	1141                	addi	sp,sp,-16
2001396c:	c622                	sw	s0,12(sp)
2001396e:	0800                	addi	s0,sp,16
/home/nicoladgg/wsFreedomStudio/sifive_hifive1_revb_hello/bsp/build/debug/./metal/machine.h:1347
20013970:	82018793          	addi	a5,gp,-2016 # 800004a8 <__metal_dt_prci_10008000>
/home/nicoladgg/wsFreedomStudio/sifive_hifive1_revb_hello/bsp/build/debug/./metal/machine.h:1348
20013974:	853e                	mv	a0,a5
20013976:	4432                	lw	s0,12(sp)
20013978:	0141                	addi	sp,sp,16
2001397a:	8082                	ret

2001397c <__metal_driver_sifive_fe310_g000_pll_config_offset>:
__metal_driver_sifive_fe310_g000_pll_config_offset():
/home/nicoladgg/wsFreedomStudio/sifive_hifive1_revb_hello/bsp/build/debug/./metal/machine.h:1351
2001397c:	1141                	addi	sp,sp,-16
2001397e:	c622                	sw	s0,12(sp)
20013980:	0800                	addi	s0,sp,16
/home/nicoladgg/wsFreedomStudio/sifive_hifive1_revb_hello/bsp/build/debug/./metal/machine.h:1352
20013982:	47a1                	li	a5,8
/home/nicoladgg/wsFreedomStudio/sifive_hifive1_revb_hello/bsp/build/debug/./metal/machine.h:1353
20013984:	853e                	mv	a0,a5
20013986:	4432                	lw	s0,12(sp)
20013988:	0141                	addi	sp,sp,16
2001398a:	8082                	ret

2001398c <__metal_driver_sifive_fe310_g000_pll_init_rate>:
__metal_driver_sifive_fe310_g000_pll_init_rate():
/home/nicoladgg/wsFreedomStudio/sifive_hifive1_revb_hello/bsp/build/debug/./metal/machine.h:1356
2001398c:	1141                	addi	sp,sp,-16
2001398e:	c622                	sw	s0,12(sp)
20013990:	0800                	addi	s0,sp,16
/home/nicoladgg/wsFreedomStudio/sifive_hifive1_revb_hello/bsp/build/debug/./metal/machine.h:1357
20013992:	00f427b7          	lui	a5,0xf42
20013996:	40078793          	addi	a5,a5,1024 # f42400 <__heap_size+0xf41c00>
/home/nicoladgg/wsFreedomStudio/sifive_hifive1_revb_hello/bsp/build/debug/./metal/machine.h:1358
2001399a:	853e                	mv	a0,a5
2001399c:	4432                	lw	s0,12(sp)
2001399e:	0141                	addi	sp,sp,16
200139a0:	8082                	ret

200139a2 <__metal_driver_sifive_fe310_g000_prci_base>:
__metal_driver_sifive_fe310_g000_prci_base():
/home/nicoladgg/wsFreedomStudio/sifive_hifive1_revb_hello/bsp/build/debug/./metal/machine.h:1364
200139a2:	1141                	addi	sp,sp,-16
200139a4:	c622                	sw	s0,12(sp)
200139a6:	0800                	addi	s0,sp,16
/home/nicoladgg/wsFreedomStudio/sifive_hifive1_revb_hello/bsp/build/debug/./metal/machine.h:1365
200139a8:	100087b7          	lui	a5,0x10008
/home/nicoladgg/wsFreedomStudio/sifive_hifive1_revb_hello/bsp/build/debug/./metal/machine.h:1366
200139ac:	853e                	mv	a0,a5
200139ae:	4432                	lw	s0,12(sp)
200139b0:	0141                	addi	sp,sp,16
200139b2:	8082                	ret

200139b4 <__metal_driver_sifive_fe310_g000_prci_vtable>:
__metal_driver_sifive_fe310_g000_prci_vtable():
/home/nicoladgg/wsFreedomStudio/sifive_hifive1_revb_hello/bsp/build/debug/./metal/machine.h:1374
200139b4:	1141                	addi	sp,sp,-16
200139b6:	c622                	sw	s0,12(sp)
200139b8:	0800                	addi	s0,sp,16
/home/nicoladgg/wsFreedomStudio/sifive_hifive1_revb_hello/bsp/build/debug/./metal/machine.h:1375
200139ba:	200117b7          	lui	a5,0x20011
200139be:	d8478793          	addi	a5,a5,-636 # 20010d84 <__metal_driver_vtable_sifive_fe310_g000_prci>
/home/nicoladgg/wsFreedomStudio/sifive_hifive1_revb_hello/bsp/build/debug/./metal/machine.h:1376
200139c2:	853e                	mv	a0,a5
200139c4:	4432                	lw	s0,12(sp)
200139c6:	0141                	addi	sp,sp,16
200139c8:	8082                	ret

200139ca <get_pll_config_freq>:
get_pll_config_freq():
/home/nicoladgg/wsFreedomStudio/sifive_hifive1_revb_hello/freedom-metal/src/drivers/sifive_fe310-g000_pll.c:141
200139ca:	1101                	addi	sp,sp,-32
200139cc:	ce22                	sw	s0,28(sp)
200139ce:	1000                	addi	s0,sp,32
200139d0:	fea42623          	sw	a0,-20(s0)
200139d4:	feb42423          	sw	a1,-24(s0)
/home/nicoladgg/wsFreedomStudio/sifive_hifive1_revb_hello/freedom-metal/src/drivers/sifive_fe310-g000_pll.c:142
200139d8:	fe842783          	lw	a5,-24(s0)
200139dc:	479c                	lw	a5,8(a5)
200139de:	fec42703          	lw	a4,-20(s0)
200139e2:	00f76963          	bltu	a4,a5,200139f4 <get_pll_config_freq+0x2a>
/home/nicoladgg/wsFreedomStudio/sifive_hifive1_revb_hello/freedom-metal/src/drivers/sifive_fe310-g000_pll.c:143 (discriminator 1)
200139e6:	fe842783          	lw	a5,-24(s0)
200139ea:	47dc                	lw	a5,12(a5)
/home/nicoladgg/wsFreedomStudio/sifive_hifive1_revb_hello/freedom-metal/src/drivers/sifive_fe310-g000_pll.c:142 (discriminator 1)
200139ec:	fec42703          	lw	a4,-20(s0)
200139f0:	00e7f463          	bgeu	a5,a4,200139f8 <get_pll_config_freq+0x2e>
/home/nicoladgg/wsFreedomStudio/sifive_hifive1_revb_hello/freedom-metal/src/drivers/sifive_fe310-g000_pll.c:144
200139f4:	57fd                	li	a5,-1
200139f6:	a829                	j	20013a10 <get_pll_config_freq+0x46>
/home/nicoladgg/wsFreedomStudio/sifive_hifive1_revb_hello/freedom-metal/src/drivers/sifive_fe310-g000_pll.c:146
200139f8:	fe842783          	lw	a5,-24(s0)
200139fc:	4398                	lw	a4,0(a5)
200139fe:	fec42783          	lw	a5,-20(s0)
20013a02:	02f70733          	mul	a4,a4,a5
20013a06:	fe842783          	lw	a5,-24(s0)
20013a0a:	43dc                	lw	a5,4(a5)
20013a0c:	02f757b3          	divu	a5,a4,a5
/home/nicoladgg/wsFreedomStudio/sifive_hifive1_revb_hello/freedom-metal/src/drivers/sifive_fe310-g000_pll.c:147
20013a10:	853e                	mv	a0,a5
20013a12:	4472                	lw	s0,28(sp)
20013a14:	6105                	addi	sp,sp,32
20013a16:	8082                	ret

20013a18 <__metal_driver_sifive_fe310_g000_pll_init>:
__metal_driver_sifive_fe310_g000_pll_init():
/home/nicoladgg/wsFreedomStudio/sifive_hifive1_revb_hello/freedom-metal/src/drivers/sifive_fe310-g000_pll.c:162
20013a18:	7139                	addi	sp,sp,-64
20013a1a:	de06                	sw	ra,60(sp)
20013a1c:	dc22                	sw	s0,56(sp)
20013a1e:	0080                	addi	s0,sp,64
20013a20:	fca42623          	sw	a0,-52(s0)
/home/nicoladgg/wsFreedomStudio/sifive_hifive1_revb_hello/freedom-metal/src/drivers/sifive_fe310-g000_pll.c:164
20013a24:	fcc42783          	lw	a5,-52(s0)
20013a28:	853e                	mv	a0,a5
20013a2a:	3df5                	jal	20013926 <__metal_driver_sifive_fe310_g000_pll_pllref>
20013a2c:	fea42623          	sw	a0,-20(s0)
/home/nicoladgg/wsFreedomStudio/sifive_hifive1_revb_hello/freedom-metal/src/drivers/sifive_fe310-g000_pll.c:165
20013a30:	3fb1                	jal	2001398c <__metal_driver_sifive_fe310_g000_pll_init_rate>
20013a32:	fea42423          	sw	a0,-24(s0)
/home/nicoladgg/wsFreedomStudio/sifive_hifive1_revb_hello/freedom-metal/src/drivers/sifive_fe310-g000_pll.c:166
20013a36:	3799                	jal	2001397c <__metal_driver_sifive_fe310_g000_pll_config_offset>
20013a38:	fea42223          	sw	a0,-28(s0)
/home/nicoladgg/wsFreedomStudio/sifive_hifive1_revb_hello/freedom-metal/src/drivers/sifive_fe310-g000_pll.c:167
20013a3c:	379d                	jal	200139a2 <__metal_driver_sifive_fe310_g000_prci_base>
20013a3e:	fea42023          	sw	a0,-32(s0)
/home/nicoladgg/wsFreedomStudio/sifive_hifive1_revb_hello/freedom-metal/src/drivers/sifive_fe310-g000_pll.c:169
20013a42:	fe042703          	lw	a4,-32(s0)
20013a46:	fe442783          	lw	a5,-28(s0)
20013a4a:	97ba                	add	a5,a5,a4
20013a4c:	fcf42e23          	sw	a5,-36(s0)
/home/nicoladgg/wsFreedomStudio/sifive_hifive1_revb_hello/freedom-metal/src/drivers/sifive_fe310-g000_pll.c:173
20013a50:	fcc42783          	lw	a5,-52(s0)
20013a54:	43dc                	lw	a5,4(a5)
20013a56:	853e                	mv	a0,a5
20013a58:	2bdd                	jal	2001404e <_metal_clock_call_all_callbacks>
/home/nicoladgg/wsFreedomStudio/sifive_hifive1_revb_hello/freedom-metal/src/drivers/sifive_fe310-g000_pll.c:177
20013a5a:	fdc42783          	lw	a5,-36(s0)
20013a5e:	4398                	lw	a4,0(a5)
20013a60:	67c1                	lui	a5,0x10
20013a62:	8ff9                	and	a5,a5,a4
20013a64:	cb91                	beqz	a5,20013a78 <__metal_driver_sifive_fe310_g000_pll_init+0x60>
/home/nicoladgg/wsFreedomStudio/sifive_hifive1_revb_hello/freedom-metal/src/drivers/sifive_fe310-g000_pll.c:178
20013a66:	fdc42783          	lw	a5,-36(s0)
20013a6a:	4398                	lw	a4,0(a5)
20013a6c:	77c1                	lui	a5,0xffff0
20013a6e:	17fd                	addi	a5,a5,-1
20013a70:	8f7d                	and	a4,a4,a5
20013a72:	fdc42783          	lw	a5,-36(s0)
20013a76:	c398                	sw	a4,0(a5)
/home/nicoladgg/wsFreedomStudio/sifive_hifive1_revb_hello/freedom-metal/src/drivers/sifive_fe310-g000_pll.c:181
20013a78:	fec42783          	lw	a5,-20(s0)
20013a7c:	cb91                	beqz	a5,20013a90 <__metal_driver_sifive_fe310_g000_pll_init+0x78>
/home/nicoladgg/wsFreedomStudio/sifive_hifive1_revb_hello/freedom-metal/src/drivers/sifive_fe310-g000_pll.c:182
20013a7e:	fdc42783          	lw	a5,-36(s0)
20013a82:	4398                	lw	a4,0(a5)
20013a84:	000207b7          	lui	a5,0x20
20013a88:	8f5d                	or	a4,a4,a5
20013a8a:	fdc42783          	lw	a5,-36(s0)
20013a8e:	c398                	sw	a4,0(a5)
/home/nicoladgg/wsFreedomStudio/sifive_hifive1_revb_hello/freedom-metal/src/drivers/sifive_fe310-g000_pll.c:187
20013a90:	fcc42783          	lw	a5,-52(s0)
20013a94:	439c                	lw	a5,0(a5)
20013a96:	43d8                	lw	a4,4(a5)
20013a98:	fcc42783          	lw	a5,-52(s0)
20013a9c:	fe842583          	lw	a1,-24(s0)
20013aa0:	853e                	mv	a0,a5
20013aa2:	9702                	jalr	a4
/home/nicoladgg/wsFreedomStudio/sifive_hifive1_revb_hello/freedom-metal/src/drivers/sifive_fe310-g000_pll.c:190
20013aa4:	fcc42783          	lw	a5,-52(s0)
20013aa8:	479c                	lw	a5,8(a5)
20013aaa:	853e                	mv	a0,a5
20013aac:	234d                	jal	2001404e <_metal_clock_call_all_callbacks>
/home/nicoladgg/wsFreedomStudio/sifive_hifive1_revb_hello/freedom-metal/src/drivers/sifive_fe310-g000_pll.c:191
20013aae:	0001                	nop
20013ab0:	50f2                	lw	ra,60(sp)
20013ab2:	5462                	lw	s0,56(sp)
20013ab4:	6121                	addi	sp,sp,64
20013ab6:	8082                	ret

20013ab8 <__metal_driver_sifive_fe310_g000_pll_get_rate_hz>:
__metal_driver_sifive_fe310_g000_pll_get_rate_hz():
/home/nicoladgg/wsFreedomStudio/sifive_hifive1_revb_hello/freedom-metal/src/drivers/sifive_fe310-g000_pll.c:194
20013ab8:	711d                	addi	sp,sp,-96
20013aba:	ce86                	sw	ra,92(sp)
20013abc:	cca2                	sw	s0,88(sp)
20013abe:	1080                	addi	s0,sp,96
20013ac0:	faa42623          	sw	a0,-84(s0)
/home/nicoladgg/wsFreedomStudio/sifive_hifive1_revb_hello/freedom-metal/src/drivers/sifive_fe310-g000_pll.c:196
20013ac4:	fac42503          	lw	a0,-84(s0)
20013ac8:	3db9                	jal	20013926 <__metal_driver_sifive_fe310_g000_pll_pllref>
20013aca:	fea42623          	sw	a0,-20(s0)
/home/nicoladgg/wsFreedomStudio/sifive_hifive1_revb_hello/freedom-metal/src/drivers/sifive_fe310-g000_pll.c:198
20013ace:	fac42503          	lw	a0,-84(s0)
20013ad2:	3d2d                	jal	2001390c <__metal_driver_sifive_fe310_g000_pll_pllsel0>
20013ad4:	fea42423          	sw	a0,-24(s0)
/home/nicoladgg/wsFreedomStudio/sifive_hifive1_revb_hello/freedom-metal/src/drivers/sifive_fe310-g000_pll.c:200
20013ad8:	fac42503          	lw	a0,-84(s0)
20013adc:	3545                	jal	2001397c <__metal_driver_sifive_fe310_g000_pll_config_offset>
20013ade:	fea42223          	sw	a0,-28(s0)
/home/nicoladgg/wsFreedomStudio/sifive_hifive1_revb_hello/freedom-metal/src/drivers/sifive_fe310-g000_pll.c:202
20013ae2:	fac42503          	lw	a0,-84(s0)
20013ae6:	3551                	jal	2001396a <__metal_driver_sifive_fe310_g000_pll_config_base>
20013ae8:	fea42023          	sw	a0,-32(s0)
/home/nicoladgg/wsFreedomStudio/sifive_hifive1_revb_hello/freedom-metal/src/drivers/sifive_fe310-g000_pll.c:204
20013aec:	fac42503          	lw	a0,-84(s0)
20013af0:	359d                	jal	20013956 <__metal_driver_sifive_fe310_g000_pll_divider_offset>
20013af2:	fca42e23          	sw	a0,-36(s0)
/home/nicoladgg/wsFreedomStudio/sifive_hifive1_revb_hello/freedom-metal/src/drivers/sifive_fe310-g000_pll.c:206
20013af6:	fac42503          	lw	a0,-84(s0)
20013afa:	3599                	jal	20013940 <__metal_driver_sifive_fe310_g000_pll_divider_base>
20013afc:	fca42c23          	sw	a0,-40(s0)
/home/nicoladgg/wsFreedomStudio/sifive_hifive1_revb_hello/freedom-metal/src/drivers/sifive_fe310-g000_pll.c:208
20013b00:	3d55                	jal	200139b4 <__metal_driver_sifive_fe310_g000_prci_vtable>
20013b02:	fca42a23          	sw	a0,-44(s0)
/home/nicoladgg/wsFreedomStudio/sifive_hifive1_revb_hello/freedom-metal/src/drivers/sifive_fe310-g000_pll.c:210
20013b06:	fd442783          	lw	a5,-44(s0)
20013b0a:	439c                	lw	a5,0(a5)
20013b0c:	fe442583          	lw	a1,-28(s0)
20013b10:	fe042503          	lw	a0,-32(s0)
20013b14:	9782                	jalr	a5
20013b16:	fca42823          	sw	a0,-48(s0)
/home/nicoladgg/wsFreedomStudio/sifive_hifive1_revb_hello/freedom-metal/src/drivers/sifive_fe310-g000_pll.c:211
20013b1a:	fd442783          	lw	a5,-44(s0)
20013b1e:	439c                	lw	a5,0(a5)
20013b20:	fdc42583          	lw	a1,-36(s0)
20013b24:	fd842503          	lw	a0,-40(s0)
20013b28:	9782                	jalr	a5
20013b2a:	fca42623          	sw	a0,-52(s0)
/home/nicoladgg/wsFreedomStudio/sifive_hifive1_revb_hello/freedom-metal/src/drivers/sifive_fe310-g000_pll.c:215
20013b2e:	fd042703          	lw	a4,-48(s0)
20013b32:	67c1                	lui	a5,0x10
20013b34:	8f7d                	and	a4,a4,a5
20013b36:	67c1                	lui	a5,0x10
20013b38:	00f77763          	bgeu	a4,a5,20013b46 <__metal_driver_sifive_fe310_g000_pll_get_rate_hz+0x8e>
/home/nicoladgg/wsFreedomStudio/sifive_hifive1_revb_hello/freedom-metal/src/drivers/sifive_fe310-g000_pll.c:216
20013b3c:	fe842503          	lw	a0,-24(s0)
20013b40:	2b81                	jal	20014090 <metal_clock_get_rate_hz>
20013b42:	87aa                	mv	a5,a0
20013b44:	a8d9                	j	20013c1a <__metal_driver_sifive_fe310_g000_pll_get_rate_hz+0x162>
/home/nicoladgg/wsFreedomStudio/sifive_hifive1_revb_hello/freedom-metal/src/drivers/sifive_fe310-g000_pll.c:221
20013b46:	fd042703          	lw	a4,-48(s0)
20013b4a:	000207b7          	lui	a5,0x20
20013b4e:	8f7d                	and	a4,a4,a5
/home/nicoladgg/wsFreedomStudio/sifive_hifive1_revb_hello/freedom-metal/src/drivers/sifive_fe310-g000_pll.c:220
20013b50:	000207b7          	lui	a5,0x20
20013b54:	00f76563          	bltu	a4,a5,20013b5e <__metal_driver_sifive_fe310_g000_pll_get_rate_hz+0xa6>
/home/nicoladgg/wsFreedomStudio/sifive_hifive1_revb_hello/freedom-metal/src/drivers/sifive_fe310-g000_pll.c:220 (discriminator 1)
20013b58:	fec42783          	lw	a5,-20(s0)
20013b5c:	a019                	j	20013b62 <__metal_driver_sifive_fe310_g000_pll_get_rate_hz+0xaa>
/home/nicoladgg/wsFreedomStudio/sifive_hifive1_revb_hello/freedom-metal/src/drivers/sifive_fe310-g000_pll.c:220 (discriminator 2)
20013b5e:	fe842783          	lw	a5,-24(s0)
/home/nicoladgg/wsFreedomStudio/sifive_hifive1_revb_hello/freedom-metal/src/drivers/sifive_fe310-g000_pll.c:220 (discriminator 4)
20013b62:	853e                	mv	a0,a5
20013b64:	2335                	jal	20014090 <metal_clock_get_rate_hz>
20013b66:	fca42423          	sw	a0,-56(s0)
/home/nicoladgg/wsFreedomStudio/sifive_hifive1_revb_hello/freedom-metal/src/drivers/sifive_fe310-g000_pll.c:225 (discriminator 4)
20013b6a:	fd042703          	lw	a4,-48(s0)
20013b6e:	000407b7          	lui	a5,0x40
20013b72:	8f7d                	and	a4,a4,a5
20013b74:	000407b7          	lui	a5,0x40
20013b78:	00f76563          	bltu	a4,a5,20013b82 <__metal_driver_sifive_fe310_g000_pll_get_rate_hz+0xca>
/home/nicoladgg/wsFreedomStudio/sifive_hifive1_revb_hello/freedom-metal/src/drivers/sifive_fe310-g000_pll.c:226
20013b7c:	fc842783          	lw	a5,-56(s0)
20013b80:	a869                	j	20013c1a <__metal_driver_sifive_fe310_g000_pll_get_rate_hz+0x162>
/home/nicoladgg/wsFreedomStudio/sifive_hifive1_revb_hello/freedom-metal/src/drivers/sifive_fe310-g000_pll.c:229
20013b82:	fd042783          	lw	a5,-48(s0)
20013b86:	8b9d                	andi	a5,a5,7
20013b88:	0785                	addi	a5,a5,1
20013b8a:	fcf42223          	sw	a5,-60(s0)
/home/nicoladgg/wsFreedomStudio/sifive_hifive1_revb_hello/freedom-metal/src/drivers/sifive_fe310-g000_pll.c:230
20013b8e:	fd042783          	lw	a5,-48(s0)
20013b92:	3f07f793          	andi	a5,a5,1008
20013b96:	8391                	srli	a5,a5,0x4
20013b98:	0785                	addi	a5,a5,1
20013b9a:	0786                	slli	a5,a5,0x1
20013b9c:	fcf42023          	sw	a5,-64(s0)
/home/nicoladgg/wsFreedomStudio/sifive_hifive1_revb_hello/freedom-metal/src/drivers/sifive_fe310-g000_pll.c:231
20013ba0:	fd042703          	lw	a4,-48(s0)
20013ba4:	6785                	lui	a5,0x1
20013ba6:	c0078793          	addi	a5,a5,-1024 # c00 <__heap_size+0x400>
20013baa:	8f7d                	and	a4,a4,a5
20013bac:	3ff00793          	li	a5,1023
20013bb0:	00e7e463          	bltu	a5,a4,20013bb8 <__metal_driver_sifive_fe310_g000_pll_get_rate_hz+0x100>
/home/nicoladgg/wsFreedomStudio/sifive_hifive1_revb_hello/freedom-metal/src/drivers/sifive_fe310-g000_pll.c:232
20013bb4:	57fd                	li	a5,-1
20013bb6:	a095                	j	20013c1a <__metal_driver_sifive_fe310_g000_pll_get_rate_hz+0x162>
/home/nicoladgg/wsFreedomStudio/sifive_hifive1_revb_hello/freedom-metal/src/drivers/sifive_fe310-g000_pll.c:233
20013bb8:	fd042703          	lw	a4,-48(s0)
20013bbc:	6785                	lui	a5,0x1
20013bbe:	c0078793          	addi	a5,a5,-1024 # c00 <__heap_size+0x400>
20013bc2:	8ff9                	and	a5,a5,a4
20013bc4:	83a9                	srli	a5,a5,0xa
20013bc6:	4705                	li	a4,1
20013bc8:	00f717b3          	sll	a5,a4,a5
20013bcc:	faf42e23          	sw	a5,-68(s0)
/home/nicoladgg/wsFreedomStudio/sifive_hifive1_revb_hello/freedom-metal/src/drivers/sifive_fe310-g000_pll.c:238
20013bd0:	fc842703          	lw	a4,-56(s0)
20013bd4:	fc442783          	lw	a5,-60(s0)
20013bd8:	02f74733          	div	a4,a4,a5
20013bdc:	fc042783          	lw	a5,-64(s0)
20013be0:	02f70733          	mul	a4,a4,a5
20013be4:	fbc42783          	lw	a5,-68(s0)
20013be8:	02f747b3          	div	a5,a4,a5
20013bec:	faf42c23          	sw	a5,-72(s0)
/home/nicoladgg/wsFreedomStudio/sifive_hifive1_revb_hello/freedom-metal/src/drivers/sifive_fe310-g000_pll.c:239
20013bf0:	fcc42783          	lw	a5,-52(s0)
20013bf4:	1007f713          	andi	a4,a5,256
20013bf8:	0ff00793          	li	a5,255
20013bfc:	00e7f563          	bgeu	a5,a4,20013c06 <__metal_driver_sifive_fe310_g000_pll_get_rate_hz+0x14e>
/home/nicoladgg/wsFreedomStudio/sifive_hifive1_revb_hello/freedom-metal/src/drivers/sifive_fe310-g000_pll.c:240
20013c00:	fb842783          	lw	a5,-72(s0)
20013c04:	a819                	j	20013c1a <__metal_driver_sifive_fe310_g000_pll_get_rate_hz+0x162>
/home/nicoladgg/wsFreedomStudio/sifive_hifive1_revb_hello/freedom-metal/src/drivers/sifive_fe310-g000_pll.c:242
20013c06:	fb842703          	lw	a4,-72(s0)
20013c0a:	fcc42783          	lw	a5,-52(s0)
20013c0e:	03f7f793          	andi	a5,a5,63
20013c12:	0785                	addi	a5,a5,1
20013c14:	0786                	slli	a5,a5,0x1
20013c16:	02f757b3          	divu	a5,a4,a5
/home/nicoladgg/wsFreedomStudio/sifive_hifive1_revb_hello/freedom-metal/src/drivers/sifive_fe310-g000_pll.c:243
20013c1a:	853e                	mv	a0,a5
20013c1c:	40f6                	lw	ra,92(sp)
20013c1e:	4466                	lw	s0,88(sp)
20013c20:	6125                	addi	sp,sp,96
20013c22:	8082                	ret

20013c24 <find_closest_config>:
find_closest_config():
/home/nicoladgg/wsFreedomStudio/sifive_hifive1_revb_hello/freedom-metal/src/drivers/sifive_fe310-g000_pll.c:253
20013c24:	7139                	addi	sp,sp,-64
20013c26:	de06                	sw	ra,60(sp)
20013c28:	dc22                	sw	s0,56(sp)
20013c2a:	0080                	addi	s0,sp,64
20013c2c:	fca42623          	sw	a0,-52(s0)
20013c30:	fcb42423          	sw	a1,-56(s0)
/home/nicoladgg/wsFreedomStudio/sifive_hifive1_revb_hello/freedom-metal/src/drivers/sifive_fe310-g000_pll.c:254
20013c34:	57fd                	li	a5,-1
20013c36:	fef42623          	sw	a5,-20(s0)
/home/nicoladgg/wsFreedomStudio/sifive_hifive1_revb_hello/freedom-metal/src/drivers/sifive_fe310-g000_pll.c:255
20013c3a:	800007b7          	lui	a5,0x80000
20013c3e:	fff7c793          	not	a5,a5
20013c42:	fef42423          	sw	a5,-24(s0)
/home/nicoladgg/wsFreedomStudio/sifive_hifive1_revb_hello/freedom-metal/src/drivers/sifive_fe310-g000_pll.c:259
20013c46:	04300793          	li	a5,67
20013c4a:	fef42223          	sw	a5,-28(s0)
20013c4e:	a0ad                	j	20013cb8 <find_closest_config+0x94>
/home/nicoladgg/wsFreedomStudio/sifive_hifive1_revb_hello/freedom-metal/src/drivers/sifive_fe310-g000_pll.c:261
20013c50:	fcc42683          	lw	a3,-52(s0)
20013c54:	fe442783          	lw	a5,-28(s0)
20013c58:	00579713          	slli	a4,a5,0x5
20013c5c:	200107b7          	lui	a5,0x20010
20013c60:	4e078793          	addi	a5,a5,1248 # 200104e0 <pll_configs>
20013c64:	97ba                	add	a5,a5,a4
20013c66:	85be                	mv	a1,a5
20013c68:	8536                	mv	a0,a3
20013c6a:	3385                	jal	200139ca <get_pll_config_freq>
20013c6c:	fea42023          	sw	a0,-32(s0)
/home/nicoladgg/wsFreedomStudio/sifive_hifive1_revb_hello/freedom-metal/src/drivers/sifive_fe310-g000_pll.c:262
20013c70:	fe042703          	lw	a4,-32(s0)
20013c74:	57fd                	li	a5,-1
20013c76:	02f70c63          	beq	a4,a5,20013cae <find_closest_config+0x8a>
/home/nicoladgg/wsFreedomStudio/sifive_hifive1_revb_hello/freedom-metal/src/drivers/sifive_fe310-g000_pll.c:263
20013c7a:	fe042703          	lw	a4,-32(s0)
20013c7e:	fc842783          	lw	a5,-56(s0)
20013c82:	8f1d                	sub	a4,a4,a5
20013c84:	41f75793          	srai	a5,a4,0x1f
20013c88:	8f3d                	xor	a4,a4,a5
20013c8a:	40f707b3          	sub	a5,a4,a5
20013c8e:	fcf42e23          	sw	a5,-36(s0)
/home/nicoladgg/wsFreedomStudio/sifive_hifive1_revb_hello/freedom-metal/src/drivers/sifive_fe310-g000_pll.c:265
20013c92:	fdc42703          	lw	a4,-36(s0)
20013c96:	fe842783          	lw	a5,-24(s0)
20013c9a:	00f75a63          	bge	a4,a5,20013cae <find_closest_config+0x8a>
/home/nicoladgg/wsFreedomStudio/sifive_hifive1_revb_hello/freedom-metal/src/drivers/sifive_fe310-g000_pll.c:266
20013c9e:	fe442783          	lw	a5,-28(s0)
20013ca2:	fef42623          	sw	a5,-20(s0)
/home/nicoladgg/wsFreedomStudio/sifive_hifive1_revb_hello/freedom-metal/src/drivers/sifive_fe310-g000_pll.c:267
20013ca6:	fdc42783          	lw	a5,-36(s0)
20013caa:	fef42423          	sw	a5,-24(s0)
/home/nicoladgg/wsFreedomStudio/sifive_hifive1_revb_hello/freedom-metal/src/drivers/sifive_fe310-g000_pll.c:260
20013cae:	fe442783          	lw	a5,-28(s0)
20013cb2:	17fd                	addi	a5,a5,-1
20013cb4:	fef42223          	sw	a5,-28(s0)
/home/nicoladgg/wsFreedomStudio/sifive_hifive1_revb_hello/freedom-metal/src/drivers/sifive_fe310-g000_pll.c:259 (discriminator 1)
20013cb8:	fe442783          	lw	a5,-28(s0)
20013cbc:	f807dae3          	bgez	a5,20013c50 <find_closest_config+0x2c>
/home/nicoladgg/wsFreedomStudio/sifive_hifive1_revb_hello/freedom-metal/src/drivers/sifive_fe310-g000_pll.c:272
20013cc0:	fec42783          	lw	a5,-20(s0)
/home/nicoladgg/wsFreedomStudio/sifive_hifive1_revb_hello/freedom-metal/src/drivers/sifive_fe310-g000_pll.c:273
20013cc4:	853e                	mv	a0,a5
20013cc6:	50f2                	lw	ra,60(sp)
20013cc8:	5462                	lw	s0,56(sp)
20013cca:	6121                	addi	sp,sp,64
20013ccc:	8082                	ret

20013cce <configure_pll>:
configure_pll():
/home/nicoladgg/wsFreedomStudio/sifive_hifive1_revb_hello/freedom-metal/src/drivers/sifive_fe310-g000_pll.c:290
20013cce:	7179                	addi	sp,sp,-48
20013cd0:	d606                	sw	ra,44(sp)
20013cd2:	d422                	sw	s0,40(sp)
20013cd4:	1800                	addi	s0,sp,48
20013cd6:	fca42e23          	sw	a0,-36(s0)
20013cda:	fcb42c23          	sw	a1,-40(s0)
20013cde:	fcc42a23          	sw	a2,-44(s0)
/home/nicoladgg/wsFreedomStudio/sifive_hifive1_revb_hello/freedom-metal/src/drivers/sifive_fe310-g000_pll.c:291
20013ce2:	fdc42783          	lw	a5,-36(s0)
20013ce6:	439c                	lw	a5,0(a5)
20013ce8:	ff87f713          	andi	a4,a5,-8
20013cec:	fdc42783          	lw	a5,-36(s0)
20013cf0:	c398                	sw	a4,0(a5)
/home/nicoladgg/wsFreedomStudio/sifive_hifive1_revb_hello/freedom-metal/src/drivers/sifive_fe310-g000_pll.c:292
20013cf2:	fdc42783          	lw	a5,-36(s0)
20013cf6:	4398                	lw	a4,0(a5)
20013cf8:	fd442783          	lw	a5,-44(s0)
20013cfc:	4b9c                	lw	a5,16(a5)
20013cfe:	8b9d                	andi	a5,a5,7
20013d00:	8f5d                	or	a4,a4,a5
20013d02:	fdc42783          	lw	a5,-36(s0)
20013d06:	c398                	sw	a4,0(a5)
/home/nicoladgg/wsFreedomStudio/sifive_hifive1_revb_hello/freedom-metal/src/drivers/sifive_fe310-g000_pll.c:294
20013d08:	fdc42783          	lw	a5,-36(s0)
20013d0c:	439c                	lw	a5,0(a5)
20013d0e:	c0f7f713          	andi	a4,a5,-1009
20013d12:	fdc42783          	lw	a5,-36(s0)
20013d16:	c398                	sw	a4,0(a5)
/home/nicoladgg/wsFreedomStudio/sifive_hifive1_revb_hello/freedom-metal/src/drivers/sifive_fe310-g000_pll.c:295
20013d18:	fdc42783          	lw	a5,-36(s0)
20013d1c:	4398                	lw	a4,0(a5)
20013d1e:	fd442783          	lw	a5,-44(s0)
20013d22:	4bdc                	lw	a5,20(a5)
20013d24:	0792                	slli	a5,a5,0x4
20013d26:	3f07f793          	andi	a5,a5,1008
20013d2a:	8f5d                	or	a4,a4,a5
20013d2c:	fdc42783          	lw	a5,-36(s0)
20013d30:	c398                	sw	a4,0(a5)
/home/nicoladgg/wsFreedomStudio/sifive_hifive1_revb_hello/freedom-metal/src/drivers/sifive_fe310-g000_pll.c:297
20013d32:	fdc42783          	lw	a5,-36(s0)
20013d36:	4398                	lw	a4,0(a5)
20013d38:	77fd                	lui	a5,0xfffff
20013d3a:	3ff78793          	addi	a5,a5,1023 # fffff3ff <__global_pointer$+0x7fffe777>
20013d3e:	8f7d                	and	a4,a4,a5
20013d40:	fdc42783          	lw	a5,-36(s0)
20013d44:	c398                	sw	a4,0(a5)
/home/nicoladgg/wsFreedomStudio/sifive_hifive1_revb_hello/freedom-metal/src/drivers/sifive_fe310-g000_pll.c:298
20013d46:	fdc42783          	lw	a5,-36(s0)
20013d4a:	4398                	lw	a4,0(a5)
20013d4c:	fd442783          	lw	a5,-44(s0)
20013d50:	4f9c                	lw	a5,24(a5)
20013d52:	00a79693          	slli	a3,a5,0xa
20013d56:	6785                	lui	a5,0x1
20013d58:	c0078793          	addi	a5,a5,-1024 # c00 <__heap_size+0x400>
20013d5c:	8ff5                	and	a5,a5,a3
20013d5e:	8f5d                	or	a4,a4,a5
20013d60:	fdc42783          	lw	a5,-36(s0)
20013d64:	c398                	sw	a4,0(a5)
/home/nicoladgg/wsFreedomStudio/sifive_hifive1_revb_hello/freedom-metal/src/drivers/sifive_fe310-g000_pll.c:300
20013d66:	fd442783          	lw	a5,-44(s0)
20013d6a:	4fdc                	lw	a5,28(a5)
20013d6c:	0207db63          	bgez	a5,20013da2 <configure_pll+0xd4>
/home/nicoladgg/wsFreedomStudio/sifive_hifive1_revb_hello/freedom-metal/src/drivers/sifive_fe310-g000_pll.c:302
20013d70:	fd842783          	lw	a5,-40(s0)
20013d74:	439c                	lw	a5,0(a5)
20013d76:	1007e713          	ori	a4,a5,256
20013d7a:	fd842783          	lw	a5,-40(s0)
20013d7e:	c398                	sw	a4,0(a5)
/home/nicoladgg/wsFreedomStudio/sifive_hifive1_revb_hello/freedom-metal/src/drivers/sifive_fe310-g000_pll.c:304
20013d80:	fd842783          	lw	a5,-40(s0)
20013d84:	439c                	lw	a5,0(a5)
20013d86:	fc07f713          	andi	a4,a5,-64
20013d8a:	fd842783          	lw	a5,-40(s0)
20013d8e:	c398                	sw	a4,0(a5)
/home/nicoladgg/wsFreedomStudio/sifive_hifive1_revb_hello/freedom-metal/src/drivers/sifive_fe310-g000_pll.c:305
20013d90:	fd842783          	lw	a5,-40(s0)
20013d94:	439c                	lw	a5,0(a5)
20013d96:	0017e713          	ori	a4,a5,1
20013d9a:	fd842783          	lw	a5,-40(s0)
20013d9e:	c398                	sw	a4,0(a5)
20013da0:	a82d                	j	20013dda <configure_pll+0x10c>
/home/nicoladgg/wsFreedomStudio/sifive_hifive1_revb_hello/freedom-metal/src/drivers/sifive_fe310-g000_pll.c:307
20013da2:	fd842783          	lw	a5,-40(s0)
20013da6:	439c                	lw	a5,0(a5)
20013da8:	eff7f713          	andi	a4,a5,-257
20013dac:	fd842783          	lw	a5,-40(s0)
20013db0:	c398                	sw	a4,0(a5)
/home/nicoladgg/wsFreedomStudio/sifive_hifive1_revb_hello/freedom-metal/src/drivers/sifive_fe310-g000_pll.c:309
20013db2:	fd842783          	lw	a5,-40(s0)
20013db6:	439c                	lw	a5,0(a5)
20013db8:	fc07f713          	andi	a4,a5,-64
20013dbc:	fd842783          	lw	a5,-40(s0)
20013dc0:	c398                	sw	a4,0(a5)
/home/nicoladgg/wsFreedomStudio/sifive_hifive1_revb_hello/freedom-metal/src/drivers/sifive_fe310-g000_pll.c:310
20013dc2:	fd842783          	lw	a5,-40(s0)
20013dc6:	4398                	lw	a4,0(a5)
20013dc8:	fd442783          	lw	a5,-44(s0)
20013dcc:	4fdc                	lw	a5,28(a5)
20013dce:	03f7f793          	andi	a5,a5,63
20013dd2:	8f5d                	or	a4,a4,a5
20013dd4:	fd842783          	lw	a5,-40(s0)
20013dd8:	c398                	sw	a4,0(a5)
/home/nicoladgg/wsFreedomStudio/sifive_hifive1_revb_hello/freedom-metal/src/drivers/sifive_fe310-g000_pll.c:313
20013dda:	fdc42783          	lw	a5,-36(s0)
20013dde:	4398                	lw	a4,0(a5)
20013de0:	fffc07b7          	lui	a5,0xfffc0
20013de4:	17fd                	addi	a5,a5,-1
20013de6:	8f7d                	and	a4,a4,a5
20013de8:	fdc42783          	lw	a5,-36(s0)
20013dec:	c398                	sw	a4,0(a5)
/home/nicoladgg/wsFreedomStudio/sifive_hifive1_revb_hello/freedom-metal/src/drivers/sifive_fe310-g000_pll.c:318
20013dee:	fe040793          	addi	a5,s0,-32
20013df2:	863e                	mv	a2,a5
20013df4:	4585                	li	a1,1
20013df6:	81018513          	addi	a0,gp,-2032 # 80000498 <__metal_dt_clint_2000000>
20013dfa:	da5fd0ef          	jal	ra,20011b9e <__metal_driver_riscv_clint0_command_request>
/home/nicoladgg/wsFreedomStudio/sifive_hifive1_revb_hello/freedom-metal/src/drivers/sifive_fe310-g000_pll.c:320
20013dfe:	fe042603          	lw	a2,-32(s0)
20013e02:	fe442683          	lw	a3,-28(s0)
20013e06:	4511                	li	a0,4
20013e08:	4581                	li	a1,0
20013e0a:	00a60733          	add	a4,a2,a0
20013e0e:	883a                	mv	a6,a4
20013e10:	00c83833          	sltu	a6,a6,a2
20013e14:	00b687b3          	add	a5,a3,a1
20013e18:	00f806b3          	add	a3,a6,a5
20013e1c:	87b6                	mv	a5,a3
20013e1e:	fee42423          	sw	a4,-24(s0)
20013e22:	fef42623          	sw	a5,-20(s0)
/home/nicoladgg/wsFreedomStudio/sifive_hifive1_revb_hello/freedom-metal/src/drivers/sifive_fe310-g000_pll.c:321
20013e26:	a809                	j	20013e38 <configure_pll+0x16a>
/home/nicoladgg/wsFreedomStudio/sifive_hifive1_revb_hello/freedom-metal/src/drivers/sifive_fe310-g000_pll.c:322
20013e28:	fe040793          	addi	a5,s0,-32
20013e2c:	863e                	mv	a2,a5
20013e2e:	4585                	li	a1,1
20013e30:	81018513          	addi	a0,gp,-2032 # 80000498 <__metal_dt_clint_2000000>
20013e34:	d6bfd0ef          	jal	ra,20011b9e <__metal_driver_riscv_clint0_command_request>
/home/nicoladgg/wsFreedomStudio/sifive_hifive1_revb_hello/freedom-metal/src/drivers/sifive_fe310-g000_pll.c:321
20013e38:	fe042703          	lw	a4,-32(s0)
20013e3c:	fe442783          	lw	a5,-28(s0)
20013e40:	fec42683          	lw	a3,-20(s0)
20013e44:	863e                	mv	a2,a5
20013e46:	00c6ec63          	bltu	a3,a2,20013e5e <configure_pll+0x190>
20013e4a:	fec42683          	lw	a3,-20(s0)
20013e4e:	863e                	mv	a2,a5
20013e50:	fcc69ce3          	bne	a3,a2,20013e28 <configure_pll+0x15a>
20013e54:	fe842683          	lw	a3,-24(s0)
20013e58:	87ba                	mv	a5,a4
20013e5a:	fcf6f7e3          	bgeu	a3,a5,20013e28 <configure_pll+0x15a>
/home/nicoladgg/wsFreedomStudio/sifive_hifive1_revb_hello/freedom-metal/src/drivers/sifive_fe310-g000_pll.c:340
20013e5e:	0001                	nop
/home/nicoladgg/wsFreedomStudio/sifive_hifive1_revb_hello/freedom-metal/src/drivers/sifive_fe310-g000_pll.c:340 (discriminator 1)
20013e60:	fdc42783          	lw	a5,-36(s0)
20013e64:	439c                	lw	a5,0(a5)
20013e66:	fe07dde3          	bgez	a5,20013e60 <configure_pll+0x192>
/home/nicoladgg/wsFreedomStudio/sifive_hifive1_revb_hello/freedom-metal/src/drivers/sifive_fe310-g000_pll.c:342
20013e6a:	0001                	nop
20013e6c:	0001                	nop
20013e6e:	50b2                	lw	ra,44(sp)
20013e70:	5422                	lw	s0,40(sp)
20013e72:	6145                	addi	sp,sp,48
20013e74:	8082                	ret

20013e76 <__metal_driver_sifive_fe310_g000_pll_set_rate_hz>:
__metal_driver_sifive_fe310_g000_pll_set_rate_hz():
/home/nicoladgg/wsFreedomStudio/sifive_hifive1_revb_hello/freedom-metal/src/drivers/sifive_fe310-g000_pll.c:345
20013e76:	715d                	addi	sp,sp,-80
20013e78:	c686                	sw	ra,76(sp)
20013e7a:	c4a2                	sw	s0,72(sp)
20013e7c:	0880                	addi	s0,sp,80
20013e7e:	faa42e23          	sw	a0,-68(s0)
20013e82:	fab42c23          	sw	a1,-72(s0)
/home/nicoladgg/wsFreedomStudio/sifive_hifive1_revb_hello/freedom-metal/src/drivers/sifive_fe310-g000_pll.c:347
20013e86:	fbc42503          	lw	a0,-68(s0)
20013e8a:	a9dff0ef          	jal	ra,20013926 <__metal_driver_sifive_fe310_g000_pll_pllref>
20013e8e:	fea42623          	sw	a0,-20(s0)
/home/nicoladgg/wsFreedomStudio/sifive_hifive1_revb_hello/freedom-metal/src/drivers/sifive_fe310-g000_pll.c:349
20013e92:	fbc42503          	lw	a0,-68(s0)
20013e96:	a77ff0ef          	jal	ra,2001390c <__metal_driver_sifive_fe310_g000_pll_pllsel0>
20013e9a:	fea42423          	sw	a0,-24(s0)
/home/nicoladgg/wsFreedomStudio/sifive_hifive1_revb_hello/freedom-metal/src/drivers/sifive_fe310-g000_pll.c:351
20013e9e:	fbc42503          	lw	a0,-68(s0)
20013ea2:	adbff0ef          	jal	ra,2001397c <__metal_driver_sifive_fe310_g000_pll_config_offset>
20013ea6:	fea42223          	sw	a0,-28(s0)
/home/nicoladgg/wsFreedomStudio/sifive_hifive1_revb_hello/freedom-metal/src/drivers/sifive_fe310-g000_pll.c:353
20013eaa:	fbc42503          	lw	a0,-68(s0)
20013eae:	aa9ff0ef          	jal	ra,20013956 <__metal_driver_sifive_fe310_g000_pll_divider_offset>
20013eb2:	fea42023          	sw	a0,-32(s0)
/home/nicoladgg/wsFreedomStudio/sifive_hifive1_revb_hello/freedom-metal/src/drivers/sifive_fe310-g000_pll.c:354
20013eb6:	aedff0ef          	jal	ra,200139a2 <__metal_driver_sifive_fe310_g000_prci_base>
20013eba:	fca42e23          	sw	a0,-36(s0)
/home/nicoladgg/wsFreedomStudio/sifive_hifive1_revb_hello/freedom-metal/src/drivers/sifive_fe310-g000_pll.c:356
20013ebe:	fdc42703          	lw	a4,-36(s0)
20013ec2:	fe442783          	lw	a5,-28(s0)
20013ec6:	97ba                	add	a5,a5,a4
20013ec8:	fcf42c23          	sw	a5,-40(s0)
/home/nicoladgg/wsFreedomStudio/sifive_hifive1_revb_hello/freedom-metal/src/drivers/sifive_fe310-g000_pll.c:357
20013ecc:	fdc42703          	lw	a4,-36(s0)
20013ed0:	fe042783          	lw	a5,-32(s0)
20013ed4:	97ba                	add	a5,a5,a4
20013ed6:	fcf42a23          	sw	a5,-44(s0)
/home/nicoladgg/wsFreedomStudio/sifive_hifive1_revb_hello/freedom-metal/src/drivers/sifive_fe310-g000_pll.c:360
20013eda:	fd842783          	lw	a5,-40(s0)
20013ede:	4398                	lw	a4,0(a5)
20013ee0:	67c1                	lui	a5,0x10
20013ee2:	8ff9                	and	a5,a5,a4
20013ee4:	cb91                	beqz	a5,20013ef8 <__metal_driver_sifive_fe310_g000_pll_set_rate_hz+0x82>
/home/nicoladgg/wsFreedomStudio/sifive_hifive1_revb_hello/freedom-metal/src/drivers/sifive_fe310-g000_pll.c:361
20013ee6:	fd842783          	lw	a5,-40(s0)
20013eea:	4398                	lw	a4,0(a5)
20013eec:	77c1                	lui	a5,0xffff0
20013eee:	17fd                	addi	a5,a5,-1
20013ef0:	8f7d                	and	a4,a4,a5
20013ef2:	fd842783          	lw	a5,-40(s0)
20013ef6:	c398                	sw	a4,0(a5)
/home/nicoladgg/wsFreedomStudio/sifive_hifive1_revb_hello/freedom-metal/src/drivers/sifive_fe310-g000_pll.c:366
20013ef8:	fd842783          	lw	a5,-40(s0)
20013efc:	4398                	lw	a4,0(a5)
20013efe:	000207b7          	lui	a5,0x20
20013f02:	8ff9                	and	a5,a5,a4
/home/nicoladgg/wsFreedomStudio/sifive_hifive1_revb_hello/freedom-metal/src/drivers/sifive_fe310-g000_pll.c:365
20013f04:	c781                	beqz	a5,20013f0c <__metal_driver_sifive_fe310_g000_pll_set_rate_hz+0x96>
/home/nicoladgg/wsFreedomStudio/sifive_hifive1_revb_hello/freedom-metal/src/drivers/sifive_fe310-g000_pll.c:365 (discriminator 1)
20013f06:	fec42783          	lw	a5,-20(s0)
20013f0a:	a019                	j	20013f10 <__metal_driver_sifive_fe310_g000_pll_set_rate_hz+0x9a>
/home/nicoladgg/wsFreedomStudio/sifive_hifive1_revb_hello/freedom-metal/src/drivers/sifive_fe310-g000_pll.c:365 (discriminator 2)
20013f0c:	fe842783          	lw	a5,-24(s0)
/home/nicoladgg/wsFreedomStudio/sifive_hifive1_revb_hello/freedom-metal/src/drivers/sifive_fe310-g000_pll.c:365 (discriminator 4)
20013f10:	853e                	mv	a0,a5
20013f12:	2abd                	jal	20014090 <metal_clock_get_rate_hz>
20013f14:	fca42823          	sw	a0,-48(s0)
/home/nicoladgg/wsFreedomStudio/sifive_hifive1_revb_hello/freedom-metal/src/drivers/sifive_fe310-g000_pll.c:370 (discriminator 4)
20013f18:	fd042703          	lw	a4,-48(s0)
20013f1c:	87ba                	mv	a5,a4
20013f1e:	0786                	slli	a5,a5,0x1
20013f20:	97ba                	add	a5,a5,a4
20013f22:	41f7d713          	srai	a4,a5,0x1f
20013f26:	8b0d                	andi	a4,a4,3
20013f28:	97ba                	add	a5,a5,a4
20013f2a:	8789                	srai	a5,a5,0x2
20013f2c:	873e                	mv	a4,a5
20013f2e:	fb842783          	lw	a5,-72(s0)
20013f32:	02e7cb63          	blt	a5,a4,20013f68 <__metal_driver_sifive_fe310_g000_pll_set_rate_hz+0xf2>
/home/nicoladgg/wsFreedomStudio/sifive_hifive1_revb_hello/freedom-metal/src/drivers/sifive_fe310-g000_pll.c:370 (discriminator 1)
20013f36:	fd042703          	lw	a4,-48(s0)
20013f3a:	87ba                	mv	a5,a4
20013f3c:	078a                	slli	a5,a5,0x2
20013f3e:	97ba                	add	a5,a5,a4
20013f40:	41f7d713          	srai	a4,a5,0x1f
20013f44:	8b0d                	andi	a4,a4,3
20013f46:	97ba                	add	a5,a5,a4
20013f48:	8789                	srai	a5,a5,0x2
20013f4a:	873e                	mv	a4,a5
20013f4c:	fb842783          	lw	a5,-72(s0)
20013f50:	00f74c63          	blt	a4,a5,20013f68 <__metal_driver_sifive_fe310_g000_pll_set_rate_hz+0xf2>
/home/nicoladgg/wsFreedomStudio/sifive_hifive1_revb_hello/freedom-metal/src/drivers/sifive_fe310-g000_pll.c:371
20013f54:	fd842783          	lw	a5,-40(s0)
20013f58:	4398                	lw	a4,0(a5)
20013f5a:	000407b7          	lui	a5,0x40
20013f5e:	8f5d                	or	a4,a4,a5
20013f60:	fd842783          	lw	a5,-40(s0)
20013f64:	c398                	sw	a4,0(a5)
20013f66:	a0b1                	j	20013fb2 <__metal_driver_sifive_fe310_g000_pll_set_rate_hz+0x13c>
/home/nicoladgg/wsFreedomStudio/sifive_hifive1_revb_hello/freedom-metal/src/drivers/sifive_fe310-g000_pll.c:373
20013f68:	fb842583          	lw	a1,-72(s0)
20013f6c:	fd042503          	lw	a0,-48(s0)
20013f70:	3955                	jal	20013c24 <find_closest_config>
20013f72:	fca42623          	sw	a0,-52(s0)
/home/nicoladgg/wsFreedomStudio/sifive_hifive1_revb_hello/freedom-metal/src/drivers/sifive_fe310-g000_pll.c:374
20013f76:	fcc42703          	lw	a4,-52(s0)
20013f7a:	57fd                	li	a5,-1
20013f7c:	02f70263          	beq	a4,a5,20013fa0 <__metal_driver_sifive_fe310_g000_pll_set_rate_hz+0x12a>
/home/nicoladgg/wsFreedomStudio/sifive_hifive1_revb_hello/freedom-metal/src/drivers/sifive_fe310-g000_pll.c:375
20013f80:	fcc42783          	lw	a5,-52(s0)
20013f84:	00579713          	slli	a4,a5,0x5
20013f88:	200107b7          	lui	a5,0x20010
20013f8c:	4e078793          	addi	a5,a5,1248 # 200104e0 <pll_configs>
20013f90:	97ba                	add	a5,a5,a4
20013f92:	863e                	mv	a2,a5
20013f94:	fd442583          	lw	a1,-44(s0)
20013f98:	fd842503          	lw	a0,-40(s0)
20013f9c:	3b0d                	jal	20013cce <configure_pll>
20013f9e:	a811                	j	20013fb2 <__metal_driver_sifive_fe310_g000_pll_set_rate_hz+0x13c>
/home/nicoladgg/wsFreedomStudio/sifive_hifive1_revb_hello/freedom-metal/src/drivers/sifive_fe310-g000_pll.c:378
20013fa0:	fd842783          	lw	a5,-40(s0)
20013fa4:	4398                	lw	a4,0(a5)
20013fa6:	000407b7          	lui	a5,0x40
20013faa:	8f5d                	or	a4,a4,a5
20013fac:	fd842783          	lw	a5,-40(s0)
20013fb0:	c398                	sw	a4,0(a5)
/home/nicoladgg/wsFreedomStudio/sifive_hifive1_revb_hello/freedom-metal/src/drivers/sifive_fe310-g000_pll.c:383
20013fb2:	fd842783          	lw	a5,-40(s0)
20013fb6:	4398                	lw	a4,0(a5)
20013fb8:	67c1                	lui	a5,0x10
20013fba:	8f5d                	or	a4,a4,a5
20013fbc:	fd842783          	lw	a5,-40(s0)
20013fc0:	c398                	sw	a4,0(a5)
/home/nicoladgg/wsFreedomStudio/sifive_hifive1_revb_hello/freedom-metal/src/drivers/sifive_fe310-g000_pll.c:385
20013fc2:	fbc42503          	lw	a0,-68(s0)
20013fc6:	af3ff0ef          	jal	ra,20013ab8 <__metal_driver_sifive_fe310_g000_pll_get_rate_hz>
20013fca:	87aa                	mv	a5,a0
/home/nicoladgg/wsFreedomStudio/sifive_hifive1_revb_hello/freedom-metal/src/drivers/sifive_fe310-g000_pll.c:386
20013fcc:	853e                	mv	a0,a5
20013fce:	40b6                	lw	ra,76(sp)
20013fd0:	4426                	lw	s0,72(sp)
20013fd2:	6161                	addi	sp,sp,80
20013fd4:	8082                	ret

20013fd6 <__metal_driver_sifive_fe310_g000_prci_base>:
__metal_driver_sifive_fe310_g000_prci_base():
/home/nicoladgg/wsFreedomStudio/sifive_hifive1_revb_hello/bsp/build/debug/./metal/machine.h:1364
20013fd6:	1141                	addi	sp,sp,-16
20013fd8:	c622                	sw	s0,12(sp)
20013fda:	0800                	addi	s0,sp,16
/home/nicoladgg/wsFreedomStudio/sifive_hifive1_revb_hello/bsp/build/debug/./metal/machine.h:1365
20013fdc:	100087b7          	lui	a5,0x10008
/home/nicoladgg/wsFreedomStudio/sifive_hifive1_revb_hello/bsp/build/debug/./metal/machine.h:1366
20013fe0:	853e                	mv	a0,a5
20013fe2:	4432                	lw	s0,12(sp)
20013fe4:	0141                	addi	sp,sp,16
20013fe6:	8082                	ret

20013fe8 <__metal_driver_sifive_fe310_g000_prci_get_reg>:
__metal_driver_sifive_fe310_g000_prci_get_reg():
/home/nicoladgg/wsFreedomStudio/sifive_hifive1_revb_hello/freedom-metal/src/drivers/sifive_fe310-g000_prci.c:12
20013fe8:	7179                	addi	sp,sp,-48
20013fea:	d606                	sw	ra,44(sp)
20013fec:	d422                	sw	s0,40(sp)
20013fee:	1800                	addi	s0,sp,48
20013ff0:	fca42e23          	sw	a0,-36(s0)
20013ff4:	fcb42c23          	sw	a1,-40(s0)
/home/nicoladgg/wsFreedomStudio/sifive_hifive1_revb_hello/freedom-metal/src/drivers/sifive_fe310-g000_prci.c:13
20013ff8:	3ff9                	jal	20013fd6 <__metal_driver_sifive_fe310_g000_prci_base>
20013ffa:	87aa                	mv	a5,a0
20013ffc:	fef42623          	sw	a5,-20(s0)
/home/nicoladgg/wsFreedomStudio/sifive_hifive1_revb_hello/freedom-metal/src/drivers/sifive_fe310-g000_prci.c:14
20014000:	fd842703          	lw	a4,-40(s0)
20014004:	fec42783          	lw	a5,-20(s0)
20014008:	97ba                	add	a5,a5,a4
2001400a:	439c                	lw	a5,0(a5)
/home/nicoladgg/wsFreedomStudio/sifive_hifive1_revb_hello/freedom-metal/src/drivers/sifive_fe310-g000_prci.c:15
2001400c:	853e                	mv	a0,a5
2001400e:	50b2                	lw	ra,44(sp)
20014010:	5422                	lw	s0,40(sp)
20014012:	6145                	addi	sp,sp,48
20014014:	8082                	ret

20014016 <__metal_driver_sifive_fe310_g000_prci_set_reg>:
__metal_driver_sifive_fe310_g000_prci_set_reg():
/home/nicoladgg/wsFreedomStudio/sifive_hifive1_revb_hello/freedom-metal/src/drivers/sifive_fe310-g000_prci.c:19
20014016:	7179                	addi	sp,sp,-48
20014018:	d606                	sw	ra,44(sp)
2001401a:	d422                	sw	s0,40(sp)
2001401c:	1800                	addi	s0,sp,48
2001401e:	fca42e23          	sw	a0,-36(s0)
20014022:	fcb42c23          	sw	a1,-40(s0)
20014026:	fcc42a23          	sw	a2,-44(s0)
/home/nicoladgg/wsFreedomStudio/sifive_hifive1_revb_hello/freedom-metal/src/drivers/sifive_fe310-g000_prci.c:20
2001402a:	3775                	jal	20013fd6 <__metal_driver_sifive_fe310_g000_prci_base>
2001402c:	87aa                	mv	a5,a0
2001402e:	fef42623          	sw	a5,-20(s0)
/home/nicoladgg/wsFreedomStudio/sifive_hifive1_revb_hello/freedom-metal/src/drivers/sifive_fe310-g000_prci.c:21
20014032:	fd842703          	lw	a4,-40(s0)
20014036:	fec42783          	lw	a5,-20(s0)
2001403a:	97ba                	add	a5,a5,a4
2001403c:	873e                	mv	a4,a5
2001403e:	fd442783          	lw	a5,-44(s0)
20014042:	c31c                	sw	a5,0(a4)
/home/nicoladgg/wsFreedomStudio/sifive_hifive1_revb_hello/freedom-metal/src/drivers/sifive_fe310-g000_prci.c:22
20014044:	853e                	mv	a0,a5
20014046:	50b2                	lw	ra,44(sp)
20014048:	5422                	lw	s0,40(sp)
2001404a:	6145                	addi	sp,sp,48
2001404c:	8082                	ret

2001404e <_metal_clock_call_all_callbacks>:
_metal_clock_call_all_callbacks():
/home/nicoladgg/wsFreedomStudio/sifive_hifive1_revb_hello/freedom-metal/metal/clock.h:50
2001404e:	7179                	addi	sp,sp,-48
20014050:	d606                	sw	ra,44(sp)
20014052:	d422                	sw	s0,40(sp)
20014054:	1800                	addi	s0,sp,48
20014056:	fca42e23          	sw	a0,-36(s0)
/home/nicoladgg/wsFreedomStudio/sifive_hifive1_revb_hello/freedom-metal/metal/clock.h:51
2001405a:	fdc42783          	lw	a5,-36(s0)
2001405e:	fef42623          	sw	a5,-20(s0)
/home/nicoladgg/wsFreedomStudio/sifive_hifive1_revb_hello/freedom-metal/metal/clock.h:52
20014062:	a831                	j	2001407e <_metal_clock_call_all_callbacks+0x30>
/home/nicoladgg/wsFreedomStudio/sifive_hifive1_revb_hello/freedom-metal/metal/clock.h:53
20014064:	fec42783          	lw	a5,-20(s0)
20014068:	4398                	lw	a4,0(a5)
2001406a:	fec42783          	lw	a5,-20(s0)
2001406e:	43dc                	lw	a5,4(a5)
20014070:	853e                	mv	a0,a5
20014072:	9702                	jalr	a4
/home/nicoladgg/wsFreedomStudio/sifive_hifive1_revb_hello/freedom-metal/metal/clock.h:54
20014074:	fec42783          	lw	a5,-20(s0)
20014078:	479c                	lw	a5,8(a5)
2001407a:	fef42623          	sw	a5,-20(s0)
/home/nicoladgg/wsFreedomStudio/sifive_hifive1_revb_hello/freedom-metal/metal/clock.h:52
2001407e:	fec42783          	lw	a5,-20(s0)
20014082:	f3ed                	bnez	a5,20014064 <_metal_clock_call_all_callbacks+0x16>
/home/nicoladgg/wsFreedomStudio/sifive_hifive1_revb_hello/freedom-metal/metal/clock.h:56
20014084:	0001                	nop
20014086:	0001                	nop
20014088:	50b2                	lw	ra,44(sp)
2001408a:	5422                	lw	s0,40(sp)
2001408c:	6145                	addi	sp,sp,48
2001408e:	8082                	ret

20014090 <metal_clock_get_rate_hz>:
metal_clock_get_rate_hz():
/home/nicoladgg/wsFreedomStudio/sifive_hifive1_revb_hello/freedom-metal/metal/clock.h:110
20014090:	1101                	addi	sp,sp,-32
20014092:	ce06                	sw	ra,28(sp)
20014094:	cc22                	sw	s0,24(sp)
20014096:	1000                	addi	s0,sp,32
20014098:	fea42623          	sw	a0,-20(s0)
/home/nicoladgg/wsFreedomStudio/sifive_hifive1_revb_hello/freedom-metal/metal/clock.h:111
2001409c:	fec42783          	lw	a5,-20(s0)
200140a0:	439c                	lw	a5,0(a5)
200140a2:	439c                	lw	a5,0(a5)
200140a4:	fec42503          	lw	a0,-20(s0)
200140a8:	9782                	jalr	a5
200140aa:	87aa                	mv	a5,a0
/home/nicoladgg/wsFreedomStudio/sifive_hifive1_revb_hello/freedom-metal/metal/clock.h:112
200140ac:	853e                	mv	a0,a5
200140ae:	40f2                	lw	ra,28(sp)
200140b0:	4462                	lw	s0,24(sp)
200140b2:	6105                	addi	sp,sp,32
200140b4:	8082                	ret

200140b6 <metal_clock_set_rate_hz>:
metal_clock_set_rate_hz():
/home/nicoladgg/wsFreedomStudio/sifive_hifive1_revb_hello/freedom-metal/metal/clock.h:128
200140b6:	7179                	addi	sp,sp,-48
200140b8:	d606                	sw	ra,44(sp)
200140ba:	d422                	sw	s0,40(sp)
200140bc:	1800                	addi	s0,sp,48
200140be:	fca42e23          	sw	a0,-36(s0)
200140c2:	fcb42c23          	sw	a1,-40(s0)
/home/nicoladgg/wsFreedomStudio/sifive_hifive1_revb_hello/freedom-metal/metal/clock.h:129
200140c6:	fdc42783          	lw	a5,-36(s0)
200140ca:	43dc                	lw	a5,4(a5)
200140cc:	853e                	mv	a0,a5
200140ce:	3741                	jal	2001404e <_metal_clock_call_all_callbacks>
/home/nicoladgg/wsFreedomStudio/sifive_hifive1_revb_hello/freedom-metal/metal/clock.h:131
200140d0:	fdc42783          	lw	a5,-36(s0)
200140d4:	439c                	lw	a5,0(a5)
200140d6:	43dc                	lw	a5,4(a5)
200140d8:	fd842583          	lw	a1,-40(s0)
200140dc:	fdc42503          	lw	a0,-36(s0)
200140e0:	9782                	jalr	a5
200140e2:	fea42623          	sw	a0,-20(s0)
/home/nicoladgg/wsFreedomStudio/sifive_hifive1_revb_hello/freedom-metal/metal/clock.h:133
200140e6:	fdc42783          	lw	a5,-36(s0)
200140ea:	479c                	lw	a5,8(a5)
200140ec:	853e                	mv	a0,a5
200140ee:	3785                	jal	2001404e <_metal_clock_call_all_callbacks>
/home/nicoladgg/wsFreedomStudio/sifive_hifive1_revb_hello/freedom-metal/metal/clock.h:135
200140f0:	fec42783          	lw	a5,-20(s0)
/home/nicoladgg/wsFreedomStudio/sifive_hifive1_revb_hello/freedom-metal/metal/clock.h:136
200140f4:	853e                	mv	a0,a5
200140f6:	50b2                	lw	ra,44(sp)
200140f8:	5422                	lw	s0,40(sp)
200140fa:	6145                	addi	sp,sp,48
200140fc:	8082                	ret

200140fe <metal_cpu_interrupt_controller>:
metal_cpu_interrupt_controller():
/home/nicoladgg/wsFreedomStudio/sifive_hifive1_revb_hello/freedom-metal/metal/cpu.h:224
200140fe:	1101                	addi	sp,sp,-32
20014100:	ce06                	sw	ra,28(sp)
20014102:	cc22                	sw	s0,24(sp)
20014104:	1000                	addi	s0,sp,32
20014106:	fea42623          	sw	a0,-20(s0)
/home/nicoladgg/wsFreedomStudio/sifive_hifive1_revb_hello/freedom-metal/metal/cpu.h:225
2001410a:	fec42783          	lw	a5,-20(s0)
2001410e:	439c                	lw	a5,0(a5)
20014110:	57dc                	lw	a5,44(a5)
20014112:	fec42503          	lw	a0,-20(s0)
20014116:	9782                	jalr	a5
20014118:	87aa                	mv	a5,a0
/home/nicoladgg/wsFreedomStudio/sifive_hifive1_revb_hello/freedom-metal/metal/cpu.h:226
2001411a:	853e                	mv	a0,a5
2001411c:	40f2                	lw	ra,28(sp)
2001411e:	4462                	lw	s0,24(sp)
20014120:	6105                	addi	sp,sp,32
20014122:	8082                	ret

20014124 <metal_cpu_get>:
metal_cpu_get():
/home/nicoladgg/wsFreedomStudio/sifive_hifive1_revb_hello/freedom-metal/src/cpu.c:7
20014124:	1101                	addi	sp,sp,-32
20014126:	ce22                	sw	s0,28(sp)
20014128:	1000                	addi	s0,sp,32
2001412a:	fea42623          	sw	a0,-20(s0)
/home/nicoladgg/wsFreedomStudio/sifive_hifive1_revb_hello/freedom-metal/src/cpu.c:8
2001412e:	fec42783          	lw	a5,-20(s0)
20014132:	eb89                	bnez	a5,20014144 <metal_cpu_get+0x20>
/home/nicoladgg/wsFreedomStudio/sifive_hifive1_revb_hello/freedom-metal/src/cpu.c:9
20014134:	fec42703          	lw	a4,-20(s0)
20014138:	070a                	slli	a4,a4,0x2
2001413a:	80c18793          	addi	a5,gp,-2036 # 80000494 <__metal_cpu_table>
2001413e:	97ba                	add	a5,a5,a4
20014140:	439c                	lw	a5,0(a5)
20014142:	a011                	j	20014146 <metal_cpu_get+0x22>
/home/nicoladgg/wsFreedomStudio/sifive_hifive1_revb_hello/freedom-metal/src/cpu.c:11
20014144:	4781                	li	a5,0
/home/nicoladgg/wsFreedomStudio/sifive_hifive1_revb_hello/freedom-metal/src/cpu.c:12
20014146:	853e                	mv	a0,a5
20014148:	4472                	lw	s0,28(sp)
2001414a:	6105                	addi	sp,sp,32
2001414c:	8082                	ret

2001414e <metal_cpu_get_current_hartid>:
metal_cpu_get_current_hartid():
/home/nicoladgg/wsFreedomStudio/sifive_hifive1_revb_hello/freedom-metal/src/cpu.c:14
2001414e:	1101                	addi	sp,sp,-32
20014150:	ce22                	sw	s0,28(sp)
20014152:	1000                	addi	s0,sp,32
/home/nicoladgg/wsFreedomStudio/sifive_hifive1_revb_hello/freedom-metal/src/cpu.c:17
20014154:	f14027f3          	csrr	a5,mhartid
20014158:	fef42623          	sw	a5,-20(s0)
/home/nicoladgg/wsFreedomStudio/sifive_hifive1_revb_hello/freedom-metal/src/cpu.c:18
2001415c:	fec42783          	lw	a5,-20(s0)
/home/nicoladgg/wsFreedomStudio/sifive_hifive1_revb_hello/freedom-metal/src/cpu.c:20
20014160:	853e                	mv	a0,a5
20014162:	4472                	lw	s0,28(sp)
20014164:	6105                	addi	sp,sp,32
20014166:	8082                	ret

20014168 <metal_shutdown>:
metal_shutdown():
/home/nicoladgg/wsFreedomStudio/sifive_hifive1_revb_hello/freedom-metal/src/shutdown.c:17
20014168:	1101                	addi	sp,sp,-32
2001416a:	ce22                	sw	s0,28(sp)
2001416c:	1000                	addi	s0,sp,32
2001416e:	fea42623          	sw	a0,-20(s0)
/home/nicoladgg/wsFreedomStudio/sifive_hifive1_revb_hello/freedom-metal/src/shutdown.c:19 (discriminator 1)
20014172:	0001                	nop
20014174:	bffd                	j	20014172 <metal_shutdown+0xa>
	...

20014180 <__metal_vector_table>:
IRQ_0():
/home/nicoladgg/wsFreedomStudio/sifive_hifive1_revb_hello/freedom-metal/src/vector.S:96
20014180:	df9fd06f          	j	20011f78 <metal_interrupt_vector_handler>

20014184 <IRQ_1>:
IRQ_1():
/home/nicoladgg/wsFreedomStudio/sifive_hifive1_revb_hello/freedom-metal/src/vector.S:98
20014184:	df5fd06f          	j	20011f78 <metal_interrupt_vector_handler>

20014188 <IRQ_2>:
IRQ_2():
/home/nicoladgg/wsFreedomStudio/sifive_hifive1_revb_hello/freedom-metal/src/vector.S:100
20014188:	df1fd06f          	j	20011f78 <metal_interrupt_vector_handler>

2001418c <IRQ_3>:
IRQ_3():
/home/nicoladgg/wsFreedomStudio/sifive_hifive1_revb_hello/freedom-metal/src/vector.S:102
2001418c:	e1bfd06f          	j	20011fa6 <metal_software_interrupt_vector_handler>

20014190 <IRQ_4>:
IRQ_4():
/home/nicoladgg/wsFreedomStudio/sifive_hifive1_revb_hello/freedom-metal/src/vector.S:104
20014190:	de9fd06f          	j	20011f78 <metal_interrupt_vector_handler>

20014194 <IRQ_5>:
IRQ_5():
/home/nicoladgg/wsFreedomStudio/sifive_hifive1_revb_hello/freedom-metal/src/vector.S:106
20014194:	de5fd06f          	j	20011f78 <metal_interrupt_vector_handler>

20014198 <IRQ_6>:
IRQ_6():
/home/nicoladgg/wsFreedomStudio/sifive_hifive1_revb_hello/freedom-metal/src/vector.S:108
20014198:	de1fd06f          	j	20011f78 <metal_interrupt_vector_handler>

2001419c <IRQ_7>:
IRQ_7():
/home/nicoladgg/wsFreedomStudio/sifive_hifive1_revb_hello/freedom-metal/src/vector.S:110
2001419c:	efdfd06f          	j	20012098 <metal_timer_interrupt_vector_handler>

200141a0 <IRQ_8>:
IRQ_8():
/home/nicoladgg/wsFreedomStudio/sifive_hifive1_revb_hello/freedom-metal/src/vector.S:112
200141a0:	dd9fd06f          	j	20011f78 <metal_interrupt_vector_handler>

200141a4 <IRQ_9>:
IRQ_9():
/home/nicoladgg/wsFreedomStudio/sifive_hifive1_revb_hello/freedom-metal/src/vector.S:114
200141a4:	dd5fd06f          	j	20011f78 <metal_interrupt_vector_handler>

200141a8 <IRQ_10>:
IRQ_10():
/home/nicoladgg/wsFreedomStudio/sifive_hifive1_revb_hello/freedom-metal/src/vector.S:116
200141a8:	dd1fd06f          	j	20011f78 <metal_interrupt_vector_handler>

200141ac <IRQ_11>:
IRQ_11():
/home/nicoladgg/wsFreedomStudio/sifive_hifive1_revb_hello/freedom-metal/src/vector.S:118
200141ac:	dcdfd06f          	j	20011f78 <metal_interrupt_vector_handler>

200141b0 <IRQ_12>:
IRQ_12():
/home/nicoladgg/wsFreedomStudio/sifive_hifive1_revb_hello/freedom-metal/src/vector.S:120
200141b0:	dc9fd06f          	j	20011f78 <metal_interrupt_vector_handler>

200141b4 <IRQ_13>:
IRQ_13():
/home/nicoladgg/wsFreedomStudio/sifive_hifive1_revb_hello/freedom-metal/src/vector.S:122
200141b4:	dc5fd06f          	j	20011f78 <metal_interrupt_vector_handler>

200141b8 <IRQ_14>:
IRQ_14():
/home/nicoladgg/wsFreedomStudio/sifive_hifive1_revb_hello/freedom-metal/src/vector.S:124
200141b8:	dc1fd06f          	j	20011f78 <metal_interrupt_vector_handler>

200141bc <IRQ_15>:
IRQ_15():
/home/nicoladgg/wsFreedomStudio/sifive_hifive1_revb_hello/freedom-metal/src/vector.S:126
200141bc:	dbdfd06f          	j	20011f78 <metal_interrupt_vector_handler>

200141c0 <IRQ_LC0>:
IRQ_LC0():
/home/nicoladgg/wsFreedomStudio/sifive_hifive1_revb_hello/freedom-metal/src/vector.S:128
200141c0:	a32fe06f          	j	200123f2 <metal_lc0_interrupt_vector_handler>

200141c4 <IRQ_LC1>:
IRQ_LC1():
/home/nicoladgg/wsFreedomStudio/sifive_hifive1_revb_hello/freedom-metal/src/vector.S:130
200141c4:	ac0fe06f          	j	20012484 <metal_lc1_interrupt_vector_handler>

200141c8 <IRQ_LC2>:
IRQ_LC2():
/home/nicoladgg/wsFreedomStudio/sifive_hifive1_revb_hello/freedom-metal/src/vector.S:132
200141c8:	b4efe06f          	j	20012516 <metal_lc2_interrupt_vector_handler>

200141cc <IRQ_LC3>:
IRQ_LC3():
/home/nicoladgg/wsFreedomStudio/sifive_hifive1_revb_hello/freedom-metal/src/vector.S:134
200141cc:	bdcfe06f          	j	200125a8 <metal_lc3_interrupt_vector_handler>

200141d0 <IRQ_LC4>:
IRQ_LC4():
/home/nicoladgg/wsFreedomStudio/sifive_hifive1_revb_hello/freedom-metal/src/vector.S:136
200141d0:	c6afe06f          	j	2001263a <metal_lc4_interrupt_vector_handler>

200141d4 <IRQ_LC5>:
IRQ_LC5():
/home/nicoladgg/wsFreedomStudio/sifive_hifive1_revb_hello/freedom-metal/src/vector.S:138
200141d4:	cf8fe06f          	j	200126cc <metal_lc5_interrupt_vector_handler>

200141d8 <IRQ_LC6>:
IRQ_LC6():
/home/nicoladgg/wsFreedomStudio/sifive_hifive1_revb_hello/freedom-metal/src/vector.S:140
200141d8:	d86fe06f          	j	2001275e <metal_lc6_interrupt_vector_handler>

200141dc <IRQ_LC7>:
IRQ_LC7():
/home/nicoladgg/wsFreedomStudio/sifive_hifive1_revb_hello/freedom-metal/src/vector.S:142
200141dc:	e14fe06f          	j	200127f0 <metal_lc7_interrupt_vector_handler>

200141e0 <IRQ_LC8>:
IRQ_LC8():
/home/nicoladgg/wsFreedomStudio/sifive_hifive1_revb_hello/freedom-metal/src/vector.S:144
200141e0:	ea2fe06f          	j	20012882 <metal_lc8_interrupt_vector_handler>

200141e4 <IRQ_LC9>:
IRQ_LC9():
/home/nicoladgg/wsFreedomStudio/sifive_hifive1_revb_hello/freedom-metal/src/vector.S:146
200141e4:	f30fe06f          	j	20012914 <metal_lc9_interrupt_vector_handler>

200141e8 <IRQ_LC10>:
IRQ_LC10():
/home/nicoladgg/wsFreedomStudio/sifive_hifive1_revb_hello/freedom-metal/src/vector.S:148
200141e8:	fbefe06f          	j	200129a6 <metal_lc10_interrupt_vector_handler>

200141ec <IRQ_LC11>:
IRQ_LC11():
/home/nicoladgg/wsFreedomStudio/sifive_hifive1_revb_hello/freedom-metal/src/vector.S:150
200141ec:	84dfe06f          	j	20012a38 <metal_lc11_interrupt_vector_handler>

200141f0 <IRQ_LC12>:
IRQ_LC12():
/home/nicoladgg/wsFreedomStudio/sifive_hifive1_revb_hello/freedom-metal/src/vector.S:152
200141f0:	8dbfe06f          	j	20012aca <metal_lc12_interrupt_vector_handler>

200141f4 <IRQ_LC13>:
IRQ_LC13():
/home/nicoladgg/wsFreedomStudio/sifive_hifive1_revb_hello/freedom-metal/src/vector.S:154
200141f4:	969fe06f          	j	20012b5c <metal_lc13_interrupt_vector_handler>

200141f8 <IRQ_LC14>:
IRQ_LC14():
/home/nicoladgg/wsFreedomStudio/sifive_hifive1_revb_hello/freedom-metal/src/vector.S:156
200141f8:	9f7fe06f          	j	20012bee <metal_lc14_interrupt_vector_handler>

200141fc <IRQ_LC15>:
IRQ_LC15():
/home/nicoladgg/wsFreedomStudio/sifive_hifive1_revb_hello/freedom-metal/src/vector.S:158
200141fc:	a85fe06f          	j	20012c80 <metal_lc15_interrupt_vector_handler>

20014200 <__metal_driver_fixed_clock_rate>:
__metal_driver_fixed_clock_rate():
/home/nicoladgg/wsFreedomStudio/sifive_hifive1_revb_hello/bsp/build/debug/./metal/machine.h:208
20014200:	1101                	addi	sp,sp,-32
20014202:	ce22                	sw	s0,28(sp)
20014204:	1000                	addi	s0,sp,32
20014206:	fea42623          	sw	a0,-20(s0)
/home/nicoladgg/wsFreedomStudio/sifive_hifive1_revb_hello/bsp/build/debug/./metal/machine.h:209
2001420a:	fec42703          	lw	a4,-20(s0)
2001420e:	800007b7          	lui	a5,0x80000
20014212:	06078793          	addi	a5,a5,96 # 80000060 <__global_pointer$+0xfffff3d8>
20014216:	00f71763          	bne	a4,a5,20014224 <__metal_driver_fixed_clock_rate+0x24>
/home/nicoladgg/wsFreedomStudio/sifive_hifive1_revb_hello/bsp/build/debug/./metal/machine.h:210
2001421a:	00f427b7          	lui	a5,0xf42
2001421e:	40078793          	addi	a5,a5,1024 # f42400 <__heap_size+0xf41c00>
20014222:	a099                	j	20014268 <__metal_driver_fixed_clock_rate+0x68>
/home/nicoladgg/wsFreedomStudio/sifive_hifive1_revb_hello/bsp/build/debug/./metal/machine.h:212
20014224:	fec42703          	lw	a4,-20(s0)
20014228:	800007b7          	lui	a5,0x80000
2001422c:	06c78793          	addi	a5,a5,108 # 8000006c <__global_pointer$+0xfffff3e4>
20014230:	00f71763          	bne	a4,a5,2001423e <__metal_driver_fixed_clock_rate+0x3e>
/home/nicoladgg/wsFreedomStudio/sifive_hifive1_revb_hello/bsp/build/debug/./metal/machine.h:213
20014234:	044aa7b7          	lui	a5,0x44aa
20014238:	20078793          	addi	a5,a5,512 # 44aa200 <__heap_size+0x44a9a00>
2001423c:	a035                	j	20014268 <__metal_driver_fixed_clock_rate+0x68>
/home/nicoladgg/wsFreedomStudio/sifive_hifive1_revb_hello/bsp/build/debug/./metal/machine.h:215
2001423e:	fec42703          	lw	a4,-20(s0)
20014242:	800007b7          	lui	a5,0x80000
20014246:	07878793          	addi	a5,a5,120 # 80000078 <__global_pointer$+0xfffff3f0>
2001424a:	00f71463          	bne	a4,a5,20014252 <__metal_driver_fixed_clock_rate+0x52>
/home/nicoladgg/wsFreedomStudio/sifive_hifive1_revb_hello/bsp/build/debug/./metal/machine.h:216
2001424e:	67a1                	lui	a5,0x8
20014250:	a821                	j	20014268 <__metal_driver_fixed_clock_rate+0x68>
/home/nicoladgg/wsFreedomStudio/sifive_hifive1_revb_hello/bsp/build/debug/./metal/machine.h:218
20014252:	fec42703          	lw	a4,-20(s0)
20014256:	800007b7          	lui	a5,0x80000
2001425a:	08478793          	addi	a5,a5,132 # 80000084 <__global_pointer$+0xfffff3fc>
2001425e:	00f71463          	bne	a4,a5,20014266 <__metal_driver_fixed_clock_rate+0x66>
/home/nicoladgg/wsFreedomStudio/sifive_hifive1_revb_hello/bsp/build/debug/./metal/machine.h:219
20014262:	67a1                	lui	a5,0x8
20014264:	a011                	j	20014268 <__metal_driver_fixed_clock_rate+0x68>
/home/nicoladgg/wsFreedomStudio/sifive_hifive1_revb_hello/bsp/build/debug/./metal/machine.h:222
20014266:	4781                	li	a5,0
/home/nicoladgg/wsFreedomStudio/sifive_hifive1_revb_hello/bsp/build/debug/./metal/machine.h:224
20014268:	853e                	mv	a0,a5
2001426a:	4472                	lw	s0,28(sp)
2001426c:	6105                	addi	sp,sp,32
2001426e:	8082                	ret

20014270 <__metal_driver_fixed_clock_get_rate_hz>:
__metal_driver_fixed_clock_get_rate_hz():
/home/nicoladgg/wsFreedomStudio/sifive_hifive1_revb_hello/freedom-metal/src/drivers/fixed-clock.c:12
20014270:	1101                	addi	sp,sp,-32
20014272:	ce06                	sw	ra,28(sp)
20014274:	cc22                	sw	s0,24(sp)
20014276:	1000                	addi	s0,sp,32
20014278:	fea42623          	sw	a0,-20(s0)
/home/nicoladgg/wsFreedomStudio/sifive_hifive1_revb_hello/freedom-metal/src/drivers/fixed-clock.c:13
2001427c:	fec42503          	lw	a0,-20(s0)
20014280:	3741                	jal	20014200 <__metal_driver_fixed_clock_rate>
20014282:	87aa                	mv	a5,a0
/home/nicoladgg/wsFreedomStudio/sifive_hifive1_revb_hello/freedom-metal/src/drivers/fixed-clock.c:14
20014284:	853e                	mv	a0,a5
20014286:	40f2                	lw	ra,28(sp)
20014288:	4462                	lw	s0,24(sp)
2001428a:	6105                	addi	sp,sp,32
2001428c:	8082                	ret

2001428e <__metal_driver_fixed_clock_set_rate_hz>:
__metal_driver_fixed_clock_set_rate_hz():
/home/nicoladgg/wsFreedomStudio/sifive_hifive1_revb_hello/freedom-metal/src/drivers/fixed-clock.c:17
2001428e:	1101                	addi	sp,sp,-32
20014290:	ce06                	sw	ra,28(sp)
20014292:	cc22                	sw	s0,24(sp)
20014294:	1000                	addi	s0,sp,32
20014296:	fea42623          	sw	a0,-20(s0)
2001429a:	feb42423          	sw	a1,-24(s0)
/home/nicoladgg/wsFreedomStudio/sifive_hifive1_revb_hello/freedom-metal/src/drivers/fixed-clock.c:18
2001429e:	fec42503          	lw	a0,-20(s0)
200142a2:	37f9                	jal	20014270 <__metal_driver_fixed_clock_get_rate_hz>
200142a4:	87aa                	mv	a5,a0
/home/nicoladgg/wsFreedomStudio/sifive_hifive1_revb_hello/freedom-metal/src/drivers/fixed-clock.c:19
200142a6:	853e                	mv	a0,a5
200142a8:	40f2                	lw	ra,28(sp)
200142aa:	4462                	lw	s0,24(sp)
200142ac:	6105                	addi	sp,sp,32
200142ae:	8082                	ret

200142b0 <_exit>:
_exit():
/home/nicoladgg/wsFreedomStudio/sifive_hifive1_revb_hello/freedom-metal/gloss/sys_exit.c:3
200142b0:	1101                	addi	sp,sp,-32
200142b2:	ce06                	sw	ra,28(sp)
200142b4:	cc22                	sw	s0,24(sp)
200142b6:	1000                	addi	s0,sp,32
200142b8:	fea42623          	sw	a0,-20(s0)
/home/nicoladgg/wsFreedomStudio/sifive_hifive1_revb_hello/freedom-metal/gloss/sys_exit.c:4
200142bc:	fec42503          	lw	a0,-20(s0)
200142c0:	3565                	jal	20014168 <metal_shutdown>
