
/home/nicoladgg/wsFreedomStudio/SiFive_HiFive_RevB_Projects/src/debug/main.elf:     file format elf32-littleriscv
/home/nicoladgg/wsFreedomStudio/SiFive_HiFive_RevB_Projects/src/debug/main.elf
architecture: riscv:rv32, flags 0x00000112:
EXEC_P, HAS_SYMS, D_PAGED
start address 0x20010000

Program Header:
    LOAD off    0x00001000 vaddr 0x20010000 paddr 0x20010000 align 2**12
         filesz 0x00000fd4 memsz 0x00000fd4 flags rwx
    LOAD off    0x00009000 vaddr 0x80000000 paddr 0x200173b0 align 2**12
         filesz 0x00000ac8 memsz 0x00000ac8 flags rw-
     TLS off    0x00000000 vaddr 0x00000000 paddr 0x00000000 align 2**2
         filesz 0x00000000 memsz 0x00000000 flags ---
    LOAD off    0x00000ac8 vaddr 0x80000ac8 paddr 0x80000ac8 align 2**12
         filesz 0x00000000 memsz 0x00000cb8 flags rw-
    LOAD off    0x00000114 vaddr 0x00000000 paddr 0x00000000 align 2**12
         filesz 0x00000000 memsz 0x00000000 flags ---
    LOAD off    0x00002000 vaddr 0x20011000 paddr 0x20011000 align 2**12
         filesz 0x000063b0 memsz 0x000063b0 flags r-x
    LOAD off    0x00000114 vaddr 0x00000000 paddr 0x00000000 align 2**12
         filesz 0x00000000 memsz 0x00000000 flags ---

Sections:
Idx Name              Size      VMA       LMA       File off  Algn  Flags
  0 .init             000002dc  20010000  20010000  00001000  2**4  CONTENTS, ALLOC, LOAD, READONLY, CODE
  1 .init_array       0000000c  200102e0  200102e0  000012e0  2**3  CONTENTS, ALLOC, LOAD, DATA
  2 .ctors            0000007a  200102ec  200102ec  000012ec  2**1  CONTENTS, ALLOC, LOAD, READONLY, CODE
  3 .rodata           00000c64  20010370  20010370  00001370  2**4  CONTENTS, ALLOC, LOAD, READONLY, DATA
  4 .text             000063b0  20011000  20011000  00002000  2**7  CONTENTS, ALLOC, LOAD, READONLY, CODE
  5 .data             00000ac8  80000000  200173b0  00009000  2**3  CONTENTS, ALLOC, LOAD, DATA
  6 .bss              000000ac  80000ac8  80000ac8  00009ac8  2**3  ALLOC
  7 .stack            00000400  80000b80  80000b80  00009ac8  2**4  ALLOC
  8 .heap             00000800  80000f80  80000f80  00009ac8  2**3  ALLOC
  9 .debug_info       0001ff73  00000000  00000000  00009ac8  2**0  CONTENTS, READONLY, DEBUGGING, OCTETS
 10 .debug_abbrev     00002ad7  00000000  00000000  00029a3b  2**0  CONTENTS, READONLY, DEBUGGING, OCTETS
 11 .debug_aranges    00000bd0  00000000  00000000  0002c518  2**3  CONTENTS, READONLY, DEBUGGING, OCTETS
 12 .debug_ranges     000009f0  00000000  00000000  0002d0e8  2**3  CONTENTS, READONLY, DEBUGGING, OCTETS
 13 .debug_line       0000bfb9  00000000  00000000  0002dad8  2**0  CONTENTS, READONLY, DEBUGGING, OCTETS
 14 .debug_str        00004f6d  00000000  00000000  00039a91  2**0  CONTENTS, READONLY, DEBUGGING, OCTETS
 15 .comment          00000030  00000000  00000000  0003e9fe  2**0  CONTENTS, READONLY
 16 .riscv.attributes 0000002f  00000000  00000000  0003ea2e  2**0  CONTENTS, READONLY
 17 .debug_frame      00002fe8  00000000  00000000  0003ea60  2**2  CONTENTS, READONLY, DEBUGGING, OCTETS
SYMBOL TABLE:
20010000 l    d  .init	00000000 .init
200102e0 l    d  .init_array	00000000 .init_array
200102ec l    d  .ctors	00000000 .ctors
20010370 l    d  .rodata	00000000 .rodata
20011000 l    d  .text	00000000 .text
80000000 l    d  .data	00000000 .data
80000ac8 l    d  .bss	00000000 .bss
80000b80 l    d  .stack	00000000 .stack
80000f80 l    d  .heap	00000000 .heap
00000000 l    d  .debug_info	00000000 .debug_info
00000000 l    d  .debug_abbrev	00000000 .debug_abbrev
00000000 l    d  .debug_aranges	00000000 .debug_aranges
00000000 l    d  .debug_ranges	00000000 .debug_ranges
00000000 l    d  .debug_line	00000000 .debug_line
00000000 l    d  .debug_str	00000000 .debug_str
00000000 l    d  .comment	00000000 .comment
00000000 l    d  .riscv.attributes	00000000 .riscv.attributes
00000000 l    d  .debug_frame	00000000 .debug_frame
00000000 l    df *ABS*	00000000 scrub.o
200100c0 l     F .init	00000000 __metal_memory_scrub
2001012e l       .init	00000000 skip_scrub
00000000 l    df *ABS*	00000000 synchronize_harts.c
00000000 l    df *ABS*	00000000 crt0.o
20010240 l       .init	00000000 _skip_init
20010f98 l       .rodata	00000000 argv
20010f9c l       .rodata	00000000 envp
20010fa0 l       .rodata	00000000 name
00000000 l    df *ABS*	00000000 sifive_fe310-g000_pll.c
2001521e l     F .text	0000001a __metal_driver_sifive_fe310_g000_pll_pllsel0
20015238 l     F .text	0000001a __metal_driver_sifive_fe310_g000_pll_pllref
20015252 l     F .text	00000016 __metal_driver_sifive_fe310_g000_pll_divider_base
20015268 l     F .text	00000014 __metal_driver_sifive_fe310_g000_pll_divider_offset
2001527c l     F .text	00000012 __metal_driver_sifive_fe310_g000_pll_config_base
2001528e l     F .text	00000010 __metal_driver_sifive_fe310_g000_pll_config_offset
2001529e l     F .text	00000016 __metal_driver_sifive_fe310_g000_pll_init_rate
200152b4 l     F .text	00000012 __metal_driver_sifive_fe310_g000_prci_base
200152c6 l     F .text	00000016 __metal_driver_sifive_fe310_g000_prci_vtable
20010650 l     O .rodata	00000880 pll_configs
200152dc l     F .text	0000004e get_pll_config_freq
2001553e l     F .text	000000ac find_closest_config
200155ea l     F .text	000001b0 configure_pll
00000000 l    df *ABS*	00000000 tty.c
00000000 l    df *ABS*	00000000 main.c
80000ac8 l     O .bss	00000008 uart_active
00000000 l    df *ABS*	00000000 findfp.c
20011e82 l     F .text	00000068 std
00000000 l    df *ABS*	00000000 riscv_clint0.c
2001264a l     F .text	0000002a __metal_driver_sifive_clint0_control_base
20012674 l     F .text	00000028 __metal_driver_sifive_clint0_num_interrupts
2001269c l     F .text	0000003c __metal_driver_sifive_clint0_interrupt_parents
200126d8 l     F .text	00000030 __metal_driver_sifive_clint0_interrupt_lines
20012838 l     F .text	00000032 _get_cpu_intc
00000000 l    df *ABS*	00000000 riscv_cpu.c
20012d72 l     F .text	00000024 __metal_driver_cpu_hartid
20012d96 l     F .text	0000002a __metal_driver_cpu_timebase
20012dc0 l     F .text	0000002a __metal_driver_cpu_interrupt_controller
20012dea l     F .text	00000024 __metal_driver_cpu_buserror
00000000 l    df *ABS*	00000000 riscv_plic0.c
2001476e l     F .text	0000002a __metal_driver_sifive_plic0_control_base
20014798 l     F .text	0000002a __metal_driver_sifive_plic0_num_interrupts
200147c2 l     F .text	00000028 __metal_driver_sifive_plic0_max_priority
200147ea l     F .text	00000028 __metal_driver_sifive_plic0_interrupt_parents
20014812 l     F .text	00000022 __metal_driver_sifive_plic0_interrupt_lines
20014834 l     F .text	0000001e __metal_driver_sifive_plic0_context_ids
00000000 l    df *ABS*	00000000 sifive_gpio0.c
20015978 l     F .text	00000026 __metal_driver_sifive_gpio0_base
2001599e l     F .text	0000002a __metal_driver_sifive_gpio0_interrupt_parent
200159c8 l     F .text	0000035e __metal_driver_sifive_gpio0_interrupt_lines
00000000 l    df *ABS*	00000000 sifive_uart0.c
200163d6 l     F .text	00000040 __metal_driver_sifive_uart0_control_base
20016416 l     F .text	00000048 __metal_driver_sifive_uart0_interrupt_parent
2001645e l     F .text	0000003c __metal_driver_sifive_uart0_interrupt_line
2001649a l     F .text	00000048 __metal_driver_sifive_uart0_clock
200164e2 l     F .text	00000040 __metal_driver_sifive_uart0_pinmux
20016522 l     F .text	0000003c __metal_driver_sifive_uart0_pinmux_output_selector
2001655e l     F .text	00000040 __metal_driver_sifive_uart0_pinmux_source_selector
2001693e l     F .text	000000da pre_rate_change_callback_func
20016a18 l     F .text	0000002e post_rate_change_callback_func
00000000 l    df *ABS*	00000000 impure.c
80000000 l     O .data	00000060 impure_data
00000000 l    df *ABS*	00000000 sifive_fe310-g000_hfrosc.c
2001502e l     F .text	0000001a __metal_driver_sifive_fe310_g000_hfrosc_ref
20015048 l     F .text	00000016 __metal_driver_sifive_fe310_g000_hfrosc_config_base
2001505e l     F .text	00000014 __metal_driver_sifive_fe310_g000_hfrosc_config_offset
20015072 l     F .text	00000016 __metal_driver_sifive_fe310_g000_prci_vtable
00000000 l    df *ABS*	00000000 sifive_fe310-g000_hfxosc.c
2001512e l     F .text	0000001a __metal_driver_sifive_fe310_g000_hfxosc_ref
20015148 l     F .text	00000016 __metal_driver_sifive_fe310_g000_hfxosc_config_base
2001515e l     F .text	00000014 __metal_driver_sifive_fe310_g000_hfxosc_config_offset
20015172 l     F .text	00000016 __metal_driver_sifive_fe310_g000_prci_vtable
00000000 l    df *ABS*	00000000 sifive_fe310-g000_prci.c
20015900 l     F .text	00000012 __metal_driver_sifive_fe310_g000_prci_base
00000000 l    df *ABS*	00000000 fixed-clock.c
20016e00 l     F .text	00000070 __metal_driver_fixed_clock_rate
00000000 l    df *ABS*	00000000 putchar.c
00000000 l    df *ABS*	00000000 putc.c
00000000 l    df *ABS*	00000000 puts.c
00000000 l    df *ABS*	00000000 wbuf.c
00000000 l    df *ABS*	00000000 wsetup.c
00000000 l    df *ABS*	00000000 fflush.c
00000000 l    df *ABS*	00000000 fwalk.c
00000000 l    df *ABS*	00000000 makebuf.c
00000000 l    df *ABS*	00000000 nano-mallocr.c
00000000 l    df *ABS*	00000000 nano-mallocr.c
00000000 l    df *ABS*	00000000 sbrkr.c
00000000 l    df *ABS*	00000000 stdio.c
00000000 l    df *ABS*	00000000 writer.c
00000000 l    df *ABS*	00000000 closer.c
00000000 l    df *ABS*	00000000 fstatr.c
00000000 l    df *ABS*	00000000 isattyr.c
00000000 l    df *ABS*	00000000 lseekr.c
00000000 l    df *ABS*	00000000 mlock.c
00000000 l    df *ABS*	00000000 readr.c
00000000 l    df *ABS*	00000000 cpu.c
00000000 l    df *ABS*	00000000 clock.c
00000000 l    df *ABS*	00000000 shutdown.c
00000000 l    df *ABS*	00000000 uart.c
00000000 l    df *ABS*	00000000 vector.o
20016d80 l       .text	00000000 IRQ_0
20016d84 l       .text	00000000 IRQ_1
20016d88 l       .text	00000000 IRQ_2
20016d8c l       .text	00000000 IRQ_3
20016d90 l       .text	00000000 IRQ_4
20016d94 l       .text	00000000 IRQ_5
20016d98 l       .text	00000000 IRQ_6
20016d9c l       .text	00000000 IRQ_7
20016da0 l       .text	00000000 IRQ_8
20016da4 l       .text	00000000 IRQ_9
20016da8 l       .text	00000000 IRQ_10
20016dac l       .text	00000000 IRQ_11
20016db0 l       .text	00000000 IRQ_12
20016db4 l       .text	00000000 IRQ_13
20016db8 l       .text	00000000 IRQ_14
20016dbc l       .text	00000000 IRQ_15
20016dc0 l       .text	00000000 IRQ_LC0
20016dc4 l       .text	00000000 IRQ_LC1
20016dc8 l       .text	00000000 IRQ_LC2
20016dcc l       .text	00000000 IRQ_LC3
20016dd0 l       .text	00000000 IRQ_LC4
20016dd4 l       .text	00000000 IRQ_LC5
20016dd8 l       .text	00000000 IRQ_LC6
20016ddc l       .text	00000000 IRQ_LC7
20016de0 l       .text	00000000 IRQ_LC8
20016de4 l       .text	00000000 IRQ_LC9
20016de8 l       .text	00000000 IRQ_LC10
20016dec l       .text	00000000 IRQ_LC11
20016df0 l       .text	00000000 IRQ_LC12
20016df4 l       .text	00000000 IRQ_LC13
20016df8 l       .text	00000000 IRQ_LC14
20016dfc l       .text	00000000 IRQ_LC15
00000000 l    df *ABS*	00000000 sys_close.c
00000000 l    df *ABS*	00000000 sys_fstat.c
00000000 l    df *ABS*	00000000 sys_isatty.c
00000000 l    df *ABS*	00000000 sys_lseek.c
00000000 l    df *ABS*	00000000 sys_read.c
00000000 l    df *ABS*	00000000 sys_sbrk.c
80000ac4 l     O .data	00000004 __brk
00000000 l    df *ABS*	00000000 sys_write.c
00000000 l    df *ABS*	00000000 atexit.c
00000000 l    df *ABS*	00000000 errno.c
00000000 l    df *ABS*	00000000 exit.c
00000000 l    df *ABS*	00000000 fini.c
00000000 l    df *ABS*	00000000 init.c
00000000 l    df *ABS*	00000000 __atexit.c
80000ae8 l     O .bss	0000008c _global_atexit0
00000000 l    df *ABS*	00000000 __call_atexit.c
00000000 l    df *ABS*	00000000 init.c
80000ae0 l     O .bss	00000004 init_done.1
80000ae4 l     O .bss	00000004 fini_done.0
00000000 l    df *ABS*	00000000 sys_exit.c
00000000 l    df *ABS*	00000000 inline.c
00000000 l    df *ABS*	00000000 
200102ec l       .init_array	00000000 metal_constructors_end
200102f0 l       .init_array	00000000 __fini_array_end
200102f0 l       .init_array	00000000 metal_destructors_end
200102f0 l       .init_array	00000000 metal_destructors_start
200102f0 l       .init_array	00000000 __fini_array_start
200102e0 l       .init_array	00000000 __init_array_end
200102e0 l       .init_array	00000000 __preinit_array_end
200102e0 l       .init_array	00000000 __init_array_start
200102e0 l       .init_array	00000000 metal_constructors_start
200102e0 l       .init_array	00000000 __preinit_array_start
2001197c g     F .text	0000002a putchar
20010f58 g     O .rodata	00000040 __metal_driver_vtable_sifive_uart0
20012540 g     F .text	00000030 _isatty_r
20013650  w    F .text	00000096 metal_lc4_interrupt_vector_handler
20011a28 g     F .text	000000da _puts_r
20012570 g     F .text	00000034 _lseek_r
20016bac g     F .text	00000026 metal_clock_get_rate_hz
2001689e g     F .text	000000a0 __metal_driver_sifive_uart0_set_baud_rate
20012a10 g     F .text	00000058 __metal_driver_riscv_clint0_set_vector_mode
200166f2 g     F .text	0000004a __metal_driver_sifive_uart0_set_tx_watermark
200135ba  w    F .text	00000096 metal_lc3_interrupt_vector_handler
20013e62 g     F .text	00000058 __metal_valid_interrupt_id
200102e4 g     O .init_array	00000004 _use_hfxosc_ptr
200142de g     F .text	0000001c __metal_driver_riscv_cpu_controller_get_vector_mode
800012a0 g       .data	00000000 __global_pointer$
20010342 g     F .ctors	00000024 metal_tty_init
20016b58 g     F .text	00000054 _metal_clock_append_to_callbacks
2001488e g     F .text	00000046 __metal_plic0_complete_interrupt
200140a6 g     F .text	000001e0 __metal_driver_riscv_cpu_controller_interrupt_register
200102e0 g     O .init_array	00000004 _metal_sifive_fe310_g000_pll_init_ptr
2001246e g     F .text	00000036 __sseek
20011f38 g     F .text	0000006a __sinit
20011b0e g     F .text	000000c0 __swbuf_r
80000ac8 g       .data	00000000 __tls_base
20011ef4 g     F .text	00000044 __sfmoreglue
200125a6 g     F .text	00000002 __malloc_unlock
20012602 g     F .text	0000002e metal_cpu_get
80000a38 g     O .data	00000020 __metal_dt_serial_10013000
20015fb0 g     F .text	0000004a __metal_driver_sifive_gpio0_disable_io
20010460 g     O .rodata	00000064 __metal_driver_vtable_riscv_clint0
80000b74 g       .bss	00000000 metal_segment_bss_target_end
20012708 g     F .text	0000009a __metal_clint0_mtime_get
200146e2 g     F .text	0000002e __metal_driver_cpu_get_instruction_length
00000001 g       *ABS*	00000000 __metal_chicken_bit
200167b6 g     F .text	00000030 __metal_driver_sifive_uart0_get_rx_watermark
20015d66 g     F .text	00000046 __metal_driver_sifive_gpio0_disable_input
2001704e g     F .text	0000000a __errno
08000000 g       .rodata	00000000 metal_segment_itim_target_start
200166c2 g     F .text	00000030 __metal_driver_sifive_uart0_txready
20016650 g     F .text	0000003a __metal_driver_sifive_uart0_rx_interrupt_enable
20010142 g     F .init	0000000e __metal_synchronize_harts
80000ac8 g       .data	00000000 metal_segment_bss_target_start
200127a2 g     F .text	00000096 __metal_driver_riscv_clint0_mtimecmp_set
2001250e g     F .text	00000032 _fstat_r
20016200 g     F .text	00000188 __metal_driver_sifive_gpio0_clear_int
80000ad8 g     O .bss	00000004 errno
200153ce g     F .text	00000170 __metal_driver_sifive_fe310_g000_pll_get_rate_hz
00000400 g       *ABS*	00000000 __stack_size
20016c1e g     F .text	00000032 metal_clock_register_pre_rate_change_callback
2001393e  w    F .text	00000096 metal_lc9_interrupt_vector_handler
200100cc  w    F .init	00000000 __metal_before_start
20017348  w    F .text	00000016 metal_init_run
80000a58 g     O .data	00000020 __metal_dt_serial_10023000
200105ec g     O .rodata	00000064 __metal_driver_vtable_riscv_plic0
200105a8 g     O .rodata	00000044 __metal_driver_vtable_cpu
20016cea g     F .text	0000002e metal_uart_set_baud_rate
20016a46 g     F .text	000000d0 __metal_driver_sifive_uart0_init
00000000 g       *ABS*	00000000 __metal_eccscrub_bit
2001436a g     F .text	00000070 __metal_driver_cpu_mcycle_get
20010ed0 g     O .rodata	0000000c __metal_driver_vtable_sifive_fe310_g000_pll
80000f80 g       .heap	00000000 metal_segment_heap_target_start
20011eea g     F .text	0000000a _cleanup_r
80000ab4 g     O .data	00000008 __metal_dt_cpu_0
200138a8  w    F .text	00000096 metal_lc8_interrupt_vector_handler
2001579a g     F .text	00000166 __metal_driver_sifive_fe310_g000_pll_set_rate_hz
20014f92 g     F .text	00000074 __metal_driver_riscv_plic0_affinity_set_threshold
20011b02 g     F .text	0000000c puts
20013b96  w    F .text	00000096 metal_lc13_interrupt_vector_handler
20012f7c g     F .text	00000018 __metal_default_exception_handler
20016ed2 g     F .text	00000026 _fstat
20011030 g     F .text	000001a4 spi_init
20012d3e g     F .text	00000034 __metal_driver_riscv_clint0_set_interrupt
200142fa g     F .text	00000054 __metal_driver_riscv_cpu_controller_set_vector_mode
20012e0e g     F .text	00000030 __metal_driver_cpu_get
20010544 g     O .rodata	00000064 __metal_driver_vtable_riscv_cpu_intc
20012e70 g     F .text	00000018 __metal_interrupt_global_disable
20015006 g     F .text	00000028 __metal_driver_riscv_plic0_affinity_get_threshold
20013812  w    F .text	00000096 metal_lc7_interrupt_vector_handler
200139d4  w    F .text	00000096 metal_lc10_interrupt_vector_handler
200123c0 g     F .text	00000030 _sbrk_r
20014db2 g     F .text	00000050 __metal_driver_riscv_plic0_disable
20013f76 g     F .text	0000004e __metal_exception_register
20017258 g     F .text	00000078 metal_init
200125a8 g     F .text	00000034 _read_r
200144fc g     F .text	0000001a __metal_driver_cpu_timer_controller_interrupt
20015e48 g     F .text	00000040 __metal_driver_sifive_gpio0_enable_output
80000000 g       .rodata	00000000 metal_segment_lim_target_end
2001306c g     F .text	00000068 __metal_default_sw_handler
20016c50 g     F .text	00000032 metal_clock_register_post_rate_change_callback
8000006c g     O .data	0000000c __metal_dt_clock_2
2001659e g     F .text	00000020 __metal_driver_sifive_uart0_interrupt_controller
20016ef8 g     F .text	00000020 _isatty
20015f0e g     F .text	00000040 __metal_driver_sifive_gpio0_output_toggle
200165de g     F .text	0000003a __metal_driver_sifive_uart0_tx_interrupt_enable
20010fcc g     O .rodata	00000008 __metal_driver_vtable_fixed_clock
20010fb0 g     O .rodata	00000004 _global_impure_ptr
200130d4  w    F .text	00000092 metal_timer_interrupt_vector_handler
200170b6 g     F .text	0000005e __libc_init_array
20015e88 g     F .text	00000040 __metal_driver_sifive_gpio0_output_set
20013a6a  w    F .text	00000096 metal_lc11_interrupt_vector_handler
200151fc g     F .text	00000022 __metal_driver_sifive_fe310_g000_hfxosc_set_rate_hz
20014286 g     F .text	0000002c __metal_driver_riscv_cpu_controller_interrupt_enable
20016f6c g     F .text	0000006a _sbrk
20015e02 g     F .text	00000046 __metal_driver_sifive_gpio0_disable_output
20016b16 g     F .text	00000042 _metal_clock_call_all_callbacks
200102ba g     F .init	00000002 _init
20012ed2 g     F .text	0000001a __metal_interrupt_timer_disable
20015ffa g     F .text	00000206 __metal_driver_sifive_gpio0_config_int
200145ba g     F .text	00000062 __metal_driver_cpu_clear_sw_ipi
80000aa0 g     O .data	00000004 cpu_freq
20010f1c g     O .rodata	0000003c __metal_driver_vtable_sifive_gpio0
20016618 g     F .text	00000038 __metal_driver_sifive_uart0_tx_interrupt_disable
20015f4e g     F .text	00000062 __metal_driver_sifive_gpio0_enable_io
20017080 g     F .text	00000036 __libc_fini_array
80000a90 g     O .data	0000000c __metal_dt_clock_4
200172d0 g     F .text	00000078 metal_fini
20016388 g     F .text	00000020 __metal_driver_gpio_interrupt_controller
20014544 g     F .text	00000014 __metal_driver_cpu_get_sw_interrupt_id
2001474e g     F .text	00000020 __metal_driver_cpu_get_buserror
80000000 g       .data	00000000 metal_segment_data_target_start
20012f24 g     F .text	0000002c __metal_interrupt_local_enable
20012d0a g     F .text	00000034 __metal_driver_riscv_clint0_clear_interrupt
20017374 g     F .text	00000028 metal_tty_putc
20014a8c g     F .text	00000018 __metal_plic0_default_handler
20016fd6  w    F .text	0000006e write
200119a6 g     F .text	00000082 _putc_r
00000000 g       *ABS*	00000000 __tbss_size
80000060 g     O .data	0000000c __metal_dt_clock_0
00000800 g       *ABS*	00000000 __heap_size
20014e02 g     F .text	00000030 __metal_driver_riscv_plic0_set_threshold
20013166 g     F .text	00000016 __metal_default_beu_handler
20010400 g     O .rodata	00000020 __sf_fake_stderr
20012f08 g     F .text	0000001c __metal_interrupt_external_disable
200165be g     F .text	00000020 __metal_driver_sifive_uart0_get_interrupt_id
20011354 g     F .text	0000008a spi_send_multiple
2001434e g     F .text	0000001c __metal_driver_riscv_cpu_controller_command_request
20013fc4 g     F .text	000000e2 __metal_driver_riscv_cpu_controller_interrupt_init
200114b0 g     F .text	00000282 uart_init
2001469c g     F .text	00000046 __metal_driver_cpu_exception_register
20012e88 g     F .text	00000018 __metal_interrupt_software_enable
2001348e  w    F .text	00000096 metal_lc1_interrupt_vector_handler
20012246 g     F .text	000000a2 _free_r
80000adc g     O .bss	00000004 _global_atexit
20014954 g     F .text	00000062 __metal_driver_riscv_plic0_set_priority
20013d58 g     F .text	00000058 __metal_controller_interrupt_vector_mode
20017190 g     F .text	000000c8 __call_exitprocs
80000f80 g       .stack	00000000 _sp
200102e8 g     O .init_array	00000004 _metal_tty_init_ptr
20010150 g     F .init	00000000 _start
20015088 g     F .text	00000084 __metal_driver_sifive_fe310_g000_hfrosc_get_rate_hz
20016f18 g     F .text	0000002a _lseek
2001467c g     F .text	00000020 __metal_driver_cpu_controller_interrupt
20014710 g     F .text	0000001e __metal_driver_cpu_get_exception_pc
20012eec g     F .text	0000001c __metal_interrupt_external_enable
20017114 g     F .text	0000007c __register_exitproc
200167e6 g     F .text	00000042 __metal_driver_sifive_uart0_putc
20014b48 g     F .text	00000158 __metal_driver_riscv_plic0_init
20014d62 g     F .text	00000050 __metal_driver_riscv_plic0_enable
20015dd6 g     F .text	0000002c __metal_driver_sifive_gpio0_output
2001377c  w    F .text	00000096 metal_lc6_interrupt_vector_handler
20012e3e g     F .text	0000001a __metal_myhart_id
200163a8 g     F .text	0000002e __metal_driver_gpio_get_interrupt_id
20012fda  w    F .text	00000092 metal_software_interrupt_vector_handler
200142b2 g     F .text	0000002c __metal_driver_riscv_cpu_controller_interrupt_disable
200124de g     F .text	00000030 _close_r
2001687e g     F .text	00000020 __metal_driver_sifive_uart0_get_baud_rate
200128f2 g     F .text	000000da __metal_driver_riscv_clint0_register
80000aac g     O .data	00000008 __metal_dt_clint_2000000
20011bce g     F .text	0000010a __swsetup_r
20011fa2 g     F .text	0000009c __sfp
20016bd2 g     F .text	0000004c metal_clock_set_rate_hz
200123f0 g     F .text	00000030 __sread
20015d26 g     F .text	00000040 __metal_driver_sifive_gpio0_enable_input
200102bc  w    F .init	00000000 secondary_main
20012fac  w    F .text	0000002e metal_interrupt_vector_handler
200125a4 g     F .text	00000002 __malloc_lock
2001668a g     F .text	00000038 __metal_driver_sifive_uart0_rx_interrupt_disable
20011468 g     F .text	00000048 set_freq_320MHz
20011e1e g     F .text	00000064 _fflush_r
2001491a g     F .text	0000003a __metal_plic0_get_threshold
20015912 g     F .text	0000002e __metal_driver_sifive_fe310_g000_prci_get_reg
20010420 g     O .rodata	00000020 __sf_fake_stdin
20013eba g     F .text	000000bc __metal_local_interrupt_enable
20012bcc g     F .text	0000013e __metal_driver_riscv_clint0_command_request
2001219e g     F .text	000000a8 memset
200136e6  w    F .text	00000096 metal_lc5_interrupt_vector_handler
20011732 g     F .text	0000024a main
80000ac8 g       .data	00000000 metal_segment_data_target_end
2001676c g     F .text	0000004a __metal_driver_sifive_uart0_set_rx_watermark
20010fb4 g     O .rodata	00000008 __metal_driver_vtable_sifive_fe310_g000_hfrosc
20014558 g     F .text	00000062 __metal_driver_cpu_set_sw_ipi
2001461c g     F .text	00000060 __metal_driver_cpu_get_msip
20016c82 g     F .text	0000000e metal_shutdown
08000000 g       .rodata	00000000 metal_segment_itim_target_end
2001472e g     F .text	00000020 __metal_driver_cpu_set_exception_pc
20014852 g     F .text	0000003c __metal_plic0_claim_interrupt
2001673c g     F .text	00000030 __metal_driver_sifive_uart0_get_tx_watermark
200124a4 g     F .text	00000006 __sclose
20013b00  w    F .text	00000096 metal_lc12_interrupt_vector_handler
2001008a g     F .init	00000000 metal_mem_scrub
200122e8 g     F .text	000000d8 _malloc_r
200129f4 g     F .text	0000001c __metal_driver_riscv_clint0_get_vector_mode
80000ac0 g     O .data	00000004 __metal_dt_prci_10008000
200143da g     F .text	00000046 __metal_driver_cpu_timebase_get
20014ef6 g     F .text	0000009c __metal_driver_riscv_plic0_affinity_disable
20010000 g       .init	00000000 _enter
20012630 g     F .text	0000001a metal_cpu_get_current_hartid
20015188 g     F .text	00000074 __metal_driver_sifive_fe310_g000_hfxosc_get_rate_hz
20016d80 g       .text	00000000 __metal_vector_table
20010fd8 g       *ABS*	00000000 metal_segment_itim_source_start
80000aa8  w    O .data	00000004 __metal_cpu_table
20011000 g     F .text	00000030 delay
80000090 g     O .data	000003d0 __metal_dt_cpu_0_interrupt_controller
200102ba g     F .init	00000002 _fini
80000000 g       .rodata	00000000 metal_segment_lim_target_start
200149b6 g     F .text	00000034 __metal_driver_riscv_plic0_get_priority
20010318 g     F .ctors	0000002a use_hfxosc
20012e58 g     F .text	00000018 __metal_interrupt_global_enable
20017044 g     F .text	0000000a atexit
200124aa g     F .text	00000034 _write_r
20012eb8 g     F .text	0000001a __metal_interrupt_timer_enable
20016828 g     F .text	00000056 __metal_driver_sifive_uart0_getc
20012b1a g     F .text	000000b2 __metal_driver_riscv_clint0_disable
80000aa4 g     O .data	00000004 _impure_ptr
20014486 g     F .text	00000076 __metal_driver_cpu_mtimecmp_set
20011cd8 g     F .text	00000146 __sflush_r
20014e32 g     F .text	00000028 __metal_driver_riscv_plic0_get_threshold
2001532a g     F .text	000000a4 __metal_driver_sifive_fe310_g000_pll_init
80000078 g     O .data	0000000c __metal_dt_clock_5
20015940 g     F .text	00000038 __metal_driver_sifive_fe310_g000_prci_set_reg
20016e70 g     F .text	0000001e __metal_driver_fixed_clock_get_rate_hz
20012a68 g     F .text	000000b2 __metal_driver_riscv_clint0_enable
20010370 g     O .rodata	00000050 variant_pin_map
200173b0 g       *ABS*	00000000 metal_segment_data_source_start
20010134 g       .init	00000000 early_trap_vector
80001780 g       .heap	00000000 metal_segment_heap_target_end
20013db0 g     F .text	000000b2 __metal_controller_interrupt_vector
80000a84 g     O .data	0000000c __metal_dt_clock_1
80000460 g     O .data	000005d8 __metal_dt_interrupt_controller_c000000
200120a8 g     F .text	0000005a __swhatbuf_r
20015ec8 g     F .text	00000046 __metal_driver_sifive_gpio0_output_clear
200111d4 g     F .text	00000180 spi_set_cs
2001317c g     F .text	00000066 __metal_default_timer_handler
20016fd6 g     F .text	0000006e _write
20014aa4 g     F .text	000000a4 __metal_plic0_handler
20013524  w    F .text	00000096 metal_lc2_interrupt_vector_handler
20013cc2  w    F .text	00000096 metal_lc15_interrupt_vector_handler
200125dc g     F .text	00000026 metal_cpu_interrupt_controller
20012420 g     F .text	0000004e __swrite
20017058 g     F .text	00000028 exit
2001203e g     F .text	0000006a _fwalk_reent
20016e8e g     F .text	00000022 __metal_driver_fixed_clock_set_rate_hz
20010fd8 g       *ABS*	00000000 metal_segment_lim_source_start
20010440 g     O .rodata	00000020 __sf_fake_stdout
80000abc g     O .data	00000004 __metal_dt_gpio_10012000
20012f94 g     F .text	00000018 __metal_default_interrupt_handler
20016cbc g     F .text	0000002e metal_uart_putc
20016f42 g     F .text	0000002a _read
2001735e  w    F .text	00000016 metal_fini_run
20015dac g     F .text	0000002a __metal_driver_sifive_gpio0_input
20013200 g     F .text	0000017e __metal_exception_handler
200133f8  w    F .text	00000096 metal_lc0_interrupt_vector_handler
2001739c g     F .text	00000014 _exit
20014420 g     F .text	00000066 __metal_driver_cpu_mtime_get
200113de g     F .text	0000008a spi_receive_multiple
20012102 g     F .text	0000009c __smakebuf_r
200129cc g     F .text	00000028 __metal_driver_riscv_clint0_vector_register
80000ad4 g     O .bss	00000004 __malloc_sbrk_start
20013c2c  w    F .text	00000096 metal_lc14_interrupt_vector_handler
20010fbc g     O .rodata	00000008 __metal_driver_vtable_sifive_fe310_g000_hfxosc
2001286a g     F .text	00000088 __metal_driver_riscv_clint0_init
80000ad0 g     O .bss	00000004 __malloc_free_list
200102ec g     F .ctors	0000002c metal_sifive_fe310_g000_pll_init
20014516 g     F .text	00000014 __metal_driver_cpu_get_timer_interrupt_id
200149ea g     F .text	000000a2 __metal_plic0_enable
20010088  w      .init	00000000 __register_frame_info
2001510c g     F .text	00000022 __metal_driver_sifive_fe310_g000_hfrosc_set_rate_hz
2001452a g     F .text	0000001a __metal_driver_cpu_sw_controller_interrupt
20012f50 g     F .text	0000002c __metal_interrupt_local_disable
20012ea0 g     F .text	00000018 __metal_interrupt_software_disable
20016c90 g     F .text	0000002c metal_uart_init
80000a78 g     O .data	0000000c __metal_dt_clock_3
80000084 g     O .data	0000000c __metal_dt_clock_6
200148d4 g     F .text	00000046 __metal_plic0_set_threshold
20014e5a g     F .text	0000009c __metal_driver_riscv_plic0_affinity_enable
20016eb0 g     F .text	00000022 _close
20010fc4 g     O .rodata	00000008 __metal_driver_vtable_sifive_fe310_g000_prci
00000000 g       *ABS*	00000000 __metal_boot_hart
20014ca0 g     F .text	000000c2 __metal_driver_riscv_plic0_register



Disassembly of section .init:

20010000 <_enter>:
_enter():
/home/nicoladgg/wsFreedomStudio/sifive_hifive1_revb_hello/freedom-metal/src/entry.S:24
20010000:	5fff1197          	auipc	gp,0x5fff1
20010004:	2a018193          	addi	gp,gp,672 # 800012a0 <__global_pointer$>
/home/nicoladgg/wsFreedomStudio/sifive_hifive1_revb_hello/freedom-metal/src/entry.S:28
20010008:	00000297          	auipc	t0,0x0
2001000c:	01828293          	addi	t0,t0,24 # 20010020 <_enter+0x20>
/home/nicoladgg/wsFreedomStudio/sifive_hifive1_revb_hello/freedom-metal/src/entry.S:29
20010010:	30529073          	csrw	mtvec,t0
/home/nicoladgg/wsFreedomStudio/sifive_hifive1_revb_hello/freedom-metal/src/entry.S:31
20010014:	00100293          	li	t0,1
/home/nicoladgg/wsFreedomStudio/sifive_hifive1_revb_hello/freedom-metal/src/entry.S:32
20010018:	00028463          	beqz	t0,20010020 <_enter+0x20>
/home/nicoladgg/wsFreedomStudio/sifive_hifive1_revb_hello/freedom-metal/src/entry.S:34
2001001c:	7c105073          	csrwi	0x7c1,0
/home/nicoladgg/wsFreedomStudio/sifive_hifive1_revb_hello/freedom-metal/src/entry.S:39
20010020:	00000297          	auipc	t0,0x0
20010024:	11428293          	addi	t0,t0,276 # 20010134 <early_trap_vector>
/home/nicoladgg/wsFreedomStudio/sifive_hifive1_revb_hello/freedom-metal/src/entry.S:40
20010028:	30529073          	csrw	mtvec,t0
/home/nicoladgg/wsFreedomStudio/sifive_hifive1_revb_hello/freedom-metal/src/entry.S:48
2001002c:	00000113          	li	sp,0
/home/nicoladgg/wsFreedomStudio/sifive_hifive1_revb_hello/freedom-metal/src/entry.S:55
20010030:	00011463          	bnez	sp,20010038 <_enter+0x38>
/home/nicoladgg/wsFreedomStudio/sifive_hifive1_revb_hello/freedom-metal/src/entry.S:56
20010034:	ce018113          	addi	sp,gp,-800 # 80000f80 <_sp>
/home/nicoladgg/wsFreedomStudio/sifive_hifive1_revb_hello/freedom-metal/src/entry.S:59
20010038:	f1402573          	csrr	a0,mhartid
/home/nicoladgg/wsFreedomStudio/sifive_hifive1_revb_hello/freedom-metal/src/entry.S:60
2001003c:	4281                	li	t0,0
/home/nicoladgg/wsFreedomStudio/sifive_hifive1_revb_hello/freedom-metal/src/entry.S:61
2001003e:	40000313          	li	t1,1024
/home/nicoladgg/wsFreedomStudio/sifive_hifive1_revb_hello/freedom-metal/src/entry.S:63
20010042:	ff017113          	andi	sp,sp,-16
/home/nicoladgg/wsFreedomStudio/sifive_hifive1_revb_hello/freedom-metal/src/entry.S:64
20010046:	00a28563          	beq	t0,a0,20010050 <_enter+0x50>
/home/nicoladgg/wsFreedomStudio/sifive_hifive1_revb_hello/freedom-metal/src/entry.S:65
2001004a:	911a                	add	sp,sp,t1
/home/nicoladgg/wsFreedomStudio/sifive_hifive1_revb_hello/freedom-metal/src/entry.S:66
2001004c:	0285                	addi	t0,t0,1
/home/nicoladgg/wsFreedomStudio/sifive_hifive1_revb_hello/freedom-metal/src/entry.S:67
2001004e:	bfd5                	j	20010042 <_enter+0x42>
/home/nicoladgg/wsFreedomStudio/sifive_hifive1_revb_hello/freedom-metal/src/entry.S:76
20010050:	00000097          	auipc	ra,0x0
20010054:	07c08093          	addi	ra,ra,124 # 200100cc <__metal_before_start>
/home/nicoladgg/wsFreedomStudio/sifive_hifive1_revb_hello/freedom-metal/src/entry.S:77
20010058:	00008363          	beqz	ra,2001005e <_enter+0x5e>
/home/nicoladgg/wsFreedomStudio/sifive_hifive1_revb_hello/freedom-metal/src/entry.S:78
2001005c:	9082                	jalr	ra
/home/nicoladgg/wsFreedomStudio/sifive_hifive1_revb_hello/freedom-metal/src/entry.S:84
2001005e:	f1402573          	csrr	a0,mhartid
/home/nicoladgg/wsFreedomStudio/sifive_hifive1_revb_hello/freedom-metal/src/entry.S:85
20010062:	4581                	li	a1,0
/home/nicoladgg/wsFreedomStudio/sifive_hifive1_revb_hello/freedom-metal/src/entry.S:86
20010064:	4601                	li	a2,0
/home/nicoladgg/wsFreedomStudio/sifive_hifive1_revb_hello/freedom-metal/src/entry.S:87
20010066:	20ed                	jal	20010150 <_start>
/home/nicoladgg/wsFreedomStudio/sifive_hifive1_revb_hello/freedom-metal/src/entry.S:92
20010068:	00000093          	li	ra,0
/home/nicoladgg/wsFreedomStudio/sifive_hifive1_revb_hello/freedom-metal/src/entry.S:93
2001006c:	00008363          	beqz	ra,20010072 <_enter+0x72>
/home/nicoladgg/wsFreedomStudio/sifive_hifive1_revb_hello/freedom-metal/src/entry.S:94
20010070:	9082                	jalr	ra
/home/nicoladgg/wsFreedomStudio/sifive_hifive1_revb_hello/freedom-metal/src/entry.S:99
20010072:	00000297          	auipc	t0,0x0
20010076:	00c28293          	addi	t0,t0,12 # 2001007e <_enter+0x7e>
/home/nicoladgg/wsFreedomStudio/sifive_hifive1_revb_hello/freedom-metal/src/entry.S:100
2001007a:	30529073          	csrw	mtvec,t0
/home/nicoladgg/wsFreedomStudio/sifive_hifive1_revb_hello/freedom-metal/src/entry.S:102
2001007e:	00002303          	lw	t1,0(zero) # 0 <__metal_boot_hart>
/home/nicoladgg/wsFreedomStudio/sifive_hifive1_revb_hello/freedom-metal/src/entry.S:103
20010082:	bff5                	j	2001007e <_enter+0x7e>
20010084:	0000                	unimp
	...

20010088 <__register_frame_info>:
__register_frame_info():
/home/nicoladgg/wsFreedomStudio/sifive_hifive1_revb_hello/freedom-metal/src/entry.S:117
20010088:	8082                	ret

2001008a <metal_mem_scrub>:
metal_mem_scrub():
/home/nicoladgg/wsFreedomStudio/sifive_hifive1_revb_hello/freedom-metal/src/scrub.S:24
2001008a:	46a1                	li	a3,8
/home/nicoladgg/wsFreedomStudio/sifive_hifive1_revb_hello/freedom-metal/src/scrub.S:25
2001008c:	3006b373          	csrrc	t1,mstatus,a3
/home/nicoladgg/wsFreedomStudio/sifive_hifive1_revb_hello/freedom-metal/src/scrub.S:28
20010090:	4291                	li	t0,4
/home/nicoladgg/wsFreedomStudio/sifive_hifive1_revb_hello/freedom-metal/src/scrub.S:30
20010092:	0055c563          	blt	a1,t0,2001009c <metal_mem_scrub+0x12>
/home/nicoladgg/wsFreedomStudio/sifive_hifive1_revb_hello/freedom-metal/src/scrub.S:31
20010096:	00357613          	andi	a2,a0,3
/home/nicoladgg/wsFreedomStudio/sifive_hifive1_revb_hello/freedom-metal/src/scrub.S:32
2001009a:	ca11                	beqz	a2,200100ae <metal_mem_scrub+0x24>
/home/nicoladgg/wsFreedomStudio/sifive_hifive1_revb_hello/freedom-metal/src/scrub.S:34
2001009c:	00050023          	sb	zero,0(a0)
/home/nicoladgg/wsFreedomStudio/sifive_hifive1_revb_hello/freedom-metal/src/scrub.S:35
200100a0:	0505                	addi	a0,a0,1
/home/nicoladgg/wsFreedomStudio/sifive_hifive1_revb_hello/freedom-metal/src/scrub.S:36
200100a2:	15fd                	addi	a1,a1,-1
/home/nicoladgg/wsFreedomStudio/sifive_hifive1_revb_hello/freedom-metal/src/scrub.S:37
200100a4:	feb047e3          	bgtz	a1,20010092 <metal_mem_scrub+0x8>
/home/nicoladgg/wsFreedomStudio/sifive_hifive1_revb_hello/freedom-metal/src/scrub.S:38
200100a8:	30031073          	csrw	mstatus,t1
/home/nicoladgg/wsFreedomStudio/sifive_hifive1_revb_hello/freedom-metal/src/scrub.S:39
200100ac:	8082                	ret
/home/nicoladgg/wsFreedomStudio/sifive_hifive1_revb_hello/freedom-metal/src/scrub.S:41
200100ae:	00052023          	sw	zero,0(a0)
/home/nicoladgg/wsFreedomStudio/sifive_hifive1_revb_hello/freedom-metal/src/scrub.S:42
200100b2:	0511                	addi	a0,a0,4
/home/nicoladgg/wsFreedomStudio/sifive_hifive1_revb_hello/freedom-metal/src/scrub.S:43
200100b4:	15f1                	addi	a1,a1,-4
/home/nicoladgg/wsFreedomStudio/sifive_hifive1_revb_hello/freedom-metal/src/scrub.S:44
200100b6:	fcb04ee3          	bgtz	a1,20010092 <metal_mem_scrub+0x8>
/home/nicoladgg/wsFreedomStudio/sifive_hifive1_revb_hello/freedom-metal/src/scrub.S:45
200100ba:	30031073          	csrw	mstatus,t1
/home/nicoladgg/wsFreedomStudio/sifive_hifive1_revb_hello/freedom-metal/src/scrub.S:46
200100be:	8082                	ret

200100c0 <__metal_memory_scrub>:
__metal_memory_scrub():
/home/nicoladgg/wsFreedomStudio/sifive_hifive1_revb_hello/freedom-metal/src/scrub.S:74
200100c0:	00032023          	sw	zero,0(t1)
/home/nicoladgg/wsFreedomStudio/sifive_hifive1_revb_hello/freedom-metal/src/scrub.S:75
200100c4:	0311                	addi	t1,t1,4
/home/nicoladgg/wsFreedomStudio/sifive_hifive1_revb_hello/freedom-metal/src/scrub.S:76
200100c6:	fe734de3          	blt	t1,t2,200100c0 <__metal_memory_scrub>
/home/nicoladgg/wsFreedomStudio/sifive_hifive1_revb_hello/freedom-metal/src/scrub.S:82
200100ca:	8082                	ret

200100cc <__metal_before_start>:
__metal_before_start():
/home/nicoladgg/wsFreedomStudio/sifive_hifive1_revb_hello/freedom-metal/src/scrub.S:94
200100cc:	8406                	mv	s0,ra
/home/nicoladgg/wsFreedomStudio/sifive_hifive1_revb_hello/freedom-metal/src/scrub.S:96
200100ce:	dfff0297          	auipc	t0,0xdfff0
200100d2:	f3228293          	addi	t0,t0,-206 # 0 <__metal_boot_hart>
/home/nicoladgg/wsFreedomStudio/sifive_hifive1_revb_hello/freedom-metal/src/scrub.S:97
200100d6:	04028c63          	beqz	t0,2001012e <skip_scrub>
/home/nicoladgg/wsFreedomStudio/sifive_hifive1_revb_hello/freedom-metal/src/scrub.S:99
200100da:	dfff0297          	auipc	t0,0xdfff0
200100de:	f2628293          	addi	t0,t0,-218 # 0 <__metal_boot_hart>
/home/nicoladgg/wsFreedomStudio/sifive_hifive1_revb_hello/freedom-metal/src/scrub.S:100
200100e2:	f14027f3          	csrr	a5,mhartid
/home/nicoladgg/wsFreedomStudio/sifive_hifive1_revb_hello/freedom-metal/src/scrub.S:103
200100e6:	46a1                	li	a3,8
/home/nicoladgg/wsFreedomStudio/sifive_hifive1_revb_hello/freedom-metal/src/scrub.S:104
200100e8:	3006b073          	csrc	mstatus,a3
/home/nicoladgg/wsFreedomStudio/sifive_hifive1_revb_hello/freedom-metal/src/scrub.S:107
200100ec:	830a                	mv	t1,sp
/home/nicoladgg/wsFreedomStudio/sifive_hifive1_revb_hello/freedom-metal/src/scrub.S:108
200100ee:	dfff0397          	auipc	t2,0xdfff0
200100f2:	31238393          	addi	t2,t2,786 # 400 <__stack_size>
/home/nicoladgg/wsFreedomStudio/sifive_hifive1_revb_hello/freedom-metal/src/scrub.S:109
200100f6:	938a                	add	t2,t2,sp
/home/nicoladgg/wsFreedomStudio/sifive_hifive1_revb_hello/freedom-metal/src/scrub.S:110
200100f8:	00730363          	beq	t1,t2,200100fe <__metal_before_start+0x32>
/home/nicoladgg/wsFreedomStudio/sifive_hifive1_revb_hello/freedom-metal/src/scrub.S:111
200100fc:	37d1                	jal	200100c0 <__metal_memory_scrub>
/home/nicoladgg/wsFreedomStudio/sifive_hifive1_revb_hello/freedom-metal/src/scrub.S:113
200100fe:	02579863          	bne	a5,t0,2001012e <skip_scrub>
/home/nicoladgg/wsFreedomStudio/sifive_hifive1_revb_hello/freedom-metal/src/scrub.S:116
20010102:	5fff0317          	auipc	t1,0x5fff0
20010106:	efe30313          	addi	t1,t1,-258 # 80000000 <impure_data>
/home/nicoladgg/wsFreedomStudio/sifive_hifive1_revb_hello/freedom-metal/src/scrub.S:117
2001010a:	5fff1397          	auipc	t2,0x5fff1
2001010e:	9be38393          	addi	t2,t2,-1602 # 80000ac8 <uart_active>
/home/nicoladgg/wsFreedomStudio/sifive_hifive1_revb_hello/freedom-metal/src/scrub.S:118
20010112:	00730363          	beq	t1,t2,20010118 <__metal_before_start+0x4c>
/home/nicoladgg/wsFreedomStudio/sifive_hifive1_revb_hello/freedom-metal/src/scrub.S:119
20010116:	376d                	jal	200100c0 <__metal_memory_scrub>
/home/nicoladgg/wsFreedomStudio/sifive_hifive1_revb_hello/freedom-metal/src/scrub.S:122
20010118:	e7ff0317          	auipc	t1,0xe7ff0
2001011c:	ee830313          	addi	t1,t1,-280 # 8000000 <metal_segment_itim_target_end>
/home/nicoladgg/wsFreedomStudio/sifive_hifive1_revb_hello/freedom-metal/src/scrub.S:123
20010120:	e7ff0397          	auipc	t2,0xe7ff0
20010124:	ee038393          	addi	t2,t2,-288 # 8000000 <metal_segment_itim_target_end>
/home/nicoladgg/wsFreedomStudio/sifive_hifive1_revb_hello/freedom-metal/src/scrub.S:124
20010128:	00730363          	beq	t1,t2,2001012e <skip_scrub>
/home/nicoladgg/wsFreedomStudio/sifive_hifive1_revb_hello/freedom-metal/src/scrub.S:125
2001012c:	3f51                	jal	200100c0 <__metal_memory_scrub>

2001012e <skip_scrub>:
skip_scrub():
/home/nicoladgg/wsFreedomStudio/sifive_hifive1_revb_hello/freedom-metal/src/scrub.S:129
2001012e:	80a2                	mv	ra,s0
/home/nicoladgg/wsFreedomStudio/sifive_hifive1_revb_hello/freedom-metal/src/scrub.S:130
20010130:	8082                	ret
	...

20010134 <early_trap_vector>:
early_trap_vector():
/home/nicoladgg/wsFreedomStudio/sifive_hifive1_revb_hello/freedom-metal/src/trap.S:64
20010134:	342022f3          	csrr	t0,mcause
/home/nicoladgg/wsFreedomStudio/sifive_hifive1_revb_hello/freedom-metal/src/trap.S:65
20010138:	34102373          	csrr	t1,mepc
/home/nicoladgg/wsFreedomStudio/sifive_hifive1_revb_hello/freedom-metal/src/trap.S:66
2001013c:	343023f3          	csrr	t2,mtval
/home/nicoladgg/wsFreedomStudio/sifive_hifive1_revb_hello/freedom-metal/src/trap.S:67
20010140:	bfd5                	j	20010134 <early_trap_vector>

20010142 <__metal_synchronize_harts>:
__metal_synchronize_harts():
/home/nicoladgg/wsFreedomStudio/sifive_hifive1_revb_hello/freedom-metal/src/synchronize_harts.c:19
20010142:	1141                	addi	sp,sp,-16
20010144:	c622                	sw	s0,12(sp)
20010146:	0800                	addi	s0,sp,16
/home/nicoladgg/wsFreedomStudio/sifive_hifive1_revb_hello/freedom-metal/src/synchronize_harts.c:66
20010148:	0001                	nop
2001014a:	4432                	lw	s0,12(sp)
2001014c:	0141                	addi	sp,sp,16
2001014e:	8082                	ret

20010150 <_start>:
_start():
/home/nicoladgg/wsFreedomStudio/sifive_hifive1_revb_hello/freedom-metal/gloss/crt0.S:36
20010150:	8406                	mv	s0,ra
/home/nicoladgg/wsFreedomStudio/sifive_hifive1_revb_hello/freedom-metal/gloss/crt0.S:44
20010152:	5fff1197          	auipc	gp,0x5fff1
20010156:	14e18193          	addi	gp,gp,334 # 800012a0 <__global_pointer$>
/home/nicoladgg/wsFreedomStudio/sifive_hifive1_revb_hello/freedom-metal/gloss/crt0.S:50
2001015a:	00000293          	li	t0,0
/home/nicoladgg/wsFreedomStudio/sifive_hifive1_revb_hello/freedom-metal/gloss/crt0.S:51
2001015e:	0e551163          	bne	a0,t0,20010240 <_skip_init>
/home/nicoladgg/wsFreedomStudio/sifive_hifive1_revb_hello/freedom-metal/gloss/crt0.S:60
20010162:	00007297          	auipc	t0,0x7
20010166:	24e28293          	addi	t0,t0,590 # 200173b0 <metal_segment_data_source_start>
/home/nicoladgg/wsFreedomStudio/sifive_hifive1_revb_hello/freedom-metal/gloss/crt0.S:61
2001016a:	5fff0317          	auipc	t1,0x5fff0
2001016e:	e9630313          	addi	t1,t1,-362 # 80000000 <impure_data>
/home/nicoladgg/wsFreedomStudio/sifive_hifive1_revb_hello/freedom-metal/gloss/crt0.S:62
20010172:	5fff1397          	auipc	t2,0x5fff1
20010176:	95638393          	addi	t2,t2,-1706 # 80000ac8 <uart_active>
/home/nicoladgg/wsFreedomStudio/sifive_hifive1_revb_hello/freedom-metal/gloss/crt0.S:64
2001017a:	00628c63          	beq	t0,t1,20010192 <_start+0x42>
/home/nicoladgg/wsFreedomStudio/sifive_hifive1_revb_hello/freedom-metal/gloss/crt0.S:65
2001017e:	00735a63          	bge	t1,t2,20010192 <_start+0x42>
/home/nicoladgg/wsFreedomStudio/sifive_hifive1_revb_hello/freedom-metal/gloss/crt0.S:69
20010182:	0002a503          	lw	a0,0(t0)
/home/nicoladgg/wsFreedomStudio/sifive_hifive1_revb_hello/freedom-metal/gloss/crt0.S:70
20010186:	0291                	addi	t0,t0,4
/home/nicoladgg/wsFreedomStudio/sifive_hifive1_revb_hello/freedom-metal/gloss/crt0.S:71
20010188:	00a32023          	sw	a0,0(t1)
/home/nicoladgg/wsFreedomStudio/sifive_hifive1_revb_hello/freedom-metal/gloss/crt0.S:72
2001018c:	0311                	addi	t1,t1,4
/home/nicoladgg/wsFreedomStudio/sifive_hifive1_revb_hello/freedom-metal/gloss/crt0.S:73
2001018e:	fe734ae3          	blt	t1,t2,20010182 <_start+0x32>
/home/nicoladgg/wsFreedomStudio/sifive_hifive1_revb_hello/freedom-metal/gloss/crt0.S:84
20010192:	00001297          	auipc	t0,0x1
20010196:	e4628293          	addi	t0,t0,-442 # 20010fd8 <metal_segment_itim_source_start>
/home/nicoladgg/wsFreedomStudio/sifive_hifive1_revb_hello/freedom-metal/gloss/crt0.S:85
2001019a:	e7ff0317          	auipc	t1,0xe7ff0
2001019e:	e6630313          	addi	t1,t1,-410 # 8000000 <metal_segment_itim_target_end>
/home/nicoladgg/wsFreedomStudio/sifive_hifive1_revb_hello/freedom-metal/gloss/crt0.S:86
200101a2:	e7ff0397          	auipc	t2,0xe7ff0
200101a6:	e5e38393          	addi	t2,t2,-418 # 8000000 <metal_segment_itim_target_end>
/home/nicoladgg/wsFreedomStudio/sifive_hifive1_revb_hello/freedom-metal/gloss/crt0.S:88
200101aa:	00628c63          	beq	t0,t1,200101c2 <_start+0x72>
/home/nicoladgg/wsFreedomStudio/sifive_hifive1_revb_hello/freedom-metal/gloss/crt0.S:89
200101ae:	00735a63          	bge	t1,t2,200101c2 <_start+0x72>
/home/nicoladgg/wsFreedomStudio/sifive_hifive1_revb_hello/freedom-metal/gloss/crt0.S:93
200101b2:	0002a503          	lw	a0,0(t0)
/home/nicoladgg/wsFreedomStudio/sifive_hifive1_revb_hello/freedom-metal/gloss/crt0.S:94
200101b6:	0291                	addi	t0,t0,4
/home/nicoladgg/wsFreedomStudio/sifive_hifive1_revb_hello/freedom-metal/gloss/crt0.S:95
200101b8:	00a32023          	sw	a0,0(t1)
/home/nicoladgg/wsFreedomStudio/sifive_hifive1_revb_hello/freedom-metal/gloss/crt0.S:96
200101bc:	0311                	addi	t1,t1,4
/home/nicoladgg/wsFreedomStudio/sifive_hifive1_revb_hello/freedom-metal/gloss/crt0.S:97
200101be:	fe734ae3          	blt	t1,t2,200101b2 <_start+0x62>
/home/nicoladgg/wsFreedomStudio/sifive_hifive1_revb_hello/freedom-metal/gloss/crt0.S:109
200101c2:	0000100f          	fence.i
/home/nicoladgg/wsFreedomStudio/sifive_hifive1_revb_hello/freedom-metal/gloss/crt0.S:114
200101c6:	00001297          	auipc	t0,0x1
200101ca:	e1228293          	addi	t0,t0,-494 # 20010fd8 <metal_segment_itim_source_start>
/home/nicoladgg/wsFreedomStudio/sifive_hifive1_revb_hello/freedom-metal/gloss/crt0.S:115
200101ce:	5fff0317          	auipc	t1,0x5fff0
200101d2:	e3230313          	addi	t1,t1,-462 # 80000000 <impure_data>
/home/nicoladgg/wsFreedomStudio/sifive_hifive1_revb_hello/freedom-metal/gloss/crt0.S:116
200101d6:	5fff0397          	auipc	t2,0x5fff0
200101da:	e2a38393          	addi	t2,t2,-470 # 80000000 <impure_data>
/home/nicoladgg/wsFreedomStudio/sifive_hifive1_revb_hello/freedom-metal/gloss/crt0.S:118
200101de:	00628c63          	beq	t0,t1,200101f6 <_start+0xa6>
/home/nicoladgg/wsFreedomStudio/sifive_hifive1_revb_hello/freedom-metal/gloss/crt0.S:119
200101e2:	00735a63          	bge	t1,t2,200101f6 <_start+0xa6>
/home/nicoladgg/wsFreedomStudio/sifive_hifive1_revb_hello/freedom-metal/gloss/crt0.S:123
200101e6:	0002a503          	lw	a0,0(t0)
/home/nicoladgg/wsFreedomStudio/sifive_hifive1_revb_hello/freedom-metal/gloss/crt0.S:124
200101ea:	0291                	addi	t0,t0,4
/home/nicoladgg/wsFreedomStudio/sifive_hifive1_revb_hello/freedom-metal/gloss/crt0.S:125
200101ec:	00a32023          	sw	a0,0(t1)
/home/nicoladgg/wsFreedomStudio/sifive_hifive1_revb_hello/freedom-metal/gloss/crt0.S:126
200101f0:	0311                	addi	t1,t1,4
/home/nicoladgg/wsFreedomStudio/sifive_hifive1_revb_hello/freedom-metal/gloss/crt0.S:127
200101f2:	fe734ae3          	blt	t1,t2,200101e6 <_start+0x96>
/home/nicoladgg/wsFreedomStudio/sifive_hifive1_revb_hello/freedom-metal/gloss/crt0.S:139
200101f6:	0000100f          	fence.i
/home/nicoladgg/wsFreedomStudio/sifive_hifive1_revb_hello/freedom-metal/gloss/crt0.S:142
200101fa:	5fff1317          	auipc	t1,0x5fff1
200101fe:	8ce30313          	addi	t1,t1,-1842 # 80000ac8 <uart_active>
/home/nicoladgg/wsFreedomStudio/sifive_hifive1_revb_hello/freedom-metal/gloss/crt0.S:143
20010202:	8d418393          	addi	t2,gp,-1836 # 80000b74 <metal_segment_bss_target_end>
/home/nicoladgg/wsFreedomStudio/sifive_hifive1_revb_hello/freedom-metal/gloss/crt0.S:145
20010206:	00735763          	bge	t1,t2,20010214 <_start+0xc4>
/home/nicoladgg/wsFreedomStudio/sifive_hifive1_revb_hello/freedom-metal/gloss/crt0.S:149
2001020a:	00032023          	sw	zero,0(t1)
/home/nicoladgg/wsFreedomStudio/sifive_hifive1_revb_hello/freedom-metal/gloss/crt0.S:150
2001020e:	0311                	addi	t1,t1,4
/home/nicoladgg/wsFreedomStudio/sifive_hifive1_revb_hello/freedom-metal/gloss/crt0.S:151
20010210:	fe734de3          	blt	t1,t2,2001020a <_start+0xba>
/home/nicoladgg/wsFreedomStudio/sifive_hifive1_revb_hello/freedom-metal/gloss/crt0.S:161
20010214:	5fff1217          	auipc	tp,0x5fff1
20010218:	8b420213          	addi	tp,tp,-1868 # 80000ac8 <uart_active>
/home/nicoladgg/wsFreedomStudio/sifive_hifive1_revb_hello/freedom-metal/gloss/crt0.S:166
2001021c:	c211                	beqz	a2,20010220 <_start+0xd0>
/home/nicoladgg/wsFreedomStudio/sifive_hifive1_revb_hello/freedom-metal/gloss/crt0.S:167
2001021e:	9602                	jalr	a2
/home/nicoladgg/wsFreedomStudio/sifive_hifive1_revb_hello/freedom-metal/gloss/crt0.S:171
20010220:	00007517          	auipc	a0,0x7
20010224:	e6050513          	addi	a0,a0,-416 # 20017080 <__libc_fini_array>
/home/nicoladgg/wsFreedomStudio/sifive_hifive1_revb_hello/freedom-metal/gloss/crt0.S:172
20010228:	61d060ef          	jal	ra,20017044 <atexit>
/home/nicoladgg/wsFreedomStudio/sifive_hifive1_revb_hello/freedom-metal/gloss/crt0.S:173
2001022c:	68b060ef          	jal	ra,200170b6 <__libc_init_array>
/home/nicoladgg/wsFreedomStudio/sifive_hifive1_revb_hello/freedom-metal/gloss/crt0.S:177
20010230:	00007517          	auipc	a0,0x7
20010234:	12e50513          	addi	a0,a0,302 # 2001735e <metal_fini_run>
/home/nicoladgg/wsFreedomStudio/sifive_hifive1_revb_hello/freedom-metal/gloss/crt0.S:178
20010238:	60d060ef          	jal	ra,20017044 <atexit>
/home/nicoladgg/wsFreedomStudio/sifive_hifive1_revb_hello/freedom-metal/gloss/crt0.S:179
2001023c:	10c070ef          	jal	ra,20017348 <metal_init_run>

20010240 <_skip_init>:
_skip_init():
/home/nicoladgg/wsFreedomStudio/sifive_hifive1_revb_hello/freedom-metal/gloss/crt0.S:185
20010240:	3709                	jal	20010142 <__metal_synchronize_harts>
/home/nicoladgg/wsFreedomStudio/sifive_hifive1_revb_hello/freedom-metal/gloss/crt0.S:188
20010242:	56fd                	li	a3,-1
/home/nicoladgg/wsFreedomStudio/sifive_hifive1_revb_hello/freedom-metal/gloss/crt0.S:189
20010244:	3046b073          	csrc	mie,a3
/home/nicoladgg/wsFreedomStudio/sifive_hifive1_revb_hello/freedom-metal/gloss/crt0.S:190
20010248:	3446b073          	csrc	mip,a3
/home/nicoladgg/wsFreedomStudio/sifive_hifive1_revb_hello/freedom-metal/gloss/crt0.S:194
2001024c:	301027f3          	csrr	a5,misa
/home/nicoladgg/wsFreedomStudio/sifive_hifive1_revb_hello/freedom-metal/gloss/crt0.S:195
20010250:	00042737          	lui	a4,0x42
/home/nicoladgg/wsFreedomStudio/sifive_hifive1_revb_hello/freedom-metal/gloss/crt0.S:196
20010254:	8f7d                	and	a4,a4,a5
/home/nicoladgg/wsFreedomStudio/sifive_hifive1_revb_hello/freedom-metal/gloss/crt0.S:197
20010256:	c709                	beqz	a4,20010260 <_skip_init+0x20>
/home/nicoladgg/wsFreedomStudio/sifive_hifive1_revb_hello/freedom-metal/gloss/crt0.S:198
20010258:	3036b073          	csrc	mideleg,a3
/home/nicoladgg/wsFreedomStudio/sifive_hifive1_revb_hello/freedom-metal/gloss/crt0.S:199
2001025c:	3026b073          	csrc	medeleg,a3
/home/nicoladgg/wsFreedomStudio/sifive_hifive1_revb_hello/freedom-metal/gloss/crt0.S:203
20010260:	00040737          	lui	a4,0x40
/home/nicoladgg/wsFreedomStudio/sifive_hifive1_revb_hello/freedom-metal/gloss/crt0.S:204
20010264:	8f7d                	and	a4,a4,a5
/home/nicoladgg/wsFreedomStudio/sifive_hifive1_revb_hello/freedom-metal/gloss/crt0.S:205
20010266:	c319                	beqz	a4,2001026c <_skip_init+0x2c>
/home/nicoladgg/wsFreedomStudio/sifive_hifive1_revb_hello/freedom-metal/gloss/crt0.S:206
20010268:	1806b073          	csrc	satp,a3
/home/nicoladgg/wsFreedomStudio/sifive_hifive1_revb_hello/freedom-metal/gloss/crt0.S:210
2001026c:	6741                	lui	a4,0x10
2001026e:	02870713          	addi	a4,a4,40 # 10028 <__heap_size+0xf828>
/home/nicoladgg/wsFreedomStudio/sifive_hifive1_revb_hello/freedom-metal/gloss/crt0.S:211
20010272:	8ff9                	and	a5,a5,a4
/home/nicoladgg/wsFreedomStudio/sifive_hifive1_revb_hello/freedom-metal/gloss/crt0.S:212
20010274:	cb89                	beqz	a5,20010286 <_skip_init+0x46>
/home/nicoladgg/wsFreedomStudio/sifive_hifive1_revb_hello/freedom-metal/gloss/crt0.S:213
20010276:	300027f3          	csrr	a5,mstatus
/home/nicoladgg/wsFreedomStudio/sifive_hifive1_revb_hello/freedom-metal/gloss/crt0.S:214
2001027a:	6709                	lui	a4,0x2
/home/nicoladgg/wsFreedomStudio/sifive_hifive1_revb_hello/freedom-metal/gloss/crt0.S:215
2001027c:	8fd9                	or	a5,a5,a4
/home/nicoladgg/wsFreedomStudio/sifive_hifive1_revb_hello/freedom-metal/gloss/crt0.S:216
2001027e:	30079073          	csrw	mstatus,a5
/home/nicoladgg/wsFreedomStudio/sifive_hifive1_revb_hello/freedom-metal/gloss/crt0.S:217
20010282:	00305073          	csrwi	fcsr,0
/home/nicoladgg/wsFreedomStudio/sifive_hifive1_revb_hello/freedom-metal/gloss/crt0.S:221
20010286:	301027f3          	csrr	a5,misa
/home/nicoladgg/wsFreedomStudio/sifive_hifive1_revb_hello/freedom-metal/gloss/crt0.S:222
2001028a:	00200737          	lui	a4,0x200
/home/nicoladgg/wsFreedomStudio/sifive_hifive1_revb_hello/freedom-metal/gloss/crt0.S:223
2001028e:	8ff9                	and	a5,a5,a4
/home/nicoladgg/wsFreedomStudio/sifive_hifive1_revb_hello/freedom-metal/gloss/crt0.S:224
20010290:	c799                	beqz	a5,2001029e <_skip_init+0x5e>
/home/nicoladgg/wsFreedomStudio/sifive_hifive1_revb_hello/freedom-metal/gloss/crt0.S:225
20010292:	300027f3          	csrr	a5,mstatus
/home/nicoladgg/wsFreedomStudio/sifive_hifive1_revb_hello/freedom-metal/gloss/crt0.S:226
20010296:	2007e793          	ori	a5,a5,512
/home/nicoladgg/wsFreedomStudio/sifive_hifive1_revb_hello/freedom-metal/gloss/crt0.S:227
2001029a:	30079073          	csrw	mstatus,a5
/home/nicoladgg/wsFreedomStudio/sifive_hifive1_revb_hello/freedom-metal/gloss/crt0.S:233
2001029e:	4505                	li	a0,1
/home/nicoladgg/wsFreedomStudio/sifive_hifive1_revb_hello/freedom-metal/gloss/crt0.S:234
200102a0:	00001597          	auipc	a1,0x1
200102a4:	cf858593          	addi	a1,a1,-776 # 20010f98 <argv>
/home/nicoladgg/wsFreedomStudio/sifive_hifive1_revb_hello/freedom-metal/gloss/crt0.S:235
200102a8:	00001617          	auipc	a2,0x1
200102ac:	cf460613          	addi	a2,a2,-780 # 20010f9c <envp>
/home/nicoladgg/wsFreedomStudio/sifive_hifive1_revb_hello/freedom-metal/gloss/crt0.S:236
200102b0:	2031                	jal	200102bc <secondary_main>
/home/nicoladgg/wsFreedomStudio/sifive_hifive1_revb_hello/freedom-metal/gloss/crt0.S:242
200102b2:	5a7060ef          	jal	ra,20017058 <exit>
/home/nicoladgg/wsFreedomStudio/sifive_hifive1_revb_hello/freedom-metal/gloss/crt0.S:247
200102b6:	80a2                	mv	ra,s0
/home/nicoladgg/wsFreedomStudio/sifive_hifive1_revb_hello/freedom-metal/gloss/crt0.S:248
200102b8:	8082                	ret

200102ba <_fini>:
_init():
/home/nicoladgg/wsFreedomStudio/sifive_hifive1_revb_hello/freedom-metal/gloss/crt0.S:260
200102ba:	8082                	ret

200102bc <secondary_main>:
secondary_main():
/home/nicoladgg/wsFreedomStudio/sifive_hifive1_revb_hello/freedom-metal/gloss/crt0.S:271
200102bc:	1141                	addi	sp,sp,-16
/home/nicoladgg/wsFreedomStudio/sifive_hifive1_revb_hello/freedom-metal/gloss/crt0.S:273
200102be:	c206                	sw	ra,4(sp)
/home/nicoladgg/wsFreedomStudio/sifive_hifive1_revb_hello/freedom-metal/gloss/crt0.S:277
200102c0:	f14022f3          	csrr	t0,mhartid
/home/nicoladgg/wsFreedomStudio/sifive_hifive1_revb_hello/freedom-metal/gloss/crt0.S:278
200102c4:	00000313          	li	t1,0
/home/nicoladgg/wsFreedomStudio/sifive_hifive1_revb_hello/freedom-metal/gloss/crt0.S:279
200102c8:	00628563          	beq	t0,t1,200102d2 <secondary_main+0x16>
/home/nicoladgg/wsFreedomStudio/sifive_hifive1_revb_hello/freedom-metal/gloss/crt0.S:281
200102cc:	10500073          	wfi
/home/nicoladgg/wsFreedomStudio/sifive_hifive1_revb_hello/freedom-metal/gloss/crt0.S:282
200102d0:	bff5                	j	200102cc <secondary_main+0x10>
/home/nicoladgg/wsFreedomStudio/sifive_hifive1_revb_hello/freedom-metal/gloss/crt0.S:284
200102d2:	460010ef          	jal	ra,20011732 <main>
/home/nicoladgg/wsFreedomStudio/sifive_hifive1_revb_hello/freedom-metal/gloss/crt0.S:286
200102d6:	4092                	lw	ra,4(sp)
/home/nicoladgg/wsFreedomStudio/sifive_hifive1_revb_hello/freedom-metal/gloss/crt0.S:290
200102d8:	0141                	addi	sp,sp,16
/home/nicoladgg/wsFreedomStudio/sifive_hifive1_revb_hello/freedom-metal/gloss/crt0.S:291
200102da:	8082                	ret

Disassembly of section .ctors:

200102ec <metal_sifive_fe310_g000_pll_init>:
metal_sifive_fe310_g000_pll_init():
/home/nicoladgg/wsFreedomStudio/sifive_hifive1_revb_hello/freedom-metal/src/drivers/sifive_fe310-g000_pll.c:151
200102ec:	1101                	addi	sp,sp,-32
200102ee:	ce06                	sw	ra,28(sp)
200102f0:	cc22                	sw	s0,24(sp)
200102f2:	1000                	addi	s0,sp,32
/home/nicoladgg/wsFreedomStudio/sifive_hifive1_revb_hello/freedom-metal/src/drivers/sifive_fe310-g000_pll.c:152
200102f4:	7ab040ef          	jal	ra,2001529e <__metal_driver_sifive_fe310_g000_pll_init_rate>
200102f8:	fea42623          	sw	a0,-20(s0)
/home/nicoladgg/wsFreedomStudio/sifive_hifive1_revb_hello/freedom-metal/src/drivers/sifive_fe310-g000_pll.c:154
200102fc:	fec42783          	lw	a5,-20(s0)
20010300:	c799                	beqz	a5,2001030e <__fini_array_end+0x1e>
/home/nicoladgg/wsFreedomStudio/sifive_hifive1_revb_hello/freedom-metal/src/drivers/sifive_fe310-g000_pll.c:155
20010302:	800017b7          	lui	a5,0x80001
20010306:	a9078513          	addi	a0,a5,-1392 # 80000a90 <metal_segment_heap_target_end+0xfffff310>
2001030a:	020050ef          	jal	ra,2001532a <__metal_driver_sifive_fe310_g000_pll_init>
/home/nicoladgg/wsFreedomStudio/sifive_hifive1_revb_hello/freedom-metal/src/drivers/sifive_fe310-g000_pll.c:157
2001030e:	0001                	nop
20010310:	40f2                	lw	ra,28(sp)
20010312:	4462                	lw	s0,24(sp)
20010314:	6105                	addi	sp,sp,32
20010316:	8082                	ret

20010318 <use_hfxosc>:
use_hfxosc():
/home/nicoladgg/wsFreedomStudio/sifive_hifive1_revb_hello/freedom-metal/src/drivers/sifive_fe310-g000_pll.c:389
20010318:	1101                	addi	sp,sp,-32
2001031a:	ce06                	sw	ra,28(sp)
2001031c:	cc22                	sw	s0,24(sp)
2001031e:	1000                	addi	s0,sp,32
/home/nicoladgg/wsFreedomStudio/sifive_hifive1_revb_hello/freedom-metal/src/drivers/sifive_fe310-g000_pll.c:390
20010320:	77f040ef          	jal	ra,2001529e <__metal_driver_sifive_fe310_g000_pll_init_rate>
20010324:	fea42623          	sw	a0,-20(s0)
/home/nicoladgg/wsFreedomStudio/sifive_hifive1_revb_hello/freedom-metal/src/drivers/sifive_fe310-g000_pll.c:391
20010328:	fec42583          	lw	a1,-20(s0)
2001032c:	800017b7          	lui	a5,0x80001
20010330:	a9078513          	addi	a0,a5,-1392 # 80000a90 <metal_segment_heap_target_end+0xfffff310>
20010334:	09f060ef          	jal	ra,20016bd2 <metal_clock_set_rate_hz>
/home/nicoladgg/wsFreedomStudio/sifive_hifive1_revb_hello/freedom-metal/src/drivers/sifive_fe310-g000_pll.c:393
20010338:	0001                	nop
2001033a:	40f2                	lw	ra,28(sp)
2001033c:	4462                	lw	s0,24(sp)
2001033e:	6105                	addi	sp,sp,32
20010340:	8082                	ret

20010342 <metal_tty_init>:
metal_tty_init():
/home/nicoladgg/wsFreedomStudio/sifive_hifive1_revb_hello/freedom-metal/src/tty.c:28
20010342:	1141                	addi	sp,sp,-16
20010344:	c606                	sw	ra,12(sp)
20010346:	c422                	sw	s0,8(sp)
20010348:	0800                	addi	s0,sp,16
/home/nicoladgg/wsFreedomStudio/sifive_hifive1_revb_hello/freedom-metal/src/tty.c:29
2001034a:	67f1                	lui	a5,0x1c
2001034c:	20078593          	addi	a1,a5,512 # 1c200 <__heap_size+0x1ba00>
20010350:	800017b7          	lui	a5,0x80001
20010354:	a3878513          	addi	a0,a5,-1480 # 80000a38 <metal_segment_heap_target_end+0xfffff2b8>
20010358:	139060ef          	jal	ra,20016c90 <metal_uart_init>
/home/nicoladgg/wsFreedomStudio/sifive_hifive1_revb_hello/freedom-metal/src/tty.c:30
2001035c:	0001                	nop
2001035e:	40b2                	lw	ra,12(sp)
20010360:	4422                	lw	s0,8(sp)
20010362:	0141                	addi	sp,sp,16
20010364:	8082                	ret

Disassembly of section .text:

20011000 <delay>:
delay():
/home/nicoladgg/wsFreedomStudio/SiFive_HiFive_RevB_Projects/src/./include/devices/spi.h:147
    unsigned int spi_num;
    struct spi_config config;
}__attribute__ ((aligned (16)));

void delay(uint32_t counter)
{
20011000:	7179                	addi	sp,sp,-48
20011002:	d622                	sw	s0,44(sp)
20011004:	1800                	addi	s0,sp,48
20011006:	fca42e23          	sw	a0,-36(s0)
/home/nicoladgg/wsFreedomStudio/SiFive_HiFive_RevB_Projects/src/./include/devices/spi.h:148
    volatile uint32_t i = 0;
2001100a:	fe042623          	sw	zero,-20(s0)
/home/nicoladgg/wsFreedomStudio/SiFive_HiFive_RevB_Projects/src/./include/devices/spi.h:149
    while (i < counter) {
2001100e:	a031                	j	2001101a <delay+0x1a>
/home/nicoladgg/wsFreedomStudio/SiFive_HiFive_RevB_Projects/src/./include/devices/spi.h:150
        i++;
20011010:	fec42783          	lw	a5,-20(s0)
20011014:	0785                	addi	a5,a5,1
20011016:	fef42623          	sw	a5,-20(s0)
/home/nicoladgg/wsFreedomStudio/SiFive_HiFive_RevB_Projects/src/./include/devices/spi.h:149
    while (i < counter) {
2001101a:	fec42783          	lw	a5,-20(s0)
2001101e:	fdc42703          	lw	a4,-36(s0)
20011022:	fee7e7e3          	bltu	a5,a4,20011010 <delay+0x10>
/home/nicoladgg/wsFreedomStudio/SiFive_HiFive_RevB_Projects/src/./include/devices/spi.h:152
    }
}
20011026:	0001                	nop
20011028:	0001                	nop
2001102a:	5432                	lw	s0,44(sp)
2001102c:	6145                	addi	sp,sp,48
2001102e:	8082                	ret

20011030 <spi_init>:
spi_init():
/home/nicoladgg/wsFreedomStudio/SiFive_HiFive_RevB_Projects/src/./include/devices/spi.h:170

int spi_close(struct spi *s);


int spi_init(struct spi *s, unsigned int spi_num, struct spi_config config)
{
20011030:	7179                	addi	sp,sp,-48
20011032:	d606                	sw	ra,44(sp)
20011034:	d422                	sw	s0,40(sp)
20011036:	d226                	sw	s1,36(sp)
20011038:	1800                	addi	s0,sp,48
2001103a:	fca42e23          	sw	a0,-36(s0)
2001103e:	fcb42c23          	sw	a1,-40(s0)
20011042:	84b2                	mv	s1,a2
/home/nicoladgg/wsFreedomStudio/SiFive_HiFive_RevB_Projects/src/./include/devices/spi.h:171
    if(spi_num != 1)
20011044:	fd842703          	lw	a4,-40(s0)
20011048:	4785                	li	a5,1
2001104a:	00f70463          	beq	a4,a5,20011052 <spi_init+0x22>
/home/nicoladgg/wsFreedomStudio/SiFive_HiFive_RevB_Projects/src/./include/devices/spi.h:173
    {
        return -SPI_ERR_NV;
2001104e:	57fd                	li	a5,-1
20011050:	aaa5                	j	200111c8 <spi_init+0x198>
/home/nicoladgg/wsFreedomStudio/SiFive_HiFive_RevB_Projects/src/./include/devices/spi.h:175
    }
    if(config.baud > SPI_FREQ_MAX)
20011052:	40d8                	lw	a4,4(s1)
20011054:	67e1                	lui	a5,0x18
20011056:	6a078793          	addi	a5,a5,1696 # 186a0 <__heap_size+0x17ea0>
2001105a:	00e7f463          	bgeu	a5,a4,20011062 <spi_init+0x32>
/home/nicoladgg/wsFreedomStudio/SiFive_HiFive_RevB_Projects/src/./include/devices/spi.h:177
    {
        return -SPI_ERR_BAUD;
2001105e:	57f5                	li	a5,-3
20011060:	a2a5                	j	200111c8 <spi_init+0x198>
/home/nicoladgg/wsFreedomStudio/SiFive_HiFive_RevB_Projects/src/./include/devices/spi.h:179
    }
    if(config.len > 8)
20011062:	0004c703          	lbu	a4,0(s1)
20011066:	47a1                	li	a5,8
20011068:	00e7f463          	bgeu	a5,a4,20011070 <spi_init+0x40>
/home/nicoladgg/wsFreedomStudio/SiFive_HiFive_RevB_Projects/src/./include/devices/spi.h:181
    {
        return -SPI_ERR_LEN;
2001106c:	57f1                	li	a5,-4
2001106e:	aaa9                	j	200111c8 <spi_init+0x198>
/home/nicoladgg/wsFreedomStudio/SiFive_HiFive_RevB_Projects/src/./include/devices/spi.h:184
    }
    uint16_t sckdiv;
    sckdiv = cpu_freq / (2 * config.baud) - 1;
20011070:	800017b7          	lui	a5,0x80001
20011074:	aa07a703          	lw	a4,-1376(a5) # 80000aa0 <metal_segment_heap_target_end+0xfffff320>
20011078:	40dc                	lw	a5,4(s1)
2001107a:	0786                	slli	a5,a5,0x1
2001107c:	02f757b3          	divu	a5,a4,a5
20011080:	07c2                	slli	a5,a5,0x10
20011082:	83c1                	srli	a5,a5,0x10
20011084:	17fd                	addi	a5,a5,-1
20011086:	fef41723          	sh	a5,-18(s0)
/home/nicoladgg/wsFreedomStudio/SiFive_HiFive_RevB_Projects/src/./include/devices/spi.h:186

    s->spi_num              = spi_num;
2001108a:	fdc42783          	lw	a5,-36(s0)
2001108e:	fd842703          	lw	a4,-40(s0)
20011092:	c398                	sw	a4,0(a5)
/home/nicoladgg/wsFreedomStudio/SiFive_HiFive_RevB_Projects/src/./include/devices/spi.h:187
    s->config.baud          = config.baud;
20011094:	40d8                	lw	a4,4(s1)
20011096:	fdc42783          	lw	a5,-36(s0)
2001109a:	cbd8                	sw	a4,20(a5)
/home/nicoladgg/wsFreedomStudio/SiFive_HiFive_RevB_Projects/src/./include/devices/spi.h:188
    s->config.direction     = config.direction;
2001109c:	4c98                	lw	a4,24(s1)
2001109e:	fdc42783          	lw	a5,-36(s0)
200110a2:	d798                	sw	a4,40(a5)
/home/nicoladgg/wsFreedomStudio/SiFive_HiFive_RevB_Projects/src/./include/devices/spi.h:189
    s->config.endianness    = config.endianness;
200110a4:	48d8                	lw	a4,20(s1)
200110a6:	fdc42783          	lw	a5,-36(s0)
200110aa:	d3d8                	sw	a4,36(a5)
/home/nicoladgg/wsFreedomStudio/SiFive_HiFive_RevB_Projects/src/./include/devices/spi.h:190
    s->config.phase         = config.phase;
200110ac:	4498                	lw	a4,8(s1)
200110ae:	fdc42783          	lw	a5,-36(s0)
200110b2:	cf98                	sw	a4,24(a5)
/home/nicoladgg/wsFreedomStudio/SiFive_HiFive_RevB_Projects/src/./include/devices/spi.h:191
    s->config.polarity      = config.polarity;
200110b4:	44d8                	lw	a4,12(s1)
200110b6:	fdc42783          	lw	a5,-36(s0)
200110ba:	cfd8                	sw	a4,28(a5)
/home/nicoladgg/wsFreedomStudio/SiFive_HiFive_RevB_Projects/src/./include/devices/spi.h:192
    s->config.protocol      = config.protocol;
200110bc:	4898                	lw	a4,16(s1)
200110be:	fdc42783          	lw	a5,-36(s0)
200110c2:	d398                	sw	a4,32(a5)
/home/nicoladgg/wsFreedomStudio/SiFive_HiFive_RevB_Projects/src/./include/devices/spi.h:193
    s->config.len			= config.len;
200110c4:	0004c703          	lbu	a4,0(s1)
200110c8:	fdc42783          	lw	a5,-36(s0)
200110cc:	00e78823          	sb	a4,16(a5)
/home/nicoladgg/wsFreedomStudio/SiFive_HiFive_RevB_Projects/src/./include/devices/spi.h:196

    //GPIO_REG(GPIO_OUTPUT_XOR)   &= ~(1 << GPIO_SPI1_MISO);
    GPIO_REG(GPIO_IOF_EN)       |= (1 << GPIO_SPI1_MISO);
200110d0:	100127b7          	lui	a5,0x10012
200110d4:	03878793          	addi	a5,a5,56 # 10012038 <metal_segment_itim_target_end+0x8012038>
200110d8:	4398                	lw	a4,0(a5)
200110da:	100127b7          	lui	a5,0x10012
200110de:	03878793          	addi	a5,a5,56 # 10012038 <metal_segment_itim_target_end+0x8012038>
200110e2:	01076713          	ori	a4,a4,16
200110e6:	c398                	sw	a4,0(a5)
/home/nicoladgg/wsFreedomStudio/SiFive_HiFive_RevB_Projects/src/./include/devices/spi.h:200
    //GPIO_REG(GPIO_INPUT_EN)     |= (1 << GPIO_SPI1_MISO);
    //GPIO_REG(GPIO_OUTPUT_EN)    &= ~(1 << GPIO_SPI1_MISO);
    //GPIO_REG(GPIO_PULLUP_EN)    &= ~(1 << GPIO_SPI1_MISO);
    GPIO_REG(GPIO_IOF_SEL)      &= ~(1 << GPIO_SPI1_MISO);
200110e8:	100127b7          	lui	a5,0x10012
200110ec:	03c78793          	addi	a5,a5,60 # 1001203c <metal_segment_itim_target_end+0x801203c>
200110f0:	4398                	lw	a4,0(a5)
200110f2:	100127b7          	lui	a5,0x10012
200110f6:	03c78793          	addi	a5,a5,60 # 1001203c <metal_segment_itim_target_end+0x801203c>
200110fa:	9b3d                	andi	a4,a4,-17
200110fc:	c398                	sw	a4,0(a5)
/home/nicoladgg/wsFreedomStudio/SiFive_HiFive_RevB_Projects/src/./include/devices/spi.h:203

    //GPIO_REG(GPIO_OUTPUT_XOR)   |= (1 << GPIO_SPI1_MOSI);
    GPIO_REG(GPIO_IOF_EN)       |= (1 << GPIO_SPI1_MOSI);
200110fe:	100127b7          	lui	a5,0x10012
20011102:	03878793          	addi	a5,a5,56 # 10012038 <metal_segment_itim_target_end+0x8012038>
20011106:	4398                	lw	a4,0(a5)
20011108:	100127b7          	lui	a5,0x10012
2001110c:	03878793          	addi	a5,a5,56 # 10012038 <metal_segment_itim_target_end+0x8012038>
20011110:	00876713          	ori	a4,a4,8
20011114:	c398                	sw	a4,0(a5)
/home/nicoladgg/wsFreedomStudio/SiFive_HiFive_RevB_Projects/src/./include/devices/spi.h:207
    //GPIO_REG(GPIO_INPUT_EN)     &= ~(1 << GPIO_SPI1_MOSI);
    //GPIO_REG(GPIO_OUTPUT_EN)    |= 1 << GPIO_SPI1_MOSI;
    //GPIO_REG(GPIO_PULLUP_EN)    &= ~(1 << GPIO_SPI1_MOSI);
    GPIO_REG(GPIO_IOF_SEL)      &= ~(1 << GPIO_SPI1_MOSI);
20011116:	100127b7          	lui	a5,0x10012
2001111a:	03c78793          	addi	a5,a5,60 # 1001203c <metal_segment_itim_target_end+0x801203c>
2001111e:	4398                	lw	a4,0(a5)
20011120:	100127b7          	lui	a5,0x10012
20011124:	03c78793          	addi	a5,a5,60 # 1001203c <metal_segment_itim_target_end+0x801203c>
20011128:	9b5d                	andi	a4,a4,-9
2001112a:	c398                	sw	a4,0(a5)
/home/nicoladgg/wsFreedomStudio/SiFive_HiFive_RevB_Projects/src/./include/devices/spi.h:210

    //GPIO_REG(GPIO_OUTPUT_XOR)   |= (1 << GPIO_SPI1_SCK);
    GPIO_REG(GPIO_IOF_EN)       |= (1 << GPIO_SPI1_SCK);
2001112c:	100127b7          	lui	a5,0x10012
20011130:	03878793          	addi	a5,a5,56 # 10012038 <metal_segment_itim_target_end+0x8012038>
20011134:	4398                	lw	a4,0(a5)
20011136:	100127b7          	lui	a5,0x10012
2001113a:	03878793          	addi	a5,a5,56 # 10012038 <metal_segment_itim_target_end+0x8012038>
2001113e:	02076713          	ori	a4,a4,32
20011142:	c398                	sw	a4,0(a5)
/home/nicoladgg/wsFreedomStudio/SiFive_HiFive_RevB_Projects/src/./include/devices/spi.h:214
    //GPIO_REG(GPIO_INPUT_EN)     &= ~(1 << GPIO_SPI1_SCK);
    //GPIO_REG(GPIO_OUTPUT_EN)    |= 1 << GPIO_SPI1_SCK;
    //GPIO_REG(GPIO_PULLUP_EN)    &= ~(1 << GPIO_SPI1_SCK);
    GPIO_REG(GPIO_IOF_SEL)      &= ~(1 << GPIO_SPI1_SCK);
20011144:	100127b7          	lui	a5,0x10012
20011148:	03c78793          	addi	a5,a5,60 # 1001203c <metal_segment_itim_target_end+0x801203c>
2001114c:	4398                	lw	a4,0(a5)
2001114e:	100127b7          	lui	a5,0x10012
20011152:	03c78793          	addi	a5,a5,60 # 1001203c <metal_segment_itim_target_end+0x801203c>
20011156:	fdf77713          	andi	a4,a4,-33
2001115a:	c398                	sw	a4,0(a5)
/home/nicoladgg/wsFreedomStudio/SiFive_HiFive_RevB_Projects/src/./include/devices/spi.h:216

    SPI1_REG(SPI_REG_SCKDIV)    = sckdiv;
2001115c:	100247b7          	lui	a5,0x10024
20011160:	fee45703          	lhu	a4,-18(s0)
20011164:	c398                	sw	a4,0(a5)
/home/nicoladgg/wsFreedomStudio/SiFive_HiFive_RevB_Projects/src/./include/devices/spi.h:217
    SPI1_REG(SPI_REG_SCKMODE)   = (config.phase ? 1 << SPI_SCK_PHA : 0 << SPI_SCK_PHA) | (config.polarity ? 1 << SPI_SCK_PHA : 0 << SPI_SCK_PHA);
20011166:	449c                	lw	a5,8(s1)
20011168:	c399                	beqz	a5,2001116e <spi_init+0x13e>
/home/nicoladgg/wsFreedomStudio/SiFive_HiFive_RevB_Projects/src/./include/devices/spi.h:217 (discriminator 1)
2001116a:	4711                	li	a4,4
2001116c:	a011                	j	20011170 <spi_init+0x140>
/home/nicoladgg/wsFreedomStudio/SiFive_HiFive_RevB_Projects/src/./include/devices/spi.h:217 (discriminator 2)
2001116e:	4701                	li	a4,0
/home/nicoladgg/wsFreedomStudio/SiFive_HiFive_RevB_Projects/src/./include/devices/spi.h:217 (discriminator 4)
20011170:	44dc                	lw	a5,12(s1)
20011172:	c399                	beqz	a5,20011178 <spi_init+0x148>
/home/nicoladgg/wsFreedomStudio/SiFive_HiFive_RevB_Projects/src/./include/devices/spi.h:217 (discriminator 5)
20011174:	4791                	li	a5,4
20011176:	a011                	j	2001117a <spi_init+0x14a>
/home/nicoladgg/wsFreedomStudio/SiFive_HiFive_RevB_Projects/src/./include/devices/spi.h:217 (discriminator 6)
20011178:	4781                	li	a5,0
/home/nicoladgg/wsFreedomStudio/SiFive_HiFive_RevB_Projects/src/./include/devices/spi.h:217 (discriminator 8)
2001117a:	8f5d                	or	a4,a4,a5
2001117c:	100247b7          	lui	a5,0x10024
20011180:	0791                	addi	a5,a5,4
20011182:	c398                	sw	a4,0(a5)
/home/nicoladgg/wsFreedomStudio/SiFive_HiFive_RevB_Projects/src/./include/devices/spi.h:218 (discriminator 8)
    SPI1_REG(SPI_REG_FMT)       = SPI_FMT_PROTO(config.protocol) | SPI_FMT_ENDIAN(config.endianness) | SPI_FMT_DIR(config.direction) | SPI_FMT_LEN(config.len);
20011184:	489c                	lw	a5,16(s1)
20011186:	0037f713          	andi	a4,a5,3
2001118a:	48dc                	lw	a5,20(s1)
2001118c:	078a                	slli	a5,a5,0x2
2001118e:	8b91                	andi	a5,a5,4
20011190:	8f5d                	or	a4,a4,a5
20011192:	4c9c                	lw	a5,24(s1)
20011194:	078e                	slli	a5,a5,0x3
20011196:	8ba1                	andi	a5,a5,8
20011198:	00f766b3          	or	a3,a4,a5
2001119c:	0004c783          	lbu	a5,0(s1)
200111a0:	07c2                	slli	a5,a5,0x10
200111a2:	873e                	mv	a4,a5
200111a4:	000f07b7          	lui	a5,0xf0
200111a8:	8f7d                	and	a4,a4,a5
200111aa:	100247b7          	lui	a5,0x10024
200111ae:	04078793          	addi	a5,a5,64 # 10024040 <metal_segment_itim_target_end+0x8024040>
200111b2:	8f55                	or	a4,a4,a3
200111b4:	c398                	sw	a4,0(a5)
/home/nicoladgg/wsFreedomStudio/SiFive_HiFive_RevB_Projects/src/./include/devices/spi.h:220 (discriminator 8)

    SPI1_REG(SPI_REG_CSDEF)     = 0xFFFFFFFFUL;
200111b6:	100247b7          	lui	a5,0x10024
200111ba:	07d1                	addi	a5,a5,20
200111bc:	577d                	li	a4,-1
200111be:	c398                	sw	a4,0(a5)
/home/nicoladgg/wsFreedomStudio/SiFive_HiFive_RevB_Projects/src/./include/devices/spi.h:222 (discriminator 8)

    delay(1000);
200111c0:	3e800513          	li	a0,1000
200111c4:	3d35                	jal	20011000 <delay>
/home/nicoladgg/wsFreedomStudio/SiFive_HiFive_RevB_Projects/src/./include/devices/spi.h:224 (discriminator 8)

    return SPI_OK;
200111c6:	4781                	li	a5,0
/home/nicoladgg/wsFreedomStudio/SiFive_HiFive_RevB_Projects/src/./include/devices/spi.h:225
}
200111c8:	853e                	mv	a0,a5
200111ca:	50b2                	lw	ra,44(sp)
200111cc:	5422                	lw	s0,40(sp)
200111ce:	5492                	lw	s1,36(sp)
200111d0:	6145                	addi	sp,sp,48
200111d2:	8082                	ret

200111d4 <spi_set_cs>:
spi_set_cs():
/home/nicoladgg/wsFreedomStudio/SiFive_HiFive_RevB_Projects/src/./include/devices/spi.h:249
*/

unsigned int cs_active;

int spi_set_cs(struct spi *s, unsigned int cspin, spi_csmode_t csmode, spi_csdef_t csdef)
{
200111d4:	7179                	addi	sp,sp,-48
200111d6:	d622                	sw	s0,44(sp)
200111d8:	1800                	addi	s0,sp,48
200111da:	fca42e23          	sw	a0,-36(s0)
200111de:	fcb42c23          	sw	a1,-40(s0)
200111e2:	fcc42a23          	sw	a2,-44(s0)
200111e6:	fcd42823          	sw	a3,-48(s0)
/home/nicoladgg/wsFreedomStudio/SiFive_HiFive_RevB_Projects/src/./include/devices/spi.h:250
	if (s->spi_num != 1)
200111ea:	fdc42783          	lw	a5,-36(s0)
200111ee:	4398                	lw	a4,0(a5)
200111f0:	4785                	li	a5,1
200111f2:	00f70463          	beq	a4,a5,200111fa <spi_set_cs+0x26>
/home/nicoladgg/wsFreedomStudio/SiFive_HiFive_RevB_Projects/src/./include/devices/spi.h:252
	    {
	        return -SPI_ERR_NV;
200111f6:	57fd                	li	a5,-1
200111f8:	aa91                	j	2001134c <spi_set_cs+0x178>
/home/nicoladgg/wsFreedomStudio/SiFive_HiFive_RevB_Projects/src/./include/devices/spi.h:261
	        return -SPI_ERR_CS;
	    }

	    unsigned int gpio;
	    unsigned int csid;
	    gpio = variant_pin_map[cspin].bit_pos;
200111fa:	200107b7          	lui	a5,0x20010
200111fe:	37078713          	addi	a4,a5,880 # 20010370 <variant_pin_map>
20011202:	fd842783          	lw	a5,-40(s0)
20011206:	078a                	slli	a5,a5,0x2
20011208:	97ba                	add	a5,a5,a4
2001120a:	0017c783          	lbu	a5,1(a5)
2001120e:	fef42623          	sw	a5,-20(s0)
/home/nicoladgg/wsFreedomStudio/SiFive_HiFive_RevB_Projects/src/./include/devices/spi.h:262
	    csid = SS_PIN_TO_CS_ID(cspin);
20011212:	fd842703          	lw	a4,-40(s0)
20011216:	47a9                	li	a5,10
20011218:	02f70963          	beq	a4,a5,2001124a <spi_set_cs+0x76>
/home/nicoladgg/wsFreedomStudio/SiFive_HiFive_RevB_Projects/src/./include/devices/spi.h:262 (discriminator 1)
2001121c:	fd842703          	lw	a4,-40(s0)
20011220:	47b9                	li	a5,14
20011222:	02f70263          	beq	a4,a5,20011246 <spi_set_cs+0x72>
/home/nicoladgg/wsFreedomStudio/SiFive_HiFive_RevB_Projects/src/./include/devices/spi.h:262 (discriminator 3)
20011226:	fd842703          	lw	a4,-40(s0)
2001122a:	47bd                	li	a5,15
2001122c:	00f70b63          	beq	a4,a5,20011242 <spi_set_cs+0x6e>
/home/nicoladgg/wsFreedomStudio/SiFive_HiFive_RevB_Projects/src/./include/devices/spi.h:262 (discriminator 5)
20011230:	fd842703          	lw	a4,-40(s0)
20011234:	47c1                	li	a5,16
20011236:	00f71463          	bne	a4,a5,2001123e <spi_set_cs+0x6a>
/home/nicoladgg/wsFreedomStudio/SiFive_HiFive_RevB_Projects/src/./include/devices/spi.h:262 (discriminator 7)
2001123a:	478d                	li	a5,3
2001123c:	a801                	j	2001124c <spi_set_cs+0x78>
/home/nicoladgg/wsFreedomStudio/SiFive_HiFive_RevB_Projects/src/./include/devices/spi.h:262 (discriminator 8)
2001123e:	57fd                	li	a5,-1
20011240:	a031                	j	2001124c <spi_set_cs+0x78>
/home/nicoladgg/wsFreedomStudio/SiFive_HiFive_RevB_Projects/src/./include/devices/spi.h:262 (discriminator 6)
20011242:	4789                	li	a5,2
20011244:	a021                	j	2001124c <spi_set_cs+0x78>
/home/nicoladgg/wsFreedomStudio/SiFive_HiFive_RevB_Projects/src/./include/devices/spi.h:262 (discriminator 4)
20011246:	4785                	li	a5,1
20011248:	a011                	j	2001124c <spi_set_cs+0x78>
/home/nicoladgg/wsFreedomStudio/SiFive_HiFive_RevB_Projects/src/./include/devices/spi.h:262 (discriminator 2)
2001124a:	4781                	li	a5,0
/home/nicoladgg/wsFreedomStudio/SiFive_HiFive_RevB_Projects/src/./include/devices/spi.h:262 (discriminator 16)
2001124c:	fef42423          	sw	a5,-24(s0)
/home/nicoladgg/wsFreedomStudio/SiFive_HiFive_RevB_Projects/src/./include/devices/spi.h:265 (discriminator 16)

	    //GPIO_REG(GPIO_OUTPUT_XOR)   |= (1 << gpio);
	    GPIO_REG(GPIO_IOF_EN)       |= (1 << gpio);
20011250:	100127b7          	lui	a5,0x10012
20011254:	03878793          	addi	a5,a5,56 # 10012038 <metal_segment_itim_target_end+0x8012038>
20011258:	4398                	lw	a4,0(a5)
2001125a:	fec42783          	lw	a5,-20(s0)
2001125e:	4685                	li	a3,1
20011260:	00f697b3          	sll	a5,a3,a5
20011264:	86be                	mv	a3,a5
20011266:	100127b7          	lui	a5,0x10012
2001126a:	03878793          	addi	a5,a5,56 # 10012038 <metal_segment_itim_target_end+0x8012038>
2001126e:	8f55                	or	a4,a4,a3
20011270:	c398                	sw	a4,0(a5)
/home/nicoladgg/wsFreedomStudio/SiFive_HiFive_RevB_Projects/src/./include/devices/spi.h:269 (discriminator 16)
	    //GPIO_REG(GPIO_INPUT_EN)     &= ~(1 << gpio);
	    //GPIO_REG(GPIO_OUTPUT_EN)    |= (1 << gpio);
	    //GPIO_REG(GPIO_PULLUP_EN)    &= ~(1 << gpio);
	    GPIO_REG(GPIO_IOF_SEL)      &= ~(1 << gpio);
20011272:	100127b7          	lui	a5,0x10012
20011276:	03c78793          	addi	a5,a5,60 # 1001203c <metal_segment_itim_target_end+0x801203c>
2001127a:	4398                	lw	a4,0(a5)
2001127c:	fec42783          	lw	a5,-20(s0)
20011280:	4685                	li	a3,1
20011282:	00f697b3          	sll	a5,a3,a5
20011286:	fff7c793          	not	a5,a5
2001128a:	86be                	mv	a3,a5
2001128c:	100127b7          	lui	a5,0x10012
20011290:	03c78793          	addi	a5,a5,60 # 1001203c <metal_segment_itim_target_end+0x801203c>
20011294:	8f75                	and	a4,a4,a3
20011296:	c398                	sw	a4,0(a5)
/home/nicoladgg/wsFreedomStudio/SiFive_HiFive_RevB_Projects/src/./include/devices/spi.h:271 (discriminator 16)

	    SPI1_REG(SPI_REG_CSID)   = csid;
20011298:	100247b7          	lui	a5,0x10024
2001129c:	07c1                	addi	a5,a5,16
2001129e:	fe842703          	lw	a4,-24(s0)
200112a2:	c398                	sw	a4,0(a5)
/home/nicoladgg/wsFreedomStudio/SiFive_HiFive_RevB_Projects/src/./include/devices/spi.h:272 (discriminator 16)
	    SPI1_REG(SPI_REG_CSMODE) = csmode;
200112a4:	100247b7          	lui	a5,0x10024
200112a8:	07e1                	addi	a5,a5,24
200112aa:	fd442703          	lw	a4,-44(s0)
200112ae:	c398                	sw	a4,0(a5)
/home/nicoladgg/wsFreedomStudio/SiFive_HiFive_RevB_Projects/src/./include/devices/spi.h:274 (discriminator 16)

	    if(csdef == SPI_CSDEF_EN)
200112b0:	fd042703          	lw	a4,-48(s0)
200112b4:	4785                	li	a5,1
200112b6:	02f71263          	bne	a4,a5,200112da <spi_set_cs+0x106>
/home/nicoladgg/wsFreedomStudio/SiFive_HiFive_RevB_Projects/src/./include/devices/spi.h:276
	    {
	        SPI1_REG(SPI_REG_CSDEF) |= (1 << csid);
200112ba:	100247b7          	lui	a5,0x10024
200112be:	07d1                	addi	a5,a5,20
200112c0:	4398                	lw	a4,0(a5)
200112c2:	fe842783          	lw	a5,-24(s0)
200112c6:	4685                	li	a3,1
200112c8:	00f697b3          	sll	a5,a3,a5
200112cc:	86be                	mv	a3,a5
200112ce:	100247b7          	lui	a5,0x10024
200112d2:	07d1                	addi	a5,a5,20
200112d4:	8f55                	or	a4,a4,a3
200112d6:	c398                	sw	a4,0(a5)
200112d8:	a805                	j	20011308 <spi_set_cs+0x134>
/home/nicoladgg/wsFreedomStudio/SiFive_HiFive_RevB_Projects/src/./include/devices/spi.h:278
	    }
	    else if(csdef == SPI_CSDEF_DIS)
200112da:	fd042783          	lw	a5,-48(s0)
200112de:	e39d                	bnez	a5,20011304 <spi_set_cs+0x130>
/home/nicoladgg/wsFreedomStudio/SiFive_HiFive_RevB_Projects/src/./include/devices/spi.h:280
	    {
	        SPI1_REG(SPI_REG_CSDEF) &= ~(1 << csid);
200112e0:	100247b7          	lui	a5,0x10024
200112e4:	07d1                	addi	a5,a5,20
200112e6:	4398                	lw	a4,0(a5)
200112e8:	fe842783          	lw	a5,-24(s0)
200112ec:	4685                	li	a3,1
200112ee:	00f697b3          	sll	a5,a3,a5
200112f2:	fff7c793          	not	a5,a5
200112f6:	86be                	mv	a3,a5
200112f8:	100247b7          	lui	a5,0x10024
200112fc:	07d1                	addi	a5,a5,20
200112fe:	8f75                	and	a4,a4,a3
20011300:	c398                	sw	a4,0(a5)
20011302:	a019                	j	20011308 <spi_set_cs+0x134>
/home/nicoladgg/wsFreedomStudio/SiFive_HiFive_RevB_Projects/src/./include/devices/spi.h:284
	    }
	    else
	    {
	        return -SPI_ERR_CS;
20011304:	57f9                	li	a5,-2
20011306:	a099                	j	2001134c <spi_set_cs+0x178>
/home/nicoladgg/wsFreedomStudio/SiFive_HiFive_RevB_Projects/src/./include/devices/spi.h:287
	    }

	    SPI1_REG(SPI_REG_FMT) = SPI_FMT_PROTO(s->config.protocol) | SPI_FMT_ENDIAN(s->config.endianness) | SPI_FMT_DIR(s->config.direction) | SPI_FMT_LEN(s->config.len) | SPI_FMT_DIR(SPI_DIR_RX);
20011308:	fdc42783          	lw	a5,-36(s0)
2001130c:	539c                	lw	a5,32(a5)
2001130e:	0037f713          	andi	a4,a5,3
20011312:	fdc42783          	lw	a5,-36(s0)
20011316:	53dc                	lw	a5,36(a5)
20011318:	078a                	slli	a5,a5,0x2
2001131a:	8b91                	andi	a5,a5,4
2001131c:	8f5d                	or	a4,a4,a5
2001131e:	fdc42783          	lw	a5,-36(s0)
20011322:	579c                	lw	a5,40(a5)
20011324:	078e                	slli	a5,a5,0x3
20011326:	8ba1                	andi	a5,a5,8
20011328:	00f766b3          	or	a3,a4,a5
2001132c:	fdc42783          	lw	a5,-36(s0)
20011330:	0107c783          	lbu	a5,16(a5) # 10024010 <metal_segment_itim_target_end+0x8024010>
20011334:	07c2                	slli	a5,a5,0x10
20011336:	873e                	mv	a4,a5
20011338:	000f07b7          	lui	a5,0xf0
2001133c:	8f7d                	and	a4,a4,a5
2001133e:	100247b7          	lui	a5,0x10024
20011342:	04078793          	addi	a5,a5,64 # 10024040 <metal_segment_itim_target_end+0x8024040>
20011346:	8f55                	or	a4,a4,a3
20011348:	c398                	sw	a4,0(a5)
/home/nicoladgg/wsFreedomStudio/SiFive_HiFive_RevB_Projects/src/./include/devices/spi.h:289

	    return SPI_OK;
2001134a:	4781                	li	a5,0
/home/nicoladgg/wsFreedomStudio/SiFive_HiFive_RevB_Projects/src/./include/devices/spi.h:290
}
2001134c:	853e                	mv	a0,a5
2001134e:	5432                	lw	s0,44(sp)
20011350:	6145                	addi	sp,sp,48
20011352:	8082                	ret

20011354 <spi_send_multiple>:
spi_send_multiple():
/home/nicoladgg/wsFreedomStudio/SiFive_HiFive_RevB_Projects/src/./include/devices/spi.h:317

    return SPI_OK;
}

int spi_send_multiple(struct spi *s, unsigned int cspin, uint8_t *tx, unsigned int size)
{
20011354:	7179                	addi	sp,sp,-48
20011356:	d606                	sw	ra,44(sp)
20011358:	d422                	sw	s0,40(sp)
2001135a:	1800                	addi	s0,sp,48
2001135c:	fca42e23          	sw	a0,-36(s0)
20011360:	fcb42c23          	sw	a1,-40(s0)
20011364:	fcc42a23          	sw	a2,-44(s0)
20011368:	fcd42823          	sw	a3,-48(s0)
/home/nicoladgg/wsFreedomStudio/SiFive_HiFive_RevB_Projects/src/./include/devices/spi.h:319

	if(size == 0)
2001136c:	fd042783          	lw	a5,-48(s0)
20011370:	e399                	bnez	a5,20011376 <spi_send_multiple+0x22>
/home/nicoladgg/wsFreedomStudio/SiFive_HiFive_RevB_Projects/src/./include/devices/spi.h:321
	{
		return -SPI_ERR_NV;
20011372:	57fd                	li	a5,-1
20011374:	a085                	j	200113d4 <spi_send_multiple+0x80>
/home/nicoladgg/wsFreedomStudio/SiFive_HiFive_RevB_Projects/src/./include/devices/spi.h:325
	}
	uint16_t i;
	int rc;
	for(i = 0; i < size; i++)
20011376:	fe041723          	sh	zero,-18(s0)
2001137a:	a089                	j	200113bc <spi_send_multiple+0x68>
/home/nicoladgg/wsFreedomStudio/SiFive_HiFive_RevB_Projects/src/./include/devices/spi.h:327
	{
		while (SPI1_REG(SPI_REG_TXFIFO) > 0xFF) {}
2001137c:	0001                	nop
/home/nicoladgg/wsFreedomStudio/SiFive_HiFive_RevB_Projects/src/./include/devices/spi.h:327 (discriminator 1)
2001137e:	100247b7          	lui	a5,0x10024
20011382:	04878793          	addi	a5,a5,72 # 10024048 <metal_segment_itim_target_end+0x8024048>
20011386:	4398                	lw	a4,0(a5)
20011388:	0ff00793          	li	a5,255
2001138c:	fee7e9e3          	bltu	a5,a4,2001137e <spi_send_multiple+0x2a>
/home/nicoladgg/wsFreedomStudio/SiFive_HiFive_RevB_Projects/src/./include/devices/spi.h:328
		    SPI1_REG(SPI_REG_TXFIFO) = tx;
20011390:	100247b7          	lui	a5,0x10024
20011394:	04878793          	addi	a5,a5,72 # 10024048 <metal_segment_itim_target_end+0x8024048>
20011398:	fd442703          	lw	a4,-44(s0)
2001139c:	c398                	sw	a4,0(a5)
/home/nicoladgg/wsFreedomStudio/SiFive_HiFive_RevB_Projects/src/./include/devices/spi.h:330

		    while (SPI1_REG(SPI_REG_RXFIFO) <= 0xFF)
2001139e:	0001                	nop
/home/nicoladgg/wsFreedomStudio/SiFive_HiFive_RevB_Projects/src/./include/devices/spi.h:330 (discriminator 1)
200113a0:	100247b7          	lui	a5,0x10024
200113a4:	04c78793          	addi	a5,a5,76 # 1002404c <metal_segment_itim_target_end+0x802404c>
200113a8:	4398                	lw	a4,0(a5)
200113aa:	0ff00793          	li	a5,255
200113ae:	fee7f9e3          	bgeu	a5,a4,200113a0 <spi_send_multiple+0x4c>
/home/nicoladgg/wsFreedomStudio/SiFive_HiFive_RevB_Projects/src/./include/devices/spi.h:325 (discriminator 2)
	for(i = 0; i < size; i++)
200113b2:	fee45783          	lhu	a5,-18(s0)
200113b6:	0785                	addi	a5,a5,1
200113b8:	fef41723          	sh	a5,-18(s0)
/home/nicoladgg/wsFreedomStudio/SiFive_HiFive_RevB_Projects/src/./include/devices/spi.h:325 (discriminator 1)
200113bc:	fee45783          	lhu	a5,-18(s0)
200113c0:	fd042703          	lw	a4,-48(s0)
200113c4:	fae7ece3          	bltu	a5,a4,2001137c <spi_send_multiple+0x28>
/home/nicoladgg/wsFreedomStudio/SiFive_HiFive_RevB_Projects/src/./include/devices/spi.h:334
		       ;
	}

    delay(10000);
200113c8:	6789                	lui	a5,0x2
200113ca:	71078513          	addi	a0,a5,1808 # 2710 <__heap_size+0x1f10>
200113ce:	390d                	jal	20011000 <delay>
/home/nicoladgg/wsFreedomStudio/SiFive_HiFive_RevB_Projects/src/./include/devices/spi.h:335
	return rc;
200113d0:	fe842783          	lw	a5,-24(s0)
/home/nicoladgg/wsFreedomStudio/SiFive_HiFive_RevB_Projects/src/./include/devices/spi.h:337

}
200113d4:	853e                	mv	a0,a5
200113d6:	50b2                	lw	ra,44(sp)
200113d8:	5422                	lw	s0,40(sp)
200113da:	6145                	addi	sp,sp,48
200113dc:	8082                	ret

200113de <spi_receive_multiple>:
spi_receive_multiple():
/home/nicoladgg/wsFreedomStudio/SiFive_HiFive_RevB_Projects/src/./include/devices/spi.h:366

    return SPI_OK;
}

int spi_receive_multiple(struct spi *s, unsigned int cspin, uint8_t *rx, unsigned int size)
{
200113de:	7179                	addi	sp,sp,-48
200113e0:	d606                	sw	ra,44(sp)
200113e2:	d422                	sw	s0,40(sp)
200113e4:	1800                	addi	s0,sp,48
200113e6:	fca42e23          	sw	a0,-36(s0)
200113ea:	fcb42c23          	sw	a1,-40(s0)
200113ee:	fcc42a23          	sw	a2,-44(s0)
200113f2:	fcd42823          	sw	a3,-48(s0)
/home/nicoladgg/wsFreedomStudio/SiFive_HiFive_RevB_Projects/src/./include/devices/spi.h:368

	if(size == 0)
200113f6:	fd042783          	lw	a5,-48(s0)
200113fa:	e399                	bnez	a5,20011400 <spi_receive_multiple+0x22>
/home/nicoladgg/wsFreedomStudio/SiFive_HiFive_RevB_Projects/src/./include/devices/spi.h:370
	{
		return -SPI_ERR_NV;
200113fc:	57fd                	li	a5,-1
200113fe:	a085                	j	2001145e <spi_receive_multiple+0x80>
/home/nicoladgg/wsFreedomStudio/SiFive_HiFive_RevB_Projects/src/./include/devices/spi.h:375
	}

	uint16_t i;
	int rc;
	for(i = 0; i < size; i++)
20011400:	fe041723          	sh	zero,-18(s0)
20011404:	a089                	j	20011446 <spi_receive_multiple+0x68>
/home/nicoladgg/wsFreedomStudio/SiFive_HiFive_RevB_Projects/src/./include/devices/spi.h:377
	{
		while (SPI1_REG(SPI_REG_TXFIFO) > 0xFF) {}
20011406:	0001                	nop
/home/nicoladgg/wsFreedomStudio/SiFive_HiFive_RevB_Projects/src/./include/devices/spi.h:377 (discriminator 1)
20011408:	100247b7          	lui	a5,0x10024
2001140c:	04878793          	addi	a5,a5,72 # 10024048 <metal_segment_itim_target_end+0x8024048>
20011410:	4398                	lw	a4,0(a5)
20011412:	0ff00793          	li	a5,255
20011416:	fee7e9e3          	bltu	a5,a4,20011408 <spi_receive_multiple+0x2a>
/home/nicoladgg/wsFreedomStudio/SiFive_HiFive_RevB_Projects/src/./include/devices/spi.h:378 (discriminator 2)
		    SPI1_REG(SPI_REG_TXFIFO) = 0x00;
2001141a:	100247b7          	lui	a5,0x10024
2001141e:	04878793          	addi	a5,a5,72 # 10024048 <metal_segment_itim_target_end+0x8024048>
20011422:	0007a023          	sw	zero,0(a5)
/home/nicoladgg/wsFreedomStudio/SiFive_HiFive_RevB_Projects/src/./include/devices/spi.h:380 (discriminator 2)

		    *rx = SPI1_REG(SPI_REG_RXFIFO);
20011426:	100247b7          	lui	a5,0x10024
2001142a:	04c78793          	addi	a5,a5,76 # 1002404c <metal_segment_itim_target_end+0x802404c>
2001142e:	439c                	lw	a5,0(a5)
20011430:	0ff7f713          	zext.b	a4,a5
20011434:	fd442783          	lw	a5,-44(s0)
20011438:	00e78023          	sb	a4,0(a5)
/home/nicoladgg/wsFreedomStudio/SiFive_HiFive_RevB_Projects/src/./include/devices/spi.h:375 (discriminator 2)
	for(i = 0; i < size; i++)
2001143c:	fee45783          	lhu	a5,-18(s0)
20011440:	0785                	addi	a5,a5,1
20011442:	fef41723          	sh	a5,-18(s0)
/home/nicoladgg/wsFreedomStudio/SiFive_HiFive_RevB_Projects/src/./include/devices/spi.h:375 (discriminator 1)
20011446:	fee45783          	lhu	a5,-18(s0)
2001144a:	fd042703          	lw	a4,-48(s0)
2001144e:	fae7ece3          	bltu	a5,a4,20011406 <spi_receive_multiple+0x28>
/home/nicoladgg/wsFreedomStudio/SiFive_HiFive_RevB_Projects/src/./include/devices/spi.h:382
	}
    delay(10000);
20011452:	6789                	lui	a5,0x2
20011454:	71078513          	addi	a0,a5,1808 # 2710 <__heap_size+0x1f10>
20011458:	3665                	jal	20011000 <delay>
/home/nicoladgg/wsFreedomStudio/SiFive_HiFive_RevB_Projects/src/./include/devices/spi.h:384

	return rc;
2001145a:	fe842783          	lw	a5,-24(s0)
/home/nicoladgg/wsFreedomStudio/SiFive_HiFive_RevB_Projects/src/./include/devices/spi.h:386

}
2001145e:	853e                	mv	a0,a5
20011460:	50b2                	lw	ra,44(sp)
20011462:	5422                	lw	s0,40(sp)
20011464:	6145                	addi	sp,sp,48
20011466:	8082                	ret

20011468 <set_freq_320MHz>:
set_freq_320MHz():
/home/nicoladgg/wsFreedomStudio/SiFive_HiFive_RevB_Projects/src/./include/cpu_freq.h:33

    cpu_freq = 384000000;
}

void set_freq_320MHz()
{
20011468:	1141                	addi	sp,sp,-16
2001146a:	c622                	sw	s0,12(sp)
2001146c:	0800                	addi	s0,sp,16
/home/nicoladgg/wsFreedomStudio/SiFive_HiFive_RevB_Projects/src/./include/cpu_freq.h:38
    /* Divide standard frequency by 2 PLL_R = 0b01 = 2,
	 * multiply by 80 PLL_F = 80/2-1 = M/2-1 = 39,
	 * divide by 2 PLL_Q = 1 = 0b01 = 2
	 */
    PRCI_REG(PRCI_PLLCFG) = PLL_R(1) | PLL_F(39) | PLL_Q(0b01) | PLL_REFSEL(1);
2001146e:	100087b7          	lui	a5,0x10008
20011472:	07a1                	addi	a5,a5,8
20011474:	00020737          	lui	a4,0x20
20011478:	67170713          	addi	a4,a4,1649 # 20671 <__heap_size+0x1fe71>
2001147c:	c398                	sw	a4,0(a5)
/home/nicoladgg/wsFreedomStudio/SiFive_HiFive_RevB_Projects/src/./include/cpu_freq.h:40

    while (PRCI_REG(PRCI_PLLCFG) & PLL_LOCK(1) == 0)
2001147e:	0001                	nop
20011480:	100087b7          	lui	a5,0x10008
20011484:	07a1                	addi	a5,a5,8
20011486:	439c                	lw	a5,0(a5)
/home/nicoladgg/wsFreedomStudio/SiFive_HiFive_RevB_Projects/src/./include/cpu_freq.h:43
        ;

    PRCI_REG(PRCI_PLLCFG) |= PLL_SEL(1);
20011488:	100087b7          	lui	a5,0x10008
2001148c:	07a1                	addi	a5,a5,8
2001148e:	4394                	lw	a3,0(a5)
20011490:	100087b7          	lui	a5,0x10008
20011494:	07a1                	addi	a5,a5,8
20011496:	6741                	lui	a4,0x10
20011498:	8f55                	or	a4,a4,a3
2001149a:	c398                	sw	a4,0(a5)
/home/nicoladgg/wsFreedomStudio/SiFive_HiFive_RevB_Projects/src/./include/cpu_freq.h:45

    cpu_freq = 320000000;
2001149c:	800017b7          	lui	a5,0x80001
200114a0:	1312d737          	lui	a4,0x1312d
200114a4:	aae7a023          	sw	a4,-1376(a5) # 80000aa0 <metal_segment_heap_target_end+0xfffff320>
/home/nicoladgg/wsFreedomStudio/SiFive_HiFive_RevB_Projects/src/./include/cpu_freq.h:46
}
200114a8:	0001                	nop
200114aa:	4432                	lw	s0,12(sp)
200114ac:	0141                	addi	sp,sp,16
200114ae:	8082                	ret

200114b0 <uart_init>:
uart_init():
/home/nicoladgg/wsFreedomStudio/SiFive_HiFive_RevB_Projects/src/./include/devices/uart.h:55
int uart_close(unsigned int uart);

static int uart_active[2] = {0, 0};

int uart_init(unsigned int uart, unsigned int baud)
{
200114b0:	7179                	addi	sp,sp,-48
200114b2:	d622                	sw	s0,44(sp)
200114b4:	1800                	addi	s0,sp,48
200114b6:	fca42e23          	sw	a0,-36(s0)
200114ba:	fcb42c23          	sw	a1,-40(s0)
/home/nicoladgg/wsFreedomStudio/SiFive_HiFive_RevB_Projects/src/./include/devices/uart.h:56
    if(uart > 1)
200114be:	fdc42703          	lw	a4,-36(s0)
200114c2:	4785                	li	a5,1
200114c4:	00e7f463          	bgeu	a5,a4,200114cc <uart_init+0x1c>
/home/nicoladgg/wsFreedomStudio/SiFive_HiFive_RevB_Projects/src/./include/devices/uart.h:58
    {
        return -UART_ERR_NV;
200114c8:	57fd                	li	a5,-1
200114ca:	a485                	j	2001172a <uart_init+0x27a>
/home/nicoladgg/wsFreedomStudio/SiFive_HiFive_RevB_Projects/src/./include/devices/uart.h:60
    }
    if(uart_active[uart] == UART_ACTIVE)
200114cc:	800017b7          	lui	a5,0x80001
200114d0:	ac878713          	addi	a4,a5,-1336 # 80000ac8 <metal_segment_heap_target_end+0xfffff348>
200114d4:	fdc42783          	lw	a5,-36(s0)
200114d8:	078a                	slli	a5,a5,0x2
200114da:	97ba                	add	a5,a5,a4
200114dc:	4398                	lw	a4,0(a5)
200114de:	4785                	li	a5,1
200114e0:	00f71463          	bne	a4,a5,200114e8 <uart_init+0x38>
/home/nicoladgg/wsFreedomStudio/SiFive_HiFive_RevB_Projects/src/./include/devices/uart.h:62
    {
        return -UART_ERR_ACT;
200114e4:	57f9                	li	a5,-2
200114e6:	a491                	j	2001172a <uart_init+0x27a>
/home/nicoladgg/wsFreedomStudio/SiFive_HiFive_RevB_Projects/src/./include/devices/uart.h:64
    }
    if (baud > cpu_freq)
200114e8:	800017b7          	lui	a5,0x80001
200114ec:	aa07a783          	lw	a5,-1376(a5) # 80000aa0 <metal_segment_heap_target_end+0xfffff320>
200114f0:	fd842703          	lw	a4,-40(s0)
200114f4:	00e7f463          	bgeu	a5,a4,200114fc <uart_init+0x4c>
/home/nicoladgg/wsFreedomStudio/SiFive_HiFive_RevB_Projects/src/./include/devices/uart.h:66
    {
        return -UART_ERR_BAUD;
200114f8:	57f5                	li	a5,-3
200114fa:	ac05                	j	2001172a <uart_init+0x27a>
/home/nicoladgg/wsFreedomStudio/SiFive_HiFive_RevB_Projects/src/./include/devices/uart.h:70
    }

    unsigned int div;
    div = cpu_freq / baud - 1;
200114fc:	800017b7          	lui	a5,0x80001
20011500:	aa07a703          	lw	a4,-1376(a5) # 80000aa0 <metal_segment_heap_target_end+0xfffff320>
20011504:	fd842783          	lw	a5,-40(s0)
20011508:	02f757b3          	divu	a5,a4,a5
2001150c:	17fd                	addi	a5,a5,-1
2001150e:	fef42623          	sw	a5,-20(s0)
/home/nicoladgg/wsFreedomStudio/SiFive_HiFive_RevB_Projects/src/./include/devices/uart.h:72

    switch (uart)
20011512:	fdc42783          	lw	a5,-36(s0)
20011516:	c799                	beqz	a5,20011524 <uart_init+0x74>
20011518:	fdc42703          	lw	a4,-36(s0)
2001151c:	4785                	li	a5,1
2001151e:	0af70b63          	beq	a4,a5,200115d4 <uart_init+0x124>
20011522:	a2fd                	j	20011710 <uart_init+0x260>
/home/nicoladgg/wsFreedomStudio/SiFive_HiFive_RevB_Projects/src/./include/devices/uart.h:76
    {
    case 0:
        //GPIO_REG(GPIO_OUTPUT_XOR)   &= ~(1 << GPIO_UART0_RX);
        GPIO_REG(GPIO_IOF_EN)       |= (1 << GPIO_UART0_RX);
20011524:	100127b7          	lui	a5,0x10012
20011528:	03878793          	addi	a5,a5,56 # 10012038 <metal_segment_itim_target_end+0x8012038>
2001152c:	4394                	lw	a3,0(a5)
2001152e:	100127b7          	lui	a5,0x10012
20011532:	03878793          	addi	a5,a5,56 # 10012038 <metal_segment_itim_target_end+0x8012038>
20011536:	6741                	lui	a4,0x10
20011538:	8f55                	or	a4,a4,a3
2001153a:	c398                	sw	a4,0(a5)
/home/nicoladgg/wsFreedomStudio/SiFive_HiFive_RevB_Projects/src/./include/devices/uart.h:80
        //GPIO_REG(GPIO_INPUT_EN)     |= (1 << GPIO_UART0_RX);
        //GPIO_REG(GPIO_OUTPUT_EN)    &= ~(1 << GPIO_UART0_RX);
        //GPIO_REG(GPIO_PULLUP_EN)    &= ~(1 << GPIO_UART0_RX);
        GPIO_REG(GPIO_IOF_SEL)      &= ~(1 << GPIO_UART0_RX);
2001153c:	100127b7          	lui	a5,0x10012
20011540:	03c78793          	addi	a5,a5,60 # 1001203c <metal_segment_itim_target_end+0x801203c>
20011544:	4394                	lw	a3,0(a5)
20011546:	100127b7          	lui	a5,0x10012
2001154a:	03c78793          	addi	a5,a5,60 # 1001203c <metal_segment_itim_target_end+0x801203c>
2001154e:	7741                	lui	a4,0xffff0
20011550:	177d                	addi	a4,a4,-1
20011552:	8f75                	and	a4,a4,a3
20011554:	c398                	sw	a4,0(a5)
/home/nicoladgg/wsFreedomStudio/SiFive_HiFive_RevB_Projects/src/./include/devices/uart.h:83

        //GPIO_REG(GPIO_OUTPUT_XOR)   |= (1 << GPIO_UART0_TX);
        GPIO_REG(GPIO_IOF_EN)       |= (1 << GPIO_UART0_TX);
20011556:	100127b7          	lui	a5,0x10012
2001155a:	03878793          	addi	a5,a5,56 # 10012038 <metal_segment_itim_target_end+0x8012038>
2001155e:	4394                	lw	a3,0(a5)
20011560:	100127b7          	lui	a5,0x10012
20011564:	03878793          	addi	a5,a5,56 # 10012038 <metal_segment_itim_target_end+0x8012038>
20011568:	00020737          	lui	a4,0x20
2001156c:	8f55                	or	a4,a4,a3
2001156e:	c398                	sw	a4,0(a5)
/home/nicoladgg/wsFreedomStudio/SiFive_HiFive_RevB_Projects/src/./include/devices/uart.h:87
        //GPIO_REG(GPIO_INPUT_EN)     &= ~(1 << GPIO_UART0_TX);
        //GPIO_REG(GPIO_OUTPUT_EN)    |= 1 << GPIO_UART0_TX;
        //GPIO_REG(GPIO_PULLUP_EN)    &= ~(1 << GPIO_UART0_TX);
        GPIO_REG(GPIO_IOF_SEL)      &= ~(1 << GPIO_UART0_TX);
20011570:	100127b7          	lui	a5,0x10012
20011574:	03c78793          	addi	a5,a5,60 # 1001203c <metal_segment_itim_target_end+0x801203c>
20011578:	4394                	lw	a3,0(a5)
2001157a:	100127b7          	lui	a5,0x10012
2001157e:	03c78793          	addi	a5,a5,60 # 1001203c <metal_segment_itim_target_end+0x801203c>
20011582:	7701                	lui	a4,0xfffe0
20011584:	177d                	addi	a4,a4,-1
20011586:	8f75                	and	a4,a4,a3
20011588:	c398                	sw	a4,0(a5)
/home/nicoladgg/wsFreedomStudio/SiFive_HiFive_RevB_Projects/src/./include/devices/uart.h:89

        UART0_REG(UART_REG_TXCTRL) = 0;
2001158a:	100137b7          	lui	a5,0x10013
2001158e:	07a1                	addi	a5,a5,8
20011590:	0007a023          	sw	zero,0(a5) # 10013000 <metal_segment_itim_target_end+0x8013000>
/home/nicoladgg/wsFreedomStudio/SiFive_HiFive_RevB_Projects/src/./include/devices/uart.h:90
        UART0_REG(UART_REG_RXCTRL) = 0;
20011594:	100137b7          	lui	a5,0x10013
20011598:	07b1                	addi	a5,a5,12
2001159a:	0007a023          	sw	zero,0(a5) # 10013000 <metal_segment_itim_target_end+0x8013000>
/home/nicoladgg/wsFreedomStudio/SiFive_HiFive_RevB_Projects/src/./include/devices/uart.h:91
        UART0_REG(UART_REG_DIV) = div;
2001159e:	100137b7          	lui	a5,0x10013
200115a2:	07e1                	addi	a5,a5,24
200115a4:	fec42703          	lw	a4,-20(s0)
200115a8:	c398                	sw	a4,0(a5)
/home/nicoladgg/wsFreedomStudio/SiFive_HiFive_RevB_Projects/src/./include/devices/uart.h:92
        UART0_REG(UART_REG_RXCTRL) |= 1 << UART_RXEN;
200115aa:	100137b7          	lui	a5,0x10013
200115ae:	07b1                	addi	a5,a5,12
200115b0:	4398                	lw	a4,0(a5)
200115b2:	100137b7          	lui	a5,0x10013
200115b6:	07b1                	addi	a5,a5,12
200115b8:	00276713          	ori	a4,a4,2
200115bc:	c398                	sw	a4,0(a5)
/home/nicoladgg/wsFreedomStudio/SiFive_HiFive_RevB_Projects/src/./include/devices/uart.h:93
        UART0_REG(UART_REG_TXCTRL) |= 1 << UART_TXEN;
200115be:	100137b7          	lui	a5,0x10013
200115c2:	07a1                	addi	a5,a5,8
200115c4:	4398                	lw	a4,0(a5)
200115c6:	100137b7          	lui	a5,0x10013
200115ca:	07a1                	addi	a5,a5,8
200115cc:	00276713          	ori	a4,a4,2
200115d0:	c398                	sw	a4,0(a5)
/home/nicoladgg/wsFreedomStudio/SiFive_HiFive_RevB_Projects/src/./include/devices/uart.h:94
        break;
200115d2:	a289                	j	20011714 <uart_init+0x264>
/home/nicoladgg/wsFreedomStudio/SiFive_HiFive_RevB_Projects/src/./include/devices/uart.h:97

    case 1:
        GPIO_REG(GPIO_OUTPUT_XOR)   &= ~(1 << GPIO_UART1_RX);
200115d4:	100127b7          	lui	a5,0x10012
200115d8:	04078793          	addi	a5,a5,64 # 10012040 <metal_segment_itim_target_end+0x8012040>
200115dc:	4394                	lw	a3,0(a5)
200115de:	100127b7          	lui	a5,0x10012
200115e2:	04078793          	addi	a5,a5,64 # 10012040 <metal_segment_itim_target_end+0x8012040>
200115e6:	fff80737          	lui	a4,0xfff80
200115ea:	177d                	addi	a4,a4,-1
200115ec:	8f75                	and	a4,a4,a3
200115ee:	c398                	sw	a4,0(a5)
/home/nicoladgg/wsFreedomStudio/SiFive_HiFive_RevB_Projects/src/./include/devices/uart.h:98
        GPIO_REG(GPIO_IOF_EN)       |= (1 << GPIO_UART1_RX);
200115f0:	100127b7          	lui	a5,0x10012
200115f4:	03878793          	addi	a5,a5,56 # 10012038 <metal_segment_itim_target_end+0x8012038>
200115f8:	4394                	lw	a3,0(a5)
200115fa:	100127b7          	lui	a5,0x10012
200115fe:	03878793          	addi	a5,a5,56 # 10012038 <metal_segment_itim_target_end+0x8012038>
20011602:	00080737          	lui	a4,0x80
20011606:	8f55                	or	a4,a4,a3
20011608:	c398                	sw	a4,0(a5)
/home/nicoladgg/wsFreedomStudio/SiFive_HiFive_RevB_Projects/src/./include/devices/uart.h:99
        GPIO_REG(GPIO_INPUT_EN)     |= (1 << GPIO_UART1_RX);
2001160a:	100127b7          	lui	a5,0x10012
2001160e:	0791                	addi	a5,a5,4
20011610:	4394                	lw	a3,0(a5)
20011612:	100127b7          	lui	a5,0x10012
20011616:	0791                	addi	a5,a5,4
20011618:	00080737          	lui	a4,0x80
2001161c:	8f55                	or	a4,a4,a3
2001161e:	c398                	sw	a4,0(a5)
/home/nicoladgg/wsFreedomStudio/SiFive_HiFive_RevB_Projects/src/./include/devices/uart.h:100
        GPIO_REG(GPIO_OUTPUT_EN)    &= ~(1 << GPIO_UART1_RX);
20011620:	100127b7          	lui	a5,0x10012
20011624:	07a1                	addi	a5,a5,8
20011626:	4394                	lw	a3,0(a5)
20011628:	100127b7          	lui	a5,0x10012
2001162c:	07a1                	addi	a5,a5,8
2001162e:	fff80737          	lui	a4,0xfff80
20011632:	177d                	addi	a4,a4,-1
20011634:	8f75                	and	a4,a4,a3
20011636:	c398                	sw	a4,0(a5)
/home/nicoladgg/wsFreedomStudio/SiFive_HiFive_RevB_Projects/src/./include/devices/uart.h:101
        GPIO_REG(GPIO_PULLUP_EN)    &= ~(1 << GPIO_UART1_RX);
20011638:	100127b7          	lui	a5,0x10012
2001163c:	07c1                	addi	a5,a5,16
2001163e:	4394                	lw	a3,0(a5)
20011640:	100127b7          	lui	a5,0x10012
20011644:	07c1                	addi	a5,a5,16
20011646:	fff80737          	lui	a4,0xfff80
2001164a:	177d                	addi	a4,a4,-1
2001164c:	8f75                	and	a4,a4,a3
2001164e:	c398                	sw	a4,0(a5)
/home/nicoladgg/wsFreedomStudio/SiFive_HiFive_RevB_Projects/src/./include/devices/uart.h:102
        GPIO_REG(GPIO_IOF_SEL)      &= ~(1 << GPIO_UART1_RX);
20011650:	100127b7          	lui	a5,0x10012
20011654:	03c78793          	addi	a5,a5,60 # 1001203c <metal_segment_itim_target_end+0x801203c>
20011658:	4394                	lw	a3,0(a5)
2001165a:	100127b7          	lui	a5,0x10012
2001165e:	03c78793          	addi	a5,a5,60 # 1001203c <metal_segment_itim_target_end+0x801203c>
20011662:	fff80737          	lui	a4,0xfff80
20011666:	177d                	addi	a4,a4,-1
20011668:	8f75                	and	a4,a4,a3
2001166a:	c398                	sw	a4,0(a5)
/home/nicoladgg/wsFreedomStudio/SiFive_HiFive_RevB_Projects/src/./include/devices/uart.h:104

        GPIO_REG(GPIO_OUTPUT_XOR)   |= (1 << GPIO_UART1_TX);
2001166c:	100127b7          	lui	a5,0x10012
20011670:	04078793          	addi	a5,a5,64 # 10012040 <metal_segment_itim_target_end+0x8012040>
20011674:	4394                	lw	a3,0(a5)
20011676:	100127b7          	lui	a5,0x10012
2001167a:	04078793          	addi	a5,a5,64 # 10012040 <metal_segment_itim_target_end+0x8012040>
2001167e:	00040737          	lui	a4,0x40
20011682:	8f55                	or	a4,a4,a3
20011684:	c398                	sw	a4,0(a5)
/home/nicoladgg/wsFreedomStudio/SiFive_HiFive_RevB_Projects/src/./include/devices/uart.h:105
        GPIO_REG(GPIO_IOF_EN)       |= (1 << GPIO_UART1_TX);
20011686:	100127b7          	lui	a5,0x10012
2001168a:	03878793          	addi	a5,a5,56 # 10012038 <metal_segment_itim_target_end+0x8012038>
2001168e:	4394                	lw	a3,0(a5)
20011690:	100127b7          	lui	a5,0x10012
20011694:	03878793          	addi	a5,a5,56 # 10012038 <metal_segment_itim_target_end+0x8012038>
20011698:	00040737          	lui	a4,0x40
2001169c:	8f55                	or	a4,a4,a3
2001169e:	c398                	sw	a4,0(a5)
/home/nicoladgg/wsFreedomStudio/SiFive_HiFive_RevB_Projects/src/./include/devices/uart.h:106
        GPIO_REG(GPIO_INPUT_EN)     &= ~(1 << GPIO_UART1_TX);
200116a0:	100127b7          	lui	a5,0x10012
200116a4:	0791                	addi	a5,a5,4
200116a6:	4394                	lw	a3,0(a5)
200116a8:	100127b7          	lui	a5,0x10012
200116ac:	0791                	addi	a5,a5,4
200116ae:	fffc0737          	lui	a4,0xfffc0
200116b2:	177d                	addi	a4,a4,-1
200116b4:	8f75                	and	a4,a4,a3
200116b6:	c398                	sw	a4,0(a5)
/home/nicoladgg/wsFreedomStudio/SiFive_HiFive_RevB_Projects/src/./include/devices/uart.h:107
        GPIO_REG(GPIO_OUTPUT_EN)    |= 1 << GPIO_UART1_TX;
200116b8:	100127b7          	lui	a5,0x10012
200116bc:	07a1                	addi	a5,a5,8
200116be:	4394                	lw	a3,0(a5)
200116c0:	100127b7          	lui	a5,0x10012
200116c4:	07a1                	addi	a5,a5,8
200116c6:	00040737          	lui	a4,0x40
200116ca:	8f55                	or	a4,a4,a3
200116cc:	c398                	sw	a4,0(a5)
/home/nicoladgg/wsFreedomStudio/SiFive_HiFive_RevB_Projects/src/./include/devices/uart.h:108
        GPIO_REG(GPIO_PULLUP_EN)    &= ~(1 << GPIO_UART1_TX);
200116ce:	100127b7          	lui	a5,0x10012
200116d2:	07c1                	addi	a5,a5,16
200116d4:	4394                	lw	a3,0(a5)
200116d6:	100127b7          	lui	a5,0x10012
200116da:	07c1                	addi	a5,a5,16
200116dc:	fffc0737          	lui	a4,0xfffc0
200116e0:	177d                	addi	a4,a4,-1
200116e2:	8f75                	and	a4,a4,a3
200116e4:	c398                	sw	a4,0(a5)
/home/nicoladgg/wsFreedomStudio/SiFive_HiFive_RevB_Projects/src/./include/devices/uart.h:109
        GPIO_REG(GPIO_IOF_SEL)      &= ~(1 << GPIO_UART1_TX);
200116e6:	100127b7          	lui	a5,0x10012
200116ea:	03c78793          	addi	a5,a5,60 # 1001203c <metal_segment_itim_target_end+0x801203c>
200116ee:	4394                	lw	a3,0(a5)
200116f0:	100127b7          	lui	a5,0x10012
200116f4:	03c78793          	addi	a5,a5,60 # 1001203c <metal_segment_itim_target_end+0x801203c>
200116f8:	fffc0737          	lui	a4,0xfffc0
200116fc:	177d                	addi	a4,a4,-1
200116fe:	8f75                	and	a4,a4,a3
20011700:	c398                	sw	a4,0(a5)
/home/nicoladgg/wsFreedomStudio/SiFive_HiFive_RevB_Projects/src/./include/devices/uart.h:111

        UART1_REG(UART_REG_DIV) = div;
20011702:	100237b7          	lui	a5,0x10023
20011706:	07e1                	addi	a5,a5,24
20011708:	fec42703          	lw	a4,-20(s0)
2001170c:	c398                	sw	a4,0(a5)
/home/nicoladgg/wsFreedomStudio/SiFive_HiFive_RevB_Projects/src/./include/devices/uart.h:112
        break;
2001170e:	a019                	j	20011714 <uart_init+0x264>
/home/nicoladgg/wsFreedomStudio/SiFive_HiFive_RevB_Projects/src/./include/devices/uart.h:115

    default:
        return -UART_ERR_NV;
20011710:	57fd                	li	a5,-1
20011712:	a821                	j	2001172a <uart_init+0x27a>
/home/nicoladgg/wsFreedomStudio/SiFive_HiFive_RevB_Projects/src/./include/devices/uart.h:119
    }


    uart_active[uart] = UART_ACTIVE;
20011714:	800017b7          	lui	a5,0x80001
20011718:	ac878713          	addi	a4,a5,-1336 # 80000ac8 <metal_segment_heap_target_end+0xfffff348>
2001171c:	fdc42783          	lw	a5,-36(s0)
20011720:	078a                	slli	a5,a5,0x2
20011722:	97ba                	add	a5,a5,a4
20011724:	4705                	li	a4,1
20011726:	c398                	sw	a4,0(a5)
/home/nicoladgg/wsFreedomStudio/SiFive_HiFive_RevB_Projects/src/./include/devices/uart.h:121

    return UART_OK;
20011728:	4781                	li	a5,0
/home/nicoladgg/wsFreedomStudio/SiFive_HiFive_RevB_Projects/src/./include/devices/uart.h:122
}
2001172a:	853e                	mv	a0,a5
2001172c:	5432                	lw	s0,44(sp)
2001172e:	6145                	addi	sp,sp,48
20011730:	8082                	ret

20011732 <main>:
main():
/home/nicoladgg/wsFreedomStudio/SiFive_HiFive_RevB_Projects/src/main.c:45

    timer_isr_flag = 0;
}

int main (void)
{
20011732:	7171                	addi	sp,sp,-176
20011734:	d706                	sw	ra,172(sp)
20011736:	d522                	sw	s0,168(sp)
20011738:	1900                	addi	s0,sp,176
/home/nicoladgg/wsFreedomStudio/SiFive_HiFive_RevB_Projects/src/main.c:86
        printf("CPU interrupt enable failed\n");
        return 6;
    }*/

    struct spi s;
    struct spi_config config = {
2001173a:	200107b7          	lui	a5,0x20010
2001173e:	3e078793          	addi	a5,a5,992 # 200103e0 <variant_pin_map+0x70>
20011742:	0007a883          	lw	a7,0(a5)
20011746:	0047a803          	lw	a6,4(a5)
2001174a:	4788                	lw	a0,8(a5)
2001174c:	47cc                	lw	a1,12(a5)
2001174e:	4b90                	lw	a2,16(a5)
20011750:	4bd4                	lw	a3,20(a5)
20011752:	4f98                	lw	a4,24(a5)
20011754:	4fdc                	lw	a5,28(a5)
20011756:	f9142823          	sw	a7,-112(s0)
2001175a:	f9042a23          	sw	a6,-108(s0)
2001175e:	f8a42c23          	sw	a0,-104(s0)
20011762:	f8b42e23          	sw	a1,-100(s0)
20011766:	fac42023          	sw	a2,-96(s0)
2001176a:	fad42223          	sw	a3,-92(s0)
2001176e:	fae42423          	sw	a4,-88(s0)
20011772:	faf42623          	sw	a5,-84(s0)
/home/nicoladgg/wsFreedomStudio/SiFive_HiFive_RevB_Projects/src/main.c:96
			0,
			0,
			0,
    };

    GPIO_REG(GPIO_INPUT_EN) |= 1 << HS_GPIO;
20011776:	100127b7          	lui	a5,0x10012
2001177a:	0791                	addi	a5,a5,4
2001177c:	4398                	lw	a4,0(a5)
2001177e:	100127b7          	lui	a5,0x10012
20011782:	0791                	addi	a5,a5,4
20011784:	40076713          	ori	a4,a4,1024
20011788:	c398                	sw	a4,0(a5)
/home/nicoladgg/wsFreedomStudio/SiFive_HiFive_RevB_Projects/src/main.c:98

    set_freq_320MHz();
2001178a:	39f9                	jal	20011468 <set_freq_320MHz>
/home/nicoladgg/wsFreedomStudio/SiFive_HiFive_RevB_Projects/src/main.c:100

    uart_init(0, 115200);
2001178c:	67f1                	lui	a5,0x1c
2001178e:	20078593          	addi	a1,a5,512 # 1c200 <__heap_size+0x1ba00>
20011792:	4501                	li	a0,0
20011794:	3b31                	jal	200114b0 <uart_init>
/home/nicoladgg/wsFreedomStudio/SiFive_HiFive_RevB_Projects/src/main.c:102

    delay(20000000);
20011796:	013137b7          	lui	a5,0x1313
2001179a:	d0078513          	addi	a0,a5,-768 # 1312d00 <__heap_size+0x1312500>
2001179e:	863ff0ef          	jal	ra,20011000 <delay>
/home/nicoladgg/wsFreedomStudio/SiFive_HiFive_RevB_Projects/src/main.c:104

    rc = spi_init(&s, 1, config);
200117a2:	f9042883          	lw	a7,-112(s0)
200117a6:	f9442803          	lw	a6,-108(s0)
200117aa:	f9842503          	lw	a0,-104(s0)
200117ae:	f9c42583          	lw	a1,-100(s0)
200117b2:	fa042603          	lw	a2,-96(s0)
200117b6:	fa442683          	lw	a3,-92(s0)
200117ba:	fa842703          	lw	a4,-88(s0)
200117be:	fac42783          	lw	a5,-84(s0)
200117c2:	f5142823          	sw	a7,-176(s0)
200117c6:	f5042a23          	sw	a6,-172(s0)
200117ca:	f4a42c23          	sw	a0,-168(s0)
200117ce:	f4b42e23          	sw	a1,-164(s0)
200117d2:	f6c42023          	sw	a2,-160(s0)
200117d6:	f6d42223          	sw	a3,-156(s0)
200117da:	f6e42423          	sw	a4,-152(s0)
200117de:	f6f42623          	sw	a5,-148(s0)
200117e2:	f5040713          	addi	a4,s0,-176
200117e6:	fb040793          	addi	a5,s0,-80
200117ea:	863a                	mv	a2,a4
200117ec:	4585                	li	a1,1
200117ee:	853e                	mv	a0,a5
200117f0:	841ff0ef          	jal	ra,20011030 <spi_init>
200117f4:	fea42423          	sw	a0,-24(s0)
/home/nicoladgg/wsFreedomStudio/SiFive_HiFive_RevB_Projects/src/main.c:105
    if(rc)
200117f8:	fe842783          	lw	a5,-24(s0)
200117fc:	cb81                	beqz	a5,2001180c <main+0xda>
/home/nicoladgg/wsFreedomStudio/SiFive_HiFive_RevB_Projects/src/main.c:107
    {
    	printf("SPI Init error\n");
200117fe:	200107b7          	lui	a5,0x20010
20011802:	3c078513          	addi	a0,a5,960 # 200103c0 <variant_pin_map+0x50>
20011806:	2cf5                	jal	20011b02 <puts>
/home/nicoladgg/wsFreedomStudio/SiFive_HiFive_RevB_Projects/src/main.c:108
    	return 7;
20011808:	479d                	li	a5,7
2001180a:	a2a5                	j	20011972 <main+0x240>
/home/nicoladgg/wsFreedomStudio/SiFive_HiFive_RevB_Projects/src/main.c:111
    }

    rc = spi_set_cs(&s, CS_ESP01, SPI_CSMODE_AUTO, SPI_CSDEF_EN);
2001180c:	fb040793          	addi	a5,s0,-80
20011810:	4685                	li	a3,1
20011812:	4601                	li	a2,0
20011814:	45bd                	li	a1,15
20011816:	853e                	mv	a0,a5
20011818:	3a75                	jal	200111d4 <spi_set_cs>
2001181a:	fea42423          	sw	a0,-24(s0)
/home/nicoladgg/wsFreedomStudio/SiFive_HiFive_RevB_Projects/src/main.c:113

    uint8_t snd_msg[4] = {0x02, 0x00, 0x00, 0x00};
2001181e:	4789                	li	a5,2
20011820:	f8f42623          	sw	a5,-116(s0)
/home/nicoladgg/wsFreedomStudio/SiFive_HiFive_RevB_Projects/src/main.c:114
    uint8_t len_msg[4] = {0x00, 0x00, 0x00, 'A'};
20011824:	410007b7          	lui	a5,0x41000
20011828:	f8f42423          	sw	a5,-120(s0)
/home/nicoladgg/wsFreedomStudio/SiFive_HiFive_RevB_Projects/src/main.c:118

    uint8_t rcv[10];

    uint32_t len = strlen("AT+RST\r\n");
2001182c:	47a1                	li	a5,8
2001182e:	fef42223          	sw	a5,-28(s0)
/home/nicoladgg/wsFreedomStudio/SiFive_HiFive_RevB_Projects/src/main.c:121


    delay(20000000);
20011832:	013137b7          	lui	a5,0x1313
20011836:	d0078513          	addi	a0,a5,-768 # 1312d00 <__heap_size+0x1312500>
2001183a:	fc6ff0ef          	jal	ra,20011000 <delay>
/home/nicoladgg/wsFreedomStudio/SiFive_HiFive_RevB_Projects/src/main.c:123

    rc = spi_send_multiple(&s, CS_ESP01, snd_msg, 4u);
2001183e:	f8c40713          	addi	a4,s0,-116
20011842:	fb040793          	addi	a5,s0,-80
20011846:	4691                	li	a3,4
20011848:	863a                	mv	a2,a4
2001184a:	45bd                	li	a1,15
2001184c:	853e                	mv	a0,a5
2001184e:	3619                	jal	20011354 <spi_send_multiple>
20011850:	fea42423          	sw	a0,-24(s0)
/home/nicoladgg/wsFreedomStudio/SiFive_HiFive_RevB_Projects/src/main.c:125

    while((GPIO_REG(GPIO_INPUT_VAL) & (1 << HS_GPIO)) == 0)
20011854:	0001                	nop
/home/nicoladgg/wsFreedomStudio/SiFive_HiFive_RevB_Projects/src/main.c:125 (discriminator 1)
20011856:	100127b7          	lui	a5,0x10012
2001185a:	439c                	lw	a5,0(a5)
2001185c:	4007f793          	andi	a5,a5,1024
20011860:	dbfd                	beqz	a5,20011856 <main+0x124>
/home/nicoladgg/wsFreedomStudio/SiFive_HiFive_RevB_Projects/src/main.c:128
    	;

    len_msg[0] = len & 127;
20011862:	fe442783          	lw	a5,-28(s0)
20011866:	0ff7f793          	zext.b	a5,a5
2001186a:	07f7f793          	andi	a5,a5,127
2001186e:	0ff7f793          	zext.b	a5,a5
20011872:	f8f40423          	sb	a5,-120(s0)
/home/nicoladgg/wsFreedomStudio/SiFive_HiFive_RevB_Projects/src/main.c:129
    len_msg[1] = len >> 7;
20011876:	fe442783          	lw	a5,-28(s0)
2001187a:	839d                	srli	a5,a5,0x7
2001187c:	0ff7f793          	zext.b	a5,a5
20011880:	f8f404a3          	sb	a5,-119(s0)
/home/nicoladgg/wsFreedomStudio/SiFive_HiFive_RevB_Projects/src/main.c:131

    rc = spi_send_multiple(&s, CS_ESP01, len_msg, 4u);
20011884:	f8840713          	addi	a4,s0,-120
20011888:	fb040793          	addi	a5,s0,-80
2001188c:	4691                	li	a3,4
2001188e:	863a                	mv	a2,a4
20011890:	45bd                	li	a1,15
20011892:	853e                	mv	a0,a5
20011894:	34c1                	jal	20011354 <spi_send_multiple>
20011896:	fea42423          	sw	a0,-24(s0)
/home/nicoladgg/wsFreedomStudio/SiFive_HiFive_RevB_Projects/src/main.c:133

    while((GPIO_REG(GPIO_INPUT_VAL) & (1 << HS_GPIO)) == 0)
2001189a:	0001                	nop
/home/nicoladgg/wsFreedomStudio/SiFive_HiFive_RevB_Projects/src/main.c:133 (discriminator 1)
2001189c:	100127b7          	lui	a5,0x10012
200118a0:	439c                	lw	a5,0(a5)
200118a2:	4007f793          	andi	a5,a5,1024
200118a6:	dbfd                	beqz	a5,2001189c <main+0x16a>
/home/nicoladgg/wsFreedomStudio/SiFive_HiFive_RevB_Projects/src/main.c:136
        	;

    rc = spi_send_multiple(&s, CS_ESP01, "AT+RST\r\n", len);
200118a8:	fb040713          	addi	a4,s0,-80
200118ac:	fe442683          	lw	a3,-28(s0)
200118b0:	200107b7          	lui	a5,0x20010
200118b4:	3d078613          	addi	a2,a5,976 # 200103d0 <variant_pin_map+0x60>
200118b8:	45bd                	li	a1,15
200118ba:	853a                	mv	a0,a4
200118bc:	3c61                	jal	20011354 <spi_send_multiple>
200118be:	fea42423          	sw	a0,-24(s0)
/home/nicoladgg/wsFreedomStudio/SiFive_HiFive_RevB_Projects/src/main.c:138

    while((GPIO_REG(GPIO_INPUT_VAL) & (1 << HS_GPIO)) == 0)
200118c2:	0001                	nop
/home/nicoladgg/wsFreedomStudio/SiFive_HiFive_RevB_Projects/src/main.c:138 (discriminator 1)
200118c4:	100127b7          	lui	a5,0x10012
200118c8:	439c                	lw	a5,0(a5)
200118ca:	4007f793          	andi	a5,a5,1024
200118ce:	dbfd                	beqz	a5,200118c4 <main+0x192>
/home/nicoladgg/wsFreedomStudio/SiFive_HiFive_RevB_Projects/src/main.c:141
        	;

    snd_msg[0] = 0x01;
200118d0:	4785                	li	a5,1
200118d2:	f8f40623          	sb	a5,-116(s0)
/home/nicoladgg/wsFreedomStudio/SiFive_HiFive_RevB_Projects/src/main.c:143

    rc = spi_send_multiple(&s, CS_ESP01, snd_msg, 4u);
200118d6:	f8c40713          	addi	a4,s0,-116
200118da:	fb040793          	addi	a5,s0,-80
200118de:	4691                	li	a3,4
200118e0:	863a                	mv	a2,a4
200118e2:	45bd                	li	a1,15
200118e4:	853e                	mv	a0,a5
200118e6:	34bd                	jal	20011354 <spi_send_multiple>
200118e8:	fea42423          	sw	a0,-24(s0)
/home/nicoladgg/wsFreedomStudio/SiFive_HiFive_RevB_Projects/src/main.c:145

    while((GPIO_REG(GPIO_INPUT_VAL) & (1 << HS_GPIO)) == 0)
200118ec:	0001                	nop
/home/nicoladgg/wsFreedomStudio/SiFive_HiFive_RevB_Projects/src/main.c:145 (discriminator 1)
200118ee:	100127b7          	lui	a5,0x10012
200118f2:	439c                	lw	a5,0(a5)
200118f4:	4007f793          	andi	a5,a5,1024
200118f8:	dbfd                	beqz	a5,200118ee <main+0x1bc>
/home/nicoladgg/wsFreedomStudio/SiFive_HiFive_RevB_Projects/src/main.c:148
            	;

    rc = spi_receive_multiple(&s, CS_ESP01, len_msg, 4u);
200118fa:	f8840713          	addi	a4,s0,-120
200118fe:	fb040793          	addi	a5,s0,-80
20011902:	4691                	li	a3,4
20011904:	863a                	mv	a2,a4
20011906:	45bd                	li	a1,15
20011908:	853e                	mv	a0,a5
2001190a:	3cd1                	jal	200113de <spi_receive_multiple>
2001190c:	fea42423          	sw	a0,-24(s0)
/home/nicoladgg/wsFreedomStudio/SiFive_HiFive_RevB_Projects/src/main.c:150

    len = (len_msg[1] << 7) + len_msg[0];
20011910:	f8944783          	lbu	a5,-119(s0)
20011914:	079e                	slli	a5,a5,0x7
20011916:	f8844703          	lbu	a4,-120(s0)
2001191a:	97ba                	add	a5,a5,a4
2001191c:	fef42223          	sw	a5,-28(s0)
/home/nicoladgg/wsFreedomStudio/SiFive_HiFive_RevB_Projects/src/main.c:152

    rc = spi_receive_multiple(&s, CS_ESP01, rcv, len);
20011920:	f7c40713          	addi	a4,s0,-132
20011924:	fb040793          	addi	a5,s0,-80
20011928:	fe442683          	lw	a3,-28(s0)
2001192c:	863a                	mv	a2,a4
2001192e:	45bd                	li	a1,15
20011930:	853e                	mv	a0,a5
20011932:	3475                	jal	200113de <spi_receive_multiple>
20011934:	fea42423          	sw	a0,-24(s0)
/home/nicoladgg/wsFreedomStudio/SiFive_HiFive_RevB_Projects/src/main.c:154

    printf("\n\n\n");
20011938:	200107b7          	lui	a5,0x20010
2001193c:	3dc78513          	addi	a0,a5,988 # 200103dc <variant_pin_map+0x6c>
20011940:	22c9                	jal	20011b02 <puts>
/home/nicoladgg/wsFreedomStudio/SiFive_HiFive_RevB_Projects/src/main.c:155
    for (size_t i = 0; i < len; i++)
20011942:	fe042623          	sw	zero,-20(s0)
20011946:	a839                	j	20011964 <main+0x232>
/home/nicoladgg/wsFreedomStudio/SiFive_HiFive_RevB_Projects/src/main.c:157 (discriminator 3)
    {
        printf("%c", rcv[i]);
20011948:	fec42783          	lw	a5,-20(s0)
2001194c:	ff040713          	addi	a4,s0,-16
20011950:	97ba                	add	a5,a5,a4
20011952:	f8c7c783          	lbu	a5,-116(a5)
20011956:	853e                	mv	a0,a5
20011958:	2015                	jal	2001197c <putchar>
/home/nicoladgg/wsFreedomStudio/SiFive_HiFive_RevB_Projects/src/main.c:155 (discriminator 3)
    for (size_t i = 0; i < len; i++)
2001195a:	fec42783          	lw	a5,-20(s0)
2001195e:	0785                	addi	a5,a5,1
20011960:	fef42623          	sw	a5,-20(s0)
/home/nicoladgg/wsFreedomStudio/SiFive_HiFive_RevB_Projects/src/main.c:155 (discriminator 1)
20011964:	fec42703          	lw	a4,-20(s0)
20011968:	fe442783          	lw	a5,-28(s0)
2001196c:	fcf76ee3          	bltu	a4,a5,20011948 <main+0x216>
/home/nicoladgg/wsFreedomStudio/SiFive_HiFive_RevB_Projects/src/main.c:159 (discriminator 1)
    }
    while (1)
20011970:	a001                	j	20011970 <main+0x23e>
/home/nicoladgg/wsFreedomStudio/SiFive_HiFive_RevB_Projects/src/main.c:167 (discriminator 2)


	}

    return 0;
}
20011972:	853e                	mv	a0,a5
20011974:	50ba                	lw	ra,172(sp)
20011976:	542a                	lw	s0,168(sp)
20011978:	614d                	addi	sp,sp,176
2001197a:	8082                	ret

2001197c <putchar>:
putchar():
2001197c:	85aa                	mv	a1,a0
2001197e:	5ffef517          	auipc	a0,0x5ffef
20011982:	12652503          	lw	a0,294(a0) # 80000aa4 <_impure_ptr>
20011986:	cd11                	beqz	a0,200119a2 <putchar+0x26>
20011988:	4d1c                	lw	a5,24(a0)
2001198a:	ef81                	bnez	a5,200119a2 <putchar+0x26>
2001198c:	1101                	addi	sp,sp,-32
2001198e:	ce06                	sw	ra,28(sp)
20011990:	c62e                	sw	a1,12(sp)
20011992:	c42a                	sw	a0,8(sp)
20011994:	2355                	jal	20011f38 <__sinit>
20011996:	4522                	lw	a0,8(sp)
20011998:	45b2                	lw	a1,12(sp)
2001199a:	40f2                	lw	ra,28(sp)
2001199c:	4510                	lw	a2,8(a0)
2001199e:	6105                	addi	sp,sp,32
200119a0:	a019                	j	200119a6 <_putc_r>
200119a2:	4510                	lw	a2,8(a0)
200119a4:	bff5                	j	200119a0 <putchar+0x24>

200119a6 <_putc_r>:
_putc_r():
200119a6:	1101                	addi	sp,sp,-32
200119a8:	cc22                	sw	s0,24(sp)
200119aa:	ce06                	sw	ra,28(sp)
200119ac:	842a                	mv	s0,a0
200119ae:	c901                	beqz	a0,200119be <_putc_r+0x18>
200119b0:	4d1c                	lw	a5,24(a0)
200119b2:	e791                	bnez	a5,200119be <_putc_r+0x18>
200119b4:	c632                	sw	a2,12(sp)
200119b6:	c42e                	sw	a1,8(sp)
200119b8:	2341                	jal	20011f38 <__sinit>
200119ba:	4632                	lw	a2,12(sp)
200119bc:	45a2                	lw	a1,8(sp)
200119be:	fffff797          	auipc	a5,0xfffff
200119c2:	a6278793          	addi	a5,a5,-1438 # 20010420 <__sf_fake_stdin>
200119c6:	02f61563          	bne	a2,a5,200119f0 <_putc_r+0x4a>
200119ca:	4050                	lw	a2,4(s0)
200119cc:	461c                	lw	a5,8(a2)
200119ce:	17fd                	addi	a5,a5,-1
200119d0:	c61c                	sw	a5,8(a2)
200119d2:	0207df63          	bgez	a5,20011a10 <_putc_r+0x6a>
200119d6:	4e18                	lw	a4,24(a2)
200119d8:	00e7c763          	blt	a5,a4,200119e6 <_putc_r+0x40>
200119dc:	0ff5f793          	zext.b	a5,a1
200119e0:	4729                	li	a4,10
200119e2:	02e79763          	bne	a5,a4,20011a10 <_putc_r+0x6a>
200119e6:	8522                	mv	a0,s0
200119e8:	4462                	lw	s0,24(sp)
200119ea:	40f2                	lw	ra,28(sp)
200119ec:	6105                	addi	sp,sp,32
200119ee:	a205                	j	20011b0e <__swbuf_r>
200119f0:	fffff797          	auipc	a5,0xfffff
200119f4:	a5078793          	addi	a5,a5,-1456 # 20010440 <__sf_fake_stdout>
200119f8:	00f61463          	bne	a2,a5,20011a00 <_putc_r+0x5a>
200119fc:	4410                	lw	a2,8(s0)
200119fe:	b7f9                	j	200119cc <_putc_r+0x26>
20011a00:	fffff797          	auipc	a5,0xfffff
20011a04:	a0078793          	addi	a5,a5,-1536 # 20010400 <__sf_fake_stderr>
20011a08:	fcf612e3          	bne	a2,a5,200119cc <_putc_r+0x26>
20011a0c:	4450                	lw	a2,12(s0)
20011a0e:	bf7d                	j	200119cc <_putc_r+0x26>
20011a10:	421c                	lw	a5,0(a2)
20011a12:	0ff5f513          	zext.b	a0,a1
20011a16:	00178713          	addi	a4,a5,1
20011a1a:	c218                	sw	a4,0(a2)
20011a1c:	00b78023          	sb	a1,0(a5)
20011a20:	40f2                	lw	ra,28(sp)
20011a22:	4462                	lw	s0,24(sp)
20011a24:	6105                	addi	sp,sp,32
20011a26:	8082                	ret

20011a28 <_puts_r>:
_puts_r():
20011a28:	1101                	addi	sp,sp,-32
20011a2a:	ca26                	sw	s1,20(sp)
20011a2c:	c84a                	sw	s2,16(sp)
20011a2e:	ce06                	sw	ra,28(sp)
20011a30:	cc22                	sw	s0,24(sp)
20011a32:	c64e                	sw	s3,12(sp)
20011a34:	c452                	sw	s4,8(sp)
20011a36:	84aa                	mv	s1,a0
20011a38:	892e                	mv	s2,a1
20011a3a:	c501                	beqz	a0,20011a42 <_puts_r+0x1a>
20011a3c:	4d1c                	lw	a5,24(a0)
20011a3e:	e391                	bnez	a5,20011a42 <_puts_r+0x1a>
20011a40:	29e5                	jal	20011f38 <__sinit>
20011a42:	4c9c                	lw	a5,24(s1)
20011a44:	4480                	lw	s0,8(s1)
20011a46:	e399                	bnez	a5,20011a4c <_puts_r+0x24>
20011a48:	8526                	mv	a0,s1
20011a4a:	21fd                	jal	20011f38 <__sinit>
20011a4c:	fffff797          	auipc	a5,0xfffff
20011a50:	9d478793          	addi	a5,a5,-1580 # 20010420 <__sf_fake_stdin>
20011a54:	02f41c63          	bne	s0,a5,20011a8c <_puts_r+0x64>
20011a58:	40c0                	lw	s0,4(s1)
20011a5a:	00c45783          	lhu	a5,12(s0)
20011a5e:	8ba1                	andi	a5,a5,8
20011a60:	c7b1                	beqz	a5,20011aac <_puts_r+0x84>
20011a62:	481c                	lw	a5,16(s0)
20011a64:	c7a1                	beqz	a5,20011aac <_puts_r+0x84>
20011a66:	59fd                	li	s3,-1
20011a68:	4a29                	li	s4,10
20011a6a:	441c                	lw	a5,8(s0)
20011a6c:	00094583          	lbu	a1,0(s2)
20011a70:	17fd                	addi	a5,a5,-1
20011a72:	e9b1                	bnez	a1,20011ac6 <_puts_r+0x9e>
20011a74:	c41c                	sw	a5,8(s0)
20011a76:	0607de63          	bgez	a5,20011af2 <_puts_r+0xca>
20011a7a:	8622                	mv	a2,s0
20011a7c:	45a9                	li	a1,10
20011a7e:	8526                	mv	a0,s1
20011a80:	2079                	jal	20011b0e <__swbuf_r>
20011a82:	57fd                	li	a5,-1
20011a84:	02f50863          	beq	a0,a5,20011ab4 <_puts_r+0x8c>
20011a88:	4529                	li	a0,10
20011a8a:	a035                	j	20011ab6 <_puts_r+0x8e>
20011a8c:	fffff797          	auipc	a5,0xfffff
20011a90:	9b478793          	addi	a5,a5,-1612 # 20010440 <__sf_fake_stdout>
20011a94:	00f41463          	bne	s0,a5,20011a9c <_puts_r+0x74>
20011a98:	4480                	lw	s0,8(s1)
20011a9a:	b7c1                	j	20011a5a <_puts_r+0x32>
20011a9c:	fffff797          	auipc	a5,0xfffff
20011aa0:	96478793          	addi	a5,a5,-1692 # 20010400 <__sf_fake_stderr>
20011aa4:	faf41be3          	bne	s0,a5,20011a5a <_puts_r+0x32>
20011aa8:	44c0                	lw	s0,12(s1)
20011aaa:	bf45                	j	20011a5a <_puts_r+0x32>
20011aac:	85a2                	mv	a1,s0
20011aae:	8526                	mv	a0,s1
20011ab0:	2a39                	jal	20011bce <__swsetup_r>
20011ab2:	d955                	beqz	a0,20011a66 <_puts_r+0x3e>
20011ab4:	557d                	li	a0,-1
20011ab6:	40f2                	lw	ra,28(sp)
20011ab8:	4462                	lw	s0,24(sp)
20011aba:	44d2                	lw	s1,20(sp)
20011abc:	4942                	lw	s2,16(sp)
20011abe:	49b2                	lw	s3,12(sp)
20011ac0:	4a22                	lw	s4,8(sp)
20011ac2:	6105                	addi	sp,sp,32
20011ac4:	8082                	ret
20011ac6:	c41c                	sw	a5,8(s0)
20011ac8:	0905                	addi	s2,s2,1
20011aca:	0007d763          	bgez	a5,20011ad8 <_puts_r+0xb0>
20011ace:	4c18                	lw	a4,24(s0)
20011ad0:	00e7cb63          	blt	a5,a4,20011ae6 <_puts_r+0xbe>
20011ad4:	01458963          	beq	a1,s4,20011ae6 <_puts_r+0xbe>
20011ad8:	401c                	lw	a5,0(s0)
20011ada:	00178713          	addi	a4,a5,1
20011ade:	c018                	sw	a4,0(s0)
20011ae0:	00b78023          	sb	a1,0(a5)
20011ae4:	b759                	j	20011a6a <_puts_r+0x42>
20011ae6:	8622                	mv	a2,s0
20011ae8:	8526                	mv	a0,s1
20011aea:	2015                	jal	20011b0e <__swbuf_r>
20011aec:	f7351fe3          	bne	a0,s3,20011a6a <_puts_r+0x42>
20011af0:	b7d1                	j	20011ab4 <_puts_r+0x8c>
20011af2:	401c                	lw	a5,0(s0)
20011af4:	00178713          	addi	a4,a5,1
20011af8:	c018                	sw	a4,0(s0)
20011afa:	4729                	li	a4,10
20011afc:	00e78023          	sb	a4,0(a5)
20011b00:	b761                	j	20011a88 <_puts_r+0x60>

20011b02 <puts>:
puts():
20011b02:	85aa                	mv	a1,a0
20011b04:	5ffef517          	auipc	a0,0x5ffef
20011b08:	fa052503          	lw	a0,-96(a0) # 80000aa4 <_impure_ptr>
20011b0c:	bf31                	j	20011a28 <_puts_r>

20011b0e <__swbuf_r>:
__swbuf_r():
20011b0e:	1101                	addi	sp,sp,-32
20011b10:	cc22                	sw	s0,24(sp)
20011b12:	ca26                	sw	s1,20(sp)
20011b14:	c84a                	sw	s2,16(sp)
20011b16:	ce06                	sw	ra,28(sp)
20011b18:	c64e                	sw	s3,12(sp)
20011b1a:	84aa                	mv	s1,a0
20011b1c:	892e                	mv	s2,a1
20011b1e:	8432                	mv	s0,a2
20011b20:	c501                	beqz	a0,20011b28 <__swbuf_r+0x1a>
20011b22:	4d1c                	lw	a5,24(a0)
20011b24:	e391                	bnez	a5,20011b28 <__swbuf_r+0x1a>
20011b26:	2909                	jal	20011f38 <__sinit>
20011b28:	fffff797          	auipc	a5,0xfffff
20011b2c:	8f878793          	addi	a5,a5,-1800 # 20010420 <__sf_fake_stdin>
20011b30:	06f41963          	bne	s0,a5,20011ba2 <__swbuf_r+0x94>
20011b34:	40c0                	lw	s0,4(s1)
20011b36:	4c1c                	lw	a5,24(s0)
20011b38:	c41c                	sw	a5,8(s0)
20011b3a:	00c45783          	lhu	a5,12(s0)
20011b3e:	8ba1                	andi	a5,a5,8
20011b40:	c3c9                	beqz	a5,20011bc2 <__swbuf_r+0xb4>
20011b42:	481c                	lw	a5,16(s0)
20011b44:	cfbd                	beqz	a5,20011bc2 <__swbuf_r+0xb4>
20011b46:	481c                	lw	a5,16(s0)
20011b48:	4008                	lw	a0,0(s0)
20011b4a:	0ff97993          	zext.b	s3,s2
20011b4e:	0ff97913          	zext.b	s2,s2
20011b52:	8d1d                	sub	a0,a0,a5
20011b54:	485c                	lw	a5,20(s0)
20011b56:	00f54663          	blt	a0,a5,20011b62 <__swbuf_r+0x54>
20011b5a:	85a2                	mv	a1,s0
20011b5c:	8526                	mv	a0,s1
20011b5e:	24c1                	jal	20011e1e <_fflush_r>
20011b60:	e52d                	bnez	a0,20011bca <__swbuf_r+0xbc>
20011b62:	441c                	lw	a5,8(s0)
20011b64:	0505                	addi	a0,a0,1
20011b66:	17fd                	addi	a5,a5,-1
20011b68:	c41c                	sw	a5,8(s0)
20011b6a:	401c                	lw	a5,0(s0)
20011b6c:	00178713          	addi	a4,a5,1
20011b70:	c018                	sw	a4,0(s0)
20011b72:	01378023          	sb	s3,0(a5)
20011b76:	485c                	lw	a5,20(s0)
20011b78:	00a78963          	beq	a5,a0,20011b8a <__swbuf_r+0x7c>
20011b7c:	00c45783          	lhu	a5,12(s0)
20011b80:	8b85                	andi	a5,a5,1
20011b82:	cb81                	beqz	a5,20011b92 <__swbuf_r+0x84>
20011b84:	47a9                	li	a5,10
20011b86:	00f91663          	bne	s2,a5,20011b92 <__swbuf_r+0x84>
20011b8a:	85a2                	mv	a1,s0
20011b8c:	8526                	mv	a0,s1
20011b8e:	2c41                	jal	20011e1e <_fflush_r>
20011b90:	ed0d                	bnez	a0,20011bca <__swbuf_r+0xbc>
20011b92:	40f2                	lw	ra,28(sp)
20011b94:	4462                	lw	s0,24(sp)
20011b96:	44d2                	lw	s1,20(sp)
20011b98:	49b2                	lw	s3,12(sp)
20011b9a:	854a                	mv	a0,s2
20011b9c:	4942                	lw	s2,16(sp)
20011b9e:	6105                	addi	sp,sp,32
20011ba0:	8082                	ret
20011ba2:	fffff797          	auipc	a5,0xfffff
20011ba6:	89e78793          	addi	a5,a5,-1890 # 20010440 <__sf_fake_stdout>
20011baa:	00f41463          	bne	s0,a5,20011bb2 <__swbuf_r+0xa4>
20011bae:	4480                	lw	s0,8(s1)
20011bb0:	b759                	j	20011b36 <__swbuf_r+0x28>
20011bb2:	fffff797          	auipc	a5,0xfffff
20011bb6:	84e78793          	addi	a5,a5,-1970 # 20010400 <__sf_fake_stderr>
20011bba:	f6f41ee3          	bne	s0,a5,20011b36 <__swbuf_r+0x28>
20011bbe:	44c0                	lw	s0,12(s1)
20011bc0:	bf9d                	j	20011b36 <__swbuf_r+0x28>
20011bc2:	85a2                	mv	a1,s0
20011bc4:	8526                	mv	a0,s1
20011bc6:	2021                	jal	20011bce <__swsetup_r>
20011bc8:	dd3d                	beqz	a0,20011b46 <__swbuf_r+0x38>
20011bca:	597d                	li	s2,-1
20011bcc:	b7d9                	j	20011b92 <__swbuf_r+0x84>

20011bce <__swsetup_r>:
__swsetup_r():
20011bce:	1141                	addi	sp,sp,-16
20011bd0:	c422                	sw	s0,8(sp)
20011bd2:	c226                	sw	s1,4(sp)
20011bd4:	c04a                	sw	s2,0(sp)
20011bd6:	c606                	sw	ra,12(sp)
20011bd8:	5ffef497          	auipc	s1,0x5ffef
20011bdc:	ecc4a483          	lw	s1,-308(s1) # 80000aa4 <_impure_ptr>
20011be0:	892a                	mv	s2,a0
20011be2:	842e                	mv	s0,a1
20011be4:	c489                	beqz	s1,20011bee <__swsetup_r+0x20>
20011be6:	4c9c                	lw	a5,24(s1)
20011be8:	e399                	bnez	a5,20011bee <__swsetup_r+0x20>
20011bea:	8526                	mv	a0,s1
20011bec:	26b1                	jal	20011f38 <__sinit>
20011bee:	fffff797          	auipc	a5,0xfffff
20011bf2:	83278793          	addi	a5,a5,-1998 # 20010420 <__sf_fake_stdin>
20011bf6:	02f41763          	bne	s0,a5,20011c24 <__swsetup_r+0x56>
20011bfa:	40c0                	lw	s0,4(s1)
20011bfc:	00c41783          	lh	a5,12(s0)
20011c00:	01079713          	slli	a4,a5,0x10
20011c04:	0087f693          	andi	a3,a5,8
20011c08:	8341                	srli	a4,a4,0x10
20011c0a:	eaad                	bnez	a3,20011c7c <__swsetup_r+0xae>
20011c0c:	01077693          	andi	a3,a4,16
20011c10:	ea95                	bnez	a3,20011c44 <__swsetup_r+0x76>
20011c12:	4725                	li	a4,9
20011c14:	00e92023          	sw	a4,0(s2)
20011c18:	0407e793          	ori	a5,a5,64
20011c1c:	00f41623          	sh	a5,12(s0)
20011c20:	557d                	li	a0,-1
20011c22:	a871                	j	20011cbe <__swsetup_r+0xf0>
20011c24:	fffff797          	auipc	a5,0xfffff
20011c28:	81c78793          	addi	a5,a5,-2020 # 20010440 <__sf_fake_stdout>
20011c2c:	00f41463          	bne	s0,a5,20011c34 <__swsetup_r+0x66>
20011c30:	4480                	lw	s0,8(s1)
20011c32:	b7e9                	j	20011bfc <__swsetup_r+0x2e>
20011c34:	ffffe797          	auipc	a5,0xffffe
20011c38:	7cc78793          	addi	a5,a5,1996 # 20010400 <__sf_fake_stderr>
20011c3c:	fcf410e3          	bne	s0,a5,20011bfc <__swsetup_r+0x2e>
20011c40:	44c0                	lw	s0,12(s1)
20011c42:	bf6d                	j	20011bfc <__swsetup_r+0x2e>
20011c44:	8b11                	andi	a4,a4,4
20011c46:	c70d                	beqz	a4,20011c70 <__swsetup_r+0xa2>
20011c48:	584c                	lw	a1,52(s0)
20011c4a:	c989                	beqz	a1,20011c5c <__swsetup_r+0x8e>
20011c4c:	04440793          	addi	a5,s0,68
20011c50:	00f58463          	beq	a1,a5,20011c58 <__swsetup_r+0x8a>
20011c54:	854a                	mv	a0,s2
20011c56:	2bc5                	jal	20012246 <_free_r>
20011c58:	02042a23          	sw	zero,52(s0)
20011c5c:	00c45783          	lhu	a5,12(s0)
20011c60:	00042223          	sw	zero,4(s0)
20011c64:	fdb7f793          	andi	a5,a5,-37
20011c68:	00f41623          	sh	a5,12(s0)
20011c6c:	481c                	lw	a5,16(s0)
20011c6e:	c01c                	sw	a5,0(s0)
20011c70:	00c45783          	lhu	a5,12(s0)
20011c74:	0087e793          	ori	a5,a5,8
20011c78:	00f41623          	sh	a5,12(s0)
20011c7c:	481c                	lw	a5,16(s0)
20011c7e:	ef81                	bnez	a5,20011c96 <__swsetup_r+0xc8>
20011c80:	00c45783          	lhu	a5,12(s0)
20011c84:	20000713          	li	a4,512
20011c88:	2807f793          	andi	a5,a5,640
20011c8c:	00e78563          	beq	a5,a4,20011c96 <__swsetup_r+0xc8>
20011c90:	85a2                	mv	a1,s0
20011c92:	854a                	mv	a0,s2
20011c94:	21bd                	jal	20012102 <__smakebuf_r>
20011c96:	00c41783          	lh	a5,12(s0)
20011c9a:	01079713          	slli	a4,a5,0x10
20011c9e:	0017f693          	andi	a3,a5,1
20011ca2:	8341                	srli	a4,a4,0x10
20011ca4:	c29d                	beqz	a3,20011cca <__swsetup_r+0xfc>
20011ca6:	4854                	lw	a3,20(s0)
20011ca8:	00042423          	sw	zero,8(s0)
20011cac:	40d006b3          	neg	a3,a3
20011cb0:	cc14                	sw	a3,24(s0)
20011cb2:	4814                	lw	a3,16(s0)
20011cb4:	4501                	li	a0,0
20011cb6:	e681                	bnez	a3,20011cbe <__swsetup_r+0xf0>
20011cb8:	08077713          	andi	a4,a4,128
20011cbc:	ff31                	bnez	a4,20011c18 <__swsetup_r+0x4a>
20011cbe:	40b2                	lw	ra,12(sp)
20011cc0:	4422                	lw	s0,8(sp)
20011cc2:	4492                	lw	s1,4(sp)
20011cc4:	4902                	lw	s2,0(sp)
20011cc6:	0141                	addi	sp,sp,16
20011cc8:	8082                	ret
20011cca:	00277693          	andi	a3,a4,2
20011cce:	4601                	li	a2,0
20011cd0:	e291                	bnez	a3,20011cd4 <__swsetup_r+0x106>
20011cd2:	4850                	lw	a2,20(s0)
20011cd4:	c410                	sw	a2,8(s0)
20011cd6:	bff1                	j	20011cb2 <__swsetup_r+0xe4>

20011cd8 <__sflush_r>:
__sflush_r():
20011cd8:	00c5d783          	lhu	a5,12(a1)
20011cdc:	1101                	addi	sp,sp,-32
20011cde:	cc22                	sw	s0,24(sp)
20011ce0:	ca26                	sw	s1,20(sp)
20011ce2:	ce06                	sw	ra,28(sp)
20011ce4:	c84a                	sw	s2,16(sp)
20011ce6:	c64e                	sw	s3,12(sp)
20011ce8:	0087f713          	andi	a4,a5,8
20011cec:	84aa                	mv	s1,a0
20011cee:	842e                	mv	s0,a1
20011cf0:	e375                	bnez	a4,20011dd4 <__sflush_r+0xfc>
20011cf2:	41d8                	lw	a4,4(a1)
20011cf4:	00e04763          	bgtz	a4,20011d02 <__sflush_r+0x2a>
20011cf8:	41b8                	lw	a4,64(a1)
20011cfa:	00e04463          	bgtz	a4,20011d02 <__sflush_r+0x2a>
20011cfe:	4501                	li	a0,0
20011d00:	a875                	j	20011dbc <__sflush_r+0xe4>
20011d02:	5458                	lw	a4,44(s0)
20011d04:	df6d                	beqz	a4,20011cfe <__sflush_r+0x26>
20011d06:	6685                	lui	a3,0x1
20011d08:	0004a903          	lw	s2,0(s1)
20011d0c:	8ff5                	and	a5,a5,a3
20011d0e:	0004a023          	sw	zero,0(s1)
20011d12:	cfa5                	beqz	a5,20011d8a <__sflush_r+0xb2>
20011d14:	4868                	lw	a0,84(s0)
20011d16:	00c45783          	lhu	a5,12(s0)
20011d1a:	8b91                	andi	a5,a5,4
20011d1c:	c799                	beqz	a5,20011d2a <__sflush_r+0x52>
20011d1e:	405c                	lw	a5,4(s0)
20011d20:	8d1d                	sub	a0,a0,a5
20011d22:	585c                	lw	a5,52(s0)
20011d24:	c399                	beqz	a5,20011d2a <__sflush_r+0x52>
20011d26:	403c                	lw	a5,64(s0)
20011d28:	8d1d                	sub	a0,a0,a5
20011d2a:	545c                	lw	a5,44(s0)
20011d2c:	500c                	lw	a1,32(s0)
20011d2e:	862a                	mv	a2,a0
20011d30:	4681                	li	a3,0
20011d32:	8526                	mv	a0,s1
20011d34:	9782                	jalr	a5
20011d36:	57fd                	li	a5,-1
20011d38:	00c45703          	lhu	a4,12(s0)
20011d3c:	00f51d63          	bne	a0,a5,20011d56 <__sflush_r+0x7e>
20011d40:	4094                	lw	a3,0(s1)
20011d42:	47f5                	li	a5,29
20011d44:	08d7e363          	bltu	a5,a3,20011dca <__sflush_r+0xf2>
20011d48:	204007b7          	lui	a5,0x20400
20011d4c:	0785                	addi	a5,a5,1
20011d4e:	00d7d7b3          	srl	a5,a5,a3
20011d52:	8b85                	andi	a5,a5,1
20011d54:	cbbd                	beqz	a5,20011dca <__sflush_r+0xf2>
20011d56:	481c                	lw	a5,16(s0)
20011d58:	00042223          	sw	zero,4(s0)
20011d5c:	c01c                	sw	a5,0(s0)
20011d5e:	6785                	lui	a5,0x1
20011d60:	8f7d                	and	a4,a4,a5
20011d62:	c719                	beqz	a4,20011d70 <__sflush_r+0x98>
20011d64:	57fd                	li	a5,-1
20011d66:	00f51463          	bne	a0,a5,20011d6e <__sflush_r+0x96>
20011d6a:	409c                	lw	a5,0(s1)
20011d6c:	e391                	bnez	a5,20011d70 <__sflush_r+0x98>
20011d6e:	c868                	sw	a0,84(s0)
20011d70:	584c                	lw	a1,52(s0)
20011d72:	0124a023          	sw	s2,0(s1)
20011d76:	d5c1                	beqz	a1,20011cfe <__sflush_r+0x26>
20011d78:	04440793          	addi	a5,s0,68
20011d7c:	00f58463          	beq	a1,a5,20011d84 <__sflush_r+0xac>
20011d80:	8526                	mv	a0,s1
20011d82:	21d1                	jal	20012246 <_free_r>
20011d84:	02042a23          	sw	zero,52(s0)
20011d88:	bf9d                	j	20011cfe <__sflush_r+0x26>
20011d8a:	500c                	lw	a1,32(s0)
20011d8c:	4685                	li	a3,1
20011d8e:	4601                	li	a2,0
20011d90:	8526                	mv	a0,s1
20011d92:	9702                	jalr	a4
20011d94:	57fd                	li	a5,-1
20011d96:	f8f510e3          	bne	a0,a5,20011d16 <__sflush_r+0x3e>
20011d9a:	409c                	lw	a5,0(s1)
20011d9c:	dfad                	beqz	a5,20011d16 <__sflush_r+0x3e>
20011d9e:	4775                	li	a4,29
20011da0:	00e78563          	beq	a5,a4,20011daa <__sflush_r+0xd2>
20011da4:	4759                	li	a4,22
20011da6:	00e79563          	bne	a5,a4,20011db0 <__sflush_r+0xd8>
20011daa:	0124a023          	sw	s2,0(s1)
20011dae:	bf81                	j	20011cfe <__sflush_r+0x26>
20011db0:	00c45783          	lhu	a5,12(s0)
20011db4:	0407e793          	ori	a5,a5,64
20011db8:	00f41623          	sh	a5,12(s0)
20011dbc:	40f2                	lw	ra,28(sp)
20011dbe:	4462                	lw	s0,24(sp)
20011dc0:	44d2                	lw	s1,20(sp)
20011dc2:	4942                	lw	s2,16(sp)
20011dc4:	49b2                	lw	s3,12(sp)
20011dc6:	6105                	addi	sp,sp,32
20011dc8:	8082                	ret
20011dca:	04076713          	ori	a4,a4,64
20011dce:	00e41623          	sh	a4,12(s0)
20011dd2:	b7ed                	j	20011dbc <__sflush_r+0xe4>
20011dd4:	0105a983          	lw	s3,16(a1)
20011dd8:	f20983e3          	beqz	s3,20011cfe <__sflush_r+0x26>
20011ddc:	0005a903          	lw	s2,0(a1)
20011de0:	8b8d                	andi	a5,a5,3
20011de2:	0135a023          	sw	s3,0(a1)
20011de6:	41390933          	sub	s2,s2,s3
20011dea:	4701                	li	a4,0
20011dec:	e391                	bnez	a5,20011df0 <__sflush_r+0x118>
20011dee:	49d8                	lw	a4,20(a1)
20011df0:	c418                	sw	a4,8(s0)
20011df2:	f12056e3          	blez	s2,20011cfe <__sflush_r+0x26>
20011df6:	541c                	lw	a5,40(s0)
20011df8:	500c                	lw	a1,32(s0)
20011dfa:	86ca                	mv	a3,s2
20011dfc:	864e                	mv	a2,s3
20011dfe:	8526                	mv	a0,s1
20011e00:	9782                	jalr	a5
20011e02:	00a04a63          	bgtz	a0,20011e16 <__sflush_r+0x13e>
20011e06:	00c45783          	lhu	a5,12(s0)
20011e0a:	557d                	li	a0,-1
20011e0c:	0407e793          	ori	a5,a5,64
20011e10:	00f41623          	sh	a5,12(s0)
20011e14:	b765                	j	20011dbc <__sflush_r+0xe4>
20011e16:	99aa                	add	s3,s3,a0
20011e18:	40a90933          	sub	s2,s2,a0
20011e1c:	bfd9                	j	20011df2 <__sflush_r+0x11a>

20011e1e <_fflush_r>:
_fflush_r():
20011e1e:	499c                	lw	a5,16(a1)
20011e20:	cfb9                	beqz	a5,20011e7e <_fflush_r+0x60>
20011e22:	1101                	addi	sp,sp,-32
20011e24:	cc22                	sw	s0,24(sp)
20011e26:	ce06                	sw	ra,28(sp)
20011e28:	842a                	mv	s0,a0
20011e2a:	c511                	beqz	a0,20011e36 <_fflush_r+0x18>
20011e2c:	4d1c                	lw	a5,24(a0)
20011e2e:	e781                	bnez	a5,20011e36 <_fflush_r+0x18>
20011e30:	c62e                	sw	a1,12(sp)
20011e32:	2219                	jal	20011f38 <__sinit>
20011e34:	45b2                	lw	a1,12(sp)
20011e36:	ffffe797          	auipc	a5,0xffffe
20011e3a:	5ea78793          	addi	a5,a5,1514 # 20010420 <__sf_fake_stdin>
20011e3e:	00f59b63          	bne	a1,a5,20011e54 <_fflush_r+0x36>
20011e42:	404c                	lw	a1,4(s0)
20011e44:	00c59783          	lh	a5,12(a1)
20011e48:	c795                	beqz	a5,20011e74 <_fflush_r+0x56>
20011e4a:	8522                	mv	a0,s0
20011e4c:	4462                	lw	s0,24(sp)
20011e4e:	40f2                	lw	ra,28(sp)
20011e50:	6105                	addi	sp,sp,32
20011e52:	b559                	j	20011cd8 <__sflush_r>
20011e54:	ffffe797          	auipc	a5,0xffffe
20011e58:	5ec78793          	addi	a5,a5,1516 # 20010440 <__sf_fake_stdout>
20011e5c:	00f59463          	bne	a1,a5,20011e64 <_fflush_r+0x46>
20011e60:	440c                	lw	a1,8(s0)
20011e62:	b7cd                	j	20011e44 <_fflush_r+0x26>
20011e64:	ffffe797          	auipc	a5,0xffffe
20011e68:	59c78793          	addi	a5,a5,1436 # 20010400 <__sf_fake_stderr>
20011e6c:	fcf59ce3          	bne	a1,a5,20011e44 <_fflush_r+0x26>
20011e70:	444c                	lw	a1,12(s0)
20011e72:	bfc9                	j	20011e44 <_fflush_r+0x26>
20011e74:	40f2                	lw	ra,28(sp)
20011e76:	4462                	lw	s0,24(sp)
20011e78:	4501                	li	a0,0
20011e7a:	6105                	addi	sp,sp,32
20011e7c:	8082                	ret
20011e7e:	4501                	li	a0,0
20011e80:	8082                	ret

20011e82 <std>:
std():
20011e82:	1141                	addi	sp,sp,-16
20011e84:	c422                	sw	s0,8(sp)
20011e86:	c606                	sw	ra,12(sp)
20011e88:	842a                	mv	s0,a0
20011e8a:	00b51623          	sh	a1,12(a0)
20011e8e:	00c51723          	sh	a2,14(a0)
20011e92:	00052023          	sw	zero,0(a0)
20011e96:	00052223          	sw	zero,4(a0)
20011e9a:	00052423          	sw	zero,8(a0)
20011e9e:	06052223          	sw	zero,100(a0)
20011ea2:	00052823          	sw	zero,16(a0)
20011ea6:	00052a23          	sw	zero,20(a0)
20011eaa:	00052c23          	sw	zero,24(a0)
20011eae:	4621                	li	a2,8
20011eb0:	4581                	li	a1,0
20011eb2:	05c50513          	addi	a0,a0,92
20011eb6:	24e5                	jal	2001219e <memset>
20011eb8:	00000797          	auipc	a5,0x0
20011ebc:	53878793          	addi	a5,a5,1336 # 200123f0 <__sread>
20011ec0:	d05c                	sw	a5,36(s0)
20011ec2:	00000797          	auipc	a5,0x0
20011ec6:	55e78793          	addi	a5,a5,1374 # 20012420 <__swrite>
20011eca:	d41c                	sw	a5,40(s0)
20011ecc:	00000797          	auipc	a5,0x0
20011ed0:	5a278793          	addi	a5,a5,1442 # 2001246e <__sseek>
20011ed4:	d45c                	sw	a5,44(s0)
20011ed6:	00000797          	auipc	a5,0x0
20011eda:	5ce78793          	addi	a5,a5,1486 # 200124a4 <__sclose>
20011ede:	40b2                	lw	ra,12(sp)
20011ee0:	d000                	sw	s0,32(s0)
20011ee2:	d81c                	sw	a5,48(s0)
20011ee4:	4422                	lw	s0,8(sp)
20011ee6:	0141                	addi	sp,sp,16
20011ee8:	8082                	ret

20011eea <_cleanup_r>:
_cleanup_r():
20011eea:	00000597          	auipc	a1,0x0
20011eee:	f3458593          	addi	a1,a1,-204 # 20011e1e <_fflush_r>
20011ef2:	a2b1                	j	2001203e <_fwalk_reent>

20011ef4 <__sfmoreglue>:
__sfmoreglue():
20011ef4:	1141                	addi	sp,sp,-16
20011ef6:	c226                	sw	s1,4(sp)
20011ef8:	06800613          	li	a2,104
20011efc:	fff58493          	addi	s1,a1,-1
20011f00:	02c484b3          	mul	s1,s1,a2
20011f04:	c04a                	sw	s2,0(sp)
20011f06:	892e                	mv	s2,a1
20011f08:	c422                	sw	s0,8(sp)
20011f0a:	c606                	sw	ra,12(sp)
20011f0c:	07448593          	addi	a1,s1,116
20011f10:	2ee1                	jal	200122e8 <_malloc_r>
20011f12:	842a                	mv	s0,a0
20011f14:	c919                	beqz	a0,20011f2a <__sfmoreglue+0x36>
20011f16:	00052023          	sw	zero,0(a0)
20011f1a:	01252223          	sw	s2,4(a0)
20011f1e:	0531                	addi	a0,a0,12
20011f20:	c408                	sw	a0,8(s0)
20011f22:	06848613          	addi	a2,s1,104
20011f26:	4581                	li	a1,0
20011f28:	2c9d                	jal	2001219e <memset>
20011f2a:	40b2                	lw	ra,12(sp)
20011f2c:	8522                	mv	a0,s0
20011f2e:	4422                	lw	s0,8(sp)
20011f30:	4492                	lw	s1,4(sp)
20011f32:	4902                	lw	s2,0(sp)
20011f34:	0141                	addi	sp,sp,16
20011f36:	8082                	ret

20011f38 <__sinit>:
__sinit():
20011f38:	4d1c                	lw	a5,24(a0)
20011f3a:	e3bd                	bnez	a5,20011fa0 <__sinit+0x68>
20011f3c:	1141                	addi	sp,sp,-16
20011f3e:	c422                	sw	s0,8(sp)
20011f40:	c606                	sw	ra,12(sp)
20011f42:	00000797          	auipc	a5,0x0
20011f46:	fa878793          	addi	a5,a5,-88 # 20011eea <_cleanup_r>
20011f4a:	d51c                	sw	a5,40(a0)
20011f4c:	04052423          	sw	zero,72(a0)
20011f50:	04052623          	sw	zero,76(a0)
20011f54:	04052823          	sw	zero,80(a0)
20011f58:	fffff797          	auipc	a5,0xfffff
20011f5c:	0587a783          	lw	a5,88(a5) # 20010fb0 <_global_impure_ptr>
20011f60:	842a                	mv	s0,a0
20011f62:	00f51463          	bne	a0,a5,20011f6a <__sinit+0x32>
20011f66:	4785                	li	a5,1
20011f68:	cd1c                	sw	a5,24(a0)
20011f6a:	8522                	mv	a0,s0
20011f6c:	281d                	jal	20011fa2 <__sfp>
20011f6e:	c048                	sw	a0,4(s0)
20011f70:	8522                	mv	a0,s0
20011f72:	2805                	jal	20011fa2 <__sfp>
20011f74:	c408                	sw	a0,8(s0)
20011f76:	8522                	mv	a0,s0
20011f78:	202d                	jal	20011fa2 <__sfp>
20011f7a:	c448                	sw	a0,12(s0)
20011f7c:	4048                	lw	a0,4(s0)
20011f7e:	4601                	li	a2,0
20011f80:	4591                	li	a1,4
20011f82:	3701                	jal	20011e82 <std>
20011f84:	4408                	lw	a0,8(s0)
20011f86:	4605                	li	a2,1
20011f88:	45a5                	li	a1,9
20011f8a:	3de5                	jal	20011e82 <std>
20011f8c:	4448                	lw	a0,12(s0)
20011f8e:	4609                	li	a2,2
20011f90:	45c9                	li	a1,18
20011f92:	3dc5                	jal	20011e82 <std>
20011f94:	4785                	li	a5,1
20011f96:	40b2                	lw	ra,12(sp)
20011f98:	cc1c                	sw	a5,24(s0)
20011f9a:	4422                	lw	s0,8(sp)
20011f9c:	0141                	addi	sp,sp,16
20011f9e:	8082                	ret
20011fa0:	8082                	ret

20011fa2 <__sfp>:
__sfp():
20011fa2:	1141                	addi	sp,sp,-16
20011fa4:	c226                	sw	s1,4(sp)
20011fa6:	fffff497          	auipc	s1,0xfffff
20011faa:	00a4a483          	lw	s1,10(s1) # 20010fb0 <_global_impure_ptr>
20011fae:	4c9c                	lw	a5,24(s1)
20011fb0:	c04a                	sw	s2,0(sp)
20011fb2:	c606                	sw	ra,12(sp)
20011fb4:	c422                	sw	s0,8(sp)
20011fb6:	892a                	mv	s2,a0
20011fb8:	e399                	bnez	a5,20011fbe <__sfp+0x1c>
20011fba:	8526                	mv	a0,s1
20011fbc:	3fb5                	jal	20011f38 <__sinit>
20011fbe:	04848493          	addi	s1,s1,72
20011fc2:	4480                	lw	s0,8(s1)
20011fc4:	40dc                	lw	a5,4(s1)
20011fc6:	17fd                	addi	a5,a5,-1
20011fc8:	0007d663          	bgez	a5,20011fd4 <__sfp+0x32>
20011fcc:	409c                	lw	a5,0(s1)
20011fce:	cfb1                	beqz	a5,2001202a <__sfp+0x88>
20011fd0:	4084                	lw	s1,0(s1)
20011fd2:	bfc5                	j	20011fc2 <__sfp+0x20>
20011fd4:	00c41703          	lh	a4,12(s0)
20011fd8:	e731                	bnez	a4,20012024 <__sfp+0x82>
20011fda:	77c1                	lui	a5,0xffff0
20011fdc:	0785                	addi	a5,a5,1
20011fde:	06042223          	sw	zero,100(s0)
20011fe2:	00042023          	sw	zero,0(s0)
20011fe6:	00042223          	sw	zero,4(s0)
20011fea:	00042423          	sw	zero,8(s0)
20011fee:	c45c                	sw	a5,12(s0)
20011ff0:	00042823          	sw	zero,16(s0)
20011ff4:	00042a23          	sw	zero,20(s0)
20011ff8:	00042c23          	sw	zero,24(s0)
20011ffc:	4621                	li	a2,8
20011ffe:	4581                	li	a1,0
20012000:	05c40513          	addi	a0,s0,92
20012004:	2a69                	jal	2001219e <memset>
20012006:	02042a23          	sw	zero,52(s0)
2001200a:	02042c23          	sw	zero,56(s0)
2001200e:	04042423          	sw	zero,72(s0)
20012012:	04042623          	sw	zero,76(s0)
20012016:	40b2                	lw	ra,12(sp)
20012018:	8522                	mv	a0,s0
2001201a:	4422                	lw	s0,8(sp)
2001201c:	4492                	lw	s1,4(sp)
2001201e:	4902                	lw	s2,0(sp)
20012020:	0141                	addi	sp,sp,16
20012022:	8082                	ret
20012024:	06840413          	addi	s0,s0,104
20012028:	bf79                	j	20011fc6 <__sfp+0x24>
2001202a:	4591                	li	a1,4
2001202c:	854a                	mv	a0,s2
2001202e:	35d9                	jal	20011ef4 <__sfmoreglue>
20012030:	c088                	sw	a0,0(s1)
20012032:	842a                	mv	s0,a0
20012034:	fd51                	bnez	a0,20011fd0 <__sfp+0x2e>
20012036:	47b1                	li	a5,12
20012038:	00f92023          	sw	a5,0(s2)
2001203c:	bfe9                	j	20012016 <__sfp+0x74>

2001203e <_fwalk_reent>:
_fwalk_reent():
2001203e:	7179                	addi	sp,sp,-48
20012040:	d422                	sw	s0,40(sp)
20012042:	d04a                	sw	s2,32(sp)
20012044:	ce4e                	sw	s3,28(sp)
20012046:	cc52                	sw	s4,24(sp)
20012048:	c85a                	sw	s6,16(sp)
2001204a:	c65e                	sw	s7,12(sp)
2001204c:	d606                	sw	ra,44(sp)
2001204e:	d226                	sw	s1,36(sp)
20012050:	ca56                	sw	s5,20(sp)
20012052:	892a                	mv	s2,a0
20012054:	8a2e                	mv	s4,a1
20012056:	04850413          	addi	s0,a0,72
2001205a:	4981                	li	s3,0
2001205c:	4b05                	li	s6,1
2001205e:	5bfd                	li	s7,-1
20012060:	4404                	lw	s1,8(s0)
20012062:	00442a83          	lw	s5,4(s0)
20012066:	1afd                	addi	s5,s5,-1
20012068:	020ad063          	bgez	s5,20012088 <_fwalk_reent+0x4a>
2001206c:	4000                	lw	s0,0(s0)
2001206e:	f86d                	bnez	s0,20012060 <_fwalk_reent+0x22>
20012070:	50b2                	lw	ra,44(sp)
20012072:	5422                	lw	s0,40(sp)
20012074:	5492                	lw	s1,36(sp)
20012076:	5902                	lw	s2,32(sp)
20012078:	4a62                	lw	s4,24(sp)
2001207a:	4ad2                	lw	s5,20(sp)
2001207c:	4b42                	lw	s6,16(sp)
2001207e:	4bb2                	lw	s7,12(sp)
20012080:	854e                	mv	a0,s3
20012082:	49f2                	lw	s3,28(sp)
20012084:	6145                	addi	sp,sp,48
20012086:	8082                	ret
20012088:	00c4d783          	lhu	a5,12(s1)
2001208c:	00fb7b63          	bgeu	s6,a5,200120a2 <_fwalk_reent+0x64>
20012090:	00e49783          	lh	a5,14(s1)
20012094:	01778763          	beq	a5,s7,200120a2 <_fwalk_reent+0x64>
20012098:	85a6                	mv	a1,s1
2001209a:	854a                	mv	a0,s2
2001209c:	9a02                	jalr	s4
2001209e:	00a9e9b3          	or	s3,s3,a0
200120a2:	06848493          	addi	s1,s1,104
200120a6:	b7c1                	j	20012066 <_fwalk_reent+0x28>

200120a8 <__swhatbuf_r>:
__swhatbuf_r():
200120a8:	7159                	addi	sp,sp,-112
200120aa:	d0ca                	sw	s2,96(sp)
200120ac:	892e                	mv	s2,a1
200120ae:	00e59583          	lh	a1,14(a1)
200120b2:	d4a2                	sw	s0,104(sp)
200120b4:	d2a6                	sw	s1,100(sp)
200120b6:	d686                	sw	ra,108(sp)
200120b8:	8432                	mv	s0,a2
200120ba:	84b6                	mv	s1,a3
200120bc:	0005dc63          	bgez	a1,200120d4 <__swhatbuf_r+0x2c>
200120c0:	00c91783          	lh	a5,12(s2)
200120c4:	0004a023          	sw	zero,0(s1)
200120c8:	0807f793          	andi	a5,a5,128
200120cc:	e38d                	bnez	a5,200120ee <__swhatbuf_r+0x46>
200120ce:	40000793          	li	a5,1024
200120d2:	a005                	j	200120f2 <__swhatbuf_r+0x4a>
200120d4:	0030                	addi	a2,sp,8
200120d6:	2925                	jal	2001250e <_fstat_r>
200120d8:	fe0544e3          	bltz	a0,200120c0 <__swhatbuf_r+0x18>
200120dc:	4732                	lw	a4,12(sp)
200120de:	67bd                	lui	a5,0xf
200120e0:	8ff9                	and	a5,a5,a4
200120e2:	7779                	lui	a4,0xffffe
200120e4:	97ba                	add	a5,a5,a4
200120e6:	0017b793          	seqz	a5,a5
200120ea:	c09c                	sw	a5,0(s1)
200120ec:	b7cd                	j	200120ce <__swhatbuf_r+0x26>
200120ee:	04000793          	li	a5,64
200120f2:	50b6                	lw	ra,108(sp)
200120f4:	c01c                	sw	a5,0(s0)
200120f6:	5426                	lw	s0,104(sp)
200120f8:	5496                	lw	s1,100(sp)
200120fa:	5906                	lw	s2,96(sp)
200120fc:	4501                	li	a0,0
200120fe:	6165                	addi	sp,sp,112
20012100:	8082                	ret

20012102 <__smakebuf_r>:
__smakebuf_r():
20012102:	00c5d783          	lhu	a5,12(a1)
20012106:	1101                	addi	sp,sp,-32
20012108:	cc22                	sw	s0,24(sp)
2001210a:	ce06                	sw	ra,28(sp)
2001210c:	ca26                	sw	s1,20(sp)
2001210e:	c84a                	sw	s2,16(sp)
20012110:	8b89                	andi	a5,a5,2
20012112:	842e                	mv	s0,a1
20012114:	cf89                	beqz	a5,2001212e <__smakebuf_r+0x2c>
20012116:	04740793          	addi	a5,s0,71
2001211a:	c01c                	sw	a5,0(s0)
2001211c:	c81c                	sw	a5,16(s0)
2001211e:	4785                	li	a5,1
20012120:	c85c                	sw	a5,20(s0)
20012122:	40f2                	lw	ra,28(sp)
20012124:	4462                	lw	s0,24(sp)
20012126:	44d2                	lw	s1,20(sp)
20012128:	4942                	lw	s2,16(sp)
2001212a:	6105                	addi	sp,sp,32
2001212c:	8082                	ret
2001212e:	0074                	addi	a3,sp,12
20012130:	0030                	addi	a2,sp,8
20012132:	892a                	mv	s2,a0
20012134:	3f95                	jal	200120a8 <__swhatbuf_r>
20012136:	45a2                	lw	a1,8(sp)
20012138:	84aa                	mv	s1,a0
2001213a:	854a                	mv	a0,s2
2001213c:	2275                	jal	200122e8 <_malloc_r>
2001213e:	ed01                	bnez	a0,20012156 <__smakebuf_r+0x54>
20012140:	00c41783          	lh	a5,12(s0)
20012144:	2007f713          	andi	a4,a5,512
20012148:	ff69                	bnez	a4,20012122 <__smakebuf_r+0x20>
2001214a:	9bf1                	andi	a5,a5,-4
2001214c:	0027e793          	ori	a5,a5,2
20012150:	00f41623          	sh	a5,12(s0)
20012154:	b7c9                	j	20012116 <__smakebuf_r+0x14>
20012156:	00000797          	auipc	a5,0x0
2001215a:	d9478793          	addi	a5,a5,-620 # 20011eea <_cleanup_r>
2001215e:	02f92423          	sw	a5,40(s2)
20012162:	00c45783          	lhu	a5,12(s0)
20012166:	c008                	sw	a0,0(s0)
20012168:	c808                	sw	a0,16(s0)
2001216a:	0807e793          	ori	a5,a5,128
2001216e:	00f41623          	sh	a5,12(s0)
20012172:	47a2                	lw	a5,8(sp)
20012174:	c85c                	sw	a5,20(s0)
20012176:	47b2                	lw	a5,12(sp)
20012178:	cf89                	beqz	a5,20012192 <__smakebuf_r+0x90>
2001217a:	00e41583          	lh	a1,14(s0)
2001217e:	854a                	mv	a0,s2
20012180:	26c1                	jal	20012540 <_isatty_r>
20012182:	c901                	beqz	a0,20012192 <__smakebuf_r+0x90>
20012184:	00c45783          	lhu	a5,12(s0)
20012188:	9bf1                	andi	a5,a5,-4
2001218a:	0017e793          	ori	a5,a5,1
2001218e:	00f41623          	sh	a5,12(s0)
20012192:	00c45503          	lhu	a0,12(s0)
20012196:	8cc9                	or	s1,s1,a0
20012198:	00941623          	sh	s1,12(s0)
2001219c:	b759                	j	20012122 <__smakebuf_r+0x20>

2001219e <memset>:
memset():
2001219e:	433d                	li	t1,15
200121a0:	872a                	mv	a4,a0
200121a2:	02c37363          	bgeu	t1,a2,200121c8 <memset+0x2a>
200121a6:	00f77793          	andi	a5,a4,15
200121aa:	efbd                	bnez	a5,20012228 <memset+0x8a>
200121ac:	e5ad                	bnez	a1,20012216 <memset+0x78>
200121ae:	ff067693          	andi	a3,a2,-16
200121b2:	8a3d                	andi	a2,a2,15
200121b4:	96ba                	add	a3,a3,a4
200121b6:	c30c                	sw	a1,0(a4)
200121b8:	c34c                	sw	a1,4(a4)
200121ba:	c70c                	sw	a1,8(a4)
200121bc:	c74c                	sw	a1,12(a4)
200121be:	0741                	addi	a4,a4,16
200121c0:	fed76be3          	bltu	a4,a3,200121b6 <memset+0x18>
200121c4:	e211                	bnez	a2,200121c8 <memset+0x2a>
200121c6:	8082                	ret
200121c8:	40c306b3          	sub	a3,t1,a2
200121cc:	068a                	slli	a3,a3,0x2
200121ce:	00000297          	auipc	t0,0x0
200121d2:	9696                	add	a3,a3,t0
200121d4:	00a68067          	jr	10(a3) # 100a <__heap_size+0x80a>
200121d8:	00b70723          	sb	a1,14(a4) # ffffe00e <metal_segment_heap_target_end+0x7fffc88e>
200121dc:	00b706a3          	sb	a1,13(a4)
200121e0:	00b70623          	sb	a1,12(a4)
200121e4:	00b705a3          	sb	a1,11(a4)
200121e8:	00b70523          	sb	a1,10(a4)
200121ec:	00b704a3          	sb	a1,9(a4)
200121f0:	00b70423          	sb	a1,8(a4)
200121f4:	00b703a3          	sb	a1,7(a4)
200121f8:	00b70323          	sb	a1,6(a4)
200121fc:	00b702a3          	sb	a1,5(a4)
20012200:	00b70223          	sb	a1,4(a4)
20012204:	00b701a3          	sb	a1,3(a4)
20012208:	00b70123          	sb	a1,2(a4)
2001220c:	00b700a3          	sb	a1,1(a4)
20012210:	00b70023          	sb	a1,0(a4)
20012214:	8082                	ret
20012216:	0ff5f593          	zext.b	a1,a1
2001221a:	00859693          	slli	a3,a1,0x8
2001221e:	8dd5                	or	a1,a1,a3
20012220:	01059693          	slli	a3,a1,0x10
20012224:	8dd5                	or	a1,a1,a3
20012226:	b761                	j	200121ae <memset+0x10>
20012228:	00279693          	slli	a3,a5,0x2
2001222c:	00000297          	auipc	t0,0x0
20012230:	9696                	add	a3,a3,t0
20012232:	8286                	mv	t0,ra
20012234:	fa8680e7          	jalr	-88(a3)
20012238:	8096                	mv	ra,t0
2001223a:	17c1                	addi	a5,a5,-16
2001223c:	8f1d                	sub	a4,a4,a5
2001223e:	963e                	add	a2,a2,a5
20012240:	f8c374e3          	bgeu	t1,a2,200121c8 <memset+0x2a>
20012244:	b7a5                	j	200121ac <memset+0xe>

20012246 <_free_r>:
_free_r():
20012246:	c1c5                	beqz	a1,200122e6 <_free_r+0xa0>
20012248:	ffc5a783          	lw	a5,-4(a1)
2001224c:	1101                	addi	sp,sp,-32
2001224e:	cc22                	sw	s0,24(sp)
20012250:	ce06                	sw	ra,28(sp)
20012252:	ffc58413          	addi	s0,a1,-4
20012256:	0007d363          	bgez	a5,2001225c <_free_r+0x16>
2001225a:	943e                	add	s0,s0,a5
2001225c:	c62a                	sw	a0,12(sp)
2001225e:	2699                	jal	200125a4 <__malloc_lock>
20012260:	5ffef717          	auipc	a4,0x5ffef
20012264:	87070713          	addi	a4,a4,-1936 # 80000ad0 <__malloc_free_list>
20012268:	431c                	lw	a5,0(a4)
2001226a:	4532                	lw	a0,12(sp)
2001226c:	eb81                	bnez	a5,2001227c <_free_r+0x36>
2001226e:	00042223          	sw	zero,4(s0)
20012272:	c300                	sw	s0,0(a4)
20012274:	4462                	lw	s0,24(sp)
20012276:	40f2                	lw	ra,28(sp)
20012278:	6105                	addi	sp,sp,32
2001227a:	a635                	j	200125a6 <__malloc_unlock>
2001227c:	00f47d63          	bgeu	s0,a5,20012296 <_free_r+0x50>
20012280:	4010                	lw	a2,0(s0)
20012282:	00c406b3          	add	a3,s0,a2
20012286:	00d79663          	bne	a5,a3,20012292 <_free_r+0x4c>
2001228a:	4394                	lw	a3,0(a5)
2001228c:	43dc                	lw	a5,4(a5)
2001228e:	96b2                	add	a3,a3,a2
20012290:	c014                	sw	a3,0(s0)
20012292:	c05c                	sw	a5,4(s0)
20012294:	bff9                	j	20012272 <_free_r+0x2c>
20012296:	873e                	mv	a4,a5
20012298:	43dc                	lw	a5,4(a5)
2001229a:	c399                	beqz	a5,200122a0 <_free_r+0x5a>
2001229c:	fef47de3          	bgeu	s0,a5,20012296 <_free_r+0x50>
200122a0:	4314                	lw	a3,0(a4)
200122a2:	00d70633          	add	a2,a4,a3
200122a6:	00861f63          	bne	a2,s0,200122c4 <_free_r+0x7e>
200122aa:	4010                	lw	a2,0(s0)
200122ac:	96b2                	add	a3,a3,a2
200122ae:	c314                	sw	a3,0(a4)
200122b0:	00d70633          	add	a2,a4,a3
200122b4:	fcc790e3          	bne	a5,a2,20012274 <_free_r+0x2e>
200122b8:	4390                	lw	a2,0(a5)
200122ba:	43dc                	lw	a5,4(a5)
200122bc:	96b2                	add	a3,a3,a2
200122be:	c314                	sw	a3,0(a4)
200122c0:	c35c                	sw	a5,4(a4)
200122c2:	bf4d                	j	20012274 <_free_r+0x2e>
200122c4:	00c47563          	bgeu	s0,a2,200122ce <_free_r+0x88>
200122c8:	47b1                	li	a5,12
200122ca:	c11c                	sw	a5,0(a0)
200122cc:	b765                	j	20012274 <_free_r+0x2e>
200122ce:	4010                	lw	a2,0(s0)
200122d0:	00c406b3          	add	a3,s0,a2
200122d4:	00d79663          	bne	a5,a3,200122e0 <_free_r+0x9a>
200122d8:	4394                	lw	a3,0(a5)
200122da:	43dc                	lw	a5,4(a5)
200122dc:	96b2                	add	a3,a3,a2
200122de:	c014                	sw	a3,0(s0)
200122e0:	c05c                	sw	a5,4(s0)
200122e2:	c340                	sw	s0,4(a4)
200122e4:	bf41                	j	20012274 <_free_r+0x2e>
200122e6:	8082                	ret

200122e8 <_malloc_r>:
_malloc_r():
200122e8:	1101                	addi	sp,sp,-32
200122ea:	ca26                	sw	s1,20(sp)
200122ec:	00358493          	addi	s1,a1,3
200122f0:	98f1                	andi	s1,s1,-4
200122f2:	c84a                	sw	s2,16(sp)
200122f4:	ce06                	sw	ra,28(sp)
200122f6:	cc22                	sw	s0,24(sp)
200122f8:	c64e                	sw	s3,12(sp)
200122fa:	04a1                	addi	s1,s1,8
200122fc:	47b1                	li	a5,12
200122fe:	892a                	mv	s2,a0
20012300:	04f4f463          	bgeu	s1,a5,20012348 <_malloc_r+0x60>
20012304:	44b1                	li	s1,12
20012306:	04b4e363          	bltu	s1,a1,2001234c <_malloc_r+0x64>
2001230a:	854a                	mv	a0,s2
2001230c:	2c61                	jal	200125a4 <__malloc_lock>
2001230e:	5ffee697          	auipc	a3,0x5ffee
20012312:	7c268693          	addi	a3,a3,1986 # 80000ad0 <__malloc_free_list>
20012316:	4298                	lw	a4,0(a3)
20012318:	843a                	mv	s0,a4
2001231a:	e421                	bnez	s0,20012362 <_malloc_r+0x7a>
2001231c:	5ffee417          	auipc	s0,0x5ffee
20012320:	7b840413          	addi	s0,s0,1976 # 80000ad4 <__malloc_sbrk_start>
20012324:	401c                	lw	a5,0(s0)
20012326:	e789                	bnez	a5,20012330 <_malloc_r+0x48>
20012328:	4581                	li	a1,0
2001232a:	854a                	mv	a0,s2
2001232c:	2851                	jal	200123c0 <_sbrk_r>
2001232e:	c008                	sw	a0,0(s0)
20012330:	85a6                	mv	a1,s1
20012332:	854a                	mv	a0,s2
20012334:	2071                	jal	200123c0 <_sbrk_r>
20012336:	59fd                	li	s3,-1
20012338:	07351863          	bne	a0,s3,200123a8 <_malloc_r+0xc0>
2001233c:	47b1                	li	a5,12
2001233e:	00f92023          	sw	a5,0(s2)
20012342:	854a                	mv	a0,s2
20012344:	248d                	jal	200125a6 <__malloc_unlock>
20012346:	a031                	j	20012352 <_malloc_r+0x6a>
20012348:	fa04dfe3          	bgez	s1,20012306 <_malloc_r+0x1e>
2001234c:	47b1                	li	a5,12
2001234e:	00f92023          	sw	a5,0(s2)
20012352:	4501                	li	a0,0
20012354:	40f2                	lw	ra,28(sp)
20012356:	4462                	lw	s0,24(sp)
20012358:	44d2                	lw	s1,20(sp)
2001235a:	4942                	lw	s2,16(sp)
2001235c:	49b2                	lw	s3,12(sp)
2001235e:	6105                	addi	sp,sp,32
20012360:	8082                	ret
20012362:	401c                	lw	a5,0(s0)
20012364:	8f85                	sub	a5,a5,s1
20012366:	0207ce63          	bltz	a5,200123a2 <_malloc_r+0xba>
2001236a:	462d                	li	a2,11
2001236c:	00f67663          	bgeu	a2,a5,20012378 <_malloc_r+0x90>
20012370:	c01c                	sw	a5,0(s0)
20012372:	943e                	add	s0,s0,a5
20012374:	c004                	sw	s1,0(s0)
20012376:	a029                	j	20012380 <_malloc_r+0x98>
20012378:	405c                	lw	a5,4(s0)
2001237a:	02871263          	bne	a4,s0,2001239e <_malloc_r+0xb6>
2001237e:	c29c                	sw	a5,0(a3)
20012380:	854a                	mv	a0,s2
20012382:	2415                	jal	200125a6 <__malloc_unlock>
20012384:	00b40513          	addi	a0,s0,11
20012388:	00440793          	addi	a5,s0,4
2001238c:	9961                	andi	a0,a0,-8
2001238e:	40f50733          	sub	a4,a0,a5
20012392:	fcf501e3          	beq	a0,a5,20012354 <_malloc_r+0x6c>
20012396:	943a                	add	s0,s0,a4
20012398:	8f89                	sub	a5,a5,a0
2001239a:	c01c                	sw	a5,0(s0)
2001239c:	bf65                	j	20012354 <_malloc_r+0x6c>
2001239e:	c35c                	sw	a5,4(a4)
200123a0:	b7c5                	j	20012380 <_malloc_r+0x98>
200123a2:	8722                	mv	a4,s0
200123a4:	4040                	lw	s0,4(s0)
200123a6:	bf95                	j	2001231a <_malloc_r+0x32>
200123a8:	00350413          	addi	s0,a0,3
200123ac:	9871                	andi	s0,s0,-4
200123ae:	fc8503e3          	beq	a0,s0,20012374 <_malloc_r+0x8c>
200123b2:	40a405b3          	sub	a1,s0,a0
200123b6:	854a                	mv	a0,s2
200123b8:	2021                	jal	200123c0 <_sbrk_r>
200123ba:	fb351de3          	bne	a0,s3,20012374 <_malloc_r+0x8c>
200123be:	bfbd                	j	2001233c <_malloc_r+0x54>

200123c0 <_sbrk_r>:
_sbrk_r():
200123c0:	1141                	addi	sp,sp,-16
200123c2:	c422                	sw	s0,8(sp)
200123c4:	842a                	mv	s0,a0
200123c6:	852e                	mv	a0,a1
200123c8:	5ffee797          	auipc	a5,0x5ffee
200123cc:	7007a823          	sw	zero,1808(a5) # 80000ad8 <errno>
200123d0:	c606                	sw	ra,12(sp)
200123d2:	39b040ef          	jal	ra,20016f6c <_sbrk>
200123d6:	57fd                	li	a5,-1
200123d8:	00f51863          	bne	a0,a5,200123e8 <_sbrk_r+0x28>
200123dc:	5ffee797          	auipc	a5,0x5ffee
200123e0:	6fc7a783          	lw	a5,1788(a5) # 80000ad8 <errno>
200123e4:	c391                	beqz	a5,200123e8 <_sbrk_r+0x28>
200123e6:	c01c                	sw	a5,0(s0)
200123e8:	40b2                	lw	ra,12(sp)
200123ea:	4422                	lw	s0,8(sp)
200123ec:	0141                	addi	sp,sp,16
200123ee:	8082                	ret

200123f0 <__sread>:
__sread():
200123f0:	1141                	addi	sp,sp,-16
200123f2:	c422                	sw	s0,8(sp)
200123f4:	842e                	mv	s0,a1
200123f6:	00e59583          	lh	a1,14(a1)
200123fa:	c606                	sw	ra,12(sp)
200123fc:	2275                	jal	200125a8 <_read_r>
200123fe:	00054963          	bltz	a0,20012410 <__sread+0x20>
20012402:	487c                	lw	a5,84(s0)
20012404:	97aa                	add	a5,a5,a0
20012406:	c87c                	sw	a5,84(s0)
20012408:	40b2                	lw	ra,12(sp)
2001240a:	4422                	lw	s0,8(sp)
2001240c:	0141                	addi	sp,sp,16
2001240e:	8082                	ret
20012410:	00c45783          	lhu	a5,12(s0)
20012414:	777d                	lui	a4,0xfffff
20012416:	177d                	addi	a4,a4,-1
20012418:	8ff9                	and	a5,a5,a4
2001241a:	00f41623          	sh	a5,12(s0)
2001241e:	b7ed                	j	20012408 <__sread+0x18>

20012420 <__swrite>:
__swrite():
20012420:	00c5d783          	lhu	a5,12(a1)
20012424:	1101                	addi	sp,sp,-32
20012426:	cc22                	sw	s0,24(sp)
20012428:	ca26                	sw	s1,20(sp)
2001242a:	c84a                	sw	s2,16(sp)
2001242c:	c64e                	sw	s3,12(sp)
2001242e:	ce06                	sw	ra,28(sp)
20012430:	1007f793          	andi	a5,a5,256
20012434:	84aa                	mv	s1,a0
20012436:	842e                	mv	s0,a1
20012438:	8932                	mv	s2,a2
2001243a:	89b6                	mv	s3,a3
2001243c:	c791                	beqz	a5,20012448 <__swrite+0x28>
2001243e:	00e59583          	lh	a1,14(a1)
20012442:	4689                	li	a3,2
20012444:	4601                	li	a2,0
20012446:	222d                	jal	20012570 <_lseek_r>
20012448:	00c45783          	lhu	a5,12(s0)
2001244c:	777d                	lui	a4,0xfffff
2001244e:	177d                	addi	a4,a4,-1
20012450:	8ff9                	and	a5,a5,a4
20012452:	00e41583          	lh	a1,14(s0)
20012456:	00f41623          	sh	a5,12(s0)
2001245a:	4462                	lw	s0,24(sp)
2001245c:	40f2                	lw	ra,28(sp)
2001245e:	86ce                	mv	a3,s3
20012460:	864a                	mv	a2,s2
20012462:	49b2                	lw	s3,12(sp)
20012464:	4942                	lw	s2,16(sp)
20012466:	8526                	mv	a0,s1
20012468:	44d2                	lw	s1,20(sp)
2001246a:	6105                	addi	sp,sp,32
2001246c:	a83d                	j	200124aa <_write_r>

2001246e <__sseek>:
__sseek():
2001246e:	1141                	addi	sp,sp,-16
20012470:	c422                	sw	s0,8(sp)
20012472:	842e                	mv	s0,a1
20012474:	00e59583          	lh	a1,14(a1)
20012478:	c606                	sw	ra,12(sp)
2001247a:	28dd                	jal	20012570 <_lseek_r>
2001247c:	57fd                	li	a5,-1
2001247e:	00c45703          	lhu	a4,12(s0)
20012482:	00f51b63          	bne	a0,a5,20012498 <__sseek+0x2a>
20012486:	77fd                	lui	a5,0xfffff
20012488:	17fd                	addi	a5,a5,-1
2001248a:	8ff9                	and	a5,a5,a4
2001248c:	00f41623          	sh	a5,12(s0)
20012490:	40b2                	lw	ra,12(sp)
20012492:	4422                	lw	s0,8(sp)
20012494:	0141                	addi	sp,sp,16
20012496:	8082                	ret
20012498:	6785                	lui	a5,0x1
2001249a:	8fd9                	or	a5,a5,a4
2001249c:	00f41623          	sh	a5,12(s0)
200124a0:	c868                	sw	a0,84(s0)
200124a2:	b7fd                	j	20012490 <__sseek+0x22>

200124a4 <__sclose>:
__sclose():
200124a4:	00e59583          	lh	a1,14(a1)
200124a8:	a81d                	j	200124de <_close_r>

200124aa <_write_r>:
_write_r():
200124aa:	1141                	addi	sp,sp,-16
200124ac:	c422                	sw	s0,8(sp)
200124ae:	842a                	mv	s0,a0
200124b0:	852e                	mv	a0,a1
200124b2:	85b2                	mv	a1,a2
200124b4:	8636                	mv	a2,a3
200124b6:	5ffee797          	auipc	a5,0x5ffee
200124ba:	6207a123          	sw	zero,1570(a5) # 80000ad8 <errno>
200124be:	c606                	sw	ra,12(sp)
200124c0:	317040ef          	jal	ra,20016fd6 <_write>
200124c4:	57fd                	li	a5,-1
200124c6:	00f51863          	bne	a0,a5,200124d6 <_write_r+0x2c>
200124ca:	5ffee797          	auipc	a5,0x5ffee
200124ce:	60e7a783          	lw	a5,1550(a5) # 80000ad8 <errno>
200124d2:	c391                	beqz	a5,200124d6 <_write_r+0x2c>
200124d4:	c01c                	sw	a5,0(s0)
200124d6:	40b2                	lw	ra,12(sp)
200124d8:	4422                	lw	s0,8(sp)
200124da:	0141                	addi	sp,sp,16
200124dc:	8082                	ret

200124de <_close_r>:
_close_r():
200124de:	1141                	addi	sp,sp,-16
200124e0:	c422                	sw	s0,8(sp)
200124e2:	842a                	mv	s0,a0
200124e4:	852e                	mv	a0,a1
200124e6:	5ffee797          	auipc	a5,0x5ffee
200124ea:	5e07a923          	sw	zero,1522(a5) # 80000ad8 <errno>
200124ee:	c606                	sw	ra,12(sp)
200124f0:	1c1040ef          	jal	ra,20016eb0 <_close>
200124f4:	57fd                	li	a5,-1
200124f6:	00f51863          	bne	a0,a5,20012506 <_close_r+0x28>
200124fa:	5ffee797          	auipc	a5,0x5ffee
200124fe:	5de7a783          	lw	a5,1502(a5) # 80000ad8 <errno>
20012502:	c391                	beqz	a5,20012506 <_close_r+0x28>
20012504:	c01c                	sw	a5,0(s0)
20012506:	40b2                	lw	ra,12(sp)
20012508:	4422                	lw	s0,8(sp)
2001250a:	0141                	addi	sp,sp,16
2001250c:	8082                	ret

2001250e <_fstat_r>:
_fstat_r():
2001250e:	1141                	addi	sp,sp,-16
20012510:	c422                	sw	s0,8(sp)
20012512:	842a                	mv	s0,a0
20012514:	852e                	mv	a0,a1
20012516:	85b2                	mv	a1,a2
20012518:	5ffee797          	auipc	a5,0x5ffee
2001251c:	5c07a023          	sw	zero,1472(a5) # 80000ad8 <errno>
20012520:	c606                	sw	ra,12(sp)
20012522:	1b1040ef          	jal	ra,20016ed2 <_fstat>
20012526:	57fd                	li	a5,-1
20012528:	00f51863          	bne	a0,a5,20012538 <_fstat_r+0x2a>
2001252c:	5ffee797          	auipc	a5,0x5ffee
20012530:	5ac7a783          	lw	a5,1452(a5) # 80000ad8 <errno>
20012534:	c391                	beqz	a5,20012538 <_fstat_r+0x2a>
20012536:	c01c                	sw	a5,0(s0)
20012538:	40b2                	lw	ra,12(sp)
2001253a:	4422                	lw	s0,8(sp)
2001253c:	0141                	addi	sp,sp,16
2001253e:	8082                	ret

20012540 <_isatty_r>:
_isatty_r():
20012540:	1141                	addi	sp,sp,-16
20012542:	c422                	sw	s0,8(sp)
20012544:	842a                	mv	s0,a0
20012546:	852e                	mv	a0,a1
20012548:	5ffee797          	auipc	a5,0x5ffee
2001254c:	5807a823          	sw	zero,1424(a5) # 80000ad8 <errno>
20012550:	c606                	sw	ra,12(sp)
20012552:	1a7040ef          	jal	ra,20016ef8 <_isatty>
20012556:	57fd                	li	a5,-1
20012558:	00f51863          	bne	a0,a5,20012568 <_isatty_r+0x28>
2001255c:	5ffee797          	auipc	a5,0x5ffee
20012560:	57c7a783          	lw	a5,1404(a5) # 80000ad8 <errno>
20012564:	c391                	beqz	a5,20012568 <_isatty_r+0x28>
20012566:	c01c                	sw	a5,0(s0)
20012568:	40b2                	lw	ra,12(sp)
2001256a:	4422                	lw	s0,8(sp)
2001256c:	0141                	addi	sp,sp,16
2001256e:	8082                	ret

20012570 <_lseek_r>:
_lseek_r():
20012570:	1141                	addi	sp,sp,-16
20012572:	c422                	sw	s0,8(sp)
20012574:	842a                	mv	s0,a0
20012576:	852e                	mv	a0,a1
20012578:	85b2                	mv	a1,a2
2001257a:	8636                	mv	a2,a3
2001257c:	5ffee797          	auipc	a5,0x5ffee
20012580:	5407ae23          	sw	zero,1372(a5) # 80000ad8 <errno>
20012584:	c606                	sw	ra,12(sp)
20012586:	193040ef          	jal	ra,20016f18 <_lseek>
2001258a:	57fd                	li	a5,-1
2001258c:	00f51863          	bne	a0,a5,2001259c <_lseek_r+0x2c>
20012590:	5ffee797          	auipc	a5,0x5ffee
20012594:	5487a783          	lw	a5,1352(a5) # 80000ad8 <errno>
20012598:	c391                	beqz	a5,2001259c <_lseek_r+0x2c>
2001259a:	c01c                	sw	a5,0(s0)
2001259c:	40b2                	lw	ra,12(sp)
2001259e:	4422                	lw	s0,8(sp)
200125a0:	0141                	addi	sp,sp,16
200125a2:	8082                	ret

200125a4 <__malloc_lock>:
__malloc_lock():
200125a4:	8082                	ret

200125a6 <__malloc_unlock>:
__malloc_unlock():
200125a6:	8082                	ret

200125a8 <_read_r>:
_read_r():
200125a8:	1141                	addi	sp,sp,-16
200125aa:	c422                	sw	s0,8(sp)
200125ac:	842a                	mv	s0,a0
200125ae:	852e                	mv	a0,a1
200125b0:	85b2                	mv	a1,a2
200125b2:	8636                	mv	a2,a3
200125b4:	5ffee797          	auipc	a5,0x5ffee
200125b8:	5207a223          	sw	zero,1316(a5) # 80000ad8 <errno>
200125bc:	c606                	sw	ra,12(sp)
200125be:	185040ef          	jal	ra,20016f42 <_read>
200125c2:	57fd                	li	a5,-1
200125c4:	00f51863          	bne	a0,a5,200125d4 <_read_r+0x2c>
200125c8:	5ffee797          	auipc	a5,0x5ffee
200125cc:	5107a783          	lw	a5,1296(a5) # 80000ad8 <errno>
200125d0:	c391                	beqz	a5,200125d4 <_read_r+0x2c>
200125d2:	c01c                	sw	a5,0(s0)
200125d4:	40b2                	lw	ra,12(sp)
200125d6:	4422                	lw	s0,8(sp)
200125d8:	0141                	addi	sp,sp,16
200125da:	8082                	ret

200125dc <metal_cpu_interrupt_controller>:
metal_cpu_interrupt_controller():
/home/nicoladgg/wsFreedomStudio/sifive_hifive1_revb_hello/freedom-metal/metal/cpu.h:224
200125dc:	1101                	addi	sp,sp,-32
200125de:	ce06                	sw	ra,28(sp)
200125e0:	cc22                	sw	s0,24(sp)
200125e2:	1000                	addi	s0,sp,32
200125e4:	fea42623          	sw	a0,-20(s0)
/home/nicoladgg/wsFreedomStudio/sifive_hifive1_revb_hello/freedom-metal/metal/cpu.h:225
200125e8:	fec42783          	lw	a5,-20(s0)
200125ec:	439c                	lw	a5,0(a5)
200125ee:	57dc                	lw	a5,44(a5)
200125f0:	fec42503          	lw	a0,-20(s0)
200125f4:	9782                	jalr	a5
200125f6:	87aa                	mv	a5,a0
/home/nicoladgg/wsFreedomStudio/sifive_hifive1_revb_hello/freedom-metal/metal/cpu.h:226
200125f8:	853e                	mv	a0,a5
200125fa:	40f2                	lw	ra,28(sp)
200125fc:	4462                	lw	s0,24(sp)
200125fe:	6105                	addi	sp,sp,32
20012600:	8082                	ret

20012602 <metal_cpu_get>:
metal_cpu_get():
/home/nicoladgg/wsFreedomStudio/sifive_hifive1_revb_hello/freedom-metal/src/cpu.c:7
20012602:	1101                	addi	sp,sp,-32
20012604:	ce22                	sw	s0,28(sp)
20012606:	1000                	addi	s0,sp,32
20012608:	fea42623          	sw	a0,-20(s0)
/home/nicoladgg/wsFreedomStudio/sifive_hifive1_revb_hello/freedom-metal/src/cpu.c:8
2001260c:	fec42783          	lw	a5,-20(s0)
20012610:	eb99                	bnez	a5,20012626 <metal_cpu_get+0x24>
/home/nicoladgg/wsFreedomStudio/sifive_hifive1_revb_hello/freedom-metal/src/cpu.c:9
20012612:	800017b7          	lui	a5,0x80001
20012616:	fec42703          	lw	a4,-20(s0)
2001261a:	070a                	slli	a4,a4,0x2
2001261c:	aa878793          	addi	a5,a5,-1368 # 80000aa8 <metal_segment_heap_target_end+0xfffff328>
20012620:	97ba                	add	a5,a5,a4
20012622:	439c                	lw	a5,0(a5)
20012624:	a011                	j	20012628 <metal_cpu_get+0x26>
/home/nicoladgg/wsFreedomStudio/sifive_hifive1_revb_hello/freedom-metal/src/cpu.c:11
20012626:	4781                	li	a5,0
/home/nicoladgg/wsFreedomStudio/sifive_hifive1_revb_hello/freedom-metal/src/cpu.c:12
20012628:	853e                	mv	a0,a5
2001262a:	4472                	lw	s0,28(sp)
2001262c:	6105                	addi	sp,sp,32
2001262e:	8082                	ret

20012630 <metal_cpu_get_current_hartid>:
metal_cpu_get_current_hartid():
/home/nicoladgg/wsFreedomStudio/sifive_hifive1_revb_hello/freedom-metal/src/cpu.c:14
20012630:	1101                	addi	sp,sp,-32
20012632:	ce22                	sw	s0,28(sp)
20012634:	1000                	addi	s0,sp,32
/home/nicoladgg/wsFreedomStudio/sifive_hifive1_revb_hello/freedom-metal/src/cpu.c:17
20012636:	f14027f3          	csrr	a5,mhartid
2001263a:	fef42623          	sw	a5,-20(s0)
/home/nicoladgg/wsFreedomStudio/sifive_hifive1_revb_hello/freedom-metal/src/cpu.c:18
2001263e:	fec42783          	lw	a5,-20(s0)
/home/nicoladgg/wsFreedomStudio/sifive_hifive1_revb_hello/freedom-metal/src/cpu.c:20
20012642:	853e                	mv	a0,a5
20012644:	4472                	lw	s0,28(sp)
20012646:	6105                	addi	sp,sp,32
20012648:	8082                	ret

2001264a <__metal_driver_sifive_clint0_control_base>:
__metal_driver_sifive_clint0_control_base():
/home/nicoladgg/wsFreedomStudio/sifive_hifive1_revb_hello/bsp/build/debug/./metal/machine.h:233
2001264a:	1101                	addi	sp,sp,-32
2001264c:	ce22                	sw	s0,28(sp)
2001264e:	1000                	addi	s0,sp,32
20012650:	fea42623          	sw	a0,-20(s0)
/home/nicoladgg/wsFreedomStudio/sifive_hifive1_revb_hello/bsp/build/debug/./metal/machine.h:234
20012654:	fec42703          	lw	a4,-20(s0)
20012658:	800017b7          	lui	a5,0x80001
2001265c:	aac78793          	addi	a5,a5,-1364 # 80000aac <metal_segment_heap_target_end+0xfffff32c>
20012660:	00f71563          	bne	a4,a5,2001266a <__metal_driver_sifive_clint0_control_base+0x20>
/home/nicoladgg/wsFreedomStudio/sifive_hifive1_revb_hello/bsp/build/debug/./metal/machine.h:235
20012664:	020007b7          	lui	a5,0x2000
20012668:	a011                	j	2001266c <__metal_driver_sifive_clint0_control_base+0x22>
/home/nicoladgg/wsFreedomStudio/sifive_hifive1_revb_hello/bsp/build/debug/./metal/machine.h:238
2001266a:	4781                	li	a5,0
/home/nicoladgg/wsFreedomStudio/sifive_hifive1_revb_hello/bsp/build/debug/./metal/machine.h:240
2001266c:	853e                	mv	a0,a5
2001266e:	4472                	lw	s0,28(sp)
20012670:	6105                	addi	sp,sp,32
20012672:	8082                	ret

20012674 <__metal_driver_sifive_clint0_num_interrupts>:
__metal_driver_sifive_clint0_num_interrupts():
/home/nicoladgg/wsFreedomStudio/sifive_hifive1_revb_hello/bsp/build/debug/./metal/machine.h:253
20012674:	1101                	addi	sp,sp,-32
20012676:	ce22                	sw	s0,28(sp)
20012678:	1000                	addi	s0,sp,32
2001267a:	fea42623          	sw	a0,-20(s0)
/home/nicoladgg/wsFreedomStudio/sifive_hifive1_revb_hello/bsp/build/debug/./metal/machine.h:254
2001267e:	fec42703          	lw	a4,-20(s0)
20012682:	800017b7          	lui	a5,0x80001
20012686:	aac78793          	addi	a5,a5,-1364 # 80000aac <metal_segment_heap_target_end+0xfffff32c>
2001268a:	00f71463          	bne	a4,a5,20012692 <__metal_driver_sifive_clint0_num_interrupts+0x1e>
/home/nicoladgg/wsFreedomStudio/sifive_hifive1_revb_hello/bsp/build/debug/./metal/machine.h:255
2001268e:	4789                	li	a5,2
20012690:	a011                	j	20012694 <__metal_driver_sifive_clint0_num_interrupts+0x20>
/home/nicoladgg/wsFreedomStudio/sifive_hifive1_revb_hello/bsp/build/debug/./metal/machine.h:258
20012692:	4781                	li	a5,0
/home/nicoladgg/wsFreedomStudio/sifive_hifive1_revb_hello/bsp/build/debug/./metal/machine.h:260
20012694:	853e                	mv	a0,a5
20012696:	4472                	lw	s0,28(sp)
20012698:	6105                	addi	sp,sp,32
2001269a:	8082                	ret

2001269c <__metal_driver_sifive_clint0_interrupt_parents>:
__metal_driver_sifive_clint0_interrupt_parents():
/home/nicoladgg/wsFreedomStudio/sifive_hifive1_revb_hello/bsp/build/debug/./metal/machine.h:263
2001269c:	1101                	addi	sp,sp,-32
2001269e:	ce22                	sw	s0,28(sp)
200126a0:	1000                	addi	s0,sp,32
200126a2:	fea42623          	sw	a0,-20(s0)
200126a6:	feb42423          	sw	a1,-24(s0)
/home/nicoladgg/wsFreedomStudio/sifive_hifive1_revb_hello/bsp/build/debug/./metal/machine.h:264
200126aa:	fe842783          	lw	a5,-24(s0)
200126ae:	e791                	bnez	a5,200126ba <__metal_driver_sifive_clint0_interrupt_parents+0x1e>
/home/nicoladgg/wsFreedomStudio/sifive_hifive1_revb_hello/bsp/build/debug/./metal/machine.h:265
200126b0:	800007b7          	lui	a5,0x80000
200126b4:	09078793          	addi	a5,a5,144 # 80000090 <metal_segment_heap_target_end+0xffffe910>
200126b8:	a821                	j	200126d0 <__metal_driver_sifive_clint0_interrupt_parents+0x34>
/home/nicoladgg/wsFreedomStudio/sifive_hifive1_revb_hello/bsp/build/debug/./metal/machine.h:267
200126ba:	fe842703          	lw	a4,-24(s0)
200126be:	4785                	li	a5,1
200126c0:	00f71763          	bne	a4,a5,200126ce <__metal_driver_sifive_clint0_interrupt_parents+0x32>
/home/nicoladgg/wsFreedomStudio/sifive_hifive1_revb_hello/bsp/build/debug/./metal/machine.h:268
200126c4:	800007b7          	lui	a5,0x80000
200126c8:	09078793          	addi	a5,a5,144 # 80000090 <metal_segment_heap_target_end+0xffffe910>
200126cc:	a011                	j	200126d0 <__metal_driver_sifive_clint0_interrupt_parents+0x34>
/home/nicoladgg/wsFreedomStudio/sifive_hifive1_revb_hello/bsp/build/debug/./metal/machine.h:271
200126ce:	4781                	li	a5,0
/home/nicoladgg/wsFreedomStudio/sifive_hifive1_revb_hello/bsp/build/debug/./metal/machine.h:273
200126d0:	853e                	mv	a0,a5
200126d2:	4472                	lw	s0,28(sp)
200126d4:	6105                	addi	sp,sp,32
200126d6:	8082                	ret

200126d8 <__metal_driver_sifive_clint0_interrupt_lines>:
__metal_driver_sifive_clint0_interrupt_lines():
/home/nicoladgg/wsFreedomStudio/sifive_hifive1_revb_hello/bsp/build/debug/./metal/machine.h:276
200126d8:	1101                	addi	sp,sp,-32
200126da:	ce22                	sw	s0,28(sp)
200126dc:	1000                	addi	s0,sp,32
200126de:	fea42623          	sw	a0,-20(s0)
200126e2:	feb42423          	sw	a1,-24(s0)
/home/nicoladgg/wsFreedomStudio/sifive_hifive1_revb_hello/bsp/build/debug/./metal/machine.h:277
200126e6:	fe842783          	lw	a5,-24(s0)
200126ea:	e399                	bnez	a5,200126f0 <__metal_driver_sifive_clint0_interrupt_lines+0x18>
/home/nicoladgg/wsFreedomStudio/sifive_hifive1_revb_hello/bsp/build/debug/./metal/machine.h:278
200126ec:	478d                	li	a5,3
200126ee:	a809                	j	20012700 <__metal_driver_sifive_clint0_interrupt_lines+0x28>
/home/nicoladgg/wsFreedomStudio/sifive_hifive1_revb_hello/bsp/build/debug/./metal/machine.h:280
200126f0:	fe842703          	lw	a4,-24(s0)
200126f4:	4785                	li	a5,1
200126f6:	00f71463          	bne	a4,a5,200126fe <__metal_driver_sifive_clint0_interrupt_lines+0x26>
/home/nicoladgg/wsFreedomStudio/sifive_hifive1_revb_hello/bsp/build/debug/./metal/machine.h:281
200126fa:	479d                	li	a5,7
200126fc:	a011                	j	20012700 <__metal_driver_sifive_clint0_interrupt_lines+0x28>
/home/nicoladgg/wsFreedomStudio/sifive_hifive1_revb_hello/bsp/build/debug/./metal/machine.h:284
200126fe:	4781                	li	a5,0
/home/nicoladgg/wsFreedomStudio/sifive_hifive1_revb_hello/bsp/build/debug/./metal/machine.h:286
20012700:	853e                	mv	a0,a5
20012702:	4472                	lw	s0,28(sp)
20012704:	6105                	addi	sp,sp,32
20012706:	8082                	ret

20012708 <__metal_clint0_mtime_get>:
__metal_clint0_mtime_get():
/home/nicoladgg/wsFreedomStudio/sifive_hifive1_revb_hello/freedom-metal/src/drivers/riscv_clint0.c:14
20012708:	715d                	addi	sp,sp,-80
2001270a:	c686                	sw	ra,76(sp)
2001270c:	c4a2                	sw	s0,72(sp)
2001270e:	c2ca                	sw	s2,68(sp)
20012710:	c0ce                	sw	s3,64(sp)
20012712:	de52                	sw	s4,60(sp)
20012714:	dc56                	sw	s5,56(sp)
20012716:	da5a                	sw	s6,52(sp)
20012718:	d85e                	sw	s7,48(sp)
2001271a:	d662                	sw	s8,44(sp)
2001271c:	d466                	sw	s9,40(sp)
2001271e:	0880                	addi	s0,sp,80
20012720:	faa42e23          	sw	a0,-68(s0)
/home/nicoladgg/wsFreedomStudio/sifive_hifive1_revb_hello/freedom-metal/src/drivers/riscv_clint0.c:17
20012724:	fbc42783          	lw	a5,-68(s0)
20012728:	853e                	mv	a0,a5
2001272a:	3705                	jal	2001264a <__metal_driver_sifive_clint0_control_base>
2001272c:	fca42623          	sw	a0,-52(s0)
/home/nicoladgg/wsFreedomStudio/sifive_hifive1_revb_hello/freedom-metal/src/drivers/riscv_clint0.c:21 (discriminator 1)
20012730:	fcc42703          	lw	a4,-52(s0)
20012734:	67b1                	lui	a5,0xc
20012736:	17f1                	addi	a5,a5,-4
20012738:	97ba                	add	a5,a5,a4
2001273a:	439c                	lw	a5,0(a5)
2001273c:	fcf42423          	sw	a5,-56(s0)
/home/nicoladgg/wsFreedomStudio/sifive_hifive1_revb_hello/freedom-metal/src/drivers/riscv_clint0.c:23 (discriminator 1)
20012740:	fcc42703          	lw	a4,-52(s0)
20012744:	67b1                	lui	a5,0xc
20012746:	17e1                	addi	a5,a5,-8
20012748:	97ba                	add	a5,a5,a4
2001274a:	439c                	lw	a5,0(a5)
2001274c:	fcf42223          	sw	a5,-60(s0)
/home/nicoladgg/wsFreedomStudio/sifive_hifive1_revb_hello/freedom-metal/src/drivers/riscv_clint0.c:25 (discriminator 1)
20012750:	fcc42703          	lw	a4,-52(s0)
20012754:	67b1                	lui	a5,0xc
20012756:	17f1                	addi	a5,a5,-4
20012758:	97ba                	add	a5,a5,a4
2001275a:	439c                	lw	a5,0(a5)
2001275c:	fc842703          	lw	a4,-56(s0)
20012760:	fcf718e3          	bne	a4,a5,20012730 <__metal_clint0_mtime_get+0x28>
/home/nicoladgg/wsFreedomStudio/sifive_hifive1_revb_hello/freedom-metal/src/drivers/riscv_clint0.c:29
20012764:	fc842783          	lw	a5,-56(s0)
20012768:	8c3e                	mv	s8,a5
2001276a:	4c81                	li	s9,0
2001276c:	000c1993          	slli	s3,s8,0x0
20012770:	4901                	li	s2,0
20012772:	fc442783          	lw	a5,-60(s0)
20012776:	8a3e                	mv	s4,a5
20012778:	4a81                	li	s5,0
2001277a:	01496b33          	or	s6,s2,s4
2001277e:	0159ebb3          	or	s7,s3,s5
20012782:	875a                	mv	a4,s6
20012784:	87de                	mv	a5,s7
/home/nicoladgg/wsFreedomStudio/sifive_hifive1_revb_hello/freedom-metal/src/drivers/riscv_clint0.c:30
20012786:	853a                	mv	a0,a4
20012788:	85be                	mv	a1,a5
2001278a:	40b6                	lw	ra,76(sp)
2001278c:	4426                	lw	s0,72(sp)
2001278e:	4916                	lw	s2,68(sp)
20012790:	4986                	lw	s3,64(sp)
20012792:	5a72                	lw	s4,60(sp)
20012794:	5ae2                	lw	s5,56(sp)
20012796:	5b52                	lw	s6,52(sp)
20012798:	5bc2                	lw	s7,48(sp)
2001279a:	5c32                	lw	s8,44(sp)
2001279c:	5ca2                	lw	s9,40(sp)
2001279e:	6161                	addi	sp,sp,80
200127a0:	8082                	ret

200127a2 <__metal_driver_riscv_clint0_mtimecmp_set>:
__metal_driver_riscv_clint0_mtimecmp_set():
/home/nicoladgg/wsFreedomStudio/sifive_hifive1_revb_hello/freedom-metal/src/drivers/riscv_clint0.c:34
200127a2:	7179                	addi	sp,sp,-48
200127a4:	d606                	sw	ra,44(sp)
200127a6:	d422                	sw	s0,40(sp)
200127a8:	d24a                	sw	s2,36(sp)
200127aa:	d04e                	sw	s3,32(sp)
200127ac:	1800                	addi	s0,sp,48
200127ae:	fca42e23          	sw	a0,-36(s0)
200127b2:	fcb42c23          	sw	a1,-40(s0)
200127b6:	fcc42823          	sw	a2,-48(s0)
200127ba:	fcd42a23          	sw	a3,-44(s0)
/home/nicoladgg/wsFreedomStudio/sifive_hifive1_revb_hello/freedom-metal/src/drivers/riscv_clint0.c:35
200127be:	fdc42783          	lw	a5,-36(s0)
200127c2:	fef42623          	sw	a5,-20(s0)
/home/nicoladgg/wsFreedomStudio/sifive_hifive1_revb_hello/freedom-metal/src/drivers/riscv_clint0.c:38
200127c6:	fec42783          	lw	a5,-20(s0)
200127ca:	853e                	mv	a0,a5
200127cc:	3dbd                	jal	2001264a <__metal_driver_sifive_clint0_control_base>
200127ce:	fea42423          	sw	a0,-24(s0)
/home/nicoladgg/wsFreedomStudio/sifive_hifive1_revb_hello/freedom-metal/src/drivers/riscv_clint0.c:45
200127d2:	fd842783          	lw	a5,-40(s0)
200127d6:	078e                	slli	a5,a5,0x3
200127d8:	873e                	mv	a4,a5
200127da:	fe842783          	lw	a5,-24(s0)
200127de:	973e                	add	a4,a4,a5
200127e0:	6791                	lui	a5,0x4
200127e2:	0791                	addi	a5,a5,4
200127e4:	97ba                	add	a5,a5,a4
200127e6:	873e                	mv	a4,a5
/home/nicoladgg/wsFreedomStudio/sifive_hifive1_revb_hello/freedom-metal/src/drivers/riscv_clint0.c:47
200127e8:	57fd                	li	a5,-1
200127ea:	c31c                	sw	a5,0(a4)
/home/nicoladgg/wsFreedomStudio/sifive_hifive1_revb_hello/freedom-metal/src/drivers/riscv_clint0.c:48
200127ec:	fd842783          	lw	a5,-40(s0)
200127f0:	078e                	slli	a5,a5,0x3
200127f2:	873e                	mv	a4,a5
200127f4:	fe842783          	lw	a5,-24(s0)
200127f8:	973e                	add	a4,a4,a5
200127fa:	6791                	lui	a5,0x4
200127fc:	97ba                	add	a5,a5,a4
200127fe:	873e                	mv	a4,a5
/home/nicoladgg/wsFreedomStudio/sifive_hifive1_revb_hello/freedom-metal/src/drivers/riscv_clint0.c:50
20012800:	fd042783          	lw	a5,-48(s0)
/home/nicoladgg/wsFreedomStudio/sifive_hifive1_revb_hello/freedom-metal/src/drivers/riscv_clint0.c:49
20012804:	c31c                	sw	a5,0(a4)
/home/nicoladgg/wsFreedomStudio/sifive_hifive1_revb_hello/freedom-metal/src/drivers/riscv_clint0.c:53
20012806:	fd442783          	lw	a5,-44(s0)
2001280a:	0007d913          	srli	s2,a5,0x0
2001280e:	4981                	li	s3,0
/home/nicoladgg/wsFreedomStudio/sifive_hifive1_revb_hello/freedom-metal/src/drivers/riscv_clint0.c:51
20012810:	fd842783          	lw	a5,-40(s0)
20012814:	078e                	slli	a5,a5,0x3
20012816:	873e                	mv	a4,a5
20012818:	fe842783          	lw	a5,-24(s0)
2001281c:	973e                	add	a4,a4,a5
2001281e:	6791                	lui	a5,0x4
20012820:	0791                	addi	a5,a5,4
20012822:	97ba                	add	a5,a5,a4
/home/nicoladgg/wsFreedomStudio/sifive_hifive1_revb_hello/freedom-metal/src/drivers/riscv_clint0.c:53
20012824:	874a                	mv	a4,s2
20012826:	c398                	sw	a4,0(a5)
/home/nicoladgg/wsFreedomStudio/sifive_hifive1_revb_hello/freedom-metal/src/drivers/riscv_clint0.c:54
20012828:	4781                	li	a5,0
/home/nicoladgg/wsFreedomStudio/sifive_hifive1_revb_hello/freedom-metal/src/drivers/riscv_clint0.c:55
2001282a:	853e                	mv	a0,a5
2001282c:	50b2                	lw	ra,44(sp)
2001282e:	5422                	lw	s0,40(sp)
20012830:	5912                	lw	s2,36(sp)
20012832:	5982                	lw	s3,32(sp)
20012834:	6145                	addi	sp,sp,48
20012836:	8082                	ret

20012838 <_get_cpu_intc>:
_get_cpu_intc():
/home/nicoladgg/wsFreedomStudio/sifive_hifive1_revb_hello/freedom-metal/src/drivers/riscv_clint0.c:57
20012838:	1101                	addi	sp,sp,-32
2001283a:	ce06                	sw	ra,28(sp)
2001283c:	cc22                	sw	s0,24(sp)
2001283e:	1000                	addi	s0,sp,32
/home/nicoladgg/wsFreedomStudio/sifive_hifive1_revb_hello/freedom-metal/src/drivers/riscv_clint0.c:58
20012840:	fe042623          	sw	zero,-20(s0)
/home/nicoladgg/wsFreedomStudio/sifive_hifive1_revb_hello/freedom-metal/src/drivers/riscv_clint0.c:59
20012844:	f14027f3          	csrr	a5,mhartid
20012848:	fef42623          	sw	a5,-20(s0)
/home/nicoladgg/wsFreedomStudio/sifive_hifive1_revb_hello/freedom-metal/src/drivers/riscv_clint0.c:62
2001284c:	fec42783          	lw	a5,-20(s0)
20012850:	853e                	mv	a0,a5
20012852:	3b45                	jal	20012602 <metal_cpu_get>
20012854:	fea42423          	sw	a0,-24(s0)
/home/nicoladgg/wsFreedomStudio/sifive_hifive1_revb_hello/freedom-metal/src/drivers/riscv_clint0.c:64
20012858:	fe842503          	lw	a0,-24(s0)
2001285c:	3341                	jal	200125dc <metal_cpu_interrupt_controller>
2001285e:	87aa                	mv	a5,a0
/home/nicoladgg/wsFreedomStudio/sifive_hifive1_revb_hello/freedom-metal/src/drivers/riscv_clint0.c:65
20012860:	853e                	mv	a0,a5
20012862:	40f2                	lw	ra,28(sp)
20012864:	4462                	lw	s0,24(sp)
20012866:	6105                	addi	sp,sp,32
20012868:	8082                	ret

2001286a <__metal_driver_riscv_clint0_init>:
__metal_driver_riscv_clint0_init():
/home/nicoladgg/wsFreedomStudio/sifive_hifive1_revb_hello/freedom-metal/src/drivers/riscv_clint0.c:67
2001286a:	7139                	addi	sp,sp,-64
2001286c:	de06                	sw	ra,60(sp)
2001286e:	dc22                	sw	s0,56(sp)
20012870:	0080                	addi	s0,sp,64
20012872:	fca42623          	sw	a0,-52(s0)
/home/nicoladgg/wsFreedomStudio/sifive_hifive1_revb_hello/freedom-metal/src/drivers/riscv_clint0.c:69
20012876:	fcc42503          	lw	a0,-52(s0)
2001287a:	3bed                	jal	20012674 <__metal_driver_sifive_clint0_num_interrupts>
2001287c:	fea42423          	sw	a0,-24(s0)
/home/nicoladgg/wsFreedomStudio/sifive_hifive1_revb_hello/freedom-metal/src/drivers/riscv_clint0.c:70
20012880:	fcc42783          	lw	a5,-52(s0)
20012884:	fef42223          	sw	a5,-28(s0)
/home/nicoladgg/wsFreedomStudio/sifive_hifive1_revb_hello/freedom-metal/src/drivers/riscv_clint0.c:73
20012888:	fe442783          	lw	a5,-28(s0)
2001288c:	43dc                	lw	a5,4(a5)
2001288e:	efa9                	bnez	a5,200128e8 <__metal_driver_riscv_clint0_init+0x7e>
/home/nicoladgg/wsFreedomStudio/sifive_hifive1_revb_hello/freedom-metal/src/drivers/riscv_clint0.c:76
20012890:	fe042623          	sw	zero,-20(s0)
20012894:	a081                	j	200128d4 <__metal_driver_riscv_clint0_init+0x6a>
/home/nicoladgg/wsFreedomStudio/sifive_hifive1_revb_hello/freedom-metal/src/drivers/riscv_clint0.c:78 (discriminator 3)
20012896:	fec42583          	lw	a1,-20(s0)
2001289a:	fcc42503          	lw	a0,-52(s0)
2001289e:	3bfd                	jal	2001269c <__metal_driver_sifive_clint0_interrupt_parents>
200128a0:	fea42023          	sw	a0,-32(s0)
/home/nicoladgg/wsFreedomStudio/sifive_hifive1_revb_hello/freedom-metal/src/drivers/riscv_clint0.c:80 (discriminator 3)
200128a4:	fec42583          	lw	a1,-20(s0)
200128a8:	fcc42503          	lw	a0,-52(s0)
200128ac:	3535                	jal	200126d8 <__metal_driver_sifive_clint0_interrupt_lines>
200128ae:	fca42e23          	sw	a0,-36(s0)
/home/nicoladgg/wsFreedomStudio/sifive_hifive1_revb_hello/freedom-metal/src/drivers/riscv_clint0.c:81 (discriminator 3)
200128b2:	fe042783          	lw	a5,-32(s0)
200128b6:	439c                	lw	a5,0(a5)
200128b8:	4fdc                	lw	a5,28(a5)
200128ba:	fcc42683          	lw	a3,-52(s0)
200128be:	4601                	li	a2,0
200128c0:	fdc42583          	lw	a1,-36(s0)
200128c4:	fe042503          	lw	a0,-32(s0)
200128c8:	9782                	jalr	a5
/home/nicoladgg/wsFreedomStudio/sifive_hifive1_revb_hello/freedom-metal/src/drivers/riscv_clint0.c:76 (discriminator 3)
200128ca:	fec42783          	lw	a5,-20(s0)
200128ce:	0785                	addi	a5,a5,1
200128d0:	fef42623          	sw	a5,-20(s0)
/home/nicoladgg/wsFreedomStudio/sifive_hifive1_revb_hello/freedom-metal/src/drivers/riscv_clint0.c:76 (discriminator 1)
200128d4:	fec42703          	lw	a4,-20(s0)
200128d8:	fe842783          	lw	a5,-24(s0)
200128dc:	faf74de3          	blt	a4,a5,20012896 <__metal_driver_riscv_clint0_init+0x2c>
/home/nicoladgg/wsFreedomStudio/sifive_hifive1_revb_hello/freedom-metal/src/drivers/riscv_clint0.c:83
200128e0:	fe442783          	lw	a5,-28(s0)
200128e4:	4705                	li	a4,1
200128e6:	c3d8                	sw	a4,4(a5)
/home/nicoladgg/wsFreedomStudio/sifive_hifive1_revb_hello/freedom-metal/src/drivers/riscv_clint0.c:85
200128e8:	0001                	nop
200128ea:	50f2                	lw	ra,60(sp)
200128ec:	5462                	lw	s0,56(sp)
200128ee:	6121                	addi	sp,sp,64
200128f0:	8082                	ret

200128f2 <__metal_driver_riscv_clint0_register>:
__metal_driver_riscv_clint0_register():
/home/nicoladgg/wsFreedomStudio/sifive_hifive1_revb_hello/freedom-metal/src/drivers/riscv_clint0.c:89
200128f2:	7139                	addi	sp,sp,-64
200128f4:	de06                	sw	ra,60(sp)
200128f6:	dc22                	sw	s0,56(sp)
200128f8:	0080                	addi	s0,sp,64
200128fa:	fca42623          	sw	a0,-52(s0)
200128fe:	fcb42423          	sw	a1,-56(s0)
20012902:	fcc42223          	sw	a2,-60(s0)
20012906:	fcd42023          	sw	a3,-64(s0)
/home/nicoladgg/wsFreedomStudio/sifive_hifive1_revb_hello/freedom-metal/src/drivers/riscv_clint0.c:90
2001290a:	57fd                	li	a5,-1
2001290c:	fef42623          	sw	a5,-20(s0)
/home/nicoladgg/wsFreedomStudio/sifive_hifive1_revb_hello/freedom-metal/src/drivers/riscv_clint0.c:91
20012910:	448010ef          	jal	ra,20013d58 <__metal_controller_interrupt_vector_mode>
20012914:	fea42023          	sw	a0,-32(s0)
/home/nicoladgg/wsFreedomStudio/sifive_hifive1_revb_hello/freedom-metal/src/drivers/riscv_clint0.c:92
20012918:	fe042423          	sw	zero,-24(s0)
/home/nicoladgg/wsFreedomStudio/sifive_hifive1_revb_hello/freedom-metal/src/drivers/riscv_clint0.c:93
2001291c:	3f31                	jal	20012838 <_get_cpu_intc>
2001291e:	fca42e23          	sw	a0,-36(s0)
/home/nicoladgg/wsFreedomStudio/sifive_hifive1_revb_hello/freedom-metal/src/drivers/riscv_clint0.c:95
20012922:	fcc42503          	lw	a0,-52(s0)
20012926:	33b9                	jal	20012674 <__metal_driver_sifive_clint0_num_interrupts>
20012928:	fca42c23          	sw	a0,-40(s0)
/home/nicoladgg/wsFreedomStudio/sifive_hifive1_revb_hello/freedom-metal/src/drivers/riscv_clint0.c:97
2001292c:	fe042703          	lw	a4,-32(s0)
20012930:	4785                	li	a5,1
20012932:	00f70863          	beq	a4,a5,20012942 <__metal_driver_riscv_clint0_register+0x50>
/home/nicoladgg/wsFreedomStudio/sifive_hifive1_revb_hello/freedom-metal/src/drivers/riscv_clint0.c:97 (discriminator 1)
20012936:	fe042783          	lw	a5,-32(s0)
2001293a:	c781                	beqz	a5,20012942 <__metal_driver_riscv_clint0_register+0x50>
/home/nicoladgg/wsFreedomStudio/sifive_hifive1_revb_hello/freedom-metal/src/drivers/riscv_clint0.c:98
2001293c:	fec42783          	lw	a5,-20(s0)
20012940:	a049                	j	200129c2 <__metal_driver_riscv_clint0_register+0xd0>
/home/nicoladgg/wsFreedomStudio/sifive_hifive1_revb_hello/freedom-metal/src/drivers/riscv_clint0.c:101
20012942:	fe042223          	sw	zero,-28(s0)
20012946:	a091                	j	2001298a <__metal_driver_riscv_clint0_register+0x98>
/home/nicoladgg/wsFreedomStudio/sifive_hifive1_revb_hello/freedom-metal/src/drivers/riscv_clint0.c:102
20012948:	fe442583          	lw	a1,-28(s0)
2001294c:	fcc42503          	lw	a0,-52(s0)
20012950:	3361                	jal	200126d8 <__metal_driver_sifive_clint0_interrupt_lines>
20012952:	fca42a23          	sw	a0,-44(s0)
/home/nicoladgg/wsFreedomStudio/sifive_hifive1_revb_hello/freedom-metal/src/drivers/riscv_clint0.c:103
20012956:	fe442583          	lw	a1,-28(s0)
2001295a:	fcc42503          	lw	a0,-52(s0)
2001295e:	3b3d                	jal	2001269c <__metal_driver_sifive_clint0_interrupt_parents>
20012960:	fea42423          	sw	a0,-24(s0)
/home/nicoladgg/wsFreedomStudio/sifive_hifive1_revb_hello/freedom-metal/src/drivers/riscv_clint0.c:104
20012964:	fdc42703          	lw	a4,-36(s0)
20012968:	fe842783          	lw	a5,-24(s0)
2001296c:	00f71863          	bne	a4,a5,2001297c <__metal_driver_riscv_clint0_register+0x8a>
/home/nicoladgg/wsFreedomStudio/sifive_hifive1_revb_hello/freedom-metal/src/drivers/riscv_clint0.c:104 (discriminator 1)
20012970:	fc842703          	lw	a4,-56(s0)
20012974:	fd442783          	lw	a5,-44(s0)
20012978:	02f70063          	beq	a4,a5,20012998 <__metal_driver_riscv_clint0_register+0xa6>
/home/nicoladgg/wsFreedomStudio/sifive_hifive1_revb_hello/freedom-metal/src/drivers/riscv_clint0.c:107 (discriminator 2)
2001297c:	fe042423          	sw	zero,-24(s0)
/home/nicoladgg/wsFreedomStudio/sifive_hifive1_revb_hello/freedom-metal/src/drivers/riscv_clint0.c:101 (discriminator 2)
20012980:	fe442783          	lw	a5,-28(s0)
20012984:	0785                	addi	a5,a5,1
20012986:	fef42223          	sw	a5,-28(s0)
/home/nicoladgg/wsFreedomStudio/sifive_hifive1_revb_hello/freedom-metal/src/drivers/riscv_clint0.c:101 (discriminator 1)
2001298a:	fe442703          	lw	a4,-28(s0)
2001298e:	fd842783          	lw	a5,-40(s0)
20012992:	faf74be3          	blt	a4,a5,20012948 <__metal_driver_riscv_clint0_register+0x56>
20012996:	a011                	j	2001299a <__metal_driver_riscv_clint0_register+0xa8>
/home/nicoladgg/wsFreedomStudio/sifive_hifive1_revb_hello/freedom-metal/src/drivers/riscv_clint0.c:105
20012998:	0001                	nop
/home/nicoladgg/wsFreedomStudio/sifive_hifive1_revb_hello/freedom-metal/src/drivers/riscv_clint0.c:111
2001299a:	fe842783          	lw	a5,-24(s0)
2001299e:	c385                	beqz	a5,200129be <__metal_driver_riscv_clint0_register+0xcc>
/home/nicoladgg/wsFreedomStudio/sifive_hifive1_revb_hello/freedom-metal/src/drivers/riscv_clint0.c:112
200129a0:	fe842783          	lw	a5,-24(s0)
200129a4:	439c                	lw	a5,0(a5)
200129a6:	4fdc                	lw	a5,28(a5)
200129a8:	fc042683          	lw	a3,-64(s0)
200129ac:	fc442603          	lw	a2,-60(s0)
200129b0:	fc842583          	lw	a1,-56(s0)
200129b4:	fe842503          	lw	a0,-24(s0)
200129b8:	9782                	jalr	a5
200129ba:	fea42623          	sw	a0,-20(s0)
/home/nicoladgg/wsFreedomStudio/sifive_hifive1_revb_hello/freedom-metal/src/drivers/riscv_clint0.c:114
200129be:	fec42783          	lw	a5,-20(s0)
/home/nicoladgg/wsFreedomStudio/sifive_hifive1_revb_hello/freedom-metal/src/drivers/riscv_clint0.c:115
200129c2:	853e                	mv	a0,a5
200129c4:	50f2                	lw	ra,60(sp)
200129c6:	5462                	lw	s0,56(sp)
200129c8:	6121                	addi	sp,sp,64
200129ca:	8082                	ret

200129cc <__metal_driver_riscv_clint0_vector_register>:
__metal_driver_riscv_clint0_vector_register():
/home/nicoladgg/wsFreedomStudio/sifive_hifive1_revb_hello/freedom-metal/src/drivers/riscv_clint0.c:119
200129cc:	7179                	addi	sp,sp,-48
200129ce:	d622                	sw	s0,44(sp)
200129d0:	1800                	addi	s0,sp,48
200129d2:	fca42e23          	sw	a0,-36(s0)
200129d6:	fcb42c23          	sw	a1,-40(s0)
200129da:	fcc42a23          	sw	a2,-44(s0)
200129de:	fcd42823          	sw	a3,-48(s0)
/home/nicoladgg/wsFreedomStudio/sifive_hifive1_revb_hello/freedom-metal/src/drivers/riscv_clint0.c:121
200129e2:	57fd                	li	a5,-1
200129e4:	fef42623          	sw	a5,-20(s0)
/home/nicoladgg/wsFreedomStudio/sifive_hifive1_revb_hello/freedom-metal/src/drivers/riscv_clint0.c:122
200129e8:	fec42783          	lw	a5,-20(s0)
/home/nicoladgg/wsFreedomStudio/sifive_hifive1_revb_hello/freedom-metal/src/drivers/riscv_clint0.c:123
200129ec:	853e                	mv	a0,a5
200129ee:	5432                	lw	s0,44(sp)
200129f0:	6145                	addi	sp,sp,48
200129f2:	8082                	ret

200129f4 <__metal_driver_riscv_clint0_get_vector_mode>:
__metal_driver_riscv_clint0_get_vector_mode():
/home/nicoladgg/wsFreedomStudio/sifive_hifive1_revb_hello/freedom-metal/src/drivers/riscv_clint0.c:126
200129f4:	1101                	addi	sp,sp,-32
200129f6:	ce06                	sw	ra,28(sp)
200129f8:	cc22                	sw	s0,24(sp)
200129fa:	1000                	addi	s0,sp,32
200129fc:	fea42623          	sw	a0,-20(s0)
/home/nicoladgg/wsFreedomStudio/sifive_hifive1_revb_hello/freedom-metal/src/drivers/riscv_clint0.c:127
20012a00:	358010ef          	jal	ra,20013d58 <__metal_controller_interrupt_vector_mode>
20012a04:	87aa                	mv	a5,a0
/home/nicoladgg/wsFreedomStudio/sifive_hifive1_revb_hello/freedom-metal/src/drivers/riscv_clint0.c:128
20012a06:	853e                	mv	a0,a5
20012a08:	40f2                	lw	ra,28(sp)
20012a0a:	4462                	lw	s0,24(sp)
20012a0c:	6105                	addi	sp,sp,32
20012a0e:	8082                	ret

20012a10 <__metal_driver_riscv_clint0_set_vector_mode>:
__metal_driver_riscv_clint0_set_vector_mode():
/home/nicoladgg/wsFreedomStudio/sifive_hifive1_revb_hello/freedom-metal/src/drivers/riscv_clint0.c:131
20012a10:	7179                	addi	sp,sp,-48
20012a12:	d606                	sw	ra,44(sp)
20012a14:	d422                	sw	s0,40(sp)
20012a16:	1800                	addi	s0,sp,48
20012a18:	fca42e23          	sw	a0,-36(s0)
20012a1c:	fcb42c23          	sw	a1,-40(s0)
/home/nicoladgg/wsFreedomStudio/sifive_hifive1_revb_hello/freedom-metal/src/drivers/riscv_clint0.c:132
20012a20:	57fd                	li	a5,-1
20012a22:	fef42623          	sw	a5,-20(s0)
/home/nicoladgg/wsFreedomStudio/sifive_hifive1_revb_hello/freedom-metal/src/drivers/riscv_clint0.c:133
20012a26:	3d09                	jal	20012838 <_get_cpu_intc>
20012a28:	fea42423          	sw	a0,-24(s0)
/home/nicoladgg/wsFreedomStudio/sifive_hifive1_revb_hello/freedom-metal/src/drivers/riscv_clint0.c:135
20012a2c:	fe842783          	lw	a5,-24(s0)
20012a30:	c395                	beqz	a5,20012a54 <__metal_driver_riscv_clint0_set_vector_mode+0x44>
/home/nicoladgg/wsFreedomStudio/sifive_hifive1_revb_hello/freedom-metal/src/drivers/riscv_clint0.c:138
20012a32:	fd842703          	lw	a4,-40(s0)
20012a36:	4785                	li	a5,1
20012a38:	02e7e063          	bltu	a5,a4,20012a58 <__metal_driver_riscv_clint0_set_vector_mode+0x48>
/home/nicoladgg/wsFreedomStudio/sifive_hifive1_revb_hello/freedom-metal/src/drivers/riscv_clint0.c:141
20012a3c:	fe842783          	lw	a5,-24(s0)
20012a40:	439c                	lw	a5,0(a5)
20012a42:	43dc                	lw	a5,4(a5)
20012a44:	fd842583          	lw	a1,-40(s0)
20012a48:	fe842503          	lw	a0,-24(s0)
20012a4c:	9782                	jalr	a5
20012a4e:	fea42623          	sw	a0,-20(s0)
/home/nicoladgg/wsFreedomStudio/sifive_hifive1_revb_hello/freedom-metal/src/drivers/riscv_clint0.c:142
20012a52:	a021                	j	20012a5a <__metal_driver_riscv_clint0_set_vector_mode+0x4a>
/home/nicoladgg/wsFreedomStudio/sifive_hifive1_revb_hello/freedom-metal/src/drivers/riscv_clint0.c:146
20012a54:	0001                	nop
20012a56:	a011                	j	20012a5a <__metal_driver_riscv_clint0_set_vector_mode+0x4a>
/home/nicoladgg/wsFreedomStudio/sifive_hifive1_revb_hello/freedom-metal/src/drivers/riscv_clint0.c:144
20012a58:	0001                	nop
/home/nicoladgg/wsFreedomStudio/sifive_hifive1_revb_hello/freedom-metal/src/drivers/riscv_clint0.c:147
20012a5a:	fec42783          	lw	a5,-20(s0)
/home/nicoladgg/wsFreedomStudio/sifive_hifive1_revb_hello/freedom-metal/src/drivers/riscv_clint0.c:148
20012a5e:	853e                	mv	a0,a5
20012a60:	50b2                	lw	ra,44(sp)
20012a62:	5422                	lw	s0,40(sp)
20012a64:	6145                	addi	sp,sp,48
20012a66:	8082                	ret

20012a68 <__metal_driver_riscv_clint0_enable>:
__metal_driver_riscv_clint0_enable():
/home/nicoladgg/wsFreedomStudio/sifive_hifive1_revb_hello/freedom-metal/src/drivers/riscv_clint0.c:151
20012a68:	7139                	addi	sp,sp,-64
20012a6a:	de06                	sw	ra,60(sp)
20012a6c:	dc22                	sw	s0,56(sp)
20012a6e:	0080                	addi	s0,sp,64
20012a70:	fca42623          	sw	a0,-52(s0)
20012a74:	fcb42423          	sw	a1,-56(s0)
/home/nicoladgg/wsFreedomStudio/sifive_hifive1_revb_hello/freedom-metal/src/drivers/riscv_clint0.c:152
20012a78:	57fd                	li	a5,-1
20012a7a:	fef42623          	sw	a5,-20(s0)
/home/nicoladgg/wsFreedomStudio/sifive_hifive1_revb_hello/freedom-metal/src/drivers/riscv_clint0.c:154
20012a7e:	fc842783          	lw	a5,-56(s0)
20012a82:	c7c9                	beqz	a5,20012b0c <__metal_driver_riscv_clint0_enable+0xa4>
/home/nicoladgg/wsFreedomStudio/sifive_hifive1_revb_hello/freedom-metal/src/drivers/riscv_clint0.c:155
20012a84:	fe042423          	sw	zero,-24(s0)
/home/nicoladgg/wsFreedomStudio/sifive_hifive1_revb_hello/freedom-metal/src/drivers/riscv_clint0.c:156
20012a88:	3b45                	jal	20012838 <_get_cpu_intc>
20012a8a:	fea42023          	sw	a0,-32(s0)
/home/nicoladgg/wsFreedomStudio/sifive_hifive1_revb_hello/freedom-metal/src/drivers/riscv_clint0.c:158
20012a8e:	fcc42503          	lw	a0,-52(s0)
20012a92:	36cd                	jal	20012674 <__metal_driver_sifive_clint0_num_interrupts>
20012a94:	fca42e23          	sw	a0,-36(s0)
/home/nicoladgg/wsFreedomStudio/sifive_hifive1_revb_hello/freedom-metal/src/drivers/riscv_clint0.c:160
20012a98:	fe042223          	sw	zero,-28(s0)
20012a9c:	a091                	j	20012ae0 <__metal_driver_riscv_clint0_enable+0x78>
/home/nicoladgg/wsFreedomStudio/sifive_hifive1_revb_hello/freedom-metal/src/drivers/riscv_clint0.c:162
20012a9e:	fe442583          	lw	a1,-28(s0)
20012aa2:	fcc42503          	lw	a0,-52(s0)
20012aa6:	390d                	jal	200126d8 <__metal_driver_sifive_clint0_interrupt_lines>
20012aa8:	fca42c23          	sw	a0,-40(s0)
/home/nicoladgg/wsFreedomStudio/sifive_hifive1_revb_hello/freedom-metal/src/drivers/riscv_clint0.c:164
20012aac:	fe442583          	lw	a1,-28(s0)
20012ab0:	fcc42503          	lw	a0,-52(s0)
20012ab4:	36e5                	jal	2001269c <__metal_driver_sifive_clint0_interrupt_parents>
20012ab6:	fea42423          	sw	a0,-24(s0)
/home/nicoladgg/wsFreedomStudio/sifive_hifive1_revb_hello/freedom-metal/src/drivers/riscv_clint0.c:165
20012aba:	fe042703          	lw	a4,-32(s0)
20012abe:	fe842783          	lw	a5,-24(s0)
20012ac2:	00f71863          	bne	a4,a5,20012ad2 <__metal_driver_riscv_clint0_enable+0x6a>
/home/nicoladgg/wsFreedomStudio/sifive_hifive1_revb_hello/freedom-metal/src/drivers/riscv_clint0.c:165 (discriminator 1)
20012ac6:	fc842703          	lw	a4,-56(s0)
20012aca:	fd842783          	lw	a5,-40(s0)
20012ace:	02f70063          	beq	a4,a5,20012aee <__metal_driver_riscv_clint0_enable+0x86>
/home/nicoladgg/wsFreedomStudio/sifive_hifive1_revb_hello/freedom-metal/src/drivers/riscv_clint0.c:168 (discriminator 2)
20012ad2:	fe042423          	sw	zero,-24(s0)
/home/nicoladgg/wsFreedomStudio/sifive_hifive1_revb_hello/freedom-metal/src/drivers/riscv_clint0.c:160 (discriminator 2)
20012ad6:	fe442783          	lw	a5,-28(s0)
20012ada:	0785                	addi	a5,a5,1
20012adc:	fef42223          	sw	a5,-28(s0)
/home/nicoladgg/wsFreedomStudio/sifive_hifive1_revb_hello/freedom-metal/src/drivers/riscv_clint0.c:160 (discriminator 1)
20012ae0:	fe442703          	lw	a4,-28(s0)
20012ae4:	fdc42783          	lw	a5,-36(s0)
20012ae8:	faf74be3          	blt	a4,a5,20012a9e <__metal_driver_riscv_clint0_enable+0x36>
20012aec:	a011                	j	20012af0 <__metal_driver_riscv_clint0_enable+0x88>
/home/nicoladgg/wsFreedomStudio/sifive_hifive1_revb_hello/freedom-metal/src/drivers/riscv_clint0.c:166
20012aee:	0001                	nop
/home/nicoladgg/wsFreedomStudio/sifive_hifive1_revb_hello/freedom-metal/src/drivers/riscv_clint0.c:172
20012af0:	fe842783          	lw	a5,-24(s0)
20012af4:	cf81                	beqz	a5,20012b0c <__metal_driver_riscv_clint0_enable+0xa4>
/home/nicoladgg/wsFreedomStudio/sifive_hifive1_revb_hello/freedom-metal/src/drivers/riscv_clint0.c:173
20012af6:	fe842783          	lw	a5,-24(s0)
20012afa:	439c                	lw	a5,0(a5)
20012afc:	53dc                	lw	a5,36(a5)
20012afe:	fc842583          	lw	a1,-56(s0)
20012b02:	fe842503          	lw	a0,-24(s0)
20012b06:	9782                	jalr	a5
20012b08:	fea42623          	sw	a0,-20(s0)
/home/nicoladgg/wsFreedomStudio/sifive_hifive1_revb_hello/freedom-metal/src/drivers/riscv_clint0.c:177
20012b0c:	fec42783          	lw	a5,-20(s0)
/home/nicoladgg/wsFreedomStudio/sifive_hifive1_revb_hello/freedom-metal/src/drivers/riscv_clint0.c:178
20012b10:	853e                	mv	a0,a5
20012b12:	50f2                	lw	ra,60(sp)
20012b14:	5462                	lw	s0,56(sp)
20012b16:	6121                	addi	sp,sp,64
20012b18:	8082                	ret

20012b1a <__metal_driver_riscv_clint0_disable>:
__metal_driver_riscv_clint0_disable():
/home/nicoladgg/wsFreedomStudio/sifive_hifive1_revb_hello/freedom-metal/src/drivers/riscv_clint0.c:181
20012b1a:	7139                	addi	sp,sp,-64
20012b1c:	de06                	sw	ra,60(sp)
20012b1e:	dc22                	sw	s0,56(sp)
20012b20:	0080                	addi	s0,sp,64
20012b22:	fca42623          	sw	a0,-52(s0)
20012b26:	fcb42423          	sw	a1,-56(s0)
/home/nicoladgg/wsFreedomStudio/sifive_hifive1_revb_hello/freedom-metal/src/drivers/riscv_clint0.c:182
20012b2a:	57fd                	li	a5,-1
20012b2c:	fef42623          	sw	a5,-20(s0)
/home/nicoladgg/wsFreedomStudio/sifive_hifive1_revb_hello/freedom-metal/src/drivers/riscv_clint0.c:184
20012b30:	fc842783          	lw	a5,-56(s0)
20012b34:	c7c9                	beqz	a5,20012bbe <__metal_driver_riscv_clint0_disable+0xa4>
/home/nicoladgg/wsFreedomStudio/sifive_hifive1_revb_hello/freedom-metal/src/drivers/riscv_clint0.c:185
20012b36:	fe042423          	sw	zero,-24(s0)
/home/nicoladgg/wsFreedomStudio/sifive_hifive1_revb_hello/freedom-metal/src/drivers/riscv_clint0.c:186
20012b3a:	39fd                	jal	20012838 <_get_cpu_intc>
20012b3c:	fea42023          	sw	a0,-32(s0)
/home/nicoladgg/wsFreedomStudio/sifive_hifive1_revb_hello/freedom-metal/src/drivers/riscv_clint0.c:188
20012b40:	fcc42503          	lw	a0,-52(s0)
20012b44:	3e05                	jal	20012674 <__metal_driver_sifive_clint0_num_interrupts>
20012b46:	fca42e23          	sw	a0,-36(s0)
/home/nicoladgg/wsFreedomStudio/sifive_hifive1_revb_hello/freedom-metal/src/drivers/riscv_clint0.c:190
20012b4a:	fe042223          	sw	zero,-28(s0)
20012b4e:	a091                	j	20012b92 <__metal_driver_riscv_clint0_disable+0x78>
/home/nicoladgg/wsFreedomStudio/sifive_hifive1_revb_hello/freedom-metal/src/drivers/riscv_clint0.c:192
20012b50:	fe442583          	lw	a1,-28(s0)
20012b54:	fcc42503          	lw	a0,-52(s0)
20012b58:	3641                	jal	200126d8 <__metal_driver_sifive_clint0_interrupt_lines>
20012b5a:	fca42c23          	sw	a0,-40(s0)
/home/nicoladgg/wsFreedomStudio/sifive_hifive1_revb_hello/freedom-metal/src/drivers/riscv_clint0.c:194
20012b5e:	fe442583          	lw	a1,-28(s0)
20012b62:	fcc42503          	lw	a0,-52(s0)
20012b66:	3e1d                	jal	2001269c <__metal_driver_sifive_clint0_interrupt_parents>
20012b68:	fea42423          	sw	a0,-24(s0)
/home/nicoladgg/wsFreedomStudio/sifive_hifive1_revb_hello/freedom-metal/src/drivers/riscv_clint0.c:195
20012b6c:	fe042703          	lw	a4,-32(s0)
20012b70:	fe842783          	lw	a5,-24(s0)
20012b74:	00f71863          	bne	a4,a5,20012b84 <__metal_driver_riscv_clint0_disable+0x6a>
/home/nicoladgg/wsFreedomStudio/sifive_hifive1_revb_hello/freedom-metal/src/drivers/riscv_clint0.c:195 (discriminator 1)
20012b78:	fc842703          	lw	a4,-56(s0)
20012b7c:	fd842783          	lw	a5,-40(s0)
20012b80:	02f70063          	beq	a4,a5,20012ba0 <__metal_driver_riscv_clint0_disable+0x86>
/home/nicoladgg/wsFreedomStudio/sifive_hifive1_revb_hello/freedom-metal/src/drivers/riscv_clint0.c:198 (discriminator 2)
20012b84:	fe042423          	sw	zero,-24(s0)
/home/nicoladgg/wsFreedomStudio/sifive_hifive1_revb_hello/freedom-metal/src/drivers/riscv_clint0.c:190 (discriminator 2)
20012b88:	fe442783          	lw	a5,-28(s0)
20012b8c:	0785                	addi	a5,a5,1
20012b8e:	fef42223          	sw	a5,-28(s0)
/home/nicoladgg/wsFreedomStudio/sifive_hifive1_revb_hello/freedom-metal/src/drivers/riscv_clint0.c:190 (discriminator 1)
20012b92:	fe442703          	lw	a4,-28(s0)
20012b96:	fdc42783          	lw	a5,-36(s0)
20012b9a:	faf74be3          	blt	a4,a5,20012b50 <__metal_driver_riscv_clint0_disable+0x36>
20012b9e:	a011                	j	20012ba2 <__metal_driver_riscv_clint0_disable+0x88>
/home/nicoladgg/wsFreedomStudio/sifive_hifive1_revb_hello/freedom-metal/src/drivers/riscv_clint0.c:196
20012ba0:	0001                	nop
/home/nicoladgg/wsFreedomStudio/sifive_hifive1_revb_hello/freedom-metal/src/drivers/riscv_clint0.c:202
20012ba2:	fe842783          	lw	a5,-24(s0)
20012ba6:	cf81                	beqz	a5,20012bbe <__metal_driver_riscv_clint0_disable+0xa4>
/home/nicoladgg/wsFreedomStudio/sifive_hifive1_revb_hello/freedom-metal/src/drivers/riscv_clint0.c:203
20012ba8:	fe842783          	lw	a5,-24(s0)
20012bac:	439c                	lw	a5,0(a5)
20012bae:	579c                	lw	a5,40(a5)
20012bb0:	fc842583          	lw	a1,-56(s0)
20012bb4:	fe842503          	lw	a0,-24(s0)
20012bb8:	9782                	jalr	a5
20012bba:	fea42623          	sw	a0,-20(s0)
/home/nicoladgg/wsFreedomStudio/sifive_hifive1_revb_hello/freedom-metal/src/drivers/riscv_clint0.c:207
20012bbe:	fec42783          	lw	a5,-20(s0)
/home/nicoladgg/wsFreedomStudio/sifive_hifive1_revb_hello/freedom-metal/src/drivers/riscv_clint0.c:208
20012bc2:	853e                	mv	a0,a5
20012bc4:	50f2                	lw	ra,60(sp)
20012bc6:	5462                	lw	s0,56(sp)
20012bc8:	6121                	addi	sp,sp,64
20012bca:	8082                	ret

20012bcc <__metal_driver_riscv_clint0_command_request>:
__metal_driver_riscv_clint0_command_request():
/home/nicoladgg/wsFreedomStudio/sifive_hifive1_revb_hello/freedom-metal/src/drivers/riscv_clint0.c:211
20012bcc:	7179                	addi	sp,sp,-48
20012bce:	d606                	sw	ra,44(sp)
20012bd0:	d422                	sw	s0,40(sp)
20012bd2:	1800                	addi	s0,sp,48
20012bd4:	fca42e23          	sw	a0,-36(s0)
20012bd8:	fcb42c23          	sw	a1,-40(s0)
20012bdc:	fcc42a23          	sw	a2,-44(s0)
/home/nicoladgg/wsFreedomStudio/sifive_hifive1_revb_hello/freedom-metal/src/drivers/riscv_clint0.c:213
20012be0:	57fd                	li	a5,-1
20012be2:	fef42623          	sw	a5,-20(s0)
/home/nicoladgg/wsFreedomStudio/sifive_hifive1_revb_hello/freedom-metal/src/drivers/riscv_clint0.c:214
20012be6:	fdc42783          	lw	a5,-36(s0)
20012bea:	fef42423          	sw	a5,-24(s0)
/home/nicoladgg/wsFreedomStudio/sifive_hifive1_revb_hello/freedom-metal/src/drivers/riscv_clint0.c:217
20012bee:	fdc42503          	lw	a0,-36(s0)
20012bf2:	a59ff0ef          	jal	ra,2001264a <__metal_driver_sifive_clint0_control_base>
20012bf6:	fea42223          	sw	a0,-28(s0)
/home/nicoladgg/wsFreedomStudio/sifive_hifive1_revb_hello/freedom-metal/src/drivers/riscv_clint0.c:219
20012bfa:	fd842703          	lw	a4,-40(s0)
20012bfe:	4791                	li	a5,4
20012c00:	0cf70063          	beq	a4,a5,20012cc0 <__metal_driver_riscv_clint0_command_request+0xf4>
20012c04:	fd842703          	lw	a4,-40(s0)
20012c08:	4791                	li	a5,4
20012c0a:	0ee7c063          	blt	a5,a4,20012cea <__metal_driver_riscv_clint0_command_request+0x11e>
20012c0e:	fd842703          	lw	a4,-40(s0)
20012c12:	478d                	li	a5,3
20012c14:	06f70563          	beq	a4,a5,20012c7e <__metal_driver_riscv_clint0_command_request+0xb2>
20012c18:	fd842703          	lw	a4,-40(s0)
20012c1c:	478d                	li	a5,3
20012c1e:	0ce7c663          	blt	a5,a4,20012cea <__metal_driver_riscv_clint0_command_request+0x11e>
20012c22:	fd842703          	lw	a4,-40(s0)
20012c26:	4785                	li	a5,1
20012c28:	00f70863          	beq	a4,a5,20012c38 <__metal_driver_riscv_clint0_command_request+0x6c>
20012c2c:	fd842703          	lw	a4,-40(s0)
20012c30:	4789                	li	a5,2
20012c32:	02f70263          	beq	a4,a5,20012c56 <__metal_driver_riscv_clint0_command_request+0x8a>
/home/nicoladgg/wsFreedomStudio/sifive_hifive1_revb_hello/freedom-metal/src/drivers/riscv_clint0.c:263
20012c36:	a855                	j	20012cea <__metal_driver_riscv_clint0_command_request+0x11e>
/home/nicoladgg/wsFreedomStudio/sifive_hifive1_revb_hello/freedom-metal/src/drivers/riscv_clint0.c:221
20012c38:	fd442783          	lw	a5,-44(s0)
20012c3c:	cbcd                	beqz	a5,20012cee <__metal_driver_riscv_clint0_command_request+0x122>
/home/nicoladgg/wsFreedomStudio/sifive_hifive1_revb_hello/freedom-metal/src/drivers/riscv_clint0.c:222
20012c3e:	fe842503          	lw	a0,-24(s0)
20012c42:	34d9                	jal	20012708 <__metal_clint0_mtime_get>
20012c44:	872a                	mv	a4,a0
20012c46:	87ae                	mv	a5,a1
20012c48:	fd442683          	lw	a3,-44(s0)
20012c4c:	c298                	sw	a4,0(a3)
20012c4e:	c2dc                	sw	a5,4(a3)
/home/nicoladgg/wsFreedomStudio/sifive_hifive1_revb_hello/freedom-metal/src/drivers/riscv_clint0.c:223
20012c50:	fe042623          	sw	zero,-20(s0)
/home/nicoladgg/wsFreedomStudio/sifive_hifive1_revb_hello/freedom-metal/src/drivers/riscv_clint0.c:225
20012c54:	a869                	j	20012cee <__metal_driver_riscv_clint0_command_request+0x122>
/home/nicoladgg/wsFreedomStudio/sifive_hifive1_revb_hello/freedom-metal/src/drivers/riscv_clint0.c:227
20012c56:	fd442783          	lw	a5,-44(s0)
20012c5a:	cfc1                	beqz	a5,20012cf2 <__metal_driver_riscv_clint0_command_request+0x126>
/home/nicoladgg/wsFreedomStudio/sifive_hifive1_revb_hello/freedom-metal/src/drivers/riscv_clint0.c:228
20012c5c:	fd442783          	lw	a5,-44(s0)
20012c60:	439c                	lw	a5,0(a5)
20012c62:	fef42023          	sw	a5,-32(s0)
/home/nicoladgg/wsFreedomStudio/sifive_hifive1_revb_hello/freedom-metal/src/drivers/riscv_clint0.c:229
20012c66:	fe042783          	lw	a5,-32(s0)
20012c6a:	078a                	slli	a5,a5,0x2
20012c6c:	873e                	mv	a4,a5
20012c6e:	fe442783          	lw	a5,-28(s0)
20012c72:	97ba                	add	a5,a5,a4
/home/nicoladgg/wsFreedomStudio/sifive_hifive1_revb_hello/freedom-metal/src/drivers/riscv_clint0.c:230
20012c74:	0007a023          	sw	zero,0(a5) # 4000 <__heap_size+0x3800>
/home/nicoladgg/wsFreedomStudio/sifive_hifive1_revb_hello/freedom-metal/src/drivers/riscv_clint0.c:231
20012c78:	fe042623          	sw	zero,-20(s0)
/home/nicoladgg/wsFreedomStudio/sifive_hifive1_revb_hello/freedom-metal/src/drivers/riscv_clint0.c:233
20012c7c:	a89d                	j	20012cf2 <__metal_driver_riscv_clint0_command_request+0x126>
/home/nicoladgg/wsFreedomStudio/sifive_hifive1_revb_hello/freedom-metal/src/drivers/riscv_clint0.c:235
20012c7e:	fd442783          	lw	a5,-44(s0)
20012c82:	cbb5                	beqz	a5,20012cf6 <__metal_driver_riscv_clint0_command_request+0x12a>
/home/nicoladgg/wsFreedomStudio/sifive_hifive1_revb_hello/freedom-metal/src/drivers/riscv_clint0.c:236
20012c84:	fd442783          	lw	a5,-44(s0)
20012c88:	439c                	lw	a5,0(a5)
20012c8a:	fef42023          	sw	a5,-32(s0)
/home/nicoladgg/wsFreedomStudio/sifive_hifive1_revb_hello/freedom-metal/src/drivers/riscv_clint0.c:237
20012c8e:	fe042783          	lw	a5,-32(s0)
20012c92:	078a                	slli	a5,a5,0x2
20012c94:	873e                	mv	a4,a5
20012c96:	fe442783          	lw	a5,-28(s0)
20012c9a:	97ba                	add	a5,a5,a4
20012c9c:	873e                	mv	a4,a5
/home/nicoladgg/wsFreedomStudio/sifive_hifive1_revb_hello/freedom-metal/src/drivers/riscv_clint0.c:238
20012c9e:	4785                	li	a5,1
20012ca0:	c31c                	sw	a5,0(a4)
/home/nicoladgg/wsFreedomStudio/sifive_hifive1_revb_hello/freedom-metal/src/drivers/riscv_clint0.c:248
20012ca2:	0480000f          	fence	o,i
/home/nicoladgg/wsFreedomStudio/sifive_hifive1_revb_hello/freedom-metal/src/drivers/riscv_clint0.c:249
20012ca6:	fe042783          	lw	a5,-32(s0)
20012caa:	078a                	slli	a5,a5,0x2
20012cac:	873e                	mv	a4,a5
20012cae:	fe442783          	lw	a5,-28(s0)
20012cb2:	97ba                	add	a5,a5,a4
20012cb4:	439c                	lw	a5,0(a5)
20012cb6:	fef42623          	sw	a5,-20(s0)
/home/nicoladgg/wsFreedomStudio/sifive_hifive1_revb_hello/freedom-metal/src/drivers/riscv_clint0.c:251
20012cba:	fe042623          	sw	zero,-20(s0)
/home/nicoladgg/wsFreedomStudio/sifive_hifive1_revb_hello/freedom-metal/src/drivers/riscv_clint0.c:253
20012cbe:	a825                	j	20012cf6 <__metal_driver_riscv_clint0_command_request+0x12a>
/home/nicoladgg/wsFreedomStudio/sifive_hifive1_revb_hello/freedom-metal/src/drivers/riscv_clint0.c:255
20012cc0:	fe042623          	sw	zero,-20(s0)
/home/nicoladgg/wsFreedomStudio/sifive_hifive1_revb_hello/freedom-metal/src/drivers/riscv_clint0.c:256
20012cc4:	fd442783          	lw	a5,-44(s0)
20012cc8:	cb8d                	beqz	a5,20012cfa <__metal_driver_riscv_clint0_command_request+0x12e>
/home/nicoladgg/wsFreedomStudio/sifive_hifive1_revb_hello/freedom-metal/src/drivers/riscv_clint0.c:257
20012cca:	fd442783          	lw	a5,-44(s0)
20012cce:	439c                	lw	a5,0(a5)
20012cd0:	fef42023          	sw	a5,-32(s0)
/home/nicoladgg/wsFreedomStudio/sifive_hifive1_revb_hello/freedom-metal/src/drivers/riscv_clint0.c:258
20012cd4:	fe042783          	lw	a5,-32(s0)
20012cd8:	078a                	slli	a5,a5,0x2
20012cda:	873e                	mv	a4,a5
20012cdc:	fe442783          	lw	a5,-28(s0)
20012ce0:	97ba                	add	a5,a5,a4
20012ce2:	439c                	lw	a5,0(a5)
20012ce4:	fef42623          	sw	a5,-20(s0)
/home/nicoladgg/wsFreedomStudio/sifive_hifive1_revb_hello/freedom-metal/src/drivers/riscv_clint0.c:261
20012ce8:	a809                	j	20012cfa <__metal_driver_riscv_clint0_command_request+0x12e>
/home/nicoladgg/wsFreedomStudio/sifive_hifive1_revb_hello/freedom-metal/src/drivers/riscv_clint0.c:263
20012cea:	0001                	nop
20012cec:	a801                	j	20012cfc <__metal_driver_riscv_clint0_command_request+0x130>
/home/nicoladgg/wsFreedomStudio/sifive_hifive1_revb_hello/freedom-metal/src/drivers/riscv_clint0.c:225
20012cee:	0001                	nop
20012cf0:	a031                	j	20012cfc <__metal_driver_riscv_clint0_command_request+0x130>
/home/nicoladgg/wsFreedomStudio/sifive_hifive1_revb_hello/freedom-metal/src/drivers/riscv_clint0.c:233
20012cf2:	0001                	nop
20012cf4:	a021                	j	20012cfc <__metal_driver_riscv_clint0_command_request+0x130>
/home/nicoladgg/wsFreedomStudio/sifive_hifive1_revb_hello/freedom-metal/src/drivers/riscv_clint0.c:253
20012cf6:	0001                	nop
20012cf8:	a011                	j	20012cfc <__metal_driver_riscv_clint0_command_request+0x130>
/home/nicoladgg/wsFreedomStudio/sifive_hifive1_revb_hello/freedom-metal/src/drivers/riscv_clint0.c:261
20012cfa:	0001                	nop
/home/nicoladgg/wsFreedomStudio/sifive_hifive1_revb_hello/freedom-metal/src/drivers/riscv_clint0.c:266
20012cfc:	fec42783          	lw	a5,-20(s0)
/home/nicoladgg/wsFreedomStudio/sifive_hifive1_revb_hello/freedom-metal/src/drivers/riscv_clint0.c:267
20012d00:	853e                	mv	a0,a5
20012d02:	50b2                	lw	ra,44(sp)
20012d04:	5422                	lw	s0,40(sp)
20012d06:	6145                	addi	sp,sp,48
20012d08:	8082                	ret

20012d0a <__metal_driver_riscv_clint0_clear_interrupt>:
__metal_driver_riscv_clint0_clear_interrupt():
/home/nicoladgg/wsFreedomStudio/sifive_hifive1_revb_hello/freedom-metal/src/drivers/riscv_clint0.c:270
20012d0a:	7179                	addi	sp,sp,-48
20012d0c:	d606                	sw	ra,44(sp)
20012d0e:	d422                	sw	s0,40(sp)
20012d10:	1800                	addi	s0,sp,48
20012d12:	fca42e23          	sw	a0,-36(s0)
20012d16:	fcb42c23          	sw	a1,-40(s0)
/home/nicoladgg/wsFreedomStudio/sifive_hifive1_revb_hello/freedom-metal/src/drivers/riscv_clint0.c:271
20012d1a:	917ff0ef          	jal	ra,20012630 <metal_cpu_get_current_hartid>
20012d1e:	87aa                	mv	a5,a0
20012d20:	fef42623          	sw	a5,-20(s0)
/home/nicoladgg/wsFreedomStudio/sifive_hifive1_revb_hello/freedom-metal/src/drivers/riscv_clint0.c:272
20012d24:	fec40793          	addi	a5,s0,-20
20012d28:	863e                	mv	a2,a5
20012d2a:	4589                	li	a1,2
20012d2c:	fdc42503          	lw	a0,-36(s0)
20012d30:	3d71                	jal	20012bcc <__metal_driver_riscv_clint0_command_request>
20012d32:	87aa                	mv	a5,a0
/home/nicoladgg/wsFreedomStudio/sifive_hifive1_revb_hello/freedom-metal/src/drivers/riscv_clint0.c:274
20012d34:	853e                	mv	a0,a5
20012d36:	50b2                	lw	ra,44(sp)
20012d38:	5422                	lw	s0,40(sp)
20012d3a:	6145                	addi	sp,sp,48
20012d3c:	8082                	ret

20012d3e <__metal_driver_riscv_clint0_set_interrupt>:
__metal_driver_riscv_clint0_set_interrupt():
/home/nicoladgg/wsFreedomStudio/sifive_hifive1_revb_hello/freedom-metal/src/drivers/riscv_clint0.c:277
20012d3e:	7179                	addi	sp,sp,-48
20012d40:	d606                	sw	ra,44(sp)
20012d42:	d422                	sw	s0,40(sp)
20012d44:	1800                	addi	s0,sp,48
20012d46:	fca42e23          	sw	a0,-36(s0)
20012d4a:	fcb42c23          	sw	a1,-40(s0)
/home/nicoladgg/wsFreedomStudio/sifive_hifive1_revb_hello/freedom-metal/src/drivers/riscv_clint0.c:278
20012d4e:	8e3ff0ef          	jal	ra,20012630 <metal_cpu_get_current_hartid>
20012d52:	87aa                	mv	a5,a0
20012d54:	fef42623          	sw	a5,-20(s0)
/home/nicoladgg/wsFreedomStudio/sifive_hifive1_revb_hello/freedom-metal/src/drivers/riscv_clint0.c:279
20012d58:	fec40793          	addi	a5,s0,-20
20012d5c:	863e                	mv	a2,a5
20012d5e:	458d                	li	a1,3
20012d60:	fdc42503          	lw	a0,-36(s0)
20012d64:	35a5                	jal	20012bcc <__metal_driver_riscv_clint0_command_request>
20012d66:	87aa                	mv	a5,a0
/home/nicoladgg/wsFreedomStudio/sifive_hifive1_revb_hello/freedom-metal/src/drivers/riscv_clint0.c:281
20012d68:	853e                	mv	a0,a5
20012d6a:	50b2                	lw	ra,44(sp)
20012d6c:	5422                	lw	s0,40(sp)
20012d6e:	6145                	addi	sp,sp,48
20012d70:	8082                	ret

20012d72 <__metal_driver_cpu_hartid>:
__metal_driver_cpu_hartid():
/home/nicoladgg/wsFreedomStudio/sifive_hifive1_revb_hello/bsp/build/debug/./metal/machine.h:292
20012d72:	1101                	addi	sp,sp,-32
20012d74:	ce22                	sw	s0,28(sp)
20012d76:	1000                	addi	s0,sp,32
20012d78:	fea42623          	sw	a0,-20(s0)
/home/nicoladgg/wsFreedomStudio/sifive_hifive1_revb_hello/bsp/build/debug/./metal/machine.h:293
20012d7c:	fec42703          	lw	a4,-20(s0)
20012d80:	81418793          	addi	a5,gp,-2028 # 80000ab4 <__metal_dt_cpu_0>
20012d84:	00f71463          	bne	a4,a5,20012d8c <__metal_driver_cpu_hartid+0x1a>
/home/nicoladgg/wsFreedomStudio/sifive_hifive1_revb_hello/bsp/build/debug/./metal/machine.h:294
20012d88:	4781                	li	a5,0
20012d8a:	a011                	j	20012d8e <__metal_driver_cpu_hartid+0x1c>
/home/nicoladgg/wsFreedomStudio/sifive_hifive1_revb_hello/bsp/build/debug/./metal/machine.h:297
20012d8c:	57fd                	li	a5,-1
/home/nicoladgg/wsFreedomStudio/sifive_hifive1_revb_hello/bsp/build/debug/./metal/machine.h:299
20012d8e:	853e                	mv	a0,a5
20012d90:	4472                	lw	s0,28(sp)
20012d92:	6105                	addi	sp,sp,32
20012d94:	8082                	ret

20012d96 <__metal_driver_cpu_timebase>:
__metal_driver_cpu_timebase():
/home/nicoladgg/wsFreedomStudio/sifive_hifive1_revb_hello/bsp/build/debug/./metal/machine.h:302
20012d96:	1101                	addi	sp,sp,-32
20012d98:	ce22                	sw	s0,28(sp)
20012d9a:	1000                	addi	s0,sp,32
20012d9c:	fea42623          	sw	a0,-20(s0)
/home/nicoladgg/wsFreedomStudio/sifive_hifive1_revb_hello/bsp/build/debug/./metal/machine.h:303
20012da0:	fec42703          	lw	a4,-20(s0)
20012da4:	81418793          	addi	a5,gp,-2028 # 80000ab4 <__metal_dt_cpu_0>
20012da8:	00f71763          	bne	a4,a5,20012db6 <__metal_driver_cpu_timebase+0x20>
/home/nicoladgg/wsFreedomStudio/sifive_hifive1_revb_hello/bsp/build/debug/./metal/machine.h:304
20012dac:	00f427b7          	lui	a5,0xf42
20012db0:	40078793          	addi	a5,a5,1024 # f42400 <__heap_size+0xf41c00>
20012db4:	a011                	j	20012db8 <__metal_driver_cpu_timebase+0x22>
/home/nicoladgg/wsFreedomStudio/sifive_hifive1_revb_hello/bsp/build/debug/./metal/machine.h:307
20012db6:	4781                	li	a5,0
/home/nicoladgg/wsFreedomStudio/sifive_hifive1_revb_hello/bsp/build/debug/./metal/machine.h:309
20012db8:	853e                	mv	a0,a5
20012dba:	4472                	lw	s0,28(sp)
20012dbc:	6105                	addi	sp,sp,32
20012dbe:	8082                	ret

20012dc0 <__metal_driver_cpu_interrupt_controller>:
__metal_driver_cpu_interrupt_controller():
/home/nicoladgg/wsFreedomStudio/sifive_hifive1_revb_hello/bsp/build/debug/./metal/machine.h:312
20012dc0:	1101                	addi	sp,sp,-32
20012dc2:	ce22                	sw	s0,28(sp)
20012dc4:	1000                	addi	s0,sp,32
20012dc6:	fea42623          	sw	a0,-20(s0)
/home/nicoladgg/wsFreedomStudio/sifive_hifive1_revb_hello/bsp/build/debug/./metal/machine.h:313
20012dca:	fec42703          	lw	a4,-20(s0)
20012dce:	81418793          	addi	a5,gp,-2028 # 80000ab4 <__metal_dt_cpu_0>
20012dd2:	00f71763          	bne	a4,a5,20012de0 <__metal_driver_cpu_interrupt_controller+0x20>
/home/nicoladgg/wsFreedomStudio/sifive_hifive1_revb_hello/bsp/build/debug/./metal/machine.h:314
20012dd6:	800007b7          	lui	a5,0x80000
20012dda:	09078793          	addi	a5,a5,144 # 80000090 <metal_segment_heap_target_end+0xffffe910>
20012dde:	a011                	j	20012de2 <__metal_driver_cpu_interrupt_controller+0x22>
/home/nicoladgg/wsFreedomStudio/sifive_hifive1_revb_hello/bsp/build/debug/./metal/machine.h:317
20012de0:	4781                	li	a5,0
/home/nicoladgg/wsFreedomStudio/sifive_hifive1_revb_hello/bsp/build/debug/./metal/machine.h:319
20012de2:	853e                	mv	a0,a5
20012de4:	4472                	lw	s0,28(sp)
20012de6:	6105                	addi	sp,sp,32
20012de8:	8082                	ret

20012dea <__metal_driver_cpu_buserror>:
__metal_driver_cpu_buserror():
/home/nicoladgg/wsFreedomStudio/sifive_hifive1_revb_hello/bsp/build/debug/./metal/machine.h:332
20012dea:	1101                	addi	sp,sp,-32
20012dec:	ce22                	sw	s0,28(sp)
20012dee:	1000                	addi	s0,sp,32
20012df0:	fea42623          	sw	a0,-20(s0)
/home/nicoladgg/wsFreedomStudio/sifive_hifive1_revb_hello/bsp/build/debug/./metal/machine.h:333
20012df4:	fec42703          	lw	a4,-20(s0)
20012df8:	81418793          	addi	a5,gp,-2028 # 80000ab4 <__metal_dt_cpu_0>
20012dfc:	00f71463          	bne	a4,a5,20012e04 <__metal_driver_cpu_buserror+0x1a>
/home/nicoladgg/wsFreedomStudio/sifive_hifive1_revb_hello/bsp/build/debug/./metal/machine.h:334
20012e00:	4781                	li	a5,0
20012e02:	a011                	j	20012e06 <__metal_driver_cpu_buserror+0x1c>
/home/nicoladgg/wsFreedomStudio/sifive_hifive1_revb_hello/bsp/build/debug/./metal/machine.h:337
20012e04:	4781                	li	a5,0
/home/nicoladgg/wsFreedomStudio/sifive_hifive1_revb_hello/bsp/build/debug/./metal/machine.h:339
20012e06:	853e                	mv	a0,a5
20012e08:	4472                	lw	s0,28(sp)
20012e0a:	6105                	addi	sp,sp,32
20012e0c:	8082                	ret

20012e0e <__metal_driver_cpu_get>:
__metal_driver_cpu_get():
/home/nicoladgg/wsFreedomStudio/sifive_hifive1_revb_hello/freedom-metal/src/drivers/riscv_cpu.c:25
20012e0e:	1101                	addi	sp,sp,-32
20012e10:	ce22                	sw	s0,28(sp)
20012e12:	1000                	addi	s0,sp,32
20012e14:	fea42623          	sw	a0,-20(s0)
/home/nicoladgg/wsFreedomStudio/sifive_hifive1_revb_hello/freedom-metal/src/drivers/riscv_cpu.c:26
20012e18:	fec42783          	lw	a5,-20(s0)
20012e1c:	00f04c63          	bgtz	a5,20012e34 <__metal_driver_cpu_get+0x26>
/home/nicoladgg/wsFreedomStudio/sifive_hifive1_revb_hello/freedom-metal/src/drivers/riscv_cpu.c:27
20012e20:	800017b7          	lui	a5,0x80001
20012e24:	fec42703          	lw	a4,-20(s0)
20012e28:	070a                	slli	a4,a4,0x2
20012e2a:	aa878793          	addi	a5,a5,-1368 # 80000aa8 <metal_segment_heap_target_end+0xfffff328>
20012e2e:	97ba                	add	a5,a5,a4
20012e30:	439c                	lw	a5,0(a5)
20012e32:	a011                	j	20012e36 <__metal_driver_cpu_get+0x28>
/home/nicoladgg/wsFreedomStudio/sifive_hifive1_revb_hello/freedom-metal/src/drivers/riscv_cpu.c:29
20012e34:	4781                	li	a5,0
/home/nicoladgg/wsFreedomStudio/sifive_hifive1_revb_hello/freedom-metal/src/drivers/riscv_cpu.c:30
20012e36:	853e                	mv	a0,a5
20012e38:	4472                	lw	s0,28(sp)
20012e3a:	6105                	addi	sp,sp,32
20012e3c:	8082                	ret

20012e3e <__metal_myhart_id>:
__metal_myhart_id():
/home/nicoladgg/wsFreedomStudio/sifive_hifive1_revb_hello/freedom-metal/src/drivers/riscv_cpu.c:32
20012e3e:	1101                	addi	sp,sp,-32
20012e40:	ce22                	sw	s0,28(sp)
20012e42:	1000                	addi	s0,sp,32
/home/nicoladgg/wsFreedomStudio/sifive_hifive1_revb_hello/freedom-metal/src/drivers/riscv_cpu.c:34
20012e44:	f14027f3          	csrr	a5,mhartid
20012e48:	fef42623          	sw	a5,-20(s0)
/home/nicoladgg/wsFreedomStudio/sifive_hifive1_revb_hello/freedom-metal/src/drivers/riscv_cpu.c:35
20012e4c:	fec42783          	lw	a5,-20(s0)
/home/nicoladgg/wsFreedomStudio/sifive_hifive1_revb_hello/freedom-metal/src/drivers/riscv_cpu.c:36
20012e50:	853e                	mv	a0,a5
20012e52:	4472                	lw	s0,28(sp)
20012e54:	6105                	addi	sp,sp,32
20012e56:	8082                	ret

20012e58 <__metal_interrupt_global_enable>:
__metal_interrupt_global_enable():
/home/nicoladgg/wsFreedomStudio/sifive_hifive1_revb_hello/freedom-metal/src/drivers/riscv_cpu.c:45
20012e58:	1101                	addi	sp,sp,-32
20012e5a:	ce22                	sw	s0,28(sp)
20012e5c:	1000                	addi	s0,sp,32
/home/nicoladgg/wsFreedomStudio/sifive_hifive1_revb_hello/freedom-metal/src/drivers/riscv_cpu.c:47
20012e5e:	47a1                	li	a5,8
20012e60:	3007a7f3          	csrrs	a5,mstatus,a5
20012e64:	fef42623          	sw	a5,-20(s0)
/home/nicoladgg/wsFreedomStudio/sifive_hifive1_revb_hello/freedom-metal/src/drivers/riscv_cpu.c:50
20012e68:	0001                	nop
20012e6a:	4472                	lw	s0,28(sp)
20012e6c:	6105                	addi	sp,sp,32
20012e6e:	8082                	ret

20012e70 <__metal_interrupt_global_disable>:
__metal_interrupt_global_disable():
/home/nicoladgg/wsFreedomStudio/sifive_hifive1_revb_hello/freedom-metal/src/drivers/riscv_cpu.c:52
20012e70:	1101                	addi	sp,sp,-32
20012e72:	ce22                	sw	s0,28(sp)
20012e74:	1000                	addi	s0,sp,32
/home/nicoladgg/wsFreedomStudio/sifive_hifive1_revb_hello/freedom-metal/src/drivers/riscv_cpu.c:54
20012e76:	47a1                	li	a5,8
20012e78:	3007b7f3          	csrrc	a5,mstatus,a5
20012e7c:	fef42623          	sw	a5,-20(s0)
/home/nicoladgg/wsFreedomStudio/sifive_hifive1_revb_hello/freedom-metal/src/drivers/riscv_cpu.c:57
20012e80:	0001                	nop
20012e82:	4472                	lw	s0,28(sp)
20012e84:	6105                	addi	sp,sp,32
20012e86:	8082                	ret

20012e88 <__metal_interrupt_software_enable>:
__metal_interrupt_software_enable():
/home/nicoladgg/wsFreedomStudio/sifive_hifive1_revb_hello/freedom-metal/src/drivers/riscv_cpu.c:59
20012e88:	1101                	addi	sp,sp,-32
20012e8a:	ce22                	sw	s0,28(sp)
20012e8c:	1000                	addi	s0,sp,32
/home/nicoladgg/wsFreedomStudio/sifive_hifive1_revb_hello/freedom-metal/src/drivers/riscv_cpu.c:61
20012e8e:	47a1                	li	a5,8
20012e90:	3047a7f3          	csrrs	a5,mie,a5
20012e94:	fef42623          	sw	a5,-20(s0)
/home/nicoladgg/wsFreedomStudio/sifive_hifive1_revb_hello/freedom-metal/src/drivers/riscv_cpu.c:64
20012e98:	0001                	nop
20012e9a:	4472                	lw	s0,28(sp)
20012e9c:	6105                	addi	sp,sp,32
20012e9e:	8082                	ret

20012ea0 <__metal_interrupt_software_disable>:
__metal_interrupt_software_disable():
/home/nicoladgg/wsFreedomStudio/sifive_hifive1_revb_hello/freedom-metal/src/drivers/riscv_cpu.c:66
20012ea0:	1101                	addi	sp,sp,-32
20012ea2:	ce22                	sw	s0,28(sp)
20012ea4:	1000                	addi	s0,sp,32
/home/nicoladgg/wsFreedomStudio/sifive_hifive1_revb_hello/freedom-metal/src/drivers/riscv_cpu.c:68
20012ea6:	47a1                	li	a5,8
20012ea8:	3047b7f3          	csrrc	a5,mie,a5
20012eac:	fef42623          	sw	a5,-20(s0)
/home/nicoladgg/wsFreedomStudio/sifive_hifive1_revb_hello/freedom-metal/src/drivers/riscv_cpu.c:71
20012eb0:	0001                	nop
20012eb2:	4472                	lw	s0,28(sp)
20012eb4:	6105                	addi	sp,sp,32
20012eb6:	8082                	ret

20012eb8 <__metal_interrupt_timer_enable>:
__metal_interrupt_timer_enable():
/home/nicoladgg/wsFreedomStudio/sifive_hifive1_revb_hello/freedom-metal/src/drivers/riscv_cpu.c:73
20012eb8:	1101                	addi	sp,sp,-32
20012eba:	ce22                	sw	s0,28(sp)
20012ebc:	1000                	addi	s0,sp,32
/home/nicoladgg/wsFreedomStudio/sifive_hifive1_revb_hello/freedom-metal/src/drivers/riscv_cpu.c:75
20012ebe:	08000793          	li	a5,128
20012ec2:	3047a7f3          	csrrs	a5,mie,a5
20012ec6:	fef42623          	sw	a5,-20(s0)
/home/nicoladgg/wsFreedomStudio/sifive_hifive1_revb_hello/freedom-metal/src/drivers/riscv_cpu.c:78
20012eca:	0001                	nop
20012ecc:	4472                	lw	s0,28(sp)
20012ece:	6105                	addi	sp,sp,32
20012ed0:	8082                	ret

20012ed2 <__metal_interrupt_timer_disable>:
__metal_interrupt_timer_disable():
/home/nicoladgg/wsFreedomStudio/sifive_hifive1_revb_hello/freedom-metal/src/drivers/riscv_cpu.c:80
20012ed2:	1101                	addi	sp,sp,-32
20012ed4:	ce22                	sw	s0,28(sp)
20012ed6:	1000                	addi	s0,sp,32
/home/nicoladgg/wsFreedomStudio/sifive_hifive1_revb_hello/freedom-metal/src/drivers/riscv_cpu.c:82
20012ed8:	08000793          	li	a5,128
20012edc:	3047b7f3          	csrrc	a5,mie,a5
20012ee0:	fef42623          	sw	a5,-20(s0)
/home/nicoladgg/wsFreedomStudio/sifive_hifive1_revb_hello/freedom-metal/src/drivers/riscv_cpu.c:85
20012ee4:	0001                	nop
20012ee6:	4472                	lw	s0,28(sp)
20012ee8:	6105                	addi	sp,sp,32
20012eea:	8082                	ret

20012eec <__metal_interrupt_external_enable>:
__metal_interrupt_external_enable():
/home/nicoladgg/wsFreedomStudio/sifive_hifive1_revb_hello/freedom-metal/src/drivers/riscv_cpu.c:87
20012eec:	1101                	addi	sp,sp,-32
20012eee:	ce22                	sw	s0,28(sp)
20012ef0:	1000                	addi	s0,sp,32
/home/nicoladgg/wsFreedomStudio/sifive_hifive1_revb_hello/freedom-metal/src/drivers/riscv_cpu.c:89
20012ef2:	6785                	lui	a5,0x1
20012ef4:	80078793          	addi	a5,a5,-2048 # 800 <__heap_size>
20012ef8:	3047a7f3          	csrrs	a5,mie,a5
20012efc:	fef42623          	sw	a5,-20(s0)
/home/nicoladgg/wsFreedomStudio/sifive_hifive1_revb_hello/freedom-metal/src/drivers/riscv_cpu.c:92
20012f00:	0001                	nop
20012f02:	4472                	lw	s0,28(sp)
20012f04:	6105                	addi	sp,sp,32
20012f06:	8082                	ret

20012f08 <__metal_interrupt_external_disable>:
__metal_interrupt_external_disable():
/home/nicoladgg/wsFreedomStudio/sifive_hifive1_revb_hello/freedom-metal/src/drivers/riscv_cpu.c:94
20012f08:	1101                	addi	sp,sp,-32
20012f0a:	ce22                	sw	s0,28(sp)
20012f0c:	1000                	addi	s0,sp,32
/home/nicoladgg/wsFreedomStudio/sifive_hifive1_revb_hello/freedom-metal/src/drivers/riscv_cpu.c:96
20012f0e:	6785                	lui	a5,0x1
20012f10:	80078793          	addi	a5,a5,-2048 # 800 <__heap_size>
20012f14:	3047b7f3          	csrrc	a5,mie,a5
20012f18:	fef42623          	sw	a5,-20(s0)
/home/nicoladgg/wsFreedomStudio/sifive_hifive1_revb_hello/freedom-metal/src/drivers/riscv_cpu.c:99
20012f1c:	0001                	nop
20012f1e:	4472                	lw	s0,28(sp)
20012f20:	6105                	addi	sp,sp,32
20012f22:	8082                	ret

20012f24 <__metal_interrupt_local_enable>:
__metal_interrupt_local_enable():
/home/nicoladgg/wsFreedomStudio/sifive_hifive1_revb_hello/freedom-metal/src/drivers/riscv_cpu.c:101
20012f24:	7179                	addi	sp,sp,-48
20012f26:	d622                	sw	s0,44(sp)
20012f28:	1800                	addi	s0,sp,48
20012f2a:	fca42e23          	sw	a0,-36(s0)
/home/nicoladgg/wsFreedomStudio/sifive_hifive1_revb_hello/freedom-metal/src/drivers/riscv_cpu.c:102
20012f2e:	fdc42783          	lw	a5,-36(s0)
20012f32:	4705                	li	a4,1
20012f34:	00f717b3          	sll	a5,a4,a5
20012f38:	fef42623          	sw	a5,-20(s0)
/home/nicoladgg/wsFreedomStudio/sifive_hifive1_revb_hello/freedom-metal/src/drivers/riscv_cpu.c:104
20012f3c:	fec42783          	lw	a5,-20(s0)
20012f40:	3047a7f3          	csrrs	a5,mie,a5
20012f44:	fef42423          	sw	a5,-24(s0)
/home/nicoladgg/wsFreedomStudio/sifive_hifive1_revb_hello/freedom-metal/src/drivers/riscv_cpu.c:105
20012f48:	0001                	nop
20012f4a:	5432                	lw	s0,44(sp)
20012f4c:	6145                	addi	sp,sp,48
20012f4e:	8082                	ret

20012f50 <__metal_interrupt_local_disable>:
__metal_interrupt_local_disable():
/home/nicoladgg/wsFreedomStudio/sifive_hifive1_revb_hello/freedom-metal/src/drivers/riscv_cpu.c:107
20012f50:	7179                	addi	sp,sp,-48
20012f52:	d622                	sw	s0,44(sp)
20012f54:	1800                	addi	s0,sp,48
20012f56:	fca42e23          	sw	a0,-36(s0)
/home/nicoladgg/wsFreedomStudio/sifive_hifive1_revb_hello/freedom-metal/src/drivers/riscv_cpu.c:108
20012f5a:	fdc42783          	lw	a5,-36(s0)
20012f5e:	4705                	li	a4,1
20012f60:	00f717b3          	sll	a5,a4,a5
20012f64:	fef42623          	sw	a5,-20(s0)
/home/nicoladgg/wsFreedomStudio/sifive_hifive1_revb_hello/freedom-metal/src/drivers/riscv_cpu.c:110
20012f68:	fec42783          	lw	a5,-20(s0)
20012f6c:	3047b7f3          	csrrc	a5,mie,a5
20012f70:	fef42423          	sw	a5,-24(s0)
/home/nicoladgg/wsFreedomStudio/sifive_hifive1_revb_hello/freedom-metal/src/drivers/riscv_cpu.c:111
20012f74:	0001                	nop
20012f76:	5432                	lw	s0,44(sp)
20012f78:	6145                	addi	sp,sp,48
20012f7a:	8082                	ret

20012f7c <__metal_default_exception_handler>:
__metal_default_exception_handler():
/home/nicoladgg/wsFreedomStudio/sifive_hifive1_revb_hello/freedom-metal/src/drivers/riscv_cpu.c:113
20012f7c:	1101                	addi	sp,sp,-32
20012f7e:	ce06                	sw	ra,28(sp)
20012f80:	cc22                	sw	s0,24(sp)
20012f82:	1000                	addi	s0,sp,32
20012f84:	fea42623          	sw	a0,-20(s0)
20012f88:	feb42423          	sw	a1,-24(s0)
/home/nicoladgg/wsFreedomStudio/sifive_hifive1_revb_hello/freedom-metal/src/drivers/riscv_cpu.c:114
20012f8c:	06400513          	li	a0,100
20012f90:	4f3030ef          	jal	ra,20016c82 <metal_shutdown>

20012f94 <__metal_default_interrupt_handler>:
__metal_default_interrupt_handler():
/home/nicoladgg/wsFreedomStudio/sifive_hifive1_revb_hello/freedom-metal/src/drivers/riscv_cpu.c:117
20012f94:	1101                	addi	sp,sp,-32
20012f96:	ce06                	sw	ra,28(sp)
20012f98:	cc22                	sw	s0,24(sp)
20012f9a:	1000                	addi	s0,sp,32
20012f9c:	fea42623          	sw	a0,-20(s0)
20012fa0:	feb42423          	sw	a1,-24(s0)
/home/nicoladgg/wsFreedomStudio/sifive_hifive1_revb_hello/freedom-metal/src/drivers/riscv_cpu.c:118
20012fa4:	0c800513          	li	a0,200
20012fa8:	4db030ef          	jal	ra,20016c82 <metal_shutdown>

20012fac <metal_interrupt_vector_handler>:
metal_interrupt_vector_handler():
/home/nicoladgg/wsFreedomStudio/sifive_hifive1_revb_hello/freedom-metal/src/drivers/riscv_cpu.c:122
20012fac:	715d                	addi	sp,sp,-80
20012fae:	c686                	sw	ra,76(sp)
20012fb0:	c496                	sw	t0,72(sp)
20012fb2:	c29a                	sw	t1,68(sp)
20012fb4:	c09e                	sw	t2,64(sp)
20012fb6:	de22                	sw	s0,60(sp)
20012fb8:	dc2a                	sw	a0,56(sp)
20012fba:	da2e                	sw	a1,52(sp)
20012fbc:	d832                	sw	a2,48(sp)
20012fbe:	d636                	sw	a3,44(sp)
20012fc0:	d43a                	sw	a4,40(sp)
20012fc2:	d23e                	sw	a5,36(sp)
20012fc4:	d042                	sw	a6,32(sp)
20012fc6:	ce46                	sw	a7,28(sp)
20012fc8:	cc72                	sw	t3,24(sp)
20012fca:	ca76                	sw	t4,20(sp)
20012fcc:	c87a                	sw	t5,16(sp)
20012fce:	c67e                	sw	t6,12(sp)
20012fd0:	0880                	addi	s0,sp,80
/home/nicoladgg/wsFreedomStudio/sifive_hifive1_revb_hello/freedom-metal/src/drivers/riscv_cpu.c:123
20012fd2:	12c00513          	li	a0,300
20012fd6:	4ad030ef          	jal	ra,20016c82 <metal_shutdown>

20012fda <metal_software_interrupt_vector_handler>:
metal_software_interrupt_vector_handler():
/home/nicoladgg/wsFreedomStudio/sifive_hifive1_revb_hello/freedom-metal/src/drivers/riscv_cpu.c:128
20012fda:	711d                	addi	sp,sp,-96
20012fdc:	ce86                	sw	ra,92(sp)
20012fde:	cc96                	sw	t0,88(sp)
20012fe0:	ca9a                	sw	t1,84(sp)
20012fe2:	c89e                	sw	t2,80(sp)
20012fe4:	c6a2                	sw	s0,76(sp)
20012fe6:	c4aa                	sw	a0,72(sp)
20012fe8:	c2ae                	sw	a1,68(sp)
20012fea:	c0b2                	sw	a2,64(sp)
20012fec:	de36                	sw	a3,60(sp)
20012fee:	dc3a                	sw	a4,56(sp)
20012ff0:	da3e                	sw	a5,52(sp)
20012ff2:	d842                	sw	a6,48(sp)
20012ff4:	d646                	sw	a7,44(sp)
20012ff6:	d472                	sw	t3,40(sp)
20012ff8:	d276                	sw	t4,36(sp)
20012ffa:	d07a                	sw	t5,32(sp)
20012ffc:	ce7e                	sw	t6,28(sp)
20012ffe:	1080                	addi	s0,sp,96
/home/nicoladgg/wsFreedomStudio/sifive_hifive1_revb_hello/freedom-metal/src/drivers/riscv_cpu.c:129
20013000:	3d3d                	jal	20012e3e <__metal_myhart_id>
20013002:	872a                	mv	a4,a0
20013004:	800017b7          	lui	a5,0x80001
20013008:	070a                	slli	a4,a4,0x2
2001300a:	aa878793          	addi	a5,a5,-1368 # 80000aa8 <metal_segment_heap_target_end+0xfffff328>
2001300e:	97ba                	add	a5,a5,a4
20013010:	439c                	lw	a5,0(a5)
20013012:	faf42623          	sw	a5,-84(s0)
20013016:	fac42783          	lw	a5,-84(s0)
2001301a:	c785                	beqz	a5,20013042 <metal_software_interrupt_vector_handler+0x68>
/home/nicoladgg/wsFreedomStudio/sifive_hifive1_revb_hello/freedom-metal/src/drivers/riscv_cpu.c:129 (discriminator 1)
2001301c:	fac42503          	lw	a0,-84(s0)
20013020:	3345                	jal	20012dc0 <__metal_driver_cpu_interrupt_controller>
20013022:	faa42423          	sw	a0,-88(s0)
20013026:	fa842783          	lw	a5,-88(s0)
2001302a:	0e07a783          	lw	a5,224(a5)
2001302e:	faf42223          	sw	a5,-92(s0)
20013032:	fa842783          	lw	a5,-88(s0)
20013036:	0d87a783          	lw	a5,216(a5)
2001303a:	fa442583          	lw	a1,-92(s0)
2001303e:	450d                	li	a0,3
20013040:	9782                	jalr	a5
/home/nicoladgg/wsFreedomStudio/sifive_hifive1_revb_hello/freedom-metal/src/drivers/riscv_cpu.c:130
20013042:	0001                	nop
20013044:	40f6                	lw	ra,92(sp)
20013046:	42e6                	lw	t0,88(sp)
20013048:	4356                	lw	t1,84(sp)
2001304a:	43c6                	lw	t2,80(sp)
2001304c:	4436                	lw	s0,76(sp)
2001304e:	4526                	lw	a0,72(sp)
20013050:	4596                	lw	a1,68(sp)
20013052:	4606                	lw	a2,64(sp)
20013054:	56f2                	lw	a3,60(sp)
20013056:	5762                	lw	a4,56(sp)
20013058:	57d2                	lw	a5,52(sp)
2001305a:	5842                	lw	a6,48(sp)
2001305c:	58b2                	lw	a7,44(sp)
2001305e:	5e22                	lw	t3,40(sp)
20013060:	5e92                	lw	t4,36(sp)
20013062:	5f02                	lw	t5,32(sp)
20013064:	4ff2                	lw	t6,28(sp)
20013066:	6125                	addi	sp,sp,96
20013068:	30200073          	mret

2001306c <__metal_default_sw_handler>:
__metal_default_sw_handler():
/home/nicoladgg/wsFreedomStudio/sifive_hifive1_revb_hello/freedom-metal/src/drivers/riscv_cpu.c:132
2001306c:	7179                	addi	sp,sp,-48
2001306e:	d606                	sw	ra,44(sp)
20013070:	d422                	sw	s0,40(sp)
20013072:	1800                	addi	s0,sp,48
20013074:	fca42e23          	sw	a0,-36(s0)
20013078:	fcb42c23          	sw	a1,-40(s0)
/home/nicoladgg/wsFreedomStudio/sifive_hifive1_revb_hello/freedom-metal/src/drivers/riscv_cpu.c:135
2001307c:	33c9                	jal	20012e3e <__metal_myhart_id>
2001307e:	872a                	mv	a4,a0
20013080:	800017b7          	lui	a5,0x80001
20013084:	070a                	slli	a4,a4,0x2
20013086:	aa878793          	addi	a5,a5,-1368 # 80000aa8 <metal_segment_heap_target_end+0xfffff328>
2001308a:	97ba                	add	a5,a5,a4
2001308c:	439c                	lw	a5,0(a5)
2001308e:	fef42623          	sw	a5,-20(s0)
/home/nicoladgg/wsFreedomStudio/sifive_hifive1_revb_hello/freedom-metal/src/drivers/riscv_cpu.c:137
20013092:	342027f3          	csrr	a5,mcause
20013096:	fef42423          	sw	a5,-24(s0)
/home/nicoladgg/wsFreedomStudio/sifive_hifive1_revb_hello/freedom-metal/src/drivers/riscv_cpu.c:138
2001309a:	fec42783          	lw	a5,-20(s0)
2001309e:	c795                	beqz	a5,200130ca <__metal_default_sw_handler+0x5e>
/home/nicoladgg/wsFreedomStudio/sifive_hifive1_revb_hello/freedom-metal/src/drivers/riscv_cpu.c:140
200130a0:	fec42503          	lw	a0,-20(s0)
200130a4:	3b31                	jal	20012dc0 <__metal_driver_cpu_interrupt_controller>
200130a6:	fea42223          	sw	a0,-28(s0)
/home/nicoladgg/wsFreedomStudio/sifive_hifive1_revb_hello/freedom-metal/src/drivers/riscv_cpu.c:141
200130aa:	fe842783          	lw	a5,-24(s0)
200130ae:	3ff7f793          	andi	a5,a5,1023
200130b2:	fe442703          	lw	a4,-28(s0)
200130b6:	0e878793          	addi	a5,a5,232
200130ba:	078a                	slli	a5,a5,0x2
200130bc:	97ba                	add	a5,a5,a4
200130be:	439c                	lw	a5,0(a5)
200130c0:	fdc42583          	lw	a1,-36(s0)
200130c4:	fec42503          	lw	a0,-20(s0)
200130c8:	9782                	jalr	a5
/home/nicoladgg/wsFreedomStudio/sifive_hifive1_revb_hello/freedom-metal/src/drivers/riscv_cpu.c:144
200130ca:	0001                	nop
200130cc:	50b2                	lw	ra,44(sp)
200130ce:	5422                	lw	s0,40(sp)
200130d0:	6145                	addi	sp,sp,48
200130d2:	8082                	ret

200130d4 <metal_timer_interrupt_vector_handler>:
metal_timer_interrupt_vector_handler():
/home/nicoladgg/wsFreedomStudio/sifive_hifive1_revb_hello/freedom-metal/src/drivers/riscv_cpu.c:148
200130d4:	711d                	addi	sp,sp,-96
200130d6:	ce86                	sw	ra,92(sp)
200130d8:	cc96                	sw	t0,88(sp)
200130da:	ca9a                	sw	t1,84(sp)
200130dc:	c89e                	sw	t2,80(sp)
200130de:	c6a2                	sw	s0,76(sp)
200130e0:	c4aa                	sw	a0,72(sp)
200130e2:	c2ae                	sw	a1,68(sp)
200130e4:	c0b2                	sw	a2,64(sp)
200130e6:	de36                	sw	a3,60(sp)
200130e8:	dc3a                	sw	a4,56(sp)
200130ea:	da3e                	sw	a5,52(sp)
200130ec:	d842                	sw	a6,48(sp)
200130ee:	d646                	sw	a7,44(sp)
200130f0:	d472                	sw	t3,40(sp)
200130f2:	d276                	sw	t4,36(sp)
200130f4:	d07a                	sw	t5,32(sp)
200130f6:	ce7e                	sw	t6,28(sp)
200130f8:	1080                	addi	s0,sp,96
/home/nicoladgg/wsFreedomStudio/sifive_hifive1_revb_hello/freedom-metal/src/drivers/riscv_cpu.c:149
200130fa:	3391                	jal	20012e3e <__metal_myhart_id>
200130fc:	872a                	mv	a4,a0
200130fe:	800017b7          	lui	a5,0x80001
20013102:	070a                	slli	a4,a4,0x2
20013104:	aa878793          	addi	a5,a5,-1368 # 80000aa8 <metal_segment_heap_target_end+0xfffff328>
20013108:	97ba                	add	a5,a5,a4
2001310a:	439c                	lw	a5,0(a5)
2001310c:	faf42623          	sw	a5,-84(s0)
20013110:	fac42783          	lw	a5,-84(s0)
20013114:	c785                	beqz	a5,2001313c <metal_timer_interrupt_vector_handler+0x68>
/home/nicoladgg/wsFreedomStudio/sifive_hifive1_revb_hello/freedom-metal/src/drivers/riscv_cpu.c:149 (discriminator 1)
20013116:	fac42503          	lw	a0,-84(s0)
2001311a:	315d                	jal	20012dc0 <__metal_driver_cpu_interrupt_controller>
2001311c:	faa42423          	sw	a0,-88(s0)
20013120:	fa842783          	lw	a5,-88(s0)
20013124:	1407a783          	lw	a5,320(a5)
20013128:	faf42223          	sw	a5,-92(s0)
2001312c:	fa842783          	lw	a5,-88(s0)
20013130:	1387a783          	lw	a5,312(a5)
20013134:	fa442583          	lw	a1,-92(s0)
20013138:	451d                	li	a0,7
2001313a:	9782                	jalr	a5
/home/nicoladgg/wsFreedomStudio/sifive_hifive1_revb_hello/freedom-metal/src/drivers/riscv_cpu.c:150
2001313c:	0001                	nop
2001313e:	40f6                	lw	ra,92(sp)
20013140:	42e6                	lw	t0,88(sp)
20013142:	4356                	lw	t1,84(sp)
20013144:	43c6                	lw	t2,80(sp)
20013146:	4436                	lw	s0,76(sp)
20013148:	4526                	lw	a0,72(sp)
2001314a:	4596                	lw	a1,68(sp)
2001314c:	4606                	lw	a2,64(sp)
2001314e:	56f2                	lw	a3,60(sp)
20013150:	5762                	lw	a4,56(sp)
20013152:	57d2                	lw	a5,52(sp)
20013154:	5842                	lw	a6,48(sp)
20013156:	58b2                	lw	a7,44(sp)
20013158:	5e22                	lw	t3,40(sp)
2001315a:	5e92                	lw	t4,36(sp)
2001315c:	5f02                	lw	t5,32(sp)
2001315e:	4ff2                	lw	t6,28(sp)
20013160:	6125                	addi	sp,sp,96
20013162:	30200073          	mret

20013166 <__metal_default_beu_handler>:
__metal_default_beu_handler():
/home/nicoladgg/wsFreedomStudio/sifive_hifive1_revb_hello/freedom-metal/src/drivers/riscv_cpu.c:152
20013166:	1101                	addi	sp,sp,-32
20013168:	ce22                	sw	s0,28(sp)
2001316a:	1000                	addi	s0,sp,32
2001316c:	fea42623          	sw	a0,-20(s0)
20013170:	feb42423          	sw	a1,-24(s0)
20013174:	0001                	nop
20013176:	4472                	lw	s0,28(sp)
20013178:	6105                	addi	sp,sp,32
2001317a:	8082                	ret

2001317c <__metal_default_timer_handler>:
__metal_default_timer_handler():
/home/nicoladgg/wsFreedomStudio/sifive_hifive1_revb_hello/freedom-metal/src/drivers/riscv_cpu.c:154
2001317c:	7179                	addi	sp,sp,-48
2001317e:	d606                	sw	ra,44(sp)
20013180:	d422                	sw	s0,40(sp)
20013182:	1800                	addi	s0,sp,48
20013184:	fca42e23          	sw	a0,-36(s0)
20013188:	fcb42c23          	sw	a1,-40(s0)
/home/nicoladgg/wsFreedomStudio/sifive_hifive1_revb_hello/freedom-metal/src/drivers/riscv_cpu.c:155
2001318c:	394d                	jal	20012e3e <__metal_myhart_id>
2001318e:	87aa                	mv	a5,a0
20013190:	853e                	mv	a0,a5
20013192:	39b5                	jal	20012e0e <__metal_driver_cpu_get>
20013194:	fea42623          	sw	a0,-20(s0)
/home/nicoladgg/wsFreedomStudio/sifive_hifive1_revb_hello/freedom-metal/src/drivers/riscv_cpu.c:156
20013198:	fec42503          	lw	a0,-20(s0)
2001319c:	284010ef          	jal	ra,20014420 <__metal_driver_cpu_mtime_get>
200131a0:	fea42023          	sw	a0,-32(s0)
200131a4:	feb42223          	sw	a1,-28(s0)
/home/nicoladgg/wsFreedomStudio/sifive_hifive1_revb_hello/freedom-metal/src/drivers/riscv_cpu.c:159
200131a8:	fe042703          	lw	a4,-32(s0)
200131ac:	fe442783          	lw	a5,-28(s0)
200131b0:	4529                	li	a0,10
200131b2:	4581                	li	a1,0
200131b4:	00a70633          	add	a2,a4,a0
200131b8:	8832                	mv	a6,a2
200131ba:	00e83833          	sltu	a6,a6,a4
200131be:	00b786b3          	add	a3,a5,a1
200131c2:	00d807b3          	add	a5,a6,a3
200131c6:	86be                	mv	a3,a5
200131c8:	8732                	mv	a4,a2
200131ca:	87b6                	mv	a5,a3
200131cc:	85ba                	mv	a1,a4
200131ce:	863e                	mv	a2,a5
200131d0:	fec42503          	lw	a0,-20(s0)
200131d4:	2b2010ef          	jal	ra,20014486 <__metal_driver_cpu_mtimecmp_set>
/home/nicoladgg/wsFreedomStudio/sifive_hifive1_revb_hello/freedom-metal/src/drivers/riscv_cpu.c:160
200131d8:	0001                	nop
200131da:	50b2                	lw	ra,44(sp)
200131dc:	5422                	lw	s0,40(sp)
200131de:	6145                	addi	sp,sp,48
200131e0:	8082                	ret
	...

20013200 <__metal_exception_handler>:
__metal_exception_handler():
/home/nicoladgg/wsFreedomStudio/sifive_hifive1_revb_hello/freedom-metal/src/drivers/riscv_cpu.c:169
20013200:	7119                	addi	sp,sp,-128
20013202:	de86                	sw	ra,124(sp)
20013204:	dc96                	sw	t0,120(sp)
20013206:	da9a                	sw	t1,116(sp)
20013208:	d89e                	sw	t2,112(sp)
2001320a:	d6a2                	sw	s0,108(sp)
2001320c:	d4aa                	sw	a0,104(sp)
2001320e:	d2ae                	sw	a1,100(sp)
20013210:	d0b2                	sw	a2,96(sp)
20013212:	ceb6                	sw	a3,92(sp)
20013214:	ccba                	sw	a4,88(sp)
20013216:	cabe                	sw	a5,84(sp)
20013218:	c8c2                	sw	a6,80(sp)
2001321a:	c6c6                	sw	a7,76(sp)
2001321c:	c4f2                	sw	t3,72(sp)
2001321e:	c2f6                	sw	t4,68(sp)
20013220:	c0fa                	sw	t5,64(sp)
20013222:	de7e                	sw	t6,60(sp)
20013224:	0100                	addi	s0,sp,128
/home/nicoladgg/wsFreedomStudio/sifive_hifive1_revb_hello/freedom-metal/src/drivers/riscv_cpu.c:174
20013226:	3921                	jal	20012e3e <__metal_myhart_id>
20013228:	872a                	mv	a4,a0
2001322a:	800017b7          	lui	a5,0x80001
2001322e:	070a                	slli	a4,a4,0x2
20013230:	aa878793          	addi	a5,a5,-1368 # 80000aa8 <metal_segment_heap_target_end+0xfffff328>
20013234:	97ba                	add	a5,a5,a4
20013236:	439c                	lw	a5,0(a5)
20013238:	faf42623          	sw	a5,-84(s0)
/home/nicoladgg/wsFreedomStudio/sifive_hifive1_revb_hello/freedom-metal/src/drivers/riscv_cpu.c:176
2001323c:	342027f3          	csrr	a5,mcause
20013240:	faf42423          	sw	a5,-88(s0)
/home/nicoladgg/wsFreedomStudio/sifive_hifive1_revb_hello/freedom-metal/src/drivers/riscv_cpu.c:177
20013244:	341027f3          	csrr	a5,mepc
20013248:	faf42223          	sw	a5,-92(s0)
/home/nicoladgg/wsFreedomStudio/sifive_hifive1_revb_hello/freedom-metal/src/drivers/riscv_cpu.c:178
2001324c:	343027f3          	csrr	a5,mtval
20013250:	faf42023          	sw	a5,-96(s0)
/home/nicoladgg/wsFreedomStudio/sifive_hifive1_revb_hello/freedom-metal/src/drivers/riscv_cpu.c:179
20013254:	305027f3          	csrr	a5,mtvec
20013258:	f8f42e23          	sw	a5,-100(s0)
/home/nicoladgg/wsFreedomStudio/sifive_hifive1_revb_hello/freedom-metal/src/drivers/riscv_cpu.c:181
2001325c:	fac42783          	lw	a5,-84(s0)
20013260:	cbfd                	beqz	a5,20013356 <__metal_exception_handler+0x156>
/home/nicoladgg/wsFreedomStudio/sifive_hifive1_revb_hello/freedom-metal/src/drivers/riscv_cpu.c:183
20013262:	fac42503          	lw	a0,-84(s0)
20013266:	b5bff0ef          	jal	ra,20012dc0 <__metal_driver_cpu_interrupt_controller>
2001326a:	f8a42c23          	sw	a0,-104(s0)
/home/nicoladgg/wsFreedomStudio/sifive_hifive1_revb_hello/freedom-metal/src/drivers/riscv_cpu.c:184
2001326e:	fa842783          	lw	a5,-88(s0)
20013272:	3ff7f793          	andi	a5,a5,1023
20013276:	f8f42a23          	sw	a5,-108(s0)
/home/nicoladgg/wsFreedomStudio/sifive_hifive1_revb_hello/freedom-metal/src/drivers/riscv_cpu.c:185
2001327a:	fa842783          	lw	a5,-88(s0)
2001327e:	0a07de63          	bgez	a5,2001333a <__metal_exception_handler+0x13a>
/home/nicoladgg/wsFreedomStudio/sifive_hifive1_revb_hello/freedom-metal/src/drivers/riscv_cpu.c:186
20013282:	f9442703          	lw	a4,-108(s0)
20013286:	08000793          	li	a5,128
2001328a:	02f71263          	bne	a4,a5,200132ae <__metal_exception_handler+0xae>
/home/nicoladgg/wsFreedomStudio/sifive_hifive1_revb_hello/freedom-metal/src/drivers/riscv_cpu.c:187
2001328e:	f9842783          	lw	a5,-104(s0)
20013292:	3987a783          	lw	a5,920(a5)
20013296:	f8f42623          	sw	a5,-116(s0)
/home/nicoladgg/wsFreedomStudio/sifive_hifive1_revb_hello/freedom-metal/src/drivers/riscv_cpu.c:188
2001329a:	f9842783          	lw	a5,-104(s0)
2001329e:	3907a783          	lw	a5,912(a5)
200132a2:	f8c42583          	lw	a1,-116(s0)
200132a6:	f9442503          	lw	a0,-108(s0)
200132aa:	9782                	jalr	a5
/home/nicoladgg/wsFreedomStudio/sifive_hifive1_revb_hello/freedom-metal/src/drivers/riscv_cpu.c:189
200132ac:	a06d                	j	20013356 <__metal_exception_handler+0x156>
/home/nicoladgg/wsFreedomStudio/sifive_hifive1_revb_hello/freedom-metal/src/drivers/riscv_cpu.c:191
200132ae:	f9442703          	lw	a4,-108(s0)
200132b2:	47ad                	li	a5,11
200132b4:	00e7d763          	bge	a5,a4,200132c2 <__metal_exception_handler+0xc2>
/home/nicoladgg/wsFreedomStudio/sifive_hifive1_revb_hello/freedom-metal/src/drivers/riscv_cpu.c:192 (discriminator 1)
200132b8:	f9c42783          	lw	a5,-100(s0)
200132bc:	03f7f793          	andi	a5,a5,63
/home/nicoladgg/wsFreedomStudio/sifive_hifive1_revb_hello/freedom-metal/src/drivers/riscv_cpu.c:191 (discriminator 1)
200132c0:	ef9d                	bnez	a5,200132fe <__metal_exception_handler+0xfe>
/home/nicoladgg/wsFreedomStudio/sifive_hifive1_revb_hello/freedom-metal/src/drivers/riscv_cpu.c:193
200132c2:	f9842683          	lw	a3,-104(s0)
200132c6:	f9442703          	lw	a4,-108(s0)
200132ca:	87ba                	mv	a5,a4
200132cc:	0786                	slli	a5,a5,0x1
200132ce:	97ba                	add	a5,a5,a4
200132d0:	078e                	slli	a5,a5,0x3
200132d2:	97b6                	add	a5,a5,a3
200132d4:	0987a783          	lw	a5,152(a5)
200132d8:	f8f42623          	sw	a5,-116(s0)
/home/nicoladgg/wsFreedomStudio/sifive_hifive1_revb_hello/freedom-metal/src/drivers/riscv_cpu.c:194
200132dc:	f9842683          	lw	a3,-104(s0)
200132e0:	f9442703          	lw	a4,-108(s0)
200132e4:	87ba                	mv	a5,a4
200132e6:	0786                	slli	a5,a5,0x1
200132e8:	97ba                	add	a5,a5,a4
200132ea:	078e                	slli	a5,a5,0x3
200132ec:	97b6                	add	a5,a5,a3
200132ee:	0907a783          	lw	a5,144(a5)
200132f2:	f8c42583          	lw	a1,-116(s0)
200132f6:	f9442503          	lw	a0,-108(s0)
200132fa:	9782                	jalr	a5
/home/nicoladgg/wsFreedomStudio/sifive_hifive1_revb_hello/freedom-metal/src/drivers/riscv_cpu.c:195
200132fc:	a8a9                	j	20013356 <__metal_exception_handler+0x156>
/home/nicoladgg/wsFreedomStudio/sifive_hifive1_revb_hello/freedom-metal/src/drivers/riscv_cpu.c:197
200132fe:	f9c42783          	lw	a5,-100(s0)
20013302:	03f7f713          	andi	a4,a5,63
20013306:	4789                	li	a5,2
20013308:	04f71763          	bne	a4,a5,20013356 <__metal_exception_handler+0x156>
/home/nicoladgg/wsFreedomStudio/sifive_hifive1_revb_hello/freedom-metal/src/drivers/riscv_cpu.c:201
2001330c:	307027f3          	csrr	a5,mtvt
20013310:	f8f42823          	sw	a5,-112(s0)
/home/nicoladgg/wsFreedomStudio/sifive_hifive1_revb_hello/freedom-metal/src/drivers/riscv_cpu.c:202
20013314:	f9842783          	lw	a5,-104(s0)
20013318:	0dc7a783          	lw	a5,220(a5)
2001331c:	f8f42623          	sw	a5,-116(s0)
/home/nicoladgg/wsFreedomStudio/sifive_hifive1_revb_hello/freedom-metal/src/drivers/riscv_cpu.c:203
20013320:	f9042783          	lw	a5,-112(s0)
20013324:	439c                	lw	a5,0(a5)
20013326:	f8f42423          	sw	a5,-120(s0)
/home/nicoladgg/wsFreedomStudio/sifive_hifive1_revb_hello/freedom-metal/src/drivers/riscv_cpu.c:204
2001332a:	f8842783          	lw	a5,-120(s0)
2001332e:	f8c42583          	lw	a1,-116(s0)
20013332:	f9442503          	lw	a0,-108(s0)
20013336:	9782                	jalr	a5
/home/nicoladgg/wsFreedomStudio/sifive_hifive1_revb_hello/freedom-metal/src/drivers/riscv_cpu.c:205
20013338:	a839                	j	20013356 <__metal_exception_handler+0x156>
/home/nicoladgg/wsFreedomStudio/sifive_hifive1_revb_hello/freedom-metal/src/drivers/riscv_cpu.c:208
2001333a:	f9842703          	lw	a4,-104(s0)
2001333e:	f9442783          	lw	a5,-108(s0)
20013342:	0e878793          	addi	a5,a5,232
20013346:	078a                	slli	a5,a5,0x2
20013348:	97ba                	add	a5,a5,a4
2001334a:	439c                	lw	a5,0(a5)
2001334c:	f9442583          	lw	a1,-108(s0)
20013350:	fac42503          	lw	a0,-84(s0)
20013354:	9782                	jalr	a5
/home/nicoladgg/wsFreedomStudio/sifive_hifive1_revb_hello/freedom-metal/src/drivers/riscv_cpu.c:211
20013356:	50f6                	lw	ra,124(sp)
20013358:	52e6                	lw	t0,120(sp)
2001335a:	5356                	lw	t1,116(sp)
2001335c:	53c6                	lw	t2,112(sp)
2001335e:	5436                	lw	s0,108(sp)
20013360:	5526                	lw	a0,104(sp)
20013362:	5596                	lw	a1,100(sp)
20013364:	5606                	lw	a2,96(sp)
20013366:	46f6                	lw	a3,92(sp)
20013368:	4766                	lw	a4,88(sp)
2001336a:	47d6                	lw	a5,84(sp)
2001336c:	4846                	lw	a6,80(sp)
2001336e:	48b6                	lw	a7,76(sp)
20013370:	4e26                	lw	t3,72(sp)
20013372:	4e96                	lw	t4,68(sp)
20013374:	4f06                	lw	t5,64(sp)
20013376:	5ff2                	lw	t6,60(sp)
20013378:	6109                	addi	sp,sp,128
2001337a:	30200073          	mret
	...

200133f8 <metal_lc0_interrupt_vector_handler>:
metal_lc0_interrupt_vector_handler():
/home/nicoladgg/wsFreedomStudio/sifive_hifive1_revb_hello/freedom-metal/src/drivers/riscv_cpu.c:214
200133f8:	711d                	addi	sp,sp,-96
200133fa:	ce86                	sw	ra,92(sp)
200133fc:	cc96                	sw	t0,88(sp)
200133fe:	ca9a                	sw	t1,84(sp)
20013400:	c89e                	sw	t2,80(sp)
20013402:	c6a2                	sw	s0,76(sp)
20013404:	c4aa                	sw	a0,72(sp)
20013406:	c2ae                	sw	a1,68(sp)
20013408:	c0b2                	sw	a2,64(sp)
2001340a:	de36                	sw	a3,60(sp)
2001340c:	dc3a                	sw	a4,56(sp)
2001340e:	da3e                	sw	a5,52(sp)
20013410:	d842                	sw	a6,48(sp)
20013412:	d646                	sw	a7,44(sp)
20013414:	d472                	sw	t3,40(sp)
20013416:	d276                	sw	t4,36(sp)
20013418:	d07a                	sw	t5,32(sp)
2001341a:	ce7e                	sw	t6,28(sp)
2001341c:	1080                	addi	s0,sp,96
/home/nicoladgg/wsFreedomStudio/sifive_hifive1_revb_hello/freedom-metal/src/drivers/riscv_cpu.c:215
2001341e:	a21ff0ef          	jal	ra,20012e3e <__metal_myhart_id>
20013422:	872a                	mv	a4,a0
20013424:	800017b7          	lui	a5,0x80001
20013428:	070a                	slli	a4,a4,0x2
2001342a:	aa878793          	addi	a5,a5,-1368 # 80000aa8 <metal_segment_heap_target_end+0xfffff328>
2001342e:	97ba                	add	a5,a5,a4
20013430:	439c                	lw	a5,0(a5)
20013432:	faf42623          	sw	a5,-84(s0)
20013436:	fac42783          	lw	a5,-84(s0)
2001343a:	c78d                	beqz	a5,20013464 <metal_lc0_interrupt_vector_handler+0x6c>
/home/nicoladgg/wsFreedomStudio/sifive_hifive1_revb_hello/freedom-metal/src/drivers/riscv_cpu.c:215 (discriminator 1)
2001343c:	fac42503          	lw	a0,-84(s0)
20013440:	981ff0ef          	jal	ra,20012dc0 <__metal_driver_cpu_interrupt_controller>
20013444:	faa42423          	sw	a0,-88(s0)
20013448:	fa842783          	lw	a5,-88(s0)
2001344c:	2187a783          	lw	a5,536(a5)
20013450:	faf42223          	sw	a5,-92(s0)
20013454:	fa842783          	lw	a5,-88(s0)
20013458:	2107a783          	lw	a5,528(a5)
2001345c:	fa442583          	lw	a1,-92(s0)
20013460:	4541                	li	a0,16
20013462:	9782                	jalr	a5
/home/nicoladgg/wsFreedomStudio/sifive_hifive1_revb_hello/freedom-metal/src/drivers/riscv_cpu.c:216
20013464:	0001                	nop
20013466:	40f6                	lw	ra,92(sp)
20013468:	42e6                	lw	t0,88(sp)
2001346a:	4356                	lw	t1,84(sp)
2001346c:	43c6                	lw	t2,80(sp)
2001346e:	4436                	lw	s0,76(sp)
20013470:	4526                	lw	a0,72(sp)
20013472:	4596                	lw	a1,68(sp)
20013474:	4606                	lw	a2,64(sp)
20013476:	56f2                	lw	a3,60(sp)
20013478:	5762                	lw	a4,56(sp)
2001347a:	57d2                	lw	a5,52(sp)
2001347c:	5842                	lw	a6,48(sp)
2001347e:	58b2                	lw	a7,44(sp)
20013480:	5e22                	lw	t3,40(sp)
20013482:	5e92                	lw	t4,36(sp)
20013484:	5f02                	lw	t5,32(sp)
20013486:	4ff2                	lw	t6,28(sp)
20013488:	6125                	addi	sp,sp,96
2001348a:	30200073          	mret

2001348e <metal_lc1_interrupt_vector_handler>:
metal_lc1_interrupt_vector_handler():
/home/nicoladgg/wsFreedomStudio/sifive_hifive1_revb_hello/freedom-metal/src/drivers/riscv_cpu.c:219
2001348e:	711d                	addi	sp,sp,-96
20013490:	ce86                	sw	ra,92(sp)
20013492:	cc96                	sw	t0,88(sp)
20013494:	ca9a                	sw	t1,84(sp)
20013496:	c89e                	sw	t2,80(sp)
20013498:	c6a2                	sw	s0,76(sp)
2001349a:	c4aa                	sw	a0,72(sp)
2001349c:	c2ae                	sw	a1,68(sp)
2001349e:	c0b2                	sw	a2,64(sp)
200134a0:	de36                	sw	a3,60(sp)
200134a2:	dc3a                	sw	a4,56(sp)
200134a4:	da3e                	sw	a5,52(sp)
200134a6:	d842                	sw	a6,48(sp)
200134a8:	d646                	sw	a7,44(sp)
200134aa:	d472                	sw	t3,40(sp)
200134ac:	d276                	sw	t4,36(sp)
200134ae:	d07a                	sw	t5,32(sp)
200134b0:	ce7e                	sw	t6,28(sp)
200134b2:	1080                	addi	s0,sp,96
/home/nicoladgg/wsFreedomStudio/sifive_hifive1_revb_hello/freedom-metal/src/drivers/riscv_cpu.c:220
200134b4:	98bff0ef          	jal	ra,20012e3e <__metal_myhart_id>
200134b8:	872a                	mv	a4,a0
200134ba:	800017b7          	lui	a5,0x80001
200134be:	070a                	slli	a4,a4,0x2
200134c0:	aa878793          	addi	a5,a5,-1368 # 80000aa8 <metal_segment_heap_target_end+0xfffff328>
200134c4:	97ba                	add	a5,a5,a4
200134c6:	439c                	lw	a5,0(a5)
200134c8:	faf42623          	sw	a5,-84(s0)
200134cc:	fac42783          	lw	a5,-84(s0)
200134d0:	c78d                	beqz	a5,200134fa <metal_lc1_interrupt_vector_handler+0x6c>
/home/nicoladgg/wsFreedomStudio/sifive_hifive1_revb_hello/freedom-metal/src/drivers/riscv_cpu.c:220 (discriminator 1)
200134d2:	fac42503          	lw	a0,-84(s0)
200134d6:	8ebff0ef          	jal	ra,20012dc0 <__metal_driver_cpu_interrupt_controller>
200134da:	faa42423          	sw	a0,-88(s0)
200134de:	fa842783          	lw	a5,-88(s0)
200134e2:	2307a783          	lw	a5,560(a5)
200134e6:	faf42223          	sw	a5,-92(s0)
200134ea:	fa842783          	lw	a5,-88(s0)
200134ee:	2287a783          	lw	a5,552(a5)
200134f2:	fa442583          	lw	a1,-92(s0)
200134f6:	4545                	li	a0,17
200134f8:	9782                	jalr	a5
/home/nicoladgg/wsFreedomStudio/sifive_hifive1_revb_hello/freedom-metal/src/drivers/riscv_cpu.c:221
200134fa:	0001                	nop
200134fc:	40f6                	lw	ra,92(sp)
200134fe:	42e6                	lw	t0,88(sp)
20013500:	4356                	lw	t1,84(sp)
20013502:	43c6                	lw	t2,80(sp)
20013504:	4436                	lw	s0,76(sp)
20013506:	4526                	lw	a0,72(sp)
20013508:	4596                	lw	a1,68(sp)
2001350a:	4606                	lw	a2,64(sp)
2001350c:	56f2                	lw	a3,60(sp)
2001350e:	5762                	lw	a4,56(sp)
20013510:	57d2                	lw	a5,52(sp)
20013512:	5842                	lw	a6,48(sp)
20013514:	58b2                	lw	a7,44(sp)
20013516:	5e22                	lw	t3,40(sp)
20013518:	5e92                	lw	t4,36(sp)
2001351a:	5f02                	lw	t5,32(sp)
2001351c:	4ff2                	lw	t6,28(sp)
2001351e:	6125                	addi	sp,sp,96
20013520:	30200073          	mret

20013524 <metal_lc2_interrupt_vector_handler>:
metal_lc2_interrupt_vector_handler():
/home/nicoladgg/wsFreedomStudio/sifive_hifive1_revb_hello/freedom-metal/src/drivers/riscv_cpu.c:224
20013524:	711d                	addi	sp,sp,-96
20013526:	ce86                	sw	ra,92(sp)
20013528:	cc96                	sw	t0,88(sp)
2001352a:	ca9a                	sw	t1,84(sp)
2001352c:	c89e                	sw	t2,80(sp)
2001352e:	c6a2                	sw	s0,76(sp)
20013530:	c4aa                	sw	a0,72(sp)
20013532:	c2ae                	sw	a1,68(sp)
20013534:	c0b2                	sw	a2,64(sp)
20013536:	de36                	sw	a3,60(sp)
20013538:	dc3a                	sw	a4,56(sp)
2001353a:	da3e                	sw	a5,52(sp)
2001353c:	d842                	sw	a6,48(sp)
2001353e:	d646                	sw	a7,44(sp)
20013540:	d472                	sw	t3,40(sp)
20013542:	d276                	sw	t4,36(sp)
20013544:	d07a                	sw	t5,32(sp)
20013546:	ce7e                	sw	t6,28(sp)
20013548:	1080                	addi	s0,sp,96
/home/nicoladgg/wsFreedomStudio/sifive_hifive1_revb_hello/freedom-metal/src/drivers/riscv_cpu.c:225
2001354a:	8f5ff0ef          	jal	ra,20012e3e <__metal_myhart_id>
2001354e:	872a                	mv	a4,a0
20013550:	800017b7          	lui	a5,0x80001
20013554:	070a                	slli	a4,a4,0x2
20013556:	aa878793          	addi	a5,a5,-1368 # 80000aa8 <metal_segment_heap_target_end+0xfffff328>
2001355a:	97ba                	add	a5,a5,a4
2001355c:	439c                	lw	a5,0(a5)
2001355e:	faf42623          	sw	a5,-84(s0)
20013562:	fac42783          	lw	a5,-84(s0)
20013566:	c78d                	beqz	a5,20013590 <metal_lc2_interrupt_vector_handler+0x6c>
/home/nicoladgg/wsFreedomStudio/sifive_hifive1_revb_hello/freedom-metal/src/drivers/riscv_cpu.c:225 (discriminator 1)
20013568:	fac42503          	lw	a0,-84(s0)
2001356c:	855ff0ef          	jal	ra,20012dc0 <__metal_driver_cpu_interrupt_controller>
20013570:	faa42423          	sw	a0,-88(s0)
20013574:	fa842783          	lw	a5,-88(s0)
20013578:	2487a783          	lw	a5,584(a5)
2001357c:	faf42223          	sw	a5,-92(s0)
20013580:	fa842783          	lw	a5,-88(s0)
20013584:	2407a783          	lw	a5,576(a5)
20013588:	fa442583          	lw	a1,-92(s0)
2001358c:	4549                	li	a0,18
2001358e:	9782                	jalr	a5
/home/nicoladgg/wsFreedomStudio/sifive_hifive1_revb_hello/freedom-metal/src/drivers/riscv_cpu.c:226
20013590:	0001                	nop
20013592:	40f6                	lw	ra,92(sp)
20013594:	42e6                	lw	t0,88(sp)
20013596:	4356                	lw	t1,84(sp)
20013598:	43c6                	lw	t2,80(sp)
2001359a:	4436                	lw	s0,76(sp)
2001359c:	4526                	lw	a0,72(sp)
2001359e:	4596                	lw	a1,68(sp)
200135a0:	4606                	lw	a2,64(sp)
200135a2:	56f2                	lw	a3,60(sp)
200135a4:	5762                	lw	a4,56(sp)
200135a6:	57d2                	lw	a5,52(sp)
200135a8:	5842                	lw	a6,48(sp)
200135aa:	58b2                	lw	a7,44(sp)
200135ac:	5e22                	lw	t3,40(sp)
200135ae:	5e92                	lw	t4,36(sp)
200135b0:	5f02                	lw	t5,32(sp)
200135b2:	4ff2                	lw	t6,28(sp)
200135b4:	6125                	addi	sp,sp,96
200135b6:	30200073          	mret

200135ba <metal_lc3_interrupt_vector_handler>:
metal_lc3_interrupt_vector_handler():
/home/nicoladgg/wsFreedomStudio/sifive_hifive1_revb_hello/freedom-metal/src/drivers/riscv_cpu.c:229
200135ba:	711d                	addi	sp,sp,-96
200135bc:	ce86                	sw	ra,92(sp)
200135be:	cc96                	sw	t0,88(sp)
200135c0:	ca9a                	sw	t1,84(sp)
200135c2:	c89e                	sw	t2,80(sp)
200135c4:	c6a2                	sw	s0,76(sp)
200135c6:	c4aa                	sw	a0,72(sp)
200135c8:	c2ae                	sw	a1,68(sp)
200135ca:	c0b2                	sw	a2,64(sp)
200135cc:	de36                	sw	a3,60(sp)
200135ce:	dc3a                	sw	a4,56(sp)
200135d0:	da3e                	sw	a5,52(sp)
200135d2:	d842                	sw	a6,48(sp)
200135d4:	d646                	sw	a7,44(sp)
200135d6:	d472                	sw	t3,40(sp)
200135d8:	d276                	sw	t4,36(sp)
200135da:	d07a                	sw	t5,32(sp)
200135dc:	ce7e                	sw	t6,28(sp)
200135de:	1080                	addi	s0,sp,96
/home/nicoladgg/wsFreedomStudio/sifive_hifive1_revb_hello/freedom-metal/src/drivers/riscv_cpu.c:230
200135e0:	85fff0ef          	jal	ra,20012e3e <__metal_myhart_id>
200135e4:	872a                	mv	a4,a0
200135e6:	800017b7          	lui	a5,0x80001
200135ea:	070a                	slli	a4,a4,0x2
200135ec:	aa878793          	addi	a5,a5,-1368 # 80000aa8 <metal_segment_heap_target_end+0xfffff328>
200135f0:	97ba                	add	a5,a5,a4
200135f2:	439c                	lw	a5,0(a5)
200135f4:	faf42623          	sw	a5,-84(s0)
200135f8:	fac42783          	lw	a5,-84(s0)
200135fc:	c78d                	beqz	a5,20013626 <metal_lc3_interrupt_vector_handler+0x6c>
/home/nicoladgg/wsFreedomStudio/sifive_hifive1_revb_hello/freedom-metal/src/drivers/riscv_cpu.c:230 (discriminator 1)
200135fe:	fac42503          	lw	a0,-84(s0)
20013602:	fbeff0ef          	jal	ra,20012dc0 <__metal_driver_cpu_interrupt_controller>
20013606:	faa42423          	sw	a0,-88(s0)
2001360a:	fa842783          	lw	a5,-88(s0)
2001360e:	2607a783          	lw	a5,608(a5)
20013612:	faf42223          	sw	a5,-92(s0)
20013616:	fa842783          	lw	a5,-88(s0)
2001361a:	2587a783          	lw	a5,600(a5)
2001361e:	fa442583          	lw	a1,-92(s0)
20013622:	454d                	li	a0,19
20013624:	9782                	jalr	a5
/home/nicoladgg/wsFreedomStudio/sifive_hifive1_revb_hello/freedom-metal/src/drivers/riscv_cpu.c:231
20013626:	0001                	nop
20013628:	40f6                	lw	ra,92(sp)
2001362a:	42e6                	lw	t0,88(sp)
2001362c:	4356                	lw	t1,84(sp)
2001362e:	43c6                	lw	t2,80(sp)
20013630:	4436                	lw	s0,76(sp)
20013632:	4526                	lw	a0,72(sp)
20013634:	4596                	lw	a1,68(sp)
20013636:	4606                	lw	a2,64(sp)
20013638:	56f2                	lw	a3,60(sp)
2001363a:	5762                	lw	a4,56(sp)
2001363c:	57d2                	lw	a5,52(sp)
2001363e:	5842                	lw	a6,48(sp)
20013640:	58b2                	lw	a7,44(sp)
20013642:	5e22                	lw	t3,40(sp)
20013644:	5e92                	lw	t4,36(sp)
20013646:	5f02                	lw	t5,32(sp)
20013648:	4ff2                	lw	t6,28(sp)
2001364a:	6125                	addi	sp,sp,96
2001364c:	30200073          	mret

20013650 <metal_lc4_interrupt_vector_handler>:
metal_lc4_interrupt_vector_handler():
/home/nicoladgg/wsFreedomStudio/sifive_hifive1_revb_hello/freedom-metal/src/drivers/riscv_cpu.c:234
20013650:	711d                	addi	sp,sp,-96
20013652:	ce86                	sw	ra,92(sp)
20013654:	cc96                	sw	t0,88(sp)
20013656:	ca9a                	sw	t1,84(sp)
20013658:	c89e                	sw	t2,80(sp)
2001365a:	c6a2                	sw	s0,76(sp)
2001365c:	c4aa                	sw	a0,72(sp)
2001365e:	c2ae                	sw	a1,68(sp)
20013660:	c0b2                	sw	a2,64(sp)
20013662:	de36                	sw	a3,60(sp)
20013664:	dc3a                	sw	a4,56(sp)
20013666:	da3e                	sw	a5,52(sp)
20013668:	d842                	sw	a6,48(sp)
2001366a:	d646                	sw	a7,44(sp)
2001366c:	d472                	sw	t3,40(sp)
2001366e:	d276                	sw	t4,36(sp)
20013670:	d07a                	sw	t5,32(sp)
20013672:	ce7e                	sw	t6,28(sp)
20013674:	1080                	addi	s0,sp,96
/home/nicoladgg/wsFreedomStudio/sifive_hifive1_revb_hello/freedom-metal/src/drivers/riscv_cpu.c:235
20013676:	fc8ff0ef          	jal	ra,20012e3e <__metal_myhart_id>
2001367a:	872a                	mv	a4,a0
2001367c:	800017b7          	lui	a5,0x80001
20013680:	070a                	slli	a4,a4,0x2
20013682:	aa878793          	addi	a5,a5,-1368 # 80000aa8 <metal_segment_heap_target_end+0xfffff328>
20013686:	97ba                	add	a5,a5,a4
20013688:	439c                	lw	a5,0(a5)
2001368a:	faf42623          	sw	a5,-84(s0)
2001368e:	fac42783          	lw	a5,-84(s0)
20013692:	c78d                	beqz	a5,200136bc <metal_lc4_interrupt_vector_handler+0x6c>
/home/nicoladgg/wsFreedomStudio/sifive_hifive1_revb_hello/freedom-metal/src/drivers/riscv_cpu.c:235 (discriminator 1)
20013694:	fac42503          	lw	a0,-84(s0)
20013698:	f28ff0ef          	jal	ra,20012dc0 <__metal_driver_cpu_interrupt_controller>
2001369c:	faa42423          	sw	a0,-88(s0)
200136a0:	fa842783          	lw	a5,-88(s0)
200136a4:	2787a783          	lw	a5,632(a5)
200136a8:	faf42223          	sw	a5,-92(s0)
200136ac:	fa842783          	lw	a5,-88(s0)
200136b0:	2707a783          	lw	a5,624(a5)
200136b4:	fa442583          	lw	a1,-92(s0)
200136b8:	4551                	li	a0,20
200136ba:	9782                	jalr	a5
/home/nicoladgg/wsFreedomStudio/sifive_hifive1_revb_hello/freedom-metal/src/drivers/riscv_cpu.c:236
200136bc:	0001                	nop
200136be:	40f6                	lw	ra,92(sp)
200136c0:	42e6                	lw	t0,88(sp)
200136c2:	4356                	lw	t1,84(sp)
200136c4:	43c6                	lw	t2,80(sp)
200136c6:	4436                	lw	s0,76(sp)
200136c8:	4526                	lw	a0,72(sp)
200136ca:	4596                	lw	a1,68(sp)
200136cc:	4606                	lw	a2,64(sp)
200136ce:	56f2                	lw	a3,60(sp)
200136d0:	5762                	lw	a4,56(sp)
200136d2:	57d2                	lw	a5,52(sp)
200136d4:	5842                	lw	a6,48(sp)
200136d6:	58b2                	lw	a7,44(sp)
200136d8:	5e22                	lw	t3,40(sp)
200136da:	5e92                	lw	t4,36(sp)
200136dc:	5f02                	lw	t5,32(sp)
200136de:	4ff2                	lw	t6,28(sp)
200136e0:	6125                	addi	sp,sp,96
200136e2:	30200073          	mret

200136e6 <metal_lc5_interrupt_vector_handler>:
metal_lc5_interrupt_vector_handler():
/home/nicoladgg/wsFreedomStudio/sifive_hifive1_revb_hello/freedom-metal/src/drivers/riscv_cpu.c:239
200136e6:	711d                	addi	sp,sp,-96
200136e8:	ce86                	sw	ra,92(sp)
200136ea:	cc96                	sw	t0,88(sp)
200136ec:	ca9a                	sw	t1,84(sp)
200136ee:	c89e                	sw	t2,80(sp)
200136f0:	c6a2                	sw	s0,76(sp)
200136f2:	c4aa                	sw	a0,72(sp)
200136f4:	c2ae                	sw	a1,68(sp)
200136f6:	c0b2                	sw	a2,64(sp)
200136f8:	de36                	sw	a3,60(sp)
200136fa:	dc3a                	sw	a4,56(sp)
200136fc:	da3e                	sw	a5,52(sp)
200136fe:	d842                	sw	a6,48(sp)
20013700:	d646                	sw	a7,44(sp)
20013702:	d472                	sw	t3,40(sp)
20013704:	d276                	sw	t4,36(sp)
20013706:	d07a                	sw	t5,32(sp)
20013708:	ce7e                	sw	t6,28(sp)
2001370a:	1080                	addi	s0,sp,96
/home/nicoladgg/wsFreedomStudio/sifive_hifive1_revb_hello/freedom-metal/src/drivers/riscv_cpu.c:240
2001370c:	f32ff0ef          	jal	ra,20012e3e <__metal_myhart_id>
20013710:	872a                	mv	a4,a0
20013712:	800017b7          	lui	a5,0x80001
20013716:	070a                	slli	a4,a4,0x2
20013718:	aa878793          	addi	a5,a5,-1368 # 80000aa8 <metal_segment_heap_target_end+0xfffff328>
2001371c:	97ba                	add	a5,a5,a4
2001371e:	439c                	lw	a5,0(a5)
20013720:	faf42623          	sw	a5,-84(s0)
20013724:	fac42783          	lw	a5,-84(s0)
20013728:	c78d                	beqz	a5,20013752 <metal_lc5_interrupt_vector_handler+0x6c>
/home/nicoladgg/wsFreedomStudio/sifive_hifive1_revb_hello/freedom-metal/src/drivers/riscv_cpu.c:240 (discriminator 1)
2001372a:	fac42503          	lw	a0,-84(s0)
2001372e:	e92ff0ef          	jal	ra,20012dc0 <__metal_driver_cpu_interrupt_controller>
20013732:	faa42423          	sw	a0,-88(s0)
20013736:	fa842783          	lw	a5,-88(s0)
2001373a:	2907a783          	lw	a5,656(a5)
2001373e:	faf42223          	sw	a5,-92(s0)
20013742:	fa842783          	lw	a5,-88(s0)
20013746:	2887a783          	lw	a5,648(a5)
2001374a:	fa442583          	lw	a1,-92(s0)
2001374e:	4555                	li	a0,21
20013750:	9782                	jalr	a5
/home/nicoladgg/wsFreedomStudio/sifive_hifive1_revb_hello/freedom-metal/src/drivers/riscv_cpu.c:241
20013752:	0001                	nop
20013754:	40f6                	lw	ra,92(sp)
20013756:	42e6                	lw	t0,88(sp)
20013758:	4356                	lw	t1,84(sp)
2001375a:	43c6                	lw	t2,80(sp)
2001375c:	4436                	lw	s0,76(sp)
2001375e:	4526                	lw	a0,72(sp)
20013760:	4596                	lw	a1,68(sp)
20013762:	4606                	lw	a2,64(sp)
20013764:	56f2                	lw	a3,60(sp)
20013766:	5762                	lw	a4,56(sp)
20013768:	57d2                	lw	a5,52(sp)
2001376a:	5842                	lw	a6,48(sp)
2001376c:	58b2                	lw	a7,44(sp)
2001376e:	5e22                	lw	t3,40(sp)
20013770:	5e92                	lw	t4,36(sp)
20013772:	5f02                	lw	t5,32(sp)
20013774:	4ff2                	lw	t6,28(sp)
20013776:	6125                	addi	sp,sp,96
20013778:	30200073          	mret

2001377c <metal_lc6_interrupt_vector_handler>:
metal_lc6_interrupt_vector_handler():
/home/nicoladgg/wsFreedomStudio/sifive_hifive1_revb_hello/freedom-metal/src/drivers/riscv_cpu.c:244
2001377c:	711d                	addi	sp,sp,-96
2001377e:	ce86                	sw	ra,92(sp)
20013780:	cc96                	sw	t0,88(sp)
20013782:	ca9a                	sw	t1,84(sp)
20013784:	c89e                	sw	t2,80(sp)
20013786:	c6a2                	sw	s0,76(sp)
20013788:	c4aa                	sw	a0,72(sp)
2001378a:	c2ae                	sw	a1,68(sp)
2001378c:	c0b2                	sw	a2,64(sp)
2001378e:	de36                	sw	a3,60(sp)
20013790:	dc3a                	sw	a4,56(sp)
20013792:	da3e                	sw	a5,52(sp)
20013794:	d842                	sw	a6,48(sp)
20013796:	d646                	sw	a7,44(sp)
20013798:	d472                	sw	t3,40(sp)
2001379a:	d276                	sw	t4,36(sp)
2001379c:	d07a                	sw	t5,32(sp)
2001379e:	ce7e                	sw	t6,28(sp)
200137a0:	1080                	addi	s0,sp,96
/home/nicoladgg/wsFreedomStudio/sifive_hifive1_revb_hello/freedom-metal/src/drivers/riscv_cpu.c:245
200137a2:	e9cff0ef          	jal	ra,20012e3e <__metal_myhart_id>
200137a6:	872a                	mv	a4,a0
200137a8:	800017b7          	lui	a5,0x80001
200137ac:	070a                	slli	a4,a4,0x2
200137ae:	aa878793          	addi	a5,a5,-1368 # 80000aa8 <metal_segment_heap_target_end+0xfffff328>
200137b2:	97ba                	add	a5,a5,a4
200137b4:	439c                	lw	a5,0(a5)
200137b6:	faf42623          	sw	a5,-84(s0)
200137ba:	fac42783          	lw	a5,-84(s0)
200137be:	c78d                	beqz	a5,200137e8 <metal_lc6_interrupt_vector_handler+0x6c>
/home/nicoladgg/wsFreedomStudio/sifive_hifive1_revb_hello/freedom-metal/src/drivers/riscv_cpu.c:245 (discriminator 1)
200137c0:	fac42503          	lw	a0,-84(s0)
200137c4:	dfcff0ef          	jal	ra,20012dc0 <__metal_driver_cpu_interrupt_controller>
200137c8:	faa42423          	sw	a0,-88(s0)
200137cc:	fa842783          	lw	a5,-88(s0)
200137d0:	2a87a783          	lw	a5,680(a5)
200137d4:	faf42223          	sw	a5,-92(s0)
200137d8:	fa842783          	lw	a5,-88(s0)
200137dc:	2a07a783          	lw	a5,672(a5)
200137e0:	fa442583          	lw	a1,-92(s0)
200137e4:	4559                	li	a0,22
200137e6:	9782                	jalr	a5
/home/nicoladgg/wsFreedomStudio/sifive_hifive1_revb_hello/freedom-metal/src/drivers/riscv_cpu.c:246
200137e8:	0001                	nop
200137ea:	40f6                	lw	ra,92(sp)
200137ec:	42e6                	lw	t0,88(sp)
200137ee:	4356                	lw	t1,84(sp)
200137f0:	43c6                	lw	t2,80(sp)
200137f2:	4436                	lw	s0,76(sp)
200137f4:	4526                	lw	a0,72(sp)
200137f6:	4596                	lw	a1,68(sp)
200137f8:	4606                	lw	a2,64(sp)
200137fa:	56f2                	lw	a3,60(sp)
200137fc:	5762                	lw	a4,56(sp)
200137fe:	57d2                	lw	a5,52(sp)
20013800:	5842                	lw	a6,48(sp)
20013802:	58b2                	lw	a7,44(sp)
20013804:	5e22                	lw	t3,40(sp)
20013806:	5e92                	lw	t4,36(sp)
20013808:	5f02                	lw	t5,32(sp)
2001380a:	4ff2                	lw	t6,28(sp)
2001380c:	6125                	addi	sp,sp,96
2001380e:	30200073          	mret

20013812 <metal_lc7_interrupt_vector_handler>:
metal_lc7_interrupt_vector_handler():
/home/nicoladgg/wsFreedomStudio/sifive_hifive1_revb_hello/freedom-metal/src/drivers/riscv_cpu.c:249
20013812:	711d                	addi	sp,sp,-96
20013814:	ce86                	sw	ra,92(sp)
20013816:	cc96                	sw	t0,88(sp)
20013818:	ca9a                	sw	t1,84(sp)
2001381a:	c89e                	sw	t2,80(sp)
2001381c:	c6a2                	sw	s0,76(sp)
2001381e:	c4aa                	sw	a0,72(sp)
20013820:	c2ae                	sw	a1,68(sp)
20013822:	c0b2                	sw	a2,64(sp)
20013824:	de36                	sw	a3,60(sp)
20013826:	dc3a                	sw	a4,56(sp)
20013828:	da3e                	sw	a5,52(sp)
2001382a:	d842                	sw	a6,48(sp)
2001382c:	d646                	sw	a7,44(sp)
2001382e:	d472                	sw	t3,40(sp)
20013830:	d276                	sw	t4,36(sp)
20013832:	d07a                	sw	t5,32(sp)
20013834:	ce7e                	sw	t6,28(sp)
20013836:	1080                	addi	s0,sp,96
/home/nicoladgg/wsFreedomStudio/sifive_hifive1_revb_hello/freedom-metal/src/drivers/riscv_cpu.c:250
20013838:	e06ff0ef          	jal	ra,20012e3e <__metal_myhart_id>
2001383c:	872a                	mv	a4,a0
2001383e:	800017b7          	lui	a5,0x80001
20013842:	070a                	slli	a4,a4,0x2
20013844:	aa878793          	addi	a5,a5,-1368 # 80000aa8 <metal_segment_heap_target_end+0xfffff328>
20013848:	97ba                	add	a5,a5,a4
2001384a:	439c                	lw	a5,0(a5)
2001384c:	faf42623          	sw	a5,-84(s0)
20013850:	fac42783          	lw	a5,-84(s0)
20013854:	c78d                	beqz	a5,2001387e <metal_lc7_interrupt_vector_handler+0x6c>
/home/nicoladgg/wsFreedomStudio/sifive_hifive1_revb_hello/freedom-metal/src/drivers/riscv_cpu.c:250 (discriminator 1)
20013856:	fac42503          	lw	a0,-84(s0)
2001385a:	d66ff0ef          	jal	ra,20012dc0 <__metal_driver_cpu_interrupt_controller>
2001385e:	faa42423          	sw	a0,-88(s0)
20013862:	fa842783          	lw	a5,-88(s0)
20013866:	2c07a783          	lw	a5,704(a5)
2001386a:	faf42223          	sw	a5,-92(s0)
2001386e:	fa842783          	lw	a5,-88(s0)
20013872:	2b87a783          	lw	a5,696(a5)
20013876:	fa442583          	lw	a1,-92(s0)
2001387a:	455d                	li	a0,23
2001387c:	9782                	jalr	a5
/home/nicoladgg/wsFreedomStudio/sifive_hifive1_revb_hello/freedom-metal/src/drivers/riscv_cpu.c:251
2001387e:	0001                	nop
20013880:	40f6                	lw	ra,92(sp)
20013882:	42e6                	lw	t0,88(sp)
20013884:	4356                	lw	t1,84(sp)
20013886:	43c6                	lw	t2,80(sp)
20013888:	4436                	lw	s0,76(sp)
2001388a:	4526                	lw	a0,72(sp)
2001388c:	4596                	lw	a1,68(sp)
2001388e:	4606                	lw	a2,64(sp)
20013890:	56f2                	lw	a3,60(sp)
20013892:	5762                	lw	a4,56(sp)
20013894:	57d2                	lw	a5,52(sp)
20013896:	5842                	lw	a6,48(sp)
20013898:	58b2                	lw	a7,44(sp)
2001389a:	5e22                	lw	t3,40(sp)
2001389c:	5e92                	lw	t4,36(sp)
2001389e:	5f02                	lw	t5,32(sp)
200138a0:	4ff2                	lw	t6,28(sp)
200138a2:	6125                	addi	sp,sp,96
200138a4:	30200073          	mret

200138a8 <metal_lc8_interrupt_vector_handler>:
metal_lc8_interrupt_vector_handler():
/home/nicoladgg/wsFreedomStudio/sifive_hifive1_revb_hello/freedom-metal/src/drivers/riscv_cpu.c:254
200138a8:	711d                	addi	sp,sp,-96
200138aa:	ce86                	sw	ra,92(sp)
200138ac:	cc96                	sw	t0,88(sp)
200138ae:	ca9a                	sw	t1,84(sp)
200138b0:	c89e                	sw	t2,80(sp)
200138b2:	c6a2                	sw	s0,76(sp)
200138b4:	c4aa                	sw	a0,72(sp)
200138b6:	c2ae                	sw	a1,68(sp)
200138b8:	c0b2                	sw	a2,64(sp)
200138ba:	de36                	sw	a3,60(sp)
200138bc:	dc3a                	sw	a4,56(sp)
200138be:	da3e                	sw	a5,52(sp)
200138c0:	d842                	sw	a6,48(sp)
200138c2:	d646                	sw	a7,44(sp)
200138c4:	d472                	sw	t3,40(sp)
200138c6:	d276                	sw	t4,36(sp)
200138c8:	d07a                	sw	t5,32(sp)
200138ca:	ce7e                	sw	t6,28(sp)
200138cc:	1080                	addi	s0,sp,96
/home/nicoladgg/wsFreedomStudio/sifive_hifive1_revb_hello/freedom-metal/src/drivers/riscv_cpu.c:255
200138ce:	d70ff0ef          	jal	ra,20012e3e <__metal_myhart_id>
200138d2:	872a                	mv	a4,a0
200138d4:	800017b7          	lui	a5,0x80001
200138d8:	070a                	slli	a4,a4,0x2
200138da:	aa878793          	addi	a5,a5,-1368 # 80000aa8 <metal_segment_heap_target_end+0xfffff328>
200138de:	97ba                	add	a5,a5,a4
200138e0:	439c                	lw	a5,0(a5)
200138e2:	faf42623          	sw	a5,-84(s0)
200138e6:	fac42783          	lw	a5,-84(s0)
200138ea:	c78d                	beqz	a5,20013914 <metal_lc8_interrupt_vector_handler+0x6c>
/home/nicoladgg/wsFreedomStudio/sifive_hifive1_revb_hello/freedom-metal/src/drivers/riscv_cpu.c:255 (discriminator 1)
200138ec:	fac42503          	lw	a0,-84(s0)
200138f0:	cd0ff0ef          	jal	ra,20012dc0 <__metal_driver_cpu_interrupt_controller>
200138f4:	faa42423          	sw	a0,-88(s0)
200138f8:	fa842783          	lw	a5,-88(s0)
200138fc:	2d87a783          	lw	a5,728(a5)
20013900:	faf42223          	sw	a5,-92(s0)
20013904:	fa842783          	lw	a5,-88(s0)
20013908:	2d07a783          	lw	a5,720(a5)
2001390c:	fa442583          	lw	a1,-92(s0)
20013910:	4561                	li	a0,24
20013912:	9782                	jalr	a5
/home/nicoladgg/wsFreedomStudio/sifive_hifive1_revb_hello/freedom-metal/src/drivers/riscv_cpu.c:256
20013914:	0001                	nop
20013916:	40f6                	lw	ra,92(sp)
20013918:	42e6                	lw	t0,88(sp)
2001391a:	4356                	lw	t1,84(sp)
2001391c:	43c6                	lw	t2,80(sp)
2001391e:	4436                	lw	s0,76(sp)
20013920:	4526                	lw	a0,72(sp)
20013922:	4596                	lw	a1,68(sp)
20013924:	4606                	lw	a2,64(sp)
20013926:	56f2                	lw	a3,60(sp)
20013928:	5762                	lw	a4,56(sp)
2001392a:	57d2                	lw	a5,52(sp)
2001392c:	5842                	lw	a6,48(sp)
2001392e:	58b2                	lw	a7,44(sp)
20013930:	5e22                	lw	t3,40(sp)
20013932:	5e92                	lw	t4,36(sp)
20013934:	5f02                	lw	t5,32(sp)
20013936:	4ff2                	lw	t6,28(sp)
20013938:	6125                	addi	sp,sp,96
2001393a:	30200073          	mret

2001393e <metal_lc9_interrupt_vector_handler>:
metal_lc9_interrupt_vector_handler():
/home/nicoladgg/wsFreedomStudio/sifive_hifive1_revb_hello/freedom-metal/src/drivers/riscv_cpu.c:259
2001393e:	711d                	addi	sp,sp,-96
20013940:	ce86                	sw	ra,92(sp)
20013942:	cc96                	sw	t0,88(sp)
20013944:	ca9a                	sw	t1,84(sp)
20013946:	c89e                	sw	t2,80(sp)
20013948:	c6a2                	sw	s0,76(sp)
2001394a:	c4aa                	sw	a0,72(sp)
2001394c:	c2ae                	sw	a1,68(sp)
2001394e:	c0b2                	sw	a2,64(sp)
20013950:	de36                	sw	a3,60(sp)
20013952:	dc3a                	sw	a4,56(sp)
20013954:	da3e                	sw	a5,52(sp)
20013956:	d842                	sw	a6,48(sp)
20013958:	d646                	sw	a7,44(sp)
2001395a:	d472                	sw	t3,40(sp)
2001395c:	d276                	sw	t4,36(sp)
2001395e:	d07a                	sw	t5,32(sp)
20013960:	ce7e                	sw	t6,28(sp)
20013962:	1080                	addi	s0,sp,96
/home/nicoladgg/wsFreedomStudio/sifive_hifive1_revb_hello/freedom-metal/src/drivers/riscv_cpu.c:260
20013964:	cdaff0ef          	jal	ra,20012e3e <__metal_myhart_id>
20013968:	872a                	mv	a4,a0
2001396a:	800017b7          	lui	a5,0x80001
2001396e:	070a                	slli	a4,a4,0x2
20013970:	aa878793          	addi	a5,a5,-1368 # 80000aa8 <metal_segment_heap_target_end+0xfffff328>
20013974:	97ba                	add	a5,a5,a4
20013976:	439c                	lw	a5,0(a5)
20013978:	faf42623          	sw	a5,-84(s0)
2001397c:	fac42783          	lw	a5,-84(s0)
20013980:	c78d                	beqz	a5,200139aa <metal_lc9_interrupt_vector_handler+0x6c>
/home/nicoladgg/wsFreedomStudio/sifive_hifive1_revb_hello/freedom-metal/src/drivers/riscv_cpu.c:260 (discriminator 1)
20013982:	fac42503          	lw	a0,-84(s0)
20013986:	c3aff0ef          	jal	ra,20012dc0 <__metal_driver_cpu_interrupt_controller>
2001398a:	faa42423          	sw	a0,-88(s0)
2001398e:	fa842783          	lw	a5,-88(s0)
20013992:	2f07a783          	lw	a5,752(a5)
20013996:	faf42223          	sw	a5,-92(s0)
2001399a:	fa842783          	lw	a5,-88(s0)
2001399e:	2e87a783          	lw	a5,744(a5)
200139a2:	fa442583          	lw	a1,-92(s0)
200139a6:	4565                	li	a0,25
200139a8:	9782                	jalr	a5
/home/nicoladgg/wsFreedomStudio/sifive_hifive1_revb_hello/freedom-metal/src/drivers/riscv_cpu.c:261
200139aa:	0001                	nop
200139ac:	40f6                	lw	ra,92(sp)
200139ae:	42e6                	lw	t0,88(sp)
200139b0:	4356                	lw	t1,84(sp)
200139b2:	43c6                	lw	t2,80(sp)
200139b4:	4436                	lw	s0,76(sp)
200139b6:	4526                	lw	a0,72(sp)
200139b8:	4596                	lw	a1,68(sp)
200139ba:	4606                	lw	a2,64(sp)
200139bc:	56f2                	lw	a3,60(sp)
200139be:	5762                	lw	a4,56(sp)
200139c0:	57d2                	lw	a5,52(sp)
200139c2:	5842                	lw	a6,48(sp)
200139c4:	58b2                	lw	a7,44(sp)
200139c6:	5e22                	lw	t3,40(sp)
200139c8:	5e92                	lw	t4,36(sp)
200139ca:	5f02                	lw	t5,32(sp)
200139cc:	4ff2                	lw	t6,28(sp)
200139ce:	6125                	addi	sp,sp,96
200139d0:	30200073          	mret

200139d4 <metal_lc10_interrupt_vector_handler>:
metal_lc10_interrupt_vector_handler():
/home/nicoladgg/wsFreedomStudio/sifive_hifive1_revb_hello/freedom-metal/src/drivers/riscv_cpu.c:265
200139d4:	711d                	addi	sp,sp,-96
200139d6:	ce86                	sw	ra,92(sp)
200139d8:	cc96                	sw	t0,88(sp)
200139da:	ca9a                	sw	t1,84(sp)
200139dc:	c89e                	sw	t2,80(sp)
200139de:	c6a2                	sw	s0,76(sp)
200139e0:	c4aa                	sw	a0,72(sp)
200139e2:	c2ae                	sw	a1,68(sp)
200139e4:	c0b2                	sw	a2,64(sp)
200139e6:	de36                	sw	a3,60(sp)
200139e8:	dc3a                	sw	a4,56(sp)
200139ea:	da3e                	sw	a5,52(sp)
200139ec:	d842                	sw	a6,48(sp)
200139ee:	d646                	sw	a7,44(sp)
200139f0:	d472                	sw	t3,40(sp)
200139f2:	d276                	sw	t4,36(sp)
200139f4:	d07a                	sw	t5,32(sp)
200139f6:	ce7e                	sw	t6,28(sp)
200139f8:	1080                	addi	s0,sp,96
/home/nicoladgg/wsFreedomStudio/sifive_hifive1_revb_hello/freedom-metal/src/drivers/riscv_cpu.c:266
200139fa:	c44ff0ef          	jal	ra,20012e3e <__metal_myhart_id>
200139fe:	872a                	mv	a4,a0
20013a00:	800017b7          	lui	a5,0x80001
20013a04:	070a                	slli	a4,a4,0x2
20013a06:	aa878793          	addi	a5,a5,-1368 # 80000aa8 <metal_segment_heap_target_end+0xfffff328>
20013a0a:	97ba                	add	a5,a5,a4
20013a0c:	439c                	lw	a5,0(a5)
20013a0e:	faf42623          	sw	a5,-84(s0)
20013a12:	fac42783          	lw	a5,-84(s0)
20013a16:	c78d                	beqz	a5,20013a40 <metal_lc10_interrupt_vector_handler+0x6c>
/home/nicoladgg/wsFreedomStudio/sifive_hifive1_revb_hello/freedom-metal/src/drivers/riscv_cpu.c:266 (discriminator 1)
20013a18:	fac42503          	lw	a0,-84(s0)
20013a1c:	ba4ff0ef          	jal	ra,20012dc0 <__metal_driver_cpu_interrupt_controller>
20013a20:	faa42423          	sw	a0,-88(s0)
20013a24:	fa842783          	lw	a5,-88(s0)
20013a28:	3087a783          	lw	a5,776(a5)
20013a2c:	faf42223          	sw	a5,-92(s0)
20013a30:	fa842783          	lw	a5,-88(s0)
20013a34:	3007a783          	lw	a5,768(a5)
20013a38:	fa442583          	lw	a1,-92(s0)
20013a3c:	4569                	li	a0,26
20013a3e:	9782                	jalr	a5
/home/nicoladgg/wsFreedomStudio/sifive_hifive1_revb_hello/freedom-metal/src/drivers/riscv_cpu.c:267
20013a40:	0001                	nop
20013a42:	40f6                	lw	ra,92(sp)
20013a44:	42e6                	lw	t0,88(sp)
20013a46:	4356                	lw	t1,84(sp)
20013a48:	43c6                	lw	t2,80(sp)
20013a4a:	4436                	lw	s0,76(sp)
20013a4c:	4526                	lw	a0,72(sp)
20013a4e:	4596                	lw	a1,68(sp)
20013a50:	4606                	lw	a2,64(sp)
20013a52:	56f2                	lw	a3,60(sp)
20013a54:	5762                	lw	a4,56(sp)
20013a56:	57d2                	lw	a5,52(sp)
20013a58:	5842                	lw	a6,48(sp)
20013a5a:	58b2                	lw	a7,44(sp)
20013a5c:	5e22                	lw	t3,40(sp)
20013a5e:	5e92                	lw	t4,36(sp)
20013a60:	5f02                	lw	t5,32(sp)
20013a62:	4ff2                	lw	t6,28(sp)
20013a64:	6125                	addi	sp,sp,96
20013a66:	30200073          	mret

20013a6a <metal_lc11_interrupt_vector_handler>:
metal_lc11_interrupt_vector_handler():
/home/nicoladgg/wsFreedomStudio/sifive_hifive1_revb_hello/freedom-metal/src/drivers/riscv_cpu.c:271
20013a6a:	711d                	addi	sp,sp,-96
20013a6c:	ce86                	sw	ra,92(sp)
20013a6e:	cc96                	sw	t0,88(sp)
20013a70:	ca9a                	sw	t1,84(sp)
20013a72:	c89e                	sw	t2,80(sp)
20013a74:	c6a2                	sw	s0,76(sp)
20013a76:	c4aa                	sw	a0,72(sp)
20013a78:	c2ae                	sw	a1,68(sp)
20013a7a:	c0b2                	sw	a2,64(sp)
20013a7c:	de36                	sw	a3,60(sp)
20013a7e:	dc3a                	sw	a4,56(sp)
20013a80:	da3e                	sw	a5,52(sp)
20013a82:	d842                	sw	a6,48(sp)
20013a84:	d646                	sw	a7,44(sp)
20013a86:	d472                	sw	t3,40(sp)
20013a88:	d276                	sw	t4,36(sp)
20013a8a:	d07a                	sw	t5,32(sp)
20013a8c:	ce7e                	sw	t6,28(sp)
20013a8e:	1080                	addi	s0,sp,96
/home/nicoladgg/wsFreedomStudio/sifive_hifive1_revb_hello/freedom-metal/src/drivers/riscv_cpu.c:272
20013a90:	baeff0ef          	jal	ra,20012e3e <__metal_myhart_id>
20013a94:	872a                	mv	a4,a0
20013a96:	800017b7          	lui	a5,0x80001
20013a9a:	070a                	slli	a4,a4,0x2
20013a9c:	aa878793          	addi	a5,a5,-1368 # 80000aa8 <metal_segment_heap_target_end+0xfffff328>
20013aa0:	97ba                	add	a5,a5,a4
20013aa2:	439c                	lw	a5,0(a5)
20013aa4:	faf42623          	sw	a5,-84(s0)
20013aa8:	fac42783          	lw	a5,-84(s0)
20013aac:	c78d                	beqz	a5,20013ad6 <metal_lc11_interrupt_vector_handler+0x6c>
/home/nicoladgg/wsFreedomStudio/sifive_hifive1_revb_hello/freedom-metal/src/drivers/riscv_cpu.c:272 (discriminator 1)
20013aae:	fac42503          	lw	a0,-84(s0)
20013ab2:	b0eff0ef          	jal	ra,20012dc0 <__metal_driver_cpu_interrupt_controller>
20013ab6:	faa42423          	sw	a0,-88(s0)
20013aba:	fa842783          	lw	a5,-88(s0)
20013abe:	3207a783          	lw	a5,800(a5)
20013ac2:	faf42223          	sw	a5,-92(s0)
20013ac6:	fa842783          	lw	a5,-88(s0)
20013aca:	3187a783          	lw	a5,792(a5)
20013ace:	fa442583          	lw	a1,-92(s0)
20013ad2:	456d                	li	a0,27
20013ad4:	9782                	jalr	a5
/home/nicoladgg/wsFreedomStudio/sifive_hifive1_revb_hello/freedom-metal/src/drivers/riscv_cpu.c:273
20013ad6:	0001                	nop
20013ad8:	40f6                	lw	ra,92(sp)
20013ada:	42e6                	lw	t0,88(sp)
20013adc:	4356                	lw	t1,84(sp)
20013ade:	43c6                	lw	t2,80(sp)
20013ae0:	4436                	lw	s0,76(sp)
20013ae2:	4526                	lw	a0,72(sp)
20013ae4:	4596                	lw	a1,68(sp)
20013ae6:	4606                	lw	a2,64(sp)
20013ae8:	56f2                	lw	a3,60(sp)
20013aea:	5762                	lw	a4,56(sp)
20013aec:	57d2                	lw	a5,52(sp)
20013aee:	5842                	lw	a6,48(sp)
20013af0:	58b2                	lw	a7,44(sp)
20013af2:	5e22                	lw	t3,40(sp)
20013af4:	5e92                	lw	t4,36(sp)
20013af6:	5f02                	lw	t5,32(sp)
20013af8:	4ff2                	lw	t6,28(sp)
20013afa:	6125                	addi	sp,sp,96
20013afc:	30200073          	mret

20013b00 <metal_lc12_interrupt_vector_handler>:
metal_lc12_interrupt_vector_handler():
/home/nicoladgg/wsFreedomStudio/sifive_hifive1_revb_hello/freedom-metal/src/drivers/riscv_cpu.c:277
20013b00:	711d                	addi	sp,sp,-96
20013b02:	ce86                	sw	ra,92(sp)
20013b04:	cc96                	sw	t0,88(sp)
20013b06:	ca9a                	sw	t1,84(sp)
20013b08:	c89e                	sw	t2,80(sp)
20013b0a:	c6a2                	sw	s0,76(sp)
20013b0c:	c4aa                	sw	a0,72(sp)
20013b0e:	c2ae                	sw	a1,68(sp)
20013b10:	c0b2                	sw	a2,64(sp)
20013b12:	de36                	sw	a3,60(sp)
20013b14:	dc3a                	sw	a4,56(sp)
20013b16:	da3e                	sw	a5,52(sp)
20013b18:	d842                	sw	a6,48(sp)
20013b1a:	d646                	sw	a7,44(sp)
20013b1c:	d472                	sw	t3,40(sp)
20013b1e:	d276                	sw	t4,36(sp)
20013b20:	d07a                	sw	t5,32(sp)
20013b22:	ce7e                	sw	t6,28(sp)
20013b24:	1080                	addi	s0,sp,96
/home/nicoladgg/wsFreedomStudio/sifive_hifive1_revb_hello/freedom-metal/src/drivers/riscv_cpu.c:278
20013b26:	b18ff0ef          	jal	ra,20012e3e <__metal_myhart_id>
20013b2a:	872a                	mv	a4,a0
20013b2c:	800017b7          	lui	a5,0x80001
20013b30:	070a                	slli	a4,a4,0x2
20013b32:	aa878793          	addi	a5,a5,-1368 # 80000aa8 <metal_segment_heap_target_end+0xfffff328>
20013b36:	97ba                	add	a5,a5,a4
20013b38:	439c                	lw	a5,0(a5)
20013b3a:	faf42623          	sw	a5,-84(s0)
20013b3e:	fac42783          	lw	a5,-84(s0)
20013b42:	c78d                	beqz	a5,20013b6c <metal_lc12_interrupt_vector_handler+0x6c>
/home/nicoladgg/wsFreedomStudio/sifive_hifive1_revb_hello/freedom-metal/src/drivers/riscv_cpu.c:278 (discriminator 1)
20013b44:	fac42503          	lw	a0,-84(s0)
20013b48:	a78ff0ef          	jal	ra,20012dc0 <__metal_driver_cpu_interrupt_controller>
20013b4c:	faa42423          	sw	a0,-88(s0)
20013b50:	fa842783          	lw	a5,-88(s0)
20013b54:	3387a783          	lw	a5,824(a5)
20013b58:	faf42223          	sw	a5,-92(s0)
20013b5c:	fa842783          	lw	a5,-88(s0)
20013b60:	3307a783          	lw	a5,816(a5)
20013b64:	fa442583          	lw	a1,-92(s0)
20013b68:	4571                	li	a0,28
20013b6a:	9782                	jalr	a5
/home/nicoladgg/wsFreedomStudio/sifive_hifive1_revb_hello/freedom-metal/src/drivers/riscv_cpu.c:279
20013b6c:	0001                	nop
20013b6e:	40f6                	lw	ra,92(sp)
20013b70:	42e6                	lw	t0,88(sp)
20013b72:	4356                	lw	t1,84(sp)
20013b74:	43c6                	lw	t2,80(sp)
20013b76:	4436                	lw	s0,76(sp)
20013b78:	4526                	lw	a0,72(sp)
20013b7a:	4596                	lw	a1,68(sp)
20013b7c:	4606                	lw	a2,64(sp)
20013b7e:	56f2                	lw	a3,60(sp)
20013b80:	5762                	lw	a4,56(sp)
20013b82:	57d2                	lw	a5,52(sp)
20013b84:	5842                	lw	a6,48(sp)
20013b86:	58b2                	lw	a7,44(sp)
20013b88:	5e22                	lw	t3,40(sp)
20013b8a:	5e92                	lw	t4,36(sp)
20013b8c:	5f02                	lw	t5,32(sp)
20013b8e:	4ff2                	lw	t6,28(sp)
20013b90:	6125                	addi	sp,sp,96
20013b92:	30200073          	mret

20013b96 <metal_lc13_interrupt_vector_handler>:
metal_lc13_interrupt_vector_handler():
/home/nicoladgg/wsFreedomStudio/sifive_hifive1_revb_hello/freedom-metal/src/drivers/riscv_cpu.c:283
20013b96:	711d                	addi	sp,sp,-96
20013b98:	ce86                	sw	ra,92(sp)
20013b9a:	cc96                	sw	t0,88(sp)
20013b9c:	ca9a                	sw	t1,84(sp)
20013b9e:	c89e                	sw	t2,80(sp)
20013ba0:	c6a2                	sw	s0,76(sp)
20013ba2:	c4aa                	sw	a0,72(sp)
20013ba4:	c2ae                	sw	a1,68(sp)
20013ba6:	c0b2                	sw	a2,64(sp)
20013ba8:	de36                	sw	a3,60(sp)
20013baa:	dc3a                	sw	a4,56(sp)
20013bac:	da3e                	sw	a5,52(sp)
20013bae:	d842                	sw	a6,48(sp)
20013bb0:	d646                	sw	a7,44(sp)
20013bb2:	d472                	sw	t3,40(sp)
20013bb4:	d276                	sw	t4,36(sp)
20013bb6:	d07a                	sw	t5,32(sp)
20013bb8:	ce7e                	sw	t6,28(sp)
20013bba:	1080                	addi	s0,sp,96
/home/nicoladgg/wsFreedomStudio/sifive_hifive1_revb_hello/freedom-metal/src/drivers/riscv_cpu.c:284
20013bbc:	a82ff0ef          	jal	ra,20012e3e <__metal_myhart_id>
20013bc0:	872a                	mv	a4,a0
20013bc2:	800017b7          	lui	a5,0x80001
20013bc6:	070a                	slli	a4,a4,0x2
20013bc8:	aa878793          	addi	a5,a5,-1368 # 80000aa8 <metal_segment_heap_target_end+0xfffff328>
20013bcc:	97ba                	add	a5,a5,a4
20013bce:	439c                	lw	a5,0(a5)
20013bd0:	faf42623          	sw	a5,-84(s0)
20013bd4:	fac42783          	lw	a5,-84(s0)
20013bd8:	c78d                	beqz	a5,20013c02 <metal_lc13_interrupt_vector_handler+0x6c>
/home/nicoladgg/wsFreedomStudio/sifive_hifive1_revb_hello/freedom-metal/src/drivers/riscv_cpu.c:284 (discriminator 1)
20013bda:	fac42503          	lw	a0,-84(s0)
20013bde:	9e2ff0ef          	jal	ra,20012dc0 <__metal_driver_cpu_interrupt_controller>
20013be2:	faa42423          	sw	a0,-88(s0)
20013be6:	fa842783          	lw	a5,-88(s0)
20013bea:	3507a783          	lw	a5,848(a5)
20013bee:	faf42223          	sw	a5,-92(s0)
20013bf2:	fa842783          	lw	a5,-88(s0)
20013bf6:	3487a783          	lw	a5,840(a5)
20013bfa:	fa442583          	lw	a1,-92(s0)
20013bfe:	4575                	li	a0,29
20013c00:	9782                	jalr	a5
/home/nicoladgg/wsFreedomStudio/sifive_hifive1_revb_hello/freedom-metal/src/drivers/riscv_cpu.c:285
20013c02:	0001                	nop
20013c04:	40f6                	lw	ra,92(sp)
20013c06:	42e6                	lw	t0,88(sp)
20013c08:	4356                	lw	t1,84(sp)
20013c0a:	43c6                	lw	t2,80(sp)
20013c0c:	4436                	lw	s0,76(sp)
20013c0e:	4526                	lw	a0,72(sp)
20013c10:	4596                	lw	a1,68(sp)
20013c12:	4606                	lw	a2,64(sp)
20013c14:	56f2                	lw	a3,60(sp)
20013c16:	5762                	lw	a4,56(sp)
20013c18:	57d2                	lw	a5,52(sp)
20013c1a:	5842                	lw	a6,48(sp)
20013c1c:	58b2                	lw	a7,44(sp)
20013c1e:	5e22                	lw	t3,40(sp)
20013c20:	5e92                	lw	t4,36(sp)
20013c22:	5f02                	lw	t5,32(sp)
20013c24:	4ff2                	lw	t6,28(sp)
20013c26:	6125                	addi	sp,sp,96
20013c28:	30200073          	mret

20013c2c <metal_lc14_interrupt_vector_handler>:
metal_lc14_interrupt_vector_handler():
/home/nicoladgg/wsFreedomStudio/sifive_hifive1_revb_hello/freedom-metal/src/drivers/riscv_cpu.c:289
20013c2c:	711d                	addi	sp,sp,-96
20013c2e:	ce86                	sw	ra,92(sp)
20013c30:	cc96                	sw	t0,88(sp)
20013c32:	ca9a                	sw	t1,84(sp)
20013c34:	c89e                	sw	t2,80(sp)
20013c36:	c6a2                	sw	s0,76(sp)
20013c38:	c4aa                	sw	a0,72(sp)
20013c3a:	c2ae                	sw	a1,68(sp)
20013c3c:	c0b2                	sw	a2,64(sp)
20013c3e:	de36                	sw	a3,60(sp)
20013c40:	dc3a                	sw	a4,56(sp)
20013c42:	da3e                	sw	a5,52(sp)
20013c44:	d842                	sw	a6,48(sp)
20013c46:	d646                	sw	a7,44(sp)
20013c48:	d472                	sw	t3,40(sp)
20013c4a:	d276                	sw	t4,36(sp)
20013c4c:	d07a                	sw	t5,32(sp)
20013c4e:	ce7e                	sw	t6,28(sp)
20013c50:	1080                	addi	s0,sp,96
/home/nicoladgg/wsFreedomStudio/sifive_hifive1_revb_hello/freedom-metal/src/drivers/riscv_cpu.c:290
20013c52:	9ecff0ef          	jal	ra,20012e3e <__metal_myhart_id>
20013c56:	872a                	mv	a4,a0
20013c58:	800017b7          	lui	a5,0x80001
20013c5c:	070a                	slli	a4,a4,0x2
20013c5e:	aa878793          	addi	a5,a5,-1368 # 80000aa8 <metal_segment_heap_target_end+0xfffff328>
20013c62:	97ba                	add	a5,a5,a4
20013c64:	439c                	lw	a5,0(a5)
20013c66:	faf42623          	sw	a5,-84(s0)
20013c6a:	fac42783          	lw	a5,-84(s0)
20013c6e:	c78d                	beqz	a5,20013c98 <metal_lc14_interrupt_vector_handler+0x6c>
/home/nicoladgg/wsFreedomStudio/sifive_hifive1_revb_hello/freedom-metal/src/drivers/riscv_cpu.c:290 (discriminator 1)
20013c70:	fac42503          	lw	a0,-84(s0)
20013c74:	94cff0ef          	jal	ra,20012dc0 <__metal_driver_cpu_interrupt_controller>
20013c78:	faa42423          	sw	a0,-88(s0)
20013c7c:	fa842783          	lw	a5,-88(s0)
20013c80:	3687a783          	lw	a5,872(a5)
20013c84:	faf42223          	sw	a5,-92(s0)
20013c88:	fa842783          	lw	a5,-88(s0)
20013c8c:	3607a783          	lw	a5,864(a5)
20013c90:	fa442583          	lw	a1,-92(s0)
20013c94:	4579                	li	a0,30
20013c96:	9782                	jalr	a5
/home/nicoladgg/wsFreedomStudio/sifive_hifive1_revb_hello/freedom-metal/src/drivers/riscv_cpu.c:291
20013c98:	0001                	nop
20013c9a:	40f6                	lw	ra,92(sp)
20013c9c:	42e6                	lw	t0,88(sp)
20013c9e:	4356                	lw	t1,84(sp)
20013ca0:	43c6                	lw	t2,80(sp)
20013ca2:	4436                	lw	s0,76(sp)
20013ca4:	4526                	lw	a0,72(sp)
20013ca6:	4596                	lw	a1,68(sp)
20013ca8:	4606                	lw	a2,64(sp)
20013caa:	56f2                	lw	a3,60(sp)
20013cac:	5762                	lw	a4,56(sp)
20013cae:	57d2                	lw	a5,52(sp)
20013cb0:	5842                	lw	a6,48(sp)
20013cb2:	58b2                	lw	a7,44(sp)
20013cb4:	5e22                	lw	t3,40(sp)
20013cb6:	5e92                	lw	t4,36(sp)
20013cb8:	5f02                	lw	t5,32(sp)
20013cba:	4ff2                	lw	t6,28(sp)
20013cbc:	6125                	addi	sp,sp,96
20013cbe:	30200073          	mret

20013cc2 <metal_lc15_interrupt_vector_handler>:
metal_lc15_interrupt_vector_handler():
/home/nicoladgg/wsFreedomStudio/sifive_hifive1_revb_hello/freedom-metal/src/drivers/riscv_cpu.c:295
20013cc2:	711d                	addi	sp,sp,-96
20013cc4:	ce86                	sw	ra,92(sp)
20013cc6:	cc96                	sw	t0,88(sp)
20013cc8:	ca9a                	sw	t1,84(sp)
20013cca:	c89e                	sw	t2,80(sp)
20013ccc:	c6a2                	sw	s0,76(sp)
20013cce:	c4aa                	sw	a0,72(sp)
20013cd0:	c2ae                	sw	a1,68(sp)
20013cd2:	c0b2                	sw	a2,64(sp)
20013cd4:	de36                	sw	a3,60(sp)
20013cd6:	dc3a                	sw	a4,56(sp)
20013cd8:	da3e                	sw	a5,52(sp)
20013cda:	d842                	sw	a6,48(sp)
20013cdc:	d646                	sw	a7,44(sp)
20013cde:	d472                	sw	t3,40(sp)
20013ce0:	d276                	sw	t4,36(sp)
20013ce2:	d07a                	sw	t5,32(sp)
20013ce4:	ce7e                	sw	t6,28(sp)
20013ce6:	1080                	addi	s0,sp,96
/home/nicoladgg/wsFreedomStudio/sifive_hifive1_revb_hello/freedom-metal/src/drivers/riscv_cpu.c:296
20013ce8:	956ff0ef          	jal	ra,20012e3e <__metal_myhart_id>
20013cec:	872a                	mv	a4,a0
20013cee:	800017b7          	lui	a5,0x80001
20013cf2:	070a                	slli	a4,a4,0x2
20013cf4:	aa878793          	addi	a5,a5,-1368 # 80000aa8 <metal_segment_heap_target_end+0xfffff328>
20013cf8:	97ba                	add	a5,a5,a4
20013cfa:	439c                	lw	a5,0(a5)
20013cfc:	faf42623          	sw	a5,-84(s0)
20013d00:	fac42783          	lw	a5,-84(s0)
20013d04:	c78d                	beqz	a5,20013d2e <metal_lc15_interrupt_vector_handler+0x6c>
/home/nicoladgg/wsFreedomStudio/sifive_hifive1_revb_hello/freedom-metal/src/drivers/riscv_cpu.c:296 (discriminator 1)
20013d06:	fac42503          	lw	a0,-84(s0)
20013d0a:	8b6ff0ef          	jal	ra,20012dc0 <__metal_driver_cpu_interrupt_controller>
20013d0e:	faa42423          	sw	a0,-88(s0)
20013d12:	fa842783          	lw	a5,-88(s0)
20013d16:	3807a783          	lw	a5,896(a5)
20013d1a:	faf42223          	sw	a5,-92(s0)
20013d1e:	fa842783          	lw	a5,-88(s0)
20013d22:	3787a783          	lw	a5,888(a5)
20013d26:	fa442583          	lw	a1,-92(s0)
20013d2a:	457d                	li	a0,31
20013d2c:	9782                	jalr	a5
/home/nicoladgg/wsFreedomStudio/sifive_hifive1_revb_hello/freedom-metal/src/drivers/riscv_cpu.c:297
20013d2e:	0001                	nop
20013d30:	40f6                	lw	ra,92(sp)
20013d32:	42e6                	lw	t0,88(sp)
20013d34:	4356                	lw	t1,84(sp)
20013d36:	43c6                	lw	t2,80(sp)
20013d38:	4436                	lw	s0,76(sp)
20013d3a:	4526                	lw	a0,72(sp)
20013d3c:	4596                	lw	a1,68(sp)
20013d3e:	4606                	lw	a2,64(sp)
20013d40:	56f2                	lw	a3,60(sp)
20013d42:	5762                	lw	a4,56(sp)
20013d44:	57d2                	lw	a5,52(sp)
20013d46:	5842                	lw	a6,48(sp)
20013d48:	58b2                	lw	a7,44(sp)
20013d4a:	5e22                	lw	t3,40(sp)
20013d4c:	5e92                	lw	t4,36(sp)
20013d4e:	5f02                	lw	t5,32(sp)
20013d50:	4ff2                	lw	t6,28(sp)
20013d52:	6125                	addi	sp,sp,96
20013d54:	30200073          	mret

20013d58 <__metal_controller_interrupt_vector_mode>:
__metal_controller_interrupt_vector_mode():
/home/nicoladgg/wsFreedomStudio/sifive_hifive1_revb_hello/freedom-metal/src/drivers/riscv_cpu.c:299
20013d58:	1101                	addi	sp,sp,-32
20013d5a:	ce22                	sw	s0,28(sp)
20013d5c:	1000                	addi	s0,sp,32
/home/nicoladgg/wsFreedomStudio/sifive_hifive1_revb_hello/freedom-metal/src/drivers/riscv_cpu.c:302
20013d5e:	305027f3          	csrr	a5,mtvec
20013d62:	fef42623          	sw	a5,-20(s0)
/home/nicoladgg/wsFreedomStudio/sifive_hifive1_revb_hello/freedom-metal/src/drivers/riscv_cpu.c:303
20013d66:	fec42783          	lw	a5,-20(s0)
20013d6a:	03f7f793          	andi	a5,a5,63
20013d6e:	fef42623          	sw	a5,-20(s0)
/home/nicoladgg/wsFreedomStudio/sifive_hifive1_revb_hello/freedom-metal/src/drivers/riscv_cpu.c:305
20013d72:	fec42703          	lw	a4,-20(s0)
20013d76:	478d                	li	a5,3
20013d78:	02f70363          	beq	a4,a5,20013d9e <__metal_controller_interrupt_vector_mode+0x46>
20013d7c:	fec42703          	lw	a4,-20(s0)
20013d80:	478d                	li	a5,3
20013d82:	02e7e263          	bltu	a5,a4,20013da6 <__metal_controller_interrupt_vector_mode+0x4e>
20013d86:	fec42703          	lw	a4,-20(s0)
20013d8a:	4785                	li	a5,1
20013d8c:	00f70b63          	beq	a4,a5,20013da2 <__metal_controller_interrupt_vector_mode+0x4a>
20013d90:	fec42703          	lw	a4,-20(s0)
20013d94:	4789                	li	a5,2
20013d96:	00f71863          	bne	a4,a5,20013da6 <__metal_controller_interrupt_vector_mode+0x4e>
/home/nicoladgg/wsFreedomStudio/sifive_hifive1_revb_hello/freedom-metal/src/drivers/riscv_cpu.c:307
20013d9a:	478d                	li	a5,3
20013d9c:	a031                	j	20013da8 <__metal_controller_interrupt_vector_mode+0x50>
/home/nicoladgg/wsFreedomStudio/sifive_hifive1_revb_hello/freedom-metal/src/drivers/riscv_cpu.c:309
20013d9e:	4791                	li	a5,4
20013da0:	a021                	j	20013da8 <__metal_controller_interrupt_vector_mode+0x50>
/home/nicoladgg/wsFreedomStudio/sifive_hifive1_revb_hello/freedom-metal/src/drivers/riscv_cpu.c:311
20013da2:	4785                	li	a5,1
20013da4:	a011                	j	20013da8 <__metal_controller_interrupt_vector_mode+0x50>
/home/nicoladgg/wsFreedomStudio/sifive_hifive1_revb_hello/freedom-metal/src/drivers/riscv_cpu.c:313
20013da6:	4781                	li	a5,0
/home/nicoladgg/wsFreedomStudio/sifive_hifive1_revb_hello/freedom-metal/src/drivers/riscv_cpu.c:314
20013da8:	853e                	mv	a0,a5
20013daa:	4472                	lw	s0,28(sp)
20013dac:	6105                	addi	sp,sp,32
20013dae:	8082                	ret

20013db0 <__metal_controller_interrupt_vector>:
__metal_controller_interrupt_vector():
/home/nicoladgg/wsFreedomStudio/sifive_hifive1_revb_hello/freedom-metal/src/drivers/riscv_cpu.c:317
20013db0:	7179                	addi	sp,sp,-48
20013db2:	d622                	sw	s0,44(sp)
20013db4:	1800                	addi	s0,sp,48
20013db6:	fca42e23          	sw	a0,-36(s0)
20013dba:	fcb42c23          	sw	a1,-40(s0)
/home/nicoladgg/wsFreedomStudio/sifive_hifive1_revb_hello/freedom-metal/src/drivers/riscv_cpu.c:320
20013dbe:	305027f3          	csrr	a5,mtvec
20013dc2:	fef42623          	sw	a5,-20(s0)
/home/nicoladgg/wsFreedomStudio/sifive_hifive1_revb_hello/freedom-metal/src/drivers/riscv_cpu.c:321
20013dc6:	fec42783          	lw	a5,-20(s0)
20013dca:	fc07f793          	andi	a5,a5,-64
20013dce:	fef42623          	sw	a5,-20(s0)
/home/nicoladgg/wsFreedomStudio/sifive_hifive1_revb_hello/freedom-metal/src/drivers/riscv_cpu.c:322
20013dd2:	fd842783          	lw	a5,-40(s0)
20013dd6:	fef42423          	sw	a5,-24(s0)
/home/nicoladgg/wsFreedomStudio/sifive_hifive1_revb_hello/freedom-metal/src/drivers/riscv_cpu.c:324
20013dda:	fdc42703          	lw	a4,-36(s0)
20013dde:	4791                	li	a5,4
20013de0:	04f70563          	beq	a4,a5,20013e2a <__metal_controller_interrupt_vector+0x7a>
20013de4:	fdc42703          	lw	a4,-36(s0)
20013de8:	4791                	li	a5,4
20013dea:	06e7e863          	bltu	a5,a4,20013e5a <__metal_controller_interrupt_vector+0xaa>
20013dee:	fdc42703          	lw	a4,-36(s0)
20013df2:	478d                	li	a5,3
20013df4:	06e7e363          	bltu	a5,a4,20013e5a <__metal_controller_interrupt_vector+0xaa>
20013df8:	fdc42703          	lw	a4,-36(s0)
20013dfc:	4789                	li	a5,2
20013dfe:	00f77b63          	bgeu	a4,a5,20013e14 <__metal_controller_interrupt_vector+0x64>
20013e02:	fdc42783          	lw	a5,-36(s0)
20013e06:	c7a1                	beqz	a5,20013e4e <__metal_controller_interrupt_vector+0x9e>
20013e08:	fdc42703          	lw	a4,-36(s0)
20013e0c:	4785                	li	a5,1
20013e0e:	02f70963          	beq	a4,a5,20013e40 <__metal_controller_interrupt_vector+0x90>
/home/nicoladgg/wsFreedomStudio/sifive_hifive1_revb_hello/freedom-metal/src/drivers/riscv_cpu.c:344
20013e12:	a0a1                	j	20013e5a <__metal_controller_interrupt_vector+0xaa>
/home/nicoladgg/wsFreedomStudio/sifive_hifive1_revb_hello/freedom-metal/src/drivers/riscv_cpu.c:327
20013e14:	fe842783          	lw	a5,-24(s0)
20013e18:	30779073          	csrw	mtvt,a5
/home/nicoladgg/wsFreedomStudio/sifive_hifive1_revb_hello/freedom-metal/src/drivers/riscv_cpu.c:328
20013e1c:	fec42783          	lw	a5,-20(s0)
20013e20:	0027e793          	ori	a5,a5,2
20013e24:	30579073          	csrw	mtvec,a5
/home/nicoladgg/wsFreedomStudio/sifive_hifive1_revb_hello/freedom-metal/src/drivers/riscv_cpu.c:329
20013e28:	a80d                	j	20013e5a <__metal_controller_interrupt_vector+0xaa>
/home/nicoladgg/wsFreedomStudio/sifive_hifive1_revb_hello/freedom-metal/src/drivers/riscv_cpu.c:331
20013e2a:	fe842783          	lw	a5,-24(s0)
20013e2e:	30779073          	csrw	mtvt,a5
/home/nicoladgg/wsFreedomStudio/sifive_hifive1_revb_hello/freedom-metal/src/drivers/riscv_cpu.c:333
20013e32:	fec42783          	lw	a5,-20(s0)
20013e36:	0037e793          	ori	a5,a5,3
/home/nicoladgg/wsFreedomStudio/sifive_hifive1_revb_hello/freedom-metal/src/drivers/riscv_cpu.c:332
20013e3a:	30579073          	csrw	mtvec,a5
/home/nicoladgg/wsFreedomStudio/sifive_hifive1_revb_hello/freedom-metal/src/drivers/riscv_cpu.c:334
20013e3e:	a831                	j	20013e5a <__metal_controller_interrupt_vector+0xaa>
/home/nicoladgg/wsFreedomStudio/sifive_hifive1_revb_hello/freedom-metal/src/drivers/riscv_cpu.c:337
20013e40:	fe842783          	lw	a5,-24(s0)
20013e44:	0017e793          	ori	a5,a5,1
/home/nicoladgg/wsFreedomStudio/sifive_hifive1_revb_hello/freedom-metal/src/drivers/riscv_cpu.c:336
20013e48:	30579073          	csrw	mtvec,a5
/home/nicoladgg/wsFreedomStudio/sifive_hifive1_revb_hello/freedom-metal/src/drivers/riscv_cpu.c:338
20013e4c:	a039                	j	20013e5a <__metal_controller_interrupt_vector+0xaa>
/home/nicoladgg/wsFreedomStudio/sifive_hifive1_revb_hello/freedom-metal/src/drivers/riscv_cpu.c:341
20013e4e:	fe842783          	lw	a5,-24(s0)
20013e52:	9bf1                	andi	a5,a5,-4
/home/nicoladgg/wsFreedomStudio/sifive_hifive1_revb_hello/freedom-metal/src/drivers/riscv_cpu.c:340
20013e54:	30579073          	csrw	mtvec,a5
/home/nicoladgg/wsFreedomStudio/sifive_hifive1_revb_hello/freedom-metal/src/drivers/riscv_cpu.c:342
20013e58:	0001                	nop
/home/nicoladgg/wsFreedomStudio/sifive_hifive1_revb_hello/freedom-metal/src/drivers/riscv_cpu.c:344
20013e5a:	0001                	nop
20013e5c:	5432                	lw	s0,44(sp)
20013e5e:	6145                	addi	sp,sp,48
20013e60:	8082                	ret

20013e62 <__metal_valid_interrupt_id>:
__metal_valid_interrupt_id():
/home/nicoladgg/wsFreedomStudio/sifive_hifive1_revb_hello/freedom-metal/src/drivers/riscv_cpu.c:346
20013e62:	1101                	addi	sp,sp,-32
20013e64:	ce22                	sw	s0,28(sp)
20013e66:	1000                	addi	s0,sp,32
20013e68:	fea42623          	sw	a0,-20(s0)
/home/nicoladgg/wsFreedomStudio/sifive_hifive1_revb_hello/freedom-metal/src/drivers/riscv_cpu.c:347
20013e6c:	fec42703          	lw	a4,-20(s0)
20013e70:	47fd                	li	a5,31
20013e72:	02e7c663          	blt	a5,a4,20013e9e <__metal_valid_interrupt_id+0x3c>
20013e76:	fec42703          	lw	a4,-20(s0)
20013e7a:	478d                	li	a5,3
20013e7c:	02f74963          	blt	a4,a5,20013eae <__metal_valid_interrupt_id+0x4c>
20013e80:	fec42783          	lw	a5,-20(s0)
20013e84:	4705                	li	a4,1
20013e86:	00f71733          	sll	a4,a4,a5
20013e8a:	77c5                	lui	a5,0xffff1
20013e8c:	88878793          	addi	a5,a5,-1912 # ffff0888 <metal_segment_heap_target_end+0x7ffef108>
20013e90:	8ff9                	and	a5,a5,a4
20013e92:	00f037b3          	snez	a5,a5
20013e96:	0ff7f793          	zext.b	a5,a5
20013e9a:	eb81                	bnez	a5,20013eaa <__metal_valid_interrupt_id+0x48>
/home/nicoladgg/wsFreedomStudio/sifive_hifive1_revb_hello/freedom-metal/src/drivers/riscv_cpu.c:370
20013e9c:	a809                	j	20013eae <__metal_valid_interrupt_id+0x4c>
/home/nicoladgg/wsFreedomStudio/sifive_hifive1_revb_hello/freedom-metal/src/drivers/riscv_cpu.c:347
20013e9e:	fec42703          	lw	a4,-20(s0)
20013ea2:	08000793          	li	a5,128
20013ea6:	00f71463          	bne	a4,a5,20013eae <__metal_valid_interrupt_id+0x4c>
/home/nicoladgg/wsFreedomStudio/sifive_hifive1_revb_hello/freedom-metal/src/drivers/riscv_cpu.c:368
20013eaa:	4785                	li	a5,1
20013eac:	a019                	j	20013eb2 <__metal_valid_interrupt_id+0x50>
/home/nicoladgg/wsFreedomStudio/sifive_hifive1_revb_hello/freedom-metal/src/drivers/riscv_cpu.c:370
20013eae:	0001                	nop
/home/nicoladgg/wsFreedomStudio/sifive_hifive1_revb_hello/freedom-metal/src/drivers/riscv_cpu.c:373
20013eb0:	4781                	li	a5,0
/home/nicoladgg/wsFreedomStudio/sifive_hifive1_revb_hello/freedom-metal/src/drivers/riscv_cpu.c:374
20013eb2:	853e                	mv	a0,a5
20013eb4:	4472                	lw	s0,28(sp)
20013eb6:	6105                	addi	sp,sp,32
20013eb8:	8082                	ret

20013eba <__metal_local_interrupt_enable>:
__metal_local_interrupt_enable():
/home/nicoladgg/wsFreedomStudio/sifive_hifive1_revb_hello/freedom-metal/src/drivers/riscv_cpu.c:377
20013eba:	7179                	addi	sp,sp,-48
20013ebc:	d606                	sw	ra,44(sp)
20013ebe:	d422                	sw	s0,40(sp)
20013ec0:	1800                	addi	s0,sp,48
20013ec2:	fca42e23          	sw	a0,-36(s0)
20013ec6:	fcb42c23          	sw	a1,-40(s0)
20013eca:	fcc42a23          	sw	a2,-44(s0)
/home/nicoladgg/wsFreedomStudio/sifive_hifive1_revb_hello/freedom-metal/src/drivers/riscv_cpu.c:378
20013ece:	fe042623          	sw	zero,-20(s0)
/home/nicoladgg/wsFreedomStudio/sifive_hifive1_revb_hello/freedom-metal/src/drivers/riscv_cpu.c:380
20013ed2:	fdc42783          	lw	a5,-36(s0)
20013ed6:	e399                	bnez	a5,20013edc <__metal_local_interrupt_enable+0x22>
/home/nicoladgg/wsFreedomStudio/sifive_hifive1_revb_hello/freedom-metal/src/drivers/riscv_cpu.c:381
20013ed8:	57fd                	li	a5,-1
20013eda:	a849                	j	20013f6c <__metal_local_interrupt_enable+0xb2>
20013edc:	fd842703          	lw	a4,-40(s0)
20013ee0:	47fd                	li	a5,31
20013ee2:	08e7e063          	bltu	a5,a4,20013f62 <__metal_local_interrupt_enable+0xa8>
20013ee6:	fd842783          	lw	a5,-40(s0)
20013eea:	00279713          	slli	a4,a5,0x2
20013eee:	200107b7          	lui	a5,0x20010
20013ef2:	4c478793          	addi	a5,a5,1220 # 200104c4 <__metal_driver_vtable_riscv_clint0+0x64>
20013ef6:	97ba                	add	a5,a5,a4
20013ef8:	439c                	lw	a5,0(a5)
20013efa:	8782                	jr	a5
/home/nicoladgg/wsFreedomStudio/sifive_hifive1_revb_hello/freedom-metal/src/drivers/riscv_cpu.c:386
20013efc:	fd442783          	lw	a5,-44(s0)
20013f00:	c781                	beqz	a5,20013f08 <__metal_local_interrupt_enable+0x4e>
/home/nicoladgg/wsFreedomStudio/sifive_hifive1_revb_hello/freedom-metal/src/drivers/riscv_cpu.c:387
20013f02:	f57fe0ef          	jal	ra,20012e58 <__metal_interrupt_global_enable>
/home/nicoladgg/wsFreedomStudio/sifive_hifive1_revb_hello/freedom-metal/src/drivers/riscv_cpu.c:391
20013f06:	a08d                	j	20013f68 <__metal_local_interrupt_enable+0xae>
/home/nicoladgg/wsFreedomStudio/sifive_hifive1_revb_hello/freedom-metal/src/drivers/riscv_cpu.c:389
20013f08:	f69fe0ef          	jal	ra,20012e70 <__metal_interrupt_global_disable>
/home/nicoladgg/wsFreedomStudio/sifive_hifive1_revb_hello/freedom-metal/src/drivers/riscv_cpu.c:391
20013f0c:	a8b1                	j	20013f68 <__metal_local_interrupt_enable+0xae>
/home/nicoladgg/wsFreedomStudio/sifive_hifive1_revb_hello/freedom-metal/src/drivers/riscv_cpu.c:393
20013f0e:	fd442783          	lw	a5,-44(s0)
20013f12:	c781                	beqz	a5,20013f1a <__metal_local_interrupt_enable+0x60>
/home/nicoladgg/wsFreedomStudio/sifive_hifive1_revb_hello/freedom-metal/src/drivers/riscv_cpu.c:394
20013f14:	f75fe0ef          	jal	ra,20012e88 <__metal_interrupt_software_enable>
/home/nicoladgg/wsFreedomStudio/sifive_hifive1_revb_hello/freedom-metal/src/drivers/riscv_cpu.c:398
20013f18:	a881                	j	20013f68 <__metal_local_interrupt_enable+0xae>
/home/nicoladgg/wsFreedomStudio/sifive_hifive1_revb_hello/freedom-metal/src/drivers/riscv_cpu.c:396
20013f1a:	f87fe0ef          	jal	ra,20012ea0 <__metal_interrupt_software_disable>
/home/nicoladgg/wsFreedomStudio/sifive_hifive1_revb_hello/freedom-metal/src/drivers/riscv_cpu.c:398
20013f1e:	a0a9                	j	20013f68 <__metal_local_interrupt_enable+0xae>
/home/nicoladgg/wsFreedomStudio/sifive_hifive1_revb_hello/freedom-metal/src/drivers/riscv_cpu.c:400
20013f20:	fd442783          	lw	a5,-44(s0)
20013f24:	c781                	beqz	a5,20013f2c <__metal_local_interrupt_enable+0x72>
/home/nicoladgg/wsFreedomStudio/sifive_hifive1_revb_hello/freedom-metal/src/drivers/riscv_cpu.c:401
20013f26:	f93fe0ef          	jal	ra,20012eb8 <__metal_interrupt_timer_enable>
/home/nicoladgg/wsFreedomStudio/sifive_hifive1_revb_hello/freedom-metal/src/drivers/riscv_cpu.c:405
20013f2a:	a83d                	j	20013f68 <__metal_local_interrupt_enable+0xae>
/home/nicoladgg/wsFreedomStudio/sifive_hifive1_revb_hello/freedom-metal/src/drivers/riscv_cpu.c:403
20013f2c:	fa7fe0ef          	jal	ra,20012ed2 <__metal_interrupt_timer_disable>
/home/nicoladgg/wsFreedomStudio/sifive_hifive1_revb_hello/freedom-metal/src/drivers/riscv_cpu.c:405
20013f30:	a825                	j	20013f68 <__metal_local_interrupt_enable+0xae>
/home/nicoladgg/wsFreedomStudio/sifive_hifive1_revb_hello/freedom-metal/src/drivers/riscv_cpu.c:407
20013f32:	fd442783          	lw	a5,-44(s0)
20013f36:	c781                	beqz	a5,20013f3e <__metal_local_interrupt_enable+0x84>
/home/nicoladgg/wsFreedomStudio/sifive_hifive1_revb_hello/freedom-metal/src/drivers/riscv_cpu.c:408
20013f38:	fb5fe0ef          	jal	ra,20012eec <__metal_interrupt_external_enable>
/home/nicoladgg/wsFreedomStudio/sifive_hifive1_revb_hello/freedom-metal/src/drivers/riscv_cpu.c:412
20013f3c:	a035                	j	20013f68 <__metal_local_interrupt_enable+0xae>
/home/nicoladgg/wsFreedomStudio/sifive_hifive1_revb_hello/freedom-metal/src/drivers/riscv_cpu.c:410
20013f3e:	fcbfe0ef          	jal	ra,20012f08 <__metal_interrupt_external_disable>
/home/nicoladgg/wsFreedomStudio/sifive_hifive1_revb_hello/freedom-metal/src/drivers/riscv_cpu.c:412
20013f42:	a01d                	j	20013f68 <__metal_local_interrupt_enable+0xae>
/home/nicoladgg/wsFreedomStudio/sifive_hifive1_revb_hello/freedom-metal/src/drivers/riscv_cpu.c:429
20013f44:	fd442783          	lw	a5,-44(s0)
20013f48:	c799                	beqz	a5,20013f56 <__metal_local_interrupt_enable+0x9c>
/home/nicoladgg/wsFreedomStudio/sifive_hifive1_revb_hello/freedom-metal/src/drivers/riscv_cpu.c:430
20013f4a:	fd842783          	lw	a5,-40(s0)
20013f4e:	853e                	mv	a0,a5
20013f50:	fd5fe0ef          	jal	ra,20012f24 <__metal_interrupt_local_enable>
/home/nicoladgg/wsFreedomStudio/sifive_hifive1_revb_hello/freedom-metal/src/drivers/riscv_cpu.c:434
20013f54:	a811                	j	20013f68 <__metal_local_interrupt_enable+0xae>
/home/nicoladgg/wsFreedomStudio/sifive_hifive1_revb_hello/freedom-metal/src/drivers/riscv_cpu.c:432
20013f56:	fd842783          	lw	a5,-40(s0)
20013f5a:	853e                	mv	a0,a5
20013f5c:	ff5fe0ef          	jal	ra,20012f50 <__metal_interrupt_local_disable>
/home/nicoladgg/wsFreedomStudio/sifive_hifive1_revb_hello/freedom-metal/src/drivers/riscv_cpu.c:434
20013f60:	a021                	j	20013f68 <__metal_local_interrupt_enable+0xae>
/home/nicoladgg/wsFreedomStudio/sifive_hifive1_revb_hello/freedom-metal/src/drivers/riscv_cpu.c:436
20013f62:	57fd                	li	a5,-1
20013f64:	fef42623          	sw	a5,-20(s0)
/home/nicoladgg/wsFreedomStudio/sifive_hifive1_revb_hello/freedom-metal/src/drivers/riscv_cpu.c:438
20013f68:	fec42783          	lw	a5,-20(s0)
/home/nicoladgg/wsFreedomStudio/sifive_hifive1_revb_hello/freedom-metal/src/drivers/riscv_cpu.c:439
20013f6c:	853e                	mv	a0,a5
20013f6e:	50b2                	lw	ra,44(sp)
20013f70:	5422                	lw	s0,40(sp)
20013f72:	6145                	addi	sp,sp,48
20013f74:	8082                	ret

20013f76 <__metal_exception_register>:
__metal_exception_register():
/home/nicoladgg/wsFreedomStudio/sifive_hifive1_revb_hello/freedom-metal/src/drivers/riscv_cpu.c:442
20013f76:	7179                	addi	sp,sp,-48
20013f78:	d622                	sw	s0,44(sp)
20013f7a:	1800                	addi	s0,sp,48
20013f7c:	fca42e23          	sw	a0,-36(s0)
20013f80:	fcb42c23          	sw	a1,-40(s0)
20013f84:	fcc42a23          	sw	a2,-44(s0)
/home/nicoladgg/wsFreedomStudio/sifive_hifive1_revb_hello/freedom-metal/src/drivers/riscv_cpu.c:443
20013f88:	fdc42783          	lw	a5,-36(s0)
20013f8c:	fef42623          	sw	a5,-20(s0)
/home/nicoladgg/wsFreedomStudio/sifive_hifive1_revb_hello/freedom-metal/src/drivers/riscv_cpu.c:445
20013f90:	fd842703          	lw	a4,-40(s0)
20013f94:	47ad                	li	a5,11
20013f96:	02e7c263          	blt	a5,a4,20013fba <__metal_exception_register+0x44>
/home/nicoladgg/wsFreedomStudio/sifive_hifive1_revb_hello/freedom-metal/src/drivers/riscv_cpu.c:445 (discriminator 1)
20013f9a:	fd442783          	lw	a5,-44(s0)
20013f9e:	cf91                	beqz	a5,20013fba <__metal_exception_register+0x44>
/home/nicoladgg/wsFreedomStudio/sifive_hifive1_revb_hello/freedom-metal/src/drivers/riscv_cpu.c:446
20013fa0:	fec42703          	lw	a4,-20(s0)
20013fa4:	fd842783          	lw	a5,-40(s0)
20013fa8:	0e878793          	addi	a5,a5,232
20013fac:	078a                	slli	a5,a5,0x2
20013fae:	97ba                	add	a5,a5,a4
20013fb0:	fd442703          	lw	a4,-44(s0)
20013fb4:	c398                	sw	a4,0(a5)
/home/nicoladgg/wsFreedomStudio/sifive_hifive1_revb_hello/freedom-metal/src/drivers/riscv_cpu.c:447
20013fb6:	4781                	li	a5,0
20013fb8:	a011                	j	20013fbc <__metal_exception_register+0x46>
/home/nicoladgg/wsFreedomStudio/sifive_hifive1_revb_hello/freedom-metal/src/drivers/riscv_cpu.c:449
20013fba:	57fd                	li	a5,-1
/home/nicoladgg/wsFreedomStudio/sifive_hifive1_revb_hello/freedom-metal/src/drivers/riscv_cpu.c:450
20013fbc:	853e                	mv	a0,a5
20013fbe:	5432                	lw	s0,44(sp)
20013fc0:	6145                	addi	sp,sp,48
20013fc2:	8082                	ret

20013fc4 <__metal_driver_riscv_cpu_controller_interrupt_init>:
__metal_driver_riscv_cpu_controller_interrupt_init():
/home/nicoladgg/wsFreedomStudio/sifive_hifive1_revb_hello/freedom-metal/src/drivers/riscv_cpu.c:454
20013fc4:	7179                	addi	sp,sp,-48
20013fc6:	d606                	sw	ra,44(sp)
20013fc8:	d422                	sw	s0,40(sp)
20013fca:	1800                	addi	s0,sp,48
20013fcc:	fca42e23          	sw	a0,-36(s0)
/home/nicoladgg/wsFreedomStudio/sifive_hifive1_revb_hello/freedom-metal/src/drivers/riscv_cpu.c:455
20013fd0:	fdc42783          	lw	a5,-36(s0)
20013fd4:	fef42223          	sw	a5,-28(s0)
/home/nicoladgg/wsFreedomStudio/sifive_hifive1_revb_hello/freedom-metal/src/drivers/riscv_cpu.c:457
20013fd8:	fe442783          	lw	a5,-28(s0)
20013fdc:	43dc                	lw	a5,4(a5)
20013fde:	efdd                	bnez	a5,2001409c <__metal_driver_riscv_cpu_controller_interrupt_init+0xd8>
/home/nicoladgg/wsFreedomStudio/sifive_hifive1_revb_hello/freedom-metal/src/drivers/riscv_cpu.c:459
20013fe0:	fe042623          	sw	zero,-20(s0)
20013fe4:	a0b9                	j	20014032 <__metal_driver_riscv_cpu_controller_interrupt_init+0x6e>
/home/nicoladgg/wsFreedomStudio/sifive_hifive1_revb_hello/freedom-metal/src/drivers/riscv_cpu.c:460 (discriminator 3)
20013fe6:	fe442683          	lw	a3,-28(s0)
20013fea:	fec42703          	lw	a4,-20(s0)
20013fee:	87ba                	mv	a5,a4
20013ff0:	0786                	slli	a5,a5,0x1
20013ff2:	97ba                	add	a5,a5,a4
20013ff4:	078e                	slli	a5,a5,0x3
20013ff6:	97b6                	add	a5,a5,a3
20013ff8:	0807a823          	sw	zero,144(a5)
/home/nicoladgg/wsFreedomStudio/sifive_hifive1_revb_hello/freedom-metal/src/drivers/riscv_cpu.c:461 (discriminator 3)
20013ffc:	fe442683          	lw	a3,-28(s0)
20014000:	fec42703          	lw	a4,-20(s0)
20014004:	87ba                	mv	a5,a4
20014006:	0786                	slli	a5,a5,0x1
20014008:	97ba                	add	a5,a5,a4
2001400a:	078e                	slli	a5,a5,0x3
2001400c:	97b6                	add	a5,a5,a3
2001400e:	0807aa23          	sw	zero,148(a5)
/home/nicoladgg/wsFreedomStudio/sifive_hifive1_revb_hello/freedom-metal/src/drivers/riscv_cpu.c:462 (discriminator 3)
20014012:	fe442683          	lw	a3,-28(s0)
20014016:	fec42703          	lw	a4,-20(s0)
2001401a:	87ba                	mv	a5,a4
2001401c:	0786                	slli	a5,a5,0x1
2001401e:	97ba                	add	a5,a5,a4
20014020:	078e                	slli	a5,a5,0x3
20014022:	97b6                	add	a5,a5,a3
20014024:	0807ac23          	sw	zero,152(a5)
/home/nicoladgg/wsFreedomStudio/sifive_hifive1_revb_hello/freedom-metal/src/drivers/riscv_cpu.c:459 (discriminator 3)
20014028:	fec42783          	lw	a5,-20(s0)
2001402c:	0785                	addi	a5,a5,1
2001402e:	fef42623          	sw	a5,-20(s0)
/home/nicoladgg/wsFreedomStudio/sifive_hifive1_revb_hello/freedom-metal/src/drivers/riscv_cpu.c:459 (discriminator 1)
20014032:	fec42703          	lw	a4,-20(s0)
20014036:	47fd                	li	a5,31
20014038:	fae7d7e3          	bge	a5,a4,20013fe6 <__metal_driver_riscv_cpu_controller_interrupt_init+0x22>
/home/nicoladgg/wsFreedomStudio/sifive_hifive1_revb_hello/freedom-metal/src/drivers/riscv_cpu.c:465
2001403c:	fe042423          	sw	zero,-24(s0)
20014040:	a01d                	j	20014066 <__metal_driver_riscv_cpu_controller_interrupt_init+0xa2>
/home/nicoladgg/wsFreedomStudio/sifive_hifive1_revb_hello/freedom-metal/src/drivers/riscv_cpu.c:466 (discriminator 3)
20014042:	fe442703          	lw	a4,-28(s0)
20014046:	fe842783          	lw	a5,-24(s0)
2001404a:	0e878793          	addi	a5,a5,232
2001404e:	078a                	slli	a5,a5,0x2
20014050:	97ba                	add	a5,a5,a4
20014052:	20013737          	lui	a4,0x20013
20014056:	f7c70713          	addi	a4,a4,-132 # 20012f7c <__metal_default_exception_handler>
2001405a:	c398                	sw	a4,0(a5)
/home/nicoladgg/wsFreedomStudio/sifive_hifive1_revb_hello/freedom-metal/src/drivers/riscv_cpu.c:465 (discriminator 3)
2001405c:	fe842783          	lw	a5,-24(s0)
20014060:	0785                	addi	a5,a5,1
20014062:	fef42423          	sw	a5,-24(s0)
/home/nicoladgg/wsFreedomStudio/sifive_hifive1_revb_hello/freedom-metal/src/drivers/riscv_cpu.c:465 (discriminator 1)
20014066:	fe842703          	lw	a4,-24(s0)
2001406a:	47ad                	li	a5,11
2001406c:	fce7dbe3          	bge	a5,a4,20014042 <__metal_driver_riscv_cpu_controller_interrupt_init+0x7e>
/home/nicoladgg/wsFreedomStudio/sifive_hifive1_revb_hello/freedom-metal/src/drivers/riscv_cpu.c:475
20014070:	305027f3          	csrr	a5,mtvec
20014074:	fef42023          	sw	a5,-32(s0)
/home/nicoladgg/wsFreedomStudio/sifive_hifive1_revb_hello/freedom-metal/src/drivers/riscv_cpu.c:476
20014078:	200107b7          	lui	a5,0x20010
2001407c:	13478793          	addi	a5,a5,308 # 20010134 <early_trap_vector>
20014080:	fe042703          	lw	a4,-32(s0)
20014084:	00f71863          	bne	a4,a5,20014094 <__metal_driver_riscv_cpu_controller_interrupt_init+0xd0>
/home/nicoladgg/wsFreedomStudio/sifive_hifive1_revb_hello/freedom-metal/src/drivers/riscv_cpu.c:477
20014088:	200137b7          	lui	a5,0x20013
2001408c:	20078593          	addi	a1,a5,512 # 20013200 <__metal_exception_handler>
20014090:	4501                	li	a0,0
20014092:	3b39                	jal	20013db0 <__metal_controller_interrupt_vector>
/home/nicoladgg/wsFreedomStudio/sifive_hifive1_revb_hello/freedom-metal/src/drivers/riscv_cpu.c:481
20014094:	fe442783          	lw	a5,-28(s0)
20014098:	4705                	li	a4,1
2001409a:	c3d8                	sw	a4,4(a5)
/home/nicoladgg/wsFreedomStudio/sifive_hifive1_revb_hello/freedom-metal/src/drivers/riscv_cpu.c:483
2001409c:	0001                	nop
2001409e:	50b2                	lw	ra,44(sp)
200140a0:	5422                	lw	s0,40(sp)
200140a2:	6145                	addi	sp,sp,48
200140a4:	8082                	ret

200140a6 <__metal_driver_riscv_cpu_controller_interrupt_register>:
__metal_driver_riscv_cpu_controller_interrupt_register():
/home/nicoladgg/wsFreedomStudio/sifive_hifive1_revb_hello/freedom-metal/src/drivers/riscv_cpu.c:487
200140a6:	7179                	addi	sp,sp,-48
200140a8:	d606                	sw	ra,44(sp)
200140aa:	d422                	sw	s0,40(sp)
200140ac:	1800                	addi	s0,sp,48
200140ae:	fca42e23          	sw	a0,-36(s0)
200140b2:	fcb42c23          	sw	a1,-40(s0)
200140b6:	fcc42a23          	sw	a2,-44(s0)
200140ba:	fcd42823          	sw	a3,-48(s0)
/home/nicoladgg/wsFreedomStudio/sifive_hifive1_revb_hello/freedom-metal/src/drivers/riscv_cpu.c:488
200140be:	fe042623          	sw	zero,-20(s0)
/home/nicoladgg/wsFreedomStudio/sifive_hifive1_revb_hello/freedom-metal/src/drivers/riscv_cpu.c:489
200140c2:	fdc42783          	lw	a5,-36(s0)
200140c6:	fef42423          	sw	a5,-24(s0)
/home/nicoladgg/wsFreedomStudio/sifive_hifive1_revb_hello/freedom-metal/src/drivers/riscv_cpu.c:491
200140ca:	fd842503          	lw	a0,-40(s0)
200140ce:	3b51                	jal	20013e62 <__metal_valid_interrupt_id>
200140d0:	87aa                	mv	a5,a0
200140d2:	e399                	bnez	a5,200140d8 <__metal_driver_riscv_cpu_controller_interrupt_register+0x32>
/home/nicoladgg/wsFreedomStudio/sifive_hifive1_revb_hello/freedom-metal/src/drivers/riscv_cpu.c:492
200140d4:	57d5                	li	a5,-11
200140d6:	a25d                	j	2001427c <__metal_driver_riscv_cpu_controller_interrupt_register+0x1d6>
/home/nicoladgg/wsFreedomStudio/sifive_hifive1_revb_hello/freedom-metal/src/drivers/riscv_cpu.c:494
200140d8:	fd842703          	lw	a4,-40(s0)
200140dc:	08000793          	li	a5,128
200140e0:	00f71763          	bne	a4,a5,200140ee <__metal_driver_riscv_cpu_controller_interrupt_register+0x48>
/home/nicoladgg/wsFreedomStudio/sifive_hifive1_revb_hello/freedom-metal/src/drivers/riscv_cpu.c:495 (discriminator 1)
200140e4:	3995                	jal	20013d58 <__metal_controller_interrupt_vector_mode>
200140e6:	87aa                	mv	a5,a0
/home/nicoladgg/wsFreedomStudio/sifive_hifive1_revb_hello/freedom-metal/src/drivers/riscv_cpu.c:494 (discriminator 1)
200140e8:	c399                	beqz	a5,200140ee <__metal_driver_riscv_cpu_controller_interrupt_register+0x48>
/home/nicoladgg/wsFreedomStudio/sifive_hifive1_revb_hello/freedom-metal/src/drivers/riscv_cpu.c:498
200140ea:	57cd                	li	a5,-13
200140ec:	aa41                	j	2001427c <__metal_driver_riscv_cpu_controller_interrupt_register+0x1d6>
/home/nicoladgg/wsFreedomStudio/sifive_hifive1_revb_hello/freedom-metal/src/drivers/riscv_cpu.c:501
200140ee:	fd442783          	lw	a5,-44(s0)
200140f2:	cfb9                	beqz	a5,20014150 <__metal_driver_riscv_cpu_controller_interrupt_register+0xaa>
/home/nicoladgg/wsFreedomStudio/sifive_hifive1_revb_hello/freedom-metal/src/drivers/riscv_cpu.c:502
200140f4:	fd842703          	lw	a4,-40(s0)
200140f8:	08000793          	li	a5,128
200140fc:	00f71f63          	bne	a4,a5,2001411a <__metal_driver_riscv_cpu_controller_interrupt_register+0x74>
/home/nicoladgg/wsFreedomStudio/sifive_hifive1_revb_hello/freedom-metal/src/drivers/riscv_cpu.c:503
20014100:	fe842783          	lw	a5,-24(s0)
20014104:	fd442703          	lw	a4,-44(s0)
20014108:	38e7a823          	sw	a4,912(a5)
/home/nicoladgg/wsFreedomStudio/sifive_hifive1_revb_hello/freedom-metal/src/drivers/riscv_cpu.c:504
2001410c:	fe842783          	lw	a5,-24(s0)
20014110:	fd042703          	lw	a4,-48(s0)
20014114:	38e7ac23          	sw	a4,920(a5)
20014118:	a285                	j	20014278 <__metal_driver_riscv_cpu_controller_interrupt_register+0x1d2>
/home/nicoladgg/wsFreedomStudio/sifive_hifive1_revb_hello/freedom-metal/src/drivers/riscv_cpu.c:506
2001411a:	fe842683          	lw	a3,-24(s0)
2001411e:	fd842703          	lw	a4,-40(s0)
20014122:	87ba                	mv	a5,a4
20014124:	0786                	slli	a5,a5,0x1
20014126:	97ba                	add	a5,a5,a4
20014128:	078e                	slli	a5,a5,0x3
2001412a:	97b6                	add	a5,a5,a3
2001412c:	fd442703          	lw	a4,-44(s0)
20014130:	08e7a823          	sw	a4,144(a5)
/home/nicoladgg/wsFreedomStudio/sifive_hifive1_revb_hello/freedom-metal/src/drivers/riscv_cpu.c:507
20014134:	fe842683          	lw	a3,-24(s0)
20014138:	fd842703          	lw	a4,-40(s0)
2001413c:	87ba                	mv	a5,a4
2001413e:	0786                	slli	a5,a5,0x1
20014140:	97ba                	add	a5,a5,a4
20014142:	078e                	slli	a5,a5,0x3
20014144:	97b6                	add	a5,a5,a3
20014146:	fd042703          	lw	a4,-48(s0)
2001414a:	08e7ac23          	sw	a4,152(a5)
2001414e:	a22d                	j	20014278 <__metal_driver_riscv_cpu_controller_interrupt_register+0x1d2>
/home/nicoladgg/wsFreedomStudio/sifive_hifive1_revb_hello/freedom-metal/src/drivers/riscv_cpu.c:510
20014150:	fd842703          	lw	a4,-40(s0)
20014154:	08000793          	li	a5,128
20014158:	0cf70163          	beq	a4,a5,2001421a <__metal_driver_riscv_cpu_controller_interrupt_register+0x174>
2001415c:	fd842703          	lw	a4,-40(s0)
20014160:	08000793          	li	a5,128
20014164:	10e7c763          	blt	a5,a4,20014272 <__metal_driver_riscv_cpu_controller_interrupt_register+0x1cc>
20014168:	fd842703          	lw	a4,-40(s0)
2001416c:	47fd                	li	a5,31
2001416e:	10e7c263          	blt	a5,a4,20014272 <__metal_driver_riscv_cpu_controller_interrupt_register+0x1cc>
20014172:	fd842703          	lw	a4,-40(s0)
20014176:	47c1                	li	a5,16
20014178:	0cf75063          	bge	a4,a5,20014238 <__metal_driver_riscv_cpu_controller_interrupt_register+0x192>
2001417c:	fd842703          	lw	a4,-40(s0)
20014180:	47ad                	li	a5,11
20014182:	0af70b63          	beq	a4,a5,20014238 <__metal_driver_riscv_cpu_controller_interrupt_register+0x192>
20014186:	fd842703          	lw	a4,-40(s0)
2001418a:	47ad                	li	a5,11
2001418c:	0ee7c363          	blt	a5,a4,20014272 <__metal_driver_riscv_cpu_controller_interrupt_register+0x1cc>
20014190:	fd842703          	lw	a4,-40(s0)
20014194:	478d                	li	a5,3
20014196:	00f70863          	beq	a4,a5,200141a6 <__metal_driver_riscv_cpu_controller_interrupt_register+0x100>
2001419a:	fd842703          	lw	a4,-40(s0)
2001419e:	479d                	li	a5,7
200141a0:	04f70063          	beq	a4,a5,200141e0 <__metal_driver_riscv_cpu_controller_interrupt_register+0x13a>
200141a4:	a0f9                	j	20014272 <__metal_driver_riscv_cpu_controller_interrupt_register+0x1cc>
/home/nicoladgg/wsFreedomStudio/sifive_hifive1_revb_hello/freedom-metal/src/drivers/riscv_cpu.c:512
200141a6:	fe842683          	lw	a3,-24(s0)
200141aa:	fd842703          	lw	a4,-40(s0)
200141ae:	87ba                	mv	a5,a4
200141b0:	0786                	slli	a5,a5,0x1
200141b2:	97ba                	add	a5,a5,a4
200141b4:	078e                	slli	a5,a5,0x3
200141b6:	97b6                	add	a5,a5,a3
200141b8:	20013737          	lui	a4,0x20013
200141bc:	06c70713          	addi	a4,a4,108 # 2001306c <__metal_default_sw_handler>
200141c0:	08e7a823          	sw	a4,144(a5)
/home/nicoladgg/wsFreedomStudio/sifive_hifive1_revb_hello/freedom-metal/src/drivers/riscv_cpu.c:513
200141c4:	fe842683          	lw	a3,-24(s0)
200141c8:	fd842703          	lw	a4,-40(s0)
200141cc:	87ba                	mv	a5,a4
200141ce:	0786                	slli	a5,a5,0x1
200141d0:	97ba                	add	a5,a5,a4
200141d2:	078e                	slli	a5,a5,0x3
200141d4:	97b6                	add	a5,a5,a3
200141d6:	fd042703          	lw	a4,-48(s0)
200141da:	08e7aa23          	sw	a4,148(a5)
/home/nicoladgg/wsFreedomStudio/sifive_hifive1_revb_hello/freedom-metal/src/drivers/riscv_cpu.c:514
200141de:	a869                	j	20014278 <__metal_driver_riscv_cpu_controller_interrupt_register+0x1d2>
/home/nicoladgg/wsFreedomStudio/sifive_hifive1_revb_hello/freedom-metal/src/drivers/riscv_cpu.c:516
200141e0:	fe842683          	lw	a3,-24(s0)
200141e4:	fd842703          	lw	a4,-40(s0)
200141e8:	87ba                	mv	a5,a4
200141ea:	0786                	slli	a5,a5,0x1
200141ec:	97ba                	add	a5,a5,a4
200141ee:	078e                	slli	a5,a5,0x3
200141f0:	97b6                	add	a5,a5,a3
200141f2:	20013737          	lui	a4,0x20013
200141f6:	17c70713          	addi	a4,a4,380 # 2001317c <__metal_default_timer_handler>
200141fa:	08e7a823          	sw	a4,144(a5)
/home/nicoladgg/wsFreedomStudio/sifive_hifive1_revb_hello/freedom-metal/src/drivers/riscv_cpu.c:517
200141fe:	fe842683          	lw	a3,-24(s0)
20014202:	fd842703          	lw	a4,-40(s0)
20014206:	87ba                	mv	a5,a4
20014208:	0786                	slli	a5,a5,0x1
2001420a:	97ba                	add	a5,a5,a4
2001420c:	078e                	slli	a5,a5,0x3
2001420e:	97b6                	add	a5,a5,a3
20014210:	fd042703          	lw	a4,-48(s0)
20014214:	08e7aa23          	sw	a4,148(a5)
/home/nicoladgg/wsFreedomStudio/sifive_hifive1_revb_hello/freedom-metal/src/drivers/riscv_cpu.c:518
20014218:	a085                	j	20014278 <__metal_driver_riscv_cpu_controller_interrupt_register+0x1d2>
/home/nicoladgg/wsFreedomStudio/sifive_hifive1_revb_hello/freedom-metal/src/drivers/riscv_cpu.c:520
2001421a:	fe842783          	lw	a5,-24(s0)
2001421e:	20013737          	lui	a4,0x20013
20014222:	16670713          	addi	a4,a4,358 # 20013166 <__metal_default_beu_handler>
20014226:	38e7a823          	sw	a4,912(a5)
/home/nicoladgg/wsFreedomStudio/sifive_hifive1_revb_hello/freedom-metal/src/drivers/riscv_cpu.c:521
2001422a:	fe842783          	lw	a5,-24(s0)
2001422e:	fd042703          	lw	a4,-48(s0)
20014232:	38e7ac23          	sw	a4,920(a5)
/home/nicoladgg/wsFreedomStudio/sifive_hifive1_revb_hello/freedom-metal/src/drivers/riscv_cpu.c:522
20014236:	a089                	j	20014278 <__metal_driver_riscv_cpu_controller_interrupt_register+0x1d2>
/home/nicoladgg/wsFreedomStudio/sifive_hifive1_revb_hello/freedom-metal/src/drivers/riscv_cpu.c:540
20014238:	fe842683          	lw	a3,-24(s0)
2001423c:	fd842703          	lw	a4,-40(s0)
20014240:	87ba                	mv	a5,a4
20014242:	0786                	slli	a5,a5,0x1
20014244:	97ba                	add	a5,a5,a4
20014246:	078e                	slli	a5,a5,0x3
20014248:	97b6                	add	a5,a5,a3
2001424a:	20013737          	lui	a4,0x20013
2001424e:	f9470713          	addi	a4,a4,-108 # 20012f94 <__metal_default_interrupt_handler>
20014252:	08e7a823          	sw	a4,144(a5)
/home/nicoladgg/wsFreedomStudio/sifive_hifive1_revb_hello/freedom-metal/src/drivers/riscv_cpu.c:542
20014256:	fe842683          	lw	a3,-24(s0)
2001425a:	fd842703          	lw	a4,-40(s0)
2001425e:	87ba                	mv	a5,a4
20014260:	0786                	slli	a5,a5,0x1
20014262:	97ba                	add	a5,a5,a4
20014264:	078e                	slli	a5,a5,0x3
20014266:	97b6                	add	a5,a5,a3
20014268:	fd042703          	lw	a4,-48(s0)
2001426c:	08e7aa23          	sw	a4,148(a5)
/home/nicoladgg/wsFreedomStudio/sifive_hifive1_revb_hello/freedom-metal/src/drivers/riscv_cpu.c:543
20014270:	a021                	j	20014278 <__metal_driver_riscv_cpu_controller_interrupt_register+0x1d2>
/home/nicoladgg/wsFreedomStudio/sifive_hifive1_revb_hello/freedom-metal/src/drivers/riscv_cpu.c:545
20014272:	57d1                	li	a5,-12
20014274:	fef42623          	sw	a5,-20(s0)
/home/nicoladgg/wsFreedomStudio/sifive_hifive1_revb_hello/freedom-metal/src/drivers/riscv_cpu.c:548
20014278:	fec42783          	lw	a5,-20(s0)
/home/nicoladgg/wsFreedomStudio/sifive_hifive1_revb_hello/freedom-metal/src/drivers/riscv_cpu.c:549
2001427c:	853e                	mv	a0,a5
2001427e:	50b2                	lw	ra,44(sp)
20014280:	5422                	lw	s0,40(sp)
20014282:	6145                	addi	sp,sp,48
20014284:	8082                	ret

20014286 <__metal_driver_riscv_cpu_controller_interrupt_enable>:
__metal_driver_riscv_cpu_controller_interrupt_enable():
/home/nicoladgg/wsFreedomStudio/sifive_hifive1_revb_hello/freedom-metal/src/drivers/riscv_cpu.c:552
20014286:	1101                	addi	sp,sp,-32
20014288:	ce06                	sw	ra,28(sp)
2001428a:	cc22                	sw	s0,24(sp)
2001428c:	1000                	addi	s0,sp,32
2001428e:	fea42623          	sw	a0,-20(s0)
20014292:	feb42423          	sw	a1,-24(s0)
/home/nicoladgg/wsFreedomStudio/sifive_hifive1_revb_hello/freedom-metal/src/drivers/riscv_cpu.c:553
20014296:	fe842783          	lw	a5,-24(s0)
2001429a:	4605                	li	a2,1
2001429c:	85be                	mv	a1,a5
2001429e:	fec42503          	lw	a0,-20(s0)
200142a2:	c19ff0ef          	jal	ra,20013eba <__metal_local_interrupt_enable>
200142a6:	87aa                	mv	a5,a0
/home/nicoladgg/wsFreedomStudio/sifive_hifive1_revb_hello/freedom-metal/src/drivers/riscv_cpu.c:554
200142a8:	853e                	mv	a0,a5
200142aa:	40f2                	lw	ra,28(sp)
200142ac:	4462                	lw	s0,24(sp)
200142ae:	6105                	addi	sp,sp,32
200142b0:	8082                	ret

200142b2 <__metal_driver_riscv_cpu_controller_interrupt_disable>:
__metal_driver_riscv_cpu_controller_interrupt_disable():
/home/nicoladgg/wsFreedomStudio/sifive_hifive1_revb_hello/freedom-metal/src/drivers/riscv_cpu.c:557
200142b2:	1101                	addi	sp,sp,-32
200142b4:	ce06                	sw	ra,28(sp)
200142b6:	cc22                	sw	s0,24(sp)
200142b8:	1000                	addi	s0,sp,32
200142ba:	fea42623          	sw	a0,-20(s0)
200142be:	feb42423          	sw	a1,-24(s0)
/home/nicoladgg/wsFreedomStudio/sifive_hifive1_revb_hello/freedom-metal/src/drivers/riscv_cpu.c:558
200142c2:	fe842783          	lw	a5,-24(s0)
200142c6:	4601                	li	a2,0
200142c8:	85be                	mv	a1,a5
200142ca:	fec42503          	lw	a0,-20(s0)
200142ce:	bedff0ef          	jal	ra,20013eba <__metal_local_interrupt_enable>
200142d2:	87aa                	mv	a5,a0
/home/nicoladgg/wsFreedomStudio/sifive_hifive1_revb_hello/freedom-metal/src/drivers/riscv_cpu.c:559
200142d4:	853e                	mv	a0,a5
200142d6:	40f2                	lw	ra,28(sp)
200142d8:	4462                	lw	s0,24(sp)
200142da:	6105                	addi	sp,sp,32
200142dc:	8082                	ret

200142de <__metal_driver_riscv_cpu_controller_get_vector_mode>:
__metal_driver_riscv_cpu_controller_get_vector_mode():
/home/nicoladgg/wsFreedomStudio/sifive_hifive1_revb_hello/freedom-metal/src/drivers/riscv_cpu.c:591
200142de:	1101                	addi	sp,sp,-32
200142e0:	ce06                	sw	ra,28(sp)
200142e2:	cc22                	sw	s0,24(sp)
200142e4:	1000                	addi	s0,sp,32
200142e6:	fea42623          	sw	a0,-20(s0)
/home/nicoladgg/wsFreedomStudio/sifive_hifive1_revb_hello/freedom-metal/src/drivers/riscv_cpu.c:592
200142ea:	a6fff0ef          	jal	ra,20013d58 <__metal_controller_interrupt_vector_mode>
200142ee:	87aa                	mv	a5,a0
/home/nicoladgg/wsFreedomStudio/sifive_hifive1_revb_hello/freedom-metal/src/drivers/riscv_cpu.c:593
200142f0:	853e                	mv	a0,a5
200142f2:	40f2                	lw	ra,28(sp)
200142f4:	4462                	lw	s0,24(sp)
200142f6:	6105                	addi	sp,sp,32
200142f8:	8082                	ret

200142fa <__metal_driver_riscv_cpu_controller_set_vector_mode>:
__metal_driver_riscv_cpu_controller_set_vector_mode():
/home/nicoladgg/wsFreedomStudio/sifive_hifive1_revb_hello/freedom-metal/src/drivers/riscv_cpu.c:596
200142fa:	1101                	addi	sp,sp,-32
200142fc:	ce06                	sw	ra,28(sp)
200142fe:	cc22                	sw	s0,24(sp)
20014300:	1000                	addi	s0,sp,32
20014302:	fea42623          	sw	a0,-20(s0)
20014306:	feb42423          	sw	a1,-24(s0)
/home/nicoladgg/wsFreedomStudio/sifive_hifive1_revb_hello/freedom-metal/src/drivers/riscv_cpu.c:598
2001430a:	fe842783          	lw	a5,-24(s0)
2001430e:	eb99                	bnez	a5,20014324 <__metal_driver_riscv_cpu_controller_set_vector_mode+0x2a>
/home/nicoladgg/wsFreedomStudio/sifive_hifive1_revb_hello/freedom-metal/src/drivers/riscv_cpu.c:599
20014310:	200137b7          	lui	a5,0x20013
20014314:	20078593          	addi	a1,a5,512 # 20013200 <__metal_exception_handler>
20014318:	fe842503          	lw	a0,-24(s0)
2001431c:	a95ff0ef          	jal	ra,20013db0 <__metal_controller_interrupt_vector>
/home/nicoladgg/wsFreedomStudio/sifive_hifive1_revb_hello/freedom-metal/src/drivers/riscv_cpu.c:601
20014320:	4781                	li	a5,0
20014322:	a00d                	j	20014344 <__metal_driver_riscv_cpu_controller_set_vector_mode+0x4a>
/home/nicoladgg/wsFreedomStudio/sifive_hifive1_revb_hello/freedom-metal/src/drivers/riscv_cpu.c:603
20014324:	fe842703          	lw	a4,-24(s0)
20014328:	4785                	li	a5,1
2001432a:	00f71c63          	bne	a4,a5,20014342 <__metal_driver_riscv_cpu_controller_set_vector_mode+0x48>
/home/nicoladgg/wsFreedomStudio/sifive_hifive1_revb_hello/freedom-metal/src/drivers/riscv_cpu.c:604
2001432e:	200177b7          	lui	a5,0x20017
20014332:	d8078593          	addi	a1,a5,-640 # 20016d80 <__metal_vector_table>
20014336:	fe842503          	lw	a0,-24(s0)
2001433a:	a77ff0ef          	jal	ra,20013db0 <__metal_controller_interrupt_vector>
/home/nicoladgg/wsFreedomStudio/sifive_hifive1_revb_hello/freedom-metal/src/drivers/riscv_cpu.c:606
2001433e:	4781                	li	a5,0
20014340:	a011                	j	20014344 <__metal_driver_riscv_cpu_controller_set_vector_mode+0x4a>
/home/nicoladgg/wsFreedomStudio/sifive_hifive1_revb_hello/freedom-metal/src/drivers/riscv_cpu.c:608
20014342:	57fd                	li	a5,-1
/home/nicoladgg/wsFreedomStudio/sifive_hifive1_revb_hello/freedom-metal/src/drivers/riscv_cpu.c:609
20014344:	853e                	mv	a0,a5
20014346:	40f2                	lw	ra,28(sp)
20014348:	4462                	lw	s0,24(sp)
2001434a:	6105                	addi	sp,sp,32
2001434c:	8082                	ret

2001434e <__metal_driver_riscv_cpu_controller_command_request>:
__metal_driver_riscv_cpu_controller_command_request():
/home/nicoladgg/wsFreedomStudio/sifive_hifive1_revb_hello/freedom-metal/src/drivers/riscv_cpu.c:612
2001434e:	1101                	addi	sp,sp,-32
20014350:	ce22                	sw	s0,28(sp)
20014352:	1000                	addi	s0,sp,32
20014354:	fea42623          	sw	a0,-20(s0)
20014358:	feb42423          	sw	a1,-24(s0)
2001435c:	fec42223          	sw	a2,-28(s0)
/home/nicoladgg/wsFreedomStudio/sifive_hifive1_revb_hello/freedom-metal/src/drivers/riscv_cpu.c:615
20014360:	4781                	li	a5,0
/home/nicoladgg/wsFreedomStudio/sifive_hifive1_revb_hello/freedom-metal/src/drivers/riscv_cpu.c:616
20014362:	853e                	mv	a0,a5
20014364:	4472                	lw	s0,28(sp)
20014366:	6105                	addi	sp,sp,32
20014368:	8082                	ret

2001436a <__metal_driver_cpu_mcycle_get>:
__metal_driver_cpu_mcycle_get():
/home/nicoladgg/wsFreedomStudio/sifive_hifive1_revb_hello/freedom-metal/src/drivers/riscv_cpu.c:620
2001436a:	7139                	addi	sp,sp,-64
2001436c:	de22                	sw	s0,60(sp)
2001436e:	0080                	addi	s0,sp,64
20014370:	fca42623          	sw	a0,-52(s0)
/home/nicoladgg/wsFreedomStudio/sifive_hifive1_revb_hello/freedom-metal/src/drivers/riscv_cpu.c:621
20014374:	4501                	li	a0,0
20014376:	4581                	li	a1,0
20014378:	fea42423          	sw	a0,-24(s0)
2001437c:	feb42623          	sw	a1,-20(s0)
/home/nicoladgg/wsFreedomStudio/sifive_hifive1_revb_hello/freedom-metal/src/drivers/riscv_cpu.c:627 (discriminator 1)
20014380:	b80025f3          	csrr	a1,mcycleh
20014384:	feb42223          	sw	a1,-28(s0)
/home/nicoladgg/wsFreedomStudio/sifive_hifive1_revb_hello/freedom-metal/src/drivers/riscv_cpu.c:628 (discriminator 1)
20014388:	b00025f3          	csrr	a1,mcycle
2001438c:	feb42023          	sw	a1,-32(s0)
/home/nicoladgg/wsFreedomStudio/sifive_hifive1_revb_hello/freedom-metal/src/drivers/riscv_cpu.c:629 (discriminator 1)
20014390:	b80025f3          	csrr	a1,mcycleh
20014394:	fcb42e23          	sw	a1,-36(s0)
/home/nicoladgg/wsFreedomStudio/sifive_hifive1_revb_hello/freedom-metal/src/drivers/riscv_cpu.c:632 (discriminator 1)
20014398:	fe442503          	lw	a0,-28(s0)
2001439c:	fdc42583          	lw	a1,-36(s0)
200143a0:	feb510e3          	bne	a0,a1,20014380 <__metal_driver_cpu_mcycle_get+0x16>
/home/nicoladgg/wsFreedomStudio/sifive_hifive1_revb_hello/freedom-metal/src/drivers/riscv_cpu.c:634
200143a4:	fe442583          	lw	a1,-28(s0)
200143a8:	882e                	mv	a6,a1
200143aa:	4881                	li	a7,0
200143ac:	00081793          	slli	a5,a6,0x0
200143b0:	4701                	li	a4,0
200143b2:	fe042583          	lw	a1,-32(s0)
200143b6:	862e                	mv	a2,a1
200143b8:	4681                	li	a3,0
200143ba:	00c765b3          	or	a1,a4,a2
200143be:	feb42423          	sw	a1,-24(s0)
200143c2:	8fd5                	or	a5,a5,a3
200143c4:	fef42623          	sw	a5,-20(s0)
/home/nicoladgg/wsFreedomStudio/sifive_hifive1_revb_hello/freedom-metal/src/drivers/riscv_cpu.c:639
200143c8:	fe842703          	lw	a4,-24(s0)
200143cc:	fec42783          	lw	a5,-20(s0)
/home/nicoladgg/wsFreedomStudio/sifive_hifive1_revb_hello/freedom-metal/src/drivers/riscv_cpu.c:640
200143d0:	853a                	mv	a0,a4
200143d2:	85be                	mv	a1,a5
200143d4:	5472                	lw	s0,60(sp)
200143d6:	6121                	addi	sp,sp,64
200143d8:	8082                	ret

200143da <__metal_driver_cpu_timebase_get>:
__metal_driver_cpu_timebase_get():
/home/nicoladgg/wsFreedomStudio/sifive_hifive1_revb_hello/freedom-metal/src/drivers/riscv_cpu.c:642
200143da:	7179                	addi	sp,sp,-48
200143dc:	d606                	sw	ra,44(sp)
200143de:	d422                	sw	s0,40(sp)
200143e0:	d24a                	sw	s2,36(sp)
200143e2:	d04e                	sw	s3,32(sp)
200143e4:	1800                	addi	s0,sp,48
200143e6:	fca42e23          	sw	a0,-36(s0)
/home/nicoladgg/wsFreedomStudio/sifive_hifive1_revb_hello/freedom-metal/src/drivers/riscv_cpu.c:644
200143ea:	fdc42783          	lw	a5,-36(s0)
200143ee:	e781                	bnez	a5,200143f6 <__metal_driver_cpu_timebase_get+0x1c>
/home/nicoladgg/wsFreedomStudio/sifive_hifive1_revb_hello/freedom-metal/src/drivers/riscv_cpu.c:645
200143f0:	4901                	li	s2,0
200143f2:	4981                	li	s3,0
200143f4:	a821                	j	2001440c <__metal_driver_cpu_timebase_get+0x32>
/home/nicoladgg/wsFreedomStudio/sifive_hifive1_revb_hello/freedom-metal/src/drivers/riscv_cpu.c:648
200143f6:	fdc42503          	lw	a0,-36(s0)
200143fa:	99dfe0ef          	jal	ra,20012d96 <__metal_driver_cpu_timebase>
200143fe:	fea42623          	sw	a0,-20(s0)
/home/nicoladgg/wsFreedomStudio/sifive_hifive1_revb_hello/freedom-metal/src/drivers/riscv_cpu.c:649
20014402:	fec42783          	lw	a5,-20(s0)
20014406:	893e                	mv	s2,a5
20014408:	87fd                	srai	a5,a5,0x1f
2001440a:	89be                	mv	s3,a5
/home/nicoladgg/wsFreedomStudio/sifive_hifive1_revb_hello/freedom-metal/src/drivers/riscv_cpu.c:650
2001440c:	874a                	mv	a4,s2
2001440e:	87ce                	mv	a5,s3
20014410:	853a                	mv	a0,a4
20014412:	85be                	mv	a1,a5
20014414:	50b2                	lw	ra,44(sp)
20014416:	5422                	lw	s0,40(sp)
20014418:	5912                	lw	s2,36(sp)
2001441a:	5982                	lw	s3,32(sp)
2001441c:	6145                	addi	sp,sp,48
2001441e:	8082                	ret

20014420 <__metal_driver_cpu_mtime_get>:
__metal_driver_cpu_mtime_get():
/home/nicoladgg/wsFreedomStudio/sifive_hifive1_revb_hello/freedom-metal/src/drivers/riscv_cpu.c:652
20014420:	7179                	addi	sp,sp,-48
20014422:	d606                	sw	ra,44(sp)
20014424:	d422                	sw	s0,40(sp)
20014426:	1800                	addi	s0,sp,48
20014428:	fca42e23          	sw	a0,-36(s0)
/home/nicoladgg/wsFreedomStudio/sifive_hifive1_revb_hello/freedom-metal/src/drivers/riscv_cpu.c:653
2001442c:	4781                	li	a5,0
2001442e:	4801                	li	a6,0
20014430:	fef42023          	sw	a5,-32(s0)
20014434:	ff042223          	sw	a6,-28(s0)
/home/nicoladgg/wsFreedomStudio/sifive_hifive1_revb_hello/freedom-metal/src/drivers/riscv_cpu.c:657
20014438:	fdc42503          	lw	a0,-36(s0)
2001443c:	985fe0ef          	jal	ra,20012dc0 <__metal_driver_cpu_interrupt_controller>
20014440:	fea42623          	sw	a0,-20(s0)
/home/nicoladgg/wsFreedomStudio/sifive_hifive1_revb_hello/freedom-metal/src/drivers/riscv_cpu.c:659
20014444:	fec42783          	lw	a5,-20(s0)
20014448:	c78d                	beqz	a5,20014472 <__metal_driver_cpu_mtime_get+0x52>
/home/nicoladgg/wsFreedomStudio/sifive_hifive1_revb_hello/freedom-metal/src/drivers/riscv_cpu.c:660
2001444a:	fec42783          	lw	a5,-20(s0)
2001444e:	13c7a783          	lw	a5,316(a5)
20014452:	fef42423          	sw	a5,-24(s0)
/home/nicoladgg/wsFreedomStudio/sifive_hifive1_revb_hello/freedom-metal/src/drivers/riscv_cpu.c:661
20014456:	fe842783          	lw	a5,-24(s0)
2001445a:	cf81                	beqz	a5,20014472 <__metal_driver_cpu_mtime_get+0x52>
/home/nicoladgg/wsFreedomStudio/sifive_hifive1_revb_hello/freedom-metal/src/drivers/riscv_cpu.c:662
2001445c:	fe842783          	lw	a5,-24(s0)
20014460:	439c                	lw	a5,0(a5)
20014462:	47f8                	lw	a4,76(a5)
20014464:	fe040793          	addi	a5,s0,-32
20014468:	863e                	mv	a2,a5
2001446a:	4585                	li	a1,1
2001446c:	fe842503          	lw	a0,-24(s0)
20014470:	9702                	jalr	a4
/home/nicoladgg/wsFreedomStudio/sifive_hifive1_revb_hello/freedom-metal/src/drivers/riscv_cpu.c:666
20014472:	fe042703          	lw	a4,-32(s0)
20014476:	fe442783          	lw	a5,-28(s0)
/home/nicoladgg/wsFreedomStudio/sifive_hifive1_revb_hello/freedom-metal/src/drivers/riscv_cpu.c:667
2001447a:	853a                	mv	a0,a4
2001447c:	85be                	mv	a1,a5
2001447e:	50b2                	lw	ra,44(sp)
20014480:	5422                	lw	s0,40(sp)
20014482:	6145                	addi	sp,sp,48
20014484:	8082                	ret

20014486 <__metal_driver_cpu_mtimecmp_set>:
__metal_driver_cpu_mtimecmp_set():
/home/nicoladgg/wsFreedomStudio/sifive_hifive1_revb_hello/freedom-metal/src/drivers/riscv_cpu.c:670
20014486:	7179                	addi	sp,sp,-48
20014488:	d606                	sw	ra,44(sp)
2001448a:	d422                	sw	s0,40(sp)
2001448c:	d226                	sw	s1,36(sp)
2001448e:	1800                	addi	s0,sp,48
20014490:	fca42e23          	sw	a0,-36(s0)
20014494:	fcb42823          	sw	a1,-48(s0)
20014498:	fcc42a23          	sw	a2,-44(s0)
/home/nicoladgg/wsFreedomStudio/sifive_hifive1_revb_hello/freedom-metal/src/drivers/riscv_cpu.c:671
2001449c:	57fd                	li	a5,-1
2001449e:	fef42623          	sw	a5,-20(s0)
/home/nicoladgg/wsFreedomStudio/sifive_hifive1_revb_hello/freedom-metal/src/drivers/riscv_cpu.c:675
200144a2:	fdc42503          	lw	a0,-36(s0)
200144a6:	91bfe0ef          	jal	ra,20012dc0 <__metal_driver_cpu_interrupt_controller>
200144aa:	fea42423          	sw	a0,-24(s0)
/home/nicoladgg/wsFreedomStudio/sifive_hifive1_revb_hello/freedom-metal/src/drivers/riscv_cpu.c:677
200144ae:	fe842783          	lw	a5,-24(s0)
200144b2:	cf8d                	beqz	a5,200144ec <__metal_driver_cpu_mtimecmp_set+0x66>
/home/nicoladgg/wsFreedomStudio/sifive_hifive1_revb_hello/freedom-metal/src/drivers/riscv_cpu.c:678
200144b4:	fe842783          	lw	a5,-24(s0)
200144b8:	13c7a783          	lw	a5,316(a5)
200144bc:	fef42223          	sw	a5,-28(s0)
/home/nicoladgg/wsFreedomStudio/sifive_hifive1_revb_hello/freedom-metal/src/drivers/riscv_cpu.c:679
200144c0:	fe442783          	lw	a5,-28(s0)
200144c4:	c785                	beqz	a5,200144ec <__metal_driver_cpu_mtimecmp_set+0x66>
/home/nicoladgg/wsFreedomStudio/sifive_hifive1_revb_hello/freedom-metal/src/drivers/riscv_cpu.c:680
200144c6:	fe442783          	lw	a5,-28(s0)
200144ca:	439c                	lw	a5,0(a5)
200144cc:	4ba4                	lw	s1,80(a5)
200144ce:	fdc42503          	lw	a0,-36(s0)
200144d2:	8a1fe0ef          	jal	ra,20012d72 <__metal_driver_cpu_hartid>
200144d6:	87aa                	mv	a5,a0
200144d8:	fd042603          	lw	a2,-48(s0)
200144dc:	fd442683          	lw	a3,-44(s0)
200144e0:	85be                	mv	a1,a5
200144e2:	fe442503          	lw	a0,-28(s0)
200144e6:	9482                	jalr	s1
200144e8:	fea42623          	sw	a0,-20(s0)
/home/nicoladgg/wsFreedomStudio/sifive_hifive1_revb_hello/freedom-metal/src/drivers/riscv_cpu.c:684
200144ec:	fec42783          	lw	a5,-20(s0)
/home/nicoladgg/wsFreedomStudio/sifive_hifive1_revb_hello/freedom-metal/src/drivers/riscv_cpu.c:685
200144f0:	853e                	mv	a0,a5
200144f2:	50b2                	lw	ra,44(sp)
200144f4:	5422                	lw	s0,40(sp)
200144f6:	5492                	lw	s1,36(sp)
200144f8:	6145                	addi	sp,sp,48
200144fa:	8082                	ret

200144fc <__metal_driver_cpu_timer_controller_interrupt>:
__metal_driver_cpu_timer_controller_interrupt():
/home/nicoladgg/wsFreedomStudio/sifive_hifive1_revb_hello/freedom-metal/src/drivers/riscv_cpu.c:688
200144fc:	1101                	addi	sp,sp,-32
200144fe:	ce22                	sw	s0,28(sp)
20014500:	1000                	addi	s0,sp,32
20014502:	fea42623          	sw	a0,-20(s0)
/home/nicoladgg/wsFreedomStudio/sifive_hifive1_revb_hello/freedom-metal/src/drivers/riscv_cpu.c:690
20014506:	800017b7          	lui	a5,0x80001
2001450a:	aac78793          	addi	a5,a5,-1364 # 80000aac <metal_segment_heap_target_end+0xfffff32c>
/home/nicoladgg/wsFreedomStudio/sifive_hifive1_revb_hello/freedom-metal/src/drivers/riscv_cpu.c:699
2001450e:	853e                	mv	a0,a5
20014510:	4472                	lw	s0,28(sp)
20014512:	6105                	addi	sp,sp,32
20014514:	8082                	ret

20014516 <__metal_driver_cpu_get_timer_interrupt_id>:
__metal_driver_cpu_get_timer_interrupt_id():
/home/nicoladgg/wsFreedomStudio/sifive_hifive1_revb_hello/freedom-metal/src/drivers/riscv_cpu.c:701
20014516:	1101                	addi	sp,sp,-32
20014518:	ce22                	sw	s0,28(sp)
2001451a:	1000                	addi	s0,sp,32
2001451c:	fea42623          	sw	a0,-20(s0)
/home/nicoladgg/wsFreedomStudio/sifive_hifive1_revb_hello/freedom-metal/src/drivers/riscv_cpu.c:702
20014520:	479d                	li	a5,7
/home/nicoladgg/wsFreedomStudio/sifive_hifive1_revb_hello/freedom-metal/src/drivers/riscv_cpu.c:703
20014522:	853e                	mv	a0,a5
20014524:	4472                	lw	s0,28(sp)
20014526:	6105                	addi	sp,sp,32
20014528:	8082                	ret

2001452a <__metal_driver_cpu_sw_controller_interrupt>:
__metal_driver_cpu_sw_controller_interrupt():
/home/nicoladgg/wsFreedomStudio/sifive_hifive1_revb_hello/freedom-metal/src/drivers/riscv_cpu.c:706
2001452a:	1101                	addi	sp,sp,-32
2001452c:	ce22                	sw	s0,28(sp)
2001452e:	1000                	addi	s0,sp,32
20014530:	fea42623          	sw	a0,-20(s0)
/home/nicoladgg/wsFreedomStudio/sifive_hifive1_revb_hello/freedom-metal/src/drivers/riscv_cpu.c:708
20014534:	800017b7          	lui	a5,0x80001
20014538:	aac78793          	addi	a5,a5,-1364 # 80000aac <metal_segment_heap_target_end+0xfffff32c>
/home/nicoladgg/wsFreedomStudio/sifive_hifive1_revb_hello/freedom-metal/src/drivers/riscv_cpu.c:717
2001453c:	853e                	mv	a0,a5
2001453e:	4472                	lw	s0,28(sp)
20014540:	6105                	addi	sp,sp,32
20014542:	8082                	ret

20014544 <__metal_driver_cpu_get_sw_interrupt_id>:
__metal_driver_cpu_get_sw_interrupt_id():
/home/nicoladgg/wsFreedomStudio/sifive_hifive1_revb_hello/freedom-metal/src/drivers/riscv_cpu.c:719
20014544:	1101                	addi	sp,sp,-32
20014546:	ce22                	sw	s0,28(sp)
20014548:	1000                	addi	s0,sp,32
2001454a:	fea42623          	sw	a0,-20(s0)
/home/nicoladgg/wsFreedomStudio/sifive_hifive1_revb_hello/freedom-metal/src/drivers/riscv_cpu.c:720
2001454e:	478d                	li	a5,3
/home/nicoladgg/wsFreedomStudio/sifive_hifive1_revb_hello/freedom-metal/src/drivers/riscv_cpu.c:721
20014550:	853e                	mv	a0,a5
20014552:	4472                	lw	s0,28(sp)
20014554:	6105                	addi	sp,sp,32
20014556:	8082                	ret

20014558 <__metal_driver_cpu_set_sw_ipi>:
__metal_driver_cpu_set_sw_ipi():
/home/nicoladgg/wsFreedomStudio/sifive_hifive1_revb_hello/freedom-metal/src/drivers/riscv_cpu.c:723
20014558:	7179                	addi	sp,sp,-48
2001455a:	d606                	sw	ra,44(sp)
2001455c:	d422                	sw	s0,40(sp)
2001455e:	1800                	addi	s0,sp,48
20014560:	fca42e23          	sw	a0,-36(s0)
20014564:	fcb42c23          	sw	a1,-40(s0)
/home/nicoladgg/wsFreedomStudio/sifive_hifive1_revb_hello/freedom-metal/src/drivers/riscv_cpu.c:724
20014568:	57fd                	li	a5,-1
2001456a:	fef42623          	sw	a5,-20(s0)
/home/nicoladgg/wsFreedomStudio/sifive_hifive1_revb_hello/freedom-metal/src/drivers/riscv_cpu.c:728
2001456e:	fdc42503          	lw	a0,-36(s0)
20014572:	84ffe0ef          	jal	ra,20012dc0 <__metal_driver_cpu_interrupt_controller>
20014576:	fea42423          	sw	a0,-24(s0)
/home/nicoladgg/wsFreedomStudio/sifive_hifive1_revb_hello/freedom-metal/src/drivers/riscv_cpu.c:730
2001457a:	fe842783          	lw	a5,-24(s0)
2001457e:	c79d                	beqz	a5,200145ac <__metal_driver_cpu_set_sw_ipi+0x54>
/home/nicoladgg/wsFreedomStudio/sifive_hifive1_revb_hello/freedom-metal/src/drivers/riscv_cpu.c:731
20014580:	fe842783          	lw	a5,-24(s0)
20014584:	0dc7a783          	lw	a5,220(a5)
20014588:	fef42223          	sw	a5,-28(s0)
/home/nicoladgg/wsFreedomStudio/sifive_hifive1_revb_hello/freedom-metal/src/drivers/riscv_cpu.c:732
2001458c:	fe442783          	lw	a5,-28(s0)
20014590:	cf91                	beqz	a5,200145ac <__metal_driver_cpu_set_sw_ipi+0x54>
/home/nicoladgg/wsFreedomStudio/sifive_hifive1_revb_hello/freedom-metal/src/drivers/riscv_cpu.c:733
20014592:	fe442783          	lw	a5,-28(s0)
20014596:	439c                	lw	a5,0(a5)
20014598:	47f8                	lw	a4,76(a5)
2001459a:	fd840793          	addi	a5,s0,-40
2001459e:	863e                	mv	a2,a5
200145a0:	458d                	li	a1,3
200145a2:	fe442503          	lw	a0,-28(s0)
200145a6:	9702                	jalr	a4
200145a8:	fea42623          	sw	a0,-20(s0)
/home/nicoladgg/wsFreedomStudio/sifive_hifive1_revb_hello/freedom-metal/src/drivers/riscv_cpu.c:737
200145ac:	fec42783          	lw	a5,-20(s0)
/home/nicoladgg/wsFreedomStudio/sifive_hifive1_revb_hello/freedom-metal/src/drivers/riscv_cpu.c:738
200145b0:	853e                	mv	a0,a5
200145b2:	50b2                	lw	ra,44(sp)
200145b4:	5422                	lw	s0,40(sp)
200145b6:	6145                	addi	sp,sp,48
200145b8:	8082                	ret

200145ba <__metal_driver_cpu_clear_sw_ipi>:
__metal_driver_cpu_clear_sw_ipi():
/home/nicoladgg/wsFreedomStudio/sifive_hifive1_revb_hello/freedom-metal/src/drivers/riscv_cpu.c:740
200145ba:	7179                	addi	sp,sp,-48
200145bc:	d606                	sw	ra,44(sp)
200145be:	d422                	sw	s0,40(sp)
200145c0:	1800                	addi	s0,sp,48
200145c2:	fca42e23          	sw	a0,-36(s0)
200145c6:	fcb42c23          	sw	a1,-40(s0)
/home/nicoladgg/wsFreedomStudio/sifive_hifive1_revb_hello/freedom-metal/src/drivers/riscv_cpu.c:741
200145ca:	57fd                	li	a5,-1
200145cc:	fef42623          	sw	a5,-20(s0)
/home/nicoladgg/wsFreedomStudio/sifive_hifive1_revb_hello/freedom-metal/src/drivers/riscv_cpu.c:745
200145d0:	fdc42503          	lw	a0,-36(s0)
200145d4:	fecfe0ef          	jal	ra,20012dc0 <__metal_driver_cpu_interrupt_controller>
200145d8:	fea42423          	sw	a0,-24(s0)
/home/nicoladgg/wsFreedomStudio/sifive_hifive1_revb_hello/freedom-metal/src/drivers/riscv_cpu.c:747
200145dc:	fe842783          	lw	a5,-24(s0)
200145e0:	c79d                	beqz	a5,2001460e <__metal_driver_cpu_clear_sw_ipi+0x54>
/home/nicoladgg/wsFreedomStudio/sifive_hifive1_revb_hello/freedom-metal/src/drivers/riscv_cpu.c:748
200145e2:	fe842783          	lw	a5,-24(s0)
200145e6:	0dc7a783          	lw	a5,220(a5)
200145ea:	fef42223          	sw	a5,-28(s0)
/home/nicoladgg/wsFreedomStudio/sifive_hifive1_revb_hello/freedom-metal/src/drivers/riscv_cpu.c:749
200145ee:	fe442783          	lw	a5,-28(s0)
200145f2:	cf91                	beqz	a5,2001460e <__metal_driver_cpu_clear_sw_ipi+0x54>
/home/nicoladgg/wsFreedomStudio/sifive_hifive1_revb_hello/freedom-metal/src/drivers/riscv_cpu.c:750
200145f4:	fe442783          	lw	a5,-28(s0)
200145f8:	439c                	lw	a5,0(a5)
200145fa:	47f8                	lw	a4,76(a5)
200145fc:	fd840793          	addi	a5,s0,-40
20014600:	863e                	mv	a2,a5
20014602:	4589                	li	a1,2
20014604:	fe442503          	lw	a0,-28(s0)
20014608:	9702                	jalr	a4
2001460a:	fea42623          	sw	a0,-20(s0)
/home/nicoladgg/wsFreedomStudio/sifive_hifive1_revb_hello/freedom-metal/src/drivers/riscv_cpu.c:754
2001460e:	fec42783          	lw	a5,-20(s0)
/home/nicoladgg/wsFreedomStudio/sifive_hifive1_revb_hello/freedom-metal/src/drivers/riscv_cpu.c:755
20014612:	853e                	mv	a0,a5
20014614:	50b2                	lw	ra,44(sp)
20014616:	5422                	lw	s0,40(sp)
20014618:	6145                	addi	sp,sp,48
2001461a:	8082                	ret

2001461c <__metal_driver_cpu_get_msip>:
__metal_driver_cpu_get_msip():
/home/nicoladgg/wsFreedomStudio/sifive_hifive1_revb_hello/freedom-metal/src/drivers/riscv_cpu.c:757
2001461c:	7179                	addi	sp,sp,-48
2001461e:	d606                	sw	ra,44(sp)
20014620:	d422                	sw	s0,40(sp)
20014622:	1800                	addi	s0,sp,48
20014624:	fca42e23          	sw	a0,-36(s0)
20014628:	fcb42c23          	sw	a1,-40(s0)
/home/nicoladgg/wsFreedomStudio/sifive_hifive1_revb_hello/freedom-metal/src/drivers/riscv_cpu.c:758
2001462c:	fe042623          	sw	zero,-20(s0)
/home/nicoladgg/wsFreedomStudio/sifive_hifive1_revb_hello/freedom-metal/src/drivers/riscv_cpu.c:762
20014630:	fdc42503          	lw	a0,-36(s0)
20014634:	f8cfe0ef          	jal	ra,20012dc0 <__metal_driver_cpu_interrupt_controller>
20014638:	fea42423          	sw	a0,-24(s0)
/home/nicoladgg/wsFreedomStudio/sifive_hifive1_revb_hello/freedom-metal/src/drivers/riscv_cpu.c:764
2001463c:	fe842783          	lw	a5,-24(s0)
20014640:	c79d                	beqz	a5,2001466e <__metal_driver_cpu_get_msip+0x52>
/home/nicoladgg/wsFreedomStudio/sifive_hifive1_revb_hello/freedom-metal/src/drivers/riscv_cpu.c:765
20014642:	fe842783          	lw	a5,-24(s0)
20014646:	0dc7a783          	lw	a5,220(a5)
2001464a:	fef42223          	sw	a5,-28(s0)
/home/nicoladgg/wsFreedomStudio/sifive_hifive1_revb_hello/freedom-metal/src/drivers/riscv_cpu.c:766
2001464e:	fe442783          	lw	a5,-28(s0)
20014652:	cf91                	beqz	a5,2001466e <__metal_driver_cpu_get_msip+0x52>
/home/nicoladgg/wsFreedomStudio/sifive_hifive1_revb_hello/freedom-metal/src/drivers/riscv_cpu.c:767
20014654:	fe442783          	lw	a5,-28(s0)
20014658:	439c                	lw	a5,0(a5)
2001465a:	47f8                	lw	a4,76(a5)
2001465c:	fd840793          	addi	a5,s0,-40
20014660:	863e                	mv	a2,a5
20014662:	4591                	li	a1,4
20014664:	fe442503          	lw	a0,-28(s0)
20014668:	9702                	jalr	a4
2001466a:	fea42623          	sw	a0,-20(s0)
/home/nicoladgg/wsFreedomStudio/sifive_hifive1_revb_hello/freedom-metal/src/drivers/riscv_cpu.c:771
2001466e:	fec42783          	lw	a5,-20(s0)
/home/nicoladgg/wsFreedomStudio/sifive_hifive1_revb_hello/freedom-metal/src/drivers/riscv_cpu.c:772
20014672:	853e                	mv	a0,a5
20014674:	50b2                	lw	ra,44(sp)
20014676:	5422                	lw	s0,40(sp)
20014678:	6145                	addi	sp,sp,48
2001467a:	8082                	ret

2001467c <__metal_driver_cpu_controller_interrupt>:
__metal_driver_cpu_controller_interrupt():
/home/nicoladgg/wsFreedomStudio/sifive_hifive1_revb_hello/freedom-metal/src/drivers/riscv_cpu.c:775
2001467c:	1101                	addi	sp,sp,-32
2001467e:	ce06                	sw	ra,28(sp)
20014680:	cc22                	sw	s0,24(sp)
20014682:	1000                	addi	s0,sp,32
20014684:	fea42623          	sw	a0,-20(s0)
/home/nicoladgg/wsFreedomStudio/sifive_hifive1_revb_hello/freedom-metal/src/drivers/riscv_cpu.c:776
20014688:	fec42503          	lw	a0,-20(s0)
2001468c:	f34fe0ef          	jal	ra,20012dc0 <__metal_driver_cpu_interrupt_controller>
20014690:	87aa                	mv	a5,a0
/home/nicoladgg/wsFreedomStudio/sifive_hifive1_revb_hello/freedom-metal/src/drivers/riscv_cpu.c:777
20014692:	853e                	mv	a0,a5
20014694:	40f2                	lw	ra,28(sp)
20014696:	4462                	lw	s0,24(sp)
20014698:	6105                	addi	sp,sp,32
2001469a:	8082                	ret

2001469c <__metal_driver_cpu_exception_register>:
__metal_driver_cpu_exception_register():
/home/nicoladgg/wsFreedomStudio/sifive_hifive1_revb_hello/freedom-metal/src/drivers/riscv_cpu.c:798
2001469c:	7179                	addi	sp,sp,-48
2001469e:	d606                	sw	ra,44(sp)
200146a0:	d422                	sw	s0,40(sp)
200146a2:	1800                	addi	s0,sp,48
200146a4:	fca42e23          	sw	a0,-36(s0)
200146a8:	fcb42c23          	sw	a1,-40(s0)
200146ac:	fcc42a23          	sw	a2,-44(s0)
/home/nicoladgg/wsFreedomStudio/sifive_hifive1_revb_hello/freedom-metal/src/drivers/riscv_cpu.c:801
200146b0:	fdc42503          	lw	a0,-36(s0)
200146b4:	f0cfe0ef          	jal	ra,20012dc0 <__metal_driver_cpu_interrupt_controller>
200146b8:	fea42623          	sw	a0,-20(s0)
/home/nicoladgg/wsFreedomStudio/sifive_hifive1_revb_hello/freedom-metal/src/drivers/riscv_cpu.c:803
200146bc:	fec42783          	lw	a5,-20(s0)
200146c0:	cb99                	beqz	a5,200146d6 <__metal_driver_cpu_exception_register+0x3a>
/home/nicoladgg/wsFreedomStudio/sifive_hifive1_revb_hello/freedom-metal/src/drivers/riscv_cpu.c:804
200146c2:	fd442603          	lw	a2,-44(s0)
200146c6:	fd842583          	lw	a1,-40(s0)
200146ca:	fec42503          	lw	a0,-20(s0)
200146ce:	8a9ff0ef          	jal	ra,20013f76 <__metal_exception_register>
200146d2:	87aa                	mv	a5,a0
200146d4:	a011                	j	200146d8 <__metal_driver_cpu_exception_register+0x3c>
/home/nicoladgg/wsFreedomStudio/sifive_hifive1_revb_hello/freedom-metal/src/drivers/riscv_cpu.c:807
200146d6:	57fd                	li	a5,-1
/home/nicoladgg/wsFreedomStudio/sifive_hifive1_revb_hello/freedom-metal/src/drivers/riscv_cpu.c:808
200146d8:	853e                	mv	a0,a5
200146da:	50b2                	lw	ra,44(sp)
200146dc:	5422                	lw	s0,40(sp)
200146de:	6145                	addi	sp,sp,48
200146e0:	8082                	ret

200146e2 <__metal_driver_cpu_get_instruction_length>:
__metal_driver_cpu_get_instruction_length():
/home/nicoladgg/wsFreedomStudio/sifive_hifive1_revb_hello/freedom-metal/src/drivers/riscv_cpu.c:811
200146e2:	1101                	addi	sp,sp,-32
200146e4:	ce22                	sw	s0,28(sp)
200146e6:	1000                	addi	s0,sp,32
200146e8:	fea42623          	sw	a0,-20(s0)
200146ec:	feb42423          	sw	a1,-24(s0)
/home/nicoladgg/wsFreedomStudio/sifive_hifive1_revb_hello/freedom-metal/src/drivers/riscv_cpu.c:817
200146f0:	fe842783          	lw	a5,-24(s0)
200146f4:	0007d783          	lhu	a5,0(a5)
200146f8:	0037f713          	andi	a4,a5,3
/home/nicoladgg/wsFreedomStudio/sifive_hifive1_revb_hello/freedom-metal/src/drivers/riscv_cpu.c:820
200146fc:	478d                	li	a5,3
200146fe:	00f71463          	bne	a4,a5,20014706 <__metal_driver_cpu_get_instruction_length+0x24>
/home/nicoladgg/wsFreedomStudio/sifive_hifive1_revb_hello/freedom-metal/src/drivers/riscv_cpu.c:820 (discriminator 1)
20014702:	4791                	li	a5,4
20014704:	a011                	j	20014708 <__metal_driver_cpu_get_instruction_length+0x26>
/home/nicoladgg/wsFreedomStudio/sifive_hifive1_revb_hello/freedom-metal/src/drivers/riscv_cpu.c:820 (discriminator 2)
20014706:	4789                	li	a5,2
/home/nicoladgg/wsFreedomStudio/sifive_hifive1_revb_hello/freedom-metal/src/drivers/riscv_cpu.c:821 (discriminator 5)
20014708:	853e                	mv	a0,a5
2001470a:	4472                	lw	s0,28(sp)
2001470c:	6105                	addi	sp,sp,32
2001470e:	8082                	ret

20014710 <__metal_driver_cpu_get_exception_pc>:
__metal_driver_cpu_get_exception_pc():
/home/nicoladgg/wsFreedomStudio/sifive_hifive1_revb_hello/freedom-metal/src/drivers/riscv_cpu.c:823
20014710:	7179                	addi	sp,sp,-48
20014712:	d622                	sw	s0,44(sp)
20014714:	1800                	addi	s0,sp,48
20014716:	fca42e23          	sw	a0,-36(s0)
/home/nicoladgg/wsFreedomStudio/sifive_hifive1_revb_hello/freedom-metal/src/drivers/riscv_cpu.c:825
2001471a:	341027f3          	csrr	a5,mepc
2001471e:	fef42623          	sw	a5,-20(s0)
/home/nicoladgg/wsFreedomStudio/sifive_hifive1_revb_hello/freedom-metal/src/drivers/riscv_cpu.c:826
20014722:	fec42783          	lw	a5,-20(s0)
/home/nicoladgg/wsFreedomStudio/sifive_hifive1_revb_hello/freedom-metal/src/drivers/riscv_cpu.c:827
20014726:	853e                	mv	a0,a5
20014728:	5432                	lw	s0,44(sp)
2001472a:	6145                	addi	sp,sp,48
2001472c:	8082                	ret

2001472e <__metal_driver_cpu_set_exception_pc>:
__metal_driver_cpu_set_exception_pc():
/home/nicoladgg/wsFreedomStudio/sifive_hifive1_revb_hello/freedom-metal/src/drivers/riscv_cpu.c:829
2001472e:	1101                	addi	sp,sp,-32
20014730:	ce22                	sw	s0,28(sp)
20014732:	1000                	addi	s0,sp,32
20014734:	fea42623          	sw	a0,-20(s0)
20014738:	feb42423          	sw	a1,-24(s0)
/home/nicoladgg/wsFreedomStudio/sifive_hifive1_revb_hello/freedom-metal/src/drivers/riscv_cpu.c:830
2001473c:	fe842783          	lw	a5,-24(s0)
20014740:	34179073          	csrw	mepc,a5
/home/nicoladgg/wsFreedomStudio/sifive_hifive1_revb_hello/freedom-metal/src/drivers/riscv_cpu.c:831
20014744:	4781                	li	a5,0
/home/nicoladgg/wsFreedomStudio/sifive_hifive1_revb_hello/freedom-metal/src/drivers/riscv_cpu.c:832
20014746:	853e                	mv	a0,a5
20014748:	4472                	lw	s0,28(sp)
2001474a:	6105                	addi	sp,sp,32
2001474c:	8082                	ret

2001474e <__metal_driver_cpu_get_buserror>:
__metal_driver_cpu_get_buserror():
/home/nicoladgg/wsFreedomStudio/sifive_hifive1_revb_hello/freedom-metal/src/drivers/riscv_cpu.c:834
2001474e:	1101                	addi	sp,sp,-32
20014750:	ce06                	sw	ra,28(sp)
20014752:	cc22                	sw	s0,24(sp)
20014754:	1000                	addi	s0,sp,32
20014756:	fea42623          	sw	a0,-20(s0)
/home/nicoladgg/wsFreedomStudio/sifive_hifive1_revb_hello/freedom-metal/src/drivers/riscv_cpu.c:835
2001475a:	fec42503          	lw	a0,-20(s0)
2001475e:	e8cfe0ef          	jal	ra,20012dea <__metal_driver_cpu_buserror>
20014762:	87aa                	mv	a5,a0
/home/nicoladgg/wsFreedomStudio/sifive_hifive1_revb_hello/freedom-metal/src/drivers/riscv_cpu.c:836
20014764:	853e                	mv	a0,a5
20014766:	40f2                	lw	ra,28(sp)
20014768:	4462                	lw	s0,24(sp)
2001476a:	6105                	addi	sp,sp,32
2001476c:	8082                	ret

2001476e <__metal_driver_sifive_plic0_control_base>:
__metal_driver_sifive_plic0_control_base():
/home/nicoladgg/wsFreedomStudio/sifive_hifive1_revb_hello/bsp/build/debug/./metal/machine.h:345
2001476e:	1101                	addi	sp,sp,-32
20014770:	ce22                	sw	s0,28(sp)
20014772:	1000                	addi	s0,sp,32
20014774:	fea42623          	sw	a0,-20(s0)
/home/nicoladgg/wsFreedomStudio/sifive_hifive1_revb_hello/bsp/build/debug/./metal/machine.h:346
20014778:	fec42703          	lw	a4,-20(s0)
2001477c:	800007b7          	lui	a5,0x80000
20014780:	46078793          	addi	a5,a5,1120 # 80000460 <metal_segment_heap_target_end+0xffffece0>
20014784:	00f71563          	bne	a4,a5,2001478e <__metal_driver_sifive_plic0_control_base+0x20>
/home/nicoladgg/wsFreedomStudio/sifive_hifive1_revb_hello/bsp/build/debug/./metal/machine.h:347
20014788:	0c0007b7          	lui	a5,0xc000
2001478c:	a011                	j	20014790 <__metal_driver_sifive_plic0_control_base+0x22>
/home/nicoladgg/wsFreedomStudio/sifive_hifive1_revb_hello/bsp/build/debug/./metal/machine.h:350
2001478e:	4781                	li	a5,0
/home/nicoladgg/wsFreedomStudio/sifive_hifive1_revb_hello/bsp/build/debug/./metal/machine.h:352
20014790:	853e                	mv	a0,a5
20014792:	4472                	lw	s0,28(sp)
20014794:	6105                	addi	sp,sp,32
20014796:	8082                	ret

20014798 <__metal_driver_sifive_plic0_num_interrupts>:
__metal_driver_sifive_plic0_num_interrupts():
/home/nicoladgg/wsFreedomStudio/sifive_hifive1_revb_hello/bsp/build/debug/./metal/machine.h:365
20014798:	1101                	addi	sp,sp,-32
2001479a:	ce22                	sw	s0,28(sp)
2001479c:	1000                	addi	s0,sp,32
2001479e:	fea42623          	sw	a0,-20(s0)
/home/nicoladgg/wsFreedomStudio/sifive_hifive1_revb_hello/bsp/build/debug/./metal/machine.h:366
200147a2:	fec42703          	lw	a4,-20(s0)
200147a6:	800007b7          	lui	a5,0x80000
200147aa:	46078793          	addi	a5,a5,1120 # 80000460 <metal_segment_heap_target_end+0xffffece0>
200147ae:	00f71563          	bne	a4,a5,200147b8 <__metal_driver_sifive_plic0_num_interrupts+0x20>
/home/nicoladgg/wsFreedomStudio/sifive_hifive1_revb_hello/bsp/build/debug/./metal/machine.h:367
200147b2:	03500793          	li	a5,53
200147b6:	a011                	j	200147ba <__metal_driver_sifive_plic0_num_interrupts+0x22>
/home/nicoladgg/wsFreedomStudio/sifive_hifive1_revb_hello/bsp/build/debug/./metal/machine.h:370
200147b8:	4781                	li	a5,0
/home/nicoladgg/wsFreedomStudio/sifive_hifive1_revb_hello/bsp/build/debug/./metal/machine.h:372
200147ba:	853e                	mv	a0,a5
200147bc:	4472                	lw	s0,28(sp)
200147be:	6105                	addi	sp,sp,32
200147c0:	8082                	ret

200147c2 <__metal_driver_sifive_plic0_max_priority>:
__metal_driver_sifive_plic0_max_priority():
/home/nicoladgg/wsFreedomStudio/sifive_hifive1_revb_hello/bsp/build/debug/./metal/machine.h:375
200147c2:	1101                	addi	sp,sp,-32
200147c4:	ce22                	sw	s0,28(sp)
200147c6:	1000                	addi	s0,sp,32
200147c8:	fea42623          	sw	a0,-20(s0)
/home/nicoladgg/wsFreedomStudio/sifive_hifive1_revb_hello/bsp/build/debug/./metal/machine.h:376
200147cc:	fec42703          	lw	a4,-20(s0)
200147d0:	800007b7          	lui	a5,0x80000
200147d4:	46078793          	addi	a5,a5,1120 # 80000460 <metal_segment_heap_target_end+0xffffece0>
200147d8:	00f71463          	bne	a4,a5,200147e0 <__metal_driver_sifive_plic0_max_priority+0x1e>
/home/nicoladgg/wsFreedomStudio/sifive_hifive1_revb_hello/bsp/build/debug/./metal/machine.h:377
200147dc:	479d                	li	a5,7
200147de:	a011                	j	200147e2 <__metal_driver_sifive_plic0_max_priority+0x20>
/home/nicoladgg/wsFreedomStudio/sifive_hifive1_revb_hello/bsp/build/debug/./metal/machine.h:380
200147e0:	4781                	li	a5,0
/home/nicoladgg/wsFreedomStudio/sifive_hifive1_revb_hello/bsp/build/debug/./metal/machine.h:382
200147e2:	853e                	mv	a0,a5
200147e4:	4472                	lw	s0,28(sp)
200147e6:	6105                	addi	sp,sp,32
200147e8:	8082                	ret

200147ea <__metal_driver_sifive_plic0_interrupt_parents>:
__metal_driver_sifive_plic0_interrupt_parents():
/home/nicoladgg/wsFreedomStudio/sifive_hifive1_revb_hello/bsp/build/debug/./metal/machine.h:385
200147ea:	1101                	addi	sp,sp,-32
200147ec:	ce22                	sw	s0,28(sp)
200147ee:	1000                	addi	s0,sp,32
200147f0:	fea42623          	sw	a0,-20(s0)
200147f4:	feb42423          	sw	a1,-24(s0)
/home/nicoladgg/wsFreedomStudio/sifive_hifive1_revb_hello/bsp/build/debug/./metal/machine.h:386
200147f8:	fe842783          	lw	a5,-24(s0)
200147fc:	e791                	bnez	a5,20014808 <__metal_driver_sifive_plic0_interrupt_parents+0x1e>
/home/nicoladgg/wsFreedomStudio/sifive_hifive1_revb_hello/bsp/build/debug/./metal/machine.h:387
200147fe:	800007b7          	lui	a5,0x80000
20014802:	09078793          	addi	a5,a5,144 # 80000090 <metal_segment_heap_target_end+0xffffe910>
20014806:	a011                	j	2001480a <__metal_driver_sifive_plic0_interrupt_parents+0x20>
/home/nicoladgg/wsFreedomStudio/sifive_hifive1_revb_hello/bsp/build/debug/./metal/machine.h:390
20014808:	4781                	li	a5,0
/home/nicoladgg/wsFreedomStudio/sifive_hifive1_revb_hello/bsp/build/debug/./metal/machine.h:392
2001480a:	853e                	mv	a0,a5
2001480c:	4472                	lw	s0,28(sp)
2001480e:	6105                	addi	sp,sp,32
20014810:	8082                	ret

20014812 <__metal_driver_sifive_plic0_interrupt_lines>:
__metal_driver_sifive_plic0_interrupt_lines():
/home/nicoladgg/wsFreedomStudio/sifive_hifive1_revb_hello/bsp/build/debug/./metal/machine.h:395
20014812:	1101                	addi	sp,sp,-32
20014814:	ce22                	sw	s0,28(sp)
20014816:	1000                	addi	s0,sp,32
20014818:	fea42623          	sw	a0,-20(s0)
2001481c:	feb42423          	sw	a1,-24(s0)
/home/nicoladgg/wsFreedomStudio/sifive_hifive1_revb_hello/bsp/build/debug/./metal/machine.h:396
20014820:	fe842783          	lw	a5,-24(s0)
20014824:	e399                	bnez	a5,2001482a <__metal_driver_sifive_plic0_interrupt_lines+0x18>
/home/nicoladgg/wsFreedomStudio/sifive_hifive1_revb_hello/bsp/build/debug/./metal/machine.h:397
20014826:	47ad                	li	a5,11
20014828:	a011                	j	2001482c <__metal_driver_sifive_plic0_interrupt_lines+0x1a>
/home/nicoladgg/wsFreedomStudio/sifive_hifive1_revb_hello/bsp/build/debug/./metal/machine.h:400
2001482a:	4781                	li	a5,0
/home/nicoladgg/wsFreedomStudio/sifive_hifive1_revb_hello/bsp/build/debug/./metal/machine.h:402
2001482c:	853e                	mv	a0,a5
2001482e:	4472                	lw	s0,28(sp)
20014830:	6105                	addi	sp,sp,32
20014832:	8082                	ret

20014834 <__metal_driver_sifive_plic0_context_ids>:
__metal_driver_sifive_plic0_context_ids():
/home/nicoladgg/wsFreedomStudio/sifive_hifive1_revb_hello/bsp/build/debug/./metal/machine.h:405
20014834:	1101                	addi	sp,sp,-32
20014836:	ce22                	sw	s0,28(sp)
20014838:	1000                	addi	s0,sp,32
2001483a:	fea42623          	sw	a0,-20(s0)
/home/nicoladgg/wsFreedomStudio/sifive_hifive1_revb_hello/bsp/build/debug/./metal/machine.h:406
2001483e:	fec42783          	lw	a5,-20(s0)
20014842:	e399                	bnez	a5,20014848 <__metal_driver_sifive_plic0_context_ids+0x14>
/home/nicoladgg/wsFreedomStudio/sifive_hifive1_revb_hello/bsp/build/debug/./metal/machine.h:407
20014844:	4781                	li	a5,0
20014846:	a011                	j	2001484a <__metal_driver_sifive_plic0_context_ids+0x16>
/home/nicoladgg/wsFreedomStudio/sifive_hifive1_revb_hello/bsp/build/debug/./metal/machine.h:410
20014848:	57fd                	li	a5,-1
/home/nicoladgg/wsFreedomStudio/sifive_hifive1_revb_hello/bsp/build/debug/./metal/machine.h:412
2001484a:	853e                	mv	a0,a5
2001484c:	4472                	lw	s0,28(sp)
2001484e:	6105                	addi	sp,sp,32
20014850:	8082                	ret

20014852 <__metal_plic0_claim_interrupt>:
__metal_plic0_claim_interrupt():
/home/nicoladgg/wsFreedomStudio/sifive_hifive1_revb_hello/freedom-metal/src/drivers/riscv_plic0.c:18
20014852:	7179                	addi	sp,sp,-48
20014854:	d606                	sw	ra,44(sp)
20014856:	d422                	sw	s0,40(sp)
20014858:	1800                	addi	s0,sp,48
2001485a:	fca42e23          	sw	a0,-36(s0)
2001485e:	fcb42c23          	sw	a1,-40(s0)
/home/nicoladgg/wsFreedomStudio/sifive_hifive1_revb_hello/freedom-metal/src/drivers/riscv_plic0.c:19
20014862:	fdc42503          	lw	a0,-36(s0)
20014866:	3721                	jal	2001476e <__metal_driver_sifive_plic0_control_base>
20014868:	fea42623          	sw	a0,-20(s0)
/home/nicoladgg/wsFreedomStudio/sifive_hifive1_revb_hello/freedom-metal/src/drivers/riscv_plic0.c:21
2001486c:	fd842783          	lw	a5,-40(s0)
20014870:	00c79713          	slli	a4,a5,0xc
20014874:	fec42783          	lw	a5,-20(s0)
20014878:	973e                	add	a4,a4,a5
2001487a:	002007b7          	lui	a5,0x200
2001487e:	0791                	addi	a5,a5,4
20014880:	97ba                	add	a5,a5,a4
20014882:	439c                	lw	a5,0(a5)
/home/nicoladgg/wsFreedomStudio/sifive_hifive1_revb_hello/freedom-metal/src/drivers/riscv_plic0.c:25
20014884:	853e                	mv	a0,a5
20014886:	50b2                	lw	ra,44(sp)
20014888:	5422                	lw	s0,40(sp)
2001488a:	6145                	addi	sp,sp,48
2001488c:	8082                	ret

2001488e <__metal_plic0_complete_interrupt>:
__metal_plic0_complete_interrupt():
/home/nicoladgg/wsFreedomStudio/sifive_hifive1_revb_hello/freedom-metal/src/drivers/riscv_plic0.c:28
2001488e:	7179                	addi	sp,sp,-48
20014890:	d606                	sw	ra,44(sp)
20014892:	d422                	sw	s0,40(sp)
20014894:	1800                	addi	s0,sp,48
20014896:	fca42e23          	sw	a0,-36(s0)
2001489a:	fcb42c23          	sw	a1,-40(s0)
2001489e:	fcc42a23          	sw	a2,-44(s0)
/home/nicoladgg/wsFreedomStudio/sifive_hifive1_revb_hello/freedom-metal/src/drivers/riscv_plic0.c:29
200148a2:	fdc42503          	lw	a0,-36(s0)
200148a6:	35e1                	jal	2001476e <__metal_driver_sifive_plic0_control_base>
200148a8:	fea42623          	sw	a0,-20(s0)
/home/nicoladgg/wsFreedomStudio/sifive_hifive1_revb_hello/freedom-metal/src/drivers/riscv_plic0.c:31
200148ac:	fd842783          	lw	a5,-40(s0)
200148b0:	00c79713          	slli	a4,a5,0xc
200148b4:	fec42783          	lw	a5,-20(s0)
200148b8:	973e                	add	a4,a4,a5
200148ba:	002007b7          	lui	a5,0x200
200148be:	0791                	addi	a5,a5,4
200148c0:	97ba                	add	a5,a5,a4
200148c2:	873e                	mv	a4,a5
/home/nicoladgg/wsFreedomStudio/sifive_hifive1_revb_hello/freedom-metal/src/drivers/riscv_plic0.c:34
200148c4:	fd442783          	lw	a5,-44(s0)
200148c8:	c31c                	sw	a5,0(a4)
/home/nicoladgg/wsFreedomStudio/sifive_hifive1_revb_hello/freedom-metal/src/drivers/riscv_plic0.c:35
200148ca:	0001                	nop
200148cc:	50b2                	lw	ra,44(sp)
200148ce:	5422                	lw	s0,40(sp)
200148d0:	6145                	addi	sp,sp,48
200148d2:	8082                	ret

200148d4 <__metal_plic0_set_threshold>:
__metal_plic0_set_threshold():
/home/nicoladgg/wsFreedomStudio/sifive_hifive1_revb_hello/freedom-metal/src/drivers/riscv_plic0.c:38
200148d4:	7179                	addi	sp,sp,-48
200148d6:	d606                	sw	ra,44(sp)
200148d8:	d422                	sw	s0,40(sp)
200148da:	1800                	addi	s0,sp,48
200148dc:	fca42e23          	sw	a0,-36(s0)
200148e0:	fcb42c23          	sw	a1,-40(s0)
200148e4:	fcc42a23          	sw	a2,-44(s0)
/home/nicoladgg/wsFreedomStudio/sifive_hifive1_revb_hello/freedom-metal/src/drivers/riscv_plic0.c:40
200148e8:	fdc42503          	lw	a0,-36(s0)
200148ec:	3549                	jal	2001476e <__metal_driver_sifive_plic0_control_base>
200148ee:	fea42623          	sw	a0,-20(s0)
/home/nicoladgg/wsFreedomStudio/sifive_hifive1_revb_hello/freedom-metal/src/drivers/riscv_plic0.c:41
200148f2:	fd842783          	lw	a5,-40(s0)
200148f6:	00c79713          	slli	a4,a5,0xc
200148fa:	fec42783          	lw	a5,-20(s0)
200148fe:	973e                	add	a4,a4,a5
20014900:	002007b7          	lui	a5,0x200
20014904:	97ba                	add	a5,a5,a4
20014906:	873e                	mv	a4,a5
/home/nicoladgg/wsFreedomStudio/sifive_hifive1_revb_hello/freedom-metal/src/drivers/riscv_plic0.c:44
20014908:	fd442783          	lw	a5,-44(s0)
2001490c:	c31c                	sw	a5,0(a4)
/home/nicoladgg/wsFreedomStudio/sifive_hifive1_revb_hello/freedom-metal/src/drivers/riscv_plic0.c:45
2001490e:	4781                	li	a5,0
/home/nicoladgg/wsFreedomStudio/sifive_hifive1_revb_hello/freedom-metal/src/drivers/riscv_plic0.c:46
20014910:	853e                	mv	a0,a5
20014912:	50b2                	lw	ra,44(sp)
20014914:	5422                	lw	s0,40(sp)
20014916:	6145                	addi	sp,sp,48
20014918:	8082                	ret

2001491a <__metal_plic0_get_threshold>:
__metal_plic0_get_threshold():
/home/nicoladgg/wsFreedomStudio/sifive_hifive1_revb_hello/freedom-metal/src/drivers/riscv_plic0.c:49
2001491a:	7179                	addi	sp,sp,-48
2001491c:	d606                	sw	ra,44(sp)
2001491e:	d422                	sw	s0,40(sp)
20014920:	1800                	addi	s0,sp,48
20014922:	fca42e23          	sw	a0,-36(s0)
20014926:	fcb42c23          	sw	a1,-40(s0)
/home/nicoladgg/wsFreedomStudio/sifive_hifive1_revb_hello/freedom-metal/src/drivers/riscv_plic0.c:51
2001492a:	fdc42503          	lw	a0,-36(s0)
2001492e:	3581                	jal	2001476e <__metal_driver_sifive_plic0_control_base>
20014930:	fea42623          	sw	a0,-20(s0)
/home/nicoladgg/wsFreedomStudio/sifive_hifive1_revb_hello/freedom-metal/src/drivers/riscv_plic0.c:52
20014934:	fd842783          	lw	a5,-40(s0)
20014938:	00c79713          	slli	a4,a5,0xc
2001493c:	fec42783          	lw	a5,-20(s0)
20014940:	973e                	add	a4,a4,a5
20014942:	002007b7          	lui	a5,0x200
20014946:	97ba                	add	a5,a5,a4
20014948:	439c                	lw	a5,0(a5)
/home/nicoladgg/wsFreedomStudio/sifive_hifive1_revb_hello/freedom-metal/src/drivers/riscv_plic0.c:56
2001494a:	853e                	mv	a0,a5
2001494c:	50b2                	lw	ra,44(sp)
2001494e:	5422                	lw	s0,40(sp)
20014950:	6145                	addi	sp,sp,48
20014952:	8082                	ret

20014954 <__metal_driver_riscv_plic0_set_priority>:
__metal_driver_riscv_plic0_set_priority():
/home/nicoladgg/wsFreedomStudio/sifive_hifive1_revb_hello/freedom-metal/src/drivers/riscv_plic0.c:59
20014954:	7179                	addi	sp,sp,-48
20014956:	d606                	sw	ra,44(sp)
20014958:	d422                	sw	s0,40(sp)
2001495a:	1800                	addi	s0,sp,48
2001495c:	fca42e23          	sw	a0,-36(s0)
20014960:	fcb42c23          	sw	a1,-40(s0)
20014964:	fcc42a23          	sw	a2,-44(s0)
/home/nicoladgg/wsFreedomStudio/sifive_hifive1_revb_hello/freedom-metal/src/drivers/riscv_plic0.c:60
20014968:	fdc42503          	lw	a0,-36(s0)
2001496c:	3509                	jal	2001476e <__metal_driver_sifive_plic0_control_base>
2001496e:	fea42623          	sw	a0,-20(s0)
/home/nicoladgg/wsFreedomStudio/sifive_hifive1_revb_hello/freedom-metal/src/drivers/riscv_plic0.c:62
20014972:	fdc42503          	lw	a0,-36(s0)
20014976:	35b1                	jal	200147c2 <__metal_driver_sifive_plic0_max_priority>
20014978:	87aa                	mv	a5,a0
2001497a:	fef42423          	sw	a5,-24(s0)
/home/nicoladgg/wsFreedomStudio/sifive_hifive1_revb_hello/freedom-metal/src/drivers/riscv_plic0.c:64
2001497e:	fe842783          	lw	a5,-24(s0)
20014982:	c785                	beqz	a5,200149aa <__metal_driver_riscv_plic0_set_priority+0x56>
/home/nicoladgg/wsFreedomStudio/sifive_hifive1_revb_hello/freedom-metal/src/drivers/riscv_plic0.c:64 (discriminator 1)
20014984:	fd442703          	lw	a4,-44(s0)
20014988:	fe842783          	lw	a5,-24(s0)
2001498c:	00f77f63          	bgeu	a4,a5,200149aa <__metal_driver_riscv_plic0_set_priority+0x56>
/home/nicoladgg/wsFreedomStudio/sifive_hifive1_revb_hello/freedom-metal/src/drivers/riscv_plic0.c:65
20014990:	fd842783          	lw	a5,-40(s0)
20014994:	078a                	slli	a5,a5,0x2
20014996:	873e                	mv	a4,a5
20014998:	fec42783          	lw	a5,-20(s0)
2001499c:	97ba                	add	a5,a5,a4
2001499e:	873e                	mv	a4,a5
/home/nicoladgg/wsFreedomStudio/sifive_hifive1_revb_hello/freedom-metal/src/drivers/riscv_plic0.c:67
200149a0:	fd442783          	lw	a5,-44(s0)
200149a4:	c31c                	sw	a5,0(a4)
/home/nicoladgg/wsFreedomStudio/sifive_hifive1_revb_hello/freedom-metal/src/drivers/riscv_plic0.c:69
200149a6:	4781                	li	a5,0
200149a8:	a011                	j	200149ac <__metal_driver_riscv_plic0_set_priority+0x58>
/home/nicoladgg/wsFreedomStudio/sifive_hifive1_revb_hello/freedom-metal/src/drivers/riscv_plic0.c:71
200149aa:	57fd                	li	a5,-1
/home/nicoladgg/wsFreedomStudio/sifive_hifive1_revb_hello/freedom-metal/src/drivers/riscv_plic0.c:72
200149ac:	853e                	mv	a0,a5
200149ae:	50b2                	lw	ra,44(sp)
200149b0:	5422                	lw	s0,40(sp)
200149b2:	6145                	addi	sp,sp,48
200149b4:	8082                	ret

200149b6 <__metal_driver_riscv_plic0_get_priority>:
__metal_driver_riscv_plic0_get_priority():
/home/nicoladgg/wsFreedomStudio/sifive_hifive1_revb_hello/freedom-metal/src/drivers/riscv_plic0.c:76
200149b6:	7179                	addi	sp,sp,-48
200149b8:	d606                	sw	ra,44(sp)
200149ba:	d422                	sw	s0,40(sp)
200149bc:	1800                	addi	s0,sp,48
200149be:	fca42e23          	sw	a0,-36(s0)
200149c2:	fcb42c23          	sw	a1,-40(s0)
/home/nicoladgg/wsFreedomStudio/sifive_hifive1_revb_hello/freedom-metal/src/drivers/riscv_plic0.c:78
200149c6:	fdc42503          	lw	a0,-36(s0)
200149ca:	3355                	jal	2001476e <__metal_driver_sifive_plic0_control_base>
200149cc:	fea42623          	sw	a0,-20(s0)
/home/nicoladgg/wsFreedomStudio/sifive_hifive1_revb_hello/freedom-metal/src/drivers/riscv_plic0.c:80
200149d0:	fd842783          	lw	a5,-40(s0)
200149d4:	078a                	slli	a5,a5,0x2
200149d6:	873e                	mv	a4,a5
200149d8:	fec42783          	lw	a5,-20(s0)
200149dc:	97ba                	add	a5,a5,a4
200149de:	439c                	lw	a5,0(a5)
/home/nicoladgg/wsFreedomStudio/sifive_hifive1_revb_hello/freedom-metal/src/drivers/riscv_plic0.c:83
200149e0:	853e                	mv	a0,a5
200149e2:	50b2                	lw	ra,44(sp)
200149e4:	5422                	lw	s0,40(sp)
200149e6:	6145                	addi	sp,sp,48
200149e8:	8082                	ret

200149ea <__metal_plic0_enable>:
__metal_plic0_enable():
/home/nicoladgg/wsFreedomStudio/sifive_hifive1_revb_hello/freedom-metal/src/drivers/riscv_plic0.c:86
200149ea:	7179                	addi	sp,sp,-48
200149ec:	d606                	sw	ra,44(sp)
200149ee:	d422                	sw	s0,40(sp)
200149f0:	1800                	addi	s0,sp,48
200149f2:	fca42e23          	sw	a0,-36(s0)
200149f6:	fcb42c23          	sw	a1,-40(s0)
200149fa:	fcc42a23          	sw	a2,-44(s0)
200149fe:	fcd42823          	sw	a3,-48(s0)
/home/nicoladgg/wsFreedomStudio/sifive_hifive1_revb_hello/freedom-metal/src/drivers/riscv_plic0.c:88
20014a02:	fdc42503          	lw	a0,-36(s0)
20014a06:	33a5                	jal	2001476e <__metal_driver_sifive_plic0_control_base>
20014a08:	fea42623          	sw	a0,-20(s0)
/home/nicoladgg/wsFreedomStudio/sifive_hifive1_revb_hello/freedom-metal/src/drivers/riscv_plic0.c:91
20014a0c:	fd842783          	lw	a5,-40(s0)
20014a10:	00779713          	slli	a4,a5,0x7
20014a14:	fec42783          	lw	a5,-20(s0)
20014a18:	97ba                	add	a5,a5,a4
20014a1a:	fd442703          	lw	a4,-44(s0)
20014a1e:	8715                	srai	a4,a4,0x5
20014a20:	070a                	slli	a4,a4,0x2
20014a22:	973e                	add	a4,a4,a5
20014a24:	6789                	lui	a5,0x2
20014a26:	97ba                	add	a5,a5,a4
20014a28:	439c                	lw	a5,0(a5)
20014a2a:	fef42423          	sw	a5,-24(s0)
/home/nicoladgg/wsFreedomStudio/sifive_hifive1_revb_hello/freedom-metal/src/drivers/riscv_plic0.c:100
20014a2e:	fd042783          	lw	a5,-48(s0)
20014a32:	cf81                	beqz	a5,20014a4a <__metal_plic0_enable+0x60>
/home/nicoladgg/wsFreedomStudio/sifive_hifive1_revb_hello/freedom-metal/src/drivers/riscv_plic0.c:99 (discriminator 1)
20014a34:	fd442783          	lw	a5,-44(s0)
20014a38:	8bfd                	andi	a5,a5,31
20014a3a:	4705                	li	a4,1
20014a3c:	00f717b3          	sll	a5,a4,a5
20014a40:	873e                	mv	a4,a5
/home/nicoladgg/wsFreedomStudio/sifive_hifive1_revb_hello/freedom-metal/src/drivers/riscv_plic0.c:100 (discriminator 1)
20014a42:	fe842783          	lw	a5,-24(s0)
20014a46:	8fd9                	or	a5,a5,a4
20014a48:	a829                	j	20014a62 <__metal_plic0_enable+0x78>
/home/nicoladgg/wsFreedomStudio/sifive_hifive1_revb_hello/freedom-metal/src/drivers/riscv_plic0.c:100 (discriminator 2)
20014a4a:	fd442783          	lw	a5,-44(s0)
20014a4e:	8bfd                	andi	a5,a5,31
20014a50:	4705                	li	a4,1
20014a52:	00f717b3          	sll	a5,a4,a5
20014a56:	fff7c793          	not	a5,a5
20014a5a:	873e                	mv	a4,a5
20014a5c:	fe842783          	lw	a5,-24(s0)
20014a60:	8ff9                	and	a5,a5,a4
/home/nicoladgg/wsFreedomStudio/sifive_hifive1_revb_hello/freedom-metal/src/drivers/riscv_plic0.c:95
20014a62:	fd842703          	lw	a4,-40(s0)
20014a66:	00771693          	slli	a3,a4,0x7
20014a6a:	fec42703          	lw	a4,-20(s0)
20014a6e:	9736                	add	a4,a4,a3
20014a70:	fd442683          	lw	a3,-44(s0)
20014a74:	8695                	srai	a3,a3,0x5
20014a76:	068a                	slli	a3,a3,0x2
20014a78:	96ba                	add	a3,a3,a4
20014a7a:	6709                	lui	a4,0x2
20014a7c:	9736                	add	a4,a4,a3
/home/nicoladgg/wsFreedomStudio/sifive_hifive1_revb_hello/freedom-metal/src/drivers/riscv_plic0.c:98
20014a7e:	c31c                	sw	a5,0(a4)
/home/nicoladgg/wsFreedomStudio/sifive_hifive1_revb_hello/freedom-metal/src/drivers/riscv_plic0.c:102
20014a80:	4781                	li	a5,0
/home/nicoladgg/wsFreedomStudio/sifive_hifive1_revb_hello/freedom-metal/src/drivers/riscv_plic0.c:103
20014a82:	853e                	mv	a0,a5
20014a84:	50b2                	lw	ra,44(sp)
20014a86:	5422                	lw	s0,40(sp)
20014a88:	6145                	addi	sp,sp,48
20014a8a:	8082                	ret

20014a8c <__metal_plic0_default_handler>:
__metal_plic0_default_handler():
/home/nicoladgg/wsFreedomStudio/sifive_hifive1_revb_hello/freedom-metal/src/drivers/riscv_plic0.c:105
20014a8c:	1101                	addi	sp,sp,-32
20014a8e:	ce06                	sw	ra,28(sp)
20014a90:	cc22                	sw	s0,24(sp)
20014a92:	1000                	addi	s0,sp,32
20014a94:	fea42623          	sw	a0,-20(s0)
20014a98:	feb42423          	sw	a1,-24(s0)
20014a9c:	12c00513          	li	a0,300
20014aa0:	1e2020ef          	jal	ra,20016c82 <metal_shutdown>

20014aa4 <__metal_plic0_handler>:
__metal_plic0_handler():
/home/nicoladgg/wsFreedomStudio/sifive_hifive1_revb_hello/freedom-metal/src/drivers/riscv_plic0.c:107
20014aa4:	7179                	addi	sp,sp,-48
20014aa6:	d606                	sw	ra,44(sp)
20014aa8:	d422                	sw	s0,40(sp)
20014aaa:	1800                	addi	s0,sp,48
20014aac:	fca42e23          	sw	a0,-36(s0)
20014ab0:	fcb42c23          	sw	a1,-40(s0)
/home/nicoladgg/wsFreedomStudio/sifive_hifive1_revb_hello/freedom-metal/src/drivers/riscv_plic0.c:108
20014ab4:	fd842783          	lw	a5,-40(s0)
20014ab8:	fef42623          	sw	a5,-20(s0)
/home/nicoladgg/wsFreedomStudio/sifive_hifive1_revb_hello/freedom-metal/src/drivers/riscv_plic0.c:110
20014abc:	b82fe0ef          	jal	ra,20012e3e <__metal_myhart_id>
20014ac0:	87aa                	mv	a5,a0
20014ac2:	853e                	mv	a0,a5
20014ac4:	3b85                	jal	20014834 <__metal_driver_sifive_plic0_context_ids>
20014ac6:	fea42423          	sw	a0,-24(s0)
/home/nicoladgg/wsFreedomStudio/sifive_hifive1_revb_hello/freedom-metal/src/drivers/riscv_plic0.c:111
20014aca:	fe842583          	lw	a1,-24(s0)
20014ace:	fec42503          	lw	a0,-20(s0)
20014ad2:	3341                	jal	20014852 <__metal_plic0_claim_interrupt>
20014ad4:	fea42223          	sw	a0,-28(s0)
/home/nicoladgg/wsFreedomStudio/sifive_hifive1_revb_hello/freedom-metal/src/drivers/riscv_plic0.c:112
20014ad8:	fec42503          	lw	a0,-20(s0)
20014adc:	3975                	jal	20014798 <__metal_driver_sifive_plic0_num_interrupts>
20014ade:	87aa                	mv	a5,a0
20014ae0:	fef42023          	sw	a5,-32(s0)
/home/nicoladgg/wsFreedomStudio/sifive_hifive1_revb_hello/freedom-metal/src/drivers/riscv_plic0.c:115
20014ae4:	fe442703          	lw	a4,-28(s0)
20014ae8:	fe042783          	lw	a5,-32(s0)
20014aec:	04f77263          	bgeu	a4,a5,20014b30 <__metal_plic0_handler+0x8c>
/home/nicoladgg/wsFreedomStudio/sifive_hifive1_revb_hello/freedom-metal/src/drivers/riscv_plic0.c:115 (discriminator 1)
20014af0:	fec42703          	lw	a4,-20(s0)
20014af4:	fe442783          	lw	a5,-28(s0)
20014af8:	078a                	slli	a5,a5,0x2
20014afa:	97ba                	add	a5,a5,a4
20014afc:	479c                	lw	a5,8(a5)
20014afe:	cb8d                	beqz	a5,20014b30 <__metal_plic0_handler+0x8c>
/home/nicoladgg/wsFreedomStudio/sifive_hifive1_revb_hello/freedom-metal/src/drivers/riscv_plic0.c:116
20014b00:	fec42703          	lw	a4,-20(s0)
20014b04:	fe442783          	lw	a5,-28(s0)
20014b08:	078a                	slli	a5,a5,0x2
20014b0a:	97ba                	add	a5,a5,a4
20014b0c:	0087a803          	lw	a6,8(a5) # 2008 <__heap_size+0x1808>
20014b10:	fe442603          	lw	a2,-28(s0)
20014b14:	fec42683          	lw	a3,-20(s0)
20014b18:	fe442703          	lw	a4,-28(s0)
20014b1c:	87ba                	mv	a5,a4
20014b1e:	0786                	slli	a5,a5,0x1
20014b20:	97ba                	add	a5,a5,a4
20014b22:	078e                	slli	a5,a5,0x3
20014b24:	97b6                	add	a5,a5,a3
20014b26:	0f07a783          	lw	a5,240(a5)
20014b2a:	85be                	mv	a1,a5
20014b2c:	8532                	mv	a0,a2
20014b2e:	9802                	jalr	a6
/home/nicoladgg/wsFreedomStudio/sifive_hifive1_revb_hello/freedom-metal/src/drivers/riscv_plic0.c:120
20014b30:	fe442603          	lw	a2,-28(s0)
20014b34:	fe842583          	lw	a1,-24(s0)
20014b38:	fec42503          	lw	a0,-20(s0)
20014b3c:	3b89                	jal	2001488e <__metal_plic0_complete_interrupt>
/home/nicoladgg/wsFreedomStudio/sifive_hifive1_revb_hello/freedom-metal/src/drivers/riscv_plic0.c:121
20014b3e:	0001                	nop
20014b40:	50b2                	lw	ra,44(sp)
20014b42:	5422                	lw	s0,40(sp)
20014b44:	6145                	addi	sp,sp,48
20014b46:	8082                	ret

20014b48 <__metal_driver_riscv_plic0_init>:
__metal_driver_riscv_plic0_init():
/home/nicoladgg/wsFreedomStudio/sifive_hifive1_revb_hello/freedom-metal/src/drivers/riscv_plic0.c:123
20014b48:	7139                	addi	sp,sp,-64
20014b4a:	de06                	sw	ra,60(sp)
20014b4c:	dc22                	sw	s0,56(sp)
20014b4e:	0080                	addi	s0,sp,64
20014b50:	fca42623          	sw	a0,-52(s0)
/home/nicoladgg/wsFreedomStudio/sifive_hifive1_revb_hello/freedom-metal/src/drivers/riscv_plic0.c:124
20014b54:	fcc42783          	lw	a5,-52(s0)
20014b58:	fef42223          	sw	a5,-28(s0)
/home/nicoladgg/wsFreedomStudio/sifive_hifive1_revb_hello/freedom-metal/src/drivers/riscv_plic0.c:126
20014b5c:	fe442783          	lw	a5,-28(s0)
20014b60:	43dc                	lw	a5,4(a5)
20014b62:	12079a63          	bnez	a5,20014c96 <__metal_driver_riscv_plic0_init+0x14e>
/home/nicoladgg/wsFreedomStudio/sifive_hifive1_revb_hello/freedom-metal/src/drivers/riscv_plic0.c:130
20014b66:	fe042623          	sw	zero,-20(s0)
20014b6a:	aa31                	j	20014c86 <__metal_driver_riscv_plic0_init+0x13e>
/home/nicoladgg/wsFreedomStudio/sifive_hifive1_revb_hello/freedom-metal/src/drivers/riscv_plic0.c:132
20014b6c:	fcc42503          	lw	a0,-52(s0)
20014b70:	c29ff0ef          	jal	ra,20014798 <__metal_driver_sifive_plic0_num_interrupts>
20014b74:	fea42023          	sw	a0,-32(s0)
/home/nicoladgg/wsFreedomStudio/sifive_hifive1_revb_hello/freedom-metal/src/drivers/riscv_plic0.c:133
20014b78:	fec42583          	lw	a1,-20(s0)
20014b7c:	fcc42503          	lw	a0,-52(s0)
20014b80:	c6bff0ef          	jal	ra,200147ea <__metal_driver_sifive_plic0_interrupt_parents>
20014b84:	fca42e23          	sw	a0,-36(s0)
/home/nicoladgg/wsFreedomStudio/sifive_hifive1_revb_hello/freedom-metal/src/drivers/riscv_plic0.c:136
20014b88:	fec42583          	lw	a1,-20(s0)
20014b8c:	fcc42503          	lw	a0,-52(s0)
20014b90:	c83ff0ef          	jal	ra,20014812 <__metal_driver_sifive_plic0_interrupt_lines>
20014b94:	fca42c23          	sw	a0,-40(s0)
/home/nicoladgg/wsFreedomStudio/sifive_hifive1_revb_hello/freedom-metal/src/drivers/riscv_plic0.c:139
20014b98:	fdc42783          	lw	a5,-36(s0)
20014b9c:	439c                	lw	a5,0(a5)
20014b9e:	439c                	lw	a5,0(a5)
20014ba0:	fdc42503          	lw	a0,-36(s0)
20014ba4:	9782                	jalr	a5
/home/nicoladgg/wsFreedomStudio/sifive_hifive1_revb_hello/freedom-metal/src/drivers/riscv_plic0.c:141
20014ba6:	fe042423          	sw	zero,-24(s0)
20014baa:	a885                	j	20014c1a <__metal_driver_riscv_plic0_init+0xd2>
/home/nicoladgg/wsFreedomStudio/sifive_hifive1_revb_hello/freedom-metal/src/drivers/riscv_plic0.c:142
20014bac:	4681                	li	a3,0
20014bae:	fe842603          	lw	a2,-24(s0)
20014bb2:	fec42583          	lw	a1,-20(s0)
20014bb6:	fe442503          	lw	a0,-28(s0)
20014bba:	3d05                	jal	200149ea <__metal_plic0_enable>
/home/nicoladgg/wsFreedomStudio/sifive_hifive1_revb_hello/freedom-metal/src/drivers/riscv_plic0.c:143
20014bbc:	fe842703          	lw	a4,-24(s0)
20014bc0:	fe042783          	lw	a5,-32(s0)
20014bc4:	04f75663          	bge	a4,a5,20014c10 <__metal_driver_riscv_plic0_init+0xc8>
/home/nicoladgg/wsFreedomStudio/sifive_hifive1_revb_hello/freedom-metal/src/drivers/riscv_plic0.c:144
20014bc8:	4601                	li	a2,0
20014bca:	fe842583          	lw	a1,-24(s0)
20014bce:	fcc42503          	lw	a0,-52(s0)
20014bd2:	3349                	jal	20014954 <__metal_driver_riscv_plic0_set_priority>
/home/nicoladgg/wsFreedomStudio/sifive_hifive1_revb_hello/freedom-metal/src/drivers/riscv_plic0.c:145
20014bd4:	fe442703          	lw	a4,-28(s0)
20014bd8:	fe842783          	lw	a5,-24(s0)
20014bdc:	078a                	slli	a5,a5,0x2
20014bde:	97ba                	add	a5,a5,a4
20014be0:	0007a423          	sw	zero,8(a5)
/home/nicoladgg/wsFreedomStudio/sifive_hifive1_revb_hello/freedom-metal/src/drivers/riscv_plic0.c:146
20014be4:	fe442683          	lw	a3,-28(s0)
20014be8:	fe842703          	lw	a4,-24(s0)
20014bec:	87ba                	mv	a5,a4
20014bee:	0786                	slli	a5,a5,0x1
20014bf0:	97ba                	add	a5,a5,a4
20014bf2:	078e                	slli	a5,a5,0x3
20014bf4:	97b6                	add	a5,a5,a3
20014bf6:	0e07a623          	sw	zero,236(a5)
/home/nicoladgg/wsFreedomStudio/sifive_hifive1_revb_hello/freedom-metal/src/drivers/riscv_plic0.c:147
20014bfa:	fe442683          	lw	a3,-28(s0)
20014bfe:	fe842703          	lw	a4,-24(s0)
20014c02:	87ba                	mv	a5,a4
20014c04:	0786                	slli	a5,a5,0x1
20014c06:	97ba                	add	a5,a5,a4
20014c08:	078e                	slli	a5,a5,0x3
20014c0a:	97b6                	add	a5,a5,a3
20014c0c:	0e07a823          	sw	zero,240(a5)
/home/nicoladgg/wsFreedomStudio/sifive_hifive1_revb_hello/freedom-metal/src/drivers/riscv_plic0.c:141 (discriminator 2)
20014c10:	fe842783          	lw	a5,-24(s0)
20014c14:	0785                	addi	a5,a5,1
20014c16:	fef42423          	sw	a5,-24(s0)
/home/nicoladgg/wsFreedomStudio/sifive_hifive1_revb_hello/freedom-metal/src/drivers/riscv_plic0.c:141 (discriminator 1)
20014c1a:	fe842703          	lw	a4,-24(s0)
20014c1e:	3ff00793          	li	a5,1023
20014c22:	f8e7d5e3          	bge	a5,a4,20014bac <__metal_driver_riscv_plic0_init+0x64>
/home/nicoladgg/wsFreedomStudio/sifive_hifive1_revb_hello/freedom-metal/src/drivers/riscv_plic0.c:151 (discriminator 2)
20014c26:	4601                	li	a2,0
20014c28:	fec42583          	lw	a1,-20(s0)
20014c2c:	fcc42503          	lw	a0,-52(s0)
20014c30:	ca5ff0ef          	jal	ra,200148d4 <__metal_plic0_set_threshold>
/home/nicoladgg/wsFreedomStudio/sifive_hifive1_revb_hello/freedom-metal/src/drivers/riscv_plic0.c:154 (discriminator 2)
20014c34:	fdc42783          	lw	a5,-36(s0)
20014c38:	439c                	lw	a5,0(a5)
20014c3a:	4fdc                	lw	a5,28(a5)
20014c3c:	fe442683          	lw	a3,-28(s0)
20014c40:	4601                	li	a2,0
20014c42:	fd842583          	lw	a1,-40(s0)
20014c46:	fdc42503          	lw	a0,-36(s0)
20014c4a:	9782                	jalr	a5
/home/nicoladgg/wsFreedomStudio/sifive_hifive1_revb_hello/freedom-metal/src/drivers/riscv_plic0.c:156 (discriminator 2)
20014c4c:	fdc42783          	lw	a5,-36(s0)
20014c50:	439c                	lw	a5,0(a5)
20014c52:	4fd8                	lw	a4,28(a5)
20014c54:	fe442683          	lw	a3,-28(s0)
20014c58:	200157b7          	lui	a5,0x20015
20014c5c:	aa478613          	addi	a2,a5,-1372 # 20014aa4 <__metal_plic0_handler>
20014c60:	fd842583          	lw	a1,-40(s0)
20014c64:	fdc42503          	lw	a0,-36(s0)
20014c68:	9702                	jalr	a4
/home/nicoladgg/wsFreedomStudio/sifive_hifive1_revb_hello/freedom-metal/src/drivers/riscv_plic0.c:159 (discriminator 2)
20014c6a:	fdc42783          	lw	a5,-36(s0)
20014c6e:	439c                	lw	a5,0(a5)
20014c70:	53dc                	lw	a5,36(a5)
20014c72:	fd842583          	lw	a1,-40(s0)
20014c76:	fdc42503          	lw	a0,-36(s0)
20014c7a:	9782                	jalr	a5
/home/nicoladgg/wsFreedomStudio/sifive_hifive1_revb_hello/freedom-metal/src/drivers/riscv_plic0.c:130 (discriminator 2)
20014c7c:	fec42783          	lw	a5,-20(s0)
20014c80:	0785                	addi	a5,a5,1
20014c82:	fef42623          	sw	a5,-20(s0)
/home/nicoladgg/wsFreedomStudio/sifive_hifive1_revb_hello/freedom-metal/src/drivers/riscv_plic0.c:130 (discriminator 1)
20014c86:	fec42783          	lw	a5,-20(s0)
20014c8a:	eef051e3          	blez	a5,20014b6c <__metal_driver_riscv_plic0_init+0x24>
/home/nicoladgg/wsFreedomStudio/sifive_hifive1_revb_hello/freedom-metal/src/drivers/riscv_plic0.c:161
20014c8e:	fe442783          	lw	a5,-28(s0)
20014c92:	4705                	li	a4,1
20014c94:	c3d8                	sw	a4,4(a5)
/home/nicoladgg/wsFreedomStudio/sifive_hifive1_revb_hello/freedom-metal/src/drivers/riscv_plic0.c:163
20014c96:	0001                	nop
20014c98:	50f2                	lw	ra,60(sp)
20014c9a:	5462                	lw	s0,56(sp)
20014c9c:	6121                	addi	sp,sp,64
20014c9e:	8082                	ret

20014ca0 <__metal_driver_riscv_plic0_register>:
__metal_driver_riscv_plic0_register():
/home/nicoladgg/wsFreedomStudio/sifive_hifive1_revb_hello/freedom-metal/src/drivers/riscv_plic0.c:167
20014ca0:	7179                	addi	sp,sp,-48
20014ca2:	d606                	sw	ra,44(sp)
20014ca4:	d422                	sw	s0,40(sp)
20014ca6:	1800                	addi	s0,sp,48
20014ca8:	fca42e23          	sw	a0,-36(s0)
20014cac:	fcb42c23          	sw	a1,-40(s0)
20014cb0:	fcc42a23          	sw	a2,-44(s0)
20014cb4:	fcd42823          	sw	a3,-48(s0)
/home/nicoladgg/wsFreedomStudio/sifive_hifive1_revb_hello/freedom-metal/src/drivers/riscv_plic0.c:168
20014cb8:	fdc42783          	lw	a5,-36(s0)
20014cbc:	fef42623          	sw	a5,-20(s0)
/home/nicoladgg/wsFreedomStudio/sifive_hifive1_revb_hello/freedom-metal/src/drivers/riscv_plic0.c:170
20014cc0:	fdc42503          	lw	a0,-36(s0)
20014cc4:	ad5ff0ef          	jal	ra,20014798 <__metal_driver_sifive_plic0_num_interrupts>
20014cc8:	872a                	mv	a4,a0
20014cca:	fd842783          	lw	a5,-40(s0)
20014cce:	00e7c463          	blt	a5,a4,20014cd6 <__metal_driver_riscv_plic0_register+0x36>
/home/nicoladgg/wsFreedomStudio/sifive_hifive1_revb_hello/freedom-metal/src/drivers/riscv_plic0.c:171
20014cd2:	57fd                	li	a5,-1
20014cd4:	a051                	j	20014d58 <__metal_driver_riscv_plic0_register+0xb8>
/home/nicoladgg/wsFreedomStudio/sifive_hifive1_revb_hello/freedom-metal/src/drivers/riscv_plic0.c:174
20014cd6:	fd442783          	lw	a5,-44(s0)
20014cda:	cf9d                	beqz	a5,20014d18 <__metal_driver_riscv_plic0_register+0x78>
/home/nicoladgg/wsFreedomStudio/sifive_hifive1_revb_hello/freedom-metal/src/drivers/riscv_plic0.c:175
20014cdc:	4609                	li	a2,2
20014cde:	fd842583          	lw	a1,-40(s0)
20014ce2:	fdc42503          	lw	a0,-36(s0)
20014ce6:	c6fff0ef          	jal	ra,20014954 <__metal_driver_riscv_plic0_set_priority>
/home/nicoladgg/wsFreedomStudio/sifive_hifive1_revb_hello/freedom-metal/src/drivers/riscv_plic0.c:176
20014cea:	fec42703          	lw	a4,-20(s0)
20014cee:	fd842783          	lw	a5,-40(s0)
20014cf2:	078a                	slli	a5,a5,0x2
20014cf4:	97ba                	add	a5,a5,a4
20014cf6:	fd442703          	lw	a4,-44(s0)
20014cfa:	c798                	sw	a4,8(a5)
/home/nicoladgg/wsFreedomStudio/sifive_hifive1_revb_hello/freedom-metal/src/drivers/riscv_plic0.c:177
20014cfc:	fec42683          	lw	a3,-20(s0)
20014d00:	fd842703          	lw	a4,-40(s0)
20014d04:	87ba                	mv	a5,a4
20014d06:	0786                	slli	a5,a5,0x1
20014d08:	97ba                	add	a5,a5,a4
20014d0a:	078e                	slli	a5,a5,0x3
20014d0c:	97b6                	add	a5,a5,a3
20014d0e:	fd042703          	lw	a4,-48(s0)
20014d12:	0ee7a823          	sw	a4,240(a5)
20014d16:	a081                	j	20014d56 <__metal_driver_riscv_plic0_register+0xb6>
/home/nicoladgg/wsFreedomStudio/sifive_hifive1_revb_hello/freedom-metal/src/drivers/riscv_plic0.c:179
20014d18:	4605                	li	a2,1
20014d1a:	fd842583          	lw	a1,-40(s0)
20014d1e:	fdc42503          	lw	a0,-36(s0)
20014d22:	c33ff0ef          	jal	ra,20014954 <__metal_driver_riscv_plic0_set_priority>
/home/nicoladgg/wsFreedomStudio/sifive_hifive1_revb_hello/freedom-metal/src/drivers/riscv_plic0.c:180
20014d26:	fec42703          	lw	a4,-20(s0)
20014d2a:	fd842783          	lw	a5,-40(s0)
20014d2e:	078a                	slli	a5,a5,0x2
20014d30:	97ba                	add	a5,a5,a4
20014d32:	20015737          	lui	a4,0x20015
20014d36:	a8c70713          	addi	a4,a4,-1396 # 20014a8c <__metal_plic0_default_handler>
20014d3a:	c798                	sw	a4,8(a5)
/home/nicoladgg/wsFreedomStudio/sifive_hifive1_revb_hello/freedom-metal/src/drivers/riscv_plic0.c:181
20014d3c:	fec42683          	lw	a3,-20(s0)
20014d40:	fd842703          	lw	a4,-40(s0)
20014d44:	87ba                	mv	a5,a4
20014d46:	0786                	slli	a5,a5,0x1
20014d48:	97ba                	add	a5,a5,a4
20014d4a:	078e                	slli	a5,a5,0x3
20014d4c:	97b6                	add	a5,a5,a3
20014d4e:	fd042703          	lw	a4,-48(s0)
20014d52:	0ee7a623          	sw	a4,236(a5)
/home/nicoladgg/wsFreedomStudio/sifive_hifive1_revb_hello/freedom-metal/src/drivers/riscv_plic0.c:184
20014d56:	4781                	li	a5,0
/home/nicoladgg/wsFreedomStudio/sifive_hifive1_revb_hello/freedom-metal/src/drivers/riscv_plic0.c:185
20014d58:	853e                	mv	a0,a5
20014d5a:	50b2                	lw	ra,44(sp)
20014d5c:	5422                	lw	s0,40(sp)
20014d5e:	6145                	addi	sp,sp,48
20014d60:	8082                	ret

20014d62 <__metal_driver_riscv_plic0_enable>:
__metal_driver_riscv_plic0_enable():
/home/nicoladgg/wsFreedomStudio/sifive_hifive1_revb_hello/freedom-metal/src/drivers/riscv_plic0.c:188
20014d62:	7179                	addi	sp,sp,-48
20014d64:	d606                	sw	ra,44(sp)
20014d66:	d422                	sw	s0,40(sp)
20014d68:	1800                	addi	s0,sp,48
20014d6a:	fca42e23          	sw	a0,-36(s0)
20014d6e:	fcb42c23          	sw	a1,-40(s0)
/home/nicoladgg/wsFreedomStudio/sifive_hifive1_revb_hello/freedom-metal/src/drivers/riscv_plic0.c:189
20014d72:	fdc42783          	lw	a5,-36(s0)
20014d76:	fef42623          	sw	a5,-20(s0)
/home/nicoladgg/wsFreedomStudio/sifive_hifive1_revb_hello/freedom-metal/src/drivers/riscv_plic0.c:191
20014d7a:	fdc42503          	lw	a0,-36(s0)
20014d7e:	a1bff0ef          	jal	ra,20014798 <__metal_driver_sifive_plic0_num_interrupts>
20014d82:	872a                	mv	a4,a0
20014d84:	fd842783          	lw	a5,-40(s0)
20014d88:	00e7c463          	blt	a5,a4,20014d90 <__metal_driver_riscv_plic0_enable+0x2e>
/home/nicoladgg/wsFreedomStudio/sifive_hifive1_revb_hello/freedom-metal/src/drivers/riscv_plic0.c:192
20014d8c:	57fd                	li	a5,-1
20014d8e:	a829                	j	20014da8 <__metal_driver_riscv_plic0_enable+0x46>
/home/nicoladgg/wsFreedomStudio/sifive_hifive1_revb_hello/freedom-metal/src/drivers/riscv_plic0.c:195
20014d90:	8aefe0ef          	jal	ra,20012e3e <__metal_myhart_id>
20014d94:	87aa                	mv	a5,a0
20014d96:	4685                	li	a3,1
20014d98:	fd842603          	lw	a2,-40(s0)
20014d9c:	85be                	mv	a1,a5
20014d9e:	fec42503          	lw	a0,-20(s0)
20014da2:	c49ff0ef          	jal	ra,200149ea <__metal_plic0_enable>
/home/nicoladgg/wsFreedomStudio/sifive_hifive1_revb_hello/freedom-metal/src/drivers/riscv_plic0.c:196
20014da6:	4781                	li	a5,0
/home/nicoladgg/wsFreedomStudio/sifive_hifive1_revb_hello/freedom-metal/src/drivers/riscv_plic0.c:197
20014da8:	853e                	mv	a0,a5
20014daa:	50b2                	lw	ra,44(sp)
20014dac:	5422                	lw	s0,40(sp)
20014dae:	6145                	addi	sp,sp,48
20014db0:	8082                	ret

20014db2 <__metal_driver_riscv_plic0_disable>:
__metal_driver_riscv_plic0_disable():
/home/nicoladgg/wsFreedomStudio/sifive_hifive1_revb_hello/freedom-metal/src/drivers/riscv_plic0.c:200
20014db2:	7179                	addi	sp,sp,-48
20014db4:	d606                	sw	ra,44(sp)
20014db6:	d422                	sw	s0,40(sp)
20014db8:	1800                	addi	s0,sp,48
20014dba:	fca42e23          	sw	a0,-36(s0)
20014dbe:	fcb42c23          	sw	a1,-40(s0)
/home/nicoladgg/wsFreedomStudio/sifive_hifive1_revb_hello/freedom-metal/src/drivers/riscv_plic0.c:201
20014dc2:	fdc42783          	lw	a5,-36(s0)
20014dc6:	fef42623          	sw	a5,-20(s0)
/home/nicoladgg/wsFreedomStudio/sifive_hifive1_revb_hello/freedom-metal/src/drivers/riscv_plic0.c:203
20014dca:	fdc42503          	lw	a0,-36(s0)
20014dce:	9cbff0ef          	jal	ra,20014798 <__metal_driver_sifive_plic0_num_interrupts>
20014dd2:	872a                	mv	a4,a0
20014dd4:	fd842783          	lw	a5,-40(s0)
20014dd8:	00e7c463          	blt	a5,a4,20014de0 <__metal_driver_riscv_plic0_disable+0x2e>
/home/nicoladgg/wsFreedomStudio/sifive_hifive1_revb_hello/freedom-metal/src/drivers/riscv_plic0.c:204
20014ddc:	57fd                	li	a5,-1
20014dde:	a829                	j	20014df8 <__metal_driver_riscv_plic0_disable+0x46>
/home/nicoladgg/wsFreedomStudio/sifive_hifive1_revb_hello/freedom-metal/src/drivers/riscv_plic0.c:206
20014de0:	85efe0ef          	jal	ra,20012e3e <__metal_myhart_id>
20014de4:	87aa                	mv	a5,a0
20014de6:	4681                	li	a3,0
20014de8:	fd842603          	lw	a2,-40(s0)
20014dec:	85be                	mv	a1,a5
20014dee:	fec42503          	lw	a0,-20(s0)
20014df2:	bf9ff0ef          	jal	ra,200149ea <__metal_plic0_enable>
/home/nicoladgg/wsFreedomStudio/sifive_hifive1_revb_hello/freedom-metal/src/drivers/riscv_plic0.c:207
20014df6:	4781                	li	a5,0
/home/nicoladgg/wsFreedomStudio/sifive_hifive1_revb_hello/freedom-metal/src/drivers/riscv_plic0.c:208
20014df8:	853e                	mv	a0,a5
20014dfa:	50b2                	lw	ra,44(sp)
20014dfc:	5422                	lw	s0,40(sp)
20014dfe:	6145                	addi	sp,sp,48
20014e00:	8082                	ret

20014e02 <__metal_driver_riscv_plic0_set_threshold>:
__metal_driver_riscv_plic0_set_threshold():
/home/nicoladgg/wsFreedomStudio/sifive_hifive1_revb_hello/freedom-metal/src/drivers/riscv_plic0.c:211
20014e02:	1101                	addi	sp,sp,-32
20014e04:	ce06                	sw	ra,28(sp)
20014e06:	cc22                	sw	s0,24(sp)
20014e08:	1000                	addi	s0,sp,32
20014e0a:	fea42623          	sw	a0,-20(s0)
20014e0e:	feb42423          	sw	a1,-24(s0)
/home/nicoladgg/wsFreedomStudio/sifive_hifive1_revb_hello/freedom-metal/src/drivers/riscv_plic0.c:212
20014e12:	82cfe0ef          	jal	ra,20012e3e <__metal_myhart_id>
20014e16:	87aa                	mv	a5,a0
20014e18:	fe842603          	lw	a2,-24(s0)
20014e1c:	85be                	mv	a1,a5
20014e1e:	fec42503          	lw	a0,-20(s0)
20014e22:	ab3ff0ef          	jal	ra,200148d4 <__metal_plic0_set_threshold>
20014e26:	87aa                	mv	a5,a0
/home/nicoladgg/wsFreedomStudio/sifive_hifive1_revb_hello/freedom-metal/src/drivers/riscv_plic0.c:214
20014e28:	853e                	mv	a0,a5
20014e2a:	40f2                	lw	ra,28(sp)
20014e2c:	4462                	lw	s0,24(sp)
20014e2e:	6105                	addi	sp,sp,32
20014e30:	8082                	ret

20014e32 <__metal_driver_riscv_plic0_get_threshold>:
__metal_driver_riscv_plic0_get_threshold():
/home/nicoladgg/wsFreedomStudio/sifive_hifive1_revb_hello/freedom-metal/src/drivers/riscv_plic0.c:217
20014e32:	1101                	addi	sp,sp,-32
20014e34:	ce06                	sw	ra,28(sp)
20014e36:	cc22                	sw	s0,24(sp)
20014e38:	1000                	addi	s0,sp,32
20014e3a:	fea42623          	sw	a0,-20(s0)
/home/nicoladgg/wsFreedomStudio/sifive_hifive1_revb_hello/freedom-metal/src/drivers/riscv_plic0.c:218
20014e3e:	800fe0ef          	jal	ra,20012e3e <__metal_myhart_id>
20014e42:	87aa                	mv	a5,a0
20014e44:	85be                	mv	a1,a5
20014e46:	fec42503          	lw	a0,-20(s0)
20014e4a:	ad1ff0ef          	jal	ra,2001491a <__metal_plic0_get_threshold>
20014e4e:	87aa                	mv	a5,a0
/home/nicoladgg/wsFreedomStudio/sifive_hifive1_revb_hello/freedom-metal/src/drivers/riscv_plic0.c:219
20014e50:	853e                	mv	a0,a5
20014e52:	40f2                	lw	ra,28(sp)
20014e54:	4462                	lw	s0,24(sp)
20014e56:	6105                	addi	sp,sp,32
20014e58:	8082                	ret

20014e5a <__metal_driver_riscv_plic0_affinity_enable>:
__metal_driver_riscv_plic0_affinity_enable():
/home/nicoladgg/wsFreedomStudio/sifive_hifive1_revb_hello/freedom-metal/src/drivers/riscv_plic0.c:223
20014e5a:	7179                	addi	sp,sp,-48
20014e5c:	d606                	sw	ra,44(sp)
20014e5e:	d422                	sw	s0,40(sp)
20014e60:	1800                	addi	s0,sp,48
20014e62:	fca42e23          	sw	a0,-36(s0)
20014e66:	fcb42c23          	sw	a1,-40(s0)
20014e6a:	fcc42a23          	sw	a2,-44(s0)
/home/nicoladgg/wsFreedomStudio/sifive_hifive1_revb_hello/freedom-metal/src/drivers/riscv_plic0.c:224
20014e6e:	fe042223          	sw	zero,-28(s0)
/home/nicoladgg/wsFreedomStudio/sifive_hifive1_revb_hello/freedom-metal/src/drivers/riscv_plic0.c:227
20014e72:	fdc42783          	lw	a5,-36(s0)
20014e76:	fef42423          	sw	a5,-24(s0)
/home/nicoladgg/wsFreedomStudio/sifive_hifive1_revb_hello/freedom-metal/src/drivers/riscv_plic0.c:229
20014e7a:	fdc42503          	lw	a0,-36(s0)
20014e7e:	91bff0ef          	jal	ra,20014798 <__metal_driver_sifive_plic0_num_interrupts>
20014e82:	872a                	mv	a4,a0
20014e84:	fd442783          	lw	a5,-44(s0)
20014e88:	00e7c863          	blt	a5,a4,20014e98 <__metal_driver_riscv_plic0_affinity_enable+0x3e>
/home/nicoladgg/wsFreedomStudio/sifive_hifive1_revb_hello/freedom-metal/src/drivers/riscv_plic0.c:230
20014e8c:	57fd                	li	a5,-1
20014e8e:	fef42223          	sw	a5,-28(s0)
/home/nicoladgg/wsFreedomStudio/sifive_hifive1_revb_hello/freedom-metal/src/drivers/riscv_plic0.c:231
20014e92:	fe442783          	lw	a5,-28(s0)
20014e96:	a899                	j	20014eec <__metal_driver_riscv_plic0_affinity_enable+0x92>
/home/nicoladgg/wsFreedomStudio/sifive_hifive1_revb_hello/freedom-metal/src/drivers/riscv_plic0.c:234
20014e98:	fe042623          	sw	zero,-20(s0)
20014e9c:	a099                	j	20014ee2 <__metal_driver_riscv_plic0_affinity_enable+0x88>
/home/nicoladgg/wsFreedomStudio/sifive_hifive1_revb_hello/freedom-metal/src/drivers/riscv_plic0.c:235
20014e9e:	fec42783          	lw	a5,-20(s0)
20014ea2:	c795                	beqz	a5,20014ece <__metal_driver_riscv_plic0_affinity_enable+0x74>
/home/nicoladgg/wsFreedomStudio/sifive_hifive1_revb_hello/freedom-metal/src/drivers/riscv_plic0.c:236
20014ea4:	4685                	li	a3,1
20014ea6:	fd442603          	lw	a2,-44(s0)
20014eaa:	fec42583          	lw	a1,-20(s0)
20014eae:	fe842503          	lw	a0,-24(s0)
20014eb2:	b39ff0ef          	jal	ra,200149ea <__metal_plic0_enable>
20014eb6:	87aa                	mv	a5,a0
20014eb8:	0017f713          	andi	a4,a5,1
20014ebc:	fec42783          	lw	a5,-20(s0)
20014ec0:	00f71733          	sll	a4,a4,a5
20014ec4:	fe442783          	lw	a5,-28(s0)
20014ec8:	8fd9                	or	a5,a5,a4
20014eca:	fef42223          	sw	a5,-28(s0)
/home/nicoladgg/wsFreedomStudio/sifive_hifive1_revb_hello/freedom-metal/src/drivers/riscv_plic0.c:234 (discriminator 2)
20014ece:	fec42783          	lw	a5,-20(s0)
20014ed2:	0785                	addi	a5,a5,1
20014ed4:	fef42623          	sw	a5,-20(s0)
20014ed8:	fd842783          	lw	a5,-40(s0)
20014edc:	8385                	srli	a5,a5,0x1
20014ede:	fcf42c23          	sw	a5,-40(s0)
/home/nicoladgg/wsFreedomStudio/sifive_hifive1_revb_hello/freedom-metal/src/drivers/riscv_plic0.c:234 (discriminator 1)
20014ee2:	fd842783          	lw	a5,-40(s0)
20014ee6:	ffc5                	bnez	a5,20014e9e <__metal_driver_riscv_plic0_affinity_enable+0x44>
/home/nicoladgg/wsFreedomStudio/sifive_hifive1_revb_hello/freedom-metal/src/drivers/riscv_plic0.c:241
20014ee8:	fe442783          	lw	a5,-28(s0)
/home/nicoladgg/wsFreedomStudio/sifive_hifive1_revb_hello/freedom-metal/src/drivers/riscv_plic0.c:242 (discriminator 1)
20014eec:	853e                	mv	a0,a5
20014eee:	50b2                	lw	ra,44(sp)
20014ef0:	5422                	lw	s0,40(sp)
20014ef2:	6145                	addi	sp,sp,48
20014ef4:	8082                	ret

20014ef6 <__metal_driver_riscv_plic0_affinity_disable>:
__metal_driver_riscv_plic0_affinity_disable():
/home/nicoladgg/wsFreedomStudio/sifive_hifive1_revb_hello/freedom-metal/src/drivers/riscv_plic0.c:246
20014ef6:	7179                	addi	sp,sp,-48
20014ef8:	d606                	sw	ra,44(sp)
20014efa:	d422                	sw	s0,40(sp)
20014efc:	1800                	addi	s0,sp,48
20014efe:	fca42e23          	sw	a0,-36(s0)
20014f02:	fcb42c23          	sw	a1,-40(s0)
20014f06:	fcc42a23          	sw	a2,-44(s0)
/home/nicoladgg/wsFreedomStudio/sifive_hifive1_revb_hello/freedom-metal/src/drivers/riscv_plic0.c:247
20014f0a:	fe042223          	sw	zero,-28(s0)
/home/nicoladgg/wsFreedomStudio/sifive_hifive1_revb_hello/freedom-metal/src/drivers/riscv_plic0.c:250
20014f0e:	fdc42783          	lw	a5,-36(s0)
20014f12:	fef42423          	sw	a5,-24(s0)
/home/nicoladgg/wsFreedomStudio/sifive_hifive1_revb_hello/freedom-metal/src/drivers/riscv_plic0.c:252
20014f16:	fdc42503          	lw	a0,-36(s0)
20014f1a:	87fff0ef          	jal	ra,20014798 <__metal_driver_sifive_plic0_num_interrupts>
20014f1e:	872a                	mv	a4,a0
20014f20:	fd442783          	lw	a5,-44(s0)
20014f24:	00e7c863          	blt	a5,a4,20014f34 <__metal_driver_riscv_plic0_affinity_disable+0x3e>
/home/nicoladgg/wsFreedomStudio/sifive_hifive1_revb_hello/freedom-metal/src/drivers/riscv_plic0.c:253
20014f28:	57fd                	li	a5,-1
20014f2a:	fef42223          	sw	a5,-28(s0)
/home/nicoladgg/wsFreedomStudio/sifive_hifive1_revb_hello/freedom-metal/src/drivers/riscv_plic0.c:254
20014f2e:	fe442783          	lw	a5,-28(s0)
20014f32:	a899                	j	20014f88 <__metal_driver_riscv_plic0_affinity_disable+0x92>
/home/nicoladgg/wsFreedomStudio/sifive_hifive1_revb_hello/freedom-metal/src/drivers/riscv_plic0.c:257
20014f34:	fe042623          	sw	zero,-20(s0)
20014f38:	a099                	j	20014f7e <__metal_driver_riscv_plic0_affinity_disable+0x88>
/home/nicoladgg/wsFreedomStudio/sifive_hifive1_revb_hello/freedom-metal/src/drivers/riscv_plic0.c:258
20014f3a:	fec42783          	lw	a5,-20(s0)
20014f3e:	c795                	beqz	a5,20014f6a <__metal_driver_riscv_plic0_affinity_disable+0x74>
/home/nicoladgg/wsFreedomStudio/sifive_hifive1_revb_hello/freedom-metal/src/drivers/riscv_plic0.c:259
20014f40:	4681                	li	a3,0
20014f42:	fd442603          	lw	a2,-44(s0)
20014f46:	fec42583          	lw	a1,-20(s0)
20014f4a:	fe842503          	lw	a0,-24(s0)
20014f4e:	a9dff0ef          	jal	ra,200149ea <__metal_plic0_enable>
20014f52:	87aa                	mv	a5,a0
20014f54:	0017f713          	andi	a4,a5,1
20014f58:	fec42783          	lw	a5,-20(s0)
20014f5c:	00f71733          	sll	a4,a4,a5
20014f60:	fe442783          	lw	a5,-28(s0)
20014f64:	8fd9                	or	a5,a5,a4
20014f66:	fef42223          	sw	a5,-28(s0)
/home/nicoladgg/wsFreedomStudio/sifive_hifive1_revb_hello/freedom-metal/src/drivers/riscv_plic0.c:257 (discriminator 2)
20014f6a:	fec42783          	lw	a5,-20(s0)
20014f6e:	0785                	addi	a5,a5,1
20014f70:	fef42623          	sw	a5,-20(s0)
20014f74:	fd842783          	lw	a5,-40(s0)
20014f78:	8385                	srli	a5,a5,0x1
20014f7a:	fcf42c23          	sw	a5,-40(s0)
/home/nicoladgg/wsFreedomStudio/sifive_hifive1_revb_hello/freedom-metal/src/drivers/riscv_plic0.c:257 (discriminator 1)
20014f7e:	fd842783          	lw	a5,-40(s0)
20014f82:	ffc5                	bnez	a5,20014f3a <__metal_driver_riscv_plic0_affinity_disable+0x44>
/home/nicoladgg/wsFreedomStudio/sifive_hifive1_revb_hello/freedom-metal/src/drivers/riscv_plic0.c:264
20014f84:	fe442783          	lw	a5,-28(s0)
/home/nicoladgg/wsFreedomStudio/sifive_hifive1_revb_hello/freedom-metal/src/drivers/riscv_plic0.c:265 (discriminator 1)
20014f88:	853e                	mv	a0,a5
20014f8a:	50b2                	lw	ra,44(sp)
20014f8c:	5422                	lw	s0,40(sp)
20014f8e:	6145                	addi	sp,sp,48
20014f90:	8082                	ret

20014f92 <__metal_driver_riscv_plic0_affinity_set_threshold>:
__metal_driver_riscv_plic0_affinity_set_threshold():
/home/nicoladgg/wsFreedomStudio/sifive_hifive1_revb_hello/freedom-metal/src/drivers/riscv_plic0.c:269
20014f92:	7179                	addi	sp,sp,-48
20014f94:	d606                	sw	ra,44(sp)
20014f96:	d422                	sw	s0,40(sp)
20014f98:	1800                	addi	s0,sp,48
20014f9a:	fca42e23          	sw	a0,-36(s0)
20014f9e:	fcb42c23          	sw	a1,-40(s0)
20014fa2:	fcc42a23          	sw	a2,-44(s0)
/home/nicoladgg/wsFreedomStudio/sifive_hifive1_revb_hello/freedom-metal/src/drivers/riscv_plic0.c:270
20014fa6:	fe042423          	sw	zero,-24(s0)
/home/nicoladgg/wsFreedomStudio/sifive_hifive1_revb_hello/freedom-metal/src/drivers/riscv_plic0.c:273
20014faa:	fe042623          	sw	zero,-20(s0)
20014fae:	a091                	j	20014ff2 <__metal_driver_riscv_plic0_affinity_set_threshold+0x60>
/home/nicoladgg/wsFreedomStudio/sifive_hifive1_revb_hello/freedom-metal/src/drivers/riscv_plic0.c:274
20014fb0:	fec42783          	lw	a5,-20(s0)
20014fb4:	c78d                	beqz	a5,20014fde <__metal_driver_riscv_plic0_affinity_set_threshold+0x4c>
/home/nicoladgg/wsFreedomStudio/sifive_hifive1_revb_hello/freedom-metal/src/drivers/riscv_plic0.c:275
20014fb6:	fd442603          	lw	a2,-44(s0)
20014fba:	fec42583          	lw	a1,-20(s0)
20014fbe:	fdc42503          	lw	a0,-36(s0)
20014fc2:	913ff0ef          	jal	ra,200148d4 <__metal_plic0_set_threshold>
20014fc6:	87aa                	mv	a5,a0
20014fc8:	0017f713          	andi	a4,a5,1
20014fcc:	fec42783          	lw	a5,-20(s0)
20014fd0:	00f71733          	sll	a4,a4,a5
20014fd4:	fe842783          	lw	a5,-24(s0)
20014fd8:	8fd9                	or	a5,a5,a4
20014fda:	fef42423          	sw	a5,-24(s0)
/home/nicoladgg/wsFreedomStudio/sifive_hifive1_revb_hello/freedom-metal/src/drivers/riscv_plic0.c:273 (discriminator 2)
20014fde:	fec42783          	lw	a5,-20(s0)
20014fe2:	0785                	addi	a5,a5,1
20014fe4:	fef42623          	sw	a5,-20(s0)
20014fe8:	fd842783          	lw	a5,-40(s0)
20014fec:	8385                	srli	a5,a5,0x1
20014fee:	fcf42c23          	sw	a5,-40(s0)
/home/nicoladgg/wsFreedomStudio/sifive_hifive1_revb_hello/freedom-metal/src/drivers/riscv_plic0.c:273 (discriminator 1)
20014ff2:	fd842783          	lw	a5,-40(s0)
20014ff6:	ffcd                	bnez	a5,20014fb0 <__metal_driver_riscv_plic0_affinity_set_threshold+0x1e>
/home/nicoladgg/wsFreedomStudio/sifive_hifive1_revb_hello/freedom-metal/src/drivers/riscv_plic0.c:280
20014ff8:	fe842783          	lw	a5,-24(s0)
/home/nicoladgg/wsFreedomStudio/sifive_hifive1_revb_hello/freedom-metal/src/drivers/riscv_plic0.c:281
20014ffc:	853e                	mv	a0,a5
20014ffe:	50b2                	lw	ra,44(sp)
20015000:	5422                	lw	s0,40(sp)
20015002:	6145                	addi	sp,sp,48
20015004:	8082                	ret

20015006 <__metal_driver_riscv_plic0_affinity_get_threshold>:
__metal_driver_riscv_plic0_affinity_get_threshold():
/home/nicoladgg/wsFreedomStudio/sifive_hifive1_revb_hello/freedom-metal/src/drivers/riscv_plic0.c:284
20015006:	1101                	addi	sp,sp,-32
20015008:	ce06                	sw	ra,28(sp)
2001500a:	cc22                	sw	s0,24(sp)
2001500c:	1000                	addi	s0,sp,32
2001500e:	fea42623          	sw	a0,-20(s0)
20015012:	feb42423          	sw	a1,-24(s0)
/home/nicoladgg/wsFreedomStudio/sifive_hifive1_revb_hello/freedom-metal/src/drivers/riscv_plic0.c:285
20015016:	fe842583          	lw	a1,-24(s0)
2001501a:	fec42503          	lw	a0,-20(s0)
2001501e:	8fdff0ef          	jal	ra,2001491a <__metal_plic0_get_threshold>
/home/nicoladgg/wsFreedomStudio/sifive_hifive1_revb_hello/freedom-metal/src/drivers/riscv_plic0.c:286
20015022:	4781                	li	a5,0
/home/nicoladgg/wsFreedomStudio/sifive_hifive1_revb_hello/freedom-metal/src/drivers/riscv_plic0.c:287
20015024:	853e                	mv	a0,a5
20015026:	40f2                	lw	ra,28(sp)
20015028:	4462                	lw	s0,24(sp)
2001502a:	6105                	addi	sp,sp,32
2001502c:	8082                	ret

2001502e <__metal_driver_sifive_fe310_g000_hfrosc_ref>:
__metal_driver_sifive_fe310_g000_hfrosc_ref():
/home/nicoladgg/wsFreedomStudio/sifive_hifive1_revb_hello/bsp/build/debug/./metal/machine.h:1242
2001502e:	1101                	addi	sp,sp,-32
20015030:	ce22                	sw	s0,28(sp)
20015032:	1000                	addi	s0,sp,32
20015034:	fea42623          	sw	a0,-20(s0)
/home/nicoladgg/wsFreedomStudio/sifive_hifive1_revb_hello/bsp/build/debug/./metal/machine.h:1243
20015038:	800007b7          	lui	a5,0x80000
2001503c:	06c78793          	addi	a5,a5,108 # 8000006c <metal_segment_heap_target_end+0xffffe8ec>
/home/nicoladgg/wsFreedomStudio/sifive_hifive1_revb_hello/bsp/build/debug/./metal/machine.h:1244
20015040:	853e                	mv	a0,a5
20015042:	4472                	lw	s0,28(sp)
20015044:	6105                	addi	sp,sp,32
20015046:	8082                	ret

20015048 <__metal_driver_sifive_fe310_g000_hfrosc_config_base>:
__metal_driver_sifive_fe310_g000_hfrosc_config_base():
/home/nicoladgg/wsFreedomStudio/sifive_hifive1_revb_hello/bsp/build/debug/./metal/machine.h:1247
20015048:	1101                	addi	sp,sp,-32
2001504a:	ce22                	sw	s0,28(sp)
2001504c:	1000                	addi	s0,sp,32
2001504e:	fea42623          	sw	a0,-20(s0)
/home/nicoladgg/wsFreedomStudio/sifive_hifive1_revb_hello/bsp/build/debug/./metal/machine.h:1248
20015052:	82018793          	addi	a5,gp,-2016 # 80000ac0 <__metal_dt_prci_10008000>
/home/nicoladgg/wsFreedomStudio/sifive_hifive1_revb_hello/bsp/build/debug/./metal/machine.h:1249
20015056:	853e                	mv	a0,a5
20015058:	4472                	lw	s0,28(sp)
2001505a:	6105                	addi	sp,sp,32
2001505c:	8082                	ret

2001505e <__metal_driver_sifive_fe310_g000_hfrosc_config_offset>:
__metal_driver_sifive_fe310_g000_hfrosc_config_offset():
/home/nicoladgg/wsFreedomStudio/sifive_hifive1_revb_hello/bsp/build/debug/./metal/machine.h:1257
2001505e:	1101                	addi	sp,sp,-32
20015060:	ce22                	sw	s0,28(sp)
20015062:	1000                	addi	s0,sp,32
20015064:	fea42623          	sw	a0,-20(s0)
/home/nicoladgg/wsFreedomStudio/sifive_hifive1_revb_hello/bsp/build/debug/./metal/machine.h:1258
20015068:	4781                	li	a5,0
/home/nicoladgg/wsFreedomStudio/sifive_hifive1_revb_hello/bsp/build/debug/./metal/machine.h:1259
2001506a:	853e                	mv	a0,a5
2001506c:	4472                	lw	s0,28(sp)
2001506e:	6105                	addi	sp,sp,32
20015070:	8082                	ret

20015072 <__metal_driver_sifive_fe310_g000_prci_vtable>:
__metal_driver_sifive_fe310_g000_prci_vtable():
/home/nicoladgg/wsFreedomStudio/sifive_hifive1_revb_hello/bsp/build/debug/./metal/machine.h:1374
20015072:	1141                	addi	sp,sp,-16
20015074:	c622                	sw	s0,12(sp)
20015076:	0800                	addi	s0,sp,16
/home/nicoladgg/wsFreedomStudio/sifive_hifive1_revb_hello/bsp/build/debug/./metal/machine.h:1375
20015078:	200117b7          	lui	a5,0x20011
2001507c:	fc478793          	addi	a5,a5,-60 # 20010fc4 <__metal_driver_vtable_sifive_fe310_g000_prci>
/home/nicoladgg/wsFreedomStudio/sifive_hifive1_revb_hello/bsp/build/debug/./metal/machine.h:1376
20015080:	853e                	mv	a0,a5
20015082:	4432                	lw	s0,12(sp)
20015084:	0141                	addi	sp,sp,16
20015086:	8082                	ret

20015088 <__metal_driver_sifive_fe310_g000_hfrosc_get_rate_hz>:
__metal_driver_sifive_fe310_g000_hfrosc_get_rate_hz():
/home/nicoladgg/wsFreedomStudio/sifive_hifive1_revb_hello/freedom-metal/src/drivers/sifive_fe310-g000_hfrosc.c:17
20015088:	7139                	addi	sp,sp,-64
2001508a:	de06                	sw	ra,60(sp)
2001508c:	dc22                	sw	s0,56(sp)
2001508e:	0080                	addi	s0,sp,64
20015090:	fca42623          	sw	a0,-52(s0)
/home/nicoladgg/wsFreedomStudio/sifive_hifive1_revb_hello/freedom-metal/src/drivers/sifive_fe310-g000_hfrosc.c:19
20015094:	fcc42503          	lw	a0,-52(s0)
20015098:	3f59                	jal	2001502e <__metal_driver_sifive_fe310_g000_hfrosc_ref>
2001509a:	fea42623          	sw	a0,-20(s0)
/home/nicoladgg/wsFreedomStudio/sifive_hifive1_revb_hello/freedom-metal/src/drivers/sifive_fe310-g000_hfrosc.c:21
2001509e:	fcc42503          	lw	a0,-52(s0)
200150a2:	3f75                	jal	2001505e <__metal_driver_sifive_fe310_g000_hfrosc_config_offset>
200150a4:	fea42423          	sw	a0,-24(s0)
/home/nicoladgg/wsFreedomStudio/sifive_hifive1_revb_hello/freedom-metal/src/drivers/sifive_fe310-g000_hfrosc.c:23
200150a8:	fcc42503          	lw	a0,-52(s0)
200150ac:	3f71                	jal	20015048 <__metal_driver_sifive_fe310_g000_hfrosc_config_base>
200150ae:	fea42223          	sw	a0,-28(s0)
/home/nicoladgg/wsFreedomStudio/sifive_hifive1_revb_hello/freedom-metal/src/drivers/sifive_fe310-g000_hfrosc.c:25
200150b2:	37c1                	jal	20015072 <__metal_driver_sifive_fe310_g000_prci_vtable>
200150b4:	fea42023          	sw	a0,-32(s0)
/home/nicoladgg/wsFreedomStudio/sifive_hifive1_revb_hello/freedom-metal/src/drivers/sifive_fe310-g000_hfrosc.c:26
200150b8:	fe042783          	lw	a5,-32(s0)
200150bc:	439c                	lw	a5,0(a5)
200150be:	fe842583          	lw	a1,-24(s0)
200150c2:	fe442503          	lw	a0,-28(s0)
200150c6:	9782                	jalr	a5
200150c8:	fca42e23          	sw	a0,-36(s0)
/home/nicoladgg/wsFreedomStudio/sifive_hifive1_revb_hello/freedom-metal/src/drivers/sifive_fe310-g000_hfrosc.c:28
200150cc:	fdc42703          	lw	a4,-36(s0)
200150d0:	400007b7          	lui	a5,0x40000
200150d4:	8ff9                	and	a5,a5,a4
200150d6:	e399                	bnez	a5,200150dc <__metal_driver_sifive_fe310_g000_hfrosc_get_rate_hz+0x54>
/home/nicoladgg/wsFreedomStudio/sifive_hifive1_revb_hello/freedom-metal/src/drivers/sifive_fe310-g000_hfrosc.c:29
200150d8:	57fd                	li	a5,-1
200150da:	a025                	j	20015102 <__metal_driver_sifive_fe310_g000_hfrosc_get_rate_hz+0x7a>
/home/nicoladgg/wsFreedomStudio/sifive_hifive1_revb_hello/freedom-metal/src/drivers/sifive_fe310-g000_hfrosc.c:30
200150dc:	fdc42783          	lw	a5,-36(s0)
200150e0:	0007c463          	bltz	a5,200150e8 <__metal_driver_sifive_fe310_g000_hfrosc_get_rate_hz+0x60>
/home/nicoladgg/wsFreedomStudio/sifive_hifive1_revb_hello/freedom-metal/src/drivers/sifive_fe310-g000_hfrosc.c:31
200150e4:	57fd                	li	a5,-1
200150e6:	a831                	j	20015102 <__metal_driver_sifive_fe310_g000_hfrosc_get_rate_hz+0x7a>
/home/nicoladgg/wsFreedomStudio/sifive_hifive1_revb_hello/freedom-metal/src/drivers/sifive_fe310-g000_hfrosc.c:32
200150e8:	fec42503          	lw	a0,-20(s0)
200150ec:	2c1010ef          	jal	ra,20016bac <metal_clock_get_rate_hz>
200150f0:	87aa                	mv	a5,a0
200150f2:	873e                	mv	a4,a5
200150f4:	fdc42783          	lw	a5,-36(s0)
200150f8:	03f7f793          	andi	a5,a5,63
200150fc:	0785                	addi	a5,a5,1
200150fe:	02f757b3          	divu	a5,a4,a5
/home/nicoladgg/wsFreedomStudio/sifive_hifive1_revb_hello/freedom-metal/src/drivers/sifive_fe310-g000_hfrosc.c:33
20015102:	853e                	mv	a0,a5
20015104:	50f2                	lw	ra,60(sp)
20015106:	5462                	lw	s0,56(sp)
20015108:	6121                	addi	sp,sp,64
2001510a:	8082                	ret

2001510c <__metal_driver_sifive_fe310_g000_hfrosc_set_rate_hz>:
__metal_driver_sifive_fe310_g000_hfrosc_set_rate_hz():
/home/nicoladgg/wsFreedomStudio/sifive_hifive1_revb_hello/freedom-metal/src/drivers/sifive_fe310-g000_hfrosc.c:36
2001510c:	1101                	addi	sp,sp,-32
2001510e:	ce06                	sw	ra,28(sp)
20015110:	cc22                	sw	s0,24(sp)
20015112:	1000                	addi	s0,sp,32
20015114:	fea42623          	sw	a0,-20(s0)
20015118:	feb42423          	sw	a1,-24(s0)
/home/nicoladgg/wsFreedomStudio/sifive_hifive1_revb_hello/freedom-metal/src/drivers/sifive_fe310-g000_hfrosc.c:37
2001511c:	fec42503          	lw	a0,-20(s0)
20015120:	37a5                	jal	20015088 <__metal_driver_sifive_fe310_g000_hfrosc_get_rate_hz>
20015122:	87aa                	mv	a5,a0
/home/nicoladgg/wsFreedomStudio/sifive_hifive1_revb_hello/freedom-metal/src/drivers/sifive_fe310-g000_hfrosc.c:38
20015124:	853e                	mv	a0,a5
20015126:	40f2                	lw	ra,28(sp)
20015128:	4462                	lw	s0,24(sp)
2001512a:	6105                	addi	sp,sp,32
2001512c:	8082                	ret

2001512e <__metal_driver_sifive_fe310_g000_hfxosc_ref>:
__metal_driver_sifive_fe310_g000_hfxosc_ref():
/home/nicoladgg/wsFreedomStudio/sifive_hifive1_revb_hello/bsp/build/debug/./metal/machine.h:1265
2001512e:	1101                	addi	sp,sp,-32
20015130:	ce22                	sw	s0,28(sp)
20015132:	1000                	addi	s0,sp,32
20015134:	fea42623          	sw	a0,-20(s0)
/home/nicoladgg/wsFreedomStudio/sifive_hifive1_revb_hello/bsp/build/debug/./metal/machine.h:1266
20015138:	800007b7          	lui	a5,0x80000
2001513c:	06078793          	addi	a5,a5,96 # 80000060 <metal_segment_heap_target_end+0xffffe8e0>
/home/nicoladgg/wsFreedomStudio/sifive_hifive1_revb_hello/bsp/build/debug/./metal/machine.h:1267
20015140:	853e                	mv	a0,a5
20015142:	4472                	lw	s0,28(sp)
20015144:	6105                	addi	sp,sp,32
20015146:	8082                	ret

20015148 <__metal_driver_sifive_fe310_g000_hfxosc_config_base>:
__metal_driver_sifive_fe310_g000_hfxosc_config_base():
/home/nicoladgg/wsFreedomStudio/sifive_hifive1_revb_hello/bsp/build/debug/./metal/machine.h:1270
20015148:	1101                	addi	sp,sp,-32
2001514a:	ce22                	sw	s0,28(sp)
2001514c:	1000                	addi	s0,sp,32
2001514e:	fea42623          	sw	a0,-20(s0)
/home/nicoladgg/wsFreedomStudio/sifive_hifive1_revb_hello/bsp/build/debug/./metal/machine.h:1271
20015152:	82018793          	addi	a5,gp,-2016 # 80000ac0 <__metal_dt_prci_10008000>
/home/nicoladgg/wsFreedomStudio/sifive_hifive1_revb_hello/bsp/build/debug/./metal/machine.h:1272
20015156:	853e                	mv	a0,a5
20015158:	4472                	lw	s0,28(sp)
2001515a:	6105                	addi	sp,sp,32
2001515c:	8082                	ret

2001515e <__metal_driver_sifive_fe310_g000_hfxosc_config_offset>:
__metal_driver_sifive_fe310_g000_hfxosc_config_offset():
/home/nicoladgg/wsFreedomStudio/sifive_hifive1_revb_hello/bsp/build/debug/./metal/machine.h:1275
2001515e:	1101                	addi	sp,sp,-32
20015160:	ce22                	sw	s0,28(sp)
20015162:	1000                	addi	s0,sp,32
20015164:	fea42623          	sw	a0,-20(s0)
/home/nicoladgg/wsFreedomStudio/sifive_hifive1_revb_hello/bsp/build/debug/./metal/machine.h:1276
20015168:	4791                	li	a5,4
/home/nicoladgg/wsFreedomStudio/sifive_hifive1_revb_hello/bsp/build/debug/./metal/machine.h:1277
2001516a:	853e                	mv	a0,a5
2001516c:	4472                	lw	s0,28(sp)
2001516e:	6105                	addi	sp,sp,32
20015170:	8082                	ret

20015172 <__metal_driver_sifive_fe310_g000_prci_vtable>:
__metal_driver_sifive_fe310_g000_prci_vtable():
/home/nicoladgg/wsFreedomStudio/sifive_hifive1_revb_hello/bsp/build/debug/./metal/machine.h:1374
20015172:	1141                	addi	sp,sp,-16
20015174:	c622                	sw	s0,12(sp)
20015176:	0800                	addi	s0,sp,16
/home/nicoladgg/wsFreedomStudio/sifive_hifive1_revb_hello/bsp/build/debug/./metal/machine.h:1375
20015178:	200117b7          	lui	a5,0x20011
2001517c:	fc478793          	addi	a5,a5,-60 # 20010fc4 <__metal_driver_vtable_sifive_fe310_g000_prci>
/home/nicoladgg/wsFreedomStudio/sifive_hifive1_revb_hello/bsp/build/debug/./metal/machine.h:1376
20015180:	853e                	mv	a0,a5
20015182:	4432                	lw	s0,12(sp)
20015184:	0141                	addi	sp,sp,16
20015186:	8082                	ret

20015188 <__metal_driver_sifive_fe310_g000_hfxosc_get_rate_hz>:
__metal_driver_sifive_fe310_g000_hfxosc_get_rate_hz():
/home/nicoladgg/wsFreedomStudio/sifive_hifive1_revb_hello/freedom-metal/src/drivers/sifive_fe310-g000_hfxosc.c:15
20015188:	7139                	addi	sp,sp,-64
2001518a:	de06                	sw	ra,60(sp)
2001518c:	dc22                	sw	s0,56(sp)
2001518e:	0080                	addi	s0,sp,64
20015190:	fca42623          	sw	a0,-52(s0)
/home/nicoladgg/wsFreedomStudio/sifive_hifive1_revb_hello/freedom-metal/src/drivers/sifive_fe310-g000_hfxosc.c:17
20015194:	fcc42503          	lw	a0,-52(s0)
20015198:	3f59                	jal	2001512e <__metal_driver_sifive_fe310_g000_hfxosc_ref>
2001519a:	fea42623          	sw	a0,-20(s0)
/home/nicoladgg/wsFreedomStudio/sifive_hifive1_revb_hello/freedom-metal/src/drivers/sifive_fe310-g000_hfxosc.c:19
2001519e:	fcc42503          	lw	a0,-52(s0)
200151a2:	3f75                	jal	2001515e <__metal_driver_sifive_fe310_g000_hfxosc_config_offset>
200151a4:	fea42423          	sw	a0,-24(s0)
/home/nicoladgg/wsFreedomStudio/sifive_hifive1_revb_hello/freedom-metal/src/drivers/sifive_fe310-g000_hfxosc.c:21
200151a8:	fcc42503          	lw	a0,-52(s0)
200151ac:	3f71                	jal	20015148 <__metal_driver_sifive_fe310_g000_hfxosc_config_base>
200151ae:	fea42223          	sw	a0,-28(s0)
/home/nicoladgg/wsFreedomStudio/sifive_hifive1_revb_hello/freedom-metal/src/drivers/sifive_fe310-g000_hfxosc.c:23
200151b2:	37c1                	jal	20015172 <__metal_driver_sifive_fe310_g000_prci_vtable>
200151b4:	fea42023          	sw	a0,-32(s0)
/home/nicoladgg/wsFreedomStudio/sifive_hifive1_revb_hello/freedom-metal/src/drivers/sifive_fe310-g000_hfxosc.c:24
200151b8:	fe042783          	lw	a5,-32(s0)
200151bc:	439c                	lw	a5,0(a5)
200151be:	fe842583          	lw	a1,-24(s0)
200151c2:	fe442503          	lw	a0,-28(s0)
200151c6:	9782                	jalr	a5
200151c8:	fca42e23          	sw	a0,-36(s0)
/home/nicoladgg/wsFreedomStudio/sifive_hifive1_revb_hello/freedom-metal/src/drivers/sifive_fe310-g000_hfxosc.c:26
200151cc:	fdc42703          	lw	a4,-36(s0)
200151d0:	400007b7          	lui	a5,0x40000
200151d4:	8ff9                	and	a5,a5,a4
200151d6:	e399                	bnez	a5,200151dc <__metal_driver_sifive_fe310_g000_hfxosc_get_rate_hz+0x54>
/home/nicoladgg/wsFreedomStudio/sifive_hifive1_revb_hello/freedom-metal/src/drivers/sifive_fe310-g000_hfxosc.c:27
200151d8:	57fd                	li	a5,-1
200151da:	a821                	j	200151f2 <__metal_driver_sifive_fe310_g000_hfxosc_get_rate_hz+0x6a>
/home/nicoladgg/wsFreedomStudio/sifive_hifive1_revb_hello/freedom-metal/src/drivers/sifive_fe310-g000_hfxosc.c:28
200151dc:	fdc42783          	lw	a5,-36(s0)
200151e0:	0007c463          	bltz	a5,200151e8 <__metal_driver_sifive_fe310_g000_hfxosc_get_rate_hz+0x60>
/home/nicoladgg/wsFreedomStudio/sifive_hifive1_revb_hello/freedom-metal/src/drivers/sifive_fe310-g000_hfxosc.c:29
200151e4:	57fd                	li	a5,-1
200151e6:	a031                	j	200151f2 <__metal_driver_sifive_fe310_g000_hfxosc_get_rate_hz+0x6a>
/home/nicoladgg/wsFreedomStudio/sifive_hifive1_revb_hello/freedom-metal/src/drivers/sifive_fe310-g000_hfxosc.c:30
200151e8:	fec42503          	lw	a0,-20(s0)
200151ec:	1c1010ef          	jal	ra,20016bac <metal_clock_get_rate_hz>
200151f0:	87aa                	mv	a5,a0
/home/nicoladgg/wsFreedomStudio/sifive_hifive1_revb_hello/freedom-metal/src/drivers/sifive_fe310-g000_hfxosc.c:31
200151f2:	853e                	mv	a0,a5
200151f4:	50f2                	lw	ra,60(sp)
200151f6:	5462                	lw	s0,56(sp)
200151f8:	6121                	addi	sp,sp,64
200151fa:	8082                	ret

200151fc <__metal_driver_sifive_fe310_g000_hfxosc_set_rate_hz>:
__metal_driver_sifive_fe310_g000_hfxosc_set_rate_hz():
/home/nicoladgg/wsFreedomStudio/sifive_hifive1_revb_hello/freedom-metal/src/drivers/sifive_fe310-g000_hfxosc.c:34
200151fc:	1101                	addi	sp,sp,-32
200151fe:	ce06                	sw	ra,28(sp)
20015200:	cc22                	sw	s0,24(sp)
20015202:	1000                	addi	s0,sp,32
20015204:	fea42623          	sw	a0,-20(s0)
20015208:	feb42423          	sw	a1,-24(s0)
/home/nicoladgg/wsFreedomStudio/sifive_hifive1_revb_hello/freedom-metal/src/drivers/sifive_fe310-g000_hfxosc.c:35
2001520c:	fec42503          	lw	a0,-20(s0)
20015210:	3fa5                	jal	20015188 <__metal_driver_sifive_fe310_g000_hfxosc_get_rate_hz>
20015212:	87aa                	mv	a5,a0
/home/nicoladgg/wsFreedomStudio/sifive_hifive1_revb_hello/freedom-metal/src/drivers/sifive_fe310-g000_hfxosc.c:36
20015214:	853e                	mv	a0,a5
20015216:	40f2                	lw	ra,28(sp)
20015218:	4462                	lw	s0,24(sp)
2001521a:	6105                	addi	sp,sp,32
2001521c:	8082                	ret

2001521e <__metal_driver_sifive_fe310_g000_pll_pllsel0>:
__metal_driver_sifive_fe310_g000_pll_pllsel0():
/home/nicoladgg/wsFreedomStudio/sifive_hifive1_revb_hello/bsp/build/debug/./metal/machine.h:1326
2001521e:	1101                	addi	sp,sp,-32
20015220:	ce22                	sw	s0,28(sp)
20015222:	1000                	addi	s0,sp,32
20015224:	fea42623          	sw	a0,-20(s0)
/home/nicoladgg/wsFreedomStudio/sifive_hifive1_revb_hello/bsp/build/debug/./metal/machine.h:1327
20015228:	800017b7          	lui	a5,0x80001
2001522c:	a7878793          	addi	a5,a5,-1416 # 80000a78 <metal_segment_heap_target_end+0xfffff2f8>
/home/nicoladgg/wsFreedomStudio/sifive_hifive1_revb_hello/bsp/build/debug/./metal/machine.h:1328
20015230:	853e                	mv	a0,a5
20015232:	4472                	lw	s0,28(sp)
20015234:	6105                	addi	sp,sp,32
20015236:	8082                	ret

20015238 <__metal_driver_sifive_fe310_g000_pll_pllref>:
__metal_driver_sifive_fe310_g000_pll_pllref():
/home/nicoladgg/wsFreedomStudio/sifive_hifive1_revb_hello/bsp/build/debug/./metal/machine.h:1331
20015238:	1101                	addi	sp,sp,-32
2001523a:	ce22                	sw	s0,28(sp)
2001523c:	1000                	addi	s0,sp,32
2001523e:	fea42623          	sw	a0,-20(s0)
/home/nicoladgg/wsFreedomStudio/sifive_hifive1_revb_hello/bsp/build/debug/./metal/machine.h:1332
20015242:	800017b7          	lui	a5,0x80001
20015246:	a8478793          	addi	a5,a5,-1404 # 80000a84 <metal_segment_heap_target_end+0xfffff304>
/home/nicoladgg/wsFreedomStudio/sifive_hifive1_revb_hello/bsp/build/debug/./metal/machine.h:1333
2001524a:	853e                	mv	a0,a5
2001524c:	4472                	lw	s0,28(sp)
2001524e:	6105                	addi	sp,sp,32
20015250:	8082                	ret

20015252 <__metal_driver_sifive_fe310_g000_pll_divider_base>:
__metal_driver_sifive_fe310_g000_pll_divider_base():
/home/nicoladgg/wsFreedomStudio/sifive_hifive1_revb_hello/bsp/build/debug/./metal/machine.h:1336
20015252:	1101                	addi	sp,sp,-32
20015254:	ce22                	sw	s0,28(sp)
20015256:	1000                	addi	s0,sp,32
20015258:	fea42623          	sw	a0,-20(s0)
/home/nicoladgg/wsFreedomStudio/sifive_hifive1_revb_hello/bsp/build/debug/./metal/machine.h:1337
2001525c:	82018793          	addi	a5,gp,-2016 # 80000ac0 <__metal_dt_prci_10008000>
/home/nicoladgg/wsFreedomStudio/sifive_hifive1_revb_hello/bsp/build/debug/./metal/machine.h:1338
20015260:	853e                	mv	a0,a5
20015262:	4472                	lw	s0,28(sp)
20015264:	6105                	addi	sp,sp,32
20015266:	8082                	ret

20015268 <__metal_driver_sifive_fe310_g000_pll_divider_offset>:
__metal_driver_sifive_fe310_g000_pll_divider_offset():
/home/nicoladgg/wsFreedomStudio/sifive_hifive1_revb_hello/bsp/build/debug/./metal/machine.h:1341
20015268:	1101                	addi	sp,sp,-32
2001526a:	ce22                	sw	s0,28(sp)
2001526c:	1000                	addi	s0,sp,32
2001526e:	fea42623          	sw	a0,-20(s0)
/home/nicoladgg/wsFreedomStudio/sifive_hifive1_revb_hello/bsp/build/debug/./metal/machine.h:1342
20015272:	47b1                	li	a5,12
/home/nicoladgg/wsFreedomStudio/sifive_hifive1_revb_hello/bsp/build/debug/./metal/machine.h:1343
20015274:	853e                	mv	a0,a5
20015276:	4472                	lw	s0,28(sp)
20015278:	6105                	addi	sp,sp,32
2001527a:	8082                	ret

2001527c <__metal_driver_sifive_fe310_g000_pll_config_base>:
__metal_driver_sifive_fe310_g000_pll_config_base():
/home/nicoladgg/wsFreedomStudio/sifive_hifive1_revb_hello/bsp/build/debug/./metal/machine.h:1346
2001527c:	1141                	addi	sp,sp,-16
2001527e:	c622                	sw	s0,12(sp)
20015280:	0800                	addi	s0,sp,16
/home/nicoladgg/wsFreedomStudio/sifive_hifive1_revb_hello/bsp/build/debug/./metal/machine.h:1347
20015282:	82018793          	addi	a5,gp,-2016 # 80000ac0 <__metal_dt_prci_10008000>
/home/nicoladgg/wsFreedomStudio/sifive_hifive1_revb_hello/bsp/build/debug/./metal/machine.h:1348
20015286:	853e                	mv	a0,a5
20015288:	4432                	lw	s0,12(sp)
2001528a:	0141                	addi	sp,sp,16
2001528c:	8082                	ret

2001528e <__metal_driver_sifive_fe310_g000_pll_config_offset>:
__metal_driver_sifive_fe310_g000_pll_config_offset():
/home/nicoladgg/wsFreedomStudio/sifive_hifive1_revb_hello/bsp/build/debug/./metal/machine.h:1351
2001528e:	1141                	addi	sp,sp,-16
20015290:	c622                	sw	s0,12(sp)
20015292:	0800                	addi	s0,sp,16
/home/nicoladgg/wsFreedomStudio/sifive_hifive1_revb_hello/bsp/build/debug/./metal/machine.h:1352
20015294:	47a1                	li	a5,8
/home/nicoladgg/wsFreedomStudio/sifive_hifive1_revb_hello/bsp/build/debug/./metal/machine.h:1353
20015296:	853e                	mv	a0,a5
20015298:	4432                	lw	s0,12(sp)
2001529a:	0141                	addi	sp,sp,16
2001529c:	8082                	ret

2001529e <__metal_driver_sifive_fe310_g000_pll_init_rate>:
__metal_driver_sifive_fe310_g000_pll_init_rate():
/home/nicoladgg/wsFreedomStudio/sifive_hifive1_revb_hello/bsp/build/debug/./metal/machine.h:1356
2001529e:	1141                	addi	sp,sp,-16
200152a0:	c622                	sw	s0,12(sp)
200152a2:	0800                	addi	s0,sp,16
/home/nicoladgg/wsFreedomStudio/sifive_hifive1_revb_hello/bsp/build/debug/./metal/machine.h:1357
200152a4:	00f427b7          	lui	a5,0xf42
200152a8:	40078793          	addi	a5,a5,1024 # f42400 <__heap_size+0xf41c00>
/home/nicoladgg/wsFreedomStudio/sifive_hifive1_revb_hello/bsp/build/debug/./metal/machine.h:1358
200152ac:	853e                	mv	a0,a5
200152ae:	4432                	lw	s0,12(sp)
200152b0:	0141                	addi	sp,sp,16
200152b2:	8082                	ret

200152b4 <__metal_driver_sifive_fe310_g000_prci_base>:
__metal_driver_sifive_fe310_g000_prci_base():
/home/nicoladgg/wsFreedomStudio/sifive_hifive1_revb_hello/bsp/build/debug/./metal/machine.h:1364
200152b4:	1141                	addi	sp,sp,-16
200152b6:	c622                	sw	s0,12(sp)
200152b8:	0800                	addi	s0,sp,16
/home/nicoladgg/wsFreedomStudio/sifive_hifive1_revb_hello/bsp/build/debug/./metal/machine.h:1365
200152ba:	100087b7          	lui	a5,0x10008
/home/nicoladgg/wsFreedomStudio/sifive_hifive1_revb_hello/bsp/build/debug/./metal/machine.h:1366
200152be:	853e                	mv	a0,a5
200152c0:	4432                	lw	s0,12(sp)
200152c2:	0141                	addi	sp,sp,16
200152c4:	8082                	ret

200152c6 <__metal_driver_sifive_fe310_g000_prci_vtable>:
__metal_driver_sifive_fe310_g000_prci_vtable():
/home/nicoladgg/wsFreedomStudio/sifive_hifive1_revb_hello/bsp/build/debug/./metal/machine.h:1374
200152c6:	1141                	addi	sp,sp,-16
200152c8:	c622                	sw	s0,12(sp)
200152ca:	0800                	addi	s0,sp,16
/home/nicoladgg/wsFreedomStudio/sifive_hifive1_revb_hello/bsp/build/debug/./metal/machine.h:1375
200152cc:	200117b7          	lui	a5,0x20011
200152d0:	fc478793          	addi	a5,a5,-60 # 20010fc4 <__metal_driver_vtable_sifive_fe310_g000_prci>
/home/nicoladgg/wsFreedomStudio/sifive_hifive1_revb_hello/bsp/build/debug/./metal/machine.h:1376
200152d4:	853e                	mv	a0,a5
200152d6:	4432                	lw	s0,12(sp)
200152d8:	0141                	addi	sp,sp,16
200152da:	8082                	ret

200152dc <get_pll_config_freq>:
get_pll_config_freq():
/home/nicoladgg/wsFreedomStudio/sifive_hifive1_revb_hello/freedom-metal/src/drivers/sifive_fe310-g000_pll.c:141
200152dc:	1101                	addi	sp,sp,-32
200152de:	ce22                	sw	s0,28(sp)
200152e0:	1000                	addi	s0,sp,32
200152e2:	fea42623          	sw	a0,-20(s0)
200152e6:	feb42423          	sw	a1,-24(s0)
/home/nicoladgg/wsFreedomStudio/sifive_hifive1_revb_hello/freedom-metal/src/drivers/sifive_fe310-g000_pll.c:142
200152ea:	fe842783          	lw	a5,-24(s0)
200152ee:	479c                	lw	a5,8(a5)
200152f0:	fec42703          	lw	a4,-20(s0)
200152f4:	00f76963          	bltu	a4,a5,20015306 <get_pll_config_freq+0x2a>
/home/nicoladgg/wsFreedomStudio/sifive_hifive1_revb_hello/freedom-metal/src/drivers/sifive_fe310-g000_pll.c:143 (discriminator 1)
200152f8:	fe842783          	lw	a5,-24(s0)
200152fc:	47dc                	lw	a5,12(a5)
/home/nicoladgg/wsFreedomStudio/sifive_hifive1_revb_hello/freedom-metal/src/drivers/sifive_fe310-g000_pll.c:142 (discriminator 1)
200152fe:	fec42703          	lw	a4,-20(s0)
20015302:	00e7f463          	bgeu	a5,a4,2001530a <get_pll_config_freq+0x2e>
/home/nicoladgg/wsFreedomStudio/sifive_hifive1_revb_hello/freedom-metal/src/drivers/sifive_fe310-g000_pll.c:144
20015306:	57fd                	li	a5,-1
20015308:	a829                	j	20015322 <get_pll_config_freq+0x46>
/home/nicoladgg/wsFreedomStudio/sifive_hifive1_revb_hello/freedom-metal/src/drivers/sifive_fe310-g000_pll.c:146
2001530a:	fe842783          	lw	a5,-24(s0)
2001530e:	4398                	lw	a4,0(a5)
20015310:	fec42783          	lw	a5,-20(s0)
20015314:	02f70733          	mul	a4,a4,a5
20015318:	fe842783          	lw	a5,-24(s0)
2001531c:	43dc                	lw	a5,4(a5)
2001531e:	02f757b3          	divu	a5,a4,a5
/home/nicoladgg/wsFreedomStudio/sifive_hifive1_revb_hello/freedom-metal/src/drivers/sifive_fe310-g000_pll.c:147
20015322:	853e                	mv	a0,a5
20015324:	4472                	lw	s0,28(sp)
20015326:	6105                	addi	sp,sp,32
20015328:	8082                	ret

2001532a <__metal_driver_sifive_fe310_g000_pll_init>:
__metal_driver_sifive_fe310_g000_pll_init():
/home/nicoladgg/wsFreedomStudio/sifive_hifive1_revb_hello/freedom-metal/src/drivers/sifive_fe310-g000_pll.c:162
2001532a:	7139                	addi	sp,sp,-64
2001532c:	de06                	sw	ra,60(sp)
2001532e:	dc22                	sw	s0,56(sp)
20015330:	0080                	addi	s0,sp,64
20015332:	fca42623          	sw	a0,-52(s0)
/home/nicoladgg/wsFreedomStudio/sifive_hifive1_revb_hello/freedom-metal/src/drivers/sifive_fe310-g000_pll.c:164
20015336:	fcc42783          	lw	a5,-52(s0)
2001533a:	853e                	mv	a0,a5
2001533c:	3df5                	jal	20015238 <__metal_driver_sifive_fe310_g000_pll_pllref>
2001533e:	fea42623          	sw	a0,-20(s0)
/home/nicoladgg/wsFreedomStudio/sifive_hifive1_revb_hello/freedom-metal/src/drivers/sifive_fe310-g000_pll.c:165
20015342:	3fb1                	jal	2001529e <__metal_driver_sifive_fe310_g000_pll_init_rate>
20015344:	fea42423          	sw	a0,-24(s0)
/home/nicoladgg/wsFreedomStudio/sifive_hifive1_revb_hello/freedom-metal/src/drivers/sifive_fe310-g000_pll.c:166
20015348:	3799                	jal	2001528e <__metal_driver_sifive_fe310_g000_pll_config_offset>
2001534a:	fea42223          	sw	a0,-28(s0)
/home/nicoladgg/wsFreedomStudio/sifive_hifive1_revb_hello/freedom-metal/src/drivers/sifive_fe310-g000_pll.c:167
2001534e:	379d                	jal	200152b4 <__metal_driver_sifive_fe310_g000_prci_base>
20015350:	fea42023          	sw	a0,-32(s0)
/home/nicoladgg/wsFreedomStudio/sifive_hifive1_revb_hello/freedom-metal/src/drivers/sifive_fe310-g000_pll.c:169
20015354:	fe042703          	lw	a4,-32(s0)
20015358:	fe442783          	lw	a5,-28(s0)
2001535c:	97ba                	add	a5,a5,a4
2001535e:	fcf42e23          	sw	a5,-36(s0)
/home/nicoladgg/wsFreedomStudio/sifive_hifive1_revb_hello/freedom-metal/src/drivers/sifive_fe310-g000_pll.c:173
20015362:	fcc42783          	lw	a5,-52(s0)
20015366:	43dc                	lw	a5,4(a5)
20015368:	853e                	mv	a0,a5
2001536a:	7ac010ef          	jal	ra,20016b16 <_metal_clock_call_all_callbacks>
/home/nicoladgg/wsFreedomStudio/sifive_hifive1_revb_hello/freedom-metal/src/drivers/sifive_fe310-g000_pll.c:177
2001536e:	fdc42783          	lw	a5,-36(s0)
20015372:	4398                	lw	a4,0(a5)
20015374:	67c1                	lui	a5,0x10
20015376:	8ff9                	and	a5,a5,a4
20015378:	cb91                	beqz	a5,2001538c <__metal_driver_sifive_fe310_g000_pll_init+0x62>
/home/nicoladgg/wsFreedomStudio/sifive_hifive1_revb_hello/freedom-metal/src/drivers/sifive_fe310-g000_pll.c:178
2001537a:	fdc42783          	lw	a5,-36(s0)
2001537e:	4398                	lw	a4,0(a5)
20015380:	77c1                	lui	a5,0xffff0
20015382:	17fd                	addi	a5,a5,-1
20015384:	8f7d                	and	a4,a4,a5
20015386:	fdc42783          	lw	a5,-36(s0)
2001538a:	c398                	sw	a4,0(a5)
/home/nicoladgg/wsFreedomStudio/sifive_hifive1_revb_hello/freedom-metal/src/drivers/sifive_fe310-g000_pll.c:181
2001538c:	fec42783          	lw	a5,-20(s0)
20015390:	cb91                	beqz	a5,200153a4 <__metal_driver_sifive_fe310_g000_pll_init+0x7a>
/home/nicoladgg/wsFreedomStudio/sifive_hifive1_revb_hello/freedom-metal/src/drivers/sifive_fe310-g000_pll.c:182
20015392:	fdc42783          	lw	a5,-36(s0)
20015396:	4398                	lw	a4,0(a5)
20015398:	000207b7          	lui	a5,0x20
2001539c:	8f5d                	or	a4,a4,a5
2001539e:	fdc42783          	lw	a5,-36(s0)
200153a2:	c398                	sw	a4,0(a5)
/home/nicoladgg/wsFreedomStudio/sifive_hifive1_revb_hello/freedom-metal/src/drivers/sifive_fe310-g000_pll.c:187
200153a4:	fcc42783          	lw	a5,-52(s0)
200153a8:	439c                	lw	a5,0(a5)
200153aa:	43d8                	lw	a4,4(a5)
200153ac:	fcc42783          	lw	a5,-52(s0)
200153b0:	fe842583          	lw	a1,-24(s0)
200153b4:	853e                	mv	a0,a5
200153b6:	9702                	jalr	a4
/home/nicoladgg/wsFreedomStudio/sifive_hifive1_revb_hello/freedom-metal/src/drivers/sifive_fe310-g000_pll.c:190
200153b8:	fcc42783          	lw	a5,-52(s0)
200153bc:	479c                	lw	a5,8(a5)
200153be:	853e                	mv	a0,a5
200153c0:	756010ef          	jal	ra,20016b16 <_metal_clock_call_all_callbacks>
/home/nicoladgg/wsFreedomStudio/sifive_hifive1_revb_hello/freedom-metal/src/drivers/sifive_fe310-g000_pll.c:191
200153c4:	0001                	nop
200153c6:	50f2                	lw	ra,60(sp)
200153c8:	5462                	lw	s0,56(sp)
200153ca:	6121                	addi	sp,sp,64
200153cc:	8082                	ret

200153ce <__metal_driver_sifive_fe310_g000_pll_get_rate_hz>:
__metal_driver_sifive_fe310_g000_pll_get_rate_hz():
/home/nicoladgg/wsFreedomStudio/sifive_hifive1_revb_hello/freedom-metal/src/drivers/sifive_fe310-g000_pll.c:194
200153ce:	711d                	addi	sp,sp,-96
200153d0:	ce86                	sw	ra,92(sp)
200153d2:	cca2                	sw	s0,88(sp)
200153d4:	1080                	addi	s0,sp,96
200153d6:	faa42623          	sw	a0,-84(s0)
/home/nicoladgg/wsFreedomStudio/sifive_hifive1_revb_hello/freedom-metal/src/drivers/sifive_fe310-g000_pll.c:196
200153da:	fac42503          	lw	a0,-84(s0)
200153de:	3da9                	jal	20015238 <__metal_driver_sifive_fe310_g000_pll_pllref>
200153e0:	fea42623          	sw	a0,-20(s0)
/home/nicoladgg/wsFreedomStudio/sifive_hifive1_revb_hello/freedom-metal/src/drivers/sifive_fe310-g000_pll.c:198
200153e4:	fac42503          	lw	a0,-84(s0)
200153e8:	3d1d                	jal	2001521e <__metal_driver_sifive_fe310_g000_pll_pllsel0>
200153ea:	fea42423          	sw	a0,-24(s0)
/home/nicoladgg/wsFreedomStudio/sifive_hifive1_revb_hello/freedom-metal/src/drivers/sifive_fe310-g000_pll.c:200
200153ee:	fac42503          	lw	a0,-84(s0)
200153f2:	3d71                	jal	2001528e <__metal_driver_sifive_fe310_g000_pll_config_offset>
200153f4:	fea42223          	sw	a0,-28(s0)
/home/nicoladgg/wsFreedomStudio/sifive_hifive1_revb_hello/freedom-metal/src/drivers/sifive_fe310-g000_pll.c:202
200153f8:	fac42503          	lw	a0,-84(s0)
200153fc:	3541                	jal	2001527c <__metal_driver_sifive_fe310_g000_pll_config_base>
200153fe:	fea42023          	sw	a0,-32(s0)
/home/nicoladgg/wsFreedomStudio/sifive_hifive1_revb_hello/freedom-metal/src/drivers/sifive_fe310-g000_pll.c:204
20015402:	fac42503          	lw	a0,-84(s0)
20015406:	358d                	jal	20015268 <__metal_driver_sifive_fe310_g000_pll_divider_offset>
20015408:	fca42e23          	sw	a0,-36(s0)
/home/nicoladgg/wsFreedomStudio/sifive_hifive1_revb_hello/freedom-metal/src/drivers/sifive_fe310-g000_pll.c:206
2001540c:	fac42503          	lw	a0,-84(s0)
20015410:	3589                	jal	20015252 <__metal_driver_sifive_fe310_g000_pll_divider_base>
20015412:	fca42c23          	sw	a0,-40(s0)
/home/nicoladgg/wsFreedomStudio/sifive_hifive1_revb_hello/freedom-metal/src/drivers/sifive_fe310-g000_pll.c:208
20015416:	3d45                	jal	200152c6 <__metal_driver_sifive_fe310_g000_prci_vtable>
20015418:	fca42a23          	sw	a0,-44(s0)
/home/nicoladgg/wsFreedomStudio/sifive_hifive1_revb_hello/freedom-metal/src/drivers/sifive_fe310-g000_pll.c:210
2001541c:	fd442783          	lw	a5,-44(s0)
20015420:	439c                	lw	a5,0(a5)
20015422:	fe442583          	lw	a1,-28(s0)
20015426:	fe042503          	lw	a0,-32(s0)
2001542a:	9782                	jalr	a5
2001542c:	fca42823          	sw	a0,-48(s0)
/home/nicoladgg/wsFreedomStudio/sifive_hifive1_revb_hello/freedom-metal/src/drivers/sifive_fe310-g000_pll.c:211
20015430:	fd442783          	lw	a5,-44(s0)
20015434:	439c                	lw	a5,0(a5)
20015436:	fdc42583          	lw	a1,-36(s0)
2001543a:	fd842503          	lw	a0,-40(s0)
2001543e:	9782                	jalr	a5
20015440:	fca42623          	sw	a0,-52(s0)
/home/nicoladgg/wsFreedomStudio/sifive_hifive1_revb_hello/freedom-metal/src/drivers/sifive_fe310-g000_pll.c:215
20015444:	fd042703          	lw	a4,-48(s0)
20015448:	67c1                	lui	a5,0x10
2001544a:	8f7d                	and	a4,a4,a5
2001544c:	67c1                	lui	a5,0x10
2001544e:	00f77863          	bgeu	a4,a5,2001545e <__metal_driver_sifive_fe310_g000_pll_get_rate_hz+0x90>
/home/nicoladgg/wsFreedomStudio/sifive_hifive1_revb_hello/freedom-metal/src/drivers/sifive_fe310-g000_pll.c:216
20015452:	fe842503          	lw	a0,-24(s0)
20015456:	756010ef          	jal	ra,20016bac <metal_clock_get_rate_hz>
2001545a:	87aa                	mv	a5,a0
2001545c:	a8e1                	j	20015534 <__metal_driver_sifive_fe310_g000_pll_get_rate_hz+0x166>
/home/nicoladgg/wsFreedomStudio/sifive_hifive1_revb_hello/freedom-metal/src/drivers/sifive_fe310-g000_pll.c:221
2001545e:	fd042703          	lw	a4,-48(s0)
20015462:	000207b7          	lui	a5,0x20
20015466:	8f7d                	and	a4,a4,a5
/home/nicoladgg/wsFreedomStudio/sifive_hifive1_revb_hello/freedom-metal/src/drivers/sifive_fe310-g000_pll.c:220
20015468:	000207b7          	lui	a5,0x20
2001546c:	00f76563          	bltu	a4,a5,20015476 <__metal_driver_sifive_fe310_g000_pll_get_rate_hz+0xa8>
/home/nicoladgg/wsFreedomStudio/sifive_hifive1_revb_hello/freedom-metal/src/drivers/sifive_fe310-g000_pll.c:220 (discriminator 1)
20015470:	fec42783          	lw	a5,-20(s0)
20015474:	a019                	j	2001547a <__metal_driver_sifive_fe310_g000_pll_get_rate_hz+0xac>
/home/nicoladgg/wsFreedomStudio/sifive_hifive1_revb_hello/freedom-metal/src/drivers/sifive_fe310-g000_pll.c:220 (discriminator 2)
20015476:	fe842783          	lw	a5,-24(s0)
/home/nicoladgg/wsFreedomStudio/sifive_hifive1_revb_hello/freedom-metal/src/drivers/sifive_fe310-g000_pll.c:220 (discriminator 4)
2001547a:	853e                	mv	a0,a5
2001547c:	730010ef          	jal	ra,20016bac <metal_clock_get_rate_hz>
20015480:	fca42423          	sw	a0,-56(s0)
/home/nicoladgg/wsFreedomStudio/sifive_hifive1_revb_hello/freedom-metal/src/drivers/sifive_fe310-g000_pll.c:225 (discriminator 4)
20015484:	fd042703          	lw	a4,-48(s0)
20015488:	000407b7          	lui	a5,0x40
2001548c:	8f7d                	and	a4,a4,a5
2001548e:	000407b7          	lui	a5,0x40
20015492:	00f76563          	bltu	a4,a5,2001549c <__metal_driver_sifive_fe310_g000_pll_get_rate_hz+0xce>
/home/nicoladgg/wsFreedomStudio/sifive_hifive1_revb_hello/freedom-metal/src/drivers/sifive_fe310-g000_pll.c:226
20015496:	fc842783          	lw	a5,-56(s0)
2001549a:	a869                	j	20015534 <__metal_driver_sifive_fe310_g000_pll_get_rate_hz+0x166>
/home/nicoladgg/wsFreedomStudio/sifive_hifive1_revb_hello/freedom-metal/src/drivers/sifive_fe310-g000_pll.c:229
2001549c:	fd042783          	lw	a5,-48(s0)
200154a0:	8b9d                	andi	a5,a5,7
200154a2:	0785                	addi	a5,a5,1
200154a4:	fcf42223          	sw	a5,-60(s0)
/home/nicoladgg/wsFreedomStudio/sifive_hifive1_revb_hello/freedom-metal/src/drivers/sifive_fe310-g000_pll.c:230
200154a8:	fd042783          	lw	a5,-48(s0)
200154ac:	3f07f793          	andi	a5,a5,1008
200154b0:	8391                	srli	a5,a5,0x4
200154b2:	0785                	addi	a5,a5,1
200154b4:	0786                	slli	a5,a5,0x1
200154b6:	fcf42023          	sw	a5,-64(s0)
/home/nicoladgg/wsFreedomStudio/sifive_hifive1_revb_hello/freedom-metal/src/drivers/sifive_fe310-g000_pll.c:231
200154ba:	fd042703          	lw	a4,-48(s0)
200154be:	6785                	lui	a5,0x1
200154c0:	c0078793          	addi	a5,a5,-1024 # c00 <__heap_size+0x400>
200154c4:	8f7d                	and	a4,a4,a5
200154c6:	3ff00793          	li	a5,1023
200154ca:	00e7e463          	bltu	a5,a4,200154d2 <__metal_driver_sifive_fe310_g000_pll_get_rate_hz+0x104>
/home/nicoladgg/wsFreedomStudio/sifive_hifive1_revb_hello/freedom-metal/src/drivers/sifive_fe310-g000_pll.c:232
200154ce:	57fd                	li	a5,-1
200154d0:	a095                	j	20015534 <__metal_driver_sifive_fe310_g000_pll_get_rate_hz+0x166>
/home/nicoladgg/wsFreedomStudio/sifive_hifive1_revb_hello/freedom-metal/src/drivers/sifive_fe310-g000_pll.c:233
200154d2:	fd042703          	lw	a4,-48(s0)
200154d6:	6785                	lui	a5,0x1
200154d8:	c0078793          	addi	a5,a5,-1024 # c00 <__heap_size+0x400>
200154dc:	8ff9                	and	a5,a5,a4
200154de:	83a9                	srli	a5,a5,0xa
200154e0:	4705                	li	a4,1
200154e2:	00f717b3          	sll	a5,a4,a5
200154e6:	faf42e23          	sw	a5,-68(s0)
/home/nicoladgg/wsFreedomStudio/sifive_hifive1_revb_hello/freedom-metal/src/drivers/sifive_fe310-g000_pll.c:238
200154ea:	fc842703          	lw	a4,-56(s0)
200154ee:	fc442783          	lw	a5,-60(s0)
200154f2:	02f74733          	div	a4,a4,a5
200154f6:	fc042783          	lw	a5,-64(s0)
200154fa:	02f70733          	mul	a4,a4,a5
200154fe:	fbc42783          	lw	a5,-68(s0)
20015502:	02f747b3          	div	a5,a4,a5
20015506:	faf42c23          	sw	a5,-72(s0)
/home/nicoladgg/wsFreedomStudio/sifive_hifive1_revb_hello/freedom-metal/src/drivers/sifive_fe310-g000_pll.c:239
2001550a:	fcc42783          	lw	a5,-52(s0)
2001550e:	1007f713          	andi	a4,a5,256
20015512:	0ff00793          	li	a5,255
20015516:	00e7f563          	bgeu	a5,a4,20015520 <__metal_driver_sifive_fe310_g000_pll_get_rate_hz+0x152>
/home/nicoladgg/wsFreedomStudio/sifive_hifive1_revb_hello/freedom-metal/src/drivers/sifive_fe310-g000_pll.c:240
2001551a:	fb842783          	lw	a5,-72(s0)
2001551e:	a819                	j	20015534 <__metal_driver_sifive_fe310_g000_pll_get_rate_hz+0x166>
/home/nicoladgg/wsFreedomStudio/sifive_hifive1_revb_hello/freedom-metal/src/drivers/sifive_fe310-g000_pll.c:242
20015520:	fb842703          	lw	a4,-72(s0)
20015524:	fcc42783          	lw	a5,-52(s0)
20015528:	03f7f793          	andi	a5,a5,63
2001552c:	0785                	addi	a5,a5,1
2001552e:	0786                	slli	a5,a5,0x1
20015530:	02f757b3          	divu	a5,a4,a5
/home/nicoladgg/wsFreedomStudio/sifive_hifive1_revb_hello/freedom-metal/src/drivers/sifive_fe310-g000_pll.c:243
20015534:	853e                	mv	a0,a5
20015536:	40f6                	lw	ra,92(sp)
20015538:	4466                	lw	s0,88(sp)
2001553a:	6125                	addi	sp,sp,96
2001553c:	8082                	ret

2001553e <find_closest_config>:
find_closest_config():
/home/nicoladgg/wsFreedomStudio/sifive_hifive1_revb_hello/freedom-metal/src/drivers/sifive_fe310-g000_pll.c:253
2001553e:	7139                	addi	sp,sp,-64
20015540:	de06                	sw	ra,60(sp)
20015542:	dc22                	sw	s0,56(sp)
20015544:	0080                	addi	s0,sp,64
20015546:	fca42623          	sw	a0,-52(s0)
2001554a:	fcb42423          	sw	a1,-56(s0)
/home/nicoladgg/wsFreedomStudio/sifive_hifive1_revb_hello/freedom-metal/src/drivers/sifive_fe310-g000_pll.c:254
2001554e:	57fd                	li	a5,-1
20015550:	fef42623          	sw	a5,-20(s0)
/home/nicoladgg/wsFreedomStudio/sifive_hifive1_revb_hello/freedom-metal/src/drivers/sifive_fe310-g000_pll.c:255
20015554:	800007b7          	lui	a5,0x80000
20015558:	fff7c793          	not	a5,a5
2001555c:	fef42423          	sw	a5,-24(s0)
/home/nicoladgg/wsFreedomStudio/sifive_hifive1_revb_hello/freedom-metal/src/drivers/sifive_fe310-g000_pll.c:259
20015560:	04300793          	li	a5,67
20015564:	fef42223          	sw	a5,-28(s0)
20015568:	a0b5                	j	200155d4 <find_closest_config+0x96>
/home/nicoladgg/wsFreedomStudio/sifive_hifive1_revb_hello/freedom-metal/src/drivers/sifive_fe310-g000_pll.c:261
2001556a:	fcc42683          	lw	a3,-52(s0)
2001556e:	fe442783          	lw	a5,-28(s0)
20015572:	00579713          	slli	a4,a5,0x5
20015576:	200107b7          	lui	a5,0x20010
2001557a:	65078793          	addi	a5,a5,1616 # 20010650 <pll_configs>
2001557e:	97ba                	add	a5,a5,a4
20015580:	85be                	mv	a1,a5
20015582:	8536                	mv	a0,a3
20015584:	d59ff0ef          	jal	ra,200152dc <get_pll_config_freq>
20015588:	fea42023          	sw	a0,-32(s0)
/home/nicoladgg/wsFreedomStudio/sifive_hifive1_revb_hello/freedom-metal/src/drivers/sifive_fe310-g000_pll.c:262
2001558c:	fe042703          	lw	a4,-32(s0)
20015590:	57fd                	li	a5,-1
20015592:	02f70c63          	beq	a4,a5,200155ca <find_closest_config+0x8c>
/home/nicoladgg/wsFreedomStudio/sifive_hifive1_revb_hello/freedom-metal/src/drivers/sifive_fe310-g000_pll.c:263
20015596:	fe042703          	lw	a4,-32(s0)
2001559a:	fc842783          	lw	a5,-56(s0)
2001559e:	8f1d                	sub	a4,a4,a5
200155a0:	41f75793          	srai	a5,a4,0x1f
200155a4:	8f3d                	xor	a4,a4,a5
200155a6:	40f707b3          	sub	a5,a4,a5
200155aa:	fcf42e23          	sw	a5,-36(s0)
/home/nicoladgg/wsFreedomStudio/sifive_hifive1_revb_hello/freedom-metal/src/drivers/sifive_fe310-g000_pll.c:265
200155ae:	fdc42703          	lw	a4,-36(s0)
200155b2:	fe842783          	lw	a5,-24(s0)
200155b6:	00f75a63          	bge	a4,a5,200155ca <find_closest_config+0x8c>
/home/nicoladgg/wsFreedomStudio/sifive_hifive1_revb_hello/freedom-metal/src/drivers/sifive_fe310-g000_pll.c:266
200155ba:	fe442783          	lw	a5,-28(s0)
200155be:	fef42623          	sw	a5,-20(s0)
/home/nicoladgg/wsFreedomStudio/sifive_hifive1_revb_hello/freedom-metal/src/drivers/sifive_fe310-g000_pll.c:267
200155c2:	fdc42783          	lw	a5,-36(s0)
200155c6:	fef42423          	sw	a5,-24(s0)
/home/nicoladgg/wsFreedomStudio/sifive_hifive1_revb_hello/freedom-metal/src/drivers/sifive_fe310-g000_pll.c:260
200155ca:	fe442783          	lw	a5,-28(s0)
200155ce:	17fd                	addi	a5,a5,-1
200155d0:	fef42223          	sw	a5,-28(s0)
/home/nicoladgg/wsFreedomStudio/sifive_hifive1_revb_hello/freedom-metal/src/drivers/sifive_fe310-g000_pll.c:259 (discriminator 1)
200155d4:	fe442783          	lw	a5,-28(s0)
200155d8:	f807d9e3          	bgez	a5,2001556a <find_closest_config+0x2c>
/home/nicoladgg/wsFreedomStudio/sifive_hifive1_revb_hello/freedom-metal/src/drivers/sifive_fe310-g000_pll.c:272
200155dc:	fec42783          	lw	a5,-20(s0)
/home/nicoladgg/wsFreedomStudio/sifive_hifive1_revb_hello/freedom-metal/src/drivers/sifive_fe310-g000_pll.c:273
200155e0:	853e                	mv	a0,a5
200155e2:	50f2                	lw	ra,60(sp)
200155e4:	5462                	lw	s0,56(sp)
200155e6:	6121                	addi	sp,sp,64
200155e8:	8082                	ret

200155ea <configure_pll>:
configure_pll():
/home/nicoladgg/wsFreedomStudio/sifive_hifive1_revb_hello/freedom-metal/src/drivers/sifive_fe310-g000_pll.c:290
200155ea:	7179                	addi	sp,sp,-48
200155ec:	d606                	sw	ra,44(sp)
200155ee:	d422                	sw	s0,40(sp)
200155f0:	1800                	addi	s0,sp,48
200155f2:	fca42e23          	sw	a0,-36(s0)
200155f6:	fcb42c23          	sw	a1,-40(s0)
200155fa:	fcc42a23          	sw	a2,-44(s0)
/home/nicoladgg/wsFreedomStudio/sifive_hifive1_revb_hello/freedom-metal/src/drivers/sifive_fe310-g000_pll.c:291
200155fe:	fdc42783          	lw	a5,-36(s0)
20015602:	439c                	lw	a5,0(a5)
20015604:	ff87f713          	andi	a4,a5,-8
20015608:	fdc42783          	lw	a5,-36(s0)
2001560c:	c398                	sw	a4,0(a5)
/home/nicoladgg/wsFreedomStudio/sifive_hifive1_revb_hello/freedom-metal/src/drivers/sifive_fe310-g000_pll.c:292
2001560e:	fdc42783          	lw	a5,-36(s0)
20015612:	4398                	lw	a4,0(a5)
20015614:	fd442783          	lw	a5,-44(s0)
20015618:	4b9c                	lw	a5,16(a5)
2001561a:	8b9d                	andi	a5,a5,7
2001561c:	8f5d                	or	a4,a4,a5
2001561e:	fdc42783          	lw	a5,-36(s0)
20015622:	c398                	sw	a4,0(a5)
/home/nicoladgg/wsFreedomStudio/sifive_hifive1_revb_hello/freedom-metal/src/drivers/sifive_fe310-g000_pll.c:294
20015624:	fdc42783          	lw	a5,-36(s0)
20015628:	439c                	lw	a5,0(a5)
2001562a:	c0f7f713          	andi	a4,a5,-1009
2001562e:	fdc42783          	lw	a5,-36(s0)
20015632:	c398                	sw	a4,0(a5)
/home/nicoladgg/wsFreedomStudio/sifive_hifive1_revb_hello/freedom-metal/src/drivers/sifive_fe310-g000_pll.c:295
20015634:	fdc42783          	lw	a5,-36(s0)
20015638:	4398                	lw	a4,0(a5)
2001563a:	fd442783          	lw	a5,-44(s0)
2001563e:	4bdc                	lw	a5,20(a5)
20015640:	0792                	slli	a5,a5,0x4
20015642:	3f07f793          	andi	a5,a5,1008
20015646:	8f5d                	or	a4,a4,a5
20015648:	fdc42783          	lw	a5,-36(s0)
2001564c:	c398                	sw	a4,0(a5)
/home/nicoladgg/wsFreedomStudio/sifive_hifive1_revb_hello/freedom-metal/src/drivers/sifive_fe310-g000_pll.c:297
2001564e:	fdc42783          	lw	a5,-36(s0)
20015652:	4398                	lw	a4,0(a5)
20015654:	77fd                	lui	a5,0xfffff
20015656:	3ff78793          	addi	a5,a5,1023 # fffff3ff <metal_segment_heap_target_end+0x7fffdc7f>
2001565a:	8f7d                	and	a4,a4,a5
2001565c:	fdc42783          	lw	a5,-36(s0)
20015660:	c398                	sw	a4,0(a5)
/home/nicoladgg/wsFreedomStudio/sifive_hifive1_revb_hello/freedom-metal/src/drivers/sifive_fe310-g000_pll.c:298
20015662:	fdc42783          	lw	a5,-36(s0)
20015666:	4398                	lw	a4,0(a5)
20015668:	fd442783          	lw	a5,-44(s0)
2001566c:	4f9c                	lw	a5,24(a5)
2001566e:	00a79693          	slli	a3,a5,0xa
20015672:	6785                	lui	a5,0x1
20015674:	c0078793          	addi	a5,a5,-1024 # c00 <__heap_size+0x400>
20015678:	8ff5                	and	a5,a5,a3
2001567a:	8f5d                	or	a4,a4,a5
2001567c:	fdc42783          	lw	a5,-36(s0)
20015680:	c398                	sw	a4,0(a5)
/home/nicoladgg/wsFreedomStudio/sifive_hifive1_revb_hello/freedom-metal/src/drivers/sifive_fe310-g000_pll.c:300
20015682:	fd442783          	lw	a5,-44(s0)
20015686:	4fdc                	lw	a5,28(a5)
20015688:	0207db63          	bgez	a5,200156be <configure_pll+0xd4>
/home/nicoladgg/wsFreedomStudio/sifive_hifive1_revb_hello/freedom-metal/src/drivers/sifive_fe310-g000_pll.c:302
2001568c:	fd842783          	lw	a5,-40(s0)
20015690:	439c                	lw	a5,0(a5)
20015692:	1007e713          	ori	a4,a5,256
20015696:	fd842783          	lw	a5,-40(s0)
2001569a:	c398                	sw	a4,0(a5)
/home/nicoladgg/wsFreedomStudio/sifive_hifive1_revb_hello/freedom-metal/src/drivers/sifive_fe310-g000_pll.c:304
2001569c:	fd842783          	lw	a5,-40(s0)
200156a0:	439c                	lw	a5,0(a5)
200156a2:	fc07f713          	andi	a4,a5,-64
200156a6:	fd842783          	lw	a5,-40(s0)
200156aa:	c398                	sw	a4,0(a5)
/home/nicoladgg/wsFreedomStudio/sifive_hifive1_revb_hello/freedom-metal/src/drivers/sifive_fe310-g000_pll.c:305
200156ac:	fd842783          	lw	a5,-40(s0)
200156b0:	439c                	lw	a5,0(a5)
200156b2:	0017e713          	ori	a4,a5,1
200156b6:	fd842783          	lw	a5,-40(s0)
200156ba:	c398                	sw	a4,0(a5)
200156bc:	a82d                	j	200156f6 <configure_pll+0x10c>
/home/nicoladgg/wsFreedomStudio/sifive_hifive1_revb_hello/freedom-metal/src/drivers/sifive_fe310-g000_pll.c:307
200156be:	fd842783          	lw	a5,-40(s0)
200156c2:	439c                	lw	a5,0(a5)
200156c4:	eff7f713          	andi	a4,a5,-257
200156c8:	fd842783          	lw	a5,-40(s0)
200156cc:	c398                	sw	a4,0(a5)
/home/nicoladgg/wsFreedomStudio/sifive_hifive1_revb_hello/freedom-metal/src/drivers/sifive_fe310-g000_pll.c:309
200156ce:	fd842783          	lw	a5,-40(s0)
200156d2:	439c                	lw	a5,0(a5)
200156d4:	fc07f713          	andi	a4,a5,-64
200156d8:	fd842783          	lw	a5,-40(s0)
200156dc:	c398                	sw	a4,0(a5)
/home/nicoladgg/wsFreedomStudio/sifive_hifive1_revb_hello/freedom-metal/src/drivers/sifive_fe310-g000_pll.c:310
200156de:	fd842783          	lw	a5,-40(s0)
200156e2:	4398                	lw	a4,0(a5)
200156e4:	fd442783          	lw	a5,-44(s0)
200156e8:	4fdc                	lw	a5,28(a5)
200156ea:	03f7f793          	andi	a5,a5,63
200156ee:	8f5d                	or	a4,a4,a5
200156f0:	fd842783          	lw	a5,-40(s0)
200156f4:	c398                	sw	a4,0(a5)
/home/nicoladgg/wsFreedomStudio/sifive_hifive1_revb_hello/freedom-metal/src/drivers/sifive_fe310-g000_pll.c:313
200156f6:	fdc42783          	lw	a5,-36(s0)
200156fa:	4398                	lw	a4,0(a5)
200156fc:	fffc07b7          	lui	a5,0xfffc0
20015700:	17fd                	addi	a5,a5,-1
20015702:	8f7d                	and	a4,a4,a5
20015704:	fdc42783          	lw	a5,-36(s0)
20015708:	c398                	sw	a4,0(a5)
/home/nicoladgg/wsFreedomStudio/sifive_hifive1_revb_hello/freedom-metal/src/drivers/sifive_fe310-g000_pll.c:318
2001570a:	fe040793          	addi	a5,s0,-32
2001570e:	863e                	mv	a2,a5
20015710:	4585                	li	a1,1
20015712:	800017b7          	lui	a5,0x80001
20015716:	aac78513          	addi	a0,a5,-1364 # 80000aac <metal_segment_heap_target_end+0xfffff32c>
2001571a:	cb2fd0ef          	jal	ra,20012bcc <__metal_driver_riscv_clint0_command_request>
/home/nicoladgg/wsFreedomStudio/sifive_hifive1_revb_hello/freedom-metal/src/drivers/sifive_fe310-g000_pll.c:320
2001571e:	fe042603          	lw	a2,-32(s0)
20015722:	fe442683          	lw	a3,-28(s0)
20015726:	4511                	li	a0,4
20015728:	4581                	li	a1,0
2001572a:	00a60733          	add	a4,a2,a0
2001572e:	883a                	mv	a6,a4
20015730:	00c83833          	sltu	a6,a6,a2
20015734:	00b687b3          	add	a5,a3,a1
20015738:	00f806b3          	add	a3,a6,a5
2001573c:	87b6                	mv	a5,a3
2001573e:	fee42423          	sw	a4,-24(s0)
20015742:	fef42623          	sw	a5,-20(s0)
/home/nicoladgg/wsFreedomStudio/sifive_hifive1_revb_hello/freedom-metal/src/drivers/sifive_fe310-g000_pll.c:321
20015746:	a819                	j	2001575c <configure_pll+0x172>
/home/nicoladgg/wsFreedomStudio/sifive_hifive1_revb_hello/freedom-metal/src/drivers/sifive_fe310-g000_pll.c:322
20015748:	fe040793          	addi	a5,s0,-32
2001574c:	863e                	mv	a2,a5
2001574e:	4585                	li	a1,1
20015750:	800017b7          	lui	a5,0x80001
20015754:	aac78513          	addi	a0,a5,-1364 # 80000aac <metal_segment_heap_target_end+0xfffff32c>
20015758:	c74fd0ef          	jal	ra,20012bcc <__metal_driver_riscv_clint0_command_request>
/home/nicoladgg/wsFreedomStudio/sifive_hifive1_revb_hello/freedom-metal/src/drivers/sifive_fe310-g000_pll.c:321
2001575c:	fe042703          	lw	a4,-32(s0)
20015760:	fe442783          	lw	a5,-28(s0)
20015764:	fec42683          	lw	a3,-20(s0)
20015768:	863e                	mv	a2,a5
2001576a:	00c6ec63          	bltu	a3,a2,20015782 <configure_pll+0x198>
2001576e:	fec42683          	lw	a3,-20(s0)
20015772:	863e                	mv	a2,a5
20015774:	fcc69ae3          	bne	a3,a2,20015748 <configure_pll+0x15e>
20015778:	fe842683          	lw	a3,-24(s0)
2001577c:	87ba                	mv	a5,a4
2001577e:	fcf6f5e3          	bgeu	a3,a5,20015748 <configure_pll+0x15e>
/home/nicoladgg/wsFreedomStudio/sifive_hifive1_revb_hello/freedom-metal/src/drivers/sifive_fe310-g000_pll.c:340
20015782:	0001                	nop
/home/nicoladgg/wsFreedomStudio/sifive_hifive1_revb_hello/freedom-metal/src/drivers/sifive_fe310-g000_pll.c:340 (discriminator 1)
20015784:	fdc42783          	lw	a5,-36(s0)
20015788:	439c                	lw	a5,0(a5)
2001578a:	fe07dde3          	bgez	a5,20015784 <configure_pll+0x19a>
/home/nicoladgg/wsFreedomStudio/sifive_hifive1_revb_hello/freedom-metal/src/drivers/sifive_fe310-g000_pll.c:342
2001578e:	0001                	nop
20015790:	0001                	nop
20015792:	50b2                	lw	ra,44(sp)
20015794:	5422                	lw	s0,40(sp)
20015796:	6145                	addi	sp,sp,48
20015798:	8082                	ret

2001579a <__metal_driver_sifive_fe310_g000_pll_set_rate_hz>:
__metal_driver_sifive_fe310_g000_pll_set_rate_hz():
/home/nicoladgg/wsFreedomStudio/sifive_hifive1_revb_hello/freedom-metal/src/drivers/sifive_fe310-g000_pll.c:345
2001579a:	715d                	addi	sp,sp,-80
2001579c:	c686                	sw	ra,76(sp)
2001579e:	c4a2                	sw	s0,72(sp)
200157a0:	0880                	addi	s0,sp,80
200157a2:	faa42e23          	sw	a0,-68(s0)
200157a6:	fab42c23          	sw	a1,-72(s0)
/home/nicoladgg/wsFreedomStudio/sifive_hifive1_revb_hello/freedom-metal/src/drivers/sifive_fe310-g000_pll.c:347
200157aa:	fbc42503          	lw	a0,-68(s0)
200157ae:	a8bff0ef          	jal	ra,20015238 <__metal_driver_sifive_fe310_g000_pll_pllref>
200157b2:	fea42623          	sw	a0,-20(s0)
/home/nicoladgg/wsFreedomStudio/sifive_hifive1_revb_hello/freedom-metal/src/drivers/sifive_fe310-g000_pll.c:349
200157b6:	fbc42503          	lw	a0,-68(s0)
200157ba:	a65ff0ef          	jal	ra,2001521e <__metal_driver_sifive_fe310_g000_pll_pllsel0>
200157be:	fea42423          	sw	a0,-24(s0)
/home/nicoladgg/wsFreedomStudio/sifive_hifive1_revb_hello/freedom-metal/src/drivers/sifive_fe310-g000_pll.c:351
200157c2:	fbc42503          	lw	a0,-68(s0)
200157c6:	ac9ff0ef          	jal	ra,2001528e <__metal_driver_sifive_fe310_g000_pll_config_offset>
200157ca:	fea42223          	sw	a0,-28(s0)
/home/nicoladgg/wsFreedomStudio/sifive_hifive1_revb_hello/freedom-metal/src/drivers/sifive_fe310-g000_pll.c:353
200157ce:	fbc42503          	lw	a0,-68(s0)
200157d2:	a97ff0ef          	jal	ra,20015268 <__metal_driver_sifive_fe310_g000_pll_divider_offset>
200157d6:	fea42023          	sw	a0,-32(s0)
/home/nicoladgg/wsFreedomStudio/sifive_hifive1_revb_hello/freedom-metal/src/drivers/sifive_fe310-g000_pll.c:354
200157da:	adbff0ef          	jal	ra,200152b4 <__metal_driver_sifive_fe310_g000_prci_base>
200157de:	fca42e23          	sw	a0,-36(s0)
/home/nicoladgg/wsFreedomStudio/sifive_hifive1_revb_hello/freedom-metal/src/drivers/sifive_fe310-g000_pll.c:356
200157e2:	fdc42703          	lw	a4,-36(s0)
200157e6:	fe442783          	lw	a5,-28(s0)
200157ea:	97ba                	add	a5,a5,a4
200157ec:	fcf42c23          	sw	a5,-40(s0)
/home/nicoladgg/wsFreedomStudio/sifive_hifive1_revb_hello/freedom-metal/src/drivers/sifive_fe310-g000_pll.c:357
200157f0:	fdc42703          	lw	a4,-36(s0)
200157f4:	fe042783          	lw	a5,-32(s0)
200157f8:	97ba                	add	a5,a5,a4
200157fa:	fcf42a23          	sw	a5,-44(s0)
/home/nicoladgg/wsFreedomStudio/sifive_hifive1_revb_hello/freedom-metal/src/drivers/sifive_fe310-g000_pll.c:360
200157fe:	fd842783          	lw	a5,-40(s0)
20015802:	4398                	lw	a4,0(a5)
20015804:	67c1                	lui	a5,0x10
20015806:	8ff9                	and	a5,a5,a4
20015808:	cb91                	beqz	a5,2001581c <__metal_driver_sifive_fe310_g000_pll_set_rate_hz+0x82>
/home/nicoladgg/wsFreedomStudio/sifive_hifive1_revb_hello/freedom-metal/src/drivers/sifive_fe310-g000_pll.c:361
2001580a:	fd842783          	lw	a5,-40(s0)
2001580e:	4398                	lw	a4,0(a5)
20015810:	77c1                	lui	a5,0xffff0
20015812:	17fd                	addi	a5,a5,-1
20015814:	8f7d                	and	a4,a4,a5
20015816:	fd842783          	lw	a5,-40(s0)
2001581a:	c398                	sw	a4,0(a5)
/home/nicoladgg/wsFreedomStudio/sifive_hifive1_revb_hello/freedom-metal/src/drivers/sifive_fe310-g000_pll.c:366
2001581c:	fd842783          	lw	a5,-40(s0)
20015820:	4398                	lw	a4,0(a5)
20015822:	000207b7          	lui	a5,0x20
20015826:	8ff9                	and	a5,a5,a4
/home/nicoladgg/wsFreedomStudio/sifive_hifive1_revb_hello/freedom-metal/src/drivers/sifive_fe310-g000_pll.c:365
20015828:	c781                	beqz	a5,20015830 <__metal_driver_sifive_fe310_g000_pll_set_rate_hz+0x96>
/home/nicoladgg/wsFreedomStudio/sifive_hifive1_revb_hello/freedom-metal/src/drivers/sifive_fe310-g000_pll.c:365 (discriminator 1)
2001582a:	fec42783          	lw	a5,-20(s0)
2001582e:	a019                	j	20015834 <__metal_driver_sifive_fe310_g000_pll_set_rate_hz+0x9a>
/home/nicoladgg/wsFreedomStudio/sifive_hifive1_revb_hello/freedom-metal/src/drivers/sifive_fe310-g000_pll.c:365 (discriminator 2)
20015830:	fe842783          	lw	a5,-24(s0)
/home/nicoladgg/wsFreedomStudio/sifive_hifive1_revb_hello/freedom-metal/src/drivers/sifive_fe310-g000_pll.c:365 (discriminator 4)
20015834:	853e                	mv	a0,a5
20015836:	376010ef          	jal	ra,20016bac <metal_clock_get_rate_hz>
2001583a:	fca42823          	sw	a0,-48(s0)
/home/nicoladgg/wsFreedomStudio/sifive_hifive1_revb_hello/freedom-metal/src/drivers/sifive_fe310-g000_pll.c:370 (discriminator 4)
2001583e:	fd042703          	lw	a4,-48(s0)
20015842:	87ba                	mv	a5,a4
20015844:	0786                	slli	a5,a5,0x1
20015846:	97ba                	add	a5,a5,a4
20015848:	41f7d713          	srai	a4,a5,0x1f
2001584c:	8b0d                	andi	a4,a4,3
2001584e:	97ba                	add	a5,a5,a4
20015850:	8789                	srai	a5,a5,0x2
20015852:	873e                	mv	a4,a5
20015854:	fb842783          	lw	a5,-72(s0)
20015858:	02e7cb63          	blt	a5,a4,2001588e <__metal_driver_sifive_fe310_g000_pll_set_rate_hz+0xf4>
/home/nicoladgg/wsFreedomStudio/sifive_hifive1_revb_hello/freedom-metal/src/drivers/sifive_fe310-g000_pll.c:370 (discriminator 1)
2001585c:	fd042703          	lw	a4,-48(s0)
20015860:	87ba                	mv	a5,a4
20015862:	078a                	slli	a5,a5,0x2
20015864:	97ba                	add	a5,a5,a4
20015866:	41f7d713          	srai	a4,a5,0x1f
2001586a:	8b0d                	andi	a4,a4,3
2001586c:	97ba                	add	a5,a5,a4
2001586e:	8789                	srai	a5,a5,0x2
20015870:	873e                	mv	a4,a5
20015872:	fb842783          	lw	a5,-72(s0)
20015876:	00f74c63          	blt	a4,a5,2001588e <__metal_driver_sifive_fe310_g000_pll_set_rate_hz+0xf4>
/home/nicoladgg/wsFreedomStudio/sifive_hifive1_revb_hello/freedom-metal/src/drivers/sifive_fe310-g000_pll.c:371
2001587a:	fd842783          	lw	a5,-40(s0)
2001587e:	4398                	lw	a4,0(a5)
20015880:	000407b7          	lui	a5,0x40
20015884:	8f5d                	or	a4,a4,a5
20015886:	fd842783          	lw	a5,-40(s0)
2001588a:	c398                	sw	a4,0(a5)
2001588c:	a881                	j	200158dc <__metal_driver_sifive_fe310_g000_pll_set_rate_hz+0x142>
/home/nicoladgg/wsFreedomStudio/sifive_hifive1_revb_hello/freedom-metal/src/drivers/sifive_fe310-g000_pll.c:373
2001588e:	fb842583          	lw	a1,-72(s0)
20015892:	fd042503          	lw	a0,-48(s0)
20015896:	ca9ff0ef          	jal	ra,2001553e <find_closest_config>
2001589a:	fca42623          	sw	a0,-52(s0)
/home/nicoladgg/wsFreedomStudio/sifive_hifive1_revb_hello/freedom-metal/src/drivers/sifive_fe310-g000_pll.c:374
2001589e:	fcc42703          	lw	a4,-52(s0)
200158a2:	57fd                	li	a5,-1
200158a4:	02f70363          	beq	a4,a5,200158ca <__metal_driver_sifive_fe310_g000_pll_set_rate_hz+0x130>
/home/nicoladgg/wsFreedomStudio/sifive_hifive1_revb_hello/freedom-metal/src/drivers/sifive_fe310-g000_pll.c:375
200158a8:	fcc42783          	lw	a5,-52(s0)
200158ac:	00579713          	slli	a4,a5,0x5
200158b0:	200107b7          	lui	a5,0x20010
200158b4:	65078793          	addi	a5,a5,1616 # 20010650 <pll_configs>
200158b8:	97ba                	add	a5,a5,a4
200158ba:	863e                	mv	a2,a5
200158bc:	fd442583          	lw	a1,-44(s0)
200158c0:	fd842503          	lw	a0,-40(s0)
200158c4:	d27ff0ef          	jal	ra,200155ea <configure_pll>
200158c8:	a811                	j	200158dc <__metal_driver_sifive_fe310_g000_pll_set_rate_hz+0x142>
/home/nicoladgg/wsFreedomStudio/sifive_hifive1_revb_hello/freedom-metal/src/drivers/sifive_fe310-g000_pll.c:378
200158ca:	fd842783          	lw	a5,-40(s0)
200158ce:	4398                	lw	a4,0(a5)
200158d0:	000407b7          	lui	a5,0x40
200158d4:	8f5d                	or	a4,a4,a5
200158d6:	fd842783          	lw	a5,-40(s0)
200158da:	c398                	sw	a4,0(a5)
/home/nicoladgg/wsFreedomStudio/sifive_hifive1_revb_hello/freedom-metal/src/drivers/sifive_fe310-g000_pll.c:383
200158dc:	fd842783          	lw	a5,-40(s0)
200158e0:	4398                	lw	a4,0(a5)
200158e2:	67c1                	lui	a5,0x10
200158e4:	8f5d                	or	a4,a4,a5
200158e6:	fd842783          	lw	a5,-40(s0)
200158ea:	c398                	sw	a4,0(a5)
/home/nicoladgg/wsFreedomStudio/sifive_hifive1_revb_hello/freedom-metal/src/drivers/sifive_fe310-g000_pll.c:385
200158ec:	fbc42503          	lw	a0,-68(s0)
200158f0:	adfff0ef          	jal	ra,200153ce <__metal_driver_sifive_fe310_g000_pll_get_rate_hz>
200158f4:	87aa                	mv	a5,a0
/home/nicoladgg/wsFreedomStudio/sifive_hifive1_revb_hello/freedom-metal/src/drivers/sifive_fe310-g000_pll.c:386
200158f6:	853e                	mv	a0,a5
200158f8:	40b6                	lw	ra,76(sp)
200158fa:	4426                	lw	s0,72(sp)
200158fc:	6161                	addi	sp,sp,80
200158fe:	8082                	ret

20015900 <__metal_driver_sifive_fe310_g000_prci_base>:
__metal_driver_sifive_fe310_g000_prci_base():
/home/nicoladgg/wsFreedomStudio/sifive_hifive1_revb_hello/bsp/build/debug/./metal/machine.h:1364
20015900:	1141                	addi	sp,sp,-16
20015902:	c622                	sw	s0,12(sp)
20015904:	0800                	addi	s0,sp,16
/home/nicoladgg/wsFreedomStudio/sifive_hifive1_revb_hello/bsp/build/debug/./metal/machine.h:1365
20015906:	100087b7          	lui	a5,0x10008
/home/nicoladgg/wsFreedomStudio/sifive_hifive1_revb_hello/bsp/build/debug/./metal/machine.h:1366
2001590a:	853e                	mv	a0,a5
2001590c:	4432                	lw	s0,12(sp)
2001590e:	0141                	addi	sp,sp,16
20015910:	8082                	ret

20015912 <__metal_driver_sifive_fe310_g000_prci_get_reg>:
__metal_driver_sifive_fe310_g000_prci_get_reg():
/home/nicoladgg/wsFreedomStudio/sifive_hifive1_revb_hello/freedom-metal/src/drivers/sifive_fe310-g000_prci.c:12
20015912:	7179                	addi	sp,sp,-48
20015914:	d606                	sw	ra,44(sp)
20015916:	d422                	sw	s0,40(sp)
20015918:	1800                	addi	s0,sp,48
2001591a:	fca42e23          	sw	a0,-36(s0)
2001591e:	fcb42c23          	sw	a1,-40(s0)
/home/nicoladgg/wsFreedomStudio/sifive_hifive1_revb_hello/freedom-metal/src/drivers/sifive_fe310-g000_prci.c:13
20015922:	3ff9                	jal	20015900 <__metal_driver_sifive_fe310_g000_prci_base>
20015924:	87aa                	mv	a5,a0
20015926:	fef42623          	sw	a5,-20(s0)
/home/nicoladgg/wsFreedomStudio/sifive_hifive1_revb_hello/freedom-metal/src/drivers/sifive_fe310-g000_prci.c:14
2001592a:	fd842703          	lw	a4,-40(s0)
2001592e:	fec42783          	lw	a5,-20(s0)
20015932:	97ba                	add	a5,a5,a4
20015934:	439c                	lw	a5,0(a5)
/home/nicoladgg/wsFreedomStudio/sifive_hifive1_revb_hello/freedom-metal/src/drivers/sifive_fe310-g000_prci.c:15
20015936:	853e                	mv	a0,a5
20015938:	50b2                	lw	ra,44(sp)
2001593a:	5422                	lw	s0,40(sp)
2001593c:	6145                	addi	sp,sp,48
2001593e:	8082                	ret

20015940 <__metal_driver_sifive_fe310_g000_prci_set_reg>:
__metal_driver_sifive_fe310_g000_prci_set_reg():
/home/nicoladgg/wsFreedomStudio/sifive_hifive1_revb_hello/freedom-metal/src/drivers/sifive_fe310-g000_prci.c:19
20015940:	7179                	addi	sp,sp,-48
20015942:	d606                	sw	ra,44(sp)
20015944:	d422                	sw	s0,40(sp)
20015946:	1800                	addi	s0,sp,48
20015948:	fca42e23          	sw	a0,-36(s0)
2001594c:	fcb42c23          	sw	a1,-40(s0)
20015950:	fcc42a23          	sw	a2,-44(s0)
/home/nicoladgg/wsFreedomStudio/sifive_hifive1_revb_hello/freedom-metal/src/drivers/sifive_fe310-g000_prci.c:20
20015954:	3775                	jal	20015900 <__metal_driver_sifive_fe310_g000_prci_base>
20015956:	87aa                	mv	a5,a0
20015958:	fef42623          	sw	a5,-20(s0)
/home/nicoladgg/wsFreedomStudio/sifive_hifive1_revb_hello/freedom-metal/src/drivers/sifive_fe310-g000_prci.c:21
2001595c:	fd842703          	lw	a4,-40(s0)
20015960:	fec42783          	lw	a5,-20(s0)
20015964:	97ba                	add	a5,a5,a4
20015966:	873e                	mv	a4,a5
20015968:	fd442783          	lw	a5,-44(s0)
2001596c:	c31c                	sw	a5,0(a4)
/home/nicoladgg/wsFreedomStudio/sifive_hifive1_revb_hello/freedom-metal/src/drivers/sifive_fe310-g000_prci.c:22
2001596e:	853e                	mv	a0,a5
20015970:	50b2                	lw	ra,44(sp)
20015972:	5422                	lw	s0,40(sp)
20015974:	6145                	addi	sp,sp,48
20015976:	8082                	ret

20015978 <__metal_driver_sifive_gpio0_base>:
__metal_driver_sifive_gpio0_base():
/home/nicoladgg/wsFreedomStudio/sifive_hifive1_revb_hello/bsp/build/debug/./metal/machine.h:430
20015978:	1101                	addi	sp,sp,-32
2001597a:	ce22                	sw	s0,28(sp)
2001597c:	1000                	addi	s0,sp,32
2001597e:	fea42623          	sw	a0,-20(s0)
/home/nicoladgg/wsFreedomStudio/sifive_hifive1_revb_hello/bsp/build/debug/./metal/machine.h:431
20015982:	fec42703          	lw	a4,-20(s0)
20015986:	81c18793          	addi	a5,gp,-2020 # 80000abc <__metal_dt_gpio_10012000>
2001598a:	00f71563          	bne	a4,a5,20015994 <__metal_driver_sifive_gpio0_base+0x1c>
/home/nicoladgg/wsFreedomStudio/sifive_hifive1_revb_hello/bsp/build/debug/./metal/machine.h:432
2001598e:	100127b7          	lui	a5,0x10012
20015992:	a011                	j	20015996 <__metal_driver_sifive_gpio0_base+0x1e>
/home/nicoladgg/wsFreedomStudio/sifive_hifive1_revb_hello/bsp/build/debug/./metal/machine.h:435
20015994:	4781                	li	a5,0
/home/nicoladgg/wsFreedomStudio/sifive_hifive1_revb_hello/bsp/build/debug/./metal/machine.h:437
20015996:	853e                	mv	a0,a5
20015998:	4472                	lw	s0,28(sp)
2001599a:	6105                	addi	sp,sp,32
2001599c:	8082                	ret

2001599e <__metal_driver_sifive_gpio0_interrupt_parent>:
__metal_driver_sifive_gpio0_interrupt_parent():
/home/nicoladgg/wsFreedomStudio/sifive_hifive1_revb_hello/bsp/build/debug/./metal/machine.h:460
2001599e:	1101                	addi	sp,sp,-32
200159a0:	ce22                	sw	s0,28(sp)
200159a2:	1000                	addi	s0,sp,32
200159a4:	fea42623          	sw	a0,-20(s0)
/home/nicoladgg/wsFreedomStudio/sifive_hifive1_revb_hello/bsp/build/debug/./metal/machine.h:461
200159a8:	fec42703          	lw	a4,-20(s0)
200159ac:	81c18793          	addi	a5,gp,-2020 # 80000abc <__metal_dt_gpio_10012000>
200159b0:	00f71763          	bne	a4,a5,200159be <__metal_driver_sifive_gpio0_interrupt_parent+0x20>
/home/nicoladgg/wsFreedomStudio/sifive_hifive1_revb_hello/bsp/build/debug/./metal/machine.h:462
200159b4:	800007b7          	lui	a5,0x80000
200159b8:	46078793          	addi	a5,a5,1120 # 80000460 <metal_segment_heap_target_end+0xffffece0>
200159bc:	a011                	j	200159c0 <__metal_driver_sifive_gpio0_interrupt_parent+0x22>
/home/nicoladgg/wsFreedomStudio/sifive_hifive1_revb_hello/bsp/build/debug/./metal/machine.h:465
200159be:	4781                	li	a5,0
/home/nicoladgg/wsFreedomStudio/sifive_hifive1_revb_hello/bsp/build/debug/./metal/machine.h:467
200159c0:	853e                	mv	a0,a5
200159c2:	4472                	lw	s0,28(sp)
200159c4:	6105                	addi	sp,sp,32
200159c6:	8082                	ret

200159c8 <__metal_driver_sifive_gpio0_interrupt_lines>:
__metal_driver_sifive_gpio0_interrupt_lines():
/home/nicoladgg/wsFreedomStudio/sifive_hifive1_revb_hello/bsp/build/debug/./metal/machine.h:470
200159c8:	1101                	addi	sp,sp,-32
200159ca:	ce22                	sw	s0,28(sp)
200159cc:	1000                	addi	s0,sp,32
200159ce:	fea42623          	sw	a0,-20(s0)
200159d2:	feb42423          	sw	a1,-24(s0)
/home/nicoladgg/wsFreedomStudio/sifive_hifive1_revb_hello/bsp/build/debug/./metal/machine.h:471
200159d6:	fec42703          	lw	a4,-20(s0)
200159da:	81c18793          	addi	a5,gp,-2020 # 80000abc <__metal_dt_gpio_10012000>
200159de:	00f71763          	bne	a4,a5,200159ec <__metal_driver_sifive_gpio0_interrupt_lines+0x24>
/home/nicoladgg/wsFreedomStudio/sifive_hifive1_revb_hello/bsp/build/debug/./metal/machine.h:471 (discriminator 1)
200159e2:	fe842783          	lw	a5,-24(s0)
200159e6:	e399                	bnez	a5,200159ec <__metal_driver_sifive_gpio0_interrupt_lines+0x24>
/home/nicoladgg/wsFreedomStudio/sifive_hifive1_revb_hello/bsp/build/debug/./metal/machine.h:472
200159e8:	47a1                	li	a5,8
200159ea:	ae15                	j	20015d1e <__metal_driver_sifive_gpio0_interrupt_lines+0x356>
/home/nicoladgg/wsFreedomStudio/sifive_hifive1_revb_hello/bsp/build/debug/./metal/machine.h:474
200159ec:	fec42703          	lw	a4,-20(s0)
200159f0:	81c18793          	addi	a5,gp,-2020 # 80000abc <__metal_dt_gpio_10012000>
200159f4:	00f71963          	bne	a4,a5,20015a06 <__metal_driver_sifive_gpio0_interrupt_lines+0x3e>
/home/nicoladgg/wsFreedomStudio/sifive_hifive1_revb_hello/bsp/build/debug/./metal/machine.h:474 (discriminator 1)
200159f8:	fe842703          	lw	a4,-24(s0)
200159fc:	4785                	li	a5,1
200159fe:	00f71463          	bne	a4,a5,20015a06 <__metal_driver_sifive_gpio0_interrupt_lines+0x3e>
/home/nicoladgg/wsFreedomStudio/sifive_hifive1_revb_hello/bsp/build/debug/./metal/machine.h:475
20015a02:	47a5                	li	a5,9
20015a04:	ae29                	j	20015d1e <__metal_driver_sifive_gpio0_interrupt_lines+0x356>
/home/nicoladgg/wsFreedomStudio/sifive_hifive1_revb_hello/bsp/build/debug/./metal/machine.h:477
20015a06:	fec42703          	lw	a4,-20(s0)
20015a0a:	81c18793          	addi	a5,gp,-2020 # 80000abc <__metal_dt_gpio_10012000>
20015a0e:	00f71963          	bne	a4,a5,20015a20 <__metal_driver_sifive_gpio0_interrupt_lines+0x58>
/home/nicoladgg/wsFreedomStudio/sifive_hifive1_revb_hello/bsp/build/debug/./metal/machine.h:477 (discriminator 1)
20015a12:	fe842703          	lw	a4,-24(s0)
20015a16:	4789                	li	a5,2
20015a18:	00f71463          	bne	a4,a5,20015a20 <__metal_driver_sifive_gpio0_interrupt_lines+0x58>
/home/nicoladgg/wsFreedomStudio/sifive_hifive1_revb_hello/bsp/build/debug/./metal/machine.h:478
20015a1c:	47a9                	li	a5,10
20015a1e:	a601                	j	20015d1e <__metal_driver_sifive_gpio0_interrupt_lines+0x356>
/home/nicoladgg/wsFreedomStudio/sifive_hifive1_revb_hello/bsp/build/debug/./metal/machine.h:480
20015a20:	fec42703          	lw	a4,-20(s0)
20015a24:	81c18793          	addi	a5,gp,-2020 # 80000abc <__metal_dt_gpio_10012000>
20015a28:	00f71963          	bne	a4,a5,20015a3a <__metal_driver_sifive_gpio0_interrupt_lines+0x72>
/home/nicoladgg/wsFreedomStudio/sifive_hifive1_revb_hello/bsp/build/debug/./metal/machine.h:480 (discriminator 1)
20015a2c:	fe842703          	lw	a4,-24(s0)
20015a30:	478d                	li	a5,3
20015a32:	00f71463          	bne	a4,a5,20015a3a <__metal_driver_sifive_gpio0_interrupt_lines+0x72>
/home/nicoladgg/wsFreedomStudio/sifive_hifive1_revb_hello/bsp/build/debug/./metal/machine.h:481
20015a36:	47ad                	li	a5,11
20015a38:	a4dd                	j	20015d1e <__metal_driver_sifive_gpio0_interrupt_lines+0x356>
/home/nicoladgg/wsFreedomStudio/sifive_hifive1_revb_hello/bsp/build/debug/./metal/machine.h:483
20015a3a:	fec42703          	lw	a4,-20(s0)
20015a3e:	81c18793          	addi	a5,gp,-2020 # 80000abc <__metal_dt_gpio_10012000>
20015a42:	00f71963          	bne	a4,a5,20015a54 <__metal_driver_sifive_gpio0_interrupt_lines+0x8c>
/home/nicoladgg/wsFreedomStudio/sifive_hifive1_revb_hello/bsp/build/debug/./metal/machine.h:483 (discriminator 1)
20015a46:	fe842703          	lw	a4,-24(s0)
20015a4a:	4791                	li	a5,4
20015a4c:	00f71463          	bne	a4,a5,20015a54 <__metal_driver_sifive_gpio0_interrupt_lines+0x8c>
/home/nicoladgg/wsFreedomStudio/sifive_hifive1_revb_hello/bsp/build/debug/./metal/machine.h:484
20015a50:	47b1                	li	a5,12
20015a52:	a4f1                	j	20015d1e <__metal_driver_sifive_gpio0_interrupt_lines+0x356>
/home/nicoladgg/wsFreedomStudio/sifive_hifive1_revb_hello/bsp/build/debug/./metal/machine.h:486
20015a54:	fec42703          	lw	a4,-20(s0)
20015a58:	81c18793          	addi	a5,gp,-2020 # 80000abc <__metal_dt_gpio_10012000>
20015a5c:	00f71963          	bne	a4,a5,20015a6e <__metal_driver_sifive_gpio0_interrupt_lines+0xa6>
/home/nicoladgg/wsFreedomStudio/sifive_hifive1_revb_hello/bsp/build/debug/./metal/machine.h:486 (discriminator 1)
20015a60:	fe842703          	lw	a4,-24(s0)
20015a64:	4795                	li	a5,5
20015a66:	00f71463          	bne	a4,a5,20015a6e <__metal_driver_sifive_gpio0_interrupt_lines+0xa6>
/home/nicoladgg/wsFreedomStudio/sifive_hifive1_revb_hello/bsp/build/debug/./metal/machine.h:487
20015a6a:	47b5                	li	a5,13
20015a6c:	ac4d                	j	20015d1e <__metal_driver_sifive_gpio0_interrupt_lines+0x356>
/home/nicoladgg/wsFreedomStudio/sifive_hifive1_revb_hello/bsp/build/debug/./metal/machine.h:489
20015a6e:	fec42703          	lw	a4,-20(s0)
20015a72:	81c18793          	addi	a5,gp,-2020 # 80000abc <__metal_dt_gpio_10012000>
20015a76:	00f71963          	bne	a4,a5,20015a88 <__metal_driver_sifive_gpio0_interrupt_lines+0xc0>
/home/nicoladgg/wsFreedomStudio/sifive_hifive1_revb_hello/bsp/build/debug/./metal/machine.h:489 (discriminator 1)
20015a7a:	fe842703          	lw	a4,-24(s0)
20015a7e:	4799                	li	a5,6
20015a80:	00f71463          	bne	a4,a5,20015a88 <__metal_driver_sifive_gpio0_interrupt_lines+0xc0>
/home/nicoladgg/wsFreedomStudio/sifive_hifive1_revb_hello/bsp/build/debug/./metal/machine.h:490
20015a84:	47b9                	li	a5,14
20015a86:	ac61                	j	20015d1e <__metal_driver_sifive_gpio0_interrupt_lines+0x356>
/home/nicoladgg/wsFreedomStudio/sifive_hifive1_revb_hello/bsp/build/debug/./metal/machine.h:492
20015a88:	fec42703          	lw	a4,-20(s0)
20015a8c:	81c18793          	addi	a5,gp,-2020 # 80000abc <__metal_dt_gpio_10012000>
20015a90:	00f71963          	bne	a4,a5,20015aa2 <__metal_driver_sifive_gpio0_interrupt_lines+0xda>
/home/nicoladgg/wsFreedomStudio/sifive_hifive1_revb_hello/bsp/build/debug/./metal/machine.h:492 (discriminator 1)
20015a94:	fe842703          	lw	a4,-24(s0)
20015a98:	479d                	li	a5,7
20015a9a:	00f71463          	bne	a4,a5,20015aa2 <__metal_driver_sifive_gpio0_interrupt_lines+0xda>
/home/nicoladgg/wsFreedomStudio/sifive_hifive1_revb_hello/bsp/build/debug/./metal/machine.h:493
20015a9e:	47bd                	li	a5,15
20015aa0:	acbd                	j	20015d1e <__metal_driver_sifive_gpio0_interrupt_lines+0x356>
/home/nicoladgg/wsFreedomStudio/sifive_hifive1_revb_hello/bsp/build/debug/./metal/machine.h:495
20015aa2:	fec42703          	lw	a4,-20(s0)
20015aa6:	81c18793          	addi	a5,gp,-2020 # 80000abc <__metal_dt_gpio_10012000>
20015aaa:	00f71963          	bne	a4,a5,20015abc <__metal_driver_sifive_gpio0_interrupt_lines+0xf4>
/home/nicoladgg/wsFreedomStudio/sifive_hifive1_revb_hello/bsp/build/debug/./metal/machine.h:495 (discriminator 1)
20015aae:	fe842703          	lw	a4,-24(s0)
20015ab2:	47a1                	li	a5,8
20015ab4:	00f71463          	bne	a4,a5,20015abc <__metal_driver_sifive_gpio0_interrupt_lines+0xf4>
/home/nicoladgg/wsFreedomStudio/sifive_hifive1_revb_hello/bsp/build/debug/./metal/machine.h:496
20015ab8:	47c1                	li	a5,16
20015aba:	a495                	j	20015d1e <__metal_driver_sifive_gpio0_interrupt_lines+0x356>
/home/nicoladgg/wsFreedomStudio/sifive_hifive1_revb_hello/bsp/build/debug/./metal/machine.h:498
20015abc:	fec42703          	lw	a4,-20(s0)
20015ac0:	81c18793          	addi	a5,gp,-2020 # 80000abc <__metal_dt_gpio_10012000>
20015ac4:	00f71963          	bne	a4,a5,20015ad6 <__metal_driver_sifive_gpio0_interrupt_lines+0x10e>
/home/nicoladgg/wsFreedomStudio/sifive_hifive1_revb_hello/bsp/build/debug/./metal/machine.h:498 (discriminator 1)
20015ac8:	fe842703          	lw	a4,-24(s0)
20015acc:	47a5                	li	a5,9
20015ace:	00f71463          	bne	a4,a5,20015ad6 <__metal_driver_sifive_gpio0_interrupt_lines+0x10e>
/home/nicoladgg/wsFreedomStudio/sifive_hifive1_revb_hello/bsp/build/debug/./metal/machine.h:499
20015ad2:	47c5                	li	a5,17
20015ad4:	a4a9                	j	20015d1e <__metal_driver_sifive_gpio0_interrupt_lines+0x356>
/home/nicoladgg/wsFreedomStudio/sifive_hifive1_revb_hello/bsp/build/debug/./metal/machine.h:501
20015ad6:	fec42703          	lw	a4,-20(s0)
20015ada:	81c18793          	addi	a5,gp,-2020 # 80000abc <__metal_dt_gpio_10012000>
20015ade:	00f71963          	bne	a4,a5,20015af0 <__metal_driver_sifive_gpio0_interrupt_lines+0x128>
/home/nicoladgg/wsFreedomStudio/sifive_hifive1_revb_hello/bsp/build/debug/./metal/machine.h:501 (discriminator 1)
20015ae2:	fe842703          	lw	a4,-24(s0)
20015ae6:	47a9                	li	a5,10
20015ae8:	00f71463          	bne	a4,a5,20015af0 <__metal_driver_sifive_gpio0_interrupt_lines+0x128>
/home/nicoladgg/wsFreedomStudio/sifive_hifive1_revb_hello/bsp/build/debug/./metal/machine.h:502
20015aec:	47c9                	li	a5,18
20015aee:	ac05                	j	20015d1e <__metal_driver_sifive_gpio0_interrupt_lines+0x356>
/home/nicoladgg/wsFreedomStudio/sifive_hifive1_revb_hello/bsp/build/debug/./metal/machine.h:504
20015af0:	fec42703          	lw	a4,-20(s0)
20015af4:	81c18793          	addi	a5,gp,-2020 # 80000abc <__metal_dt_gpio_10012000>
20015af8:	00f71963          	bne	a4,a5,20015b0a <__metal_driver_sifive_gpio0_interrupt_lines+0x142>
/home/nicoladgg/wsFreedomStudio/sifive_hifive1_revb_hello/bsp/build/debug/./metal/machine.h:504 (discriminator 1)
20015afc:	fe842703          	lw	a4,-24(s0)
20015b00:	47ad                	li	a5,11
20015b02:	00f71463          	bne	a4,a5,20015b0a <__metal_driver_sifive_gpio0_interrupt_lines+0x142>
/home/nicoladgg/wsFreedomStudio/sifive_hifive1_revb_hello/bsp/build/debug/./metal/machine.h:505
20015b06:	47cd                	li	a5,19
20015b08:	ac19                	j	20015d1e <__metal_driver_sifive_gpio0_interrupt_lines+0x356>
/home/nicoladgg/wsFreedomStudio/sifive_hifive1_revb_hello/bsp/build/debug/./metal/machine.h:507
20015b0a:	fec42703          	lw	a4,-20(s0)
20015b0e:	81c18793          	addi	a5,gp,-2020 # 80000abc <__metal_dt_gpio_10012000>
20015b12:	00f71963          	bne	a4,a5,20015b24 <__metal_driver_sifive_gpio0_interrupt_lines+0x15c>
/home/nicoladgg/wsFreedomStudio/sifive_hifive1_revb_hello/bsp/build/debug/./metal/machine.h:507 (discriminator 1)
20015b16:	fe842703          	lw	a4,-24(s0)
20015b1a:	47b1                	li	a5,12
20015b1c:	00f71463          	bne	a4,a5,20015b24 <__metal_driver_sifive_gpio0_interrupt_lines+0x15c>
/home/nicoladgg/wsFreedomStudio/sifive_hifive1_revb_hello/bsp/build/debug/./metal/machine.h:508
20015b20:	47d1                	li	a5,20
20015b22:	aaf5                	j	20015d1e <__metal_driver_sifive_gpio0_interrupt_lines+0x356>
/home/nicoladgg/wsFreedomStudio/sifive_hifive1_revb_hello/bsp/build/debug/./metal/machine.h:510
20015b24:	fec42703          	lw	a4,-20(s0)
20015b28:	81c18793          	addi	a5,gp,-2020 # 80000abc <__metal_dt_gpio_10012000>
20015b2c:	00f71963          	bne	a4,a5,20015b3e <__metal_driver_sifive_gpio0_interrupt_lines+0x176>
/home/nicoladgg/wsFreedomStudio/sifive_hifive1_revb_hello/bsp/build/debug/./metal/machine.h:510 (discriminator 1)
20015b30:	fe842703          	lw	a4,-24(s0)
20015b34:	47b5                	li	a5,13
20015b36:	00f71463          	bne	a4,a5,20015b3e <__metal_driver_sifive_gpio0_interrupt_lines+0x176>
/home/nicoladgg/wsFreedomStudio/sifive_hifive1_revb_hello/bsp/build/debug/./metal/machine.h:511
20015b3a:	47d5                	li	a5,21
20015b3c:	a2cd                	j	20015d1e <__metal_driver_sifive_gpio0_interrupt_lines+0x356>
/home/nicoladgg/wsFreedomStudio/sifive_hifive1_revb_hello/bsp/build/debug/./metal/machine.h:513
20015b3e:	fec42703          	lw	a4,-20(s0)
20015b42:	81c18793          	addi	a5,gp,-2020 # 80000abc <__metal_dt_gpio_10012000>
20015b46:	00f71963          	bne	a4,a5,20015b58 <__metal_driver_sifive_gpio0_interrupt_lines+0x190>
/home/nicoladgg/wsFreedomStudio/sifive_hifive1_revb_hello/bsp/build/debug/./metal/machine.h:513 (discriminator 1)
20015b4a:	fe842703          	lw	a4,-24(s0)
20015b4e:	47b9                	li	a5,14
20015b50:	00f71463          	bne	a4,a5,20015b58 <__metal_driver_sifive_gpio0_interrupt_lines+0x190>
/home/nicoladgg/wsFreedomStudio/sifive_hifive1_revb_hello/bsp/build/debug/./metal/machine.h:514
20015b54:	47d9                	li	a5,22
20015b56:	a2e1                	j	20015d1e <__metal_driver_sifive_gpio0_interrupt_lines+0x356>
/home/nicoladgg/wsFreedomStudio/sifive_hifive1_revb_hello/bsp/build/debug/./metal/machine.h:516
20015b58:	fec42703          	lw	a4,-20(s0)
20015b5c:	81c18793          	addi	a5,gp,-2020 # 80000abc <__metal_dt_gpio_10012000>
20015b60:	00f71963          	bne	a4,a5,20015b72 <__metal_driver_sifive_gpio0_interrupt_lines+0x1aa>
/home/nicoladgg/wsFreedomStudio/sifive_hifive1_revb_hello/bsp/build/debug/./metal/machine.h:516 (discriminator 1)
20015b64:	fe842703          	lw	a4,-24(s0)
20015b68:	47bd                	li	a5,15
20015b6a:	00f71463          	bne	a4,a5,20015b72 <__metal_driver_sifive_gpio0_interrupt_lines+0x1aa>
/home/nicoladgg/wsFreedomStudio/sifive_hifive1_revb_hello/bsp/build/debug/./metal/machine.h:517
20015b6e:	47dd                	li	a5,23
20015b70:	a27d                	j	20015d1e <__metal_driver_sifive_gpio0_interrupt_lines+0x356>
/home/nicoladgg/wsFreedomStudio/sifive_hifive1_revb_hello/bsp/build/debug/./metal/machine.h:519
20015b72:	fec42703          	lw	a4,-20(s0)
20015b76:	81c18793          	addi	a5,gp,-2020 # 80000abc <__metal_dt_gpio_10012000>
20015b7a:	00f71963          	bne	a4,a5,20015b8c <__metal_driver_sifive_gpio0_interrupt_lines+0x1c4>
/home/nicoladgg/wsFreedomStudio/sifive_hifive1_revb_hello/bsp/build/debug/./metal/machine.h:519 (discriminator 1)
20015b7e:	fe842703          	lw	a4,-24(s0)
20015b82:	47c1                	li	a5,16
20015b84:	00f71463          	bne	a4,a5,20015b8c <__metal_driver_sifive_gpio0_interrupt_lines+0x1c4>
/home/nicoladgg/wsFreedomStudio/sifive_hifive1_revb_hello/bsp/build/debug/./metal/machine.h:520
20015b88:	47e1                	li	a5,24
20015b8a:	aa51                	j	20015d1e <__metal_driver_sifive_gpio0_interrupt_lines+0x356>
/home/nicoladgg/wsFreedomStudio/sifive_hifive1_revb_hello/bsp/build/debug/./metal/machine.h:522
20015b8c:	fec42703          	lw	a4,-20(s0)
20015b90:	81c18793          	addi	a5,gp,-2020 # 80000abc <__metal_dt_gpio_10012000>
20015b94:	00f71963          	bne	a4,a5,20015ba6 <__metal_driver_sifive_gpio0_interrupt_lines+0x1de>
/home/nicoladgg/wsFreedomStudio/sifive_hifive1_revb_hello/bsp/build/debug/./metal/machine.h:522 (discriminator 1)
20015b98:	fe842703          	lw	a4,-24(s0)
20015b9c:	47c5                	li	a5,17
20015b9e:	00f71463          	bne	a4,a5,20015ba6 <__metal_driver_sifive_gpio0_interrupt_lines+0x1de>
/home/nicoladgg/wsFreedomStudio/sifive_hifive1_revb_hello/bsp/build/debug/./metal/machine.h:523
20015ba2:	47e5                	li	a5,25
20015ba4:	aaad                	j	20015d1e <__metal_driver_sifive_gpio0_interrupt_lines+0x356>
/home/nicoladgg/wsFreedomStudio/sifive_hifive1_revb_hello/bsp/build/debug/./metal/machine.h:525
20015ba6:	fec42703          	lw	a4,-20(s0)
20015baa:	81c18793          	addi	a5,gp,-2020 # 80000abc <__metal_dt_gpio_10012000>
20015bae:	00f71963          	bne	a4,a5,20015bc0 <__metal_driver_sifive_gpio0_interrupt_lines+0x1f8>
/home/nicoladgg/wsFreedomStudio/sifive_hifive1_revb_hello/bsp/build/debug/./metal/machine.h:525 (discriminator 1)
20015bb2:	fe842703          	lw	a4,-24(s0)
20015bb6:	47c9                	li	a5,18
20015bb8:	00f71463          	bne	a4,a5,20015bc0 <__metal_driver_sifive_gpio0_interrupt_lines+0x1f8>
/home/nicoladgg/wsFreedomStudio/sifive_hifive1_revb_hello/bsp/build/debug/./metal/machine.h:526
20015bbc:	47e9                	li	a5,26
20015bbe:	a285                	j	20015d1e <__metal_driver_sifive_gpio0_interrupt_lines+0x356>
/home/nicoladgg/wsFreedomStudio/sifive_hifive1_revb_hello/bsp/build/debug/./metal/machine.h:528
20015bc0:	fec42703          	lw	a4,-20(s0)
20015bc4:	81c18793          	addi	a5,gp,-2020 # 80000abc <__metal_dt_gpio_10012000>
20015bc8:	00f71963          	bne	a4,a5,20015bda <__metal_driver_sifive_gpio0_interrupt_lines+0x212>
/home/nicoladgg/wsFreedomStudio/sifive_hifive1_revb_hello/bsp/build/debug/./metal/machine.h:528 (discriminator 1)
20015bcc:	fe842703          	lw	a4,-24(s0)
20015bd0:	47cd                	li	a5,19
20015bd2:	00f71463          	bne	a4,a5,20015bda <__metal_driver_sifive_gpio0_interrupt_lines+0x212>
/home/nicoladgg/wsFreedomStudio/sifive_hifive1_revb_hello/bsp/build/debug/./metal/machine.h:529
20015bd6:	47ed                	li	a5,27
20015bd8:	a299                	j	20015d1e <__metal_driver_sifive_gpio0_interrupt_lines+0x356>
/home/nicoladgg/wsFreedomStudio/sifive_hifive1_revb_hello/bsp/build/debug/./metal/machine.h:531
20015bda:	fec42703          	lw	a4,-20(s0)
20015bde:	81c18793          	addi	a5,gp,-2020 # 80000abc <__metal_dt_gpio_10012000>
20015be2:	00f71963          	bne	a4,a5,20015bf4 <__metal_driver_sifive_gpio0_interrupt_lines+0x22c>
/home/nicoladgg/wsFreedomStudio/sifive_hifive1_revb_hello/bsp/build/debug/./metal/machine.h:531 (discriminator 1)
20015be6:	fe842703          	lw	a4,-24(s0)
20015bea:	47d1                	li	a5,20
20015bec:	00f71463          	bne	a4,a5,20015bf4 <__metal_driver_sifive_gpio0_interrupt_lines+0x22c>
/home/nicoladgg/wsFreedomStudio/sifive_hifive1_revb_hello/bsp/build/debug/./metal/machine.h:532
20015bf0:	47f1                	li	a5,28
20015bf2:	a235                	j	20015d1e <__metal_driver_sifive_gpio0_interrupt_lines+0x356>
/home/nicoladgg/wsFreedomStudio/sifive_hifive1_revb_hello/bsp/build/debug/./metal/machine.h:534
20015bf4:	fec42703          	lw	a4,-20(s0)
20015bf8:	81c18793          	addi	a5,gp,-2020 # 80000abc <__metal_dt_gpio_10012000>
20015bfc:	00f71963          	bne	a4,a5,20015c0e <__metal_driver_sifive_gpio0_interrupt_lines+0x246>
/home/nicoladgg/wsFreedomStudio/sifive_hifive1_revb_hello/bsp/build/debug/./metal/machine.h:534 (discriminator 1)
20015c00:	fe842703          	lw	a4,-24(s0)
20015c04:	47d5                	li	a5,21
20015c06:	00f71463          	bne	a4,a5,20015c0e <__metal_driver_sifive_gpio0_interrupt_lines+0x246>
/home/nicoladgg/wsFreedomStudio/sifive_hifive1_revb_hello/bsp/build/debug/./metal/machine.h:535
20015c0a:	47f5                	li	a5,29
20015c0c:	aa09                	j	20015d1e <__metal_driver_sifive_gpio0_interrupt_lines+0x356>
/home/nicoladgg/wsFreedomStudio/sifive_hifive1_revb_hello/bsp/build/debug/./metal/machine.h:537
20015c0e:	fec42703          	lw	a4,-20(s0)
20015c12:	81c18793          	addi	a5,gp,-2020 # 80000abc <__metal_dt_gpio_10012000>
20015c16:	00f71963          	bne	a4,a5,20015c28 <__metal_driver_sifive_gpio0_interrupt_lines+0x260>
/home/nicoladgg/wsFreedomStudio/sifive_hifive1_revb_hello/bsp/build/debug/./metal/machine.h:537 (discriminator 1)
20015c1a:	fe842703          	lw	a4,-24(s0)
20015c1e:	47d9                	li	a5,22
20015c20:	00f71463          	bne	a4,a5,20015c28 <__metal_driver_sifive_gpio0_interrupt_lines+0x260>
/home/nicoladgg/wsFreedomStudio/sifive_hifive1_revb_hello/bsp/build/debug/./metal/machine.h:538
20015c24:	47f9                	li	a5,30
20015c26:	a8e5                	j	20015d1e <__metal_driver_sifive_gpio0_interrupt_lines+0x356>
/home/nicoladgg/wsFreedomStudio/sifive_hifive1_revb_hello/bsp/build/debug/./metal/machine.h:540
20015c28:	fec42703          	lw	a4,-20(s0)
20015c2c:	81c18793          	addi	a5,gp,-2020 # 80000abc <__metal_dt_gpio_10012000>
20015c30:	00f71963          	bne	a4,a5,20015c42 <__metal_driver_sifive_gpio0_interrupt_lines+0x27a>
/home/nicoladgg/wsFreedomStudio/sifive_hifive1_revb_hello/bsp/build/debug/./metal/machine.h:540 (discriminator 1)
20015c34:	fe842703          	lw	a4,-24(s0)
20015c38:	47dd                	li	a5,23
20015c3a:	00f71463          	bne	a4,a5,20015c42 <__metal_driver_sifive_gpio0_interrupt_lines+0x27a>
/home/nicoladgg/wsFreedomStudio/sifive_hifive1_revb_hello/bsp/build/debug/./metal/machine.h:541
20015c3e:	47fd                	li	a5,31
20015c40:	a8f9                	j	20015d1e <__metal_driver_sifive_gpio0_interrupt_lines+0x356>
/home/nicoladgg/wsFreedomStudio/sifive_hifive1_revb_hello/bsp/build/debug/./metal/machine.h:543
20015c42:	fec42703          	lw	a4,-20(s0)
20015c46:	81c18793          	addi	a5,gp,-2020 # 80000abc <__metal_dt_gpio_10012000>
20015c4a:	00f71a63          	bne	a4,a5,20015c5e <__metal_driver_sifive_gpio0_interrupt_lines+0x296>
/home/nicoladgg/wsFreedomStudio/sifive_hifive1_revb_hello/bsp/build/debug/./metal/machine.h:543 (discriminator 1)
20015c4e:	fe842703          	lw	a4,-24(s0)
20015c52:	47e1                	li	a5,24
20015c54:	00f71563          	bne	a4,a5,20015c5e <__metal_driver_sifive_gpio0_interrupt_lines+0x296>
/home/nicoladgg/wsFreedomStudio/sifive_hifive1_revb_hello/bsp/build/debug/./metal/machine.h:544
20015c58:	02000793          	li	a5,32
20015c5c:	a0c9                	j	20015d1e <__metal_driver_sifive_gpio0_interrupt_lines+0x356>
/home/nicoladgg/wsFreedomStudio/sifive_hifive1_revb_hello/bsp/build/debug/./metal/machine.h:546
20015c5e:	fec42703          	lw	a4,-20(s0)
20015c62:	81c18793          	addi	a5,gp,-2020 # 80000abc <__metal_dt_gpio_10012000>
20015c66:	00f71a63          	bne	a4,a5,20015c7a <__metal_driver_sifive_gpio0_interrupt_lines+0x2b2>
/home/nicoladgg/wsFreedomStudio/sifive_hifive1_revb_hello/bsp/build/debug/./metal/machine.h:546 (discriminator 1)
20015c6a:	fe842703          	lw	a4,-24(s0)
20015c6e:	47e5                	li	a5,25
20015c70:	00f71563          	bne	a4,a5,20015c7a <__metal_driver_sifive_gpio0_interrupt_lines+0x2b2>
/home/nicoladgg/wsFreedomStudio/sifive_hifive1_revb_hello/bsp/build/debug/./metal/machine.h:547
20015c74:	02100793          	li	a5,33
20015c78:	a05d                	j	20015d1e <__metal_driver_sifive_gpio0_interrupt_lines+0x356>
/home/nicoladgg/wsFreedomStudio/sifive_hifive1_revb_hello/bsp/build/debug/./metal/machine.h:549
20015c7a:	fec42703          	lw	a4,-20(s0)
20015c7e:	81c18793          	addi	a5,gp,-2020 # 80000abc <__metal_dt_gpio_10012000>
20015c82:	00f71a63          	bne	a4,a5,20015c96 <__metal_driver_sifive_gpio0_interrupt_lines+0x2ce>
/home/nicoladgg/wsFreedomStudio/sifive_hifive1_revb_hello/bsp/build/debug/./metal/machine.h:549 (discriminator 1)
20015c86:	fe842703          	lw	a4,-24(s0)
20015c8a:	47e9                	li	a5,26
20015c8c:	00f71563          	bne	a4,a5,20015c96 <__metal_driver_sifive_gpio0_interrupt_lines+0x2ce>
/home/nicoladgg/wsFreedomStudio/sifive_hifive1_revb_hello/bsp/build/debug/./metal/machine.h:550
20015c90:	02200793          	li	a5,34
20015c94:	a069                	j	20015d1e <__metal_driver_sifive_gpio0_interrupt_lines+0x356>
/home/nicoladgg/wsFreedomStudio/sifive_hifive1_revb_hello/bsp/build/debug/./metal/machine.h:552
20015c96:	fec42703          	lw	a4,-20(s0)
20015c9a:	81c18793          	addi	a5,gp,-2020 # 80000abc <__metal_dt_gpio_10012000>
20015c9e:	00f71a63          	bne	a4,a5,20015cb2 <__metal_driver_sifive_gpio0_interrupt_lines+0x2ea>
/home/nicoladgg/wsFreedomStudio/sifive_hifive1_revb_hello/bsp/build/debug/./metal/machine.h:552 (discriminator 1)
20015ca2:	fe842703          	lw	a4,-24(s0)
20015ca6:	47ed                	li	a5,27
20015ca8:	00f71563          	bne	a4,a5,20015cb2 <__metal_driver_sifive_gpio0_interrupt_lines+0x2ea>
/home/nicoladgg/wsFreedomStudio/sifive_hifive1_revb_hello/bsp/build/debug/./metal/machine.h:553
20015cac:	02300793          	li	a5,35
20015cb0:	a0bd                	j	20015d1e <__metal_driver_sifive_gpio0_interrupt_lines+0x356>
/home/nicoladgg/wsFreedomStudio/sifive_hifive1_revb_hello/bsp/build/debug/./metal/machine.h:555
20015cb2:	fec42703          	lw	a4,-20(s0)
20015cb6:	81c18793          	addi	a5,gp,-2020 # 80000abc <__metal_dt_gpio_10012000>
20015cba:	00f71a63          	bne	a4,a5,20015cce <__metal_driver_sifive_gpio0_interrupt_lines+0x306>
/home/nicoladgg/wsFreedomStudio/sifive_hifive1_revb_hello/bsp/build/debug/./metal/machine.h:555 (discriminator 1)
20015cbe:	fe842703          	lw	a4,-24(s0)
20015cc2:	47f1                	li	a5,28
20015cc4:	00f71563          	bne	a4,a5,20015cce <__metal_driver_sifive_gpio0_interrupt_lines+0x306>
/home/nicoladgg/wsFreedomStudio/sifive_hifive1_revb_hello/bsp/build/debug/./metal/machine.h:556
20015cc8:	02400793          	li	a5,36
20015ccc:	a889                	j	20015d1e <__metal_driver_sifive_gpio0_interrupt_lines+0x356>
/home/nicoladgg/wsFreedomStudio/sifive_hifive1_revb_hello/bsp/build/debug/./metal/machine.h:558
20015cce:	fec42703          	lw	a4,-20(s0)
20015cd2:	81c18793          	addi	a5,gp,-2020 # 80000abc <__metal_dt_gpio_10012000>
20015cd6:	00f71963          	bne	a4,a5,20015ce8 <__metal_driver_sifive_gpio0_interrupt_lines+0x320>
/home/nicoladgg/wsFreedomStudio/sifive_hifive1_revb_hello/bsp/build/debug/./metal/machine.h:558 (discriminator 1)
20015cda:	fe842703          	lw	a4,-24(s0)
20015cde:	47f5                	li	a5,29
20015ce0:	00f71463          	bne	a4,a5,20015ce8 <__metal_driver_sifive_gpio0_interrupt_lines+0x320>
/home/nicoladgg/wsFreedomStudio/sifive_hifive1_revb_hello/bsp/build/debug/./metal/machine.h:559
20015ce4:	47ed                	li	a5,27
20015ce6:	a825                	j	20015d1e <__metal_driver_sifive_gpio0_interrupt_lines+0x356>
/home/nicoladgg/wsFreedomStudio/sifive_hifive1_revb_hello/bsp/build/debug/./metal/machine.h:561
20015ce8:	fec42703          	lw	a4,-20(s0)
20015cec:	81c18793          	addi	a5,gp,-2020 # 80000abc <__metal_dt_gpio_10012000>
20015cf0:	00f71963          	bne	a4,a5,20015d02 <__metal_driver_sifive_gpio0_interrupt_lines+0x33a>
/home/nicoladgg/wsFreedomStudio/sifive_hifive1_revb_hello/bsp/build/debug/./metal/machine.h:561 (discriminator 1)
20015cf4:	fe842703          	lw	a4,-24(s0)
20015cf8:	47f9                	li	a5,30
20015cfa:	00f71463          	bne	a4,a5,20015d02 <__metal_driver_sifive_gpio0_interrupt_lines+0x33a>
/home/nicoladgg/wsFreedomStudio/sifive_hifive1_revb_hello/bsp/build/debug/./metal/machine.h:562
20015cfe:	47f1                	li	a5,28
20015d00:	a839                	j	20015d1e <__metal_driver_sifive_gpio0_interrupt_lines+0x356>
/home/nicoladgg/wsFreedomStudio/sifive_hifive1_revb_hello/bsp/build/debug/./metal/machine.h:564
20015d02:	fec42703          	lw	a4,-20(s0)
20015d06:	81c18793          	addi	a5,gp,-2020 # 80000abc <__metal_dt_gpio_10012000>
20015d0a:	00f71963          	bne	a4,a5,20015d1c <__metal_driver_sifive_gpio0_interrupt_lines+0x354>
/home/nicoladgg/wsFreedomStudio/sifive_hifive1_revb_hello/bsp/build/debug/./metal/machine.h:564 (discriminator 1)
20015d0e:	fe842703          	lw	a4,-24(s0)
20015d12:	47fd                	li	a5,31
20015d14:	00f71463          	bne	a4,a5,20015d1c <__metal_driver_sifive_gpio0_interrupt_lines+0x354>
/home/nicoladgg/wsFreedomStudio/sifive_hifive1_revb_hello/bsp/build/debug/./metal/machine.h:565
20015d18:	47f5                	li	a5,29
20015d1a:	a011                	j	20015d1e <__metal_driver_sifive_gpio0_interrupt_lines+0x356>
/home/nicoladgg/wsFreedomStudio/sifive_hifive1_revb_hello/bsp/build/debug/./metal/machine.h:568
20015d1c:	4781                	li	a5,0
/home/nicoladgg/wsFreedomStudio/sifive_hifive1_revb_hello/bsp/build/debug/./metal/machine.h:570
20015d1e:	853e                	mv	a0,a5
20015d20:	4472                	lw	s0,28(sp)
20015d22:	6105                	addi	sp,sp,32
20015d24:	8082                	ret

20015d26 <__metal_driver_sifive_gpio0_enable_input>:
__metal_driver_sifive_gpio0_enable_input():
/home/nicoladgg/wsFreedomStudio/sifive_hifive1_revb_hello/freedom-metal/src/drivers/sifive_gpio0.c:13
20015d26:	7179                	addi	sp,sp,-48
20015d28:	d606                	sw	ra,44(sp)
20015d2a:	d422                	sw	s0,40(sp)
20015d2c:	1800                	addi	s0,sp,48
20015d2e:	fca42e23          	sw	a0,-36(s0)
20015d32:	fcb42c23          	sw	a1,-40(s0)
/home/nicoladgg/wsFreedomStudio/sifive_hifive1_revb_hello/freedom-metal/src/drivers/sifive_gpio0.c:14
20015d36:	fdc42503          	lw	a0,-36(s0)
20015d3a:	c3fff0ef          	jal	ra,20015978 <__metal_driver_sifive_gpio0_base>
20015d3e:	87aa                	mv	a5,a0
20015d40:	fef42623          	sw	a5,-20(s0)
/home/nicoladgg/wsFreedomStudio/sifive_hifive1_revb_hello/freedom-metal/src/drivers/sifive_gpio0.c:17
20015d44:	fec42783          	lw	a5,-20(s0)
20015d48:	0791                	addi	a5,a5,4
20015d4a:	4398                	lw	a4,0(a5)
20015d4c:	fd842783          	lw	a5,-40(s0)
20015d50:	fec42683          	lw	a3,-20(s0)
20015d54:	0691                	addi	a3,a3,4
20015d56:	8fd9                	or	a5,a5,a4
20015d58:	c29c                	sw	a5,0(a3)
/home/nicoladgg/wsFreedomStudio/sifive_hifive1_revb_hello/freedom-metal/src/drivers/sifive_gpio0.c:19
20015d5a:	4781                	li	a5,0
/home/nicoladgg/wsFreedomStudio/sifive_hifive1_revb_hello/freedom-metal/src/drivers/sifive_gpio0.c:20
20015d5c:	853e                	mv	a0,a5
20015d5e:	50b2                	lw	ra,44(sp)
20015d60:	5422                	lw	s0,40(sp)
20015d62:	6145                	addi	sp,sp,48
20015d64:	8082                	ret

20015d66 <__metal_driver_sifive_gpio0_disable_input>:
__metal_driver_sifive_gpio0_disable_input():
/home/nicoladgg/wsFreedomStudio/sifive_hifive1_revb_hello/freedom-metal/src/drivers/sifive_gpio0.c:23
20015d66:	7179                	addi	sp,sp,-48
20015d68:	d606                	sw	ra,44(sp)
20015d6a:	d422                	sw	s0,40(sp)
20015d6c:	1800                	addi	s0,sp,48
20015d6e:	fca42e23          	sw	a0,-36(s0)
20015d72:	fcb42c23          	sw	a1,-40(s0)
/home/nicoladgg/wsFreedomStudio/sifive_hifive1_revb_hello/freedom-metal/src/drivers/sifive_gpio0.c:24
20015d76:	fdc42503          	lw	a0,-36(s0)
20015d7a:	bffff0ef          	jal	ra,20015978 <__metal_driver_sifive_gpio0_base>
20015d7e:	87aa                	mv	a5,a0
20015d80:	fef42623          	sw	a5,-20(s0)
/home/nicoladgg/wsFreedomStudio/sifive_hifive1_revb_hello/freedom-metal/src/drivers/sifive_gpio0.c:27
20015d84:	fec42783          	lw	a5,-20(s0)
20015d88:	0791                	addi	a5,a5,4
20015d8a:	439c                	lw	a5,0(a5)
20015d8c:	fd842703          	lw	a4,-40(s0)
20015d90:	fff74713          	not	a4,a4
20015d94:	86ba                	mv	a3,a4
20015d96:	fec42703          	lw	a4,-20(s0)
20015d9a:	0711                	addi	a4,a4,4
20015d9c:	8ff5                	and	a5,a5,a3
20015d9e:	c31c                	sw	a5,0(a4)
/home/nicoladgg/wsFreedomStudio/sifive_hifive1_revb_hello/freedom-metal/src/drivers/sifive_gpio0.c:29
20015da0:	4781                	li	a5,0
/home/nicoladgg/wsFreedomStudio/sifive_hifive1_revb_hello/freedom-metal/src/drivers/sifive_gpio0.c:30
20015da2:	853e                	mv	a0,a5
20015da4:	50b2                	lw	ra,44(sp)
20015da6:	5422                	lw	s0,40(sp)
20015da8:	6145                	addi	sp,sp,48
20015daa:	8082                	ret

20015dac <__metal_driver_sifive_gpio0_input>:
__metal_driver_sifive_gpio0_input():
/home/nicoladgg/wsFreedomStudio/sifive_hifive1_revb_hello/freedom-metal/src/drivers/sifive_gpio0.c:32
20015dac:	7179                	addi	sp,sp,-48
20015dae:	d606                	sw	ra,44(sp)
20015db0:	d422                	sw	s0,40(sp)
20015db2:	1800                	addi	s0,sp,48
20015db4:	fca42e23          	sw	a0,-36(s0)
/home/nicoladgg/wsFreedomStudio/sifive_hifive1_revb_hello/freedom-metal/src/drivers/sifive_gpio0.c:33
20015db8:	fdc42503          	lw	a0,-36(s0)
20015dbc:	bbdff0ef          	jal	ra,20015978 <__metal_driver_sifive_gpio0_base>
20015dc0:	87aa                	mv	a5,a0
20015dc2:	fef42623          	sw	a5,-20(s0)
/home/nicoladgg/wsFreedomStudio/sifive_hifive1_revb_hello/freedom-metal/src/drivers/sifive_gpio0.c:35
20015dc6:	fec42783          	lw	a5,-20(s0)
20015dca:	439c                	lw	a5,0(a5)
/home/nicoladgg/wsFreedomStudio/sifive_hifive1_revb_hello/freedom-metal/src/drivers/sifive_gpio0.c:37
20015dcc:	853e                	mv	a0,a5
20015dce:	50b2                	lw	ra,44(sp)
20015dd0:	5422                	lw	s0,40(sp)
20015dd2:	6145                	addi	sp,sp,48
20015dd4:	8082                	ret

20015dd6 <__metal_driver_sifive_gpio0_output>:
__metal_driver_sifive_gpio0_output():
/home/nicoladgg/wsFreedomStudio/sifive_hifive1_revb_hello/freedom-metal/src/drivers/sifive_gpio0.c:39
20015dd6:	7179                	addi	sp,sp,-48
20015dd8:	d606                	sw	ra,44(sp)
20015dda:	d422                	sw	s0,40(sp)
20015ddc:	1800                	addi	s0,sp,48
20015dde:	fca42e23          	sw	a0,-36(s0)
/home/nicoladgg/wsFreedomStudio/sifive_hifive1_revb_hello/freedom-metal/src/drivers/sifive_gpio0.c:40
20015de2:	fdc42503          	lw	a0,-36(s0)
20015de6:	b93ff0ef          	jal	ra,20015978 <__metal_driver_sifive_gpio0_base>
20015dea:	87aa                	mv	a5,a0
20015dec:	fef42623          	sw	a5,-20(s0)
/home/nicoladgg/wsFreedomStudio/sifive_hifive1_revb_hello/freedom-metal/src/drivers/sifive_gpio0.c:42
20015df0:	fec42783          	lw	a5,-20(s0)
20015df4:	07b1                	addi	a5,a5,12
20015df6:	439c                	lw	a5,0(a5)
/home/nicoladgg/wsFreedomStudio/sifive_hifive1_revb_hello/freedom-metal/src/drivers/sifive_gpio0.c:44
20015df8:	853e                	mv	a0,a5
20015dfa:	50b2                	lw	ra,44(sp)
20015dfc:	5422                	lw	s0,40(sp)
20015dfe:	6145                	addi	sp,sp,48
20015e00:	8082                	ret

20015e02 <__metal_driver_sifive_gpio0_disable_output>:
__metal_driver_sifive_gpio0_disable_output():
/home/nicoladgg/wsFreedomStudio/sifive_hifive1_revb_hello/freedom-metal/src/drivers/sifive_gpio0.c:47
20015e02:	7179                	addi	sp,sp,-48
20015e04:	d606                	sw	ra,44(sp)
20015e06:	d422                	sw	s0,40(sp)
20015e08:	1800                	addi	s0,sp,48
20015e0a:	fca42e23          	sw	a0,-36(s0)
20015e0e:	fcb42c23          	sw	a1,-40(s0)
/home/nicoladgg/wsFreedomStudio/sifive_hifive1_revb_hello/freedom-metal/src/drivers/sifive_gpio0.c:48
20015e12:	fdc42503          	lw	a0,-36(s0)
20015e16:	b63ff0ef          	jal	ra,20015978 <__metal_driver_sifive_gpio0_base>
20015e1a:	87aa                	mv	a5,a0
20015e1c:	fef42623          	sw	a5,-20(s0)
/home/nicoladgg/wsFreedomStudio/sifive_hifive1_revb_hello/freedom-metal/src/drivers/sifive_gpio0.c:51
20015e20:	fec42783          	lw	a5,-20(s0)
20015e24:	07a1                	addi	a5,a5,8
20015e26:	439c                	lw	a5,0(a5)
20015e28:	fd842703          	lw	a4,-40(s0)
20015e2c:	fff74713          	not	a4,a4
20015e30:	86ba                	mv	a3,a4
20015e32:	fec42703          	lw	a4,-20(s0)
20015e36:	0721                	addi	a4,a4,8
20015e38:	8ff5                	and	a5,a5,a3
20015e3a:	c31c                	sw	a5,0(a4)
/home/nicoladgg/wsFreedomStudio/sifive_hifive1_revb_hello/freedom-metal/src/drivers/sifive_gpio0.c:53
20015e3c:	4781                	li	a5,0
/home/nicoladgg/wsFreedomStudio/sifive_hifive1_revb_hello/freedom-metal/src/drivers/sifive_gpio0.c:54
20015e3e:	853e                	mv	a0,a5
20015e40:	50b2                	lw	ra,44(sp)
20015e42:	5422                	lw	s0,40(sp)
20015e44:	6145                	addi	sp,sp,48
20015e46:	8082                	ret

20015e48 <__metal_driver_sifive_gpio0_enable_output>:
__metal_driver_sifive_gpio0_enable_output():
/home/nicoladgg/wsFreedomStudio/sifive_hifive1_revb_hello/freedom-metal/src/drivers/sifive_gpio0.c:57
20015e48:	7179                	addi	sp,sp,-48
20015e4a:	d606                	sw	ra,44(sp)
20015e4c:	d422                	sw	s0,40(sp)
20015e4e:	1800                	addi	s0,sp,48
20015e50:	fca42e23          	sw	a0,-36(s0)
20015e54:	fcb42c23          	sw	a1,-40(s0)
/home/nicoladgg/wsFreedomStudio/sifive_hifive1_revb_hello/freedom-metal/src/drivers/sifive_gpio0.c:58
20015e58:	fdc42503          	lw	a0,-36(s0)
20015e5c:	b1dff0ef          	jal	ra,20015978 <__metal_driver_sifive_gpio0_base>
20015e60:	87aa                	mv	a5,a0
20015e62:	fef42623          	sw	a5,-20(s0)
/home/nicoladgg/wsFreedomStudio/sifive_hifive1_revb_hello/freedom-metal/src/drivers/sifive_gpio0.c:61
20015e66:	fec42783          	lw	a5,-20(s0)
20015e6a:	07a1                	addi	a5,a5,8
20015e6c:	4398                	lw	a4,0(a5)
20015e6e:	fd842783          	lw	a5,-40(s0)
20015e72:	fec42683          	lw	a3,-20(s0)
20015e76:	06a1                	addi	a3,a3,8
20015e78:	8fd9                	or	a5,a5,a4
20015e7a:	c29c                	sw	a5,0(a3)
/home/nicoladgg/wsFreedomStudio/sifive_hifive1_revb_hello/freedom-metal/src/drivers/sifive_gpio0.c:63
20015e7c:	4781                	li	a5,0
/home/nicoladgg/wsFreedomStudio/sifive_hifive1_revb_hello/freedom-metal/src/drivers/sifive_gpio0.c:64
20015e7e:	853e                	mv	a0,a5
20015e80:	50b2                	lw	ra,44(sp)
20015e82:	5422                	lw	s0,40(sp)
20015e84:	6145                	addi	sp,sp,48
20015e86:	8082                	ret

20015e88 <__metal_driver_sifive_gpio0_output_set>:
__metal_driver_sifive_gpio0_output_set():
/home/nicoladgg/wsFreedomStudio/sifive_hifive1_revb_hello/freedom-metal/src/drivers/sifive_gpio0.c:67
20015e88:	7179                	addi	sp,sp,-48
20015e8a:	d606                	sw	ra,44(sp)
20015e8c:	d422                	sw	s0,40(sp)
20015e8e:	1800                	addi	s0,sp,48
20015e90:	fca42e23          	sw	a0,-36(s0)
20015e94:	fcb42c23          	sw	a1,-40(s0)
/home/nicoladgg/wsFreedomStudio/sifive_hifive1_revb_hello/freedom-metal/src/drivers/sifive_gpio0.c:68
20015e98:	fdc42503          	lw	a0,-36(s0)
20015e9c:	addff0ef          	jal	ra,20015978 <__metal_driver_sifive_gpio0_base>
20015ea0:	87aa                	mv	a5,a0
20015ea2:	fef42623          	sw	a5,-20(s0)
/home/nicoladgg/wsFreedomStudio/sifive_hifive1_revb_hello/freedom-metal/src/drivers/sifive_gpio0.c:70
20015ea6:	fec42783          	lw	a5,-20(s0)
20015eaa:	07b1                	addi	a5,a5,12
20015eac:	4398                	lw	a4,0(a5)
20015eae:	fd842783          	lw	a5,-40(s0)
20015eb2:	fec42683          	lw	a3,-20(s0)
20015eb6:	06b1                	addi	a3,a3,12
20015eb8:	8fd9                	or	a5,a5,a4
20015eba:	c29c                	sw	a5,0(a3)
/home/nicoladgg/wsFreedomStudio/sifive_hifive1_revb_hello/freedom-metal/src/drivers/sifive_gpio0.c:73
20015ebc:	4781                	li	a5,0
/home/nicoladgg/wsFreedomStudio/sifive_hifive1_revb_hello/freedom-metal/src/drivers/sifive_gpio0.c:74
20015ebe:	853e                	mv	a0,a5
20015ec0:	50b2                	lw	ra,44(sp)
20015ec2:	5422                	lw	s0,40(sp)
20015ec4:	6145                	addi	sp,sp,48
20015ec6:	8082                	ret

20015ec8 <__metal_driver_sifive_gpio0_output_clear>:
__metal_driver_sifive_gpio0_output_clear():
/home/nicoladgg/wsFreedomStudio/sifive_hifive1_revb_hello/freedom-metal/src/drivers/sifive_gpio0.c:77
20015ec8:	7179                	addi	sp,sp,-48
20015eca:	d606                	sw	ra,44(sp)
20015ecc:	d422                	sw	s0,40(sp)
20015ece:	1800                	addi	s0,sp,48
20015ed0:	fca42e23          	sw	a0,-36(s0)
20015ed4:	fcb42c23          	sw	a1,-40(s0)
/home/nicoladgg/wsFreedomStudio/sifive_hifive1_revb_hello/freedom-metal/src/drivers/sifive_gpio0.c:78
20015ed8:	fdc42503          	lw	a0,-36(s0)
20015edc:	a9dff0ef          	jal	ra,20015978 <__metal_driver_sifive_gpio0_base>
20015ee0:	87aa                	mv	a5,a0
20015ee2:	fef42623          	sw	a5,-20(s0)
/home/nicoladgg/wsFreedomStudio/sifive_hifive1_revb_hello/freedom-metal/src/drivers/sifive_gpio0.c:80
20015ee6:	fec42783          	lw	a5,-20(s0)
20015eea:	07b1                	addi	a5,a5,12
20015eec:	439c                	lw	a5,0(a5)
/home/nicoladgg/wsFreedomStudio/sifive_hifive1_revb_hello/freedom-metal/src/drivers/sifive_gpio0.c:81
20015eee:	fd842703          	lw	a4,-40(s0)
20015ef2:	fff74713          	not	a4,a4
20015ef6:	86ba                	mv	a3,a4
/home/nicoladgg/wsFreedomStudio/sifive_hifive1_revb_hello/freedom-metal/src/drivers/sifive_gpio0.c:80
20015ef8:	fec42703          	lw	a4,-20(s0)
20015efc:	0731                	addi	a4,a4,12
20015efe:	8ff5                	and	a5,a5,a3
20015f00:	c31c                	sw	a5,0(a4)
/home/nicoladgg/wsFreedomStudio/sifive_hifive1_revb_hello/freedom-metal/src/drivers/sifive_gpio0.c:83
20015f02:	4781                	li	a5,0
/home/nicoladgg/wsFreedomStudio/sifive_hifive1_revb_hello/freedom-metal/src/drivers/sifive_gpio0.c:84
20015f04:	853e                	mv	a0,a5
20015f06:	50b2                	lw	ra,44(sp)
20015f08:	5422                	lw	s0,40(sp)
20015f0a:	6145                	addi	sp,sp,48
20015f0c:	8082                	ret

20015f0e <__metal_driver_sifive_gpio0_output_toggle>:
__metal_driver_sifive_gpio0_output_toggle():
/home/nicoladgg/wsFreedomStudio/sifive_hifive1_revb_hello/freedom-metal/src/drivers/sifive_gpio0.c:87
20015f0e:	7179                	addi	sp,sp,-48
20015f10:	d606                	sw	ra,44(sp)
20015f12:	d422                	sw	s0,40(sp)
20015f14:	1800                	addi	s0,sp,48
20015f16:	fca42e23          	sw	a0,-36(s0)
20015f1a:	fcb42c23          	sw	a1,-40(s0)
/home/nicoladgg/wsFreedomStudio/sifive_hifive1_revb_hello/freedom-metal/src/drivers/sifive_gpio0.c:88
20015f1e:	fdc42503          	lw	a0,-36(s0)
20015f22:	a57ff0ef          	jal	ra,20015978 <__metal_driver_sifive_gpio0_base>
20015f26:	87aa                	mv	a5,a0
20015f28:	fef42623          	sw	a5,-20(s0)
/home/nicoladgg/wsFreedomStudio/sifive_hifive1_revb_hello/freedom-metal/src/drivers/sifive_gpio0.c:91
20015f2c:	fec42783          	lw	a5,-20(s0)
20015f30:	07b1                	addi	a5,a5,12
20015f32:	4398                	lw	a4,0(a5)
/home/nicoladgg/wsFreedomStudio/sifive_hifive1_revb_hello/freedom-metal/src/drivers/sifive_gpio0.c:92
20015f34:	fd842783          	lw	a5,-40(s0)
/home/nicoladgg/wsFreedomStudio/sifive_hifive1_revb_hello/freedom-metal/src/drivers/sifive_gpio0.c:90
20015f38:	fec42683          	lw	a3,-20(s0)
20015f3c:	06b1                	addi	a3,a3,12
/home/nicoladgg/wsFreedomStudio/sifive_hifive1_revb_hello/freedom-metal/src/drivers/sifive_gpio0.c:92
20015f3e:	8fb9                	xor	a5,a5,a4
/home/nicoladgg/wsFreedomStudio/sifive_hifive1_revb_hello/freedom-metal/src/drivers/sifive_gpio0.c:90
20015f40:	c29c                	sw	a5,0(a3)
/home/nicoladgg/wsFreedomStudio/sifive_hifive1_revb_hello/freedom-metal/src/drivers/sifive_gpio0.c:95
20015f42:	4781                	li	a5,0
/home/nicoladgg/wsFreedomStudio/sifive_hifive1_revb_hello/freedom-metal/src/drivers/sifive_gpio0.c:96
20015f44:	853e                	mv	a0,a5
20015f46:	50b2                	lw	ra,44(sp)
20015f48:	5422                	lw	s0,40(sp)
20015f4a:	6145                	addi	sp,sp,48
20015f4c:	8082                	ret

20015f4e <__metal_driver_sifive_gpio0_enable_io>:
__metal_driver_sifive_gpio0_enable_io():
/home/nicoladgg/wsFreedomStudio/sifive_hifive1_revb_hello/freedom-metal/src/drivers/sifive_gpio0.c:99
20015f4e:	7179                	addi	sp,sp,-48
20015f50:	d606                	sw	ra,44(sp)
20015f52:	d422                	sw	s0,40(sp)
20015f54:	1800                	addi	s0,sp,48
20015f56:	fca42e23          	sw	a0,-36(s0)
20015f5a:	fcb42c23          	sw	a1,-40(s0)
20015f5e:	fcc42a23          	sw	a2,-44(s0)
/home/nicoladgg/wsFreedomStudio/sifive_hifive1_revb_hello/freedom-metal/src/drivers/sifive_gpio0.c:100
20015f62:	fdc42503          	lw	a0,-36(s0)
20015f66:	a13ff0ef          	jal	ra,20015978 <__metal_driver_sifive_gpio0_base>
20015f6a:	87aa                	mv	a5,a0
20015f6c:	fef42623          	sw	a5,-20(s0)
/home/nicoladgg/wsFreedomStudio/sifive_hifive1_revb_hello/freedom-metal/src/drivers/sifive_gpio0.c:103
20015f70:	fec42783          	lw	a5,-20(s0)
20015f74:	03c78793          	addi	a5,a5,60
20015f78:	4398                	lw	a4,0(a5)
20015f7a:	fd842783          	lw	a5,-40(s0)
20015f7e:	fec42683          	lw	a3,-20(s0)
20015f82:	03c68693          	addi	a3,a3,60
20015f86:	8fd9                	or	a5,a5,a4
20015f88:	c29c                	sw	a5,0(a3)
/home/nicoladgg/wsFreedomStudio/sifive_hifive1_revb_hello/freedom-metal/src/drivers/sifive_gpio0.c:104
20015f8a:	fec42783          	lw	a5,-20(s0)
20015f8e:	03878793          	addi	a5,a5,56
20015f92:	4398                	lw	a4,0(a5)
20015f94:	fd442783          	lw	a5,-44(s0)
20015f98:	fec42683          	lw	a3,-20(s0)
20015f9c:	03868693          	addi	a3,a3,56
20015fa0:	8fd9                	or	a5,a5,a4
20015fa2:	c29c                	sw	a5,0(a3)
/home/nicoladgg/wsFreedomStudio/sifive_hifive1_revb_hello/freedom-metal/src/drivers/sifive_gpio0.c:107
20015fa4:	4781                	li	a5,0
/home/nicoladgg/wsFreedomStudio/sifive_hifive1_revb_hello/freedom-metal/src/drivers/sifive_gpio0.c:108
20015fa6:	853e                	mv	a0,a5
20015fa8:	50b2                	lw	ra,44(sp)
20015faa:	5422                	lw	s0,40(sp)
20015fac:	6145                	addi	sp,sp,48
20015fae:	8082                	ret

20015fb0 <__metal_driver_sifive_gpio0_disable_io>:
__metal_driver_sifive_gpio0_disable_io():
/home/nicoladgg/wsFreedomStudio/sifive_hifive1_revb_hello/freedom-metal/src/drivers/sifive_gpio0.c:111
20015fb0:	7179                	addi	sp,sp,-48
20015fb2:	d606                	sw	ra,44(sp)
20015fb4:	d422                	sw	s0,40(sp)
20015fb6:	1800                	addi	s0,sp,48
20015fb8:	fca42e23          	sw	a0,-36(s0)
20015fbc:	fcb42c23          	sw	a1,-40(s0)
/home/nicoladgg/wsFreedomStudio/sifive_hifive1_revb_hello/freedom-metal/src/drivers/sifive_gpio0.c:112
20015fc0:	fdc42503          	lw	a0,-36(s0)
20015fc4:	9b5ff0ef          	jal	ra,20015978 <__metal_driver_sifive_gpio0_base>
20015fc8:	87aa                	mv	a5,a0
20015fca:	fef42623          	sw	a5,-20(s0)
/home/nicoladgg/wsFreedomStudio/sifive_hifive1_revb_hello/freedom-metal/src/drivers/sifive_gpio0.c:114
20015fce:	fec42783          	lw	a5,-20(s0)
20015fd2:	03878793          	addi	a5,a5,56
20015fd6:	439c                	lw	a5,0(a5)
/home/nicoladgg/wsFreedomStudio/sifive_hifive1_revb_hello/freedom-metal/src/drivers/sifive_gpio0.c:115
20015fd8:	fd842703          	lw	a4,-40(s0)
20015fdc:	fff74713          	not	a4,a4
20015fe0:	86ba                	mv	a3,a4
/home/nicoladgg/wsFreedomStudio/sifive_hifive1_revb_hello/freedom-metal/src/drivers/sifive_gpio0.c:114
20015fe2:	fec42703          	lw	a4,-20(s0)
20015fe6:	03870713          	addi	a4,a4,56
20015fea:	8ff5                	and	a5,a5,a3
20015fec:	c31c                	sw	a5,0(a4)
/home/nicoladgg/wsFreedomStudio/sifive_hifive1_revb_hello/freedom-metal/src/drivers/sifive_gpio0.c:117
20015fee:	4781                	li	a5,0
/home/nicoladgg/wsFreedomStudio/sifive_hifive1_revb_hello/freedom-metal/src/drivers/sifive_gpio0.c:118
20015ff0:	853e                	mv	a0,a5
20015ff2:	50b2                	lw	ra,44(sp)
20015ff4:	5422                	lw	s0,40(sp)
20015ff6:	6145                	addi	sp,sp,48
20015ff8:	8082                	ret

20015ffa <__metal_driver_sifive_gpio0_config_int>:
__metal_driver_sifive_gpio0_config_int():
/home/nicoladgg/wsFreedomStudio/sifive_hifive1_revb_hello/freedom-metal/src/drivers/sifive_gpio0.c:121
20015ffa:	7179                	addi	sp,sp,-48
20015ffc:	d606                	sw	ra,44(sp)
20015ffe:	d422                	sw	s0,40(sp)
20016000:	1800                	addi	s0,sp,48
20016002:	fca42e23          	sw	a0,-36(s0)
20016006:	fcb42c23          	sw	a1,-40(s0)
2001600a:	fcc42a23          	sw	a2,-44(s0)
/home/nicoladgg/wsFreedomStudio/sifive_hifive1_revb_hello/freedom-metal/src/drivers/sifive_gpio0.c:122
2001600e:	fdc42503          	lw	a0,-36(s0)
20016012:	967ff0ef          	jal	ra,20015978 <__metal_driver_sifive_gpio0_base>
20016016:	87aa                	mv	a5,a0
20016018:	fef42623          	sw	a5,-20(s0)
2001601c:	fd442703          	lw	a4,-44(s0)
20016020:	479d                	li	a5,7
20016022:	1ce7e963          	bltu	a5,a4,200161f4 <__metal_driver_sifive_gpio0_config_int+0x1fa>
20016026:	fd442783          	lw	a5,-44(s0)
2001602a:	00279713          	slli	a4,a5,0x2
2001602e:	200117b7          	lui	a5,0x20011
20016032:	edc78793          	addi	a5,a5,-292 # 20010edc <__metal_driver_vtable_sifive_fe310_g000_pll+0xc>
20016036:	97ba                	add	a5,a5,a4
20016038:	439c                	lw	a5,0(a5)
2001603a:	8782                	jr	a5
/home/nicoladgg/wsFreedomStudio/sifive_hifive1_revb_hello/freedom-metal/src/drivers/sifive_gpio0.c:127
2001603c:	fec42783          	lw	a5,-20(s0)
20016040:	07e1                	addi	a5,a5,24
20016042:	439c                	lw	a5,0(a5)
20016044:	fd842703          	lw	a4,-40(s0)
20016048:	fff74713          	not	a4,a4
2001604c:	86ba                	mv	a3,a4
2001604e:	fec42703          	lw	a4,-20(s0)
20016052:	0761                	addi	a4,a4,24
20016054:	8ff5                	and	a5,a5,a3
20016056:	c31c                	sw	a5,0(a4)
/home/nicoladgg/wsFreedomStudio/sifive_hifive1_revb_hello/freedom-metal/src/drivers/sifive_gpio0.c:129
20016058:	fec42783          	lw	a5,-20(s0)
2001605c:	02078793          	addi	a5,a5,32
20016060:	439c                	lw	a5,0(a5)
20016062:	fd842703          	lw	a4,-40(s0)
20016066:	fff74713          	not	a4,a4
2001606a:	86ba                	mv	a3,a4
2001606c:	fec42703          	lw	a4,-20(s0)
20016070:	02070713          	addi	a4,a4,32
20016074:	8ff5                	and	a5,a5,a3
20016076:	c31c                	sw	a5,0(a4)
/home/nicoladgg/wsFreedomStudio/sifive_hifive1_revb_hello/freedom-metal/src/drivers/sifive_gpio0.c:131
20016078:	fec42783          	lw	a5,-20(s0)
2001607c:	02878793          	addi	a5,a5,40
20016080:	439c                	lw	a5,0(a5)
20016082:	fd842703          	lw	a4,-40(s0)
20016086:	fff74713          	not	a4,a4
2001608a:	86ba                	mv	a3,a4
2001608c:	fec42703          	lw	a4,-20(s0)
20016090:	02870713          	addi	a4,a4,40
20016094:	8ff5                	and	a5,a5,a3
20016096:	c31c                	sw	a5,0(a4)
/home/nicoladgg/wsFreedomStudio/sifive_hifive1_revb_hello/freedom-metal/src/drivers/sifive_gpio0.c:133
20016098:	fec42783          	lw	a5,-20(s0)
2001609c:	03078793          	addi	a5,a5,48
200160a0:	439c                	lw	a5,0(a5)
200160a2:	fd842703          	lw	a4,-40(s0)
200160a6:	fff74713          	not	a4,a4
200160aa:	86ba                	mv	a3,a4
200160ac:	fec42703          	lw	a4,-20(s0)
200160b0:	03070713          	addi	a4,a4,48
200160b4:	8ff5                	and	a5,a5,a3
200160b6:	c31c                	sw	a5,0(a4)
/home/nicoladgg/wsFreedomStudio/sifive_hifive1_revb_hello/freedom-metal/src/drivers/sifive_gpio0.c:134
200160b8:	aa35                	j	200161f4 <__metal_driver_sifive_gpio0_config_int+0x1fa>
/home/nicoladgg/wsFreedomStudio/sifive_hifive1_revb_hello/freedom-metal/src/drivers/sifive_gpio0.c:137
200160ba:	fec42783          	lw	a5,-20(s0)
200160be:	07e1                	addi	a5,a5,24
200160c0:	4398                	lw	a4,0(a5)
200160c2:	fd842783          	lw	a5,-40(s0)
200160c6:	fec42683          	lw	a3,-20(s0)
200160ca:	06e1                	addi	a3,a3,24
200160cc:	8fd9                	or	a5,a5,a4
200160ce:	c29c                	sw	a5,0(a3)
/home/nicoladgg/wsFreedomStudio/sifive_hifive1_revb_hello/freedom-metal/src/drivers/sifive_gpio0.c:138
200160d0:	a215                	j	200161f4 <__metal_driver_sifive_gpio0_config_int+0x1fa>
/home/nicoladgg/wsFreedomStudio/sifive_hifive1_revb_hello/freedom-metal/src/drivers/sifive_gpio0.c:141
200160d2:	fec42783          	lw	a5,-20(s0)
200160d6:	02078793          	addi	a5,a5,32
200160da:	4398                	lw	a4,0(a5)
200160dc:	fd842783          	lw	a5,-40(s0)
200160e0:	fec42683          	lw	a3,-20(s0)
200160e4:	02068693          	addi	a3,a3,32
200160e8:	8fd9                	or	a5,a5,a4
200160ea:	c29c                	sw	a5,0(a3)
/home/nicoladgg/wsFreedomStudio/sifive_hifive1_revb_hello/freedom-metal/src/drivers/sifive_gpio0.c:142
200160ec:	a221                	j	200161f4 <__metal_driver_sifive_gpio0_config_int+0x1fa>
/home/nicoladgg/wsFreedomStudio/sifive_hifive1_revb_hello/freedom-metal/src/drivers/sifive_gpio0.c:145
200160ee:	fec42783          	lw	a5,-20(s0)
200160f2:	07e1                	addi	a5,a5,24
200160f4:	4398                	lw	a4,0(a5)
200160f6:	fd842783          	lw	a5,-40(s0)
200160fa:	fec42683          	lw	a3,-20(s0)
200160fe:	06e1                	addi	a3,a3,24
20016100:	8fd9                	or	a5,a5,a4
20016102:	c29c                	sw	a5,0(a3)
/home/nicoladgg/wsFreedomStudio/sifive_hifive1_revb_hello/freedom-metal/src/drivers/sifive_gpio0.c:147
20016104:	fec42783          	lw	a5,-20(s0)
20016108:	02078793          	addi	a5,a5,32
2001610c:	4398                	lw	a4,0(a5)
2001610e:	fd842783          	lw	a5,-40(s0)
20016112:	fec42683          	lw	a3,-20(s0)
20016116:	02068693          	addi	a3,a3,32
2001611a:	8fd9                	or	a5,a5,a4
2001611c:	c29c                	sw	a5,0(a3)
/home/nicoladgg/wsFreedomStudio/sifive_hifive1_revb_hello/freedom-metal/src/drivers/sifive_gpio0.c:148
2001611e:	a8d9                	j	200161f4 <__metal_driver_sifive_gpio0_config_int+0x1fa>
/home/nicoladgg/wsFreedomStudio/sifive_hifive1_revb_hello/freedom-metal/src/drivers/sifive_gpio0.c:151
20016120:	fec42783          	lw	a5,-20(s0)
20016124:	02878793          	addi	a5,a5,40
20016128:	4398                	lw	a4,0(a5)
2001612a:	fd842783          	lw	a5,-40(s0)
2001612e:	fec42683          	lw	a3,-20(s0)
20016132:	02868693          	addi	a3,a3,40
20016136:	8fd9                	or	a5,a5,a4
20016138:	c29c                	sw	a5,0(a3)
/home/nicoladgg/wsFreedomStudio/sifive_hifive1_revb_hello/freedom-metal/src/drivers/sifive_gpio0.c:152
2001613a:	a86d                	j	200161f4 <__metal_driver_sifive_gpio0_config_int+0x1fa>
/home/nicoladgg/wsFreedomStudio/sifive_hifive1_revb_hello/freedom-metal/src/drivers/sifive_gpio0.c:155
2001613c:	fec42783          	lw	a5,-20(s0)
20016140:	03078793          	addi	a5,a5,48
20016144:	4398                	lw	a4,0(a5)
20016146:	fd842783          	lw	a5,-40(s0)
2001614a:	fec42683          	lw	a3,-20(s0)
2001614e:	03068693          	addi	a3,a3,48
20016152:	8fd9                	or	a5,a5,a4
20016154:	c29c                	sw	a5,0(a3)
/home/nicoladgg/wsFreedomStudio/sifive_hifive1_revb_hello/freedom-metal/src/drivers/sifive_gpio0.c:156
20016156:	a879                	j	200161f4 <__metal_driver_sifive_gpio0_config_int+0x1fa>
/home/nicoladgg/wsFreedomStudio/sifive_hifive1_revb_hello/freedom-metal/src/drivers/sifive_gpio0.c:159
20016158:	fec42783          	lw	a5,-20(s0)
2001615c:	02878793          	addi	a5,a5,40
20016160:	4398                	lw	a4,0(a5)
20016162:	fd842783          	lw	a5,-40(s0)
20016166:	fec42683          	lw	a3,-20(s0)
2001616a:	02868693          	addi	a3,a3,40
2001616e:	8fd9                	or	a5,a5,a4
20016170:	c29c                	sw	a5,0(a3)
/home/nicoladgg/wsFreedomStudio/sifive_hifive1_revb_hello/freedom-metal/src/drivers/sifive_gpio0.c:161
20016172:	fec42783          	lw	a5,-20(s0)
20016176:	03078793          	addi	a5,a5,48
2001617a:	4398                	lw	a4,0(a5)
2001617c:	fd842783          	lw	a5,-40(s0)
20016180:	fec42683          	lw	a3,-20(s0)
20016184:	03068693          	addi	a3,a3,48
20016188:	8fd9                	or	a5,a5,a4
2001618a:	c29c                	sw	a5,0(a3)
/home/nicoladgg/wsFreedomStudio/sifive_hifive1_revb_hello/freedom-metal/src/drivers/sifive_gpio0.c:162
2001618c:	a0a5                	j	200161f4 <__metal_driver_sifive_gpio0_config_int+0x1fa>
/home/nicoladgg/wsFreedomStudio/sifive_hifive1_revb_hello/freedom-metal/src/drivers/sifive_gpio0.c:165
2001618e:	fec42783          	lw	a5,-20(s0)
20016192:	07e1                	addi	a5,a5,24
20016194:	4398                	lw	a4,0(a5)
20016196:	fd842783          	lw	a5,-40(s0)
2001619a:	fec42683          	lw	a3,-20(s0)
2001619e:	06e1                	addi	a3,a3,24
200161a0:	8fd9                	or	a5,a5,a4
200161a2:	c29c                	sw	a5,0(a3)
/home/nicoladgg/wsFreedomStudio/sifive_hifive1_revb_hello/freedom-metal/src/drivers/sifive_gpio0.c:167
200161a4:	fec42783          	lw	a5,-20(s0)
200161a8:	02078793          	addi	a5,a5,32
200161ac:	4398                	lw	a4,0(a5)
200161ae:	fd842783          	lw	a5,-40(s0)
200161b2:	fec42683          	lw	a3,-20(s0)
200161b6:	02068693          	addi	a3,a3,32
200161ba:	8fd9                	or	a5,a5,a4
200161bc:	c29c                	sw	a5,0(a3)
/home/nicoladgg/wsFreedomStudio/sifive_hifive1_revb_hello/freedom-metal/src/drivers/sifive_gpio0.c:169
200161be:	fec42783          	lw	a5,-20(s0)
200161c2:	02878793          	addi	a5,a5,40
200161c6:	4398                	lw	a4,0(a5)
200161c8:	fd842783          	lw	a5,-40(s0)
200161cc:	fec42683          	lw	a3,-20(s0)
200161d0:	02868693          	addi	a3,a3,40
200161d4:	8fd9                	or	a5,a5,a4
200161d6:	c29c                	sw	a5,0(a3)
/home/nicoladgg/wsFreedomStudio/sifive_hifive1_revb_hello/freedom-metal/src/drivers/sifive_gpio0.c:171
200161d8:	fec42783          	lw	a5,-20(s0)
200161dc:	03078793          	addi	a5,a5,48
200161e0:	4398                	lw	a4,0(a5)
200161e2:	fd842783          	lw	a5,-40(s0)
200161e6:	fec42683          	lw	a3,-20(s0)
200161ea:	03068693          	addi	a3,a3,48
200161ee:	8fd9                	or	a5,a5,a4
200161f0:	c29c                	sw	a5,0(a3)
/home/nicoladgg/wsFreedomStudio/sifive_hifive1_revb_hello/freedom-metal/src/drivers/sifive_gpio0.c:172
200161f2:	0001                	nop
/home/nicoladgg/wsFreedomStudio/sifive_hifive1_revb_hello/freedom-metal/src/drivers/sifive_gpio0.c:174
200161f4:	4781                	li	a5,0
/home/nicoladgg/wsFreedomStudio/sifive_hifive1_revb_hello/freedom-metal/src/drivers/sifive_gpio0.c:175
200161f6:	853e                	mv	a0,a5
200161f8:	50b2                	lw	ra,44(sp)
200161fa:	5422                	lw	s0,40(sp)
200161fc:	6145                	addi	sp,sp,48
200161fe:	8082                	ret

20016200 <__metal_driver_sifive_gpio0_clear_int>:
__metal_driver_sifive_gpio0_clear_int():
/home/nicoladgg/wsFreedomStudio/sifive_hifive1_revb_hello/freedom-metal/src/drivers/sifive_gpio0.c:178
20016200:	7179                	addi	sp,sp,-48
20016202:	d606                	sw	ra,44(sp)
20016204:	d422                	sw	s0,40(sp)
20016206:	1800                	addi	s0,sp,48
20016208:	fca42e23          	sw	a0,-36(s0)
2001620c:	fcb42c23          	sw	a1,-40(s0)
20016210:	fcc42a23          	sw	a2,-44(s0)
/home/nicoladgg/wsFreedomStudio/sifive_hifive1_revb_hello/freedom-metal/src/drivers/sifive_gpio0.c:179
20016214:	fdc42503          	lw	a0,-36(s0)
20016218:	f60ff0ef          	jal	ra,20015978 <__metal_driver_sifive_gpio0_base>
2001621c:	87aa                	mv	a5,a0
2001621e:	fef42623          	sw	a5,-20(s0)
20016222:	fd442703          	lw	a4,-44(s0)
20016226:	479d                	li	a5,7
20016228:	14e7ea63          	bltu	a5,a4,2001637c <__metal_driver_sifive_gpio0_clear_int+0x17c>
2001622c:	fd442783          	lw	a5,-44(s0)
20016230:	00279713          	slli	a4,a5,0x2
20016234:	200117b7          	lui	a5,0x20011
20016238:	efc78793          	addi	a5,a5,-260 # 20010efc <__metal_driver_vtable_sifive_fe310_g000_pll+0x2c>
2001623c:	97ba                	add	a5,a5,a4
2001623e:	439c                	lw	a5,0(a5)
20016240:	8782                	jr	a5
/home/nicoladgg/wsFreedomStudio/sifive_hifive1_revb_hello/freedom-metal/src/drivers/sifive_gpio0.c:184
20016242:	fec42783          	lw	a5,-20(s0)
20016246:	07f1                	addi	a5,a5,28
20016248:	4398                	lw	a4,0(a5)
2001624a:	fd842783          	lw	a5,-40(s0)
2001624e:	fec42683          	lw	a3,-20(s0)
20016252:	06f1                	addi	a3,a3,28
20016254:	8fd9                	or	a5,a5,a4
20016256:	c29c                	sw	a5,0(a3)
/home/nicoladgg/wsFreedomStudio/sifive_hifive1_revb_hello/freedom-metal/src/drivers/sifive_gpio0.c:185
20016258:	a215                	j	2001637c <__metal_driver_sifive_gpio0_clear_int+0x17c>
/home/nicoladgg/wsFreedomStudio/sifive_hifive1_revb_hello/freedom-metal/src/drivers/sifive_gpio0.c:188
2001625a:	fec42783          	lw	a5,-20(s0)
2001625e:	02478793          	addi	a5,a5,36
20016262:	4398                	lw	a4,0(a5)
20016264:	fd842783          	lw	a5,-40(s0)
20016268:	fec42683          	lw	a3,-20(s0)
2001626c:	02468693          	addi	a3,a3,36
20016270:	8fd9                	or	a5,a5,a4
20016272:	c29c                	sw	a5,0(a3)
/home/nicoladgg/wsFreedomStudio/sifive_hifive1_revb_hello/freedom-metal/src/drivers/sifive_gpio0.c:189
20016274:	a221                	j	2001637c <__metal_driver_sifive_gpio0_clear_int+0x17c>
/home/nicoladgg/wsFreedomStudio/sifive_hifive1_revb_hello/freedom-metal/src/drivers/sifive_gpio0.c:192
20016276:	fec42783          	lw	a5,-20(s0)
2001627a:	07f1                	addi	a5,a5,28
2001627c:	4398                	lw	a4,0(a5)
2001627e:	fd842783          	lw	a5,-40(s0)
20016282:	fec42683          	lw	a3,-20(s0)
20016286:	06f1                	addi	a3,a3,28
20016288:	8fd9                	or	a5,a5,a4
2001628a:	c29c                	sw	a5,0(a3)
/home/nicoladgg/wsFreedomStudio/sifive_hifive1_revb_hello/freedom-metal/src/drivers/sifive_gpio0.c:194
2001628c:	fec42783          	lw	a5,-20(s0)
20016290:	02478793          	addi	a5,a5,36
20016294:	4398                	lw	a4,0(a5)
20016296:	fd842783          	lw	a5,-40(s0)
2001629a:	fec42683          	lw	a3,-20(s0)
2001629e:	02468693          	addi	a3,a3,36
200162a2:	8fd9                	or	a5,a5,a4
200162a4:	c29c                	sw	a5,0(a3)
/home/nicoladgg/wsFreedomStudio/sifive_hifive1_revb_hello/freedom-metal/src/drivers/sifive_gpio0.c:195
200162a6:	a8d9                	j	2001637c <__metal_driver_sifive_gpio0_clear_int+0x17c>
/home/nicoladgg/wsFreedomStudio/sifive_hifive1_revb_hello/freedom-metal/src/drivers/sifive_gpio0.c:198
200162a8:	fec42783          	lw	a5,-20(s0)
200162ac:	02c78793          	addi	a5,a5,44
200162b0:	4398                	lw	a4,0(a5)
200162b2:	fd842783          	lw	a5,-40(s0)
200162b6:	fec42683          	lw	a3,-20(s0)
200162ba:	02c68693          	addi	a3,a3,44
200162be:	8fd9                	or	a5,a5,a4
200162c0:	c29c                	sw	a5,0(a3)
/home/nicoladgg/wsFreedomStudio/sifive_hifive1_revb_hello/freedom-metal/src/drivers/sifive_gpio0.c:199
200162c2:	a86d                	j	2001637c <__metal_driver_sifive_gpio0_clear_int+0x17c>
/home/nicoladgg/wsFreedomStudio/sifive_hifive1_revb_hello/freedom-metal/src/drivers/sifive_gpio0.c:202
200162c4:	fec42783          	lw	a5,-20(s0)
200162c8:	03478793          	addi	a5,a5,52
200162cc:	4398                	lw	a4,0(a5)
200162ce:	fd842783          	lw	a5,-40(s0)
200162d2:	fec42683          	lw	a3,-20(s0)
200162d6:	03468693          	addi	a3,a3,52
200162da:	8fd9                	or	a5,a5,a4
200162dc:	c29c                	sw	a5,0(a3)
/home/nicoladgg/wsFreedomStudio/sifive_hifive1_revb_hello/freedom-metal/src/drivers/sifive_gpio0.c:203
200162de:	a879                	j	2001637c <__metal_driver_sifive_gpio0_clear_int+0x17c>
/home/nicoladgg/wsFreedomStudio/sifive_hifive1_revb_hello/freedom-metal/src/drivers/sifive_gpio0.c:206
200162e0:	fec42783          	lw	a5,-20(s0)
200162e4:	02c78793          	addi	a5,a5,44
200162e8:	4398                	lw	a4,0(a5)
200162ea:	fd842783          	lw	a5,-40(s0)
200162ee:	fec42683          	lw	a3,-20(s0)
200162f2:	02c68693          	addi	a3,a3,44
200162f6:	8fd9                	or	a5,a5,a4
200162f8:	c29c                	sw	a5,0(a3)
/home/nicoladgg/wsFreedomStudio/sifive_hifive1_revb_hello/freedom-metal/src/drivers/sifive_gpio0.c:208
200162fa:	fec42783          	lw	a5,-20(s0)
200162fe:	03478793          	addi	a5,a5,52
20016302:	4398                	lw	a4,0(a5)
20016304:	fd842783          	lw	a5,-40(s0)
20016308:	fec42683          	lw	a3,-20(s0)
2001630c:	03468693          	addi	a3,a3,52
20016310:	8fd9                	or	a5,a5,a4
20016312:	c29c                	sw	a5,0(a3)
/home/nicoladgg/wsFreedomStudio/sifive_hifive1_revb_hello/freedom-metal/src/drivers/sifive_gpio0.c:209
20016314:	a0a5                	j	2001637c <__metal_driver_sifive_gpio0_clear_int+0x17c>
/home/nicoladgg/wsFreedomStudio/sifive_hifive1_revb_hello/freedom-metal/src/drivers/sifive_gpio0.c:212
20016316:	fec42783          	lw	a5,-20(s0)
2001631a:	07f1                	addi	a5,a5,28
2001631c:	4398                	lw	a4,0(a5)
2001631e:	fd842783          	lw	a5,-40(s0)
20016322:	fec42683          	lw	a3,-20(s0)
20016326:	06f1                	addi	a3,a3,28
20016328:	8fd9                	or	a5,a5,a4
2001632a:	c29c                	sw	a5,0(a3)
/home/nicoladgg/wsFreedomStudio/sifive_hifive1_revb_hello/freedom-metal/src/drivers/sifive_gpio0.c:214
2001632c:	fec42783          	lw	a5,-20(s0)
20016330:	02478793          	addi	a5,a5,36
20016334:	4398                	lw	a4,0(a5)
20016336:	fd842783          	lw	a5,-40(s0)
2001633a:	fec42683          	lw	a3,-20(s0)
2001633e:	02468693          	addi	a3,a3,36
20016342:	8fd9                	or	a5,a5,a4
20016344:	c29c                	sw	a5,0(a3)
/home/nicoladgg/wsFreedomStudio/sifive_hifive1_revb_hello/freedom-metal/src/drivers/sifive_gpio0.c:216
20016346:	fec42783          	lw	a5,-20(s0)
2001634a:	02c78793          	addi	a5,a5,44
2001634e:	4398                	lw	a4,0(a5)
20016350:	fd842783          	lw	a5,-40(s0)
20016354:	fec42683          	lw	a3,-20(s0)
20016358:	02c68693          	addi	a3,a3,44
2001635c:	8fd9                	or	a5,a5,a4
2001635e:	c29c                	sw	a5,0(a3)
/home/nicoladgg/wsFreedomStudio/sifive_hifive1_revb_hello/freedom-metal/src/drivers/sifive_gpio0.c:218
20016360:	fec42783          	lw	a5,-20(s0)
20016364:	03478793          	addi	a5,a5,52
20016368:	4398                	lw	a4,0(a5)
2001636a:	fd842783          	lw	a5,-40(s0)
2001636e:	fec42683          	lw	a3,-20(s0)
20016372:	03468693          	addi	a3,a3,52
20016376:	8fd9                	or	a5,a5,a4
20016378:	c29c                	sw	a5,0(a3)
/home/nicoladgg/wsFreedomStudio/sifive_hifive1_revb_hello/freedom-metal/src/drivers/sifive_gpio0.c:219
2001637a:	0001                	nop
/home/nicoladgg/wsFreedomStudio/sifive_hifive1_revb_hello/freedom-metal/src/drivers/sifive_gpio0.c:221
2001637c:	4781                	li	a5,0
/home/nicoladgg/wsFreedomStudio/sifive_hifive1_revb_hello/freedom-metal/src/drivers/sifive_gpio0.c:222
2001637e:	853e                	mv	a0,a5
20016380:	50b2                	lw	ra,44(sp)
20016382:	5422                	lw	s0,40(sp)
20016384:	6145                	addi	sp,sp,48
20016386:	8082                	ret

20016388 <__metal_driver_gpio_interrupt_controller>:
__metal_driver_gpio_interrupt_controller():
/home/nicoladgg/wsFreedomStudio/sifive_hifive1_revb_hello/freedom-metal/src/drivers/sifive_gpio0.c:225
20016388:	1101                	addi	sp,sp,-32
2001638a:	ce06                	sw	ra,28(sp)
2001638c:	cc22                	sw	s0,24(sp)
2001638e:	1000                	addi	s0,sp,32
20016390:	fea42623          	sw	a0,-20(s0)
/home/nicoladgg/wsFreedomStudio/sifive_hifive1_revb_hello/freedom-metal/src/drivers/sifive_gpio0.c:226
20016394:	fec42503          	lw	a0,-20(s0)
20016398:	e06ff0ef          	jal	ra,2001599e <__metal_driver_sifive_gpio0_interrupt_parent>
2001639c:	87aa                	mv	a5,a0
/home/nicoladgg/wsFreedomStudio/sifive_hifive1_revb_hello/freedom-metal/src/drivers/sifive_gpio0.c:227
2001639e:	853e                	mv	a0,a5
200163a0:	40f2                	lw	ra,28(sp)
200163a2:	4462                	lw	s0,24(sp)
200163a4:	6105                	addi	sp,sp,32
200163a6:	8082                	ret

200163a8 <__metal_driver_gpio_get_interrupt_id>:
__metal_driver_gpio_get_interrupt_id():
/home/nicoladgg/wsFreedomStudio/sifive_hifive1_revb_hello/freedom-metal/src/drivers/sifive_gpio0.c:229
200163a8:	7179                	addi	sp,sp,-48
200163aa:	d606                	sw	ra,44(sp)
200163ac:	d422                	sw	s0,40(sp)
200163ae:	1800                	addi	s0,sp,48
200163b0:	fca42e23          	sw	a0,-36(s0)
200163b4:	fcb42c23          	sw	a1,-40(s0)
/home/nicoladgg/wsFreedomStudio/sifive_hifive1_revb_hello/freedom-metal/src/drivers/sifive_gpio0.c:231
200163b8:	fd842583          	lw	a1,-40(s0)
200163bc:	fdc42503          	lw	a0,-36(s0)
200163c0:	e08ff0ef          	jal	ra,200159c8 <__metal_driver_sifive_gpio0_interrupt_lines>
200163c4:	fea42623          	sw	a0,-20(s0)
/home/nicoladgg/wsFreedomStudio/sifive_hifive1_revb_hello/freedom-metal/src/drivers/sifive_gpio0.c:232
200163c8:	fec42783          	lw	a5,-20(s0)
/home/nicoladgg/wsFreedomStudio/sifive_hifive1_revb_hello/freedom-metal/src/drivers/sifive_gpio0.c:233
200163cc:	853e                	mv	a0,a5
200163ce:	50b2                	lw	ra,44(sp)
200163d0:	5422                	lw	s0,40(sp)
200163d2:	6145                	addi	sp,sp,48
200163d4:	8082                	ret

200163d6 <__metal_driver_sifive_uart0_control_base>:
__metal_driver_sifive_uart0_control_base():
/home/nicoladgg/wsFreedomStudio/sifive_hifive1_revb_hello/bsp/build/debug/./metal/machine.h:1066
200163d6:	1101                	addi	sp,sp,-32
200163d8:	ce22                	sw	s0,28(sp)
200163da:	1000                	addi	s0,sp,32
200163dc:	fea42623          	sw	a0,-20(s0)
/home/nicoladgg/wsFreedomStudio/sifive_hifive1_revb_hello/bsp/build/debug/./metal/machine.h:1067
200163e0:	fec42703          	lw	a4,-20(s0)
200163e4:	800017b7          	lui	a5,0x80001
200163e8:	a3878793          	addi	a5,a5,-1480 # 80000a38 <metal_segment_heap_target_end+0xfffff2b8>
200163ec:	00f71563          	bne	a4,a5,200163f6 <__metal_driver_sifive_uart0_control_base+0x20>
/home/nicoladgg/wsFreedomStudio/sifive_hifive1_revb_hello/bsp/build/debug/./metal/machine.h:1068
200163f0:	100137b7          	lui	a5,0x10013
200163f4:	a829                	j	2001640e <__metal_driver_sifive_uart0_control_base+0x38>
/home/nicoladgg/wsFreedomStudio/sifive_hifive1_revb_hello/bsp/build/debug/./metal/machine.h:1070
200163f6:	fec42703          	lw	a4,-20(s0)
200163fa:	800017b7          	lui	a5,0x80001
200163fe:	a5878793          	addi	a5,a5,-1448 # 80000a58 <metal_segment_heap_target_end+0xfffff2d8>
20016402:	00f71563          	bne	a4,a5,2001640c <__metal_driver_sifive_uart0_control_base+0x36>
/home/nicoladgg/wsFreedomStudio/sifive_hifive1_revb_hello/bsp/build/debug/./metal/machine.h:1071
20016406:	100237b7          	lui	a5,0x10023
2001640a:	a011                	j	2001640e <__metal_driver_sifive_uart0_control_base+0x38>
/home/nicoladgg/wsFreedomStudio/sifive_hifive1_revb_hello/bsp/build/debug/./metal/machine.h:1074
2001640c:	4781                	li	a5,0
/home/nicoladgg/wsFreedomStudio/sifive_hifive1_revb_hello/bsp/build/debug/./metal/machine.h:1076
2001640e:	853e                	mv	a0,a5
20016410:	4472                	lw	s0,28(sp)
20016412:	6105                	addi	sp,sp,32
20016414:	8082                	ret

20016416 <__metal_driver_sifive_uart0_interrupt_parent>:
__metal_driver_sifive_uart0_interrupt_parent():
/home/nicoladgg/wsFreedomStudio/sifive_hifive1_revb_hello/bsp/build/debug/./metal/machine.h:1105
20016416:	1101                	addi	sp,sp,-32
20016418:	ce22                	sw	s0,28(sp)
2001641a:	1000                	addi	s0,sp,32
2001641c:	fea42623          	sw	a0,-20(s0)
/home/nicoladgg/wsFreedomStudio/sifive_hifive1_revb_hello/bsp/build/debug/./metal/machine.h:1106
20016420:	fec42703          	lw	a4,-20(s0)
20016424:	800017b7          	lui	a5,0x80001
20016428:	a3878793          	addi	a5,a5,-1480 # 80000a38 <metal_segment_heap_target_end+0xfffff2b8>
2001642c:	00f71763          	bne	a4,a5,2001643a <__metal_driver_sifive_uart0_interrupt_parent+0x24>
/home/nicoladgg/wsFreedomStudio/sifive_hifive1_revb_hello/bsp/build/debug/./metal/machine.h:1107
20016430:	800007b7          	lui	a5,0x80000
20016434:	46078793          	addi	a5,a5,1120 # 80000460 <metal_segment_heap_target_end+0xffffece0>
20016438:	a839                	j	20016456 <__metal_driver_sifive_uart0_interrupt_parent+0x40>
/home/nicoladgg/wsFreedomStudio/sifive_hifive1_revb_hello/bsp/build/debug/./metal/machine.h:1109
2001643a:	fec42703          	lw	a4,-20(s0)
2001643e:	800017b7          	lui	a5,0x80001
20016442:	a5878793          	addi	a5,a5,-1448 # 80000a58 <metal_segment_heap_target_end+0xfffff2d8>
20016446:	00f71763          	bne	a4,a5,20016454 <__metal_driver_sifive_uart0_interrupt_parent+0x3e>
/home/nicoladgg/wsFreedomStudio/sifive_hifive1_revb_hello/bsp/build/debug/./metal/machine.h:1110
2001644a:	800007b7          	lui	a5,0x80000
2001644e:	46078793          	addi	a5,a5,1120 # 80000460 <metal_segment_heap_target_end+0xffffece0>
20016452:	a011                	j	20016456 <__metal_driver_sifive_uart0_interrupt_parent+0x40>
/home/nicoladgg/wsFreedomStudio/sifive_hifive1_revb_hello/bsp/build/debug/./metal/machine.h:1113
20016454:	4781                	li	a5,0
/home/nicoladgg/wsFreedomStudio/sifive_hifive1_revb_hello/bsp/build/debug/./metal/machine.h:1115
20016456:	853e                	mv	a0,a5
20016458:	4472                	lw	s0,28(sp)
2001645a:	6105                	addi	sp,sp,32
2001645c:	8082                	ret

2001645e <__metal_driver_sifive_uart0_interrupt_line>:
__metal_driver_sifive_uart0_interrupt_line():
/home/nicoladgg/wsFreedomStudio/sifive_hifive1_revb_hello/bsp/build/debug/./metal/machine.h:1118
2001645e:	1101                	addi	sp,sp,-32
20016460:	ce22                	sw	s0,28(sp)
20016462:	1000                	addi	s0,sp,32
20016464:	fea42623          	sw	a0,-20(s0)
/home/nicoladgg/wsFreedomStudio/sifive_hifive1_revb_hello/bsp/build/debug/./metal/machine.h:1119
20016468:	fec42703          	lw	a4,-20(s0)
2001646c:	800017b7          	lui	a5,0x80001
20016470:	a3878793          	addi	a5,a5,-1480 # 80000a38 <metal_segment_heap_target_end+0xfffff2b8>
20016474:	00f71463          	bne	a4,a5,2001647c <__metal_driver_sifive_uart0_interrupt_line+0x1e>
/home/nicoladgg/wsFreedomStudio/sifive_hifive1_revb_hello/bsp/build/debug/./metal/machine.h:1120
20016478:	478d                	li	a5,3
2001647a:	a821                	j	20016492 <__metal_driver_sifive_uart0_interrupt_line+0x34>
/home/nicoladgg/wsFreedomStudio/sifive_hifive1_revb_hello/bsp/build/debug/./metal/machine.h:1122
2001647c:	fec42703          	lw	a4,-20(s0)
20016480:	800017b7          	lui	a5,0x80001
20016484:	a5878793          	addi	a5,a5,-1448 # 80000a58 <metal_segment_heap_target_end+0xfffff2d8>
20016488:	00f71463          	bne	a4,a5,20016490 <__metal_driver_sifive_uart0_interrupt_line+0x32>
/home/nicoladgg/wsFreedomStudio/sifive_hifive1_revb_hello/bsp/build/debug/./metal/machine.h:1123
2001648c:	4791                	li	a5,4
2001648e:	a011                	j	20016492 <__metal_driver_sifive_uart0_interrupt_line+0x34>
/home/nicoladgg/wsFreedomStudio/sifive_hifive1_revb_hello/bsp/build/debug/./metal/machine.h:1126
20016490:	4781                	li	a5,0
/home/nicoladgg/wsFreedomStudio/sifive_hifive1_revb_hello/bsp/build/debug/./metal/machine.h:1128
20016492:	853e                	mv	a0,a5
20016494:	4472                	lw	s0,28(sp)
20016496:	6105                	addi	sp,sp,32
20016498:	8082                	ret

2001649a <__metal_driver_sifive_uart0_clock>:
__metal_driver_sifive_uart0_clock():
/home/nicoladgg/wsFreedomStudio/sifive_hifive1_revb_hello/bsp/build/debug/./metal/machine.h:1131
2001649a:	1101                	addi	sp,sp,-32
2001649c:	ce22                	sw	s0,28(sp)
2001649e:	1000                	addi	s0,sp,32
200164a0:	fea42623          	sw	a0,-20(s0)
/home/nicoladgg/wsFreedomStudio/sifive_hifive1_revb_hello/bsp/build/debug/./metal/machine.h:1132
200164a4:	fec42703          	lw	a4,-20(s0)
200164a8:	800017b7          	lui	a5,0x80001
200164ac:	a3878793          	addi	a5,a5,-1480 # 80000a38 <metal_segment_heap_target_end+0xfffff2b8>
200164b0:	00f71763          	bne	a4,a5,200164be <__metal_driver_sifive_uart0_clock+0x24>
/home/nicoladgg/wsFreedomStudio/sifive_hifive1_revb_hello/bsp/build/debug/./metal/machine.h:1133
200164b4:	800017b7          	lui	a5,0x80001
200164b8:	a9078793          	addi	a5,a5,-1392 # 80000a90 <metal_segment_heap_target_end+0xfffff310>
200164bc:	a839                	j	200164da <__metal_driver_sifive_uart0_clock+0x40>
/home/nicoladgg/wsFreedomStudio/sifive_hifive1_revb_hello/bsp/build/debug/./metal/machine.h:1135
200164be:	fec42703          	lw	a4,-20(s0)
200164c2:	800017b7          	lui	a5,0x80001
200164c6:	a5878793          	addi	a5,a5,-1448 # 80000a58 <metal_segment_heap_target_end+0xfffff2d8>
200164ca:	00f71763          	bne	a4,a5,200164d8 <__metal_driver_sifive_uart0_clock+0x3e>
/home/nicoladgg/wsFreedomStudio/sifive_hifive1_revb_hello/bsp/build/debug/./metal/machine.h:1136
200164ce:	800017b7          	lui	a5,0x80001
200164d2:	a9078793          	addi	a5,a5,-1392 # 80000a90 <metal_segment_heap_target_end+0xfffff310>
200164d6:	a011                	j	200164da <__metal_driver_sifive_uart0_clock+0x40>
/home/nicoladgg/wsFreedomStudio/sifive_hifive1_revb_hello/bsp/build/debug/./metal/machine.h:1139
200164d8:	4781                	li	a5,0
/home/nicoladgg/wsFreedomStudio/sifive_hifive1_revb_hello/bsp/build/debug/./metal/machine.h:1141
200164da:	853e                	mv	a0,a5
200164dc:	4472                	lw	s0,28(sp)
200164de:	6105                	addi	sp,sp,32
200164e0:	8082                	ret

200164e2 <__metal_driver_sifive_uart0_pinmux>:
__metal_driver_sifive_uart0_pinmux():
/home/nicoladgg/wsFreedomStudio/sifive_hifive1_revb_hello/bsp/build/debug/./metal/machine.h:1144
200164e2:	1101                	addi	sp,sp,-32
200164e4:	ce22                	sw	s0,28(sp)
200164e6:	1000                	addi	s0,sp,32
200164e8:	fea42623          	sw	a0,-20(s0)
/home/nicoladgg/wsFreedomStudio/sifive_hifive1_revb_hello/bsp/build/debug/./metal/machine.h:1145
200164ec:	fec42703          	lw	a4,-20(s0)
200164f0:	800017b7          	lui	a5,0x80001
200164f4:	a3878793          	addi	a5,a5,-1480 # 80000a38 <metal_segment_heap_target_end+0xfffff2b8>
200164f8:	00f71563          	bne	a4,a5,20016502 <__metal_driver_sifive_uart0_pinmux+0x20>
/home/nicoladgg/wsFreedomStudio/sifive_hifive1_revb_hello/bsp/build/debug/./metal/machine.h:1146
200164fc:	81c18793          	addi	a5,gp,-2020 # 80000abc <__metal_dt_gpio_10012000>
20016500:	a829                	j	2001651a <__metal_driver_sifive_uart0_pinmux+0x38>
/home/nicoladgg/wsFreedomStudio/sifive_hifive1_revb_hello/bsp/build/debug/./metal/machine.h:1148
20016502:	fec42703          	lw	a4,-20(s0)
20016506:	800017b7          	lui	a5,0x80001
2001650a:	a5878793          	addi	a5,a5,-1448 # 80000a58 <metal_segment_heap_target_end+0xfffff2d8>
2001650e:	00f71563          	bne	a4,a5,20016518 <__metal_driver_sifive_uart0_pinmux+0x36>
/home/nicoladgg/wsFreedomStudio/sifive_hifive1_revb_hello/bsp/build/debug/./metal/machine.h:1149
20016512:	81c18793          	addi	a5,gp,-2020 # 80000abc <__metal_dt_gpio_10012000>
20016516:	a011                	j	2001651a <__metal_driver_sifive_uart0_pinmux+0x38>
/home/nicoladgg/wsFreedomStudio/sifive_hifive1_revb_hello/bsp/build/debug/./metal/machine.h:1152
20016518:	4781                	li	a5,0
/home/nicoladgg/wsFreedomStudio/sifive_hifive1_revb_hello/bsp/build/debug/./metal/machine.h:1154
2001651a:	853e                	mv	a0,a5
2001651c:	4472                	lw	s0,28(sp)
2001651e:	6105                	addi	sp,sp,32
20016520:	8082                	ret

20016522 <__metal_driver_sifive_uart0_pinmux_output_selector>:
__metal_driver_sifive_uart0_pinmux_output_selector():
/home/nicoladgg/wsFreedomStudio/sifive_hifive1_revb_hello/bsp/build/debug/./metal/machine.h:1157
20016522:	1101                	addi	sp,sp,-32
20016524:	ce22                	sw	s0,28(sp)
20016526:	1000                	addi	s0,sp,32
20016528:	fea42623          	sw	a0,-20(s0)
/home/nicoladgg/wsFreedomStudio/sifive_hifive1_revb_hello/bsp/build/debug/./metal/machine.h:1158
2001652c:	fec42703          	lw	a4,-20(s0)
20016530:	800017b7          	lui	a5,0x80001
20016534:	a3878793          	addi	a5,a5,-1480 # 80000a38 <metal_segment_heap_target_end+0xfffff2b8>
20016538:	00f71463          	bne	a4,a5,20016540 <__metal_driver_sifive_uart0_pinmux_output_selector+0x1e>
/home/nicoladgg/wsFreedomStudio/sifive_hifive1_revb_hello/bsp/build/debug/./metal/machine.h:1159
2001653c:	4781                	li	a5,0
2001653e:	a821                	j	20016556 <__metal_driver_sifive_uart0_pinmux_output_selector+0x34>
/home/nicoladgg/wsFreedomStudio/sifive_hifive1_revb_hello/bsp/build/debug/./metal/machine.h:1161
20016540:	fec42703          	lw	a4,-20(s0)
20016544:	800017b7          	lui	a5,0x80001
20016548:	a5878793          	addi	a5,a5,-1448 # 80000a58 <metal_segment_heap_target_end+0xfffff2d8>
2001654c:	00f71463          	bne	a4,a5,20016554 <__metal_driver_sifive_uart0_pinmux_output_selector+0x32>
/home/nicoladgg/wsFreedomStudio/sifive_hifive1_revb_hello/bsp/build/debug/./metal/machine.h:1162
20016550:	4781                	li	a5,0
20016552:	a011                	j	20016556 <__metal_driver_sifive_uart0_pinmux_output_selector+0x34>
/home/nicoladgg/wsFreedomStudio/sifive_hifive1_revb_hello/bsp/build/debug/./metal/machine.h:1165
20016554:	4781                	li	a5,0
/home/nicoladgg/wsFreedomStudio/sifive_hifive1_revb_hello/bsp/build/debug/./metal/machine.h:1167
20016556:	853e                	mv	a0,a5
20016558:	4472                	lw	s0,28(sp)
2001655a:	6105                	addi	sp,sp,32
2001655c:	8082                	ret

2001655e <__metal_driver_sifive_uart0_pinmux_source_selector>:
__metal_driver_sifive_uart0_pinmux_source_selector():
/home/nicoladgg/wsFreedomStudio/sifive_hifive1_revb_hello/bsp/build/debug/./metal/machine.h:1170
2001655e:	1101                	addi	sp,sp,-32
20016560:	ce22                	sw	s0,28(sp)
20016562:	1000                	addi	s0,sp,32
20016564:	fea42623          	sw	a0,-20(s0)
/home/nicoladgg/wsFreedomStudio/sifive_hifive1_revb_hello/bsp/build/debug/./metal/machine.h:1171
20016568:	fec42703          	lw	a4,-20(s0)
2001656c:	800017b7          	lui	a5,0x80001
20016570:	a3878793          	addi	a5,a5,-1480 # 80000a38 <metal_segment_heap_target_end+0xfffff2b8>
20016574:	00f71563          	bne	a4,a5,2001657e <__metal_driver_sifive_uart0_pinmux_source_selector+0x20>
/home/nicoladgg/wsFreedomStudio/sifive_hifive1_revb_hello/bsp/build/debug/./metal/machine.h:1172
20016578:	000307b7          	lui	a5,0x30
2001657c:	a829                	j	20016596 <__metal_driver_sifive_uart0_pinmux_source_selector+0x38>
/home/nicoladgg/wsFreedomStudio/sifive_hifive1_revb_hello/bsp/build/debug/./metal/machine.h:1174
2001657e:	fec42703          	lw	a4,-20(s0)
20016582:	800017b7          	lui	a5,0x80001
20016586:	a5878793          	addi	a5,a5,-1448 # 80000a58 <metal_segment_heap_target_end+0xfffff2d8>
2001658a:	00f71563          	bne	a4,a5,20016594 <__metal_driver_sifive_uart0_pinmux_source_selector+0x36>
/home/nicoladgg/wsFreedomStudio/sifive_hifive1_revb_hello/bsp/build/debug/./metal/machine.h:1175
2001658e:	008407b7          	lui	a5,0x840
20016592:	a011                	j	20016596 <__metal_driver_sifive_uart0_pinmux_source_selector+0x38>
/home/nicoladgg/wsFreedomStudio/sifive_hifive1_revb_hello/bsp/build/debug/./metal/machine.h:1178
20016594:	4781                	li	a5,0
/home/nicoladgg/wsFreedomStudio/sifive_hifive1_revb_hello/bsp/build/debug/./metal/machine.h:1180
20016596:	853e                	mv	a0,a5
20016598:	4472                	lw	s0,28(sp)
2001659a:	6105                	addi	sp,sp,32
2001659c:	8082                	ret

2001659e <__metal_driver_sifive_uart0_interrupt_controller>:
__metal_driver_sifive_uart0_interrupt_controller():
/home/nicoladgg/wsFreedomStudio/sifive_hifive1_revb_hello/freedom-metal/src/drivers/sifive_uart0.c:37
2001659e:	1101                	addi	sp,sp,-32
200165a0:	ce06                	sw	ra,28(sp)
200165a2:	cc22                	sw	s0,24(sp)
200165a4:	1000                	addi	s0,sp,32
200165a6:	fea42623          	sw	a0,-20(s0)
/home/nicoladgg/wsFreedomStudio/sifive_hifive1_revb_hello/freedom-metal/src/drivers/sifive_uart0.c:38
200165aa:	fec42503          	lw	a0,-20(s0)
200165ae:	e69ff0ef          	jal	ra,20016416 <__metal_driver_sifive_uart0_interrupt_parent>
200165b2:	87aa                	mv	a5,a0
/home/nicoladgg/wsFreedomStudio/sifive_hifive1_revb_hello/freedom-metal/src/drivers/sifive_uart0.c:39
200165b4:	853e                	mv	a0,a5
200165b6:	40f2                	lw	ra,28(sp)
200165b8:	4462                	lw	s0,24(sp)
200165ba:	6105                	addi	sp,sp,32
200165bc:	8082                	ret

200165be <__metal_driver_sifive_uart0_get_interrupt_id>:
__metal_driver_sifive_uart0_get_interrupt_id():
/home/nicoladgg/wsFreedomStudio/sifive_hifive1_revb_hello/freedom-metal/src/drivers/sifive_uart0.c:41
200165be:	1101                	addi	sp,sp,-32
200165c0:	ce06                	sw	ra,28(sp)
200165c2:	cc22                	sw	s0,24(sp)
200165c4:	1000                	addi	s0,sp,32
200165c6:	fea42623          	sw	a0,-20(s0)
/home/nicoladgg/wsFreedomStudio/sifive_hifive1_revb_hello/freedom-metal/src/drivers/sifive_uart0.c:42
200165ca:	fec42503          	lw	a0,-20(s0)
200165ce:	e91ff0ef          	jal	ra,2001645e <__metal_driver_sifive_uart0_interrupt_line>
200165d2:	87aa                	mv	a5,a0
/home/nicoladgg/wsFreedomStudio/sifive_hifive1_revb_hello/freedom-metal/src/drivers/sifive_uart0.c:43
200165d4:	853e                	mv	a0,a5
200165d6:	40f2                	lw	ra,28(sp)
200165d8:	4462                	lw	s0,24(sp)
200165da:	6105                	addi	sp,sp,32
200165dc:	8082                	ret

200165de <__metal_driver_sifive_uart0_tx_interrupt_enable>:
__metal_driver_sifive_uart0_tx_interrupt_enable():
/home/nicoladgg/wsFreedomStudio/sifive_hifive1_revb_hello/freedom-metal/src/drivers/sifive_uart0.c:45
200165de:	7179                	addi	sp,sp,-48
200165e0:	d606                	sw	ra,44(sp)
200165e2:	d422                	sw	s0,40(sp)
200165e4:	1800                	addi	s0,sp,48
200165e6:	fca42e23          	sw	a0,-36(s0)
/home/nicoladgg/wsFreedomStudio/sifive_hifive1_revb_hello/freedom-metal/src/drivers/sifive_uart0.c:46
200165ea:	fdc42503          	lw	a0,-36(s0)
200165ee:	de9ff0ef          	jal	ra,200163d6 <__metal_driver_sifive_uart0_control_base>
200165f2:	87aa                	mv	a5,a0
200165f4:	fef42623          	sw	a5,-20(s0)
/home/nicoladgg/wsFreedomStudio/sifive_hifive1_revb_hello/freedom-metal/src/drivers/sifive_uart0.c:48
200165f8:	fec42783          	lw	a5,-20(s0)
200165fc:	07c1                	addi	a5,a5,16
200165fe:	439c                	lw	a5,0(a5)
20016600:	fec42703          	lw	a4,-20(s0)
20016604:	0741                	addi	a4,a4,16
20016606:	0017e793          	ori	a5,a5,1
2001660a:	c31c                	sw	a5,0(a4)
/home/nicoladgg/wsFreedomStudio/sifive_hifive1_revb_hello/freedom-metal/src/drivers/sifive_uart0.c:49
2001660c:	4781                	li	a5,0
/home/nicoladgg/wsFreedomStudio/sifive_hifive1_revb_hello/freedom-metal/src/drivers/sifive_uart0.c:50
2001660e:	853e                	mv	a0,a5
20016610:	50b2                	lw	ra,44(sp)
20016612:	5422                	lw	s0,40(sp)
20016614:	6145                	addi	sp,sp,48
20016616:	8082                	ret

20016618 <__metal_driver_sifive_uart0_tx_interrupt_disable>:
__metal_driver_sifive_uart0_tx_interrupt_disable():
/home/nicoladgg/wsFreedomStudio/sifive_hifive1_revb_hello/freedom-metal/src/drivers/sifive_uart0.c:52
20016618:	7179                	addi	sp,sp,-48
2001661a:	d606                	sw	ra,44(sp)
2001661c:	d422                	sw	s0,40(sp)
2001661e:	1800                	addi	s0,sp,48
20016620:	fca42e23          	sw	a0,-36(s0)
/home/nicoladgg/wsFreedomStudio/sifive_hifive1_revb_hello/freedom-metal/src/drivers/sifive_uart0.c:53
20016624:	fdc42503          	lw	a0,-36(s0)
20016628:	dafff0ef          	jal	ra,200163d6 <__metal_driver_sifive_uart0_control_base>
2001662c:	87aa                	mv	a5,a0
2001662e:	fef42623          	sw	a5,-20(s0)
/home/nicoladgg/wsFreedomStudio/sifive_hifive1_revb_hello/freedom-metal/src/drivers/sifive_uart0.c:55
20016632:	fec42783          	lw	a5,-20(s0)
20016636:	07c1                	addi	a5,a5,16
20016638:	439c                	lw	a5,0(a5)
2001663a:	fec42703          	lw	a4,-20(s0)
2001663e:	0741                	addi	a4,a4,16
20016640:	9bf9                	andi	a5,a5,-2
20016642:	c31c                	sw	a5,0(a4)
/home/nicoladgg/wsFreedomStudio/sifive_hifive1_revb_hello/freedom-metal/src/drivers/sifive_uart0.c:56
20016644:	4781                	li	a5,0
/home/nicoladgg/wsFreedomStudio/sifive_hifive1_revb_hello/freedom-metal/src/drivers/sifive_uart0.c:57
20016646:	853e                	mv	a0,a5
20016648:	50b2                	lw	ra,44(sp)
2001664a:	5422                	lw	s0,40(sp)
2001664c:	6145                	addi	sp,sp,48
2001664e:	8082                	ret

20016650 <__metal_driver_sifive_uart0_rx_interrupt_enable>:
__metal_driver_sifive_uart0_rx_interrupt_enable():
/home/nicoladgg/wsFreedomStudio/sifive_hifive1_revb_hello/freedom-metal/src/drivers/sifive_uart0.c:59
20016650:	7179                	addi	sp,sp,-48
20016652:	d606                	sw	ra,44(sp)
20016654:	d422                	sw	s0,40(sp)
20016656:	1800                	addi	s0,sp,48
20016658:	fca42e23          	sw	a0,-36(s0)
/home/nicoladgg/wsFreedomStudio/sifive_hifive1_revb_hello/freedom-metal/src/drivers/sifive_uart0.c:60
2001665c:	fdc42503          	lw	a0,-36(s0)
20016660:	d77ff0ef          	jal	ra,200163d6 <__metal_driver_sifive_uart0_control_base>
20016664:	87aa                	mv	a5,a0
20016666:	fef42623          	sw	a5,-20(s0)
/home/nicoladgg/wsFreedomStudio/sifive_hifive1_revb_hello/freedom-metal/src/drivers/sifive_uart0.c:62
2001666a:	fec42783          	lw	a5,-20(s0)
2001666e:	07c1                	addi	a5,a5,16
20016670:	439c                	lw	a5,0(a5)
20016672:	fec42703          	lw	a4,-20(s0)
20016676:	0741                	addi	a4,a4,16
20016678:	0027e793          	ori	a5,a5,2
2001667c:	c31c                	sw	a5,0(a4)
/home/nicoladgg/wsFreedomStudio/sifive_hifive1_revb_hello/freedom-metal/src/drivers/sifive_uart0.c:63
2001667e:	4781                	li	a5,0
/home/nicoladgg/wsFreedomStudio/sifive_hifive1_revb_hello/freedom-metal/src/drivers/sifive_uart0.c:64
20016680:	853e                	mv	a0,a5
20016682:	50b2                	lw	ra,44(sp)
20016684:	5422                	lw	s0,40(sp)
20016686:	6145                	addi	sp,sp,48
20016688:	8082                	ret

2001668a <__metal_driver_sifive_uart0_rx_interrupt_disable>:
__metal_driver_sifive_uart0_rx_interrupt_disable():
/home/nicoladgg/wsFreedomStudio/sifive_hifive1_revb_hello/freedom-metal/src/drivers/sifive_uart0.c:66
2001668a:	7179                	addi	sp,sp,-48
2001668c:	d606                	sw	ra,44(sp)
2001668e:	d422                	sw	s0,40(sp)
20016690:	1800                	addi	s0,sp,48
20016692:	fca42e23          	sw	a0,-36(s0)
/home/nicoladgg/wsFreedomStudio/sifive_hifive1_revb_hello/freedom-metal/src/drivers/sifive_uart0.c:67
20016696:	fdc42503          	lw	a0,-36(s0)
2001669a:	d3dff0ef          	jal	ra,200163d6 <__metal_driver_sifive_uart0_control_base>
2001669e:	87aa                	mv	a5,a0
200166a0:	fef42623          	sw	a5,-20(s0)
/home/nicoladgg/wsFreedomStudio/sifive_hifive1_revb_hello/freedom-metal/src/drivers/sifive_uart0.c:69
200166a4:	fec42783          	lw	a5,-20(s0)
200166a8:	07c1                	addi	a5,a5,16
200166aa:	439c                	lw	a5,0(a5)
200166ac:	fec42703          	lw	a4,-20(s0)
200166b0:	0741                	addi	a4,a4,16
200166b2:	9bf5                	andi	a5,a5,-3
200166b4:	c31c                	sw	a5,0(a4)
/home/nicoladgg/wsFreedomStudio/sifive_hifive1_revb_hello/freedom-metal/src/drivers/sifive_uart0.c:70
200166b6:	4781                	li	a5,0
/home/nicoladgg/wsFreedomStudio/sifive_hifive1_revb_hello/freedom-metal/src/drivers/sifive_uart0.c:71
200166b8:	853e                	mv	a0,a5
200166ba:	50b2                	lw	ra,44(sp)
200166bc:	5422                	lw	s0,40(sp)
200166be:	6145                	addi	sp,sp,48
200166c0:	8082                	ret

200166c2 <__metal_driver_sifive_uart0_txready>:
__metal_driver_sifive_uart0_txready():
/home/nicoladgg/wsFreedomStudio/sifive_hifive1_revb_hello/freedom-metal/src/drivers/sifive_uart0.c:73
200166c2:	7179                	addi	sp,sp,-48
200166c4:	d606                	sw	ra,44(sp)
200166c6:	d422                	sw	s0,40(sp)
200166c8:	1800                	addi	s0,sp,48
200166ca:	fca42e23          	sw	a0,-36(s0)
/home/nicoladgg/wsFreedomStudio/sifive_hifive1_revb_hello/freedom-metal/src/drivers/sifive_uart0.c:74
200166ce:	fdc42503          	lw	a0,-36(s0)
200166d2:	d05ff0ef          	jal	ra,200163d6 <__metal_driver_sifive_uart0_control_base>
200166d6:	87aa                	mv	a5,a0
200166d8:	fef42623          	sw	a5,-20(s0)
/home/nicoladgg/wsFreedomStudio/sifive_hifive1_revb_hello/freedom-metal/src/drivers/sifive_uart0.c:76
200166dc:	fec42783          	lw	a5,-20(s0)
200166e0:	439c                	lw	a5,0(a5)
200166e2:	83fd                	srli	a5,a5,0x1f
200166e4:	0ff7f793          	zext.b	a5,a5
/home/nicoladgg/wsFreedomStudio/sifive_hifive1_revb_hello/freedom-metal/src/drivers/sifive_uart0.c:77
200166e8:	853e                	mv	a0,a5
200166ea:	50b2                	lw	ra,44(sp)
200166ec:	5422                	lw	s0,40(sp)
200166ee:	6145                	addi	sp,sp,48
200166f0:	8082                	ret

200166f2 <__metal_driver_sifive_uart0_set_tx_watermark>:
__metal_driver_sifive_uart0_set_tx_watermark():
/home/nicoladgg/wsFreedomStudio/sifive_hifive1_revb_hello/freedom-metal/src/drivers/sifive_uart0.c:80
200166f2:	7179                	addi	sp,sp,-48
200166f4:	d606                	sw	ra,44(sp)
200166f6:	d422                	sw	s0,40(sp)
200166f8:	1800                	addi	s0,sp,48
200166fa:	fca42e23          	sw	a0,-36(s0)
200166fe:	fcb42c23          	sw	a1,-40(s0)
/home/nicoladgg/wsFreedomStudio/sifive_hifive1_revb_hello/freedom-metal/src/drivers/sifive_uart0.c:81
20016702:	fdc42503          	lw	a0,-36(s0)
20016706:	cd1ff0ef          	jal	ra,200163d6 <__metal_driver_sifive_uart0_control_base>
2001670a:	87aa                	mv	a5,a0
2001670c:	fef42623          	sw	a5,-20(s0)
/home/nicoladgg/wsFreedomStudio/sifive_hifive1_revb_hello/freedom-metal/src/drivers/sifive_uart0.c:83
20016710:	fec42783          	lw	a5,-20(s0)
20016714:	07a1                	addi	a5,a5,8
20016716:	4398                	lw	a4,0(a5)
20016718:	fd842783          	lw	a5,-40(s0)
2001671c:	01079693          	slli	a3,a5,0x10
20016720:	000707b7          	lui	a5,0x70
20016724:	8ff5                	and	a5,a5,a3
20016726:	fec42683          	lw	a3,-20(s0)
2001672a:	06a1                	addi	a3,a3,8
2001672c:	8fd9                	or	a5,a5,a4
2001672e:	c29c                	sw	a5,0(a3)
/home/nicoladgg/wsFreedomStudio/sifive_hifive1_revb_hello/freedom-metal/src/drivers/sifive_uart0.c:84
20016730:	4781                	li	a5,0
/home/nicoladgg/wsFreedomStudio/sifive_hifive1_revb_hello/freedom-metal/src/drivers/sifive_uart0.c:85
20016732:	853e                	mv	a0,a5
20016734:	50b2                	lw	ra,44(sp)
20016736:	5422                	lw	s0,40(sp)
20016738:	6145                	addi	sp,sp,48
2001673a:	8082                	ret

2001673c <__metal_driver_sifive_uart0_get_tx_watermark>:
__metal_driver_sifive_uart0_get_tx_watermark():
/home/nicoladgg/wsFreedomStudio/sifive_hifive1_revb_hello/freedom-metal/src/drivers/sifive_uart0.c:87
2001673c:	7179                	addi	sp,sp,-48
2001673e:	d606                	sw	ra,44(sp)
20016740:	d422                	sw	s0,40(sp)
20016742:	1800                	addi	s0,sp,48
20016744:	fca42e23          	sw	a0,-36(s0)
/home/nicoladgg/wsFreedomStudio/sifive_hifive1_revb_hello/freedom-metal/src/drivers/sifive_uart0.c:88
20016748:	fdc42503          	lw	a0,-36(s0)
2001674c:	c8bff0ef          	jal	ra,200163d6 <__metal_driver_sifive_uart0_control_base>
20016750:	87aa                	mv	a5,a0
20016752:	fef42623          	sw	a5,-20(s0)
/home/nicoladgg/wsFreedomStudio/sifive_hifive1_revb_hello/freedom-metal/src/drivers/sifive_uart0.c:90
20016756:	fec42783          	lw	a5,-20(s0)
2001675a:	07a1                	addi	a5,a5,8
2001675c:	439c                	lw	a5,0(a5)
2001675e:	83c1                	srli	a5,a5,0x10
20016760:	8b9d                	andi	a5,a5,7
/home/nicoladgg/wsFreedomStudio/sifive_hifive1_revb_hello/freedom-metal/src/drivers/sifive_uart0.c:91
20016762:	853e                	mv	a0,a5
20016764:	50b2                	lw	ra,44(sp)
20016766:	5422                	lw	s0,40(sp)
20016768:	6145                	addi	sp,sp,48
2001676a:	8082                	ret

2001676c <__metal_driver_sifive_uart0_set_rx_watermark>:
__metal_driver_sifive_uart0_set_rx_watermark():
/home/nicoladgg/wsFreedomStudio/sifive_hifive1_revb_hello/freedom-metal/src/drivers/sifive_uart0.c:94
2001676c:	7179                	addi	sp,sp,-48
2001676e:	d606                	sw	ra,44(sp)
20016770:	d422                	sw	s0,40(sp)
20016772:	1800                	addi	s0,sp,48
20016774:	fca42e23          	sw	a0,-36(s0)
20016778:	fcb42c23          	sw	a1,-40(s0)
/home/nicoladgg/wsFreedomStudio/sifive_hifive1_revb_hello/freedom-metal/src/drivers/sifive_uart0.c:95
2001677c:	fdc42503          	lw	a0,-36(s0)
20016780:	c57ff0ef          	jal	ra,200163d6 <__metal_driver_sifive_uart0_control_base>
20016784:	87aa                	mv	a5,a0
20016786:	fef42623          	sw	a5,-20(s0)
/home/nicoladgg/wsFreedomStudio/sifive_hifive1_revb_hello/freedom-metal/src/drivers/sifive_uart0.c:97
2001678a:	fec42783          	lw	a5,-20(s0)
2001678e:	07b1                	addi	a5,a5,12
20016790:	4398                	lw	a4,0(a5)
20016792:	fd842783          	lw	a5,-40(s0)
20016796:	01079693          	slli	a3,a5,0x10
2001679a:	000707b7          	lui	a5,0x70
2001679e:	8ff5                	and	a5,a5,a3
200167a0:	fec42683          	lw	a3,-20(s0)
200167a4:	06b1                	addi	a3,a3,12
200167a6:	8fd9                	or	a5,a5,a4
200167a8:	c29c                	sw	a5,0(a3)
/home/nicoladgg/wsFreedomStudio/sifive_hifive1_revb_hello/freedom-metal/src/drivers/sifive_uart0.c:98
200167aa:	4781                	li	a5,0
/home/nicoladgg/wsFreedomStudio/sifive_hifive1_revb_hello/freedom-metal/src/drivers/sifive_uart0.c:99
200167ac:	853e                	mv	a0,a5
200167ae:	50b2                	lw	ra,44(sp)
200167b0:	5422                	lw	s0,40(sp)
200167b2:	6145                	addi	sp,sp,48
200167b4:	8082                	ret

200167b6 <__metal_driver_sifive_uart0_get_rx_watermark>:
__metal_driver_sifive_uart0_get_rx_watermark():
/home/nicoladgg/wsFreedomStudio/sifive_hifive1_revb_hello/freedom-metal/src/drivers/sifive_uart0.c:101
200167b6:	7179                	addi	sp,sp,-48
200167b8:	d606                	sw	ra,44(sp)
200167ba:	d422                	sw	s0,40(sp)
200167bc:	1800                	addi	s0,sp,48
200167be:	fca42e23          	sw	a0,-36(s0)
/home/nicoladgg/wsFreedomStudio/sifive_hifive1_revb_hello/freedom-metal/src/drivers/sifive_uart0.c:102
200167c2:	fdc42503          	lw	a0,-36(s0)
200167c6:	c11ff0ef          	jal	ra,200163d6 <__metal_driver_sifive_uart0_control_base>
200167ca:	87aa                	mv	a5,a0
200167cc:	fef42623          	sw	a5,-20(s0)
/home/nicoladgg/wsFreedomStudio/sifive_hifive1_revb_hello/freedom-metal/src/drivers/sifive_uart0.c:104
200167d0:	fec42783          	lw	a5,-20(s0)
200167d4:	07b1                	addi	a5,a5,12
200167d6:	439c                	lw	a5,0(a5)
200167d8:	83c1                	srli	a5,a5,0x10
200167da:	8b9d                	andi	a5,a5,7
/home/nicoladgg/wsFreedomStudio/sifive_hifive1_revb_hello/freedom-metal/src/drivers/sifive_uart0.c:105
200167dc:	853e                	mv	a0,a5
200167de:	50b2                	lw	ra,44(sp)
200167e0:	5422                	lw	s0,40(sp)
200167e2:	6145                	addi	sp,sp,48
200167e4:	8082                	ret

200167e6 <__metal_driver_sifive_uart0_putc>:
__metal_driver_sifive_uart0_putc():
/home/nicoladgg/wsFreedomStudio/sifive_hifive1_revb_hello/freedom-metal/src/drivers/sifive_uart0.c:107
200167e6:	7179                	addi	sp,sp,-48
200167e8:	d606                	sw	ra,44(sp)
200167ea:	d422                	sw	s0,40(sp)
200167ec:	1800                	addi	s0,sp,48
200167ee:	fca42e23          	sw	a0,-36(s0)
200167f2:	fcb42c23          	sw	a1,-40(s0)
/home/nicoladgg/wsFreedomStudio/sifive_hifive1_revb_hello/freedom-metal/src/drivers/sifive_uart0.c:108
200167f6:	fdc42503          	lw	a0,-36(s0)
200167fa:	bddff0ef          	jal	ra,200163d6 <__metal_driver_sifive_uart0_control_base>
200167fe:	87aa                	mv	a5,a0
20016800:	fef42623          	sw	a5,-20(s0)
/home/nicoladgg/wsFreedomStudio/sifive_hifive1_revb_hello/freedom-metal/src/drivers/sifive_uart0.c:110
20016804:	0001                	nop
/home/nicoladgg/wsFreedomStudio/sifive_hifive1_revb_hello/freedom-metal/src/drivers/sifive_uart0.c:110 (discriminator 1)
20016806:	fdc42503          	lw	a0,-36(s0)
2001680a:	eb9ff0ef          	jal	ra,200166c2 <__metal_driver_sifive_uart0_txready>
2001680e:	87aa                	mv	a5,a0
20016810:	fbfd                	bnez	a5,20016806 <__metal_driver_sifive_uart0_putc+0x20>
/home/nicoladgg/wsFreedomStudio/sifive_hifive1_revb_hello/freedom-metal/src/drivers/sifive_uart0.c:113
20016812:	fec42783          	lw	a5,-20(s0)
20016816:	fd842703          	lw	a4,-40(s0)
2001681a:	c398                	sw	a4,0(a5)
/home/nicoladgg/wsFreedomStudio/sifive_hifive1_revb_hello/freedom-metal/src/drivers/sifive_uart0.c:114
2001681c:	4781                	li	a5,0
/home/nicoladgg/wsFreedomStudio/sifive_hifive1_revb_hello/freedom-metal/src/drivers/sifive_uart0.c:115
2001681e:	853e                	mv	a0,a5
20016820:	50b2                	lw	ra,44(sp)
20016822:	5422                	lw	s0,40(sp)
20016824:	6145                	addi	sp,sp,48
20016826:	8082                	ret

20016828 <__metal_driver_sifive_uart0_getc>:
__metal_driver_sifive_uart0_getc():
/home/nicoladgg/wsFreedomStudio/sifive_hifive1_revb_hello/freedom-metal/src/drivers/sifive_uart0.c:117
20016828:	7179                	addi	sp,sp,-48
2001682a:	d606                	sw	ra,44(sp)
2001682c:	d422                	sw	s0,40(sp)
2001682e:	1800                	addi	s0,sp,48
20016830:	fca42e23          	sw	a0,-36(s0)
20016834:	fcb42c23          	sw	a1,-40(s0)
/home/nicoladgg/wsFreedomStudio/sifive_hifive1_revb_hello/freedom-metal/src/drivers/sifive_uart0.c:119
20016838:	fdc42503          	lw	a0,-36(s0)
2001683c:	b9bff0ef          	jal	ra,200163d6 <__metal_driver_sifive_uart0_control_base>
20016840:	87aa                	mv	a5,a0
20016842:	fef42623          	sw	a5,-20(s0)
/home/nicoladgg/wsFreedomStudio/sifive_hifive1_revb_hello/freedom-metal/src/drivers/sifive_uart0.c:121
20016846:	fec42783          	lw	a5,-20(s0)
2001684a:	0791                	addi	a5,a5,4
2001684c:	439c                	lw	a5,0(a5)
2001684e:	fef42423          	sw	a5,-24(s0)
/home/nicoladgg/wsFreedomStudio/sifive_hifive1_revb_hello/freedom-metal/src/drivers/sifive_uart0.c:123
20016852:	fe842783          	lw	a5,-24(s0)
20016856:	0007d763          	bgez	a5,20016864 <__metal_driver_sifive_uart0_getc+0x3c>
/home/nicoladgg/wsFreedomStudio/sifive_hifive1_revb_hello/freedom-metal/src/drivers/sifive_uart0.c:124
2001685a:	fd842783          	lw	a5,-40(s0)
2001685e:	577d                	li	a4,-1
20016860:	c398                	sw	a4,0(a5)
20016862:	a801                	j	20016872 <__metal_driver_sifive_uart0_getc+0x4a>
/home/nicoladgg/wsFreedomStudio/sifive_hifive1_revb_hello/freedom-metal/src/drivers/sifive_uart0.c:126
20016864:	fe842783          	lw	a5,-24(s0)
20016868:	0ff7f713          	zext.b	a4,a5
2001686c:	fd842783          	lw	a5,-40(s0)
20016870:	c398                	sw	a4,0(a5)
/home/nicoladgg/wsFreedomStudio/sifive_hifive1_revb_hello/freedom-metal/src/drivers/sifive_uart0.c:128
20016872:	4781                	li	a5,0
/home/nicoladgg/wsFreedomStudio/sifive_hifive1_revb_hello/freedom-metal/src/drivers/sifive_uart0.c:129
20016874:	853e                	mv	a0,a5
20016876:	50b2                	lw	ra,44(sp)
20016878:	5422                	lw	s0,40(sp)
2001687a:	6145                	addi	sp,sp,48
2001687c:	8082                	ret

2001687e <__metal_driver_sifive_uart0_get_baud_rate>:
__metal_driver_sifive_uart0_get_baud_rate():
/home/nicoladgg/wsFreedomStudio/sifive_hifive1_revb_hello/freedom-metal/src/drivers/sifive_uart0.c:131
2001687e:	7179                	addi	sp,sp,-48
20016880:	d622                	sw	s0,44(sp)
20016882:	1800                	addi	s0,sp,48
20016884:	fca42e23          	sw	a0,-36(s0)
/home/nicoladgg/wsFreedomStudio/sifive_hifive1_revb_hello/freedom-metal/src/drivers/sifive_uart0.c:132
20016888:	fdc42783          	lw	a5,-36(s0)
2001688c:	fef42623          	sw	a5,-20(s0)
/home/nicoladgg/wsFreedomStudio/sifive_hifive1_revb_hello/freedom-metal/src/drivers/sifive_uart0.c:133
20016890:	fec42783          	lw	a5,-20(s0)
20016894:	43dc                	lw	a5,4(a5)
/home/nicoladgg/wsFreedomStudio/sifive_hifive1_revb_hello/freedom-metal/src/drivers/sifive_uart0.c:134
20016896:	853e                	mv	a0,a5
20016898:	5432                	lw	s0,44(sp)
2001689a:	6145                	addi	sp,sp,48
2001689c:	8082                	ret

2001689e <__metal_driver_sifive_uart0_set_baud_rate>:
__metal_driver_sifive_uart0_set_baud_rate():
/home/nicoladgg/wsFreedomStudio/sifive_hifive1_revb_hello/freedom-metal/src/drivers/sifive_uart0.c:137
2001689e:	7179                	addi	sp,sp,-48
200168a0:	d606                	sw	ra,44(sp)
200168a2:	d422                	sw	s0,40(sp)
200168a4:	1800                	addi	s0,sp,48
200168a6:	fca42e23          	sw	a0,-36(s0)
200168aa:	fcb42c23          	sw	a1,-40(s0)
/home/nicoladgg/wsFreedomStudio/sifive_hifive1_revb_hello/freedom-metal/src/drivers/sifive_uart0.c:138
200168ae:	fdc42783          	lw	a5,-36(s0)
200168b2:	fef42623          	sw	a5,-20(s0)
/home/nicoladgg/wsFreedomStudio/sifive_hifive1_revb_hello/freedom-metal/src/drivers/sifive_uart0.c:139
200168b6:	fdc42503          	lw	a0,-36(s0)
200168ba:	b1dff0ef          	jal	ra,200163d6 <__metal_driver_sifive_uart0_control_base>
200168be:	87aa                	mv	a5,a0
200168c0:	fef42423          	sw	a5,-24(s0)
/home/nicoladgg/wsFreedomStudio/sifive_hifive1_revb_hello/freedom-metal/src/drivers/sifive_uart0.c:140
200168c4:	fdc42503          	lw	a0,-36(s0)
200168c8:	bd3ff0ef          	jal	ra,2001649a <__metal_driver_sifive_uart0_clock>
200168cc:	fea42223          	sw	a0,-28(s0)
/home/nicoladgg/wsFreedomStudio/sifive_hifive1_revb_hello/freedom-metal/src/drivers/sifive_uart0.c:142
200168d0:	fd842703          	lw	a4,-40(s0)
200168d4:	fec42783          	lw	a5,-20(s0)
200168d8:	c3d8                	sw	a4,4(a5)
/home/nicoladgg/wsFreedomStudio/sifive_hifive1_revb_hello/freedom-metal/src/drivers/sifive_uart0.c:144
200168da:	fe442783          	lw	a5,-28(s0)
200168de:	cbb1                	beqz	a5,20016932 <__metal_driver_sifive_uart0_set_baud_rate+0x94>
/home/nicoladgg/wsFreedomStudio/sifive_hifive1_revb_hello/freedom-metal/src/drivers/sifive_uart0.c:145
200168e0:	fe442783          	lw	a5,-28(s0)
200168e4:	439c                	lw	a5,0(a5)
200168e6:	439c                	lw	a5,0(a5)
200168e8:	fe442503          	lw	a0,-28(s0)
200168ec:	9782                	jalr	a5
200168ee:	fea42023          	sw	a0,-32(s0)
/home/nicoladgg/wsFreedomStudio/sifive_hifive1_revb_hello/freedom-metal/src/drivers/sifive_uart0.c:146
200168f2:	fe042703          	lw	a4,-32(s0)
200168f6:	fd842783          	lw	a5,-40(s0)
200168fa:	02f747b3          	div	a5,a4,a5
200168fe:	fff78713          	addi	a4,a5,-1 # 6ffff <__heap_size+0x6f7ff>
20016902:	fe842783          	lw	a5,-24(s0)
20016906:	07e1                	addi	a5,a5,24
20016908:	c398                	sw	a4,0(a5)
/home/nicoladgg/wsFreedomStudio/sifive_hifive1_revb_hello/freedom-metal/src/drivers/sifive_uart0.c:147
2001690a:	fe842783          	lw	a5,-24(s0)
2001690e:	07a1                	addi	a5,a5,8
20016910:	439c                	lw	a5,0(a5)
20016912:	fe842703          	lw	a4,-24(s0)
20016916:	0721                	addi	a4,a4,8
20016918:	0017e793          	ori	a5,a5,1
2001691c:	c31c                	sw	a5,0(a4)
/home/nicoladgg/wsFreedomStudio/sifive_hifive1_revb_hello/freedom-metal/src/drivers/sifive_uart0.c:148
2001691e:	fe842783          	lw	a5,-24(s0)
20016922:	07b1                	addi	a5,a5,12
20016924:	439c                	lw	a5,0(a5)
20016926:	fe842703          	lw	a4,-24(s0)
2001692a:	0731                	addi	a4,a4,12
2001692c:	0017e793          	ori	a5,a5,1
20016930:	c31c                	sw	a5,0(a4)
/home/nicoladgg/wsFreedomStudio/sifive_hifive1_revb_hello/freedom-metal/src/drivers/sifive_uart0.c:150
20016932:	4781                	li	a5,0
/home/nicoladgg/wsFreedomStudio/sifive_hifive1_revb_hello/freedom-metal/src/drivers/sifive_uart0.c:151
20016934:	853e                	mv	a0,a5
20016936:	50b2                	lw	ra,44(sp)
20016938:	5422                	lw	s0,40(sp)
2001693a:	6145                	addi	sp,sp,48
2001693c:	8082                	ret

2001693e <pre_rate_change_callback_func>:
pre_rate_change_callback_func():
/home/nicoladgg/wsFreedomStudio/sifive_hifive1_revb_hello/freedom-metal/src/drivers/sifive_uart0.c:153
2001693e:	7139                	addi	sp,sp,-64
20016940:	de06                	sw	ra,60(sp)
20016942:	dc22                	sw	s0,56(sp)
20016944:	0080                	addi	s0,sp,64
20016946:	fca42623          	sw	a0,-52(s0)
/home/nicoladgg/wsFreedomStudio/sifive_hifive1_revb_hello/freedom-metal/src/drivers/sifive_uart0.c:154
2001694a:	fcc42783          	lw	a5,-52(s0)
2001694e:	fef42623          	sw	a5,-20(s0)
/home/nicoladgg/wsFreedomStudio/sifive_hifive1_revb_hello/freedom-metal/src/drivers/sifive_uart0.c:156
20016952:	fcc42503          	lw	a0,-52(s0)
20016956:	a81ff0ef          	jal	ra,200163d6 <__metal_driver_sifive_uart0_control_base>
2001695a:	87aa                	mv	a5,a0
/home/nicoladgg/wsFreedomStudio/sifive_hifive1_revb_hello/freedom-metal/src/drivers/sifive_uart0.c:155
2001695c:	fef42423          	sw	a5,-24(s0)
/home/nicoladgg/wsFreedomStudio/sifive_hifive1_revb_hello/freedom-metal/src/drivers/sifive_uart0.c:158
20016960:	fcc42503          	lw	a0,-52(s0)
20016964:	b37ff0ef          	jal	ra,2001649a <__metal_driver_sifive_uart0_clock>
20016968:	fea42223          	sw	a0,-28(s0)
/home/nicoladgg/wsFreedomStudio/sifive_hifive1_revb_hello/freedom-metal/src/drivers/sifive_uart0.c:163
2001696c:	fe842783          	lw	a5,-24(s0)
20016970:	07a1                	addi	a5,a5,8
20016972:	4398                	lw	a4,0(a5)
20016974:	fe842783          	lw	a5,-24(s0)
20016978:	07a1                	addi	a5,a5,8
2001697a:	86be                	mv	a3,a5
2001697c:	fff907b7          	lui	a5,0xfff90
20016980:	17fd                	addi	a5,a5,-1
20016982:	8ff9                	and	a5,a5,a4
20016984:	c29c                	sw	a5,0(a3)
/home/nicoladgg/wsFreedomStudio/sifive_hifive1_revb_hello/freedom-metal/src/drivers/sifive_uart0.c:164
20016986:	fe842783          	lw	a5,-24(s0)
2001698a:	07a1                	addi	a5,a5,8
2001698c:	4398                	lw	a4,0(a5)
2001698e:	fe842783          	lw	a5,-24(s0)
20016992:	07a1                	addi	a5,a5,8
20016994:	86be                	mv	a3,a5
20016996:	67c1                	lui	a5,0x10
20016998:	8fd9                	or	a5,a5,a4
2001699a:	c29c                	sw	a5,0(a3)
/home/nicoladgg/wsFreedomStudio/sifive_hifive1_revb_hello/freedom-metal/src/drivers/sifive_uart0.c:166
2001699c:	0001                	nop
/home/nicoladgg/wsFreedomStudio/sifive_hifive1_revb_hello/freedom-metal/src/drivers/sifive_uart0.c:166 (discriminator 1)
2001699e:	fe842783          	lw	a5,-24(s0)
200169a2:	07d1                	addi	a5,a5,20
200169a4:	439c                	lw	a5,0(a5)
200169a6:	8b85                	andi	a5,a5,1
200169a8:	dbfd                	beqz	a5,2001699e <pre_rate_change_callback_func+0x60>
/home/nicoladgg/wsFreedomStudio/sifive_hifive1_revb_hello/freedom-metal/src/drivers/sifive_uart0.c:174
200169aa:	fe842783          	lw	a5,-24(s0)
200169ae:	07a1                	addi	a5,a5,8
200169b0:	439c                	lw	a5,0(a5)
200169b2:	8b89                	andi	a5,a5,2
200169b4:	c399                	beqz	a5,200169ba <pre_rate_change_callback_func+0x7c>
/home/nicoladgg/wsFreedomStudio/sifive_hifive1_revb_hello/freedom-metal/src/drivers/sifive_uart0.c:174 (discriminator 1)
200169b6:	47a5                	li	a5,9
200169b8:	a011                	j	200169bc <pre_rate_change_callback_func+0x7e>
/home/nicoladgg/wsFreedomStudio/sifive_hifive1_revb_hello/freedom-metal/src/drivers/sifive_uart0.c:174 (discriminator 2)
200169ba:	47a9                	li	a5,10
/home/nicoladgg/wsFreedomStudio/sifive_hifive1_revb_hello/freedom-metal/src/drivers/sifive_uart0.c:173
200169bc:	fef42023          	sw	a5,-32(s0)
/home/nicoladgg/wsFreedomStudio/sifive_hifive1_revb_hello/freedom-metal/src/drivers/sifive_uart0.c:175
200169c0:	fe442783          	lw	a5,-28(s0)
200169c4:	439c                	lw	a5,0(a5)
200169c6:	439c                	lw	a5,0(a5)
200169c8:	fe442503          	lw	a0,-28(s0)
200169cc:	9782                	jalr	a5
200169ce:	fca42e23          	sw	a0,-36(s0)
/home/nicoladgg/wsFreedomStudio/sifive_hifive1_revb_hello/freedom-metal/src/drivers/sifive_uart0.c:176
200169d2:	fe042703          	lw	a4,-32(s0)
200169d6:	fdc42783          	lw	a5,-36(s0)
200169da:	02f707b3          	mul	a5,a4,a5
200169de:	873e                	mv	a4,a5
200169e0:	fec42783          	lw	a5,-20(s0)
200169e4:	43dc                	lw	a5,4(a5)
200169e6:	02f757b3          	divu	a5,a4,a5
200169ea:	fcf42c23          	sw	a5,-40(s0)
/home/nicoladgg/wsFreedomStudio/sifive_hifive1_revb_hello/freedom-metal/src/drivers/sifive_uart0.c:178
200169ee:	fc042a23          	sw	zero,-44(s0)
200169f2:	a039                	j	20016a00 <pre_rate_change_callback_func+0xc2>
/home/nicoladgg/wsFreedomStudio/sifive_hifive1_revb_hello/freedom-metal/src/drivers/sifive_uart0.c:179 (discriminator 3)
200169f4:	0001                	nop
/home/nicoladgg/wsFreedomStudio/sifive_hifive1_revb_hello/freedom-metal/src/drivers/sifive_uart0.c:178 (discriminator 3)
200169f6:	fd442783          	lw	a5,-44(s0)
200169fa:	0785                	addi	a5,a5,1
200169fc:	fcf42a23          	sw	a5,-44(s0)
/home/nicoladgg/wsFreedomStudio/sifive_hifive1_revb_hello/freedom-metal/src/drivers/sifive_uart0.c:178 (discriminator 1)
20016a00:	fd442783          	lw	a5,-44(s0)
20016a04:	fd842703          	lw	a4,-40(s0)
20016a08:	fee7c6e3          	blt	a5,a4,200169f4 <pre_rate_change_callback_func+0xb6>
/home/nicoladgg/wsFreedomStudio/sifive_hifive1_revb_hello/freedom-metal/src/drivers/sifive_uart0.c:180
20016a0c:	0001                	nop
20016a0e:	0001                	nop
20016a10:	50f2                	lw	ra,60(sp)
20016a12:	5462                	lw	s0,56(sp)
20016a14:	6121                	addi	sp,sp,64
20016a16:	8082                	ret

20016a18 <post_rate_change_callback_func>:
post_rate_change_callback_func():
/home/nicoladgg/wsFreedomStudio/sifive_hifive1_revb_hello/freedom-metal/src/drivers/sifive_uart0.c:182
20016a18:	7179                	addi	sp,sp,-48
20016a1a:	d606                	sw	ra,44(sp)
20016a1c:	d422                	sw	s0,40(sp)
20016a1e:	1800                	addi	s0,sp,48
20016a20:	fca42e23          	sw	a0,-36(s0)
/home/nicoladgg/wsFreedomStudio/sifive_hifive1_revb_hello/freedom-metal/src/drivers/sifive_uart0.c:183
20016a24:	fdc42783          	lw	a5,-36(s0)
20016a28:	fef42623          	sw	a5,-20(s0)
/home/nicoladgg/wsFreedomStudio/sifive_hifive1_revb_hello/freedom-metal/src/drivers/sifive_uart0.c:184
20016a2c:	fec42703          	lw	a4,-20(s0)
20016a30:	fec42783          	lw	a5,-20(s0)
20016a34:	43dc                	lw	a5,4(a5)
20016a36:	85be                	mv	a1,a5
20016a38:	853a                	mv	a0,a4
20016a3a:	2c45                	jal	20016cea <metal_uart_set_baud_rate>
/home/nicoladgg/wsFreedomStudio/sifive_hifive1_revb_hello/freedom-metal/src/drivers/sifive_uart0.c:185
20016a3c:	0001                	nop
20016a3e:	50b2                	lw	ra,44(sp)
20016a40:	5422                	lw	s0,40(sp)
20016a42:	6145                	addi	sp,sp,48
20016a44:	8082                	ret

20016a46 <__metal_driver_sifive_uart0_init>:
__metal_driver_sifive_uart0_init():
/home/nicoladgg/wsFreedomStudio/sifive_hifive1_revb_hello/freedom-metal/src/drivers/sifive_uart0.c:187
20016a46:	7139                	addi	sp,sp,-64
20016a48:	de06                	sw	ra,60(sp)
20016a4a:	dc22                	sw	s0,56(sp)
20016a4c:	0080                	addi	s0,sp,64
20016a4e:	fca42623          	sw	a0,-52(s0)
20016a52:	fcb42423          	sw	a1,-56(s0)
/home/nicoladgg/wsFreedomStudio/sifive_hifive1_revb_hello/freedom-metal/src/drivers/sifive_uart0.c:188
20016a56:	fcc42783          	lw	a5,-52(s0)
20016a5a:	fef42623          	sw	a5,-20(s0)
/home/nicoladgg/wsFreedomStudio/sifive_hifive1_revb_hello/freedom-metal/src/drivers/sifive_uart0.c:189
20016a5e:	fcc42503          	lw	a0,-52(s0)
20016a62:	a39ff0ef          	jal	ra,2001649a <__metal_driver_sifive_uart0_clock>
20016a66:	fea42423          	sw	a0,-24(s0)
/home/nicoladgg/wsFreedomStudio/sifive_hifive1_revb_hello/freedom-metal/src/drivers/sifive_uart0.c:191
20016a6a:	fcc42503          	lw	a0,-52(s0)
20016a6e:	a75ff0ef          	jal	ra,200164e2 <__metal_driver_sifive_uart0_pinmux>
20016a72:	fea42223          	sw	a0,-28(s0)
/home/nicoladgg/wsFreedomStudio/sifive_hifive1_revb_hello/freedom-metal/src/drivers/sifive_uart0.c:193
20016a76:	fe842783          	lw	a5,-24(s0)
20016a7a:	c7b9                	beqz	a5,20016ac8 <__metal_driver_sifive_uart0_init+0x82>
/home/nicoladgg/wsFreedomStudio/sifive_hifive1_revb_hello/freedom-metal/src/drivers/sifive_uart0.c:194
20016a7c:	fec42783          	lw	a5,-20(s0)
20016a80:	20017737          	lui	a4,0x20017
20016a84:	93e70713          	addi	a4,a4,-1730 # 2001693e <pre_rate_change_callback_func>
20016a88:	c798                	sw	a4,8(a5)
/home/nicoladgg/wsFreedomStudio/sifive_hifive1_revb_hello/freedom-metal/src/drivers/sifive_uart0.c:196
20016a8a:	fec42783          	lw	a5,-20(s0)
20016a8e:	fcc42703          	lw	a4,-52(s0)
20016a92:	c7d8                	sw	a4,12(a5)
/home/nicoladgg/wsFreedomStudio/sifive_hifive1_revb_hello/freedom-metal/src/drivers/sifive_uart0.c:197
20016a94:	fec42783          	lw	a5,-20(s0)
20016a98:	07a1                	addi	a5,a5,8
20016a9a:	85be                	mv	a1,a5
20016a9c:	fe842503          	lw	a0,-24(s0)
20016aa0:	2abd                	jal	20016c1e <metal_clock_register_pre_rate_change_callback>
/home/nicoladgg/wsFreedomStudio/sifive_hifive1_revb_hello/freedom-metal/src/drivers/sifive_uart0.c:200
20016aa2:	fec42783          	lw	a5,-20(s0)
20016aa6:	20017737          	lui	a4,0x20017
20016aaa:	a1870713          	addi	a4,a4,-1512 # 20016a18 <post_rate_change_callback_func>
20016aae:	cbd8                	sw	a4,20(a5)
/home/nicoladgg/wsFreedomStudio/sifive_hifive1_revb_hello/freedom-metal/src/drivers/sifive_uart0.c:202
20016ab0:	fec42783          	lw	a5,-20(s0)
20016ab4:	fcc42703          	lw	a4,-52(s0)
20016ab8:	cf98                	sw	a4,24(a5)
/home/nicoladgg/wsFreedomStudio/sifive_hifive1_revb_hello/freedom-metal/src/drivers/sifive_uart0.c:203
20016aba:	fec42783          	lw	a5,-20(s0)
20016abe:	07d1                	addi	a5,a5,20
20016ac0:	85be                	mv	a1,a5
20016ac2:	fe842503          	lw	a0,-24(s0)
20016ac6:	2269                	jal	20016c50 <metal_clock_register_post_rate_change_callback>
/home/nicoladgg/wsFreedomStudio/sifive_hifive1_revb_hello/freedom-metal/src/drivers/sifive_uart0.c:207
20016ac8:	fec42783          	lw	a5,-20(s0)
20016acc:	fc842583          	lw	a1,-56(s0)
20016ad0:	853e                	mv	a0,a5
20016ad2:	2c21                	jal	20016cea <metal_uart_set_baud_rate>
/home/nicoladgg/wsFreedomStudio/sifive_hifive1_revb_hello/freedom-metal/src/drivers/sifive_uart0.c:209
20016ad4:	fe442783          	lw	a5,-28(s0)
20016ad8:	cb95                	beqz	a5,20016b0c <__metal_driver_sifive_uart0_init+0xc6>
/home/nicoladgg/wsFreedomStudio/sifive_hifive1_revb_hello/freedom-metal/src/drivers/sifive_uart0.c:211
20016ada:	fcc42503          	lw	a0,-52(s0)
20016ade:	a45ff0ef          	jal	ra,20016522 <__metal_driver_sifive_uart0_pinmux_output_selector>
20016ae2:	87aa                	mv	a5,a0
/home/nicoladgg/wsFreedomStudio/sifive_hifive1_revb_hello/freedom-metal/src/drivers/sifive_uart0.c:210
20016ae4:	fef42023          	sw	a5,-32(s0)
/home/nicoladgg/wsFreedomStudio/sifive_hifive1_revb_hello/freedom-metal/src/drivers/sifive_uart0.c:213
20016ae8:	fcc42503          	lw	a0,-52(s0)
20016aec:	a73ff0ef          	jal	ra,2001655e <__metal_driver_sifive_uart0_pinmux_source_selector>
20016af0:	87aa                	mv	a5,a0
/home/nicoladgg/wsFreedomStudio/sifive_hifive1_revb_hello/freedom-metal/src/drivers/sifive_uart0.c:212
20016af2:	fcf42e23          	sw	a5,-36(s0)
/home/nicoladgg/wsFreedomStudio/sifive_hifive1_revb_hello/freedom-metal/src/drivers/sifive_uart0.c:214
20016af6:	fe442783          	lw	a5,-28(s0)
20016afa:	439c                	lw	a5,0(a5)
20016afc:	53dc                	lw	a5,36(a5)
20016afe:	fdc42603          	lw	a2,-36(s0)
20016b02:	fe042583          	lw	a1,-32(s0)
20016b06:	fe442503          	lw	a0,-28(s0)
20016b0a:	9782                	jalr	a5
/home/nicoladgg/wsFreedomStudio/sifive_hifive1_revb_hello/freedom-metal/src/drivers/sifive_uart0.c:218
20016b0c:	0001                	nop
20016b0e:	50f2                	lw	ra,60(sp)
20016b10:	5462                	lw	s0,56(sp)
20016b12:	6121                	addi	sp,sp,64
20016b14:	8082                	ret

20016b16 <_metal_clock_call_all_callbacks>:
_metal_clock_call_all_callbacks():
/home/nicoladgg/wsFreedomStudio/sifive_hifive1_revb_hello/freedom-metal/metal/clock.h:50
20016b16:	7179                	addi	sp,sp,-48
20016b18:	d606                	sw	ra,44(sp)
20016b1a:	d422                	sw	s0,40(sp)
20016b1c:	1800                	addi	s0,sp,48
20016b1e:	fca42e23          	sw	a0,-36(s0)
/home/nicoladgg/wsFreedomStudio/sifive_hifive1_revb_hello/freedom-metal/metal/clock.h:51
20016b22:	fdc42783          	lw	a5,-36(s0)
20016b26:	fef42623          	sw	a5,-20(s0)
/home/nicoladgg/wsFreedomStudio/sifive_hifive1_revb_hello/freedom-metal/metal/clock.h:52
20016b2a:	a831                	j	20016b46 <_metal_clock_call_all_callbacks+0x30>
/home/nicoladgg/wsFreedomStudio/sifive_hifive1_revb_hello/freedom-metal/metal/clock.h:53
20016b2c:	fec42783          	lw	a5,-20(s0)
20016b30:	4398                	lw	a4,0(a5)
20016b32:	fec42783          	lw	a5,-20(s0)
20016b36:	43dc                	lw	a5,4(a5)
20016b38:	853e                	mv	a0,a5
20016b3a:	9702                	jalr	a4
/home/nicoladgg/wsFreedomStudio/sifive_hifive1_revb_hello/freedom-metal/metal/clock.h:54
20016b3c:	fec42783          	lw	a5,-20(s0)
20016b40:	479c                	lw	a5,8(a5)
20016b42:	fef42623          	sw	a5,-20(s0)
/home/nicoladgg/wsFreedomStudio/sifive_hifive1_revb_hello/freedom-metal/metal/clock.h:52
20016b46:	fec42783          	lw	a5,-20(s0)
20016b4a:	f3ed                	bnez	a5,20016b2c <_metal_clock_call_all_callbacks+0x16>
/home/nicoladgg/wsFreedomStudio/sifive_hifive1_revb_hello/freedom-metal/metal/clock.h:56
20016b4c:	0001                	nop
20016b4e:	0001                	nop
20016b50:	50b2                	lw	ra,44(sp)
20016b52:	5422                	lw	s0,40(sp)
20016b54:	6145                	addi	sp,sp,48
20016b56:	8082                	ret

20016b58 <_metal_clock_append_to_callbacks>:
_metal_clock_append_to_callbacks():
/home/nicoladgg/wsFreedomStudio/sifive_hifive1_revb_hello/freedom-metal/metal/clock.h:63
20016b58:	7179                	addi	sp,sp,-48
20016b5a:	d622                	sw	s0,44(sp)
20016b5c:	1800                	addi	s0,sp,48
20016b5e:	fca42e23          	sw	a0,-36(s0)
20016b62:	fcb42c23          	sw	a1,-40(s0)
/home/nicoladgg/wsFreedomStudio/sifive_hifive1_revb_hello/freedom-metal/metal/clock.h:64
20016b66:	fd842783          	lw	a5,-40(s0)
20016b6a:	0007a423          	sw	zero,8(a5) # 10008 <__heap_size+0xf808>
/home/nicoladgg/wsFreedomStudio/sifive_hifive1_revb_hello/freedom-metal/metal/clock.h:66
20016b6e:	fdc42783          	lw	a5,-36(s0)
20016b72:	e781                	bnez	a5,20016b7a <_metal_clock_append_to_callbacks+0x22>
/home/nicoladgg/wsFreedomStudio/sifive_hifive1_revb_hello/freedom-metal/metal/clock.h:67
20016b74:	fd842783          	lw	a5,-40(s0)
20016b78:	a035                	j	20016ba4 <_metal_clock_append_to_callbacks+0x4c>
/home/nicoladgg/wsFreedomStudio/sifive_hifive1_revb_hello/freedom-metal/metal/clock.h:70
20016b7a:	fdc42783          	lw	a5,-36(s0)
20016b7e:	fef42623          	sw	a5,-20(s0)
/home/nicoladgg/wsFreedomStudio/sifive_hifive1_revb_hello/freedom-metal/metal/clock.h:72
20016b82:	a031                	j	20016b8e <_metal_clock_append_to_callbacks+0x36>
/home/nicoladgg/wsFreedomStudio/sifive_hifive1_revb_hello/freedom-metal/metal/clock.h:73
20016b84:	fec42783          	lw	a5,-20(s0)
20016b88:	479c                	lw	a5,8(a5)
20016b8a:	fef42623          	sw	a5,-20(s0)
/home/nicoladgg/wsFreedomStudio/sifive_hifive1_revb_hello/freedom-metal/metal/clock.h:72
20016b8e:	fec42783          	lw	a5,-20(s0)
20016b92:	479c                	lw	a5,8(a5)
20016b94:	fbe5                	bnez	a5,20016b84 <_metal_clock_append_to_callbacks+0x2c>
/home/nicoladgg/wsFreedomStudio/sifive_hifive1_revb_hello/freedom-metal/metal/clock.h:76
20016b96:	fec42783          	lw	a5,-20(s0)
20016b9a:	fd842703          	lw	a4,-40(s0)
20016b9e:	c798                	sw	a4,8(a5)
/home/nicoladgg/wsFreedomStudio/sifive_hifive1_revb_hello/freedom-metal/metal/clock.h:78
20016ba0:	fdc42783          	lw	a5,-36(s0)
/home/nicoladgg/wsFreedomStudio/sifive_hifive1_revb_hello/freedom-metal/metal/clock.h:79
20016ba4:	853e                	mv	a0,a5
20016ba6:	5432                	lw	s0,44(sp)
20016ba8:	6145                	addi	sp,sp,48
20016baa:	8082                	ret

20016bac <metal_clock_get_rate_hz>:
metal_clock_get_rate_hz():
/home/nicoladgg/wsFreedomStudio/sifive_hifive1_revb_hello/freedom-metal/metal/clock.h:110
20016bac:	1101                	addi	sp,sp,-32
20016bae:	ce06                	sw	ra,28(sp)
20016bb0:	cc22                	sw	s0,24(sp)
20016bb2:	1000                	addi	s0,sp,32
20016bb4:	fea42623          	sw	a0,-20(s0)
/home/nicoladgg/wsFreedomStudio/sifive_hifive1_revb_hello/freedom-metal/metal/clock.h:111
20016bb8:	fec42783          	lw	a5,-20(s0)
20016bbc:	439c                	lw	a5,0(a5)
20016bbe:	439c                	lw	a5,0(a5)
20016bc0:	fec42503          	lw	a0,-20(s0)
20016bc4:	9782                	jalr	a5
20016bc6:	87aa                	mv	a5,a0
/home/nicoladgg/wsFreedomStudio/sifive_hifive1_revb_hello/freedom-metal/metal/clock.h:112
20016bc8:	853e                	mv	a0,a5
20016bca:	40f2                	lw	ra,28(sp)
20016bcc:	4462                	lw	s0,24(sp)
20016bce:	6105                	addi	sp,sp,32
20016bd0:	8082                	ret

20016bd2 <metal_clock_set_rate_hz>:
metal_clock_set_rate_hz():
/home/nicoladgg/wsFreedomStudio/sifive_hifive1_revb_hello/freedom-metal/metal/clock.h:128
20016bd2:	7179                	addi	sp,sp,-48
20016bd4:	d606                	sw	ra,44(sp)
20016bd6:	d422                	sw	s0,40(sp)
20016bd8:	1800                	addi	s0,sp,48
20016bda:	fca42e23          	sw	a0,-36(s0)
20016bde:	fcb42c23          	sw	a1,-40(s0)
/home/nicoladgg/wsFreedomStudio/sifive_hifive1_revb_hello/freedom-metal/metal/clock.h:129
20016be2:	fdc42783          	lw	a5,-36(s0)
20016be6:	43dc                	lw	a5,4(a5)
20016be8:	853e                	mv	a0,a5
20016bea:	f2dff0ef          	jal	ra,20016b16 <_metal_clock_call_all_callbacks>
/home/nicoladgg/wsFreedomStudio/sifive_hifive1_revb_hello/freedom-metal/metal/clock.h:131
20016bee:	fdc42783          	lw	a5,-36(s0)
20016bf2:	439c                	lw	a5,0(a5)
20016bf4:	43dc                	lw	a5,4(a5)
20016bf6:	fd842583          	lw	a1,-40(s0)
20016bfa:	fdc42503          	lw	a0,-36(s0)
20016bfe:	9782                	jalr	a5
20016c00:	fea42623          	sw	a0,-20(s0)
/home/nicoladgg/wsFreedomStudio/sifive_hifive1_revb_hello/freedom-metal/metal/clock.h:133
20016c04:	fdc42783          	lw	a5,-36(s0)
20016c08:	479c                	lw	a5,8(a5)
20016c0a:	853e                	mv	a0,a5
20016c0c:	f0bff0ef          	jal	ra,20016b16 <_metal_clock_call_all_callbacks>
/home/nicoladgg/wsFreedomStudio/sifive_hifive1_revb_hello/freedom-metal/metal/clock.h:135
20016c10:	fec42783          	lw	a5,-20(s0)
/home/nicoladgg/wsFreedomStudio/sifive_hifive1_revb_hello/freedom-metal/metal/clock.h:136
20016c14:	853e                	mv	a0,a5
20016c16:	50b2                	lw	ra,44(sp)
20016c18:	5422                	lw	s0,40(sp)
20016c1a:	6145                	addi	sp,sp,48
20016c1c:	8082                	ret

20016c1e <metal_clock_register_pre_rate_change_callback>:
metal_clock_register_pre_rate_change_callback():
/home/nicoladgg/wsFreedomStudio/sifive_hifive1_revb_hello/freedom-metal/metal/clock.h:146
20016c1e:	1101                	addi	sp,sp,-32
20016c20:	ce06                	sw	ra,28(sp)
20016c22:	cc22                	sw	s0,24(sp)
20016c24:	1000                	addi	s0,sp,32
20016c26:	fea42623          	sw	a0,-20(s0)
20016c2a:	feb42423          	sw	a1,-24(s0)
/home/nicoladgg/wsFreedomStudio/sifive_hifive1_revb_hello/freedom-metal/metal/clock.h:148
20016c2e:	fec42783          	lw	a5,-20(s0)
20016c32:	43dc                	lw	a5,4(a5)
20016c34:	fe842583          	lw	a1,-24(s0)
20016c38:	853e                	mv	a0,a5
20016c3a:	f1fff0ef          	jal	ra,20016b58 <_metal_clock_append_to_callbacks>
20016c3e:	872a                	mv	a4,a0
/home/nicoladgg/wsFreedomStudio/sifive_hifive1_revb_hello/freedom-metal/metal/clock.h:147
20016c40:	fec42783          	lw	a5,-20(s0)
20016c44:	c3d8                	sw	a4,4(a5)
/home/nicoladgg/wsFreedomStudio/sifive_hifive1_revb_hello/freedom-metal/metal/clock.h:149
20016c46:	0001                	nop
20016c48:	40f2                	lw	ra,28(sp)
20016c4a:	4462                	lw	s0,24(sp)
20016c4c:	6105                	addi	sp,sp,32
20016c4e:	8082                	ret

20016c50 <metal_clock_register_post_rate_change_callback>:
metal_clock_register_post_rate_change_callback():
/home/nicoladgg/wsFreedomStudio/sifive_hifive1_revb_hello/freedom-metal/metal/clock.h:159
20016c50:	1101                	addi	sp,sp,-32
20016c52:	ce06                	sw	ra,28(sp)
20016c54:	cc22                	sw	s0,24(sp)
20016c56:	1000                	addi	s0,sp,32
20016c58:	fea42623          	sw	a0,-20(s0)
20016c5c:	feb42423          	sw	a1,-24(s0)
/home/nicoladgg/wsFreedomStudio/sifive_hifive1_revb_hello/freedom-metal/metal/clock.h:161
20016c60:	fec42783          	lw	a5,-20(s0)
20016c64:	479c                	lw	a5,8(a5)
20016c66:	fe842583          	lw	a1,-24(s0)
20016c6a:	853e                	mv	a0,a5
20016c6c:	eedff0ef          	jal	ra,20016b58 <_metal_clock_append_to_callbacks>
20016c70:	872a                	mv	a4,a0
/home/nicoladgg/wsFreedomStudio/sifive_hifive1_revb_hello/freedom-metal/metal/clock.h:160
20016c72:	fec42783          	lw	a5,-20(s0)
20016c76:	c798                	sw	a4,8(a5)
/home/nicoladgg/wsFreedomStudio/sifive_hifive1_revb_hello/freedom-metal/metal/clock.h:162
20016c78:	0001                	nop
20016c7a:	40f2                	lw	ra,28(sp)
20016c7c:	4462                	lw	s0,24(sp)
20016c7e:	6105                	addi	sp,sp,32
20016c80:	8082                	ret

20016c82 <metal_shutdown>:
metal_shutdown():
/home/nicoladgg/wsFreedomStudio/sifive_hifive1_revb_hello/freedom-metal/src/shutdown.c:17
20016c82:	1101                	addi	sp,sp,-32
20016c84:	ce22                	sw	s0,28(sp)
20016c86:	1000                	addi	s0,sp,32
20016c88:	fea42623          	sw	a0,-20(s0)
/home/nicoladgg/wsFreedomStudio/sifive_hifive1_revb_hello/freedom-metal/src/shutdown.c:19 (discriminator 1)
20016c8c:	0001                	nop
20016c8e:	bffd                	j	20016c8c <metal_shutdown+0xa>

20016c90 <metal_uart_init>:
metal_uart_init():
/home/nicoladgg/wsFreedomStudio/sifive_hifive1_revb_hello/freedom-metal/metal/uart.h:59
20016c90:	1101                	addi	sp,sp,-32
20016c92:	ce06                	sw	ra,28(sp)
20016c94:	cc22                	sw	s0,24(sp)
20016c96:	1000                	addi	s0,sp,32
20016c98:	fea42623          	sw	a0,-20(s0)
20016c9c:	feb42423          	sw	a1,-24(s0)
/home/nicoladgg/wsFreedomStudio/sifive_hifive1_revb_hello/freedom-metal/metal/uart.h:60
20016ca0:	fec42783          	lw	a5,-20(s0)
20016ca4:	439c                	lw	a5,0(a5)
20016ca6:	439c                	lw	a5,0(a5)
20016ca8:	fe842583          	lw	a1,-24(s0)
20016cac:	fec42503          	lw	a0,-20(s0)
20016cb0:	9782                	jalr	a5
/home/nicoladgg/wsFreedomStudio/sifive_hifive1_revb_hello/freedom-metal/metal/uart.h:61
20016cb2:	0001                	nop
20016cb4:	40f2                	lw	ra,28(sp)
20016cb6:	4462                	lw	s0,24(sp)
20016cb8:	6105                	addi	sp,sp,32
20016cba:	8082                	ret

20016cbc <metal_uart_putc>:
metal_uart_putc():
/home/nicoladgg/wsFreedomStudio/sifive_hifive1_revb_hello/freedom-metal/metal/uart.h:69
20016cbc:	1101                	addi	sp,sp,-32
20016cbe:	ce06                	sw	ra,28(sp)
20016cc0:	cc22                	sw	s0,24(sp)
20016cc2:	1000                	addi	s0,sp,32
20016cc4:	fea42623          	sw	a0,-20(s0)
20016cc8:	feb42423          	sw	a1,-24(s0)
/home/nicoladgg/wsFreedomStudio/sifive_hifive1_revb_hello/freedom-metal/metal/uart.h:70
20016ccc:	fec42783          	lw	a5,-20(s0)
20016cd0:	439c                	lw	a5,0(a5)
20016cd2:	43dc                	lw	a5,4(a5)
20016cd4:	fe842583          	lw	a1,-24(s0)
20016cd8:	fec42503          	lw	a0,-20(s0)
20016cdc:	9782                	jalr	a5
20016cde:	87aa                	mv	a5,a0
/home/nicoladgg/wsFreedomStudio/sifive_hifive1_revb_hello/freedom-metal/metal/uart.h:71
20016ce0:	853e                	mv	a0,a5
20016ce2:	40f2                	lw	ra,28(sp)
20016ce4:	4462                	lw	s0,24(sp)
20016ce6:	6105                	addi	sp,sp,32
20016ce8:	8082                	ret

20016cea <metal_uart_set_baud_rate>:
metal_uart_set_baud_rate():
/home/nicoladgg/wsFreedomStudio/sifive_hifive1_revb_hello/freedom-metal/metal/uart.h:111
20016cea:	1101                	addi	sp,sp,-32
20016cec:	ce06                	sw	ra,28(sp)
20016cee:	cc22                	sw	s0,24(sp)
20016cf0:	1000                	addi	s0,sp,32
20016cf2:	fea42623          	sw	a0,-20(s0)
20016cf6:	feb42423          	sw	a1,-24(s0)
/home/nicoladgg/wsFreedomStudio/sifive_hifive1_revb_hello/freedom-metal/metal/uart.h:112
20016cfa:	fec42783          	lw	a5,-20(s0)
20016cfe:	439c                	lw	a5,0(a5)
20016d00:	4bdc                	lw	a5,20(a5)
20016d02:	fe842583          	lw	a1,-24(s0)
20016d06:	fec42503          	lw	a0,-20(s0)
20016d0a:	9782                	jalr	a5
20016d0c:	87aa                	mv	a5,a0
/home/nicoladgg/wsFreedomStudio/sifive_hifive1_revb_hello/freedom-metal/metal/uart.h:113
20016d0e:	853e                	mv	a0,a5
20016d10:	40f2                	lw	ra,28(sp)
20016d12:	4462                	lw	s0,24(sp)
20016d14:	6105                	addi	sp,sp,32
20016d16:	8082                	ret
	...

20016d80 <__metal_vector_table>:
IRQ_0():
/home/nicoladgg/wsFreedomStudio/sifive_hifive1_revb_hello/freedom-metal/src/vector.S:96
20016d80:	a2cfc06f          	j	20012fac <metal_interrupt_vector_handler>

20016d84 <IRQ_1>:
IRQ_1():
/home/nicoladgg/wsFreedomStudio/sifive_hifive1_revb_hello/freedom-metal/src/vector.S:98
20016d84:	a28fc06f          	j	20012fac <metal_interrupt_vector_handler>

20016d88 <IRQ_2>:
IRQ_2():
/home/nicoladgg/wsFreedomStudio/sifive_hifive1_revb_hello/freedom-metal/src/vector.S:100
20016d88:	a24fc06f          	j	20012fac <metal_interrupt_vector_handler>

20016d8c <IRQ_3>:
IRQ_3():
/home/nicoladgg/wsFreedomStudio/sifive_hifive1_revb_hello/freedom-metal/src/vector.S:102
20016d8c:	a4efc06f          	j	20012fda <metal_software_interrupt_vector_handler>

20016d90 <IRQ_4>:
IRQ_4():
/home/nicoladgg/wsFreedomStudio/sifive_hifive1_revb_hello/freedom-metal/src/vector.S:104
20016d90:	a1cfc06f          	j	20012fac <metal_interrupt_vector_handler>

20016d94 <IRQ_5>:
IRQ_5():
/home/nicoladgg/wsFreedomStudio/sifive_hifive1_revb_hello/freedom-metal/src/vector.S:106
20016d94:	a18fc06f          	j	20012fac <metal_interrupt_vector_handler>

20016d98 <IRQ_6>:
IRQ_6():
/home/nicoladgg/wsFreedomStudio/sifive_hifive1_revb_hello/freedom-metal/src/vector.S:108
20016d98:	a14fc06f          	j	20012fac <metal_interrupt_vector_handler>

20016d9c <IRQ_7>:
IRQ_7():
/home/nicoladgg/wsFreedomStudio/sifive_hifive1_revb_hello/freedom-metal/src/vector.S:110
20016d9c:	b38fc06f          	j	200130d4 <metal_timer_interrupt_vector_handler>

20016da0 <IRQ_8>:
IRQ_8():
/home/nicoladgg/wsFreedomStudio/sifive_hifive1_revb_hello/freedom-metal/src/vector.S:112
20016da0:	a0cfc06f          	j	20012fac <metal_interrupt_vector_handler>

20016da4 <IRQ_9>:
IRQ_9():
/home/nicoladgg/wsFreedomStudio/sifive_hifive1_revb_hello/freedom-metal/src/vector.S:114
20016da4:	a08fc06f          	j	20012fac <metal_interrupt_vector_handler>

20016da8 <IRQ_10>:
IRQ_10():
/home/nicoladgg/wsFreedomStudio/sifive_hifive1_revb_hello/freedom-metal/src/vector.S:116
20016da8:	a04fc06f          	j	20012fac <metal_interrupt_vector_handler>

20016dac <IRQ_11>:
IRQ_11():
/home/nicoladgg/wsFreedomStudio/sifive_hifive1_revb_hello/freedom-metal/src/vector.S:118
20016dac:	a00fc06f          	j	20012fac <metal_interrupt_vector_handler>

20016db0 <IRQ_12>:
IRQ_12():
/home/nicoladgg/wsFreedomStudio/sifive_hifive1_revb_hello/freedom-metal/src/vector.S:120
20016db0:	9fcfc06f          	j	20012fac <metal_interrupt_vector_handler>

20016db4 <IRQ_13>:
IRQ_13():
/home/nicoladgg/wsFreedomStudio/sifive_hifive1_revb_hello/freedom-metal/src/vector.S:122
20016db4:	9f8fc06f          	j	20012fac <metal_interrupt_vector_handler>

20016db8 <IRQ_14>:
IRQ_14():
/home/nicoladgg/wsFreedomStudio/sifive_hifive1_revb_hello/freedom-metal/src/vector.S:124
20016db8:	9f4fc06f          	j	20012fac <metal_interrupt_vector_handler>

20016dbc <IRQ_15>:
IRQ_15():
/home/nicoladgg/wsFreedomStudio/sifive_hifive1_revb_hello/freedom-metal/src/vector.S:126
20016dbc:	9f0fc06f          	j	20012fac <metal_interrupt_vector_handler>

20016dc0 <IRQ_LC0>:
IRQ_LC0():
/home/nicoladgg/wsFreedomStudio/sifive_hifive1_revb_hello/freedom-metal/src/vector.S:128
20016dc0:	e38fc06f          	j	200133f8 <metal_lc0_interrupt_vector_handler>

20016dc4 <IRQ_LC1>:
IRQ_LC1():
/home/nicoladgg/wsFreedomStudio/sifive_hifive1_revb_hello/freedom-metal/src/vector.S:130
20016dc4:	ecafc06f          	j	2001348e <metal_lc1_interrupt_vector_handler>

20016dc8 <IRQ_LC2>:
IRQ_LC2():
/home/nicoladgg/wsFreedomStudio/sifive_hifive1_revb_hello/freedom-metal/src/vector.S:132
20016dc8:	f5cfc06f          	j	20013524 <metal_lc2_interrupt_vector_handler>

20016dcc <IRQ_LC3>:
IRQ_LC3():
/home/nicoladgg/wsFreedomStudio/sifive_hifive1_revb_hello/freedom-metal/src/vector.S:134
20016dcc:	feefc06f          	j	200135ba <metal_lc3_interrupt_vector_handler>

20016dd0 <IRQ_LC4>:
IRQ_LC4():
/home/nicoladgg/wsFreedomStudio/sifive_hifive1_revb_hello/freedom-metal/src/vector.S:136
20016dd0:	881fc06f          	j	20013650 <metal_lc4_interrupt_vector_handler>

20016dd4 <IRQ_LC5>:
IRQ_LC5():
/home/nicoladgg/wsFreedomStudio/sifive_hifive1_revb_hello/freedom-metal/src/vector.S:138
20016dd4:	913fc06f          	j	200136e6 <metal_lc5_interrupt_vector_handler>

20016dd8 <IRQ_LC6>:
IRQ_LC6():
/home/nicoladgg/wsFreedomStudio/sifive_hifive1_revb_hello/freedom-metal/src/vector.S:140
20016dd8:	9a5fc06f          	j	2001377c <metal_lc6_interrupt_vector_handler>

20016ddc <IRQ_LC7>:
IRQ_LC7():
/home/nicoladgg/wsFreedomStudio/sifive_hifive1_revb_hello/freedom-metal/src/vector.S:142
20016ddc:	a37fc06f          	j	20013812 <metal_lc7_interrupt_vector_handler>

20016de0 <IRQ_LC8>:
IRQ_LC8():
/home/nicoladgg/wsFreedomStudio/sifive_hifive1_revb_hello/freedom-metal/src/vector.S:144
20016de0:	ac9fc06f          	j	200138a8 <metal_lc8_interrupt_vector_handler>

20016de4 <IRQ_LC9>:
IRQ_LC9():
/home/nicoladgg/wsFreedomStudio/sifive_hifive1_revb_hello/freedom-metal/src/vector.S:146
20016de4:	b5bfc06f          	j	2001393e <metal_lc9_interrupt_vector_handler>

20016de8 <IRQ_LC10>:
IRQ_LC10():
/home/nicoladgg/wsFreedomStudio/sifive_hifive1_revb_hello/freedom-metal/src/vector.S:148
20016de8:	bedfc06f          	j	200139d4 <metal_lc10_interrupt_vector_handler>

20016dec <IRQ_LC11>:
IRQ_LC11():
/home/nicoladgg/wsFreedomStudio/sifive_hifive1_revb_hello/freedom-metal/src/vector.S:150
20016dec:	c7ffc06f          	j	20013a6a <metal_lc11_interrupt_vector_handler>

20016df0 <IRQ_LC12>:
IRQ_LC12():
/home/nicoladgg/wsFreedomStudio/sifive_hifive1_revb_hello/freedom-metal/src/vector.S:152
20016df0:	d11fc06f          	j	20013b00 <metal_lc12_interrupt_vector_handler>

20016df4 <IRQ_LC13>:
IRQ_LC13():
/home/nicoladgg/wsFreedomStudio/sifive_hifive1_revb_hello/freedom-metal/src/vector.S:154
20016df4:	da3fc06f          	j	20013b96 <metal_lc13_interrupt_vector_handler>

20016df8 <IRQ_LC14>:
IRQ_LC14():
/home/nicoladgg/wsFreedomStudio/sifive_hifive1_revb_hello/freedom-metal/src/vector.S:156
20016df8:	e35fc06f          	j	20013c2c <metal_lc14_interrupt_vector_handler>

20016dfc <IRQ_LC15>:
IRQ_LC15():
/home/nicoladgg/wsFreedomStudio/sifive_hifive1_revb_hello/freedom-metal/src/vector.S:158
20016dfc:	ec7fc06f          	j	20013cc2 <metal_lc15_interrupt_vector_handler>

20016e00 <__metal_driver_fixed_clock_rate>:
__metal_driver_fixed_clock_rate():
/home/nicoladgg/wsFreedomStudio/sifive_hifive1_revb_hello/bsp/build/debug/./metal/machine.h:208
20016e00:	1101                	addi	sp,sp,-32
20016e02:	ce22                	sw	s0,28(sp)
20016e04:	1000                	addi	s0,sp,32
20016e06:	fea42623          	sw	a0,-20(s0)
/home/nicoladgg/wsFreedomStudio/sifive_hifive1_revb_hello/bsp/build/debug/./metal/machine.h:209
20016e0a:	fec42703          	lw	a4,-20(s0)
20016e0e:	800007b7          	lui	a5,0x80000
20016e12:	06078793          	addi	a5,a5,96 # 80000060 <metal_segment_heap_target_end+0xffffe8e0>
20016e16:	00f71763          	bne	a4,a5,20016e24 <__metal_driver_fixed_clock_rate+0x24>
/home/nicoladgg/wsFreedomStudio/sifive_hifive1_revb_hello/bsp/build/debug/./metal/machine.h:210
20016e1a:	00f427b7          	lui	a5,0xf42
20016e1e:	40078793          	addi	a5,a5,1024 # f42400 <__heap_size+0xf41c00>
20016e22:	a099                	j	20016e68 <__metal_driver_fixed_clock_rate+0x68>
/home/nicoladgg/wsFreedomStudio/sifive_hifive1_revb_hello/bsp/build/debug/./metal/machine.h:212
20016e24:	fec42703          	lw	a4,-20(s0)
20016e28:	800007b7          	lui	a5,0x80000
20016e2c:	06c78793          	addi	a5,a5,108 # 8000006c <metal_segment_heap_target_end+0xffffe8ec>
20016e30:	00f71763          	bne	a4,a5,20016e3e <__metal_driver_fixed_clock_rate+0x3e>
/home/nicoladgg/wsFreedomStudio/sifive_hifive1_revb_hello/bsp/build/debug/./metal/machine.h:213
20016e34:	044aa7b7          	lui	a5,0x44aa
20016e38:	20078793          	addi	a5,a5,512 # 44aa200 <__heap_size+0x44a9a00>
20016e3c:	a035                	j	20016e68 <__metal_driver_fixed_clock_rate+0x68>
/home/nicoladgg/wsFreedomStudio/sifive_hifive1_revb_hello/bsp/build/debug/./metal/machine.h:215
20016e3e:	fec42703          	lw	a4,-20(s0)
20016e42:	800007b7          	lui	a5,0x80000
20016e46:	07878793          	addi	a5,a5,120 # 80000078 <metal_segment_heap_target_end+0xffffe8f8>
20016e4a:	00f71463          	bne	a4,a5,20016e52 <__metal_driver_fixed_clock_rate+0x52>
/home/nicoladgg/wsFreedomStudio/sifive_hifive1_revb_hello/bsp/build/debug/./metal/machine.h:216
20016e4e:	67a1                	lui	a5,0x8
20016e50:	a821                	j	20016e68 <__metal_driver_fixed_clock_rate+0x68>
/home/nicoladgg/wsFreedomStudio/sifive_hifive1_revb_hello/bsp/build/debug/./metal/machine.h:218
20016e52:	fec42703          	lw	a4,-20(s0)
20016e56:	800007b7          	lui	a5,0x80000
20016e5a:	08478793          	addi	a5,a5,132 # 80000084 <metal_segment_heap_target_end+0xffffe904>
20016e5e:	00f71463          	bne	a4,a5,20016e66 <__metal_driver_fixed_clock_rate+0x66>
/home/nicoladgg/wsFreedomStudio/sifive_hifive1_revb_hello/bsp/build/debug/./metal/machine.h:219
20016e62:	67a1                	lui	a5,0x8
20016e64:	a011                	j	20016e68 <__metal_driver_fixed_clock_rate+0x68>
/home/nicoladgg/wsFreedomStudio/sifive_hifive1_revb_hello/bsp/build/debug/./metal/machine.h:222
20016e66:	4781                	li	a5,0
/home/nicoladgg/wsFreedomStudio/sifive_hifive1_revb_hello/bsp/build/debug/./metal/machine.h:224
20016e68:	853e                	mv	a0,a5
20016e6a:	4472                	lw	s0,28(sp)
20016e6c:	6105                	addi	sp,sp,32
20016e6e:	8082                	ret

20016e70 <__metal_driver_fixed_clock_get_rate_hz>:
__metal_driver_fixed_clock_get_rate_hz():
/home/nicoladgg/wsFreedomStudio/sifive_hifive1_revb_hello/freedom-metal/src/drivers/fixed-clock.c:12
20016e70:	1101                	addi	sp,sp,-32
20016e72:	ce06                	sw	ra,28(sp)
20016e74:	cc22                	sw	s0,24(sp)
20016e76:	1000                	addi	s0,sp,32
20016e78:	fea42623          	sw	a0,-20(s0)
/home/nicoladgg/wsFreedomStudio/sifive_hifive1_revb_hello/freedom-metal/src/drivers/fixed-clock.c:13
20016e7c:	fec42503          	lw	a0,-20(s0)
20016e80:	3741                	jal	20016e00 <__metal_driver_fixed_clock_rate>
20016e82:	87aa                	mv	a5,a0
/home/nicoladgg/wsFreedomStudio/sifive_hifive1_revb_hello/freedom-metal/src/drivers/fixed-clock.c:14
20016e84:	853e                	mv	a0,a5
20016e86:	40f2                	lw	ra,28(sp)
20016e88:	4462                	lw	s0,24(sp)
20016e8a:	6105                	addi	sp,sp,32
20016e8c:	8082                	ret

20016e8e <__metal_driver_fixed_clock_set_rate_hz>:
__metal_driver_fixed_clock_set_rate_hz():
/home/nicoladgg/wsFreedomStudio/sifive_hifive1_revb_hello/freedom-metal/src/drivers/fixed-clock.c:17
20016e8e:	1101                	addi	sp,sp,-32
20016e90:	ce06                	sw	ra,28(sp)
20016e92:	cc22                	sw	s0,24(sp)
20016e94:	1000                	addi	s0,sp,32
20016e96:	fea42623          	sw	a0,-20(s0)
20016e9a:	feb42423          	sw	a1,-24(s0)
/home/nicoladgg/wsFreedomStudio/sifive_hifive1_revb_hello/freedom-metal/src/drivers/fixed-clock.c:18
20016e9e:	fec42503          	lw	a0,-20(s0)
20016ea2:	37f9                	jal	20016e70 <__metal_driver_fixed_clock_get_rate_hz>
20016ea4:	87aa                	mv	a5,a0
/home/nicoladgg/wsFreedomStudio/sifive_hifive1_revb_hello/freedom-metal/src/drivers/fixed-clock.c:19
20016ea6:	853e                	mv	a0,a5
20016ea8:	40f2                	lw	ra,28(sp)
20016eaa:	4462                	lw	s0,24(sp)
20016eac:	6105                	addi	sp,sp,32
20016eae:	8082                	ret

20016eb0 <_close>:
_close():
/home/nicoladgg/wsFreedomStudio/sifive_hifive1_revb_hello/freedom-metal/gloss/sys_close.c:3
20016eb0:	1101                	addi	sp,sp,-32
20016eb2:	ce06                	sw	ra,28(sp)
20016eb4:	cc22                	sw	s0,24(sp)
20016eb6:	1000                	addi	s0,sp,32
20016eb8:	fea42623          	sw	a0,-20(s0)
/home/nicoladgg/wsFreedomStudio/sifive_hifive1_revb_hello/freedom-metal/gloss/sys_close.c:4
20016ebc:	2a49                	jal	2001704e <__errno>
20016ebe:	872a                	mv	a4,a0
20016ec0:	05800793          	li	a5,88
20016ec4:	c31c                	sw	a5,0(a4)
/home/nicoladgg/wsFreedomStudio/sifive_hifive1_revb_hello/freedom-metal/gloss/sys_close.c:5
20016ec6:	57fd                	li	a5,-1
/home/nicoladgg/wsFreedomStudio/sifive_hifive1_revb_hello/freedom-metal/gloss/sys_close.c:6
20016ec8:	853e                	mv	a0,a5
20016eca:	40f2                	lw	ra,28(sp)
20016ecc:	4462                	lw	s0,24(sp)
20016ece:	6105                	addi	sp,sp,32
20016ed0:	8082                	ret

20016ed2 <_fstat>:
_fstat():
/home/nicoladgg/wsFreedomStudio/sifive_hifive1_revb_hello/freedom-metal/gloss/sys_fstat.c:4
20016ed2:	1101                	addi	sp,sp,-32
20016ed4:	ce06                	sw	ra,28(sp)
20016ed6:	cc22                	sw	s0,24(sp)
20016ed8:	1000                	addi	s0,sp,32
20016eda:	fea42623          	sw	a0,-20(s0)
20016ede:	feb42423          	sw	a1,-24(s0)
/home/nicoladgg/wsFreedomStudio/sifive_hifive1_revb_hello/freedom-metal/gloss/sys_fstat.c:5
20016ee2:	22b5                	jal	2001704e <__errno>
20016ee4:	872a                	mv	a4,a0
20016ee6:	fa800793          	li	a5,-88
20016eea:	c31c                	sw	a5,0(a4)
/home/nicoladgg/wsFreedomStudio/sifive_hifive1_revb_hello/freedom-metal/gloss/sys_fstat.c:6
20016eec:	57fd                	li	a5,-1
/home/nicoladgg/wsFreedomStudio/sifive_hifive1_revb_hello/freedom-metal/gloss/sys_fstat.c:7
20016eee:	853e                	mv	a0,a5
20016ef0:	40f2                	lw	ra,28(sp)
20016ef2:	4462                	lw	s0,24(sp)
20016ef4:	6105                	addi	sp,sp,32
20016ef6:	8082                	ret

20016ef8 <_isatty>:
_isatty():
/home/nicoladgg/wsFreedomStudio/sifive_hifive1_revb_hello/freedom-metal/gloss/sys_isatty.c:3
20016ef8:	1101                	addi	sp,sp,-32
20016efa:	ce22                	sw	s0,28(sp)
20016efc:	1000                	addi	s0,sp,32
20016efe:	fea42623          	sw	a0,-20(s0)
20016f02:	fec42783          	lw	a5,-20(s0)
20016f06:	17fd                	addi	a5,a5,-1
20016f08:	0017b793          	seqz	a5,a5
20016f0c:	0ff7f793          	zext.b	a5,a5
20016f10:	853e                	mv	a0,a5
20016f12:	4472                	lw	s0,28(sp)
20016f14:	6105                	addi	sp,sp,32
20016f16:	8082                	ret

20016f18 <_lseek>:
_lseek():
/home/nicoladgg/wsFreedomStudio/sifive_hifive1_revb_hello/freedom-metal/gloss/sys_lseek.c:4
20016f18:	1101                	addi	sp,sp,-32
20016f1a:	ce06                	sw	ra,28(sp)
20016f1c:	cc22                	sw	s0,24(sp)
20016f1e:	1000                	addi	s0,sp,32
20016f20:	fea42623          	sw	a0,-20(s0)
20016f24:	feb42423          	sw	a1,-24(s0)
20016f28:	fec42223          	sw	a2,-28(s0)
/home/nicoladgg/wsFreedomStudio/sifive_hifive1_revb_hello/freedom-metal/gloss/sys_lseek.c:5
20016f2c:	220d                	jal	2001704e <__errno>
20016f2e:	872a                	mv	a4,a0
20016f30:	05800793          	li	a5,88
20016f34:	c31c                	sw	a5,0(a4)
/home/nicoladgg/wsFreedomStudio/sifive_hifive1_revb_hello/freedom-metal/gloss/sys_lseek.c:6
20016f36:	57fd                	li	a5,-1
/home/nicoladgg/wsFreedomStudio/sifive_hifive1_revb_hello/freedom-metal/gloss/sys_lseek.c:7
20016f38:	853e                	mv	a0,a5
20016f3a:	40f2                	lw	ra,28(sp)
20016f3c:	4462                	lw	s0,24(sp)
20016f3e:	6105                	addi	sp,sp,32
20016f40:	8082                	ret

20016f42 <_read>:
_read():
/home/nicoladgg/wsFreedomStudio/sifive_hifive1_revb_hello/freedom-metal/gloss/sys_read.c:4
20016f42:	1101                	addi	sp,sp,-32
20016f44:	ce06                	sw	ra,28(sp)
20016f46:	cc22                	sw	s0,24(sp)
20016f48:	1000                	addi	s0,sp,32
20016f4a:	fea42623          	sw	a0,-20(s0)
20016f4e:	feb42423          	sw	a1,-24(s0)
20016f52:	fec42223          	sw	a2,-28(s0)
/home/nicoladgg/wsFreedomStudio/sifive_hifive1_revb_hello/freedom-metal/gloss/sys_read.c:5
20016f56:	28e5                	jal	2001704e <__errno>
20016f58:	872a                	mv	a4,a0
20016f5a:	05800793          	li	a5,88
20016f5e:	c31c                	sw	a5,0(a4)
/home/nicoladgg/wsFreedomStudio/sifive_hifive1_revb_hello/freedom-metal/gloss/sys_read.c:6
20016f60:	57fd                	li	a5,-1
/home/nicoladgg/wsFreedomStudio/sifive_hifive1_revb_hello/freedom-metal/gloss/sys_read.c:7
20016f62:	853e                	mv	a0,a5
20016f64:	40f2                	lw	ra,28(sp)
20016f66:	4462                	lw	s0,24(sp)
20016f68:	6105                	addi	sp,sp,32
20016f6a:	8082                	ret

20016f6c <_sbrk>:
_sbrk():
/home/nicoladgg/wsFreedomStudio/sifive_hifive1_revb_hello/freedom-metal/gloss/sys_sbrk.c:24
20016f6c:	7179                	addi	sp,sp,-48
20016f6e:	d606                	sw	ra,44(sp)
20016f70:	d422                	sw	s0,40(sp)
20016f72:	1800                	addi	s0,sp,48
20016f74:	fca42e23          	sw	a0,-36(s0)
/home/nicoladgg/wsFreedomStudio/sifive_hifive1_revb_hello/freedom-metal/gloss/sys_sbrk.c:25
20016f78:	8241a783          	lw	a5,-2012(gp) # 80000ac4 <__brk>
20016f7c:	fef42623          	sw	a5,-20(s0)
/home/nicoladgg/wsFreedomStudio/sifive_hifive1_revb_hello/freedom-metal/gloss/sys_sbrk.c:28
20016f80:	ce018713          	addi	a4,gp,-800 # 80000f80 <_sp>
20016f84:	4e018793          	addi	a5,gp,1248 # 80001780 <metal_segment_heap_target_end>
20016f88:	00f71463          	bne	a4,a5,20016f90 <_sbrk+0x24>
/home/nicoladgg/wsFreedomStudio/sifive_hifive1_revb_hello/freedom-metal/gloss/sys_sbrk.c:29
20016f8c:	57fd                	li	a5,-1
20016f8e:	a83d                	j	20016fcc <_sbrk+0x60>
/home/nicoladgg/wsFreedomStudio/sifive_hifive1_revb_hello/freedom-metal/gloss/sys_sbrk.c:33
20016f90:	8241a703          	lw	a4,-2012(gp) # 80000ac4 <__brk>
20016f94:	fdc42783          	lw	a5,-36(s0)
20016f98:	973e                	add	a4,a4,a5
20016f9a:	4e018793          	addi	a5,gp,1248 # 80001780 <metal_segment_heap_target_end>
20016f9e:	02f77263          	bgeu	a4,a5,20016fc2 <_sbrk+0x56>
/home/nicoladgg/wsFreedomStudio/sifive_hifive1_revb_hello/freedom-metal/gloss/sys_sbrk.c:34
20016fa2:	8241a703          	lw	a4,-2012(gp) # 80000ac4 <__brk>
20016fa6:	fdc42783          	lw	a5,-36(s0)
20016faa:	973e                	add	a4,a4,a5
20016fac:	82e1a223          	sw	a4,-2012(gp) # 80000ac4 <__brk>
/home/nicoladgg/wsFreedomStudio/sifive_hifive1_revb_hello/freedom-metal/gloss/sys_sbrk.c:40
20016fb0:	fdc42583          	lw	a1,-36(s0)
20016fb4:	fec42503          	lw	a0,-20(s0)
20016fb8:	8d2f90ef          	jal	ra,2001008a <metal_mem_scrub>
/home/nicoladgg/wsFreedomStudio/sifive_hifive1_revb_hello/freedom-metal/gloss/sys_sbrk.c:42
20016fbc:	fec42783          	lw	a5,-20(s0)
20016fc0:	a031                	j	20016fcc <_sbrk+0x60>
/home/nicoladgg/wsFreedomStudio/sifive_hifive1_revb_hello/freedom-metal/gloss/sys_sbrk.c:36
20016fc2:	4e018713          	addi	a4,gp,1248 # 80001780 <metal_segment_heap_target_end>
20016fc6:	82e1a223          	sw	a4,-2012(gp) # 80000ac4 <__brk>
/home/nicoladgg/wsFreedomStudio/sifive_hifive1_revb_hello/freedom-metal/gloss/sys_sbrk.c:37
20016fca:	57fd                	li	a5,-1
/home/nicoladgg/wsFreedomStudio/sifive_hifive1_revb_hello/freedom-metal/gloss/sys_sbrk.c:43
20016fcc:	853e                	mv	a0,a5
20016fce:	50b2                	lw	ra,44(sp)
20016fd0:	5422                	lw	s0,40(sp)
20016fd2:	6145                	addi	sp,sp,48
20016fd4:	8082                	ret

20016fd6 <_write>:
_write():
/home/nicoladgg/wsFreedomStudio/sifive_hifive1_revb_hello/freedom-metal/gloss/sys_write.c:7
20016fd6:	7179                	addi	sp,sp,-48
20016fd8:	d606                	sw	ra,44(sp)
20016fda:	d422                	sw	s0,40(sp)
20016fdc:	1800                	addi	s0,sp,48
20016fde:	fca42e23          	sw	a0,-36(s0)
20016fe2:	fcb42c23          	sw	a1,-40(s0)
20016fe6:	fcc42a23          	sw	a2,-44(s0)
/home/nicoladgg/wsFreedomStudio/sifive_hifive1_revb_hello/freedom-metal/gloss/sys_write.c:8
20016fea:	fdc42703          	lw	a4,-36(s0)
20016fee:	4785                	li	a5,1
20016ff0:	00f70963          	beq	a4,a5,20017002 <_write+0x2c>
/home/nicoladgg/wsFreedomStudio/sifive_hifive1_revb_hello/freedom-metal/gloss/sys_write.c:9
20016ff4:	28a9                	jal	2001704e <__errno>
20016ff6:	872a                	mv	a4,a0
20016ff8:	05800793          	li	a5,88
20016ffc:	c31c                	sw	a5,0(a4)
/home/nicoladgg/wsFreedomStudio/sifive_hifive1_revb_hello/freedom-metal/gloss/sys_write.c:10
20016ffe:	57fd                	li	a5,-1
20017000:	a82d                	j	2001703a <_write+0x64>
/home/nicoladgg/wsFreedomStudio/sifive_hifive1_revb_hello/freedom-metal/gloss/sys_write.c:13
20017002:	fd842783          	lw	a5,-40(s0)
20017006:	fef42423          	sw	a5,-24(s0)
/home/nicoladgg/wsFreedomStudio/sifive_hifive1_revb_hello/freedom-metal/gloss/sys_write.c:14
2001700a:	fe042623          	sw	zero,-20(s0)
2001700e:	a839                	j	2001702c <_write+0x56>
/home/nicoladgg/wsFreedomStudio/sifive_hifive1_revb_hello/freedom-metal/gloss/sys_write.c:15 (discriminator 3)
20017010:	fe842703          	lw	a4,-24(s0)
20017014:	fec42783          	lw	a5,-20(s0)
20017018:	97ba                	add	a5,a5,a4
2001701a:	0007c783          	lbu	a5,0(a5) # 8000 <__heap_size+0x7800>
2001701e:	853e                	mv	a0,a5
20017020:	2e91                	jal	20017374 <metal_tty_putc>
/home/nicoladgg/wsFreedomStudio/sifive_hifive1_revb_hello/freedom-metal/gloss/sys_write.c:14 (discriminator 3)
20017022:	fec42783          	lw	a5,-20(s0)
20017026:	0785                	addi	a5,a5,1
20017028:	fef42623          	sw	a5,-20(s0)
/home/nicoladgg/wsFreedomStudio/sifive_hifive1_revb_hello/freedom-metal/gloss/sys_write.c:14 (discriminator 1)
2001702c:	fec42703          	lw	a4,-20(s0)
20017030:	fd442783          	lw	a5,-44(s0)
20017034:	fcf76ee3          	bltu	a4,a5,20017010 <_write+0x3a>
/home/nicoladgg/wsFreedomStudio/sifive_hifive1_revb_hello/freedom-metal/gloss/sys_write.c:16
20017038:	4781                	li	a5,0
/home/nicoladgg/wsFreedomStudio/sifive_hifive1_revb_hello/freedom-metal/gloss/sys_write.c:17
2001703a:	853e                	mv	a0,a5
2001703c:	50b2                	lw	ra,44(sp)
2001703e:	5422                	lw	s0,40(sp)
20017040:	6145                	addi	sp,sp,48
20017042:	8082                	ret

20017044 <atexit>:
atexit():
20017044:	85aa                	mv	a1,a0
20017046:	4681                	li	a3,0
20017048:	4601                	li	a2,0
2001704a:	4501                	li	a0,0
2001704c:	a0e1                	j	20017114 <__register_exitproc>

2001704e <__errno>:
__errno():
2001704e:	5ffea517          	auipc	a0,0x5ffea
20017052:	a5652503          	lw	a0,-1450(a0) # 80000aa4 <_impure_ptr>
20017056:	8082                	ret

20017058 <exit>:
exit():
20017058:	1141                	addi	sp,sp,-16
2001705a:	c422                	sw	s0,8(sp)
2001705c:	c606                	sw	ra,12(sp)
2001705e:	00000797          	auipc	a5,0x0
20017062:	13278793          	addi	a5,a5,306 # 20017190 <__call_exitprocs>
20017066:	842a                	mv	s0,a0
20017068:	c399                	beqz	a5,2001706e <exit+0x16>
2001706a:	4581                	li	a1,0
2001706c:	2215                	jal	20017190 <__call_exitprocs>
2001706e:	ffffa517          	auipc	a0,0xffffa
20017072:	f4252503          	lw	a0,-190(a0) # 20010fb0 <_global_impure_ptr>
20017076:	551c                	lw	a5,40(a0)
20017078:	c391                	beqz	a5,2001707c <exit+0x24>
2001707a:	9782                	jalr	a5
2001707c:	8522                	mv	a0,s0
2001707e:	2e39                	jal	2001739c <_exit>

20017080 <__libc_fini_array>:
__libc_fini_array():
20017080:	1141                	addi	sp,sp,-16
20017082:	c422                	sw	s0,8(sp)
20017084:	c226                	sw	s1,4(sp)
20017086:	ffff9417          	auipc	s0,0xffff9
2001708a:	26a40413          	addi	s0,s0,618 # 200102f0 <__fini_array_end>
2001708e:	ffff9497          	auipc	s1,0xffff9
20017092:	26248493          	addi	s1,s1,610 # 200102f0 <__fini_array_end>
20017096:	8c05                	sub	s0,s0,s1
20017098:	c606                	sw	ra,12(sp)
2001709a:	8409                	srai	s0,s0,0x2
2001709c:	e411                	bnez	s0,200170a8 <__libc_fini_array+0x28>
2001709e:	40b2                	lw	ra,12(sp)
200170a0:	4422                	lw	s0,8(sp)
200170a2:	4492                	lw	s1,4(sp)
200170a4:	0141                	addi	sp,sp,16
200170a6:	8082                	ret
200170a8:	147d                	addi	s0,s0,-1
200170aa:	00241793          	slli	a5,s0,0x2
200170ae:	97a6                	add	a5,a5,s1
200170b0:	439c                	lw	a5,0(a5)
200170b2:	9782                	jalr	a5
200170b4:	b7e5                	j	2001709c <__libc_fini_array+0x1c>

200170b6 <__libc_init_array>:
__libc_init_array():
200170b6:	1141                	addi	sp,sp,-16
200170b8:	c422                	sw	s0,8(sp)
200170ba:	c226                	sw	s1,4(sp)
200170bc:	ffff9417          	auipc	s0,0xffff9
200170c0:	22440413          	addi	s0,s0,548 # 200102e0 <_metal_sifive_fe310_g000_pll_init_ptr>
200170c4:	ffff9497          	auipc	s1,0xffff9
200170c8:	21c48493          	addi	s1,s1,540 # 200102e0 <_metal_sifive_fe310_g000_pll_init_ptr>
200170cc:	8c81                	sub	s1,s1,s0
200170ce:	c04a                	sw	s2,0(sp)
200170d0:	c606                	sw	ra,12(sp)
200170d2:	8489                	srai	s1,s1,0x2
200170d4:	4901                	li	s2,0
200170d6:	02991563          	bne	s2,s1,20017100 <__libc_init_array+0x4a>
200170da:	ffff9417          	auipc	s0,0xffff9
200170de:	20640413          	addi	s0,s0,518 # 200102e0 <_metal_sifive_fe310_g000_pll_init_ptr>
200170e2:	ffff9497          	auipc	s1,0xffff9
200170e6:	1fe48493          	addi	s1,s1,510 # 200102e0 <_metal_sifive_fe310_g000_pll_init_ptr>
200170ea:	8c81                	sub	s1,s1,s0
200170ec:	8489                	srai	s1,s1,0x2
200170ee:	4901                	li	s2,0
200170f0:	00991d63          	bne	s2,s1,2001710a <__libc_init_array+0x54>
200170f4:	40b2                	lw	ra,12(sp)
200170f6:	4422                	lw	s0,8(sp)
200170f8:	4492                	lw	s1,4(sp)
200170fa:	4902                	lw	s2,0(sp)
200170fc:	0141                	addi	sp,sp,16
200170fe:	8082                	ret
20017100:	401c                	lw	a5,0(s0)
20017102:	0905                	addi	s2,s2,1
20017104:	0411                	addi	s0,s0,4
20017106:	9782                	jalr	a5
20017108:	b7f9                	j	200170d6 <__libc_init_array+0x20>
2001710a:	401c                	lw	a5,0(s0)
2001710c:	0905                	addi	s2,s2,1
2001710e:	0411                	addi	s0,s0,4
20017110:	9782                	jalr	a5
20017112:	bff9                	j	200170f0 <__libc_init_array+0x3a>

20017114 <__register_exitproc>:
__register_exitproc():
20017114:	88aa                	mv	a7,a0
20017116:	5ffea517          	auipc	a0,0x5ffea
2001711a:	9c650513          	addi	a0,a0,-1594 # 80000adc <_global_atexit>
2001711e:	411c                	lw	a5,0(a0)
20017120:	ef91                	bnez	a5,2001713c <__register_exitproc+0x28>
20017122:	5ffea717          	auipc	a4,0x5ffea
20017126:	9c670713          	addi	a4,a4,-1594 # 80000ae8 <_global_atexit0>
2001712a:	c118                	sw	a4,0(a0)
2001712c:	00000513          	li	a0,0
20017130:	87ba                	mv	a5,a4
20017132:	c509                	beqz	a0,2001713c <__register_exitproc+0x28>
20017134:	411c                	lw	a5,0(a0)
20017136:	08f72423          	sw	a5,136(a4)
2001713a:	87ba                	mv	a5,a4
2001713c:	43d8                	lw	a4,4(a5)
2001713e:	487d                	li	a6,31
20017140:	557d                	li	a0,-1
20017142:	04e84663          	blt	a6,a4,2001718e <__register_exitproc+0x7a>
20017146:	02088d63          	beqz	a7,20017180 <__register_exitproc+0x6c>
2001714a:	0887a803          	lw	a6,136(a5)
2001714e:	04080063          	beqz	a6,2001718e <__register_exitproc+0x7a>
20017152:	00271513          	slli	a0,a4,0x2
20017156:	9542                	add	a0,a0,a6
20017158:	c110                	sw	a2,0(a0)
2001715a:	10082303          	lw	t1,256(a6)
2001715e:	4605                	li	a2,1
20017160:	00e61633          	sll	a2,a2,a4
20017164:	00c36333          	or	t1,t1,a2
20017168:	10682023          	sw	t1,256(a6)
2001716c:	08d52023          	sw	a3,128(a0)
20017170:	4689                	li	a3,2
20017172:	00d89763          	bne	a7,a3,20017180 <__register_exitproc+0x6c>
20017176:	10482683          	lw	a3,260(a6)
2001717a:	8e55                	or	a2,a2,a3
2001717c:	10c82223          	sw	a2,260(a6)
20017180:	00170693          	addi	a3,a4,1
20017184:	070a                	slli	a4,a4,0x2
20017186:	c3d4                	sw	a3,4(a5)
20017188:	97ba                	add	a5,a5,a4
2001718a:	c78c                	sw	a1,8(a5)
2001718c:	4501                	li	a0,0
2001718e:	8082                	ret

20017190 <__call_exitprocs>:
__call_exitprocs():
20017190:	7179                	addi	sp,sp,-48
20017192:	ca56                	sw	s5,20(sp)
20017194:	c85a                	sw	s6,16(sp)
20017196:	c65e                	sw	s7,12(sp)
20017198:	c462                	sw	s8,8(sp)
2001719a:	d606                	sw	ra,44(sp)
2001719c:	d422                	sw	s0,40(sp)
2001719e:	d226                	sw	s1,36(sp)
200171a0:	d04a                	sw	s2,32(sp)
200171a2:	ce4e                	sw	s3,28(sp)
200171a4:	cc52                	sw	s4,24(sp)
200171a6:	c266                	sw	s9,4(sp)
200171a8:	8b2a                	mv	s6,a0
200171aa:	8aae                	mv	s5,a1
200171ac:	5ffeab97          	auipc	s7,0x5ffea
200171b0:	930b8b93          	addi	s7,s7,-1744 # 80000adc <_global_atexit>
200171b4:	4c05                	li	s8,1
200171b6:	000ba483          	lw	s1,0(s7)
200171ba:	cc81                	beqz	s1,200171d2 <__call_exitprocs+0x42>
200171bc:	40c0                	lw	s0,4(s1)
200171be:	0884a983          	lw	s3,136(s1)
200171c2:	fff40913          	addi	s2,s0,-1
200171c6:	040a                	slli	s0,s0,0x2
200171c8:	00898a33          	add	s4,s3,s0
200171cc:	9426                	add	s0,s0,s1
200171ce:	00095f63          	bgez	s2,200171ec <__call_exitprocs+0x5c>
200171d2:	50b2                	lw	ra,44(sp)
200171d4:	5422                	lw	s0,40(sp)
200171d6:	5492                	lw	s1,36(sp)
200171d8:	5902                	lw	s2,32(sp)
200171da:	49f2                	lw	s3,28(sp)
200171dc:	4a62                	lw	s4,24(sp)
200171de:	4ad2                	lw	s5,20(sp)
200171e0:	4b42                	lw	s6,16(sp)
200171e2:	4bb2                	lw	s7,12(sp)
200171e4:	4c22                	lw	s8,8(sp)
200171e6:	4c92                	lw	s9,4(sp)
200171e8:	6145                	addi	sp,sp,48
200171ea:	8082                	ret
200171ec:	000a8c63          	beqz	s5,20017204 <__call_exitprocs+0x74>
200171f0:	00099663          	bnez	s3,200171fc <__call_exitprocs+0x6c>
200171f4:	197d                	addi	s2,s2,-1
200171f6:	1a71                	addi	s4,s4,-4
200171f8:	1471                	addi	s0,s0,-4
200171fa:	bfd1                	j	200171ce <__call_exitprocs+0x3e>
200171fc:	07ca2783          	lw	a5,124(s4)
20017200:	ff579ae3          	bne	a5,s5,200171f4 <__call_exitprocs+0x64>
20017204:	40d8                	lw	a4,4(s1)
20017206:	405c                	lw	a5,4(s0)
20017208:	177d                	addi	a4,a4,-1
2001720a:	03271863          	bne	a4,s2,2001723a <__call_exitprocs+0xaa>
2001720e:	0124a223          	sw	s2,4(s1)
20017212:	d3ed                	beqz	a5,200171f4 <__call_exitprocs+0x64>
20017214:	0044ac83          	lw	s9,4(s1)
20017218:	00098863          	beqz	s3,20017228 <__call_exitprocs+0x98>
2001721c:	1009a683          	lw	a3,256(s3)
20017220:	012c1733          	sll	a4,s8,s2
20017224:	8ef9                	and	a3,a3,a4
20017226:	ee89                	bnez	a3,20017240 <__call_exitprocs+0xb0>
20017228:	9782                	jalr	a5
2001722a:	40d8                	lw	a4,4(s1)
2001722c:	000ba783          	lw	a5,0(s7)
20017230:	f99713e3          	bne	a4,s9,200171b6 <__call_exitprocs+0x26>
20017234:	fcf480e3          	beq	s1,a5,200171f4 <__call_exitprocs+0x64>
20017238:	bfbd                	j	200171b6 <__call_exitprocs+0x26>
2001723a:	00042223          	sw	zero,4(s0)
2001723e:	bfd1                	j	20017212 <__call_exitprocs+0x82>
20017240:	1049a683          	lw	a3,260(s3)
20017244:	ffca2583          	lw	a1,-4(s4)
20017248:	8f75                	and	a4,a4,a3
2001724a:	e701                	bnez	a4,20017252 <__call_exitprocs+0xc2>
2001724c:	855a                	mv	a0,s6
2001724e:	9782                	jalr	a5
20017250:	bfe9                	j	2001722a <__call_exitprocs+0x9a>
20017252:	852e                	mv	a0,a1
20017254:	9782                	jalr	a5
20017256:	bfd1                	j	2001722a <__call_exitprocs+0x9a>

20017258 <metal_init>:
metal_init():
/home/nicoladgg/wsFreedomStudio/sifive_hifive1_revb_hello/freedom-metal/src/init.c:17
20017258:	1101                	addi	sp,sp,-32
2001725a:	ce06                	sw	ra,28(sp)
2001725c:	cc22                	sw	s0,24(sp)
2001725e:	1000                	addi	s0,sp,32
/home/nicoladgg/wsFreedomStudio/sifive_hifive1_revb_hello/freedom-metal/src/init.c:20
20017260:	800017b7          	lui	a5,0x80001
20017264:	ae07a783          	lw	a5,-1312(a5) # 80000ae0 <metal_segment_heap_target_end+0xfffff360>
20017268:	efa9                	bnez	a5,200172c2 <metal_init+0x6a>
/home/nicoladgg/wsFreedomStudio/sifive_hifive1_revb_hello/freedom-metal/src/init.c:23
2001726a:	800017b7          	lui	a5,0x80001
2001726e:	4705                	li	a4,1
20017270:	aee7a023          	sw	a4,-1312(a5) # 80000ae0 <metal_segment_heap_target_end+0xfffff360>
/home/nicoladgg/wsFreedomStudio/sifive_hifive1_revb_hello/freedom-metal/src/init.c:25
20017274:	200107b7          	lui	a5,0x20010
20017278:	2ec78713          	addi	a4,a5,748 # 200102ec <metal_sifive_fe310_g000_pll_init>
2001727c:	200107b7          	lui	a5,0x20010
20017280:	2e078793          	addi	a5,a5,736 # 200102e0 <_metal_sifive_fe310_g000_pll_init_ptr>
20017284:	04e7f163          	bgeu	a5,a4,200172c6 <metal_init+0x6e>
/home/nicoladgg/wsFreedomStudio/sifive_hifive1_revb_hello/freedom-metal/src/init.c:29
20017288:	200107b7          	lui	a5,0x20010
2001728c:	2e078793          	addi	a5,a5,736 # 200102e0 <_metal_sifive_fe310_g000_pll_init_ptr>
20017290:	fef42623          	sw	a5,-20(s0)
/home/nicoladgg/wsFreedomStudio/sifive_hifive1_revb_hello/freedom-metal/src/init.c:30
20017294:	a831                	j	200172b0 <metal_init+0x58>
/home/nicoladgg/wsFreedomStudio/sifive_hifive1_revb_hello/freedom-metal/src/init.c:31
20017296:	fec42783          	lw	a5,-20(s0)
2001729a:	439c                	lw	a5,0(a5)
2001729c:	fef42423          	sw	a5,-24(s0)
/home/nicoladgg/wsFreedomStudio/sifive_hifive1_revb_hello/freedom-metal/src/init.c:33
200172a0:	fe842783          	lw	a5,-24(s0)
200172a4:	9782                	jalr	a5
/home/nicoladgg/wsFreedomStudio/sifive_hifive1_revb_hello/freedom-metal/src/init.c:35
200172a6:	fec42783          	lw	a5,-20(s0)
200172aa:	0791                	addi	a5,a5,4
200172ac:	fef42623          	sw	a5,-20(s0)
/home/nicoladgg/wsFreedomStudio/sifive_hifive1_revb_hello/freedom-metal/src/init.c:30
200172b0:	fec42703          	lw	a4,-20(s0)
200172b4:	200107b7          	lui	a5,0x20010
200172b8:	2ec78793          	addi	a5,a5,748 # 200102ec <metal_sifive_fe310_g000_pll_init>
200172bc:	fcf71de3          	bne	a4,a5,20017296 <metal_init+0x3e>
200172c0:	a021                	j	200172c8 <metal_init+0x70>
/home/nicoladgg/wsFreedomStudio/sifive_hifive1_revb_hello/freedom-metal/src/init.c:21
200172c2:	0001                	nop
200172c4:	a011                	j	200172c8 <metal_init+0x70>
/home/nicoladgg/wsFreedomStudio/sifive_hifive1_revb_hello/freedom-metal/src/init.c:26
200172c6:	0001                	nop
/home/nicoladgg/wsFreedomStudio/sifive_hifive1_revb_hello/freedom-metal/src/init.c:37
200172c8:	40f2                	lw	ra,28(sp)
200172ca:	4462                	lw	s0,24(sp)
200172cc:	6105                	addi	sp,sp,32
200172ce:	8082                	ret

200172d0 <metal_fini>:
metal_fini():
/home/nicoladgg/wsFreedomStudio/sifive_hifive1_revb_hello/freedom-metal/src/init.c:39
200172d0:	1101                	addi	sp,sp,-32
200172d2:	ce06                	sw	ra,28(sp)
200172d4:	cc22                	sw	s0,24(sp)
200172d6:	1000                	addi	s0,sp,32
/home/nicoladgg/wsFreedomStudio/sifive_hifive1_revb_hello/freedom-metal/src/init.c:42
200172d8:	800017b7          	lui	a5,0x80001
200172dc:	ae47a783          	lw	a5,-1308(a5) # 80000ae4 <metal_segment_heap_target_end+0xfffff364>
200172e0:	efa9                	bnez	a5,2001733a <metal_fini+0x6a>
/home/nicoladgg/wsFreedomStudio/sifive_hifive1_revb_hello/freedom-metal/src/init.c:45
200172e2:	800017b7          	lui	a5,0x80001
200172e6:	4705                	li	a4,1
200172e8:	aee7a223          	sw	a4,-1308(a5) # 80000ae4 <metal_segment_heap_target_end+0xfffff364>
/home/nicoladgg/wsFreedomStudio/sifive_hifive1_revb_hello/freedom-metal/src/init.c:47
200172ec:	200107b7          	lui	a5,0x20010
200172f0:	2f078713          	addi	a4,a5,752 # 200102f0 <__fini_array_end>
200172f4:	200107b7          	lui	a5,0x20010
200172f8:	2f078793          	addi	a5,a5,752 # 200102f0 <__fini_array_end>
200172fc:	04e7f163          	bgeu	a5,a4,2001733e <metal_fini+0x6e>
/home/nicoladgg/wsFreedomStudio/sifive_hifive1_revb_hello/freedom-metal/src/init.c:51
20017300:	200107b7          	lui	a5,0x20010
20017304:	2f078793          	addi	a5,a5,752 # 200102f0 <__fini_array_end>
20017308:	fef42623          	sw	a5,-20(s0)
/home/nicoladgg/wsFreedomStudio/sifive_hifive1_revb_hello/freedom-metal/src/init.c:52
2001730c:	a831                	j	20017328 <metal_fini+0x58>
/home/nicoladgg/wsFreedomStudio/sifive_hifive1_revb_hello/freedom-metal/src/init.c:53
2001730e:	fec42783          	lw	a5,-20(s0)
20017312:	439c                	lw	a5,0(a5)
20017314:	fef42423          	sw	a5,-24(s0)
/home/nicoladgg/wsFreedomStudio/sifive_hifive1_revb_hello/freedom-metal/src/init.c:55
20017318:	fe842783          	lw	a5,-24(s0)
2001731c:	9782                	jalr	a5
/home/nicoladgg/wsFreedomStudio/sifive_hifive1_revb_hello/freedom-metal/src/init.c:57
2001731e:	fec42783          	lw	a5,-20(s0)
20017322:	0791                	addi	a5,a5,4
20017324:	fef42623          	sw	a5,-20(s0)
/home/nicoladgg/wsFreedomStudio/sifive_hifive1_revb_hello/freedom-metal/src/init.c:52
20017328:	fec42703          	lw	a4,-20(s0)
2001732c:	200107b7          	lui	a5,0x20010
20017330:	2f078793          	addi	a5,a5,752 # 200102f0 <__fini_array_end>
20017334:	fcf71de3          	bne	a4,a5,2001730e <metal_fini+0x3e>
20017338:	a021                	j	20017340 <metal_fini+0x70>
/home/nicoladgg/wsFreedomStudio/sifive_hifive1_revb_hello/freedom-metal/src/init.c:43
2001733a:	0001                	nop
2001733c:	a011                	j	20017340 <metal_fini+0x70>
/home/nicoladgg/wsFreedomStudio/sifive_hifive1_revb_hello/freedom-metal/src/init.c:48
2001733e:	0001                	nop
/home/nicoladgg/wsFreedomStudio/sifive_hifive1_revb_hello/freedom-metal/src/init.c:59
20017340:	40f2                	lw	ra,28(sp)
20017342:	4462                	lw	s0,24(sp)
20017344:	6105                	addi	sp,sp,32
20017346:	8082                	ret

20017348 <metal_init_run>:
metal_init_run():
/home/nicoladgg/wsFreedomStudio/sifive_hifive1_revb_hello/freedom-metal/src/init.c:69
20017348:	1141                	addi	sp,sp,-16
2001734a:	c606                	sw	ra,12(sp)
2001734c:	c422                	sw	s0,8(sp)
2001734e:	0800                	addi	s0,sp,16
20017350:	f09ff0ef          	jal	ra,20017258 <metal_init>
20017354:	0001                	nop
20017356:	40b2                	lw	ra,12(sp)
20017358:	4422                	lw	s0,8(sp)
2001735a:	0141                	addi	sp,sp,16
2001735c:	8082                	ret

2001735e <metal_fini_run>:
metal_fini_run():
/home/nicoladgg/wsFreedomStudio/sifive_hifive1_revb_hello/freedom-metal/src/init.c:72
2001735e:	1141                	addi	sp,sp,-16
20017360:	c606                	sw	ra,12(sp)
20017362:	c422                	sw	s0,8(sp)
20017364:	0800                	addi	s0,sp,16
20017366:	f6bff0ef          	jal	ra,200172d0 <metal_fini>
2001736a:	0001                	nop
2001736c:	40b2                	lw	ra,12(sp)
2001736e:	4422                	lw	s0,8(sp)
20017370:	0141                	addi	sp,sp,16
20017372:	8082                	ret

20017374 <metal_tty_putc>:
metal_tty_putc():
/home/nicoladgg/wsFreedomStudio/sifive_hifive1_revb_hello/freedom-metal/src/tty.c:12
20017374:	1101                	addi	sp,sp,-32
20017376:	ce06                	sw	ra,28(sp)
20017378:	cc22                	sw	s0,24(sp)
2001737a:	1000                	addi	s0,sp,32
2001737c:	fea42623          	sw	a0,-20(s0)
/home/nicoladgg/wsFreedomStudio/sifive_hifive1_revb_hello/freedom-metal/src/tty.c:13
20017380:	fec42583          	lw	a1,-20(s0)
20017384:	800017b7          	lui	a5,0x80001
20017388:	a3878513          	addi	a0,a5,-1480 # 80000a38 <metal_segment_heap_target_end+0xfffff2b8>
2001738c:	931ff0ef          	jal	ra,20016cbc <metal_uart_putc>
20017390:	87aa                	mv	a5,a0
/home/nicoladgg/wsFreedomStudio/sifive_hifive1_revb_hello/freedom-metal/src/tty.c:14
20017392:	853e                	mv	a0,a5
20017394:	40f2                	lw	ra,28(sp)
20017396:	4462                	lw	s0,24(sp)
20017398:	6105                	addi	sp,sp,32
2001739a:	8082                	ret

2001739c <_exit>:
_exit():
/home/nicoladgg/wsFreedomStudio/sifive_hifive1_revb_hello/freedom-metal/gloss/sys_exit.c:3
2001739c:	1101                	addi	sp,sp,-32
2001739e:	ce06                	sw	ra,28(sp)
200173a0:	cc22                	sw	s0,24(sp)
200173a2:	1000                	addi	s0,sp,32
200173a4:	fea42623          	sw	a0,-20(s0)
/home/nicoladgg/wsFreedomStudio/sifive_hifive1_revb_hello/freedom-metal/gloss/sys_exit.c:4
200173a8:	fec42503          	lw	a0,-20(s0)
200173ac:	8d7ff0ef          	jal	ra,20016c82 <metal_shutdown>
