
/home/nicoladgg/wsFreedomStudio/SiFive_HiFive_RevB_Projects/src/debug/main.elf:     file format elf32-littleriscv
/home/nicoladgg/wsFreedomStudio/SiFive_HiFive_RevB_Projects/src/debug/main.elf
architecture: riscv:rv32, flags 0x00000112:
EXEC_P, HAS_SYMS, D_PAGED
start address 0x20010000

Program Header:
    LOAD off    0x00001000 vaddr 0x20010000 paddr 0x20010000 align 2**12
         filesz 0x00000f14 memsz 0x00000f14 flags rwx
    LOAD off    0x00007000 vaddr 0x80000000 paddr 0x20015c48 align 2**12
         filesz 0x000004b0 memsz 0x000004b0 flags rw-
     TLS off    0x00000000 vaddr 0x00000000 paddr 0x00000000 align 2**2
         filesz 0x00000000 memsz 0x00000000 flags ---
    LOAD off    0x000004b0 vaddr 0x800004b0 paddr 0x800004b0 align 2**12
         filesz 0x00000000 memsz 0x00000f10 flags rw-
    LOAD off    0x00000114 vaddr 0x00000000 paddr 0x00000000 align 2**12
         filesz 0x00000000 memsz 0x00000000 flags ---
    LOAD off    0x00001f80 vaddr 0x20010f80 paddr 0x20010f80 align 2**12
         filesz 0x00004cc2 memsz 0x00004cc2 flags r-x
    LOAD off    0x00000114 vaddr 0x00000000 paddr 0x00000000 align 2**12
         filesz 0x00000000 memsz 0x00000000 flags ---

Sections:
Idx Name              Size      VMA       LMA       File off  Algn  Flags
  0 .init             000002dc  20010000  20010000  00001000  2**4  CONTENTS, ALLOC, LOAD, READONLY, CODE
  1 .init_array       00000008  200102e0  200102e0  000012e0  2**3  CONTENTS, ALLOC, LOAD, DATA
  2 .ctors            00000056  200102e8  200102e8  000012e8  2**1  CONTENTS, ALLOC, LOAD, READONLY, CODE
  3 .rodata           00000bd4  20010340  20010340  00001340  2**3  CONTENTS, ALLOC, LOAD, READONLY, DATA
  4 .text             00004cc2  20010f80  20010f80  00001f80  2**7  CONTENTS, ALLOC, LOAD, READONLY, CODE
  5 .data             000004b0  80000000  20015c48  00007000  2**3  CONTENTS, ALLOC, LOAD, DATA
  6 .bss              0000030c  800004b0  800004b0  000074b0  2**3  ALLOC
  7 .stack            00000400  800007c0  800007c0  000074b0  2**4  ALLOC
  8 .heap             00000800  80000bc0  80000bc0  000074b0  2**3  ALLOC
  9 .debug_info       000181e9  00000000  00000000  000074b0  2**0  CONTENTS, READONLY, DEBUGGING, OCTETS
 10 .debug_abbrev     0000284e  00000000  00000000  0001f699  2**0  CONTENTS, READONLY, DEBUGGING, OCTETS
 11 .debug_aranges    00000910  00000000  00000000  00021ee8  2**3  CONTENTS, READONLY, DEBUGGING, OCTETS
 12 .debug_ranges     00001000  00000000  00000000  000227f8  2**3  CONTENTS, READONLY, DEBUGGING, OCTETS
 13 .debug_line       0000c01e  00000000  00000000  000237f8  2**0  CONTENTS, READONLY, DEBUGGING, OCTETS
 14 .debug_str        00004616  00000000  00000000  0002f816  2**0  CONTENTS, READONLY, DEBUGGING, OCTETS
 15 .comment          00000030  00000000  00000000  00033e2c  2**0  CONTENTS, READONLY
 16 .riscv.attributes 0000002f  00000000  00000000  00033e5c  2**0  CONTENTS, READONLY
 17 .debug_frame      00002344  00000000  00000000  00033e8c  2**2  CONTENTS, READONLY, DEBUGGING, OCTETS
 18 .debug_loc        0000495a  00000000  00000000  000361d0  2**0  CONTENTS, READONLY, DEBUGGING, OCTETS
SYMBOL TABLE:
20010000 l    d  .init	00000000 .init
200102e0 l    d  .init_array	00000000 .init_array
200102e8 l    d  .ctors	00000000 .ctors
20010340 l    d  .rodata	00000000 .rodata
20010f80 l    d  .text	00000000 .text
80000000 l    d  .data	00000000 .data
800004b0 l    d  .bss	00000000 .bss
800007c0 l    d  .stack	00000000 .stack
80000bc0 l    d  .heap	00000000 .heap
00000000 l    d  .debug_info	00000000 .debug_info
00000000 l    d  .debug_abbrev	00000000 .debug_abbrev
00000000 l    d  .debug_aranges	00000000 .debug_aranges
00000000 l    d  .debug_ranges	00000000 .debug_ranges
00000000 l    d  .debug_line	00000000 .debug_line
00000000 l    d  .debug_str	00000000 .debug_str
00000000 l    d  .comment	00000000 .comment
00000000 l    d  .riscv.attributes	00000000 .riscv.attributes
00000000 l    d  .debug_frame	00000000 .debug_frame
00000000 l    d  .debug_loc	00000000 .debug_loc
00000000 l    df *ABS*	00000000 scrub.o
200100c0 l     F .init	00000000 __metal_memory_scrub
2001012e l       .init	00000000 skip_scrub
00000000 l    df *ABS*	00000000 synchronize_harts.c
00000000 l    df *ABS*	00000000 crt0.o
20010240 l       .init	00000000 _skip_init
20010448 l       .rodata	00000000 argv
2001044c l       .rodata	00000000 envp
20010450 l       .rodata	00000000 name
00000000 l    df *ABS*	00000000 sifive_fe310-g000_pll.c
2001528c l     F .text	0000001a __metal_driver_sifive_fe310_g000_pll_pllsel0
200152a6 l     F .text	0000001a __metal_driver_sifive_fe310_g000_pll_pllref
200152c0 l     F .text	00000016 __metal_driver_sifive_fe310_g000_pll_divider_base
200152d6 l     F .text	00000014 __metal_driver_sifive_fe310_g000_pll_divider_offset
200152ea l     F .text	00000012 __metal_driver_sifive_fe310_g000_pll_config_base
200152fc l     F .text	00000010 __metal_driver_sifive_fe310_g000_pll_config_offset
2001530c l     F .text	00000016 __metal_driver_sifive_fe310_g000_pll_init_rate
20015322 l     F .text	00000012 __metal_driver_sifive_fe310_g000_prci_base
20015334 l     F .text	00000016 __metal_driver_sifive_fe310_g000_prci_vtable
20010660 l     O .rodata	00000880 pll_configs
2001534a l     F .text	0000004e get_pll_config_freq
200155a4 l     F .text	000000aa find_closest_config
2001564e l     F .text	000001a8 configure_pll
00000000 l    df *ABS*	00000000 main.c
00000000 l    df *ABS*	00000000 libgcc2.c
00000000 l    df *ABS*	00000000 divdf3.c
00000000 l    df *ABS*	00000000 muldf3.c
00000000 l    df *ABS*	00000000 riscv_clint0.c
20012f9c l     F .text	00000026 __metal_driver_sifive_clint0_control_base
20012fc2 l     F .text	00000024 __metal_driver_sifive_clint0_num_interrupts
20012fe6 l     F .text	0000003c __metal_driver_sifive_clint0_interrupt_parents
20013022 l     F .text	00000030 __metal_driver_sifive_clint0_interrupt_lines
20013182 l     F .text	00000036 _get_cpu_intc
00000000 l    df *ABS*	00000000 riscv_cpu.c
200136be l     F .text	00000024 __metal_driver_cpu_hartid
200136e2 l     F .text	0000002a __metal_driver_cpu_timebase
2001370c l     F .text	0000002a __metal_driver_cpu_interrupt_controller
20013736 l     F .text	00000024 __metal_driver_cpu_buserror
00000000 l    df *ABS*	00000000 impure.c
80000000 l     O .data	00000060 impure_data
00000000 l    df *ABS*	00000000 sifive_fe310-g000_hfrosc.c
2001509c l     F .text	0000001a __metal_driver_sifive_fe310_g000_hfrosc_ref
200150b6 l     F .text	00000016 __metal_driver_sifive_fe310_g000_hfrosc_config_base
200150cc l     F .text	00000014 __metal_driver_sifive_fe310_g000_hfrosc_config_offset
200150e0 l     F .text	00000016 __metal_driver_sifive_fe310_g000_prci_vtable
00000000 l    df *ABS*	00000000 sifive_fe310-g000_hfxosc.c
2001519c l     F .text	0000001a __metal_driver_sifive_fe310_g000_hfxosc_ref
200151b6 l     F .text	00000016 __metal_driver_sifive_fe310_g000_hfxosc_config_base
200151cc l     F .text	00000014 __metal_driver_sifive_fe310_g000_hfxosc_config_offset
200151e0 l     F .text	00000016 __metal_driver_sifive_fe310_g000_prci_vtable
00000000 l    df *ABS*	00000000 sifive_fe310-g000_prci.c
20015956 l     F .text	00000012 __metal_driver_sifive_fe310_g000_prci_base
00000000 l    df *ABS*	00000000 fixed-clock.c
20015b80 l     F .text	00000070 __metal_driver_fixed_clock_rate
00000000 l    df *ABS*	00000000 subdf3.c
00000000 l    df *ABS*	00000000 fixunsdfsi.c
00000000 l    df *ABS*	00000000 floatunsidf.c
00000000 l    df *ABS*	00000000 libgcc2.c
00000000 l    df *ABS*	00000000 w_sqrt.c
00000000 l    df *ABS*	00000000 e_sqrt.c
00000000 l    df *ABS*	00000000 atexit.c
00000000 l    df *ABS*	00000000 errno.c
00000000 l    df *ABS*	00000000 exit.c
00000000 l    df *ABS*	00000000 fini.c
00000000 l    df *ABS*	00000000 init.c
00000000 l    df *ABS*	00000000 __atexit.c
800004c0 l     O .bss	0000008c _global_atexit0
00000000 l    df *ABS*	00000000 __call_atexit.c
00000000 l    df *ABS*	00000000 adddf3.c
00000000 l    df *ABS*	00000000 ledf2.c
00000000 l    df *ABS*	00000000 unorddf2.c
00000000 l    df *ABS*	00000000 init.c
800004b8 l     O .bss	00000004 init_done.1
800004bc l     O .bss	00000004 fini_done.0
00000000 l    df *ABS*	00000000 clock.c
00000000 l    df *ABS*	00000000 cpu.c
00000000 l    df *ABS*	00000000 shutdown.c
00000000 l    df *ABS*	00000000 vector.o
20015b00 l       .text	00000000 IRQ_0
20015b04 l       .text	00000000 IRQ_1
20015b08 l       .text	00000000 IRQ_2
20015b0c l       .text	00000000 IRQ_3
20015b10 l       .text	00000000 IRQ_4
20015b14 l       .text	00000000 IRQ_5
20015b18 l       .text	00000000 IRQ_6
20015b1c l       .text	00000000 IRQ_7
20015b20 l       .text	00000000 IRQ_8
20015b24 l       .text	00000000 IRQ_9
20015b28 l       .text	00000000 IRQ_10
20015b2c l       .text	00000000 IRQ_11
20015b30 l       .text	00000000 IRQ_12
20015b34 l       .text	00000000 IRQ_13
20015b38 l       .text	00000000 IRQ_14
20015b3c l       .text	00000000 IRQ_15
20015b40 l       .text	00000000 IRQ_LC0
20015b44 l       .text	00000000 IRQ_LC1
20015b48 l       .text	00000000 IRQ_LC2
20015b4c l       .text	00000000 IRQ_LC3
20015b50 l       .text	00000000 IRQ_LC4
20015b54 l       .text	00000000 IRQ_LC5
20015b58 l       .text	00000000 IRQ_LC6
20015b5c l       .text	00000000 IRQ_LC7
20015b60 l       .text	00000000 IRQ_LC8
20015b64 l       .text	00000000 IRQ_LC9
20015b68 l       .text	00000000 IRQ_LC10
20015b6c l       .text	00000000 IRQ_LC11
20015b70 l       .text	00000000 IRQ_LC12
20015b74 l       .text	00000000 IRQ_LC13
20015b78 l       .text	00000000 IRQ_LC14
20015b7c l       .text	00000000 IRQ_LC15
00000000 l    df *ABS*	00000000 sys_exit.c
00000000 l    df *ABS*	00000000 inline.c
00000000 l    df *ABS*	00000000 
200102e8 l       .init_array	00000000 metal_constructors_end
200102e8 l       .init_array	00000000 __fini_array_end
200102e8 l       .init_array	00000000 metal_destructors_end
200102e8 l       .init_array	00000000 metal_destructors_start
200102e8 l       .init_array	00000000 __fini_array_start
200102e0 l       .init_array	00000000 __init_array_end
200102e0 l       .init_array	00000000 __preinit_array_end
200102e0 l       .init_array	00000000 __init_array_start
200102e0 l       .init_array	00000000 metal_constructors_start
200102e0 l       .init_array	00000000 __preinit_array_start
20013fba  w    F .text	00000092 metal_lc4_interrupt_vector_handler
20011a24 g     F .text	0000005e sqrt
20015a10 g     F .text	00000026 metal_clock_get_rate_hz
2001335e g     F .text	00000058 __metal_driver_riscv_clint0_set_vector_mode
20013f28  w    F .text	00000092 metal_lc3_interrupt_vector_handler
2001479c g     F .text	00000058 __metal_valid_interrupt_id
8000054c g     O .bss	00000270 irq_functions
200102e4 g     O .init_array	00000004 _use_hfxosc_ptr
20014c14 g     F .text	0000001c __metal_driver_riscv_cpu_controller_get_vector_mode
80000c88 g       .data	00000000 __global_pointer$
200149e0 g     F .text	000001e0 __metal_driver_riscv_cpu_controller_interrupt_register
200102e0 g     O .init_array	00000004 _metal_sifive_fe310_g000_pll_init_ptr
800004b0 g       .data	00000000 __tls_base
20015aa4 g     F .text	0000002a metal_cpu_get
200104d4 g     O .rodata	00000064 __metal_driver_vtable_riscv_clint0
800007bc g       .bss	00000000 metal_segment_bss_target_end
20013052 g     F .text	0000009a __metal_clint0_mtime_get
20015010 g     F .text	0000002e __metal_driver_cpu_get_instruction_length
00000001 g       *ABS*	00000000 __metal_chicken_bit
20011c10 g     F .text	00000006 __errno
08000000 g       .rodata	00000000 metal_segment_itim_target_start
20010142 g     F .init	0000000e __metal_synchronize_harts
800004b0 g       .data	00000000 metal_segment_bss_target_start
200130ec g     F .text	00000096 __metal_driver_riscv_clint0_mtimecmp_set
20015438 g     F .text	0000016c __metal_driver_sifive_fe310_g000_pll_get_rate_hz
00000400 g       *ABS*	00000000 __stack_size
20014294  w    F .text	00000092 metal_lc9_interrupt_vector_handler
200100cc  w    F .init	00000000 __metal_before_start
20012f74  w    F .text	00000014 metal_init_run
2001061c g     O .rodata	00000044 __metal_driver_vtable_cpu
00000000 g       *ABS*	00000000 __metal_eccscrub_bit
20014ca0 g     F .text	00000070 __metal_driver_cpu_mcycle_get
20010ee0 g     O .rodata	0000000c __metal_driver_vtable_sifive_fe310_g000_pll
800004a4 g     O .data	00000008 __metal_dt_cpu_0
20014202  w    F .text	00000092 metal_lc8_interrupt_vector_handler
20012962 g     F .text	000000a6 .hidden __ltdf2
200157f6 g     F .text	00000160 __metal_driver_sifive_fe310_g000_pll_set_rate_hz
200144dc  w    F .text	00000092 metal_lc13_interrupt_vector_handler
200138c4 g     F .text	00000018 __metal_default_exception_handler
2001368a g     F .text	00000034 __metal_driver_riscv_clint0_set_interrupt
20014c30 g     F .text	00000054 __metal_driver_riscv_cpu_controller_set_vector_mode
2001193a g     F .text	00000060 .hidden __fixunsdfsi
2001375a g     F .text	0000002c __metal_driver_cpu_get
200105b8 g     O .rodata	00000064 __metal_driver_vtable_riscv_cpu_intc
200137b8 g     F .text	00000018 __metal_interrupt_global_disable
20014170  w    F .text	00000092 metal_lc7_interrupt_vector_handler
20014326  w    F .text	00000092 metal_lc10_interrupt_vector_handler
200148b0 g     F .text	0000004e __metal_exception_register
20012e84 g     F .text	00000078 metal_init
20014e32 g     F .text	00000016 __metal_driver_cpu_timer_controller_interrupt
80000000 g       .rodata	00000000 metal_segment_lim_target_end
20011300 g     F .text	00000022 clint_timer_interrupt_handler
200110c0 g     F .text	0000007e interrupt_service_routine
200139b0 g     F .text	00000064 __metal_default_sw_handler
20011e18 g     F .text	0000060a .hidden __adddf3
8000006c g     O .data	0000000c __metal_dt_clock_2
20010f0c g     O .rodata	00000008 __metal_driver_vtable_fixed_clock
20010ef0 g     O .rodata	00000004 _global_impure_ptr
20013a14  w    F .text	0000008e metal_timer_interrupt_vector_handler
20011c76 g     F .text	0000005e __libc_init_array
200143b8  w    F .text	00000092 metal_lc11_interrupt_vector_handler
2001526a g     F .text	00000022 __metal_driver_sifive_fe310_g000_hfxosc_set_rate_hz
2001199a g     F .text	0000004e .hidden __floatunsidf
20014bc0 g     F .text	0000002a __metal_driver_riscv_cpu_controller_interrupt_enable
200159ce g     F .text	00000042 _metal_clock_call_all_callbacks
200102ba g     F .init	00000002 _init
2001381a g     F .text	0000001a __metal_interrupt_timer_disable
20014ee8 g     F .text	00000062 __metal_driver_cpu_clear_sw_ipi
80000488 g     O .data	00000004 cpu_freq
20011c40 g     F .text	00000036 __libc_fini_array
80000478 g     O .data	0000000c __metal_dt_clock_4
20012efc g     F .text	00000078 metal_fini
20014e72 g     F .text	00000014 __metal_driver_cpu_get_sw_interrupt_id
2001507c g     F .text	00000020 __metal_driver_cpu_get_buserror
80000000 g       .data	00000000 metal_segment_data_target_start
2001386c g     F .text	0000002c __metal_interrupt_local_enable
20013656 g     F .text	00000034 __metal_driver_riscv_clint0_clear_interrupt
8000048c g     O .data	00000004 mtimecmp
20011018 g     F .text	0000004a clint_interrupt_timer_enable
00000000 g       *ABS*	00000000 __tbss_size
80000060 g     O .data	0000000c __metal_dt_clock_0
20012962 g     F .text	000000a6 .hidden __ledf2
00000800 g       *ABS*	00000000 __heap_size
20013aa2 g     F .text	00000016 __metal_default_beu_handler
20013850 g     F .text	0000001c __metal_interrupt_external_disable
20014c84 g     F .text	0000001c __metal_driver_riscv_cpu_controller_command_request
200148fe g     F .text	000000e2 __metal_driver_riscv_cpu_controller_interrupt_init
200119e8 g     F .text	0000003c .hidden __clzsi2
20014fca g     F .text	00000046 __metal_driver_cpu_exception_register
200137d0 g     F .text	00000018 __metal_interrupt_software_enable
20013e04  w    F .text	00000092 metal_lc1_interrupt_vector_handler
800004b4 g     O .bss	00000004 _global_atexit
200111be g     F .text	00000026 rtc_enable
20014692 g     F .text	00000058 __metal_controller_interrupt_vector_mode
20011d50 g     F .text	000000c8 __call_exitprocs
80000bc0 g       .stack	00000000 _sp
20010150 g     F .init	00000000 _start
200150f6 g     F .text	00000084 __metal_driver_sifive_fe310_g000_hfrosc_get_rate_hz
20014faa g     F .text	00000020 __metal_driver_cpu_controller_interrupt
2001503e g     F .text	0000001e __metal_driver_cpu_get_exception_pc
20013834 g     F .text	0000001c __metal_interrupt_external_enable
20011cd4 g     F .text	0000007c __register_exitproc
200140de  w    F .text	00000092 metal_lc6_interrupt_vector_handler
20013786 g     F .text	0000001a __metal_myhart_id
20013922  w    F .text	0000008e metal_software_interrupt_vector_handler
20014bea g     F .text	0000002a __metal_driver_riscv_cpu_controller_interrupt_disable
20013240 g     F .text	000000da __metal_driver_riscv_clint0_register
8000049c g     O .data	00000008 __metal_dt_clint_2000000
20012422 g     F .text	00000540 .hidden __divdf3
20015a36 g     F .text	00000048 metal_clock_set_rate_hz
20012a08 g     F .text	00000442 .hidden __muldf3
200102bc  w    F .init	00000000 secondary_main
200138f4  w    F .text	0000002e metal_interrupt_vector_handler
20011176 g     F .text	00000048 set_freq_320MHz
20015968 g     F .text	0000002e __metal_driver_sifive_fe310_g000_prci_get_reg
200147f4 g     F .text	000000bc __metal_local_interrupt_enable
2001351a g     F .text	0000013c __metal_driver_riscv_clint0_command_request
2001404c  w    F .text	00000092 metal_lc5_interrupt_vector_handler
2001129a g     F .text	00000066 main
800004b0 g       .data	00000000 metal_segment_data_target_end
20010ef4 g     O .rodata	00000008 __metal_driver_vtable_sifive_fe310_g000_hfrosc
20014e86 g     F .text	00000062 __metal_driver_cpu_set_sw_ipi
20014f4a g     F .text	00000060 __metal_driver_cpu_get_msip
20015ae8 g     F .text	0000000e metal_shutdown
08000000 g       .rodata	00000000 metal_segment_itim_target_end
2001505c g     F .text	00000020 __metal_driver_cpu_set_exception_pc
2001444a  w    F .text	00000092 metal_lc12_interrupt_vector_handler
2001008a g     F .init	00000000 metal_mem_scrub
20013342 g     F .text	0000001c __metal_driver_riscv_clint0_get_vector_mode
800004ac g     O .data	00000004 __metal_dt_prci_10008000
20014d10 g     F .text	00000046 __metal_driver_cpu_timebase_get
20010000 g       .init	00000000 _enter
20015ace g     F .text	0000001a metal_cpu_get_current_hartid
80000490 g     O .data	00000004 mtime
200151f6 g     F .text	00000074 __metal_driver_sifive_fe310_g000_hfxosc_get_rate_hz
20015b00 g       .text	00000000 __metal_vector_table
20010f18 g       *ABS*	00000000 metal_segment_itim_source_start
80000498  w    O .data	00000004 __metal_cpu_table
80000090 g     O .data	000003d0 __metal_dt_cpu_0_interrupt_controller
200102ba g     F .init	00000002 _fini
200111e4 g     F .text	000000b6 rtc_next_wake_time
80000000 g       .rodata	00000000 metal_segment_lim_target_start
20010348 g     O .rodata	00000100 .hidden __clz_tab
20010314 g     F .ctors	0000002a use_hfxosc
200137a0 g     F .text	00000018 __metal_interrupt_global_enable
20011c06 g     F .text	0000000a atexit
20013800 g     F .text	0000001a __metal_interrupt_timer_enable
20013468 g     F .text	000000b2 __metal_driver_riscv_clint0_disable
80000494 g     O .data	00000004 _impure_ptr
20014dbc g     F .text	00000076 __metal_driver_cpu_mtimecmp_set
20015398 g     F .text	000000a0 __metal_driver_sifive_fe310_g000_pll_init
80000078 g     O .data	0000000c __metal_dt_clock_5
20015996 g     F .text	00000038 __metal_driver_sifive_fe310_g000_prci_set_reg
20015bf0 g     F .text	0000001e __metal_driver_fixed_clock_get_rate_hz
200133b6 g     F .text	000000b2 __metal_driver_riscv_clint0_enable
20015c48 g       *ABS*	00000000 metal_segment_data_source_start
20010134 g       .init	00000000 early_trap_vector
200146ea g     F .text	000000b2 __metal_controller_interrupt_vector
8000046c g     O .data	0000000c __metal_dt_clock_1
20011a82 g     F .text	00000184 __ieee754_sqrt
20013ab8 g     F .text	00000066 __metal_default_timer_handler
20013e96  w    F .text	00000092 metal_lc2_interrupt_vector_handler
20014600  w    F .text	00000092 metal_lc15_interrupt_vector_handler
20015a7e g     F .text	00000026 metal_cpu_interrupt_controller
20010f80 g     F .text	00000098 plic_interrupt_handler
20011c16 g     F .text	0000002a exit
20015c0e g     F .text	00000022 __metal_driver_fixed_clock_set_rate_hz
20010f18 g       *ABS*	00000000 metal_segment_lim_source_start
200138dc g     F .text	00000018 __metal_default_interrupt_handler
20012e4a g     F .text	0000003a .hidden __unorddf2
20012f88  w    F .text	00000014 metal_fini_run
20013b80 g     F .text	00000178 __metal_exception_handler
20013d72  w    F .text	00000092 metal_lc0_interrupt_vector_handler
20015c30 g     F .text	00000012 _exit
20014d56 g     F .text	00000066 __metal_driver_cpu_mtime_get
2001331a g     F .text	00000028 __metal_driver_riscv_clint0_vector_register
20011062 g     F .text	0000004a interrupt_enable
2001456e  w    F .text	00000092 metal_lc14_interrupt_vector_handler
20010efc g     O .rodata	00000008 __metal_driver_vtable_sifive_fe310_g000_hfxosc
200131b8 g     F .text	00000088 __metal_driver_riscv_clint0_init
200102e8 g     F .ctors	0000002c metal_sifive_fe310_g000_pll_init
20011322 g     F .text	00000618 .hidden __subdf3
800004b0 g     O .bss	00000004 taken
20014e48 g     F .text	00000014 __metal_driver_cpu_get_timer_interrupt_id
20010088  w      .init	00000000 __register_frame_info
2001517a g     F .text	00000022 __metal_driver_sifive_fe310_g000_hfrosc_set_rate_hz
20014e5c g     F .text	00000016 __metal_driver_cpu_sw_controller_interrupt
20013898 g     F .text	0000002c __metal_interrupt_local_disable
200137e8 g     F .text	00000018 __metal_interrupt_software_disable
80000460 g     O .data	0000000c __metal_dt_clock_3
80000084 g     O .data	0000000c __metal_dt_clock_6
20010f04 g     O .rodata	00000008 __metal_driver_vtable_sifive_fe310_g000_prci
00000000 g       *ABS*	00000000 __metal_boot_hart



Disassembly of section .init:

20010000 <_enter>:
_enter():
/home/nicoladgg/wsFreedomStudio/sifive_hifive1_revb_hello/freedom-metal/src/entry.S:24
20010000:	5fff1197          	auipc	gp,0x5fff1
20010004:	c8818193          	addi	gp,gp,-888 # 80000c88 <__global_pointer$>
/home/nicoladgg/wsFreedomStudio/sifive_hifive1_revb_hello/freedom-metal/src/entry.S:28
20010008:	00000297          	auipc	t0,0x0
2001000c:	01828293          	addi	t0,t0,24 # 20010020 <_enter+0x20>
/home/nicoladgg/wsFreedomStudio/sifive_hifive1_revb_hello/freedom-metal/src/entry.S:29
20010010:	30529073          	csrw	mtvec,t0
/home/nicoladgg/wsFreedomStudio/sifive_hifive1_revb_hello/freedom-metal/src/entry.S:31
20010014:	00100293          	li	t0,1
/home/nicoladgg/wsFreedomStudio/sifive_hifive1_revb_hello/freedom-metal/src/entry.S:32
20010018:	00028463          	beqz	t0,20010020 <_enter+0x20>
/home/nicoladgg/wsFreedomStudio/sifive_hifive1_revb_hello/freedom-metal/src/entry.S:34
2001001c:	7c105073          	csrwi	0x7c1,0
/home/nicoladgg/wsFreedomStudio/sifive_hifive1_revb_hello/freedom-metal/src/entry.S:39
20010020:	00000297          	auipc	t0,0x0
20010024:	11428293          	addi	t0,t0,276 # 20010134 <early_trap_vector>
/home/nicoladgg/wsFreedomStudio/sifive_hifive1_revb_hello/freedom-metal/src/entry.S:40
20010028:	30529073          	csrw	mtvec,t0
/home/nicoladgg/wsFreedomStudio/sifive_hifive1_revb_hello/freedom-metal/src/entry.S:48
2001002c:	00000113          	li	sp,0
/home/nicoladgg/wsFreedomStudio/sifive_hifive1_revb_hello/freedom-metal/src/entry.S:55
20010030:	00011463          	bnez	sp,20010038 <_enter+0x38>
/home/nicoladgg/wsFreedomStudio/sifive_hifive1_revb_hello/freedom-metal/src/entry.S:56
20010034:	f3818113          	addi	sp,gp,-200 # 80000bc0 <_sp>
/home/nicoladgg/wsFreedomStudio/sifive_hifive1_revb_hello/freedom-metal/src/entry.S:59
20010038:	f1402573          	csrr	a0,mhartid
/home/nicoladgg/wsFreedomStudio/sifive_hifive1_revb_hello/freedom-metal/src/entry.S:60
2001003c:	4281                	li	t0,0
/home/nicoladgg/wsFreedomStudio/sifive_hifive1_revb_hello/freedom-metal/src/entry.S:61
2001003e:	40000313          	li	t1,1024
/home/nicoladgg/wsFreedomStudio/sifive_hifive1_revb_hello/freedom-metal/src/entry.S:63
20010042:	ff017113          	andi	sp,sp,-16
/home/nicoladgg/wsFreedomStudio/sifive_hifive1_revb_hello/freedom-metal/src/entry.S:64
20010046:	00a28563          	beq	t0,a0,20010050 <_enter+0x50>
/home/nicoladgg/wsFreedomStudio/sifive_hifive1_revb_hello/freedom-metal/src/entry.S:65
2001004a:	911a                	add	sp,sp,t1
/home/nicoladgg/wsFreedomStudio/sifive_hifive1_revb_hello/freedom-metal/src/entry.S:66
2001004c:	0285                	addi	t0,t0,1
/home/nicoladgg/wsFreedomStudio/sifive_hifive1_revb_hello/freedom-metal/src/entry.S:67
2001004e:	bfd5                	j	20010042 <_enter+0x42>
/home/nicoladgg/wsFreedomStudio/sifive_hifive1_revb_hello/freedom-metal/src/entry.S:76
20010050:	00000097          	auipc	ra,0x0
20010054:	07c08093          	addi	ra,ra,124 # 200100cc <__metal_before_start>
/home/nicoladgg/wsFreedomStudio/sifive_hifive1_revb_hello/freedom-metal/src/entry.S:77
20010058:	00008363          	beqz	ra,2001005e <_enter+0x5e>
/home/nicoladgg/wsFreedomStudio/sifive_hifive1_revb_hello/freedom-metal/src/entry.S:78
2001005c:	9082                	jalr	ra
/home/nicoladgg/wsFreedomStudio/sifive_hifive1_revb_hello/freedom-metal/src/entry.S:84
2001005e:	f1402573          	csrr	a0,mhartid
/home/nicoladgg/wsFreedomStudio/sifive_hifive1_revb_hello/freedom-metal/src/entry.S:85
20010062:	4581                	li	a1,0
/home/nicoladgg/wsFreedomStudio/sifive_hifive1_revb_hello/freedom-metal/src/entry.S:86
20010064:	4601                	li	a2,0
/home/nicoladgg/wsFreedomStudio/sifive_hifive1_revb_hello/freedom-metal/src/entry.S:87
20010066:	20ed                	jal	20010150 <_start>
/home/nicoladgg/wsFreedomStudio/sifive_hifive1_revb_hello/freedom-metal/src/entry.S:92
20010068:	00000093          	li	ra,0
/home/nicoladgg/wsFreedomStudio/sifive_hifive1_revb_hello/freedom-metal/src/entry.S:93
2001006c:	00008363          	beqz	ra,20010072 <_enter+0x72>
/home/nicoladgg/wsFreedomStudio/sifive_hifive1_revb_hello/freedom-metal/src/entry.S:94
20010070:	9082                	jalr	ra
/home/nicoladgg/wsFreedomStudio/sifive_hifive1_revb_hello/freedom-metal/src/entry.S:99
20010072:	00000297          	auipc	t0,0x0
20010076:	00c28293          	addi	t0,t0,12 # 2001007e <_enter+0x7e>
/home/nicoladgg/wsFreedomStudio/sifive_hifive1_revb_hello/freedom-metal/src/entry.S:100
2001007a:	30529073          	csrw	mtvec,t0
/home/nicoladgg/wsFreedomStudio/sifive_hifive1_revb_hello/freedom-metal/src/entry.S:102
2001007e:	00002303          	lw	t1,0(zero) # 0 <__metal_boot_hart>
/home/nicoladgg/wsFreedomStudio/sifive_hifive1_revb_hello/freedom-metal/src/entry.S:103
20010082:	bff5                	j	2001007e <_enter+0x7e>
20010084:	0000                	unimp
	...

20010088 <__register_frame_info>:
__register_frame_info():
/home/nicoladgg/wsFreedomStudio/sifive_hifive1_revb_hello/freedom-metal/src/entry.S:117
20010088:	8082                	ret

2001008a <metal_mem_scrub>:
metal_mem_scrub():
/home/nicoladgg/wsFreedomStudio/sifive_hifive1_revb_hello/freedom-metal/src/scrub.S:24
2001008a:	46a1                	li	a3,8
/home/nicoladgg/wsFreedomStudio/sifive_hifive1_revb_hello/freedom-metal/src/scrub.S:25
2001008c:	3006b373          	csrrc	t1,mstatus,a3
/home/nicoladgg/wsFreedomStudio/sifive_hifive1_revb_hello/freedom-metal/src/scrub.S:28
20010090:	4291                	li	t0,4
/home/nicoladgg/wsFreedomStudio/sifive_hifive1_revb_hello/freedom-metal/src/scrub.S:30
20010092:	0055c563          	blt	a1,t0,2001009c <metal_mem_scrub+0x12>
/home/nicoladgg/wsFreedomStudio/sifive_hifive1_revb_hello/freedom-metal/src/scrub.S:31
20010096:	00357613          	andi	a2,a0,3
/home/nicoladgg/wsFreedomStudio/sifive_hifive1_revb_hello/freedom-metal/src/scrub.S:32
2001009a:	ca11                	beqz	a2,200100ae <metal_mem_scrub+0x24>
/home/nicoladgg/wsFreedomStudio/sifive_hifive1_revb_hello/freedom-metal/src/scrub.S:34
2001009c:	00050023          	sb	zero,0(a0)
/home/nicoladgg/wsFreedomStudio/sifive_hifive1_revb_hello/freedom-metal/src/scrub.S:35
200100a0:	0505                	addi	a0,a0,1
/home/nicoladgg/wsFreedomStudio/sifive_hifive1_revb_hello/freedom-metal/src/scrub.S:36
200100a2:	15fd                	addi	a1,a1,-1
/home/nicoladgg/wsFreedomStudio/sifive_hifive1_revb_hello/freedom-metal/src/scrub.S:37
200100a4:	feb047e3          	bgtz	a1,20010092 <metal_mem_scrub+0x8>
/home/nicoladgg/wsFreedomStudio/sifive_hifive1_revb_hello/freedom-metal/src/scrub.S:38
200100a8:	30031073          	csrw	mstatus,t1
/home/nicoladgg/wsFreedomStudio/sifive_hifive1_revb_hello/freedom-metal/src/scrub.S:39
200100ac:	8082                	ret
/home/nicoladgg/wsFreedomStudio/sifive_hifive1_revb_hello/freedom-metal/src/scrub.S:41
200100ae:	00052023          	sw	zero,0(a0)
/home/nicoladgg/wsFreedomStudio/sifive_hifive1_revb_hello/freedom-metal/src/scrub.S:42
200100b2:	0511                	addi	a0,a0,4
/home/nicoladgg/wsFreedomStudio/sifive_hifive1_revb_hello/freedom-metal/src/scrub.S:43
200100b4:	15f1                	addi	a1,a1,-4
/home/nicoladgg/wsFreedomStudio/sifive_hifive1_revb_hello/freedom-metal/src/scrub.S:44
200100b6:	fcb04ee3          	bgtz	a1,20010092 <metal_mem_scrub+0x8>
/home/nicoladgg/wsFreedomStudio/sifive_hifive1_revb_hello/freedom-metal/src/scrub.S:45
200100ba:	30031073          	csrw	mstatus,t1
/home/nicoladgg/wsFreedomStudio/sifive_hifive1_revb_hello/freedom-metal/src/scrub.S:46
200100be:	8082                	ret

200100c0 <__metal_memory_scrub>:
__metal_memory_scrub():
/home/nicoladgg/wsFreedomStudio/sifive_hifive1_revb_hello/freedom-metal/src/scrub.S:74
200100c0:	00032023          	sw	zero,0(t1)
/home/nicoladgg/wsFreedomStudio/sifive_hifive1_revb_hello/freedom-metal/src/scrub.S:75
200100c4:	0311                	addi	t1,t1,4
/home/nicoladgg/wsFreedomStudio/sifive_hifive1_revb_hello/freedom-metal/src/scrub.S:76
200100c6:	fe734de3          	blt	t1,t2,200100c0 <__metal_memory_scrub>
/home/nicoladgg/wsFreedomStudio/sifive_hifive1_revb_hello/freedom-metal/src/scrub.S:82
200100ca:	8082                	ret

200100cc <__metal_before_start>:
__metal_before_start():
/home/nicoladgg/wsFreedomStudio/sifive_hifive1_revb_hello/freedom-metal/src/scrub.S:94
200100cc:	8406                	mv	s0,ra
/home/nicoladgg/wsFreedomStudio/sifive_hifive1_revb_hello/freedom-metal/src/scrub.S:96
200100ce:	dfff0297          	auipc	t0,0xdfff0
200100d2:	f3228293          	addi	t0,t0,-206 # 0 <__metal_boot_hart>
/home/nicoladgg/wsFreedomStudio/sifive_hifive1_revb_hello/freedom-metal/src/scrub.S:97
200100d6:	04028c63          	beqz	t0,2001012e <skip_scrub>
/home/nicoladgg/wsFreedomStudio/sifive_hifive1_revb_hello/freedom-metal/src/scrub.S:99
200100da:	dfff0297          	auipc	t0,0xdfff0
200100de:	f2628293          	addi	t0,t0,-218 # 0 <__metal_boot_hart>
/home/nicoladgg/wsFreedomStudio/sifive_hifive1_revb_hello/freedom-metal/src/scrub.S:100
200100e2:	f14027f3          	csrr	a5,mhartid
/home/nicoladgg/wsFreedomStudio/sifive_hifive1_revb_hello/freedom-metal/src/scrub.S:103
200100e6:	46a1                	li	a3,8
/home/nicoladgg/wsFreedomStudio/sifive_hifive1_revb_hello/freedom-metal/src/scrub.S:104
200100e8:	3006b073          	csrc	mstatus,a3
/home/nicoladgg/wsFreedomStudio/sifive_hifive1_revb_hello/freedom-metal/src/scrub.S:107
200100ec:	830a                	mv	t1,sp
/home/nicoladgg/wsFreedomStudio/sifive_hifive1_revb_hello/freedom-metal/src/scrub.S:108
200100ee:	dfff0397          	auipc	t2,0xdfff0
200100f2:	31238393          	addi	t2,t2,786 # 400 <__stack_size>
/home/nicoladgg/wsFreedomStudio/sifive_hifive1_revb_hello/freedom-metal/src/scrub.S:109
200100f6:	938a                	add	t2,t2,sp
/home/nicoladgg/wsFreedomStudio/sifive_hifive1_revb_hello/freedom-metal/src/scrub.S:110
200100f8:	00730363          	beq	t1,t2,200100fe <__metal_before_start+0x32>
/home/nicoladgg/wsFreedomStudio/sifive_hifive1_revb_hello/freedom-metal/src/scrub.S:111
200100fc:	37d1                	jal	200100c0 <__metal_memory_scrub>
/home/nicoladgg/wsFreedomStudio/sifive_hifive1_revb_hello/freedom-metal/src/scrub.S:113
200100fe:	02579863          	bne	a5,t0,2001012e <skip_scrub>
/home/nicoladgg/wsFreedomStudio/sifive_hifive1_revb_hello/freedom-metal/src/scrub.S:116
20010102:	5fff0317          	auipc	t1,0x5fff0
20010106:	efe30313          	addi	t1,t1,-258 # 80000000 <impure_data>
/home/nicoladgg/wsFreedomStudio/sifive_hifive1_revb_hello/freedom-metal/src/scrub.S:117
2001010a:	5fff0397          	auipc	t2,0x5fff0
2001010e:	3a638393          	addi	t2,t2,934 # 800004b0 <taken>
/home/nicoladgg/wsFreedomStudio/sifive_hifive1_revb_hello/freedom-metal/src/scrub.S:118
20010112:	00730363          	beq	t1,t2,20010118 <__metal_before_start+0x4c>
/home/nicoladgg/wsFreedomStudio/sifive_hifive1_revb_hello/freedom-metal/src/scrub.S:119
20010116:	376d                	jal	200100c0 <__metal_memory_scrub>
/home/nicoladgg/wsFreedomStudio/sifive_hifive1_revb_hello/freedom-metal/src/scrub.S:122
20010118:	e7ff0317          	auipc	t1,0xe7ff0
2001011c:	ee830313          	addi	t1,t1,-280 # 8000000 <metal_segment_itim_target_end>
/home/nicoladgg/wsFreedomStudio/sifive_hifive1_revb_hello/freedom-metal/src/scrub.S:123
20010120:	e7ff0397          	auipc	t2,0xe7ff0
20010124:	ee038393          	addi	t2,t2,-288 # 8000000 <metal_segment_itim_target_end>
/home/nicoladgg/wsFreedomStudio/sifive_hifive1_revb_hello/freedom-metal/src/scrub.S:124
20010128:	00730363          	beq	t1,t2,2001012e <skip_scrub>
/home/nicoladgg/wsFreedomStudio/sifive_hifive1_revb_hello/freedom-metal/src/scrub.S:125
2001012c:	3f51                	jal	200100c0 <__metal_memory_scrub>

2001012e <skip_scrub>:
skip_scrub():
/home/nicoladgg/wsFreedomStudio/sifive_hifive1_revb_hello/freedom-metal/src/scrub.S:129
2001012e:	80a2                	mv	ra,s0
/home/nicoladgg/wsFreedomStudio/sifive_hifive1_revb_hello/freedom-metal/src/scrub.S:130
20010130:	8082                	ret
	...

20010134 <early_trap_vector>:
early_trap_vector():
/home/nicoladgg/wsFreedomStudio/sifive_hifive1_revb_hello/freedom-metal/src/trap.S:64
20010134:	342022f3          	csrr	t0,mcause
/home/nicoladgg/wsFreedomStudio/sifive_hifive1_revb_hello/freedom-metal/src/trap.S:65
20010138:	34102373          	csrr	t1,mepc
/home/nicoladgg/wsFreedomStudio/sifive_hifive1_revb_hello/freedom-metal/src/trap.S:66
2001013c:	343023f3          	csrr	t2,mtval
/home/nicoladgg/wsFreedomStudio/sifive_hifive1_revb_hello/freedom-metal/src/trap.S:67
20010140:	bfd5                	j	20010134 <early_trap_vector>

20010142 <__metal_synchronize_harts>:
__metal_synchronize_harts():
/home/nicoladgg/wsFreedomStudio/sifive_hifive1_revb_hello/freedom-metal/src/synchronize_harts.c:19
20010142:	1141                	addi	sp,sp,-16
20010144:	c622                	sw	s0,12(sp)
20010146:	0800                	addi	s0,sp,16
/home/nicoladgg/wsFreedomStudio/sifive_hifive1_revb_hello/freedom-metal/src/synchronize_harts.c:66
20010148:	0001                	nop
2001014a:	4432                	lw	s0,12(sp)
2001014c:	0141                	addi	sp,sp,16
2001014e:	8082                	ret

20010150 <_start>:
_start():
/home/nicoladgg/wsFreedomStudio/sifive_hifive1_revb_hello/freedom-metal/gloss/crt0.S:36
20010150:	8406                	mv	s0,ra
/home/nicoladgg/wsFreedomStudio/sifive_hifive1_revb_hello/freedom-metal/gloss/crt0.S:44
20010152:	5fff1197          	auipc	gp,0x5fff1
20010156:	b3618193          	addi	gp,gp,-1226 # 80000c88 <__global_pointer$>
/home/nicoladgg/wsFreedomStudio/sifive_hifive1_revb_hello/freedom-metal/gloss/crt0.S:50
2001015a:	00000293          	li	t0,0
/home/nicoladgg/wsFreedomStudio/sifive_hifive1_revb_hello/freedom-metal/gloss/crt0.S:51
2001015e:	0e551163          	bne	a0,t0,20010240 <_skip_init>
/home/nicoladgg/wsFreedomStudio/sifive_hifive1_revb_hello/freedom-metal/gloss/crt0.S:60
20010162:	00006297          	auipc	t0,0x6
20010166:	ae628293          	addi	t0,t0,-1306 # 20015c48 <metal_segment_data_source_start>
/home/nicoladgg/wsFreedomStudio/sifive_hifive1_revb_hello/freedom-metal/gloss/crt0.S:61
2001016a:	5fff0317          	auipc	t1,0x5fff0
2001016e:	e9630313          	addi	t1,t1,-362 # 80000000 <impure_data>
/home/nicoladgg/wsFreedomStudio/sifive_hifive1_revb_hello/freedom-metal/gloss/crt0.S:62
20010172:	5fff0397          	auipc	t2,0x5fff0
20010176:	33e38393          	addi	t2,t2,830 # 800004b0 <taken>
/home/nicoladgg/wsFreedomStudio/sifive_hifive1_revb_hello/freedom-metal/gloss/crt0.S:64
2001017a:	00628c63          	beq	t0,t1,20010192 <_start+0x42>
/home/nicoladgg/wsFreedomStudio/sifive_hifive1_revb_hello/freedom-metal/gloss/crt0.S:65
2001017e:	00735a63          	bge	t1,t2,20010192 <_start+0x42>
/home/nicoladgg/wsFreedomStudio/sifive_hifive1_revb_hello/freedom-metal/gloss/crt0.S:69
20010182:	0002a503          	lw	a0,0(t0)
/home/nicoladgg/wsFreedomStudio/sifive_hifive1_revb_hello/freedom-metal/gloss/crt0.S:70
20010186:	0291                	addi	t0,t0,4
/home/nicoladgg/wsFreedomStudio/sifive_hifive1_revb_hello/freedom-metal/gloss/crt0.S:71
20010188:	00a32023          	sw	a0,0(t1)
/home/nicoladgg/wsFreedomStudio/sifive_hifive1_revb_hello/freedom-metal/gloss/crt0.S:72
2001018c:	0311                	addi	t1,t1,4
/home/nicoladgg/wsFreedomStudio/sifive_hifive1_revb_hello/freedom-metal/gloss/crt0.S:73
2001018e:	fe734ae3          	blt	t1,t2,20010182 <_start+0x32>
/home/nicoladgg/wsFreedomStudio/sifive_hifive1_revb_hello/freedom-metal/gloss/crt0.S:84
20010192:	00001297          	auipc	t0,0x1
20010196:	d8628293          	addi	t0,t0,-634 # 20010f18 <metal_segment_itim_source_start>
/home/nicoladgg/wsFreedomStudio/sifive_hifive1_revb_hello/freedom-metal/gloss/crt0.S:85
2001019a:	e7ff0317          	auipc	t1,0xe7ff0
2001019e:	e6630313          	addi	t1,t1,-410 # 8000000 <metal_segment_itim_target_end>
/home/nicoladgg/wsFreedomStudio/sifive_hifive1_revb_hello/freedom-metal/gloss/crt0.S:86
200101a2:	e7ff0397          	auipc	t2,0xe7ff0
200101a6:	e5e38393          	addi	t2,t2,-418 # 8000000 <metal_segment_itim_target_end>
/home/nicoladgg/wsFreedomStudio/sifive_hifive1_revb_hello/freedom-metal/gloss/crt0.S:88
200101aa:	00628c63          	beq	t0,t1,200101c2 <_start+0x72>
/home/nicoladgg/wsFreedomStudio/sifive_hifive1_revb_hello/freedom-metal/gloss/crt0.S:89
200101ae:	00735a63          	bge	t1,t2,200101c2 <_start+0x72>
/home/nicoladgg/wsFreedomStudio/sifive_hifive1_revb_hello/freedom-metal/gloss/crt0.S:93
200101b2:	0002a503          	lw	a0,0(t0)
/home/nicoladgg/wsFreedomStudio/sifive_hifive1_revb_hello/freedom-metal/gloss/crt0.S:94
200101b6:	0291                	addi	t0,t0,4
/home/nicoladgg/wsFreedomStudio/sifive_hifive1_revb_hello/freedom-metal/gloss/crt0.S:95
200101b8:	00a32023          	sw	a0,0(t1)
/home/nicoladgg/wsFreedomStudio/sifive_hifive1_revb_hello/freedom-metal/gloss/crt0.S:96
200101bc:	0311                	addi	t1,t1,4
/home/nicoladgg/wsFreedomStudio/sifive_hifive1_revb_hello/freedom-metal/gloss/crt0.S:97
200101be:	fe734ae3          	blt	t1,t2,200101b2 <_start+0x62>
/home/nicoladgg/wsFreedomStudio/sifive_hifive1_revb_hello/freedom-metal/gloss/crt0.S:109
200101c2:	0000100f          	fence.i
/home/nicoladgg/wsFreedomStudio/sifive_hifive1_revb_hello/freedom-metal/gloss/crt0.S:114
200101c6:	00001297          	auipc	t0,0x1
200101ca:	d5228293          	addi	t0,t0,-686 # 20010f18 <metal_segment_itim_source_start>
/home/nicoladgg/wsFreedomStudio/sifive_hifive1_revb_hello/freedom-metal/gloss/crt0.S:115
200101ce:	5fff0317          	auipc	t1,0x5fff0
200101d2:	e3230313          	addi	t1,t1,-462 # 80000000 <impure_data>
/home/nicoladgg/wsFreedomStudio/sifive_hifive1_revb_hello/freedom-metal/gloss/crt0.S:116
200101d6:	5fff0397          	auipc	t2,0x5fff0
200101da:	e2a38393          	addi	t2,t2,-470 # 80000000 <impure_data>
/home/nicoladgg/wsFreedomStudio/sifive_hifive1_revb_hello/freedom-metal/gloss/crt0.S:118
200101de:	00628c63          	beq	t0,t1,200101f6 <_start+0xa6>
/home/nicoladgg/wsFreedomStudio/sifive_hifive1_revb_hello/freedom-metal/gloss/crt0.S:119
200101e2:	00735a63          	bge	t1,t2,200101f6 <_start+0xa6>
/home/nicoladgg/wsFreedomStudio/sifive_hifive1_revb_hello/freedom-metal/gloss/crt0.S:123
200101e6:	0002a503          	lw	a0,0(t0)
/home/nicoladgg/wsFreedomStudio/sifive_hifive1_revb_hello/freedom-metal/gloss/crt0.S:124
200101ea:	0291                	addi	t0,t0,4
/home/nicoladgg/wsFreedomStudio/sifive_hifive1_revb_hello/freedom-metal/gloss/crt0.S:125
200101ec:	00a32023          	sw	a0,0(t1)
/home/nicoladgg/wsFreedomStudio/sifive_hifive1_revb_hello/freedom-metal/gloss/crt0.S:126
200101f0:	0311                	addi	t1,t1,4
/home/nicoladgg/wsFreedomStudio/sifive_hifive1_revb_hello/freedom-metal/gloss/crt0.S:127
200101f2:	fe734ae3          	blt	t1,t2,200101e6 <_start+0x96>
/home/nicoladgg/wsFreedomStudio/sifive_hifive1_revb_hello/freedom-metal/gloss/crt0.S:139
200101f6:	0000100f          	fence.i
/home/nicoladgg/wsFreedomStudio/sifive_hifive1_revb_hello/freedom-metal/gloss/crt0.S:142
200101fa:	5fff0317          	auipc	t1,0x5fff0
200101fe:	2b630313          	addi	t1,t1,694 # 800004b0 <taken>
/home/nicoladgg/wsFreedomStudio/sifive_hifive1_revb_hello/freedom-metal/gloss/crt0.S:143
20010202:	b3418393          	addi	t2,gp,-1228 # 800007bc <metal_segment_bss_target_end>
/home/nicoladgg/wsFreedomStudio/sifive_hifive1_revb_hello/freedom-metal/gloss/crt0.S:145
20010206:	00735763          	bge	t1,t2,20010214 <_start+0xc4>
/home/nicoladgg/wsFreedomStudio/sifive_hifive1_revb_hello/freedom-metal/gloss/crt0.S:149
2001020a:	00032023          	sw	zero,0(t1)
/home/nicoladgg/wsFreedomStudio/sifive_hifive1_revb_hello/freedom-metal/gloss/crt0.S:150
2001020e:	0311                	addi	t1,t1,4
/home/nicoladgg/wsFreedomStudio/sifive_hifive1_revb_hello/freedom-metal/gloss/crt0.S:151
20010210:	fe734de3          	blt	t1,t2,2001020a <_start+0xba>
/home/nicoladgg/wsFreedomStudio/sifive_hifive1_revb_hello/freedom-metal/gloss/crt0.S:161
20010214:	5fff0217          	auipc	tp,0x5fff0
20010218:	29c20213          	addi	tp,tp,668 # 800004b0 <taken>
/home/nicoladgg/wsFreedomStudio/sifive_hifive1_revb_hello/freedom-metal/gloss/crt0.S:166
2001021c:	c211                	beqz	a2,20010220 <_start+0xd0>
/home/nicoladgg/wsFreedomStudio/sifive_hifive1_revb_hello/freedom-metal/gloss/crt0.S:167
2001021e:	9602                	jalr	a2
/home/nicoladgg/wsFreedomStudio/sifive_hifive1_revb_hello/freedom-metal/gloss/crt0.S:171
20010220:	00002517          	auipc	a0,0x2
20010224:	a2050513          	addi	a0,a0,-1504 # 20011c40 <__libc_fini_array>
/home/nicoladgg/wsFreedomStudio/sifive_hifive1_revb_hello/freedom-metal/gloss/crt0.S:172
20010228:	1df010ef          	jal	ra,20011c06 <atexit>
/home/nicoladgg/wsFreedomStudio/sifive_hifive1_revb_hello/freedom-metal/gloss/crt0.S:173
2001022c:	24b010ef          	jal	ra,20011c76 <__libc_init_array>
/home/nicoladgg/wsFreedomStudio/sifive_hifive1_revb_hello/freedom-metal/gloss/crt0.S:177
20010230:	00003517          	auipc	a0,0x3
20010234:	d5850513          	addi	a0,a0,-680 # 20012f88 <metal_fini_run>
/home/nicoladgg/wsFreedomStudio/sifive_hifive1_revb_hello/freedom-metal/gloss/crt0.S:178
20010238:	1cf010ef          	jal	ra,20011c06 <atexit>
/home/nicoladgg/wsFreedomStudio/sifive_hifive1_revb_hello/freedom-metal/gloss/crt0.S:179
2001023c:	539020ef          	jal	ra,20012f74 <metal_init_run>

20010240 <_skip_init>:
_skip_init():
/home/nicoladgg/wsFreedomStudio/sifive_hifive1_revb_hello/freedom-metal/gloss/crt0.S:185
20010240:	3709                	jal	20010142 <__metal_synchronize_harts>
/home/nicoladgg/wsFreedomStudio/sifive_hifive1_revb_hello/freedom-metal/gloss/crt0.S:188
20010242:	56fd                	li	a3,-1
/home/nicoladgg/wsFreedomStudio/sifive_hifive1_revb_hello/freedom-metal/gloss/crt0.S:189
20010244:	3046b073          	csrc	mie,a3
/home/nicoladgg/wsFreedomStudio/sifive_hifive1_revb_hello/freedom-metal/gloss/crt0.S:190
20010248:	3446b073          	csrc	mip,a3
/home/nicoladgg/wsFreedomStudio/sifive_hifive1_revb_hello/freedom-metal/gloss/crt0.S:194
2001024c:	301027f3          	csrr	a5,misa
/home/nicoladgg/wsFreedomStudio/sifive_hifive1_revb_hello/freedom-metal/gloss/crt0.S:195
20010250:	00042737          	lui	a4,0x42
/home/nicoladgg/wsFreedomStudio/sifive_hifive1_revb_hello/freedom-metal/gloss/crt0.S:196
20010254:	8f7d                	and	a4,a4,a5
/home/nicoladgg/wsFreedomStudio/sifive_hifive1_revb_hello/freedom-metal/gloss/crt0.S:197
20010256:	c709                	beqz	a4,20010260 <_skip_init+0x20>
/home/nicoladgg/wsFreedomStudio/sifive_hifive1_revb_hello/freedom-metal/gloss/crt0.S:198
20010258:	3036b073          	csrc	mideleg,a3
/home/nicoladgg/wsFreedomStudio/sifive_hifive1_revb_hello/freedom-metal/gloss/crt0.S:199
2001025c:	3026b073          	csrc	medeleg,a3
/home/nicoladgg/wsFreedomStudio/sifive_hifive1_revb_hello/freedom-metal/gloss/crt0.S:203
20010260:	00040737          	lui	a4,0x40
/home/nicoladgg/wsFreedomStudio/sifive_hifive1_revb_hello/freedom-metal/gloss/crt0.S:204
20010264:	8f7d                	and	a4,a4,a5
/home/nicoladgg/wsFreedomStudio/sifive_hifive1_revb_hello/freedom-metal/gloss/crt0.S:205
20010266:	c319                	beqz	a4,2001026c <_skip_init+0x2c>
/home/nicoladgg/wsFreedomStudio/sifive_hifive1_revb_hello/freedom-metal/gloss/crt0.S:206
20010268:	1806b073          	csrc	satp,a3
/home/nicoladgg/wsFreedomStudio/sifive_hifive1_revb_hello/freedom-metal/gloss/crt0.S:210
2001026c:	6741                	lui	a4,0x10
2001026e:	02870713          	addi	a4,a4,40 # 10028 <__heap_size+0xf828>
/home/nicoladgg/wsFreedomStudio/sifive_hifive1_revb_hello/freedom-metal/gloss/crt0.S:211
20010272:	8ff9                	and	a5,a5,a4
/home/nicoladgg/wsFreedomStudio/sifive_hifive1_revb_hello/freedom-metal/gloss/crt0.S:212
20010274:	cb89                	beqz	a5,20010286 <_skip_init+0x46>
/home/nicoladgg/wsFreedomStudio/sifive_hifive1_revb_hello/freedom-metal/gloss/crt0.S:213
20010276:	300027f3          	csrr	a5,mstatus
/home/nicoladgg/wsFreedomStudio/sifive_hifive1_revb_hello/freedom-metal/gloss/crt0.S:214
2001027a:	6709                	lui	a4,0x2
/home/nicoladgg/wsFreedomStudio/sifive_hifive1_revb_hello/freedom-metal/gloss/crt0.S:215
2001027c:	8fd9                	or	a5,a5,a4
/home/nicoladgg/wsFreedomStudio/sifive_hifive1_revb_hello/freedom-metal/gloss/crt0.S:216
2001027e:	30079073          	csrw	mstatus,a5
/home/nicoladgg/wsFreedomStudio/sifive_hifive1_revb_hello/freedom-metal/gloss/crt0.S:217
20010282:	00305073          	csrwi	fcsr,0
/home/nicoladgg/wsFreedomStudio/sifive_hifive1_revb_hello/freedom-metal/gloss/crt0.S:221
20010286:	301027f3          	csrr	a5,misa
/home/nicoladgg/wsFreedomStudio/sifive_hifive1_revb_hello/freedom-metal/gloss/crt0.S:222
2001028a:	00200737          	lui	a4,0x200
/home/nicoladgg/wsFreedomStudio/sifive_hifive1_revb_hello/freedom-metal/gloss/crt0.S:223
2001028e:	8ff9                	and	a5,a5,a4
/home/nicoladgg/wsFreedomStudio/sifive_hifive1_revb_hello/freedom-metal/gloss/crt0.S:224
20010290:	c799                	beqz	a5,2001029e <_skip_init+0x5e>
/home/nicoladgg/wsFreedomStudio/sifive_hifive1_revb_hello/freedom-metal/gloss/crt0.S:225
20010292:	300027f3          	csrr	a5,mstatus
/home/nicoladgg/wsFreedomStudio/sifive_hifive1_revb_hello/freedom-metal/gloss/crt0.S:226
20010296:	2007e793          	ori	a5,a5,512
/home/nicoladgg/wsFreedomStudio/sifive_hifive1_revb_hello/freedom-metal/gloss/crt0.S:227
2001029a:	30079073          	csrw	mstatus,a5
/home/nicoladgg/wsFreedomStudio/sifive_hifive1_revb_hello/freedom-metal/gloss/crt0.S:233
2001029e:	4505                	li	a0,1
/home/nicoladgg/wsFreedomStudio/sifive_hifive1_revb_hello/freedom-metal/gloss/crt0.S:234
200102a0:	00000597          	auipc	a1,0x0
200102a4:	1a858593          	addi	a1,a1,424 # 20010448 <argv>
/home/nicoladgg/wsFreedomStudio/sifive_hifive1_revb_hello/freedom-metal/gloss/crt0.S:235
200102a8:	00000617          	auipc	a2,0x0
200102ac:	1a460613          	addi	a2,a2,420 # 2001044c <envp>
/home/nicoladgg/wsFreedomStudio/sifive_hifive1_revb_hello/freedom-metal/gloss/crt0.S:236
200102b0:	2031                	jal	200102bc <secondary_main>
/home/nicoladgg/wsFreedomStudio/sifive_hifive1_revb_hello/freedom-metal/gloss/crt0.S:242
200102b2:	165010ef          	jal	ra,20011c16 <exit>
/home/nicoladgg/wsFreedomStudio/sifive_hifive1_revb_hello/freedom-metal/gloss/crt0.S:247
200102b6:	80a2                	mv	ra,s0
/home/nicoladgg/wsFreedomStudio/sifive_hifive1_revb_hello/freedom-metal/gloss/crt0.S:248
200102b8:	8082                	ret

200102ba <_fini>:
_init():
/home/nicoladgg/wsFreedomStudio/sifive_hifive1_revb_hello/freedom-metal/gloss/crt0.S:260
200102ba:	8082                	ret

200102bc <secondary_main>:
secondary_main():
/home/nicoladgg/wsFreedomStudio/sifive_hifive1_revb_hello/freedom-metal/gloss/crt0.S:271
200102bc:	1141                	addi	sp,sp,-16
/home/nicoladgg/wsFreedomStudio/sifive_hifive1_revb_hello/freedom-metal/gloss/crt0.S:273
200102be:	c206                	sw	ra,4(sp)
/home/nicoladgg/wsFreedomStudio/sifive_hifive1_revb_hello/freedom-metal/gloss/crt0.S:277
200102c0:	f14022f3          	csrr	t0,mhartid
/home/nicoladgg/wsFreedomStudio/sifive_hifive1_revb_hello/freedom-metal/gloss/crt0.S:278
200102c4:	00000313          	li	t1,0
/home/nicoladgg/wsFreedomStudio/sifive_hifive1_revb_hello/freedom-metal/gloss/crt0.S:279
200102c8:	00628563          	beq	t0,t1,200102d2 <secondary_main+0x16>
/home/nicoladgg/wsFreedomStudio/sifive_hifive1_revb_hello/freedom-metal/gloss/crt0.S:281
200102cc:	10500073          	wfi
/home/nicoladgg/wsFreedomStudio/sifive_hifive1_revb_hello/freedom-metal/gloss/crt0.S:282
200102d0:	bff5                	j	200102cc <secondary_main+0x10>
/home/nicoladgg/wsFreedomStudio/sifive_hifive1_revb_hello/freedom-metal/gloss/crt0.S:284
200102d2:	7c9000ef          	jal	ra,2001129a <main>
/home/nicoladgg/wsFreedomStudio/sifive_hifive1_revb_hello/freedom-metal/gloss/crt0.S:286
200102d6:	4092                	lw	ra,4(sp)
/home/nicoladgg/wsFreedomStudio/sifive_hifive1_revb_hello/freedom-metal/gloss/crt0.S:290
200102d8:	0141                	addi	sp,sp,16
/home/nicoladgg/wsFreedomStudio/sifive_hifive1_revb_hello/freedom-metal/gloss/crt0.S:291
200102da:	8082                	ret

Disassembly of section .ctors:

200102e8 <metal_sifive_fe310_g000_pll_init>:
metal_sifive_fe310_g000_pll_init():
/home/nicoladgg/wsFreedomStudio/sifive_hifive1_revb_hello/freedom-metal/src/drivers/sifive_fe310-g000_pll.c:151
200102e8:	1101                	addi	sp,sp,-32
200102ea:	ce06                	sw	ra,28(sp)
200102ec:	cc22                	sw	s0,24(sp)
200102ee:	1000                	addi	s0,sp,32
/home/nicoladgg/wsFreedomStudio/sifive_hifive1_revb_hello/freedom-metal/src/drivers/sifive_fe310-g000_pll.c:152
200102f0:	01c050ef          	jal	ra,2001530c <__metal_driver_sifive_fe310_g000_pll_init_rate>
200102f4:	fea42623          	sw	a0,-20(s0)
/home/nicoladgg/wsFreedomStudio/sifive_hifive1_revb_hello/freedom-metal/src/drivers/sifive_fe310-g000_pll.c:154
200102f8:	fec42783          	lw	a5,-20(s0)
200102fc:	c799                	beqz	a5,2001030a <metal_sifive_fe310_g000_pll_init+0x22>
/home/nicoladgg/wsFreedomStudio/sifive_hifive1_revb_hello/freedom-metal/src/drivers/sifive_fe310-g000_pll.c:155
200102fe:	800007b7          	lui	a5,0x80000
20010302:	47878513          	addi	a0,a5,1144 # 80000478 <__global_pointer$+0xfffff7f0>
20010306:	092050ef          	jal	ra,20015398 <__metal_driver_sifive_fe310_g000_pll_init>
/home/nicoladgg/wsFreedomStudio/sifive_hifive1_revb_hello/freedom-metal/src/drivers/sifive_fe310-g000_pll.c:157
2001030a:	0001                	nop
2001030c:	40f2                	lw	ra,28(sp)
2001030e:	4462                	lw	s0,24(sp)
20010310:	6105                	addi	sp,sp,32
20010312:	8082                	ret

20010314 <use_hfxosc>:
use_hfxosc():
/home/nicoladgg/wsFreedomStudio/sifive_hifive1_revb_hello/freedom-metal/src/drivers/sifive_fe310-g000_pll.c:389
20010314:	1101                	addi	sp,sp,-32
20010316:	ce06                	sw	ra,28(sp)
20010318:	cc22                	sw	s0,24(sp)
2001031a:	1000                	addi	s0,sp,32
/home/nicoladgg/wsFreedomStudio/sifive_hifive1_revb_hello/freedom-metal/src/drivers/sifive_fe310-g000_pll.c:390
2001031c:	7f1040ef          	jal	ra,2001530c <__metal_driver_sifive_fe310_g000_pll_init_rate>
20010320:	fea42623          	sw	a0,-20(s0)
/home/nicoladgg/wsFreedomStudio/sifive_hifive1_revb_hello/freedom-metal/src/drivers/sifive_fe310-g000_pll.c:391
20010324:	fec42583          	lw	a1,-20(s0)
20010328:	800007b7          	lui	a5,0x80000
2001032c:	47878513          	addi	a0,a5,1144 # 80000478 <__global_pointer$+0xfffff7f0>
20010330:	706050ef          	jal	ra,20015a36 <metal_clock_set_rate_hz>
/home/nicoladgg/wsFreedomStudio/sifive_hifive1_revb_hello/freedom-metal/src/drivers/sifive_fe310-g000_pll.c:393
20010334:	0001                	nop
20010336:	40f2                	lw	ra,28(sp)
20010338:	4462                	lw	s0,24(sp)
2001033a:	6105                	addi	sp,sp,32
2001033c:	8082                	ret

Disassembly of section .text:

20010f80 <plic_interrupt_handler>:
plic_interrupt_handler():
/home/nicoladgg/wsFreedomStudio/SiFive_HiFive_RevB_Projects/src/./include/devices/../devices/plic.h:80

    return -1;
}

void plic_interrupt_handler()
{
20010f80:	1101                	addi	sp,sp,-32
20010f82:	ce06                	sw	ra,28(sp)
20010f84:	cc22                	sw	s0,24(sp)
20010f86:	1000                	addi	s0,sp,32
/home/nicoladgg/wsFreedomStudio/SiFive_HiFive_RevB_Projects/src/./include/devices/../devices/plic.h:85

    uint32_t pending, claim;
    unsigned int int_number;

    pending = PLIC_REG(PLIC_PENDING_OFFSET);
20010f88:	0c0017b7          	lui	a5,0xc001
20010f8c:	439c                	lw	a5,0(a5)
20010f8e:	fef42623          	sw	a5,-20(s0)
/home/nicoladgg/wsFreedomStudio/SiFive_HiFive_RevB_Projects/src/./include/devices/../devices/plic.h:86
    claim = PLIC_REG(PLIC_CLAIM_OFFSET);
20010f92:	0c2007b7          	lui	a5,0xc200
20010f96:	0791                	addi	a5,a5,4
20010f98:	439c                	lw	a5,0(a5)
20010f9a:	fef42423          	sw	a5,-24(s0)
/home/nicoladgg/wsFreedomStudio/SiFive_HiFive_RevB_Projects/src/./include/devices/../devices/plic.h:88

    int_number = sqrt(claim) - 1;
20010f9e:	fe842503          	lw	a0,-24(s0)
20010fa2:	1f9000ef          	jal	ra,2001199a <__floatunsidf>
20010fa6:	872a                	mv	a4,a0
20010fa8:	87ae                	mv	a5,a1
20010faa:	853a                	mv	a0,a4
20010fac:	85be                	mv	a1,a5
20010fae:	277000ef          	jal	ra,20011a24 <sqrt>
20010fb2:	872a                	mv	a4,a0
20010fb4:	87ae                	mv	a5,a1
20010fb6:	200106b7          	lui	a3,0x20010
20010fba:	3406a603          	lw	a2,832(a3) # 20010340 <use_hfxosc+0x2c>
20010fbe:	3446a683          	lw	a3,836(a3)
20010fc2:	853a                	mv	a0,a4
20010fc4:	85be                	mv	a1,a5
20010fc6:	2eb1                	jal	20011322 <__subdf3>
20010fc8:	872a                	mv	a4,a0
20010fca:	87ae                	mv	a5,a1
20010fcc:	853a                	mv	a0,a4
20010fce:	85be                	mv	a1,a5
20010fd0:	16b000ef          	jal	ra,2001193a <__fixunsdfsi>
20010fd4:	87aa                	mv	a5,a0
20010fd6:	fef42223          	sw	a5,-28(s0)
/home/nicoladgg/wsFreedomStudio/SiFive_HiFive_RevB_Projects/src/./include/devices/../devices/plic.h:90

    if (irq_functions[int_number].active)
20010fda:	800007b7          	lui	a5,0x80000
20010fde:	54c78693          	addi	a3,a5,1356 # 8000054c <__global_pointer$+0xfffff8c4>
20010fe2:	fe442703          	lw	a4,-28(s0)
20010fe6:	87ba                	mv	a5,a4
20010fe8:	0786                	slli	a5,a5,0x1
20010fea:	97ba                	add	a5,a5,a4
20010fec:	078a                	slli	a5,a5,0x2
20010fee:	97b6                	add	a5,a5,a3
20010ff0:	43dc                	lw	a5,4(a5)
20010ff2:	cf91                	beqz	a5,2001100e <plic_interrupt_handler+0x8e>
/home/nicoladgg/wsFreedomStudio/SiFive_HiFive_RevB_Projects/src/./include/devices/../devices/plic.h:92
    {
        irq_functions[int_number].irq_handler();
20010ff4:	800007b7          	lui	a5,0x80000
20010ff8:	54c78693          	addi	a3,a5,1356 # 8000054c <__global_pointer$+0xfffff8c4>
20010ffc:	fe442703          	lw	a4,-28(s0)
20011000:	87ba                	mv	a5,a4
20011002:	0786                	slli	a5,a5,0x1
20011004:	97ba                	add	a5,a5,a4
20011006:	078a                	slli	a5,a5,0x2
20011008:	97b6                	add	a5,a5,a3
2001100a:	439c                	lw	a5,0(a5)
2001100c:	9782                	jalr	a5
/home/nicoladgg/wsFreedomStudio/SiFive_HiFive_RevB_Projects/src/./include/devices/../devices/plic.h:94
    }
}
2001100e:	0001                	nop
20011010:	40f2                	lw	ra,28(sp)
20011012:	4462                	lw	s0,24(sp)
20011014:	6105                	addi	sp,sp,32
20011016:	8082                	ret

20011018 <clint_interrupt_timer_enable>:
clint_interrupt_timer_enable():
/home/nicoladgg/wsFreedomStudio/SiFive_HiFive_RevB_Projects/src/./include/devices/../devices/clint.h:31
    clint_interrupt_timer_enable();
    clint_interrupt_software_enable();
}

void clint_interrupt_timer_enable()
{
20011018:	1101                	addi	sp,sp,-32
2001101a:	ce22                	sw	s0,28(sp)
2001101c:	1000                	addi	s0,sp,32
/home/nicoladgg/wsFreedomStudio/SiFive_HiFive_RevB_Projects/src/./include/devices/../devices/clint.h:34
    uint32_t mstatus, mie;

    mstatus = 0;
2001101e:	fe042623          	sw	zero,-20(s0)
/home/nicoladgg/wsFreedomStudio/SiFive_HiFive_RevB_Projects/src/./include/devices/../devices/clint.h:36

    __asm__ volatile("csrw mstatus, %0" : : "r"(mstatus));
20011022:	fec42783          	lw	a5,-20(s0)
20011026:	30079073          	csrw	mstatus,a5
/home/nicoladgg/wsFreedomStudio/SiFive_HiFive_RevB_Projects/src/./include/devices/../devices/clint.h:38

    __asm__ volatile("csrr %0, mie" : "=r"(mie));
2001102a:	304027f3          	csrr	a5,mie
2001102e:	fef42423          	sw	a5,-24(s0)
/home/nicoladgg/wsFreedomStudio/SiFive_HiFive_RevB_Projects/src/./include/devices/../devices/clint.h:40

    mie |= MIE_MTIE;
20011032:	fe842783          	lw	a5,-24(s0)
20011036:	0807e793          	ori	a5,a5,128
2001103a:	fef42423          	sw	a5,-24(s0)
/home/nicoladgg/wsFreedomStudio/SiFive_HiFive_RevB_Projects/src/./include/devices/../devices/clint.h:41
    __asm__ volatile("csrw mie, %0" : : "r"(mie));
2001103e:	fe842783          	lw	a5,-24(s0)
20011042:	30479073          	csrw	mie,a5
/home/nicoladgg/wsFreedomStudio/SiFive_HiFive_RevB_Projects/src/./include/devices/../devices/clint.h:43

    mstatus |= MSTATUS_MIE;
20011046:	fec42783          	lw	a5,-20(s0)
2001104a:	0087e793          	ori	a5,a5,8
2001104e:	fef42623          	sw	a5,-20(s0)
/home/nicoladgg/wsFreedomStudio/SiFive_HiFive_RevB_Projects/src/./include/devices/../devices/clint.h:44
    __asm__ volatile("csrw mstatus, %0" : : "r"(mstatus));
20011052:	fec42783          	lw	a5,-20(s0)
20011056:	30079073          	csrw	mstatus,a5
/home/nicoladgg/wsFreedomStudio/SiFive_HiFive_RevB_Projects/src/./include/devices/../devices/clint.h:46

}
2001105a:	0001                	nop
2001105c:	4472                	lw	s0,28(sp)
2001105e:	6105                	addi	sp,sp,32
20011060:	8082                	ret

20011062 <interrupt_enable>:
interrupt_enable():
/home/nicoladgg/wsFreedomStudio/SiFive_HiFive_RevB_Projects/src/./include/devices/../interrupt.h:15

int interrupt_enable();
void interrupt_service_routine() __attribute__((interrupt, aligned(64)));

int interrupt_enable()
{
20011062:	1101                	addi	sp,sp,-32
20011064:	ce22                	sw	s0,28(sp)
20011066:	1000                	addi	s0,sp,32
/home/nicoladgg/wsFreedomStudio/SiFive_HiFive_RevB_Projects/src/./include/devices/../interrupt.h:18
    uint32_t mstatus, mie;

    __asm__ volatile("csrr %0, mstatus" : "=r"(mstatus));
20011068:	300027f3          	csrr	a5,mstatus
2001106c:	fef42623          	sw	a5,-20(s0)
/home/nicoladgg/wsFreedomStudio/SiFive_HiFive_RevB_Projects/src/./include/devices/../interrupt.h:20

    if ((mstatus & 0b1000) == 0)
20011070:	fec42783          	lw	a5,-20(s0)
20011074:	8ba1                	andi	a5,a5,8
20011076:	e795                	bnez	a5,200110a2 <interrupt_enable+0x40>
/home/nicoladgg/wsFreedomStudio/SiFive_HiFive_RevB_Projects/src/./include/devices/../interrupt.h:22
    {
    	mie = 0;
20011078:	fe042423          	sw	zero,-24(s0)
/home/nicoladgg/wsFreedomStudio/SiFive_HiFive_RevB_Projects/src/./include/devices/../interrupt.h:23
    	__asm__ volatile("csrw mie, %0" : : "r"(mie));
2001107c:	fe842783          	lw	a5,-24(s0)
20011080:	30479073          	csrw	mie,a5
/home/nicoladgg/wsFreedomStudio/SiFive_HiFive_RevB_Projects/src/./include/devices/../interrupt.h:26
    	//mtvec |= MTVEC_ENABLE_DIRECT;
    	//__asm__ volatile("csrw mtvec, %I" : : "r"((unsigned long) interrupt_service_routine));
        write_csr(mtvec, ((unsigned long)&interrupt_service_routine | MTVEC_ENABLE_DIRECT));
20011084:	200117b7          	lui	a5,0x20011
20011088:	0c078793          	addi	a5,a5,192 # 200110c0 <interrupt_service_routine>
2001108c:	30579073          	csrw	mtvec,a5
/home/nicoladgg/wsFreedomStudio/SiFive_HiFive_RevB_Projects/src/./include/devices/../interrupt.h:27
        mstatus = MSTATUS_MIE;
20011090:	47a1                	li	a5,8
20011092:	fef42623          	sw	a5,-20(s0)
/home/nicoladgg/wsFreedomStudio/SiFive_HiFive_RevB_Projects/src/./include/devices/../interrupt.h:28
        __asm__ volatile("csrw mstatus, %0" : : "r"(mstatus));
20011096:	fec42783          	lw	a5,-20(s0)
2001109a:	30079073          	csrw	mstatus,a5
/home/nicoladgg/wsFreedomStudio/SiFive_HiFive_RevB_Projects/src/./include/devices/../interrupt.h:35
    else
    {
        return -INT_ERR_ACTIVE;
    }

    return INT_OK;
2001109e:	4781                	li	a5,0
200110a0:	a011                	j	200110a4 <interrupt_enable+0x42>
/home/nicoladgg/wsFreedomStudio/SiFive_HiFive_RevB_Projects/src/./include/devices/../interrupt.h:32
        return -INT_ERR_ACTIVE;
200110a2:	57fd                	li	a5,-1
/home/nicoladgg/wsFreedomStudio/SiFive_HiFive_RevB_Projects/src/./include/devices/../interrupt.h:36
}
200110a4:	853e                	mv	a0,a5
200110a6:	4472                	lw	s0,28(sp)
200110a8:	6105                	addi	sp,sp,32
200110aa:	8082                	ret
	...

200110c0 <interrupt_service_routine>:
interrupt_service_routine():
/home/nicoladgg/wsFreedomStudio/SiFive_HiFive_RevB_Projects/src/./include/devices/../interrupt.h:39

void interrupt_service_routine()
{
200110c0:	711d                	addi	sp,sp,-96
200110c2:	ce86                	sw	ra,92(sp)
200110c4:	cc96                	sw	t0,88(sp)
200110c6:	ca9a                	sw	t1,84(sp)
200110c8:	c89e                	sw	t2,80(sp)
200110ca:	c6a2                	sw	s0,76(sp)
200110cc:	c4aa                	sw	a0,72(sp)
200110ce:	c2ae                	sw	a1,68(sp)
200110d0:	c0b2                	sw	a2,64(sp)
200110d2:	de36                	sw	a3,60(sp)
200110d4:	dc3a                	sw	a4,56(sp)
200110d6:	da3e                	sw	a5,52(sp)
200110d8:	d842                	sw	a6,48(sp)
200110da:	d646                	sw	a7,44(sp)
200110dc:	d472                	sw	t3,40(sp)
200110de:	d276                	sw	t4,36(sp)
200110e0:	d07a                	sw	t5,32(sp)
200110e2:	ce7e                	sw	t6,28(sp)
200110e4:	1080                	addi	s0,sp,96
/home/nicoladgg/wsFreedomStudio/SiFive_HiFive_RevB_Projects/src/./include/devices/../interrupt.h:49
                     "sw a1, 0(a0)\n\t"
                     "sw a2, 4(a0)\n\t"
                     "sw a3, 8(a0)\n\t"
                     "sw a4, 12(a0)\n\t");*/

    __asm__ volatile("csrr %0, mcause" : "=r"(mscratch));
200110e6:	342027f3          	csrr	a5,mcause
200110ea:	faf42623          	sw	a5,-84(s0)
/home/nicoladgg/wsFreedomStudio/SiFive_HiFive_RevB_Projects/src/./include/devices/../interrupt.h:50
    if (mscratch & MCAUSE_INT)
200110ee:	fac42783          	lw	a5,-84(s0)
200110f2:	0207d163          	bgez	a5,20011114 <interrupt_service_routine+0x54>
/home/nicoladgg/wsFreedomStudio/SiFive_HiFive_RevB_Projects/src/./include/devices/../interrupt.h:52
    {
        if (mscratch & MCAUSE_MTI)
200110f6:	fac42783          	lw	a5,-84(s0)
200110fa:	8b9d                	andi	a5,a5,7
200110fc:	c399                	beqz	a5,20011102 <interrupt_service_routine+0x42>
/home/nicoladgg/wsFreedomStudio/SiFive_HiFive_RevB_Projects/src/./include/devices/../interrupt.h:54
        {
            clint_timer_interrupt_handler();
200110fe:	2409                	jal	20011300 <clint_timer_interrupt_handler>
/home/nicoladgg/wsFreedomStudio/SiFive_HiFive_RevB_Projects/src/./include/devices/../interrupt.h:70
                     "lw a3, 8(a0)\n\t"
                     "lw a2, 4(a0)\n\t"
                     "lw a1, 0(a0)\n\t"
                     "csrrw a0, mscratch, a0\n\t"
                     "mret");*/
}
20011100:	a811                	j	20011114 <interrupt_service_routine+0x54>
/home/nicoladgg/wsFreedomStudio/SiFive_HiFive_RevB_Projects/src/./include/devices/../interrupt.h:56
        else if (mscratch & MCAUSE_MSI)
20011102:	fac42783          	lw	a5,-84(s0)
20011106:	8b8d                	andi	a5,a5,3
20011108:	e791                	bnez	a5,20011114 <interrupt_service_routine+0x54>
/home/nicoladgg/wsFreedomStudio/SiFive_HiFive_RevB_Projects/src/./include/devices/../interrupt.h:58
        else if (mscratch & MCAUSE_MEI)
2001110a:	fac42783          	lw	a5,-84(s0)
2001110e:	8bad                	andi	a5,a5,11
20011110:	c391                	beqz	a5,20011114 <interrupt_service_routine+0x54>
/home/nicoladgg/wsFreedomStudio/SiFive_HiFive_RevB_Projects/src/./include/devices/../interrupt.h:60
            plic_interrupt_handler();
20011112:	35bd                	jal	20010f80 <plic_interrupt_handler>
/home/nicoladgg/wsFreedomStudio/SiFive_HiFive_RevB_Projects/src/./include/devices/../interrupt.h:70
}
20011114:	0001                	nop
20011116:	40f6                	lw	ra,92(sp)
20011118:	42e6                	lw	t0,88(sp)
2001111a:	4356                	lw	t1,84(sp)
2001111c:	43c6                	lw	t2,80(sp)
2001111e:	4436                	lw	s0,76(sp)
20011120:	4526                	lw	a0,72(sp)
20011122:	4596                	lw	a1,68(sp)
20011124:	4606                	lw	a2,64(sp)
20011126:	56f2                	lw	a3,60(sp)
20011128:	5762                	lw	a4,56(sp)
2001112a:	57d2                	lw	a5,52(sp)
2001112c:	5842                	lw	a6,48(sp)
2001112e:	58b2                	lw	a7,44(sp)
20011130:	5e22                	lw	t3,40(sp)
20011132:	5e92                	lw	t4,36(sp)
20011134:	5f02                	lw	t5,32(sp)
20011136:	4ff2                	lw	t6,28(sp)
20011138:	6125                	addi	sp,sp,96
2001113a:	30200073          	mret
	...

20011176 <set_freq_320MHz>:
set_freq_320MHz():
/home/nicoladgg/wsFreedomStudio/SiFive_HiFive_RevB_Projects/src/include/cpu_freq.h:34

    cpu_freq = 384000000;
}

void set_freq_320MHz()
{
20011176:	1141                	addi	sp,sp,-16
20011178:	c622                	sw	s0,12(sp)
2001117a:	0800                	addi	s0,sp,16
/home/nicoladgg/wsFreedomStudio/SiFive_HiFive_RevB_Projects/src/include/cpu_freq.h:39
    /* Divide standard frequency by 2 PLL_R = 0b01 = 2,
	 * multiply by 80 PLL_F = 80/2-1 = M/2-1 = 39,
	 * divide by 2 PLL_Q = 1 = 0b01 = 2
	 */
    PRCI_REG(PRCI_PLLCFG) = PLL_R(1) | PLL_F(39) | PLL_Q(0b01) | PLL_REFSEL(1);
2001117c:	100087b7          	lui	a5,0x10008
20011180:	07a1                	addi	a5,a5,8
20011182:	00020737          	lui	a4,0x20
20011186:	67170713          	addi	a4,a4,1649 # 20671 <__heap_size+0x1fe71>
2001118a:	c398                	sw	a4,0(a5)
/home/nicoladgg/wsFreedomStudio/SiFive_HiFive_RevB_Projects/src/include/cpu_freq.h:41

    while (PRCI_REG(PRCI_PLLCFG) & PLL_LOCK(1) == 0)
2001118c:	0001                	nop
2001118e:	100087b7          	lui	a5,0x10008
20011192:	07a1                	addi	a5,a5,8
20011194:	439c                	lw	a5,0(a5)
/home/nicoladgg/wsFreedomStudio/SiFive_HiFive_RevB_Projects/src/include/cpu_freq.h:44
        ;

    PRCI_REG(PRCI_PLLCFG) |= PLL_SEL(1);
20011196:	100087b7          	lui	a5,0x10008
2001119a:	07a1                	addi	a5,a5,8
2001119c:	4394                	lw	a3,0(a5)
2001119e:	100087b7          	lui	a5,0x10008
200111a2:	07a1                	addi	a5,a5,8
200111a4:	6741                	lui	a4,0x10
200111a6:	8f55                	or	a4,a4,a3
200111a8:	c398                	sw	a4,0(a5)
/home/nicoladgg/wsFreedomStudio/SiFive_HiFive_RevB_Projects/src/include/cpu_freq.h:46

    cpu_freq = 320000000;
200111aa:	800007b7          	lui	a5,0x80000
200111ae:	1312d737          	lui	a4,0x1312d
200111b2:	48e7a423          	sw	a4,1160(a5) # 80000488 <__global_pointer$+0xfffff800>
/home/nicoladgg/wsFreedomStudio/SiFive_HiFive_RevB_Projects/src/include/cpu_freq.h:47
}
200111b6:	0001                	nop
200111b8:	4432                	lw	s0,12(sp)
200111ba:	0141                	addi	sp,sp,16
200111bc:	8082                	ret

200111be <rtc_enable>:
rtc_enable():
/home/nicoladgg/wsFreedomStudio/SiFive_HiFive_RevB_Projects/src/include/devices/aon.h:100
void rtc_enable();

void rtc_next_wake_time();

void rtc_enable()
{
200111be:	1141                	addi	sp,sp,-16
200111c0:	c622                	sw	s0,12(sp)
200111c2:	0800                	addi	s0,sp,16
/home/nicoladgg/wsFreedomStudio/SiFive_HiFive_RevB_Projects/src/include/devices/aon.h:101
    AON_REG(AON_RTCCFG) |= AON_RTCCFG_ENALWAYS;
200111c4:	100007b7          	lui	a5,0x10000
200111c8:	04078793          	addi	a5,a5,64 # 10000040 <metal_segment_itim_target_end+0x8000040>
200111cc:	4394                	lw	a3,0(a5)
200111ce:	100007b7          	lui	a5,0x10000
200111d2:	04078793          	addi	a5,a5,64 # 10000040 <metal_segment_itim_target_end+0x8000040>
200111d6:	6705                	lui	a4,0x1
200111d8:	8f55                	or	a4,a4,a3
200111da:	c398                	sw	a4,0(a5)
/home/nicoladgg/wsFreedomStudio/SiFive_HiFive_RevB_Projects/src/include/devices/aon.h:102
}
200111dc:	0001                	nop
200111de:	4432                	lw	s0,12(sp)
200111e0:	0141                	addi	sp,sp,16
200111e2:	8082                	ret

200111e4 <rtc_next_wake_time>:
rtc_next_wake_time():
/home/nicoladgg/wsFreedomStudio/SiFive_HiFive_RevB_Projects/src/include/devices/aon.h:105

void rtc_next_wake_time(uint64_t next)
{
200111e4:	7179                	addi	sp,sp,-48
200111e6:	d622                	sw	s0,44(sp)
200111e8:	1800                	addi	s0,sp,48
200111ea:	fca42c23          	sw	a0,-40(s0)
200111ee:	fcb42e23          	sw	a1,-36(s0)
/home/nicoladgg/wsFreedomStudio/SiFive_HiFive_RevB_Projects/src/include/devices/aon.h:109
	uint64_t time;
	uint32_t mie, mip;

	__asm__ volatile("csrr %0, mie" : "=r"(mie));
200111f2:	304027f3          	csrr	a5,mie
200111f6:	fef42623          	sw	a5,-20(s0)
/home/nicoladgg/wsFreedomStudio/SiFive_HiFive_RevB_Projects/src/include/devices/aon.h:110
	__asm__ volatile("csrr %0, mie" : "=r"(mip));
200111fa:	304027f3          	csrr	a5,mie
200111fe:	fef42423          	sw	a5,-24(s0)
/home/nicoladgg/wsFreedomStudio/SiFive_HiFive_RevB_Projects/src/include/devices/aon.h:112

	mie &= ~(MIE_MTIE);
20011202:	fec42783          	lw	a5,-20(s0)
20011206:	f7f7f793          	andi	a5,a5,-129
2001120a:	fef42623          	sw	a5,-20(s0)
/home/nicoladgg/wsFreedomStudio/SiFive_HiFive_RevB_Projects/src/include/devices/aon.h:113
	mip &= ~(MIE_MTIE);
2001120e:	fe842783          	lw	a5,-24(s0)
20011212:	f7f7f793          	andi	a5,a5,-129
20011216:	fef42423          	sw	a5,-24(s0)
/home/nicoladgg/wsFreedomStudio/SiFive_HiFive_RevB_Projects/src/include/devices/aon.h:115

	__asm__ volatile("csrw mie, %0" : : "r" (mie));
2001121a:	fec42783          	lw	a5,-20(s0)
2001121e:	30479073          	csrw	mie,a5
/home/nicoladgg/wsFreedomStudio/SiFive_HiFive_RevB_Projects/src/include/devices/aon.h:117

	time = *mtime;
20011222:	800007b7          	lui	a5,0x80000
20011226:	4907a783          	lw	a5,1168(a5) # 80000490 <__global_pointer$+0xfffff808>
2001122a:	4398                	lw	a4,0(a5)
2001122c:	43dc                	lw	a5,4(a5)
2001122e:	fee42023          	sw	a4,-32(s0)
20011232:	fef42223          	sw	a5,-28(s0)
/home/nicoladgg/wsFreedomStudio/SiFive_HiFive_RevB_Projects/src/include/devices/aon.h:118
	time += next;
20011236:	fe042603          	lw	a2,-32(s0)
2001123a:	fe442683          	lw	a3,-28(s0)
2001123e:	fd842503          	lw	a0,-40(s0)
20011242:	fdc42583          	lw	a1,-36(s0)
20011246:	00a60733          	add	a4,a2,a0
2001124a:	883a                	mv	a6,a4
2001124c:	00c83833          	sltu	a6,a6,a2
20011250:	00b687b3          	add	a5,a3,a1
20011254:	00f806b3          	add	a3,a6,a5
20011258:	87b6                	mv	a5,a3
2001125a:	fee42023          	sw	a4,-32(s0)
2001125e:	fef42223          	sw	a5,-28(s0)
/home/nicoladgg/wsFreedomStudio/SiFive_HiFive_RevB_Projects/src/include/devices/aon.h:119
	*mtimecmp = time;
20011262:	800007b7          	lui	a5,0x80000
20011266:	48c7a683          	lw	a3,1164(a5) # 8000048c <__global_pointer$+0xfffff804>
2001126a:	fe042703          	lw	a4,-32(s0)
2001126e:	fe442783          	lw	a5,-28(s0)
20011272:	c298                	sw	a4,0(a3)
20011274:	c2dc                	sw	a5,4(a3)
/home/nicoladgg/wsFreedomStudio/SiFive_HiFive_RevB_Projects/src/include/devices/aon.h:121

	mie |= MIE_MTIE;
20011276:	fec42783          	lw	a5,-20(s0)
2001127a:	0807e793          	ori	a5,a5,128
2001127e:	fef42623          	sw	a5,-20(s0)
/home/nicoladgg/wsFreedomStudio/SiFive_HiFive_RevB_Projects/src/include/devices/aon.h:123

	__asm__ volatile("csrw mie, %0" : : "r" (mip));
20011282:	fe842783          	lw	a5,-24(s0)
20011286:	30479073          	csrw	mie,a5
/home/nicoladgg/wsFreedomStudio/SiFive_HiFive_RevB_Projects/src/include/devices/aon.h:124
	__asm__ volatile("csrw mie, %0" : : "r" (mie));
2001128a:	fec42783          	lw	a5,-20(s0)
2001128e:	30479073          	csrw	mie,a5
/home/nicoladgg/wsFreedomStudio/SiFive_HiFive_RevB_Projects/src/include/devices/aon.h:125
}
20011292:	0001                	nop
20011294:	5432                	lw	s0,44(sp)
20011296:	6145                	addi	sp,sp,48
20011298:	8082                	ret

2001129a <main>:
main():
/home/nicoladgg/wsFreedomStudio/SiFive_HiFive_RevB_Projects/src/main.c:19

int taken = 0;


int main (void)
{
2001129a:	1141                	addi	sp,sp,-16
2001129c:	c606                	sw	ra,12(sp)
2001129e:	c422                	sw	s0,8(sp)
200112a0:	0800                	addi	s0,sp,16
/home/nicoladgg/wsFreedomStudio/SiFive_HiFive_RevB_Projects/src/main.c:22
    int rc;

    set_freq_320MHz();
200112a2:	3dd1                	jal	20011176 <set_freq_320MHz>
/home/nicoladgg/wsFreedomStudio/SiFive_HiFive_RevB_Projects/src/main.c:24

    interrupt_enable();
200112a4:	3b7d                	jal	20011062 <interrupt_enable>
/home/nicoladgg/wsFreedomStudio/SiFive_HiFive_RevB_Projects/src/main.c:25
    clint_interrupt_timer_enable();
200112a6:	3b8d                	jal	20011018 <clint_interrupt_timer_enable>
/home/nicoladgg/wsFreedomStudio/SiFive_HiFive_RevB_Projects/src/main.c:27

    rtc_enable();
200112a8:	3f19                	jal	200111be <rtc_enable>
/home/nicoladgg/wsFreedomStudio/SiFive_HiFive_RevB_Projects/src/main.c:29

    GPIO_REG(GPIO_OUTPUT_EN) |= (1 << variant_pin_map[3].bit_pos);
200112aa:	100127b7          	lui	a5,0x10012
200112ae:	07a1                	addi	a5,a5,8
200112b0:	4398                	lw	a4,0(a5)
200112b2:	47cd                	li	a5,19
200112b4:	86be                	mv	a3,a5
200112b6:	4785                	li	a5,1
200112b8:	00d797b3          	sll	a5,a5,a3
200112bc:	86be                	mv	a3,a5
200112be:	100127b7          	lui	a5,0x10012
200112c2:	07a1                	addi	a5,a5,8
200112c4:	8f55                	or	a4,a4,a3
200112c6:	c398                	sw	a4,0(a5)
/home/nicoladgg/wsFreedomStudio/SiFive_HiFive_RevB_Projects/src/main.c:31

    rtc_next_wake_time(RTC_FREQ);
200112c8:	6521                	lui	a0,0x8
200112ca:	4581                	li	a1,0
200112cc:	3f21                	jal	200111e4 <rtc_next_wake_time>
/home/nicoladgg/wsFreedomStudio/SiFive_HiFive_RevB_Projects/src/main.c:35

    while (1)
    {
    	if(taken)
200112ce:	800007b7          	lui	a5,0x80000
200112d2:	4b07a783          	lw	a5,1200(a5) # 800004b0 <__global_pointer$+0xfffff828>
200112d6:	dfe5                	beqz	a5,200112ce <main+0x34>
/home/nicoladgg/wsFreedomStudio/SiFive_HiFive_RevB_Projects/src/main.c:37
    	{
    		GPIO_REG(GPIO_OUTPUT_VAL) ^= (1 << variant_pin_map[3].bit_pos);
200112d8:	100127b7          	lui	a5,0x10012
200112dc:	07b1                	addi	a5,a5,12
200112de:	4398                	lw	a4,0(a5)
200112e0:	47cd                	li	a5,19
200112e2:	86be                	mv	a3,a5
200112e4:	4785                	li	a5,1
200112e6:	00d797b3          	sll	a5,a5,a3
200112ea:	86be                	mv	a3,a5
200112ec:	100127b7          	lui	a5,0x10012
200112f0:	07b1                	addi	a5,a5,12
200112f2:	8f35                	xor	a4,a4,a3
200112f4:	c398                	sw	a4,0(a5)
/home/nicoladgg/wsFreedomStudio/SiFive_HiFive_RevB_Projects/src/main.c:38
    		taken = 0;
200112f6:	800007b7          	lui	a5,0x80000
200112fa:	4a07a823          	sw	zero,1200(a5) # 800004b0 <__global_pointer$+0xfffff828>
/home/nicoladgg/wsFreedomStudio/SiFive_HiFive_RevB_Projects/src/main.c:35
    	if(taken)
200112fe:	bfc1                	j	200112ce <main+0x34>

20011300 <clint_timer_interrupt_handler>:
clint_timer_interrupt_handler():
/home/nicoladgg/wsFreedomStudio/SiFive_HiFive_RevB_Projects/src/main.c:46

    return 0;
}

void clint_timer_interrupt_handler()
{
20011300:	1141                	addi	sp,sp,-16
20011302:	c606                	sw	ra,12(sp)
20011304:	c422                	sw	s0,8(sp)
20011306:	0800                	addi	s0,sp,16
/home/nicoladgg/wsFreedomStudio/SiFive_HiFive_RevB_Projects/src/main.c:47
    rtc_next_wake_time(2 * RTC_FREQ);
20011308:	6541                	lui	a0,0x10
2001130a:	4581                	li	a1,0
2001130c:	3de1                	jal	200111e4 <rtc_next_wake_time>
/home/nicoladgg/wsFreedomStudio/SiFive_HiFive_RevB_Projects/src/main.c:48
    taken = 1;
2001130e:	800007b7          	lui	a5,0x80000
20011312:	4705                	li	a4,1
20011314:	4ae7a823          	sw	a4,1200(a5) # 800004b0 <__global_pointer$+0xfffff828>
/home/nicoladgg/wsFreedomStudio/SiFive_HiFive_RevB_Projects/src/main.c:49
}
20011318:	0001                	nop
2001131a:	40b2                	lw	ra,12(sp)
2001131c:	4422                	lw	s0,8(sp)
2001131e:	0141                	addi	sp,sp,16
20011320:	8082                	ret

20011322 <__subdf3>:
__subdf3():
/home/scratch/jenkins/workspace/tpp-freedom-tools/tpp04--build-binary-packages--parameterized/obj/x86_64-linux-centos6/build/riscv64-unknown-elf-gcc/build-gcc-stage2/riscv64-unknown-elf/rv32imac/ilp32/libgcc/../../../../../riscv-gcc/libgcc/soft-fp/subdf3.c:44
20011322:	00100837          	lui	a6,0x100
20011326:	187d                	addi	a6,a6,-1
/home/scratch/jenkins/workspace/tpp-freedom-tools/tpp04--build-binary-packages--parameterized/obj/x86_64-linux-centos6/build/riscv64-unknown-elf-gcc/build-gcc-stage2/riscv64-unknown-elf/rv32imac/ilp32/libgcc/../../../../../riscv-gcc/libgcc/soft-fp/subdf3.c:36
20011328:	1101                	addi	sp,sp,-32
/home/scratch/jenkins/workspace/tpp-freedom-tools/tpp04--build-binary-packages--parameterized/obj/x86_64-linux-centos6/build/riscv64-unknown-elf-gcc/build-gcc-stage2/riscv64-unknown-elf/rv32imac/ilp32/libgcc/../../../../../riscv-gcc/libgcc/soft-fp/subdf3.c:44
2001132a:	00b877b3          	and	a5,a6,a1
2001132e:	0145d713          	srli	a4,a1,0x14
/home/scratch/jenkins/workspace/tpp-freedom-tools/tpp04--build-binary-packages--parameterized/obj/x86_64-linux-centos6/build/riscv64-unknown-elf-gcc/build-gcc-stage2/riscv64-unknown-elf/rv32imac/ilp32/libgcc/../../../../../riscv-gcc/libgcc/soft-fp/subdf3.c:45
20011332:	00d87833          	and	a6,a6,a3
20011336:	0146d313          	srli	t1,a3,0x14
/home/scratch/jenkins/workspace/tpp-freedom-tools/tpp04--build-binary-packages--parameterized/obj/x86_64-linux-centos6/build/riscv64-unknown-elf-gcc/build-gcc-stage2/riscv64-unknown-elf/rv32imac/ilp32/libgcc/../../../../../riscv-gcc/libgcc/soft-fp/subdf3.c:36
2001133a:	cc22                	sw	s0,24(sp)
/home/scratch/jenkins/workspace/tpp-freedom-tools/tpp04--build-binary-packages--parameterized/obj/x86_64-linux-centos6/build/riscv64-unknown-elf-gcc/build-gcc-stage2/riscv64-unknown-elf/rv32imac/ilp32/libgcc/../../../../../riscv-gcc/libgcc/soft-fp/subdf3.c:44
2001133c:	078e                	slli	a5,a5,0x3
2001133e:	7ff77413          	andi	s0,a4,2047
20011342:	01d55713          	srli	a4,a0,0x1d
/home/scratch/jenkins/workspace/tpp-freedom-tools/tpp04--build-binary-packages--parameterized/obj/x86_64-linux-centos6/build/riscv64-unknown-elf-gcc/build-gcc-stage2/riscv64-unknown-elf/rv32imac/ilp32/libgcc/../../../../../riscv-gcc/libgcc/soft-fp/subdf3.c:36
20011346:	ca26                	sw	s1,20(sp)
/home/scratch/jenkins/workspace/tpp-freedom-tools/tpp04--build-binary-packages--parameterized/obj/x86_64-linux-centos6/build/riscv64-unknown-elf-gcc/build-gcc-stage2/riscv64-unknown-elf/rv32imac/ilp32/libgcc/../../../../../riscv-gcc/libgcc/soft-fp/subdf3.c:44
20011348:	8fd9                	or	a5,a5,a4
2001134a:	01f5d493          	srli	s1,a1,0x1f
/home/scratch/jenkins/workspace/tpp-freedom-tools/tpp04--build-binary-packages--parameterized/obj/x86_64-linux-centos6/build/riscv64-unknown-elf-gcc/build-gcc-stage2/riscv64-unknown-elf/rv32imac/ilp32/libgcc/../../../../../riscv-gcc/libgcc/soft-fp/subdf3.c:45
2001134e:	01d65713          	srli	a4,a2,0x1d
/home/scratch/jenkins/workspace/tpp-freedom-tools/tpp04--build-binary-packages--parameterized/obj/x86_64-linux-centos6/build/riscv64-unknown-elf-gcc/build-gcc-stage2/riscv64-unknown-elf/rv32imac/ilp32/libgcc/../../../../../riscv-gcc/libgcc/soft-fp/subdf3.c:44
20011352:	00351593          	slli	a1,a0,0x3
/home/scratch/jenkins/workspace/tpp-freedom-tools/tpp04--build-binary-packages--parameterized/obj/x86_64-linux-centos6/build/riscv64-unknown-elf-gcc/build-gcc-stage2/riscv64-unknown-elf/rv32imac/ilp32/libgcc/../../../../../riscv-gcc/libgcc/soft-fp/subdf3.c:45
20011356:	080e                	slli	a6,a6,0x3
/home/scratch/jenkins/workspace/tpp-freedom-tools/tpp04--build-binary-packages--parameterized/obj/x86_64-linux-centos6/build/riscv64-unknown-elf-gcc/build-gcc-stage2/riscv64-unknown-elf/rv32imac/ilp32/libgcc/../../../../../riscv-gcc/libgcc/soft-fp/subdf3.c:36
20011358:	ce06                	sw	ra,28(sp)
2001135a:	c84a                	sw	s2,16(sp)
2001135c:	c64e                	sw	s3,12(sp)
/home/scratch/jenkins/workspace/tpp-freedom-tools/tpp04--build-binary-packages--parameterized/obj/x86_64-linux-centos6/build/riscv64-unknown-elf-gcc/build-gcc-stage2/riscv64-unknown-elf/rv32imac/ilp32/libgcc/../../../../../riscv-gcc/libgcc/soft-fp/subdf3.c:45
2001135e:	7ff37313          	andi	t1,t1,2047
/home/scratch/jenkins/workspace/tpp-freedom-tools/tpp04--build-binary-packages--parameterized/obj/x86_64-linux-centos6/build/riscv64-unknown-elf-gcc/build-gcc-stage2/riscv64-unknown-elf/rv32imac/ilp32/libgcc/../../../../../riscv-gcc/libgcc/soft-fp/subdf3.c:46
20011362:	7ff00513          	li	a0,2047
/home/scratch/jenkins/workspace/tpp-freedom-tools/tpp04--build-binary-packages--parameterized/obj/x86_64-linux-centos6/build/riscv64-unknown-elf-gcc/build-gcc-stage2/riscv64-unknown-elf/rv32imac/ilp32/libgcc/../../../../../riscv-gcc/libgcc/soft-fp/subdf3.c:45
20011366:	82fd                	srli	a3,a3,0x1f
20011368:	01076733          	or	a4,a4,a6
2001136c:	060e                	slli	a2,a2,0x3
/home/scratch/jenkins/workspace/tpp-freedom-tools/tpp04--build-binary-packages--parameterized/obj/x86_64-linux-centos6/build/riscv64-unknown-elf-gcc/build-gcc-stage2/riscv64-unknown-elf/rv32imac/ilp32/libgcc/../../../../../riscv-gcc/libgcc/soft-fp/subdf3.c:46
2001136e:	00a31563          	bne	t1,a0,20011378 <__subdf3+0x56>
/home/scratch/jenkins/workspace/tpp-freedom-tools/tpp04--build-binary-packages--parameterized/obj/x86_64-linux-centos6/build/riscv64-unknown-elf-gcc/build-gcc-stage2/riscv64-unknown-elf/rv32imac/ilp32/libgcc/../../../../../riscv-gcc/libgcc/soft-fp/subdf3.c:46 (discriminator 2)
20011372:	00c76533          	or	a0,a4,a2
20011376:	e119                	bnez	a0,2001137c <__subdf3+0x5a>
/home/scratch/jenkins/workspace/tpp-freedom-tools/tpp04--build-binary-packages--parameterized/obj/x86_64-linux-centos6/build/riscv64-unknown-elf-gcc/build-gcc-stage2/riscv64-unknown-elf/rv32imac/ilp32/libgcc/../../../../../riscv-gcc/libgcc/soft-fp/subdf3.c:46 (discriminator 3)
20011378:	0016c693          	xori	a3,a3,1
/home/scratch/jenkins/workspace/tpp-freedom-tools/tpp04--build-binary-packages--parameterized/obj/x86_64-linux-centos6/build/riscv64-unknown-elf-gcc/build-gcc-stage2/riscv64-unknown-elf/rv32imac/ilp32/libgcc/../../../../../riscv-gcc/libgcc/soft-fp/subdf3.c:46 (discriminator 11)
2001137c:	40640833          	sub	a6,s0,t1
20011380:	22969863          	bne	a3,s1,200115b0 <__subdf3+0x28e>
/home/scratch/jenkins/workspace/tpp-freedom-tools/tpp04--build-binary-packages--parameterized/obj/x86_64-linux-centos6/build/riscv64-unknown-elf-gcc/build-gcc-stage2/riscv64-unknown-elf/rv32imac/ilp32/libgcc/../../../../../riscv-gcc/libgcc/soft-fp/subdf3.c:46 (discriminator 12)
20011384:	0f005363          	blez	a6,2001146a <__subdf3+0x148>
/home/scratch/jenkins/workspace/tpp-freedom-tools/tpp04--build-binary-packages--parameterized/obj/x86_64-linux-centos6/build/riscv64-unknown-elf-gcc/build-gcc-stage2/riscv64-unknown-elf/rv32imac/ilp32/libgcc/../../../../../riscv-gcc/libgcc/soft-fp/subdf3.c:46 (discriminator 14)
20011388:	02031863          	bnez	t1,200113b8 <__subdf3+0x96>
/home/scratch/jenkins/workspace/tpp-freedom-tools/tpp04--build-binary-packages--parameterized/obj/x86_64-linux-centos6/build/riscv64-unknown-elf-gcc/build-gcc-stage2/riscv64-unknown-elf/rv32imac/ilp32/libgcc/../../../../../riscv-gcc/libgcc/soft-fp/subdf3.c:46 (discriminator 16)
2001138c:	00c766b3          	or	a3,a4,a2
20011390:	58068163          	beqz	a3,20011912 <__subdf3+0x5f0>
/home/scratch/jenkins/workspace/tpp-freedom-tools/tpp04--build-binary-packages--parameterized/obj/x86_64-linux-centos6/build/riscv64-unknown-elf-gcc/build-gcc-stage2/riscv64-unknown-elf/rv32imac/ilp32/libgcc/../../../../../riscv-gcc/libgcc/soft-fp/subdf3.c:46 (discriminator 19)
20011394:	fff80513          	addi	a0,a6,-1 # fffff <__heap_size+0xff7ff>
20011398:	e909                	bnez	a0,200113aa <__subdf3+0x88>
/home/scratch/jenkins/workspace/tpp-freedom-tools/tpp04--build-binary-packages--parameterized/obj/x86_64-linux-centos6/build/riscv64-unknown-elf-gcc/build-gcc-stage2/riscv64-unknown-elf/rv32imac/ilp32/libgcc/../../../../../riscv-gcc/libgcc/soft-fp/subdf3.c:46 (discriminator 28)
2001139a:	962e                	add	a2,a2,a1
2001139c:	00b63533          	sltu	a0,a2,a1
200113a0:	97ba                	add	a5,a5,a4
200113a2:	97aa                	add	a5,a5,a0
200113a4:	85b2                	mv	a1,a2
/home/scratch/jenkins/workspace/tpp-freedom-tools/tpp04--build-binary-packages--parameterized/obj/x86_64-linux-centos6/build/riscv64-unknown-elf-gcc/build-gcc-stage2/riscv64-unknown-elf/rv32imac/ilp32/libgcc/../../../../../riscv-gcc/libgcc/soft-fp/subdf3.c:45 (discriminator 85)
200113a6:	4405                	li	s0,1
/home/scratch/jenkins/workspace/tpp-freedom-tools/tpp04--build-binary-packages--parameterized/obj/x86_64-linux-centos6/build/riscv64-unknown-elf-gcc/build-gcc-stage2/riscv64-unknown-elf/rv32imac/ilp32/libgcc/../../../../../riscv-gcc/libgcc/soft-fp/subdf3.c:46 (discriminator 85)
200113a8:	a8b9                	j	20011406 <__subdf3+0xe4>
/home/scratch/jenkins/workspace/tpp-freedom-tools/tpp04--build-binary-packages--parameterized/obj/x86_64-linux-centos6/build/riscv64-unknown-elf-gcc/build-gcc-stage2/riscv64-unknown-elf/rv32imac/ilp32/libgcc/../../../../../riscv-gcc/libgcc/soft-fp/subdf3.c:46 (discriminator 29)
200113aa:	7ff00693          	li	a3,2047
200113ae:	00d81d63          	bne	a6,a3,200113c8 <__subdf3+0xa6>
/home/scratch/jenkins/workspace/tpp-freedom-tools/tpp04--build-binary-packages--parameterized/obj/x86_64-linux-centos6/build/riscv64-unknown-elf-gcc/build-gcc-stage2/riscv64-unknown-elf/rv32imac/ilp32/libgcc/../../../../../riscv-gcc/libgcc/soft-fp/subdf3.c:46
200113b2:	7ff00413          	li	s0,2047
200113b6:	a24d                	j	20011558 <__subdf3+0x236>
/home/scratch/jenkins/workspace/tpp-freedom-tools/tpp04--build-binary-packages--parameterized/obj/x86_64-linux-centos6/build/riscv64-unknown-elf-gcc/build-gcc-stage2/riscv64-unknown-elf/rv32imac/ilp32/libgcc/../../../../../riscv-gcc/libgcc/soft-fp/subdf3.c:46 (discriminator 17)
200113b8:	7ff00693          	li	a3,2047
200113bc:	18d40e63          	beq	s0,a3,20011558 <__subdf3+0x236>
/home/scratch/jenkins/workspace/tpp-freedom-tools/tpp04--build-binary-packages--parameterized/obj/x86_64-linux-centos6/build/riscv64-unknown-elf-gcc/build-gcc-stage2/riscv64-unknown-elf/rv32imac/ilp32/libgcc/../../../../../riscv-gcc/libgcc/soft-fp/subdf3.c:46 (discriminator 43)
200113c0:	008006b7          	lui	a3,0x800
200113c4:	8f55                	or	a4,a4,a3
200113c6:	8542                	mv	a0,a6
/home/scratch/jenkins/workspace/tpp-freedom-tools/tpp04--build-binary-packages--parameterized/obj/x86_64-linux-centos6/build/riscv64-unknown-elf-gcc/build-gcc-stage2/riscv64-unknown-elf/rv32imac/ilp32/libgcc/../../../../../riscv-gcc/libgcc/soft-fp/subdf3.c:46 (discriminator 52)
200113c8:	03800693          	li	a3,56
200113cc:	08a6cb63          	blt	a3,a0,20011462 <__subdf3+0x140>
/home/scratch/jenkins/workspace/tpp-freedom-tools/tpp04--build-binary-packages--parameterized/obj/x86_64-linux-centos6/build/riscv64-unknown-elf-gcc/build-gcc-stage2/riscv64-unknown-elf/rv32imac/ilp32/libgcc/../../../../../riscv-gcc/libgcc/soft-fp/subdf3.c:46 (discriminator 53)
200113d0:	46fd                	li	a3,31
200113d2:	06a6c263          	blt	a3,a0,20011436 <__subdf3+0x114>
/home/scratch/jenkins/workspace/tpp-freedom-tools/tpp04--build-binary-packages--parameterized/obj/x86_64-linux-centos6/build/riscv64-unknown-elf-gcc/build-gcc-stage2/riscv64-unknown-elf/rv32imac/ilp32/libgcc/../../../../../riscv-gcc/libgcc/soft-fp/subdf3.c:46 (discriminator 55)
200113d6:	02000813          	li	a6,32
200113da:	40a80833          	sub	a6,a6,a0
200113de:	010716b3          	sll	a3,a4,a6
200113e2:	00a658b3          	srl	a7,a2,a0
200113e6:	01061633          	sll	a2,a2,a6
200113ea:	0116e6b3          	or	a3,a3,a7
200113ee:	00c03633          	snez	a2,a2
200113f2:	8e55                	or	a2,a2,a3
200113f4:	00a75733          	srl	a4,a4,a0
/home/scratch/jenkins/workspace/tpp-freedom-tools/tpp04--build-binary-packages--parameterized/obj/x86_64-linux-centos6/build/riscv64-unknown-elf-gcc/build-gcc-stage2/riscv64-unknown-elf/rv32imac/ilp32/libgcc/../../../../../riscv-gcc/libgcc/soft-fp/subdf3.c:46 (discriminator 69)
200113f8:	962e                	add	a2,a2,a1
200113fa:	00b63533          	sltu	a0,a2,a1
200113fe:	973e                	add	a4,a4,a5
20011400:	00a707b3          	add	a5,a4,a0
20011404:	85b2                	mv	a1,a2
/home/scratch/jenkins/workspace/tpp-freedom-tools/tpp04--build-binary-packages--parameterized/obj/x86_64-linux-centos6/build/riscv64-unknown-elf-gcc/build-gcc-stage2/riscv64-unknown-elf/rv32imac/ilp32/libgcc/../../../../../riscv-gcc/libgcc/soft-fp/subdf3.c:46 (discriminator 127)
20011406:	00800737          	lui	a4,0x800
2001140a:	8f7d                	and	a4,a4,a5
2001140c:	14070663          	beqz	a4,20011558 <__subdf3+0x236>
/home/scratch/jenkins/workspace/tpp-freedom-tools/tpp04--build-binary-packages--parameterized/obj/x86_64-linux-centos6/build/riscv64-unknown-elf-gcc/build-gcc-stage2/riscv64-unknown-elf/rv32imac/ilp32/libgcc/../../../../../riscv-gcc/libgcc/soft-fp/subdf3.c:46 (discriminator 187)
20011410:	0405                	addi	s0,s0,1
20011412:	7ff00713          	li	a4,2047
20011416:	48e40b63          	beq	s0,a4,200118ac <__subdf3+0x58a>
/home/scratch/jenkins/workspace/tpp-freedom-tools/tpp04--build-binary-packages--parameterized/obj/x86_64-linux-centos6/build/riscv64-unknown-elf-gcc/build-gcc-stage2/riscv64-unknown-elf/rv32imac/ilp32/libgcc/../../../../../riscv-gcc/libgcc/soft-fp/subdf3.c:46
2001141a:	ff800737          	lui	a4,0xff800
2001141e:	177d                	addi	a4,a4,-1
20011420:	8ff9                	and	a5,a5,a4
20011422:	0015f513          	andi	a0,a1,1
20011426:	0015d713          	srli	a4,a1,0x1
2001142a:	8d59                	or	a0,a0,a4
2001142c:	01f79593          	slli	a1,a5,0x1f
20011430:	8dc9                	or	a1,a1,a0
20011432:	8385                	srli	a5,a5,0x1
20011434:	a215                	j	20011558 <__subdf3+0x236>
/home/scratch/jenkins/workspace/tpp-freedom-tools/tpp04--build-binary-packages--parameterized/obj/x86_64-linux-centos6/build/riscv64-unknown-elf-gcc/build-gcc-stage2/riscv64-unknown-elf/rv32imac/ilp32/libgcc/../../../../../riscv-gcc/libgcc/soft-fp/subdf3.c:46 (discriminator 56)
20011436:	fe050693          	addi	a3,a0,-32 # ffe0 <__heap_size+0xf7e0>
2001143a:	02000893          	li	a7,32
2001143e:	00d756b3          	srl	a3,a4,a3
20011442:	4801                	li	a6,0
20011444:	01150863          	beq	a0,a7,20011454 <__subdf3+0x132>
/home/scratch/jenkins/workspace/tpp-freedom-tools/tpp04--build-binary-packages--parameterized/obj/x86_64-linux-centos6/build/riscv64-unknown-elf-gcc/build-gcc-stage2/riscv64-unknown-elf/rv32imac/ilp32/libgcc/../../../../../riscv-gcc/libgcc/soft-fp/subdf3.c:46 (discriminator 63)
20011448:	04000813          	li	a6,64
2001144c:	40a80533          	sub	a0,a6,a0
20011450:	00a71833          	sll	a6,a4,a0
/home/scratch/jenkins/workspace/tpp-freedom-tools/tpp04--build-binary-packages--parameterized/obj/x86_64-linux-centos6/build/riscv64-unknown-elf-gcc/build-gcc-stage2/riscv64-unknown-elf/rv32imac/ilp32/libgcc/../../../../../riscv-gcc/libgcc/soft-fp/subdf3.c:46 (discriminator 66)
20011454:	00c86633          	or	a2,a6,a2
20011458:	00c03633          	snez	a2,a2
2001145c:	8e55                	or	a2,a2,a3
/home/scratch/jenkins/workspace/tpp-freedom-tools/tpp04--build-binary-packages--parameterized/obj/x86_64-linux-centos6/build/riscv64-unknown-elf-gcc/build-gcc-stage2/riscv64-unknown-elf/rv32imac/ilp32/libgcc/../../../../../riscv-gcc/libgcc/soft-fp/subdf3.c:46 (discriminator 54)
2001145e:	4701                	li	a4,0
20011460:	bf61                	j	200113f8 <__subdf3+0xd6>
20011462:	8e59                	or	a2,a2,a4
20011464:	00c03633          	snez	a2,a2
20011468:	bfdd                	j	2001145e <__subdf3+0x13c>
/home/scratch/jenkins/workspace/tpp-freedom-tools/tpp04--build-binary-packages--parameterized/obj/x86_64-linux-centos6/build/riscv64-unknown-elf-gcc/build-gcc-stage2/riscv64-unknown-elf/rv32imac/ilp32/libgcc/../../../../../riscv-gcc/libgcc/soft-fp/subdf3.c:46 (discriminator 15)
2001146a:	0a080b63          	beqz	a6,20011520 <__subdf3+0x1fe>
/home/scratch/jenkins/workspace/tpp-freedom-tools/tpp04--build-binary-packages--parameterized/obj/x86_64-linux-centos6/build/riscv64-unknown-elf-gcc/build-gcc-stage2/riscv64-unknown-elf/rv32imac/ilp32/libgcc/../../../../../riscv-gcc/libgcc/soft-fp/subdf3.c:46 (discriminator 71)
2001146e:	40830533          	sub	a0,t1,s0
20011472:	e40d                	bnez	s0,2001149c <__subdf3+0x17a>
/home/scratch/jenkins/workspace/tpp-freedom-tools/tpp04--build-binary-packages--parameterized/obj/x86_64-linux-centos6/build/riscv64-unknown-elf-gcc/build-gcc-stage2/riscv64-unknown-elf/rv32imac/ilp32/libgcc/../../../../../riscv-gcc/libgcc/soft-fp/subdf3.c:46 (discriminator 73)
20011474:	00b7e6b3          	or	a3,a5,a1
20011478:	42068163          	beqz	a3,2001189a <__subdf3+0x578>
/home/scratch/jenkins/workspace/tpp-freedom-tools/tpp04--build-binary-packages--parameterized/obj/x86_64-linux-centos6/build/riscv64-unknown-elf-gcc/build-gcc-stage2/riscv64-unknown-elf/rv32imac/ilp32/libgcc/../../../../../riscv-gcc/libgcc/soft-fp/subdf3.c:46 (discriminator 76)
2001147c:	fff50693          	addi	a3,a0,-1
20011480:	e699                	bnez	a3,2001148e <__subdf3+0x16c>
/home/scratch/jenkins/workspace/tpp-freedom-tools/tpp04--build-binary-packages--parameterized/obj/x86_64-linux-centos6/build/riscv64-unknown-elf-gcc/build-gcc-stage2/riscv64-unknown-elf/rv32imac/ilp32/libgcc/../../../../../riscv-gcc/libgcc/soft-fp/subdf3.c:46 (discriminator 85)
20011482:	95b2                	add	a1,a1,a2
20011484:	97ba                	add	a5,a5,a4
20011486:	00c5b633          	sltu	a2,a1,a2
2001148a:	97b2                	add	a5,a5,a2
2001148c:	bf29                	j	200113a6 <__subdf3+0x84>
/home/scratch/jenkins/workspace/tpp-freedom-tools/tpp04--build-binary-packages--parameterized/obj/x86_64-linux-centos6/build/riscv64-unknown-elf-gcc/build-gcc-stage2/riscv64-unknown-elf/rv32imac/ilp32/libgcc/../../../../../riscv-gcc/libgcc/soft-fp/subdf3.c:46 (discriminator 86)
2001148e:	7ff00813          	li	a6,2047
20011492:	01051d63          	bne	a0,a6,200114ac <__subdf3+0x18a>
/home/scratch/jenkins/workspace/tpp-freedom-tools/tpp04--build-binary-packages--parameterized/obj/x86_64-linux-centos6/build/riscv64-unknown-elf-gcc/build-gcc-stage2/riscv64-unknown-elf/rv32imac/ilp32/libgcc/../../../../../riscv-gcc/libgcc/soft-fp/subdf3.c:45
20011496:	87ba                	mv	a5,a4
20011498:	85b2                	mv	a1,a2
2001149a:	bf21                	j	200113b2 <__subdf3+0x90>
/home/scratch/jenkins/workspace/tpp-freedom-tools/tpp04--build-binary-packages--parameterized/obj/x86_64-linux-centos6/build/riscv64-unknown-elf-gcc/build-gcc-stage2/riscv64-unknown-elf/rv32imac/ilp32/libgcc/../../../../../riscv-gcc/libgcc/soft-fp/subdf3.c:46 (discriminator 74)
2001149c:	7ff00693          	li	a3,2047
200114a0:	fed30be3          	beq	t1,a3,20011496 <__subdf3+0x174>
/home/scratch/jenkins/workspace/tpp-freedom-tools/tpp04--build-binary-packages--parameterized/obj/x86_64-linux-centos6/build/riscv64-unknown-elf-gcc/build-gcc-stage2/riscv64-unknown-elf/rv32imac/ilp32/libgcc/../../../../../riscv-gcc/libgcc/soft-fp/subdf3.c:46 (discriminator 100)
200114a4:	008006b7          	lui	a3,0x800
200114a8:	8fd5                	or	a5,a5,a3
200114aa:	86aa                	mv	a3,a0
/home/scratch/jenkins/workspace/tpp-freedom-tools/tpp04--build-binary-packages--parameterized/obj/x86_64-linux-centos6/build/riscv64-unknown-elf-gcc/build-gcc-stage2/riscv64-unknown-elf/rv32imac/ilp32/libgcc/../../../../../riscv-gcc/libgcc/soft-fp/subdf3.c:46 (discriminator 109)
200114ac:	03800513          	li	a0,56
200114b0:	06d54363          	blt	a0,a3,20011516 <__subdf3+0x1f4>
/home/scratch/jenkins/workspace/tpp-freedom-tools/tpp04--build-binary-packages--parameterized/obj/x86_64-linux-centos6/build/riscv64-unknown-elf-gcc/build-gcc-stage2/riscv64-unknown-elf/rv32imac/ilp32/libgcc/../../../../../riscv-gcc/libgcc/soft-fp/subdf3.c:46 (discriminator 110)
200114b4:	457d                	li	a0,31
200114b6:	02d54b63          	blt	a0,a3,200114ec <__subdf3+0x1ca>
/home/scratch/jenkins/workspace/tpp-freedom-tools/tpp04--build-binary-packages--parameterized/obj/x86_64-linux-centos6/build/riscv64-unknown-elf-gcc/build-gcc-stage2/riscv64-unknown-elf/rv32imac/ilp32/libgcc/../../../../../riscv-gcc/libgcc/soft-fp/subdf3.c:46 (discriminator 112)
200114ba:	02000813          	li	a6,32
200114be:	40d80833          	sub	a6,a6,a3
200114c2:	01079533          	sll	a0,a5,a6
200114c6:	00d5d8b3          	srl	a7,a1,a3
200114ca:	010595b3          	sll	a1,a1,a6
200114ce:	01156533          	or	a0,a0,a7
200114d2:	00b035b3          	snez	a1,a1
200114d6:	8d4d                	or	a0,a0,a1
200114d8:	00d7d7b3          	srl	a5,a5,a3
/home/scratch/jenkins/workspace/tpp-freedom-tools/tpp04--build-binary-packages--parameterized/obj/x86_64-linux-centos6/build/riscv64-unknown-elf-gcc/build-gcc-stage2/riscv64-unknown-elf/rv32imac/ilp32/libgcc/../../../../../riscv-gcc/libgcc/soft-fp/subdf3.c:46 (discriminator 126)
200114dc:	00c505b3          	add	a1,a0,a2
200114e0:	97ba                	add	a5,a5,a4
200114e2:	00c5b633          	sltu	a2,a1,a2
200114e6:	97b2                	add	a5,a5,a2
/home/scratch/jenkins/workspace/tpp-freedom-tools/tpp04--build-binary-packages--parameterized/obj/x86_64-linux-centos6/build/riscv64-unknown-elf-gcc/build-gcc-stage2/riscv64-unknown-elf/rv32imac/ilp32/libgcc/../../../../../riscv-gcc/libgcc/soft-fp/subdf3.c:45 (discriminator 126)
200114e8:	841a                	mv	s0,t1
200114ea:	bf31                	j	20011406 <__subdf3+0xe4>
/home/scratch/jenkins/workspace/tpp-freedom-tools/tpp04--build-binary-packages--parameterized/obj/x86_64-linux-centos6/build/riscv64-unknown-elf-gcc/build-gcc-stage2/riscv64-unknown-elf/rv32imac/ilp32/libgcc/../../../../../riscv-gcc/libgcc/soft-fp/subdf3.c:46 (discriminator 113)
200114ec:	fe068513          	addi	a0,a3,-32 # 7fffe0 <__heap_size+0x7ff7e0>
200114f0:	02000893          	li	a7,32
200114f4:	00a7d833          	srl	a6,a5,a0
200114f8:	4501                	li	a0,0
200114fa:	01168763          	beq	a3,a7,20011508 <__subdf3+0x1e6>
/home/scratch/jenkins/workspace/tpp-freedom-tools/tpp04--build-binary-packages--parameterized/obj/x86_64-linux-centos6/build/riscv64-unknown-elf-gcc/build-gcc-stage2/riscv64-unknown-elf/rv32imac/ilp32/libgcc/../../../../../riscv-gcc/libgcc/soft-fp/subdf3.c:46 (discriminator 120)
200114fe:	04000513          	li	a0,64
20011502:	8d15                	sub	a0,a0,a3
20011504:	00a79533          	sll	a0,a5,a0
/home/scratch/jenkins/workspace/tpp-freedom-tools/tpp04--build-binary-packages--parameterized/obj/x86_64-linux-centos6/build/riscv64-unknown-elf-gcc/build-gcc-stage2/riscv64-unknown-elf/rv32imac/ilp32/libgcc/../../../../../riscv-gcc/libgcc/soft-fp/subdf3.c:46 (discriminator 123)
20011508:	8d4d                	or	a0,a0,a1
2001150a:	00a03533          	snez	a0,a0
2001150e:	00a86533          	or	a0,a6,a0
/home/scratch/jenkins/workspace/tpp-freedom-tools/tpp04--build-binary-packages--parameterized/obj/x86_64-linux-centos6/build/riscv64-unknown-elf-gcc/build-gcc-stage2/riscv64-unknown-elf/rv32imac/ilp32/libgcc/../../../../../riscv-gcc/libgcc/soft-fp/subdf3.c:46 (discriminator 111)
20011512:	4781                	li	a5,0
20011514:	b7e1                	j	200114dc <__subdf3+0x1ba>
20011516:	00b7e533          	or	a0,a5,a1
2001151a:	00a03533          	snez	a0,a0
2001151e:	bfd5                	j	20011512 <__subdf3+0x1f0>
/home/scratch/jenkins/workspace/tpp-freedom-tools/tpp04--build-binary-packages--parameterized/obj/x86_64-linux-centos6/build/riscv64-unknown-elf-gcc/build-gcc-stage2/riscv64-unknown-elf/rv32imac/ilp32/libgcc/../../../../../riscv-gcc/libgcc/soft-fp/subdf3.c:46 (discriminator 72)
20011520:	00140693          	addi	a3,s0,1
20011524:	7fe6f513          	andi	a0,a3,2046
20011528:	e13d                	bnez	a0,2001158e <__subdf3+0x26c>
/home/scratch/jenkins/workspace/tpp-freedom-tools/tpp04--build-binary-packages--parameterized/obj/x86_64-linux-centos6/build/riscv64-unknown-elf-gcc/build-gcc-stage2/riscv64-unknown-elf/rv32imac/ilp32/libgcc/../../../../../riscv-gcc/libgcc/soft-fp/subdf3.c:46 (discriminator 128)
2001152a:	00b7e6b3          	or	a3,a5,a1
2001152e:	e429                	bnez	s0,20011578 <__subdf3+0x256>
/home/scratch/jenkins/workspace/tpp-freedom-tools/tpp04--build-binary-packages--parameterized/obj/x86_64-linux-centos6/build/riscv64-unknown-elf-gcc/build-gcc-stage2/riscv64-unknown-elf/rv32imac/ilp32/libgcc/../../../../../riscv-gcc/libgcc/soft-fp/subdf3.c:46 (discriminator 130)
20011530:	36068963          	beqz	a3,200118a2 <__subdf3+0x580>
/home/scratch/jenkins/workspace/tpp-freedom-tools/tpp04--build-binary-packages--parameterized/obj/x86_64-linux-centos6/build/riscv64-unknown-elf-gcc/build-gcc-stage2/riscv64-unknown-elf/rv32imac/ilp32/libgcc/../../../../../riscv-gcc/libgcc/soft-fp/subdf3.c:46 (discriminator 133)
20011534:	00c766b3          	or	a3,a4,a2
20011538:	c285                	beqz	a3,20011558 <__subdf3+0x236>
/home/scratch/jenkins/workspace/tpp-freedom-tools/tpp04--build-binary-packages--parameterized/obj/x86_64-linux-centos6/build/riscv64-unknown-elf-gcc/build-gcc-stage2/riscv64-unknown-elf/rv32imac/ilp32/libgcc/../../../../../riscv-gcc/libgcc/soft-fp/subdf3.c:46 (discriminator 139)
2001153a:	962e                	add	a2,a2,a1
2001153c:	97ba                	add	a5,a5,a4
2001153e:	00b63533          	sltu	a0,a2,a1
20011542:	97aa                	add	a5,a5,a0
20011544:	00800737          	lui	a4,0x800
20011548:	8f7d                	and	a4,a4,a5
2001154a:	85b2                	mv	a1,a2
2001154c:	c711                	beqz	a4,20011558 <__subdf3+0x236>
/home/scratch/jenkins/workspace/tpp-freedom-tools/tpp04--build-binary-packages--parameterized/obj/x86_64-linux-centos6/build/riscv64-unknown-elf-gcc/build-gcc-stage2/riscv64-unknown-elf/rv32imac/ilp32/libgcc/../../../../../riscv-gcc/libgcc/soft-fp/subdf3.c:46 (discriminator 141)
2001154e:	ff800737          	lui	a4,0xff800
20011552:	177d                	addi	a4,a4,-1
20011554:	8ff9                	and	a5,a5,a4
20011556:	4405                	li	s0,1
/home/scratch/jenkins/workspace/tpp-freedom-tools/tpp04--build-binary-packages--parameterized/obj/x86_64-linux-centos6/build/riscv64-unknown-elf-gcc/build-gcc-stage2/riscv64-unknown-elf/rv32imac/ilp32/libgcc/../../../../../riscv-gcc/libgcc/soft-fp/subdf3.c:47 (discriminator 426)
20011558:	0075f713          	andi	a4,a1,7
2001155c:	34070a63          	beqz	a4,200118b0 <__subdf3+0x58e>
/home/scratch/jenkins/workspace/tpp-freedom-tools/tpp04--build-binary-packages--parameterized/obj/x86_64-linux-centos6/build/riscv64-unknown-elf-gcc/build-gcc-stage2/riscv64-unknown-elf/rv32imac/ilp32/libgcc/../../../../../riscv-gcc/libgcc/soft-fp/subdf3.c:47 (discriminator 37)
20011560:	00f5f713          	andi	a4,a1,15
20011564:	4691                	li	a3,4
20011566:	34d70563          	beq	a4,a3,200118b0 <__subdf3+0x58e>
/home/scratch/jenkins/workspace/tpp-freedom-tools/tpp04--build-binary-packages--parameterized/obj/x86_64-linux-centos6/build/riscv64-unknown-elf-gcc/build-gcc-stage2/riscv64-unknown-elf/rv32imac/ilp32/libgcc/../../../../../riscv-gcc/libgcc/soft-fp/subdf3.c:47 (discriminator 44)
2001156a:	00458713          	addi	a4,a1,4
2001156e:	00b73533          	sltu	a0,a4,a1
20011572:	97aa                	add	a5,a5,a0
20011574:	85ba                	mv	a1,a4
20011576:	ae2d                	j	200118b0 <__subdf3+0x58e>
/home/scratch/jenkins/workspace/tpp-freedom-tools/tpp04--build-binary-packages--parameterized/obj/x86_64-linux-centos6/build/riscv64-unknown-elf-gcc/build-gcc-stage2/riscv64-unknown-elf/rv32imac/ilp32/libgcc/../../../../../riscv-gcc/libgcc/soft-fp/subdf3.c:46 (discriminator 158)
20011578:	de99                	beqz	a3,20011496 <__subdf3+0x174>
/home/scratch/jenkins/workspace/tpp-freedom-tools/tpp04--build-binary-packages--parameterized/obj/x86_64-linux-centos6/build/riscv64-unknown-elf-gcc/build-gcc-stage2/riscv64-unknown-elf/rv32imac/ilp32/libgcc/../../../../../riscv-gcc/libgcc/soft-fp/subdf3.c:46 (discriminator 160)
2001157a:	8e59                	or	a2,a2,a4
2001157c:	e2060be3          	beqz	a2,200113b2 <__subdf3+0x90>
/home/scratch/jenkins/workspace/tpp-freedom-tools/tpp04--build-binary-packages--parameterized/obj/x86_64-linux-centos6/build/riscv64-unknown-elf-gcc/build-gcc-stage2/riscv64-unknown-elf/rv32imac/ilp32/libgcc/../../../../../riscv-gcc/libgcc/soft-fp/subdf3.c:46
20011580:	4481                	li	s1,0
20011582:	004007b7          	lui	a5,0x400
20011586:	4581                	li	a1,0
20011588:	7ff00413          	li	s0,2047
2001158c:	a615                	j	200118b0 <__subdf3+0x58e>
/home/scratch/jenkins/workspace/tpp-freedom-tools/tpp04--build-binary-packages--parameterized/obj/x86_64-linux-centos6/build/riscv64-unknown-elf-gcc/build-gcc-stage2/riscv64-unknown-elf/rv32imac/ilp32/libgcc/../../../../../riscv-gcc/libgcc/soft-fp/subdf3.c:46 (discriminator 129)
2001158e:	7ff00513          	li	a0,2047
20011592:	30a68b63          	beq	a3,a0,200118a8 <__subdf3+0x586>
/home/scratch/jenkins/workspace/tpp-freedom-tools/tpp04--build-binary-packages--parameterized/obj/x86_64-linux-centos6/build/riscv64-unknown-elf-gcc/build-gcc-stage2/riscv64-unknown-elf/rv32imac/ilp32/libgcc/../../../../../riscv-gcc/libgcc/soft-fp/subdf3.c:46
20011596:	962e                	add	a2,a2,a1
20011598:	00b63533          	sltu	a0,a2,a1
2001159c:	97ba                	add	a5,a5,a4
2001159e:	97aa                	add	a5,a5,a0
200115a0:	01f79513          	slli	a0,a5,0x1f
200115a4:	8205                	srli	a2,a2,0x1
200115a6:	00c565b3          	or	a1,a0,a2
200115aa:	8385                	srli	a5,a5,0x1
200115ac:	8436                	mv	s0,a3
200115ae:	b76d                	j	20011558 <__subdf3+0x236>
/home/scratch/jenkins/workspace/tpp-freedom-tools/tpp04--build-binary-packages--parameterized/obj/x86_64-linux-centos6/build/riscv64-unknown-elf-gcc/build-gcc-stage2/riscv64-unknown-elf/rv32imac/ilp32/libgcc/../../../../../riscv-gcc/libgcc/soft-fp/subdf3.c:46 (discriminator 13)
200115b0:	0d005663          	blez	a6,2001167c <__subdf3+0x35a>
/home/scratch/jenkins/workspace/tpp-freedom-tools/tpp04--build-binary-packages--parameterized/obj/x86_64-linux-centos6/build/riscv64-unknown-elf-gcc/build-gcc-stage2/riscv64-unknown-elf/rv32imac/ilp32/libgcc/../../../../../riscv-gcc/libgcc/soft-fp/subdf3.c:46 (discriminator 205)
200115b4:	08031163          	bnez	t1,20011636 <__subdf3+0x314>
/home/scratch/jenkins/workspace/tpp-freedom-tools/tpp04--build-binary-packages--parameterized/obj/x86_64-linux-centos6/build/riscv64-unknown-elf-gcc/build-gcc-stage2/riscv64-unknown-elf/rv32imac/ilp32/libgcc/../../../../../riscv-gcc/libgcc/soft-fp/subdf3.c:46 (discriminator 207)
200115b8:	00c766b3          	or	a3,a4,a2
200115bc:	34068b63          	beqz	a3,20011912 <__subdf3+0x5f0>
/home/scratch/jenkins/workspace/tpp-freedom-tools/tpp04--build-binary-packages--parameterized/obj/x86_64-linux-centos6/build/riscv64-unknown-elf-gcc/build-gcc-stage2/riscv64-unknown-elf/rv32imac/ilp32/libgcc/../../../../../riscv-gcc/libgcc/soft-fp/subdf3.c:46 (discriminator 210)
200115c0:	fff80513          	addi	a0,a6,-1
200115c4:	e911                	bnez	a0,200115d8 <__subdf3+0x2b6>
/home/scratch/jenkins/workspace/tpp-freedom-tools/tpp04--build-binary-packages--parameterized/obj/x86_64-linux-centos6/build/riscv64-unknown-elf-gcc/build-gcc-stage2/riscv64-unknown-elf/rv32imac/ilp32/libgcc/../../../../../riscv-gcc/libgcc/soft-fp/subdf3.c:46 (discriminator 219)
200115c6:	40c58633          	sub	a2,a1,a2
200115ca:	00c5b533          	sltu	a0,a1,a2
200115ce:	8f99                	sub	a5,a5,a4
200115d0:	8f89                	sub	a5,a5,a0
200115d2:	85b2                	mv	a1,a2
/home/scratch/jenkins/workspace/tpp-freedom-tools/tpp04--build-binary-packages--parameterized/obj/x86_64-linux-centos6/build/riscv64-unknown-elf-gcc/build-gcc-stage2/riscv64-unknown-elf/rv32imac/ilp32/libgcc/../../../../../riscv-gcc/libgcc/soft-fp/subdf3.c:45 (discriminator 276)
200115d4:	4405                	li	s0,1
/home/scratch/jenkins/workspace/tpp-freedom-tools/tpp04--build-binary-packages--parameterized/obj/x86_64-linux-centos6/build/riscv64-unknown-elf-gcc/build-gcc-stage2/riscv64-unknown-elf/rv32imac/ilp32/libgcc/../../../../../riscv-gcc/libgcc/soft-fp/subdf3.c:46 (discriminator 276)
200115d6:	a0b1                	j	20011622 <__subdf3+0x300>
/home/scratch/jenkins/workspace/tpp-freedom-tools/tpp04--build-binary-packages--parameterized/obj/x86_64-linux-centos6/build/riscv64-unknown-elf-gcc/build-gcc-stage2/riscv64-unknown-elf/rv32imac/ilp32/libgcc/../../../../../riscv-gcc/libgcc/soft-fp/subdf3.c:46 (discriminator 220)
200115d8:	7ff00693          	li	a3,2047
200115dc:	dcd80be3          	beq	a6,a3,200113b2 <__subdf3+0x90>
/home/scratch/jenkins/workspace/tpp-freedom-tools/tpp04--build-binary-packages--parameterized/obj/x86_64-linux-centos6/build/riscv64-unknown-elf-gcc/build-gcc-stage2/riscv64-unknown-elf/rv32imac/ilp32/libgcc/../../../../../riscv-gcc/libgcc/soft-fp/subdf3.c:46 (discriminator 243)
200115e0:	03800693          	li	a3,56
200115e4:	08a6c863          	blt	a3,a0,20011674 <__subdf3+0x352>
/home/scratch/jenkins/workspace/tpp-freedom-tools/tpp04--build-binary-packages--parameterized/obj/x86_64-linux-centos6/build/riscv64-unknown-elf-gcc/build-gcc-stage2/riscv64-unknown-elf/rv32imac/ilp32/libgcc/../../../../../riscv-gcc/libgcc/soft-fp/subdf3.c:46 (discriminator 244)
200115e8:	46fd                	li	a3,31
200115ea:	04a6cf63          	blt	a3,a0,20011648 <__subdf3+0x326>
/home/scratch/jenkins/workspace/tpp-freedom-tools/tpp04--build-binary-packages--parameterized/obj/x86_64-linux-centos6/build/riscv64-unknown-elf-gcc/build-gcc-stage2/riscv64-unknown-elf/rv32imac/ilp32/libgcc/../../../../../riscv-gcc/libgcc/soft-fp/subdf3.c:46 (discriminator 246)
200115ee:	02000813          	li	a6,32
200115f2:	40a80833          	sub	a6,a6,a0
200115f6:	010716b3          	sll	a3,a4,a6
200115fa:	00a658b3          	srl	a7,a2,a0
200115fe:	01061633          	sll	a2,a2,a6
20011602:	0116e6b3          	or	a3,a3,a7
20011606:	00c03633          	snez	a2,a2
2001160a:	8e55                	or	a2,a2,a3
2001160c:	00a75733          	srl	a4,a4,a0
/home/scratch/jenkins/workspace/tpp-freedom-tools/tpp04--build-binary-packages--parameterized/obj/x86_64-linux-centos6/build/riscv64-unknown-elf-gcc/build-gcc-stage2/riscv64-unknown-elf/rv32imac/ilp32/libgcc/../../../../../riscv-gcc/libgcc/soft-fp/subdf3.c:46 (discriminator 260)
20011610:	40c58633          	sub	a2,a1,a2
20011614:	00c5b533          	sltu	a0,a1,a2
20011618:	40e78733          	sub	a4,a5,a4
2001161c:	40a707b3          	sub	a5,a4,a0
20011620:	85b2                	mv	a1,a2
/home/scratch/jenkins/workspace/tpp-freedom-tools/tpp04--build-binary-packages--parameterized/obj/x86_64-linux-centos6/build/riscv64-unknown-elf-gcc/build-gcc-stage2/riscv64-unknown-elf/rv32imac/ilp32/libgcc/../../../../../riscv-gcc/libgcc/soft-fp/subdf3.c:46 (discriminator 318)
20011622:	00800937          	lui	s2,0x800
20011626:	0127f733          	and	a4,a5,s2
2001162a:	d71d                	beqz	a4,20011558 <__subdf3+0x236>
/home/scratch/jenkins/workspace/tpp-freedom-tools/tpp04--build-binary-packages--parameterized/obj/x86_64-linux-centos6/build/riscv64-unknown-elf-gcc/build-gcc-stage2/riscv64-unknown-elf/rv32imac/ilp32/libgcc/../../../../../riscv-gcc/libgcc/soft-fp/subdf3.c:46 (discriminator 378)
2001162c:	197d                	addi	s2,s2,-1
2001162e:	0127f933          	and	s2,a5,s2
20011632:	89ae                	mv	s3,a1
20011634:	aa5d                	j	200117ea <__subdf3+0x4c8>
/home/scratch/jenkins/workspace/tpp-freedom-tools/tpp04--build-binary-packages--parameterized/obj/x86_64-linux-centos6/build/riscv64-unknown-elf-gcc/build-gcc-stage2/riscv64-unknown-elf/rv32imac/ilp32/libgcc/../../../../../riscv-gcc/libgcc/soft-fp/subdf3.c:46 (discriminator 208)
20011636:	7ff00693          	li	a3,2047
2001163a:	f0d40fe3          	beq	s0,a3,20011558 <__subdf3+0x236>
/home/scratch/jenkins/workspace/tpp-freedom-tools/tpp04--build-binary-packages--parameterized/obj/x86_64-linux-centos6/build/riscv64-unknown-elf-gcc/build-gcc-stage2/riscv64-unknown-elf/rv32imac/ilp32/libgcc/../../../../../riscv-gcc/libgcc/soft-fp/subdf3.c:46 (discriminator 234)
2001163e:	008006b7          	lui	a3,0x800
20011642:	8f55                	or	a4,a4,a3
20011644:	8542                	mv	a0,a6
20011646:	bf69                	j	200115e0 <__subdf3+0x2be>
/home/scratch/jenkins/workspace/tpp-freedom-tools/tpp04--build-binary-packages--parameterized/obj/x86_64-linux-centos6/build/riscv64-unknown-elf-gcc/build-gcc-stage2/riscv64-unknown-elf/rv32imac/ilp32/libgcc/../../../../../riscv-gcc/libgcc/soft-fp/subdf3.c:46 (discriminator 247)
20011648:	fe050693          	addi	a3,a0,-32
2001164c:	02000893          	li	a7,32
20011650:	00d756b3          	srl	a3,a4,a3
20011654:	4801                	li	a6,0
20011656:	01150863          	beq	a0,a7,20011666 <__subdf3+0x344>
/home/scratch/jenkins/workspace/tpp-freedom-tools/tpp04--build-binary-packages--parameterized/obj/x86_64-linux-centos6/build/riscv64-unknown-elf-gcc/build-gcc-stage2/riscv64-unknown-elf/rv32imac/ilp32/libgcc/../../../../../riscv-gcc/libgcc/soft-fp/subdf3.c:46 (discriminator 254)
2001165a:	04000813          	li	a6,64
2001165e:	40a80533          	sub	a0,a6,a0
20011662:	00a71833          	sll	a6,a4,a0
/home/scratch/jenkins/workspace/tpp-freedom-tools/tpp04--build-binary-packages--parameterized/obj/x86_64-linux-centos6/build/riscv64-unknown-elf-gcc/build-gcc-stage2/riscv64-unknown-elf/rv32imac/ilp32/libgcc/../../../../../riscv-gcc/libgcc/soft-fp/subdf3.c:46 (discriminator 257)
20011666:	00c86633          	or	a2,a6,a2
2001166a:	00c03633          	snez	a2,a2
2001166e:	8e55                	or	a2,a2,a3
/home/scratch/jenkins/workspace/tpp-freedom-tools/tpp04--build-binary-packages--parameterized/obj/x86_64-linux-centos6/build/riscv64-unknown-elf-gcc/build-gcc-stage2/riscv64-unknown-elf/rv32imac/ilp32/libgcc/../../../../../riscv-gcc/libgcc/soft-fp/subdf3.c:46 (discriminator 245)
20011670:	4701                	li	a4,0
20011672:	bf79                	j	20011610 <__subdf3+0x2ee>
20011674:	8e59                	or	a2,a2,a4
20011676:	00c03633          	snez	a2,a2
2001167a:	bfdd                	j	20011670 <__subdf3+0x34e>
/home/scratch/jenkins/workspace/tpp-freedom-tools/tpp04--build-binary-packages--parameterized/obj/x86_64-linux-centos6/build/riscv64-unknown-elf-gcc/build-gcc-stage2/riscv64-unknown-elf/rv32imac/ilp32/libgcc/../../../../../riscv-gcc/libgcc/soft-fp/subdf3.c:46 (discriminator 206)
2001167c:	0c080563          	beqz	a6,20011746 <__subdf3+0x424>
/home/scratch/jenkins/workspace/tpp-freedom-tools/tpp04--build-binary-packages--parameterized/obj/x86_64-linux-centos6/build/riscv64-unknown-elf-gcc/build-gcc-stage2/riscv64-unknown-elf/rv32imac/ilp32/libgcc/../../../../../riscv-gcc/libgcc/soft-fp/subdf3.c:46 (discriminator 262)
20011680:	40830533          	sub	a0,t1,s0
20011684:	e81d                	bnez	s0,200116ba <__subdf3+0x398>
/home/scratch/jenkins/workspace/tpp-freedom-tools/tpp04--build-binary-packages--parameterized/obj/x86_64-linux-centos6/build/riscv64-unknown-elf-gcc/build-gcc-stage2/riscv64-unknown-elf/rv32imac/ilp32/libgcc/../../../../../riscv-gcc/libgcc/soft-fp/subdf3.c:46 (discriminator 264)
20011686:	00b7e833          	or	a6,a5,a1
2001168a:	28080663          	beqz	a6,20011916 <__subdf3+0x5f4>
/home/scratch/jenkins/workspace/tpp-freedom-tools/tpp04--build-binary-packages--parameterized/obj/x86_64-linux-centos6/build/riscv64-unknown-elf-gcc/build-gcc-stage2/riscv64-unknown-elf/rv32imac/ilp32/libgcc/../../../../../riscv-gcc/libgcc/soft-fp/subdf3.c:46 (discriminator 267)
2001168e:	fff50813          	addi	a6,a0,-1
20011692:	00081b63          	bnez	a6,200116a8 <__subdf3+0x386>
/home/scratch/jenkins/workspace/tpp-freedom-tools/tpp04--build-binary-packages--parameterized/obj/x86_64-linux-centos6/build/riscv64-unknown-elf-gcc/build-gcc-stage2/riscv64-unknown-elf/rv32imac/ilp32/libgcc/../../../../../riscv-gcc/libgcc/soft-fp/subdf3.c:46 (discriminator 276)
20011696:	40b605b3          	sub	a1,a2,a1
2001169a:	40f707b3          	sub	a5,a4,a5
2001169e:	00b63633          	sltu	a2,a2,a1
200116a2:	8f91                	sub	a5,a5,a2
200116a4:	84b6                	mv	s1,a3
200116a6:	b73d                	j	200115d4 <__subdf3+0x2b2>
/home/scratch/jenkins/workspace/tpp-freedom-tools/tpp04--build-binary-packages--parameterized/obj/x86_64-linux-centos6/build/riscv64-unknown-elf-gcc/build-gcc-stage2/riscv64-unknown-elf/rv32imac/ilp32/libgcc/../../../../../riscv-gcc/libgcc/soft-fp/subdf3.c:46 (discriminator 277)
200116a8:	7ff00893          	li	a7,2047
200116ac:	03151063          	bne	a0,a7,200116cc <__subdf3+0x3aa>
/home/scratch/jenkins/workspace/tpp-freedom-tools/tpp04--build-binary-packages--parameterized/obj/x86_64-linux-centos6/build/riscv64-unknown-elf-gcc/build-gcc-stage2/riscv64-unknown-elf/rv32imac/ilp32/libgcc/../../../../../riscv-gcc/libgcc/soft-fp/subdf3.c:45
200116b0:	87ba                	mv	a5,a4
200116b2:	85b2                	mv	a1,a2
/home/scratch/jenkins/workspace/tpp-freedom-tools/tpp04--build-binary-packages--parameterized/obj/x86_64-linux-centos6/build/riscv64-unknown-elf-gcc/build-gcc-stage2/riscv64-unknown-elf/rv32imac/ilp32/libgcc/../../../../../riscv-gcc/libgcc/soft-fp/subdf3.c:46
200116b4:	7ff00413          	li	s0,2047
200116b8:	a07d                	j	20011766 <__subdf3+0x444>
/home/scratch/jenkins/workspace/tpp-freedom-tools/tpp04--build-binary-packages--parameterized/obj/x86_64-linux-centos6/build/riscv64-unknown-elf-gcc/build-gcc-stage2/riscv64-unknown-elf/rv32imac/ilp32/libgcc/../../../../../riscv-gcc/libgcc/soft-fp/subdf3.c:46 (discriminator 265)
200116ba:	7ff00813          	li	a6,2047
200116be:	ff0309e3          	beq	t1,a6,200116b0 <__subdf3+0x38e>
/home/scratch/jenkins/workspace/tpp-freedom-tools/tpp04--build-binary-packages--parameterized/obj/x86_64-linux-centos6/build/riscv64-unknown-elf-gcc/build-gcc-stage2/riscv64-unknown-elf/rv32imac/ilp32/libgcc/../../../../../riscv-gcc/libgcc/soft-fp/subdf3.c:46 (discriminator 291)
200116c2:	00800837          	lui	a6,0x800
200116c6:	0107e7b3          	or	a5,a5,a6
200116ca:	882a                	mv	a6,a0
/home/scratch/jenkins/workspace/tpp-freedom-tools/tpp04--build-binary-packages--parameterized/obj/x86_64-linux-centos6/build/riscv64-unknown-elf-gcc/build-gcc-stage2/riscv64-unknown-elf/rv32imac/ilp32/libgcc/../../../../../riscv-gcc/libgcc/soft-fp/subdf3.c:46 (discriminator 300)
200116cc:	03800513          	li	a0,56
200116d0:	07054663          	blt	a0,a6,2001173c <__subdf3+0x41a>
/home/scratch/jenkins/workspace/tpp-freedom-tools/tpp04--build-binary-packages--parameterized/obj/x86_64-linux-centos6/build/riscv64-unknown-elf-gcc/build-gcc-stage2/riscv64-unknown-elf/rv32imac/ilp32/libgcc/../../../../../riscv-gcc/libgcc/soft-fp/subdf3.c:46 (discriminator 301)
200116d4:	457d                	li	a0,31
200116d6:	03054d63          	blt	a0,a6,20011710 <__subdf3+0x3ee>
/home/scratch/jenkins/workspace/tpp-freedom-tools/tpp04--build-binary-packages--parameterized/obj/x86_64-linux-centos6/build/riscv64-unknown-elf-gcc/build-gcc-stage2/riscv64-unknown-elf/rv32imac/ilp32/libgcc/../../../../../riscv-gcc/libgcc/soft-fp/subdf3.c:46 (discriminator 303)
200116da:	02000893          	li	a7,32
200116de:	410888b3          	sub	a7,a7,a6
200116e2:	01179533          	sll	a0,a5,a7
200116e6:	0105de33          	srl	t3,a1,a6
200116ea:	011595b3          	sll	a1,a1,a7
200116ee:	01c56533          	or	a0,a0,t3
200116f2:	00b035b3          	snez	a1,a1
200116f6:	8d4d                	or	a0,a0,a1
200116f8:	0107d7b3          	srl	a5,a5,a6
/home/scratch/jenkins/workspace/tpp-freedom-tools/tpp04--build-binary-packages--parameterized/obj/x86_64-linux-centos6/build/riscv64-unknown-elf-gcc/build-gcc-stage2/riscv64-unknown-elf/rv32imac/ilp32/libgcc/../../../../../riscv-gcc/libgcc/soft-fp/subdf3.c:46 (discriminator 317)
200116fc:	40a605b3          	sub	a1,a2,a0
20011700:	40f707b3          	sub	a5,a4,a5
20011704:	00b63633          	sltu	a2,a2,a1
20011708:	8f91                	sub	a5,a5,a2
/home/scratch/jenkins/workspace/tpp-freedom-tools/tpp04--build-binary-packages--parameterized/obj/x86_64-linux-centos6/build/riscv64-unknown-elf-gcc/build-gcc-stage2/riscv64-unknown-elf/rv32imac/ilp32/libgcc/../../../../../riscv-gcc/libgcc/soft-fp/subdf3.c:45 (discriminator 317)
2001170a:	841a                	mv	s0,t1
2001170c:	84b6                	mv	s1,a3
2001170e:	bf11                	j	20011622 <__subdf3+0x300>
/home/scratch/jenkins/workspace/tpp-freedom-tools/tpp04--build-binary-packages--parameterized/obj/x86_64-linux-centos6/build/riscv64-unknown-elf-gcc/build-gcc-stage2/riscv64-unknown-elf/rv32imac/ilp32/libgcc/../../../../../riscv-gcc/libgcc/soft-fp/subdf3.c:46 (discriminator 304)
20011710:	fe080513          	addi	a0,a6,-32 # 7fffe0 <__heap_size+0x7ff7e0>
20011714:	02000e13          	li	t3,32
20011718:	00a7d8b3          	srl	a7,a5,a0
2001171c:	4501                	li	a0,0
2001171e:	01c80863          	beq	a6,t3,2001172e <__subdf3+0x40c>
/home/scratch/jenkins/workspace/tpp-freedom-tools/tpp04--build-binary-packages--parameterized/obj/x86_64-linux-centos6/build/riscv64-unknown-elf-gcc/build-gcc-stage2/riscv64-unknown-elf/rv32imac/ilp32/libgcc/../../../../../riscv-gcc/libgcc/soft-fp/subdf3.c:46 (discriminator 311)
20011722:	04000513          	li	a0,64
20011726:	41050533          	sub	a0,a0,a6
2001172a:	00a79533          	sll	a0,a5,a0
/home/scratch/jenkins/workspace/tpp-freedom-tools/tpp04--build-binary-packages--parameterized/obj/x86_64-linux-centos6/build/riscv64-unknown-elf-gcc/build-gcc-stage2/riscv64-unknown-elf/rv32imac/ilp32/libgcc/../../../../../riscv-gcc/libgcc/soft-fp/subdf3.c:46 (discriminator 314)
2001172e:	8d4d                	or	a0,a0,a1
20011730:	00a03533          	snez	a0,a0
20011734:	00a8e533          	or	a0,a7,a0
/home/scratch/jenkins/workspace/tpp-freedom-tools/tpp04--build-binary-packages--parameterized/obj/x86_64-linux-centos6/build/riscv64-unknown-elf-gcc/build-gcc-stage2/riscv64-unknown-elf/rv32imac/ilp32/libgcc/../../../../../riscv-gcc/libgcc/soft-fp/subdf3.c:46 (discriminator 302)
20011738:	4781                	li	a5,0
2001173a:	b7c9                	j	200116fc <__subdf3+0x3da>
2001173c:	00b7e533          	or	a0,a5,a1
20011740:	00a03533          	snez	a0,a0
20011744:	bfd5                	j	20011738 <__subdf3+0x416>
/home/scratch/jenkins/workspace/tpp-freedom-tools/tpp04--build-binary-packages--parameterized/obj/x86_64-linux-centos6/build/riscv64-unknown-elf-gcc/build-gcc-stage2/riscv64-unknown-elf/rv32imac/ilp32/libgcc/../../../../../riscv-gcc/libgcc/soft-fp/subdf3.c:46 (discriminator 263)
20011746:	00140513          	addi	a0,s0,1
2001174a:	7fe57513          	andi	a0,a0,2046
2001174e:	e925                	bnez	a0,200117be <__subdf3+0x49c>
/home/scratch/jenkins/workspace/tpp-freedom-tools/tpp04--build-binary-packages--parameterized/obj/x86_64-linux-centos6/build/riscv64-unknown-elf-gcc/build-gcc-stage2/riscv64-unknown-elf/rv32imac/ilp32/libgcc/../../../../../riscv-gcc/libgcc/soft-fp/subdf3.c:46 (discriminator 319)
20011750:	00b7e833          	or	a6,a5,a1
20011754:	00c76533          	or	a0,a4,a2
20011758:	e821                	bnez	s0,200117a8 <__subdf3+0x486>
/home/scratch/jenkins/workspace/tpp-freedom-tools/tpp04--build-binary-packages--parameterized/obj/x86_64-linux-centos6/build/riscv64-unknown-elf-gcc/build-gcc-stage2/riscv64-unknown-elf/rv32imac/ilp32/libgcc/../../../../../riscv-gcc/libgcc/soft-fp/subdf3.c:46 (discriminator 321)
2001175a:	00081863          	bnez	a6,2001176a <__subdf3+0x448>
/home/scratch/jenkins/workspace/tpp-freedom-tools/tpp04--build-binary-packages--parameterized/obj/x86_64-linux-centos6/build/riscv64-unknown-elf-gcc/build-gcc-stage2/riscv64-unknown-elf/rv32imac/ilp32/libgcc/../../../../../riscv-gcc/libgcc/soft-fp/subdf3.c:46 (discriminator 323)
2001175e:	1c050063          	beqz	a0,2001191e <__subdf3+0x5fc>
/home/scratch/jenkins/workspace/tpp-freedom-tools/tpp04--build-binary-packages--parameterized/obj/x86_64-linux-centos6/build/riscv64-unknown-elf-gcc/build-gcc-stage2/riscv64-unknown-elf/rv32imac/ilp32/libgcc/../../../../../riscv-gcc/libgcc/soft-fp/subdf3.c:45
20011762:	87ba                	mv	a5,a4
20011764:	85b2                	mv	a1,a2
20011766:	84b6                	mv	s1,a3
20011768:	bbc5                	j	20011558 <__subdf3+0x236>
/home/scratch/jenkins/workspace/tpp-freedom-tools/tpp04--build-binary-packages--parameterized/obj/x86_64-linux-centos6/build/riscv64-unknown-elf-gcc/build-gcc-stage2/riscv64-unknown-elf/rv32imac/ilp32/libgcc/../../../../../riscv-gcc/libgcc/soft-fp/subdf3.c:46 (discriminator 324)
2001176a:	de0507e3          	beqz	a0,20011558 <__subdf3+0x236>
/home/scratch/jenkins/workspace/tpp-freedom-tools/tpp04--build-binary-packages--parameterized/obj/x86_64-linux-centos6/build/riscv64-unknown-elf-gcc/build-gcc-stage2/riscv64-unknown-elf/rv32imac/ilp32/libgcc/../../../../../riscv-gcc/libgcc/soft-fp/subdf3.c:46 (discriminator 331)
2001176e:	40c58833          	sub	a6,a1,a2
20011772:	0105b8b3          	sltu	a7,a1,a6
20011776:	40e78533          	sub	a0,a5,a4
2001177a:	41150533          	sub	a0,a0,a7
2001177e:	008008b7          	lui	a7,0x800
20011782:	011578b3          	and	a7,a0,a7
20011786:	00088a63          	beqz	a7,2001179a <__subdf3+0x478>
/home/scratch/jenkins/workspace/tpp-freedom-tools/tpp04--build-binary-packages--parameterized/obj/x86_64-linux-centos6/build/riscv64-unknown-elf-gcc/build-gcc-stage2/riscv64-unknown-elf/rv32imac/ilp32/libgcc/../../../../../riscv-gcc/libgcc/soft-fp/subdf3.c:46 (discriminator 333)
2001178a:	40b605b3          	sub	a1,a2,a1
2001178e:	40f707b3          	sub	a5,a4,a5
20011792:	00b63633          	sltu	a2,a2,a1
20011796:	8f91                	sub	a5,a5,a2
20011798:	b7f9                	j	20011766 <__subdf3+0x444>
/home/scratch/jenkins/workspace/tpp-freedom-tools/tpp04--build-binary-packages--parameterized/obj/x86_64-linux-centos6/build/riscv64-unknown-elf-gcc/build-gcc-stage2/riscv64-unknown-elf/rv32imac/ilp32/libgcc/../../../../../riscv-gcc/libgcc/soft-fp/subdf3.c:46 (discriminator 334)
2001179a:	00a865b3          	or	a1,a6,a0
2001179e:	18058463          	beqz	a1,20011926 <__subdf3+0x604>
/home/scratch/jenkins/workspace/tpp-freedom-tools/tpp04--build-binary-packages--parameterized/obj/x86_64-linux-centos6/build/riscv64-unknown-elf-gcc/build-gcc-stage2/riscv64-unknown-elf/rv32imac/ilp32/libgcc/../../../../../riscv-gcc/libgcc/soft-fp/subdf3.c:46
200117a2:	87aa                	mv	a5,a0
200117a4:	85c2                	mv	a1,a6
200117a6:	bb4d                	j	20011558 <__subdf3+0x236>
/home/scratch/jenkins/workspace/tpp-freedom-tools/tpp04--build-binary-packages--parameterized/obj/x86_64-linux-centos6/build/riscv64-unknown-elf-gcc/build-gcc-stage2/riscv64-unknown-elf/rv32imac/ilp32/libgcc/../../../../../riscv-gcc/libgcc/soft-fp/subdf3.c:46 (discriminator 353)
200117a8:	00081863          	bnez	a6,200117b8 <__subdf3+0x496>
/home/scratch/jenkins/workspace/tpp-freedom-tools/tpp04--build-binary-packages--parameterized/obj/x86_64-linux-centos6/build/riscv64-unknown-elf-gcc/build-gcc-stage2/riscv64-unknown-elf/rv32imac/ilp32/libgcc/../../../../../riscv-gcc/libgcc/soft-fp/subdf3.c:46 (discriminator 354)
200117ac:	16050f63          	beqz	a0,2001192a <__subdf3+0x608>
/home/scratch/jenkins/workspace/tpp-freedom-tools/tpp04--build-binary-packages--parameterized/obj/x86_64-linux-centos6/build/riscv64-unknown-elf-gcc/build-gcc-stage2/riscv64-unknown-elf/rv32imac/ilp32/libgcc/../../../../../riscv-gcc/libgcc/soft-fp/subdf3.c:45
200117b0:	87ba                	mv	a5,a4
200117b2:	85b2                	mv	a1,a2
/home/scratch/jenkins/workspace/tpp-freedom-tools/tpp04--build-binary-packages--parameterized/obj/x86_64-linux-centos6/build/riscv64-unknown-elf-gcc/build-gcc-stage2/riscv64-unknown-elf/rv32imac/ilp32/libgcc/../../../../../riscv-gcc/libgcc/soft-fp/subdf3.c:46
200117b4:	84b6                	mv	s1,a3
200117b6:	bef5                	j	200113b2 <__subdf3+0x90>
/home/scratch/jenkins/workspace/tpp-freedom-tools/tpp04--build-binary-packages--parameterized/obj/x86_64-linux-centos6/build/riscv64-unknown-elf-gcc/build-gcc-stage2/riscv64-unknown-elf/rv32imac/ilp32/libgcc/../../../../../riscv-gcc/libgcc/soft-fp/subdf3.c:46 (discriminator 355)
200117b8:	be050de3          	beqz	a0,200113b2 <__subdf3+0x90>
200117bc:	b3d1                	j	20011580 <__subdf3+0x25e>
/home/scratch/jenkins/workspace/tpp-freedom-tools/tpp04--build-binary-packages--parameterized/obj/x86_64-linux-centos6/build/riscv64-unknown-elf-gcc/build-gcc-stage2/riscv64-unknown-elf/rv32imac/ilp32/libgcc/../../../../../riscv-gcc/libgcc/soft-fp/subdf3.c:46 (discriminator 320)
200117be:	40c589b3          	sub	s3,a1,a2
200117c2:	0135b533          	sltu	a0,a1,s3
200117c6:	40e78933          	sub	s2,a5,a4
200117ca:	40a90933          	sub	s2,s2,a0
200117ce:	00800537          	lui	a0,0x800
200117d2:	00a97533          	and	a0,s2,a0
200117d6:	c53d                	beqz	a0,20011844 <__subdf3+0x522>
/home/scratch/jenkins/workspace/tpp-freedom-tools/tpp04--build-binary-packages--parameterized/obj/x86_64-linux-centos6/build/riscv64-unknown-elf-gcc/build-gcc-stage2/riscv64-unknown-elf/rv32imac/ilp32/libgcc/../../../../../riscv-gcc/libgcc/soft-fp/subdf3.c:46 (discriminator 371)
200117d8:	40b609b3          	sub	s3,a2,a1
200117dc:	40f707b3          	sub	a5,a4,a5
200117e0:	01363633          	sltu	a2,a2,s3
200117e4:	40c78933          	sub	s2,a5,a2
200117e8:	84b6                	mv	s1,a3
/home/scratch/jenkins/workspace/tpp-freedom-tools/tpp04--build-binary-packages--parameterized/obj/x86_64-linux-centos6/build/riscv64-unknown-elf-gcc/build-gcc-stage2/riscv64-unknown-elf/rv32imac/ilp32/libgcc/../../../../../riscv-gcc/libgcc/soft-fp/subdf3.c:46 (discriminator 380)
200117ea:	06090363          	beqz	s2,20011850 <__subdf3+0x52e>
/home/scratch/jenkins/workspace/tpp-freedom-tools/tpp04--build-binary-packages--parameterized/obj/x86_64-linux-centos6/build/riscv64-unknown-elf-gcc/build-gcc-stage2/riscv64-unknown-elf/rv32imac/ilp32/libgcc/../../../../../riscv-gcc/libgcc/soft-fp/subdf3.c:46 (discriminator 383)
200117ee:	854a                	mv	a0,s2
200117f0:	2ae5                	jal	200119e8 <__clzsi2>
/home/scratch/jenkins/workspace/tpp-freedom-tools/tpp04--build-binary-packages--parameterized/obj/x86_64-linux-centos6/build/riscv64-unknown-elf-gcc/build-gcc-stage2/riscv64-unknown-elf/rv32imac/ilp32/libgcc/../../../../../riscv-gcc/libgcc/soft-fp/subdf3.c:46 (discriminator 397)
200117f2:	ff850713          	addi	a4,a0,-8 # 7ffff8 <__heap_size+0x7ff7f8>
200117f6:	47fd                	li	a5,31
200117f8:	06e7c163          	blt	a5,a4,2001185a <__subdf3+0x538>
/home/scratch/jenkins/workspace/tpp-freedom-tools/tpp04--build-binary-packages--parameterized/obj/x86_64-linux-centos6/build/riscv64-unknown-elf-gcc/build-gcc-stage2/riscv64-unknown-elf/rv32imac/ilp32/libgcc/../../../../../riscv-gcc/libgcc/soft-fp/subdf3.c:46 (discriminator 403)
200117fc:	02000793          	li	a5,32
20011800:	8f99                	sub	a5,a5,a4
20011802:	00e91933          	sll	s2,s2,a4
20011806:	00f9d7b3          	srl	a5,s3,a5
2001180a:	0127e7b3          	or	a5,a5,s2
2001180e:	00e995b3          	sll	a1,s3,a4
/home/scratch/jenkins/workspace/tpp-freedom-tools/tpp04--build-binary-packages--parameterized/obj/x86_64-linux-centos6/build/riscv64-unknown-elf-gcc/build-gcc-stage2/riscv64-unknown-elf/rv32imac/ilp32/libgcc/../../../../../riscv-gcc/libgcc/soft-fp/subdf3.c:46 (discriminator 407)
20011812:	06874e63          	blt	a4,s0,2001188e <__subdf3+0x56c>
/home/scratch/jenkins/workspace/tpp-freedom-tools/tpp04--build-binary-packages--parameterized/obj/x86_64-linux-centos6/build/riscv64-unknown-elf-gcc/build-gcc-stage2/riscv64-unknown-elf/rv32imac/ilp32/libgcc/../../../../../riscv-gcc/libgcc/soft-fp/subdf3.c:46 (discriminator 408)
20011816:	8f01                	sub	a4,a4,s0
20011818:	00170693          	addi	a3,a4,1 # ff800001 <__global_pointer$+0x7f7ff379>
2001181c:	467d                	li	a2,31
2001181e:	04d64463          	blt	a2,a3,20011866 <__subdf3+0x544>
/home/scratch/jenkins/workspace/tpp-freedom-tools/tpp04--build-binary-packages--parameterized/obj/x86_64-linux-centos6/build/riscv64-unknown-elf-gcc/build-gcc-stage2/riscv64-unknown-elf/rv32imac/ilp32/libgcc/../../../../../riscv-gcc/libgcc/soft-fp/subdf3.c:46 (discriminator 410)
20011822:	02000713          	li	a4,32
20011826:	8f15                	sub	a4,a4,a3
20011828:	00e79633          	sll	a2,a5,a4
2001182c:	00d5d533          	srl	a0,a1,a3
20011830:	00e595b3          	sll	a1,a1,a4
20011834:	8e49                	or	a2,a2,a0
20011836:	00b035b3          	snez	a1,a1
2001183a:	8dd1                	or	a1,a1,a2
2001183c:	00d7d7b3          	srl	a5,a5,a3
/home/scratch/jenkins/workspace/tpp-freedom-tools/tpp04--build-binary-packages--parameterized/obj/x86_64-linux-centos6/build/riscv64-unknown-elf-gcc/build-gcc-stage2/riscv64-unknown-elf/rv32imac/ilp32/libgcc/../../../../../riscv-gcc/libgcc/soft-fp/subdf3.c:46 (discriminator 422)
20011840:	4401                	li	s0,0
20011842:	bb19                	j	20011558 <__subdf3+0x236>
/home/scratch/jenkins/workspace/tpp-freedom-tools/tpp04--build-binary-packages--parameterized/obj/x86_64-linux-centos6/build/riscv64-unknown-elf-gcc/build-gcc-stage2/riscv64-unknown-elf/rv32imac/ilp32/libgcc/../../../../../riscv-gcc/libgcc/soft-fp/subdf3.c:46 (discriminator 372)
20011844:	0129e5b3          	or	a1,s3,s2
20011848:	f1cd                	bnez	a1,200117ea <__subdf3+0x4c8>
2001184a:	4781                	li	a5,0
/home/scratch/jenkins/workspace/tpp-freedom-tools/tpp04--build-binary-packages--parameterized/obj/x86_64-linux-centos6/build/riscv64-unknown-elf-gcc/build-gcc-stage2/riscv64-unknown-elf/rv32imac/ilp32/libgcc/../../../../../riscv-gcc/libgcc/soft-fp/subdf3.c:46
2001184c:	4401                	li	s0,0
2001184e:	a8d1                	j	20011922 <__subdf3+0x600>
/home/scratch/jenkins/workspace/tpp-freedom-tools/tpp04--build-binary-packages--parameterized/obj/x86_64-linux-centos6/build/riscv64-unknown-elf-gcc/build-gcc-stage2/riscv64-unknown-elf/rv32imac/ilp32/libgcc/../../../../../riscv-gcc/libgcc/soft-fp/subdf3.c:46 (discriminator 390)
20011850:	854e                	mv	a0,s3
20011852:	2a59                	jal	200119e8 <__clzsi2>
20011854:	02050513          	addi	a0,a0,32
20011858:	bf69                	j	200117f2 <__subdf3+0x4d0>
/home/scratch/jenkins/workspace/tpp-freedom-tools/tpp04--build-binary-packages--parameterized/obj/x86_64-linux-centos6/build/riscv64-unknown-elf-gcc/build-gcc-stage2/riscv64-unknown-elf/rv32imac/ilp32/libgcc/../../../../../riscv-gcc/libgcc/soft-fp/subdf3.c:46 (discriminator 399)
2001185a:	fd850793          	addi	a5,a0,-40
2001185e:	00f997b3          	sll	a5,s3,a5
20011862:	4581                	li	a1,0
20011864:	b77d                	j	20011812 <__subdf3+0x4f0>
/home/scratch/jenkins/workspace/tpp-freedom-tools/tpp04--build-binary-packages--parameterized/obj/x86_64-linux-centos6/build/riscv64-unknown-elf-gcc/build-gcc-stage2/riscv64-unknown-elf/rv32imac/ilp32/libgcc/../../../../../riscv-gcc/libgcc/soft-fp/subdf3.c:46 (discriminator 411)
20011866:	1705                	addi	a4,a4,-31
20011868:	02000613          	li	a2,32
2001186c:	00e7d733          	srl	a4,a5,a4
20011870:	4501                	li	a0,0
20011872:	00c68763          	beq	a3,a2,20011880 <__subdf3+0x55e>
/home/scratch/jenkins/workspace/tpp-freedom-tools/tpp04--build-binary-packages--parameterized/obj/x86_64-linux-centos6/build/riscv64-unknown-elf-gcc/build-gcc-stage2/riscv64-unknown-elf/rv32imac/ilp32/libgcc/../../../../../riscv-gcc/libgcc/soft-fp/subdf3.c:46 (discriminator 419)
20011876:	04000513          	li	a0,64
2001187a:	8d15                	sub	a0,a0,a3
2001187c:	00a79533          	sll	a0,a5,a0
/home/scratch/jenkins/workspace/tpp-freedom-tools/tpp04--build-binary-packages--parameterized/obj/x86_64-linux-centos6/build/riscv64-unknown-elf-gcc/build-gcc-stage2/riscv64-unknown-elf/rv32imac/ilp32/libgcc/../../../../../riscv-gcc/libgcc/soft-fp/subdf3.c:46 (discriminator 422)
20011880:	8d4d                	or	a0,a0,a1
20011882:	00a03533          	snez	a0,a0
20011886:	00a765b3          	or	a1,a4,a0
2001188a:	4781                	li	a5,0
2001188c:	bf55                	j	20011840 <__subdf3+0x51e>
/home/scratch/jenkins/workspace/tpp-freedom-tools/tpp04--build-binary-packages--parameterized/obj/x86_64-linux-centos6/build/riscv64-unknown-elf-gcc/build-gcc-stage2/riscv64-unknown-elf/rv32imac/ilp32/libgcc/../../../../../riscv-gcc/libgcc/soft-fp/subdf3.c:46 (discriminator 409)
2001188e:	8c19                	sub	s0,s0,a4
20011890:	ff800737          	lui	a4,0xff800
20011894:	177d                	addi	a4,a4,-1
20011896:	8ff9                	and	a5,a5,a4
20011898:	b1c1                	j	20011558 <__subdf3+0x236>
/home/scratch/jenkins/workspace/tpp-freedom-tools/tpp04--build-binary-packages--parameterized/obj/x86_64-linux-centos6/build/riscv64-unknown-elf-gcc/build-gcc-stage2/riscv64-unknown-elf/rv32imac/ilp32/libgcc/../../../../../riscv-gcc/libgcc/soft-fp/subdf3.c:45
2001189a:	87ba                	mv	a5,a4
2001189c:	85b2                	mv	a1,a2
/home/scratch/jenkins/workspace/tpp-freedom-tools/tpp04--build-binary-packages--parameterized/obj/x86_64-linux-centos6/build/riscv64-unknown-elf-gcc/build-gcc-stage2/riscv64-unknown-elf/rv32imac/ilp32/libgcc/../../../../../riscv-gcc/libgcc/soft-fp/subdf3.c:46
2001189e:	842a                	mv	s0,a0
200118a0:	b965                	j	20011558 <__subdf3+0x236>
/home/scratch/jenkins/workspace/tpp-freedom-tools/tpp04--build-binary-packages--parameterized/obj/x86_64-linux-centos6/build/riscv64-unknown-elf-gcc/build-gcc-stage2/riscv64-unknown-elf/rv32imac/ilp32/libgcc/../../../../../riscv-gcc/libgcc/soft-fp/subdf3.c:45
200118a2:	87ba                	mv	a5,a4
200118a4:	85b2                	mv	a1,a2
200118a6:	b94d                	j	20011558 <__subdf3+0x236>
200118a8:	7ff00413          	li	s0,2047
200118ac:	4781                	li	a5,0
200118ae:	4581                	li	a1,0
/home/scratch/jenkins/workspace/tpp-freedom-tools/tpp04--build-binary-packages--parameterized/obj/x86_64-linux-centos6/build/riscv64-unknown-elf-gcc/build-gcc-stage2/riscv64-unknown-elf/rv32imac/ilp32/libgcc/../../../../../riscv-gcc/libgcc/soft-fp/subdf3.c:47 (discriminator 47)
200118b0:	00800737          	lui	a4,0x800
200118b4:	8f7d                	and	a4,a4,a5
200118b6:	cb11                	beqz	a4,200118ca <__subdf3+0x5a8>
/home/scratch/jenkins/workspace/tpp-freedom-tools/tpp04--build-binary-packages--parameterized/obj/x86_64-linux-centos6/build/riscv64-unknown-elf-gcc/build-gcc-stage2/riscv64-unknown-elf/rv32imac/ilp32/libgcc/../../../../../riscv-gcc/libgcc/soft-fp/subdf3.c:47 (discriminator 63)
200118b8:	0405                	addi	s0,s0,1
200118ba:	7ff00713          	li	a4,2047
200118be:	06e40b63          	beq	s0,a4,20011934 <__subdf3+0x612>
/home/scratch/jenkins/workspace/tpp-freedom-tools/tpp04--build-binary-packages--parameterized/obj/x86_64-linux-centos6/build/riscv64-unknown-elf-gcc/build-gcc-stage2/riscv64-unknown-elf/rv32imac/ilp32/libgcc/../../../../../riscv-gcc/libgcc/soft-fp/subdf3.c:47
200118c2:	ff800737          	lui	a4,0xff800
200118c6:	177d                	addi	a4,a4,-1
200118c8:	8ff9                	and	a5,a5,a4
/home/scratch/jenkins/workspace/tpp-freedom-tools/tpp04--build-binary-packages--parameterized/obj/x86_64-linux-centos6/build/riscv64-unknown-elf-gcc/build-gcc-stage2/riscv64-unknown-elf/rv32imac/ilp32/libgcc/../../../../../riscv-gcc/libgcc/soft-fp/subdf3.c:47 (discriminator 79)
200118ca:	01d79713          	slli	a4,a5,0x1d
200118ce:	0035d513          	srli	a0,a1,0x3
200118d2:	8d59                	or	a0,a0,a4
200118d4:	7ff00713          	li	a4,2047
200118d8:	838d                	srli	a5,a5,0x3
200118da:	00e41963          	bne	s0,a4,200118ec <__subdf3+0x5ca>
/home/scratch/jenkins/workspace/tpp-freedom-tools/tpp04--build-binary-packages--parameterized/obj/x86_64-linux-centos6/build/riscv64-unknown-elf-gcc/build-gcc-stage2/riscv64-unknown-elf/rv32imac/ilp32/libgcc/../../../../../riscv-gcc/libgcc/soft-fp/subdf3.c:47 (discriminator 80)
200118de:	8d5d                	or	a0,a0,a5
200118e0:	4781                	li	a5,0
200118e2:	c509                	beqz	a0,200118ec <__subdf3+0x5ca>
/home/scratch/jenkins/workspace/tpp-freedom-tools/tpp04--build-binary-packages--parameterized/obj/x86_64-linux-centos6/build/riscv64-unknown-elf-gcc/build-gcc-stage2/riscv64-unknown-elf/rv32imac/ilp32/libgcc/../../../../../riscv-gcc/libgcc/soft-fp/subdf3.c:47
200118e4:	000807b7          	lui	a5,0x80
200118e8:	4501                	li	a0,0
200118ea:	4481                	li	s1,0
/home/scratch/jenkins/workspace/tpp-freedom-tools/tpp04--build-binary-packages--parameterized/obj/x86_64-linux-centos6/build/riscv64-unknown-elf-gcc/build-gcc-stage2/riscv64-unknown-elf/rv32imac/ilp32/libgcc/../../../../../riscv-gcc/libgcc/soft-fp/subdf3.c:47 (discriminator 90)
200118ec:	01441713          	slli	a4,s0,0x14
200118f0:	7ff006b7          	lui	a3,0x7ff00
200118f4:	07b2                	slli	a5,a5,0xc
/home/scratch/jenkins/workspace/tpp-freedom-tools/tpp04--build-binary-packages--parameterized/obj/x86_64-linux-centos6/build/riscv64-unknown-elf-gcc/build-gcc-stage2/riscv64-unknown-elf/rv32imac/ilp32/libgcc/../../../../../riscv-gcc/libgcc/soft-fp/subdf3.c:51 (discriminator 90)
200118f6:	40f2                	lw	ra,28(sp)
200118f8:	4462                	lw	s0,24(sp)
/home/scratch/jenkins/workspace/tpp-freedom-tools/tpp04--build-binary-packages--parameterized/obj/x86_64-linux-centos6/build/riscv64-unknown-elf-gcc/build-gcc-stage2/riscv64-unknown-elf/rv32imac/ilp32/libgcc/../../../../../riscv-gcc/libgcc/soft-fp/subdf3.c:47 (discriminator 90)
200118fa:	8f75                	and	a4,a4,a3
200118fc:	83b1                	srli	a5,a5,0xc
200118fe:	04fe                	slli	s1,s1,0x1f
20011900:	8fd9                	or	a5,a5,a4
20011902:	0097e733          	or	a4,a5,s1
/home/scratch/jenkins/workspace/tpp-freedom-tools/tpp04--build-binary-packages--parameterized/obj/x86_64-linux-centos6/build/riscv64-unknown-elf-gcc/build-gcc-stage2/riscv64-unknown-elf/rv32imac/ilp32/libgcc/../../../../../riscv-gcc/libgcc/soft-fp/subdf3.c:51 (discriminator 90)
20011906:	4942                	lw	s2,16(sp)
20011908:	44d2                	lw	s1,20(sp)
2001190a:	49b2                	lw	s3,12(sp)
2001190c:	85ba                	mv	a1,a4
2001190e:	6105                	addi	sp,sp,32
20011910:	8082                	ret
20011912:	8442                	mv	s0,a6
20011914:	b191                	j	20011558 <__subdf3+0x236>
/home/scratch/jenkins/workspace/tpp-freedom-tools/tpp04--build-binary-packages--parameterized/obj/x86_64-linux-centos6/build/riscv64-unknown-elf-gcc/build-gcc-stage2/riscv64-unknown-elf/rv32imac/ilp32/libgcc/../../../../../riscv-gcc/libgcc/soft-fp/subdf3.c:45
20011916:	87ba                	mv	a5,a4
20011918:	85b2                	mv	a1,a2
/home/scratch/jenkins/workspace/tpp-freedom-tools/tpp04--build-binary-packages--parameterized/obj/x86_64-linux-centos6/build/riscv64-unknown-elf-gcc/build-gcc-stage2/riscv64-unknown-elf/rv32imac/ilp32/libgcc/../../../../../riscv-gcc/libgcc/soft-fp/subdf3.c:46
2001191a:	842a                	mv	s0,a0
2001191c:	b5a9                	j	20011766 <__subdf3+0x444>
2001191e:	4781                	li	a5,0
20011920:	4581                	li	a1,0
20011922:	4481                	li	s1,0
20011924:	b771                	j	200118b0 <__subdf3+0x58e>
20011926:	4781                	li	a5,0
20011928:	bfed                	j	20011922 <__subdf3+0x600>
2001192a:	4581                	li	a1,0
2001192c:	4481                	li	s1,0
2001192e:	004007b7          	lui	a5,0x400
20011932:	b999                	j	20011588 <__subdf3+0x266>
20011934:	4781                	li	a5,0
20011936:	4581                	li	a1,0
20011938:	bf49                	j	200118ca <__subdf3+0x5a8>

2001193a <__fixunsdfsi>:
__fixunsdfsi():
/home/scratch/jenkins/workspace/tpp-freedom-tools/tpp04--build-binary-packages--parameterized/obj/x86_64-linux-centos6/build/riscv64-unknown-elf-gcc/build-gcc-stage2/riscv64-unknown-elf/rv32imac/ilp32/libgcc/../../../../../riscv-gcc/libgcc/soft-fp/fixunsdfsi.c:42
2001193a:	0145d713          	srli	a4,a1,0x14
2001193e:	00100837          	lui	a6,0x100
20011942:	fff80793          	addi	a5,a6,-1 # fffff <__heap_size+0xff7ff>
20011946:	7ff77713          	andi	a4,a4,2047
/home/scratch/jenkins/workspace/tpp-freedom-tools/tpp04--build-binary-packages--parameterized/obj/x86_64-linux-centos6/build/riscv64-unknown-elf-gcc/build-gcc-stage2/riscv64-unknown-elf/rv32imac/ilp32/libgcc/../../../../../riscv-gcc/libgcc/soft-fp/fixunsdfsi.c:43
2001194a:	3fe00613          	li	a2,1022
/home/scratch/jenkins/workspace/tpp-freedom-tools/tpp04--build-binary-packages--parameterized/obj/x86_64-linux-centos6/build/riscv64-unknown-elf-gcc/build-gcc-stage2/riscv64-unknown-elf/rv32imac/ilp32/libgcc/../../../../../riscv-gcc/libgcc/soft-fp/fixunsdfsi.c:42
2001194e:	8fed                	and	a5,a5,a1
/home/scratch/jenkins/workspace/tpp-freedom-tools/tpp04--build-binary-packages--parameterized/obj/x86_64-linux-centos6/build/riscv64-unknown-elf-gcc/build-gcc-stage2/riscv64-unknown-elf/rv32imac/ilp32/libgcc/../../../../../riscv-gcc/libgcc/soft-fp/fixunsdfsi.c:36
20011950:	86aa                	mv	a3,a0
/home/scratch/jenkins/workspace/tpp-freedom-tools/tpp04--build-binary-packages--parameterized/obj/x86_64-linux-centos6/build/riscv64-unknown-elf-gcc/build-gcc-stage2/riscv64-unknown-elf/rv32imac/ilp32/libgcc/../../../../../riscv-gcc/libgcc/soft-fp/fixunsdfsi.c:42
20011952:	81fd                	srli	a1,a1,0x1f
/home/scratch/jenkins/workspace/tpp-freedom-tools/tpp04--build-binary-packages--parameterized/obj/x86_64-linux-centos6/build/riscv64-unknown-elf-gcc/build-gcc-stage2/riscv64-unknown-elf/rv32imac/ilp32/libgcc/../../../../../riscv-gcc/libgcc/soft-fp/fixunsdfsi.c:43
20011954:	04e65163          	bge	a2,a4,20011996 <__fixunsdfsi+0x5c>
/home/scratch/jenkins/workspace/tpp-freedom-tools/tpp04--build-binary-packages--parameterized/obj/x86_64-linux-centos6/build/riscv64-unknown-elf-gcc/build-gcc-stage2/riscv64-unknown-elf/rv32imac/ilp32/libgcc/../../../../../riscv-gcc/libgcc/soft-fp/fixunsdfsi.c:43 (discriminator 10)
20011958:	41f00613          	li	a2,1055
2001195c:	8e0d                	sub	a2,a2,a1
2001195e:	fff58513          	addi	a0,a1,-1
20011962:	02c75b63          	bge	a4,a2,20011998 <__fixunsdfsi+0x5e>
/home/scratch/jenkins/workspace/tpp-freedom-tools/tpp04--build-binary-packages--parameterized/obj/x86_64-linux-centos6/build/riscv64-unknown-elf-gcc/build-gcc-stage2/riscv64-unknown-elf/rv32imac/ilp32/libgcc/../../../../../riscv-gcc/libgcc/soft-fp/fixunsdfsi.c:43 (discriminator 17)
20011966:	4501                	li	a0,0
20011968:	e985                	bnez	a1,20011998 <__fixunsdfsi+0x5e>
/home/scratch/jenkins/workspace/tpp-freedom-tools/tpp04--build-binary-packages--parameterized/obj/x86_64-linux-centos6/build/riscv64-unknown-elf-gcc/build-gcc-stage2/riscv64-unknown-elf/rv32imac/ilp32/libgcc/../../../../../riscv-gcc/libgcc/soft-fp/fixunsdfsi.c:43 (discriminator 19)
2001196a:	43300513          	li	a0,1075
2001196e:	8d19                	sub	a0,a0,a4
20011970:	467d                	li	a2,31
20011972:	0107e7b3          	or	a5,a5,a6
20011976:	00a64a63          	blt	a2,a0,2001198a <__fixunsdfsi+0x50>
/home/scratch/jenkins/workspace/tpp-freedom-tools/tpp04--build-binary-packages--parameterized/obj/x86_64-linux-centos6/build/riscv64-unknown-elf-gcc/build-gcc-stage2/riscv64-unknown-elf/rv32imac/ilp32/libgcc/../../../../../riscv-gcc/libgcc/soft-fp/fixunsdfsi.c:43 (discriminator 34)
2001197a:	bed70713          	addi	a4,a4,-1043 # ff7ffbed <__global_pointer$+0x7f7fef65>
2001197e:	00e797b3          	sll	a5,a5,a4
20011982:	00a6d533          	srl	a0,a3,a0
20011986:	8d5d                	or	a0,a0,a5
20011988:	8082                	ret
/home/scratch/jenkins/workspace/tpp-freedom-tools/tpp04--build-binary-packages--parameterized/obj/x86_64-linux-centos6/build/riscv64-unknown-elf-gcc/build-gcc-stage2/riscv64-unknown-elf/rv32imac/ilp32/libgcc/../../../../../riscv-gcc/libgcc/soft-fp/fixunsdfsi.c:43 (discriminator 46)
2001198a:	41300513          	li	a0,1043
2001198e:	8d19                	sub	a0,a0,a4
20011990:	00a7d533          	srl	a0,a5,a0
20011994:	8082                	ret
/home/scratch/jenkins/workspace/tpp-freedom-tools/tpp04--build-binary-packages--parameterized/obj/x86_64-linux-centos6/build/riscv64-unknown-elf-gcc/build-gcc-stage2/riscv64-unknown-elf/rv32imac/ilp32/libgcc/../../../../../riscv-gcc/libgcc/soft-fp/fixunsdfsi.c:43
20011996:	4501                	li	a0,0
/home/scratch/jenkins/workspace/tpp-freedom-tools/tpp04--build-binary-packages--parameterized/obj/x86_64-linux-centos6/build/riscv64-unknown-elf-gcc/build-gcc-stage2/riscv64-unknown-elf/rv32imac/ilp32/libgcc/../../../../../riscv-gcc/libgcc/soft-fp/fixunsdfsi.c:47
20011998:	8082                	ret

2001199a <__floatunsidf>:
__floatunsidf():
/home/scratch/jenkins/workspace/tpp-freedom-tools/tpp04--build-binary-packages--parameterized/obj/x86_64-linux-centos6/build/riscv64-unknown-elf-gcc/build-gcc-stage2/riscv64-unknown-elf/rv32imac/ilp32/libgcc/../../../../../riscv-gcc/libgcc/soft-fp/floatunsidf.c:37
2001199a:	1141                	addi	sp,sp,-16
2001199c:	c422                	sw	s0,8(sp)
2001199e:	c606                	sw	ra,12(sp)
200119a0:	842a                	mv	s0,a0
/home/scratch/jenkins/workspace/tpp-freedom-tools/tpp04--build-binary-packages--parameterized/obj/x86_64-linux-centos6/build/riscv64-unknown-elf-gcc/build-gcc-stage2/riscv64-unknown-elf/rv32imac/ilp32/libgcc/../../../../../riscv-gcc/libgcc/soft-fp/floatunsidf.c:41
200119a2:	c121                	beqz	a0,200119e2 <__floatunsidf+0x48>
/home/scratch/jenkins/workspace/tpp-freedom-tools/tpp04--build-binary-packages--parameterized/obj/x86_64-linux-centos6/build/riscv64-unknown-elf-gcc/build-gcc-stage2/riscv64-unknown-elf/rv32imac/ilp32/libgcc/../../../../../riscv-gcc/libgcc/soft-fp/floatunsidf.c:41 (discriminator 6)
200119a4:	2091                	jal	200119e8 <__clzsi2>
200119a6:	41e00713          	li	a4,1054
200119aa:	47a9                	li	a5,10
200119ac:	8f09                	sub	a4,a4,a0
200119ae:	02a7c463          	blt	a5,a0,200119d6 <__floatunsidf+0x3c>
/home/scratch/jenkins/workspace/tpp-freedom-tools/tpp04--build-binary-packages--parameterized/obj/x86_64-linux-centos6/build/riscv64-unknown-elf-gcc/build-gcc-stage2/riscv64-unknown-elf/rv32imac/ilp32/libgcc/../../../../../riscv-gcc/libgcc/soft-fp/floatunsidf.c:41 (discriminator 23)
200119b2:	47ad                	li	a5,11
200119b4:	8f89                	sub	a5,a5,a0
200119b6:	0555                	addi	a0,a0,21
200119b8:	00f457b3          	srl	a5,s0,a5
200119bc:	00a41433          	sll	s0,s0,a0
/home/scratch/jenkins/workspace/tpp-freedom-tools/tpp04--build-binary-packages--parameterized/obj/x86_64-linux-centos6/build/riscv64-unknown-elf-gcc/build-gcc-stage2/riscv64-unknown-elf/rv32imac/ilp32/libgcc/../../../../../riscv-gcc/libgcc/soft-fp/floatunsidf.c:45 (discriminator 126)
200119c0:	40b2                	lw	ra,12(sp)
200119c2:	8522                	mv	a0,s0
/home/scratch/jenkins/workspace/tpp-freedom-tools/tpp04--build-binary-packages--parameterized/obj/x86_64-linux-centos6/build/riscv64-unknown-elf-gcc/build-gcc-stage2/riscv64-unknown-elf/rv32imac/ilp32/libgcc/../../../../../riscv-gcc/libgcc/soft-fp/floatunsidf.c:42 (discriminator 126)
200119c4:	07b2                	slli	a5,a5,0xc
/home/scratch/jenkins/workspace/tpp-freedom-tools/tpp04--build-binary-packages--parameterized/obj/x86_64-linux-centos6/build/riscv64-unknown-elf-gcc/build-gcc-stage2/riscv64-unknown-elf/rv32imac/ilp32/libgcc/../../../../../riscv-gcc/libgcc/soft-fp/floatunsidf.c:45 (discriminator 126)
200119c6:	4422                	lw	s0,8(sp)
/home/scratch/jenkins/workspace/tpp-freedom-tools/tpp04--build-binary-packages--parameterized/obj/x86_64-linux-centos6/build/riscv64-unknown-elf-gcc/build-gcc-stage2/riscv64-unknown-elf/rv32imac/ilp32/libgcc/../../../../../riscv-gcc/libgcc/soft-fp/floatunsidf.c:42 (discriminator 126)
200119c8:	0752                	slli	a4,a4,0x14
200119ca:	83b1                	srli	a5,a5,0xc
200119cc:	00f766b3          	or	a3,a4,a5
/home/scratch/jenkins/workspace/tpp-freedom-tools/tpp04--build-binary-packages--parameterized/obj/x86_64-linux-centos6/build/riscv64-unknown-elf-gcc/build-gcc-stage2/riscv64-unknown-elf/rv32imac/ilp32/libgcc/../../../../../riscv-gcc/libgcc/soft-fp/floatunsidf.c:45 (discriminator 126)
200119d0:	85b6                	mv	a1,a3
200119d2:	0141                	addi	sp,sp,16
200119d4:	8082                	ret
/home/scratch/jenkins/workspace/tpp-freedom-tools/tpp04--build-binary-packages--parameterized/obj/x86_64-linux-centos6/build/riscv64-unknown-elf-gcc/build-gcc-stage2/riscv64-unknown-elf/rv32imac/ilp32/libgcc/../../../../../riscv-gcc/libgcc/soft-fp/floatunsidf.c:41 (discriminator 24)
200119d6:	ff550793          	addi	a5,a0,-11
200119da:	00f417b3          	sll	a5,s0,a5
200119de:	4401                	li	s0,0
200119e0:	b7c5                	j	200119c0 <__floatunsidf+0x26>
/home/scratch/jenkins/workspace/tpp-freedom-tools/tpp04--build-binary-packages--parameterized/obj/x86_64-linux-centos6/build/riscv64-unknown-elf-gcc/build-gcc-stage2/riscv64-unknown-elf/rv32imac/ilp32/libgcc/../../../../../riscv-gcc/libgcc/soft-fp/floatunsidf.c:41
200119e2:	4781                	li	a5,0
200119e4:	4701                	li	a4,0
200119e6:	bfe9                	j	200119c0 <__floatunsidf+0x26>

200119e8 <__clzsi2>:
__clzsi2():
/home/scratch/jenkins/workspace/tpp-freedom-tools/tpp04--build-binary-packages--parameterized/obj/x86_64-linux-centos6/build/riscv64-unknown-elf-gcc/build-gcc-stage2/riscv64-unknown-elf/rv32imac/ilp32/libgcc/../../../../../riscv-gcc/libgcc/libgcc2.c:710
200119e8:	67c1                	lui	a5,0x10
200119ea:	02f57663          	bgeu	a0,a5,20011a16 <__clzsi2+0x2e>
/home/scratch/jenkins/workspace/tpp-freedom-tools/tpp04--build-binary-packages--parameterized/obj/x86_64-linux-centos6/build/riscv64-unknown-elf-gcc/build-gcc-stage2/riscv64-unknown-elf/rv32imac/ilp32/libgcc/../../../../../riscv-gcc/libgcc/libgcc2.c:710 (discriminator 3)
200119ee:	0ff00793          	li	a5,255
200119f2:	00a7b7b3          	sltu	a5,a5,a0
200119f6:	078e                	slli	a5,a5,0x3
/home/scratch/jenkins/workspace/tpp-freedom-tools/tpp04--build-binary-packages--parameterized/obj/x86_64-linux-centos6/build/riscv64-unknown-elf-gcc/build-gcc-stage2/riscv64-unknown-elf/rv32imac/ilp32/libgcc/../../../../../riscv-gcc/libgcc/libgcc2.c:710 (discriminator 14)
200119f8:	02000713          	li	a4,32
200119fc:	8f1d                	sub	a4,a4,a5
200119fe:	00f55533          	srl	a0,a0,a5
20011a02:	fffff797          	auipc	a5,0xfffff
20011a06:	94678793          	addi	a5,a5,-1722 # 20010348 <__clz_tab>
20011a0a:	953e                	add	a0,a0,a5
20011a0c:	00054503          	lbu	a0,0(a0)
/home/scratch/jenkins/workspace/tpp-freedom-tools/tpp04--build-binary-packages--parameterized/obj/x86_64-linux-centos6/build/riscv64-unknown-elf-gcc/build-gcc-stage2/riscv64-unknown-elf/rv32imac/ilp32/libgcc/../../../../../riscv-gcc/libgcc/libgcc2.c:713 (discriminator 14)
20011a10:	40a70533          	sub	a0,a4,a0
20011a14:	8082                	ret
/home/scratch/jenkins/workspace/tpp-freedom-tools/tpp04--build-binary-packages--parameterized/obj/x86_64-linux-centos6/build/riscv64-unknown-elf-gcc/build-gcc-stage2/riscv64-unknown-elf/rv32imac/ilp32/libgcc/../../../../../riscv-gcc/libgcc/libgcc2.c:710 (discriminator 4)
20011a16:	01000737          	lui	a4,0x1000
20011a1a:	47c1                	li	a5,16
20011a1c:	fce56ee3          	bltu	a0,a4,200119f8 <__clzsi2+0x10>
/home/scratch/jenkins/workspace/tpp-freedom-tools/tpp04--build-binary-packages--parameterized/obj/x86_64-linux-centos6/build/riscv64-unknown-elf-gcc/build-gcc-stage2/riscv64-unknown-elf/rv32imac/ilp32/libgcc/../../../../../riscv-gcc/libgcc/libgcc2.c:710
20011a20:	47e1                	li	a5,24
20011a22:	bfd9                	j	200119f8 <__clzsi2+0x10>

20011a24 <sqrt>:
sqrt():
20011a24:	1101                	addi	sp,sp,-32
20011a26:	cc22                	sw	s0,24(sp)
20011a28:	ca26                	sw	s1,20(sp)
20011a2a:	c84a                	sw	s2,16(sp)
20011a2c:	c64e                	sw	s3,12(sp)
20011a2e:	892e                	mv	s2,a1
20011a30:	89aa                	mv	s3,a0
20011a32:	ce06                	sw	ra,28(sp)
20011a34:	20b9                	jal	20011a82 <__ieee754_sqrt>
20011a36:	84aa                	mv	s1,a0
20011a38:	842e                	mv	s0,a1
20011a3a:	864e                	mv	a2,s3
20011a3c:	86ca                	mv	a3,s2
20011a3e:	854e                	mv	a0,s3
20011a40:	85ca                	mv	a1,s2
20011a42:	408010ef          	jal	ra,20012e4a <__unorddf2>
20011a46:	e50d                	bnez	a0,20011a70 <sqrt+0x4c>
20011a48:	4601                	li	a2,0
20011a4a:	4681                	li	a3,0
20011a4c:	854e                	mv	a0,s3
20011a4e:	85ca                	mv	a1,s2
20011a50:	713000ef          	jal	ra,20012962 <__ledf2>
20011a54:	00055e63          	bgez	a0,20011a70 <sqrt+0x4c>
20011a58:	2a65                	jal	20011c10 <__errno>
20011a5a:	02100793          	li	a5,33
20011a5e:	4601                	li	a2,0
20011a60:	4681                	li	a3,0
20011a62:	c11c                	sw	a5,0(a0)
20011a64:	85b6                	mv	a1,a3
20011a66:	8532                	mv	a0,a2
20011a68:	1bb000ef          	jal	ra,20012422 <__divdf3>
20011a6c:	84aa                	mv	s1,a0
20011a6e:	842e                	mv	s0,a1
20011a70:	40f2                	lw	ra,28(sp)
20011a72:	85a2                	mv	a1,s0
20011a74:	4462                	lw	s0,24(sp)
20011a76:	4942                	lw	s2,16(sp)
20011a78:	49b2                	lw	s3,12(sp)
20011a7a:	8526                	mv	a0,s1
20011a7c:	44d2                	lw	s1,20(sp)
20011a7e:	6105                	addi	sp,sp,32
20011a80:	8082                	ret

20011a82 <__ieee754_sqrt>:
__ieee754_sqrt():
20011a82:	1141                	addi	sp,sp,-16
20011a84:	7ff00837          	lui	a6,0x7ff00
20011a88:	c422                	sw	s0,8(sp)
20011a8a:	c226                	sw	s1,4(sp)
20011a8c:	c606                	sw	ra,12(sp)
20011a8e:	00b876b3          	and	a3,a6,a1
20011a92:	84aa                	mv	s1,a0
20011a94:	842e                	mv	s0,a1
20011a96:	03069463          	bne	a3,a6,20011abe <__ieee754_sqrt+0x3c>
20011a9a:	862a                	mv	a2,a0
20011a9c:	86ae                	mv	a3,a1
20011a9e:	76b000ef          	jal	ra,20012a08 <__muldf3>
20011aa2:	862a                	mv	a2,a0
20011aa4:	86ae                	mv	a3,a1
20011aa6:	8526                	mv	a0,s1
20011aa8:	85a2                	mv	a1,s0
20011aaa:	26bd                	jal	20011e18 <__adddf3>
20011aac:	84aa                	mv	s1,a0
20011aae:	842e                	mv	s0,a1
20011ab0:	40b2                	lw	ra,12(sp)
20011ab2:	85a2                	mv	a1,s0
20011ab4:	4422                	lw	s0,8(sp)
20011ab6:	8526                	mv	a0,s1
20011ab8:	4492                	lw	s1,4(sp)
20011aba:	0141                	addi	sp,sp,16
20011abc:	8082                	ret
20011abe:	87ae                	mv	a5,a1
20011ac0:	872a                	mv	a4,a0
20011ac2:	02b04163          	bgtz	a1,20011ae4 <__ieee754_sqrt+0x62>
20011ac6:	00159693          	slli	a3,a1,0x1
20011aca:	8285                	srli	a3,a3,0x1
20011acc:	8ec9                	or	a3,a3,a0
20011ace:	d2ed                	beqz	a3,20011ab0 <__ieee754_sqrt+0x2e>
20011ad0:	c991                	beqz	a1,20011ae4 <__ieee754_sqrt+0x62>
20011ad2:	862a                	mv	a2,a0
20011ad4:	86ae                	mv	a3,a1
20011ad6:	84dff0ef          	jal	ra,20011322 <__subdf3>
20011ada:	862a                	mv	a2,a0
20011adc:	86ae                	mv	a3,a1
20011ade:	145000ef          	jal	ra,20012422 <__divdf3>
20011ae2:	b7e9                	j	20011aac <__ieee754_sqrt+0x2a>
20011ae4:	4147d693          	srai	a3,a5,0x14
20011ae8:	10068763          	beqz	a3,20011bf6 <__ieee754_sqrt+0x174>
20011aec:	00100637          	lui	a2,0x100
20011af0:	fff60593          	addi	a1,a2,-1 # fffff <__heap_size+0xff7ff>
20011af4:	c0168693          	addi	a3,a3,-1023 # 7feffc01 <metal_segment_data_source_start+0x5fee9fb9>
20011af8:	8fed                	and	a5,a5,a1
20011afa:	8fd1                	or	a5,a5,a2
20011afc:	0016f613          	andi	a2,a3,1
20011b00:	c611                	beqz	a2,20011b0c <__ieee754_sqrt+0x8a>
20011b02:	01f75613          	srli	a2,a4,0x1f
20011b06:	0786                	slli	a5,a5,0x1
20011b08:	97b2                	add	a5,a5,a2
20011b0a:	0706                	slli	a4,a4,0x1
20011b0c:	4016de13          	srai	t3,a3,0x1
20011b10:	0786                	slli	a5,a5,0x1
20011b12:	01f75693          	srli	a3,a4,0x1f
20011b16:	97b6                	add	a5,a5,a3
20011b18:	0706                	slli	a4,a4,0x1
20011b1a:	4559                	li	a0,22
20011b1c:	4601                	li	a2,0
20011b1e:	4581                	li	a1,0
20011b20:	00200837          	lui	a6,0x200
20011b24:	010588b3          	add	a7,a1,a6
20011b28:	0117c763          	blt	a5,a7,20011b36 <__ieee754_sqrt+0xb4>
20011b2c:	010885b3          	add	a1,a7,a6
20011b30:	411787b3          	sub	a5,a5,a7
20011b34:	9642                	add	a2,a2,a6
20011b36:	01f75693          	srli	a3,a4,0x1f
20011b3a:	0786                	slli	a5,a5,0x1
20011b3c:	157d                	addi	a0,a0,-1
20011b3e:	97b6                	add	a5,a5,a3
20011b40:	0706                	slli	a4,a4,0x1
20011b42:	00185813          	srli	a6,a6,0x1
20011b46:	fd79                	bnez	a0,20011b24 <__ieee754_sqrt+0xa2>
20011b48:	4681                	li	a3,0
20011b4a:	02000313          	li	t1,32
20011b4e:	80000837          	lui	a6,0x80000
20011b52:	00a808b3          	add	a7,a6,a0
20011b56:	00f5c663          	blt	a1,a5,20011b62 <__ieee754_sqrt+0xe0>
20011b5a:	02b79563          	bne	a5,a1,20011b84 <__ieee754_sqrt+0x102>
20011b5e:	03176363          	bltu	a4,a7,20011b84 <__ieee754_sqrt+0x102>
20011b62:	01088533          	add	a0,a7,a6
20011b66:	8eae                	mv	t4,a1
20011b68:	0008d663          	bgez	a7,20011b74 <__ieee754_sqrt+0xf2>
20011b6c:	00054463          	bltz	a0,20011b74 <__ieee754_sqrt+0xf2>
20011b70:	00158e93          	addi	t4,a1,1
20011b74:	8f8d                	sub	a5,a5,a1
20011b76:	01177363          	bgeu	a4,a7,20011b7c <__ieee754_sqrt+0xfa>
20011b7a:	17fd                	addi	a5,a5,-1
20011b7c:	41170733          	sub	a4,a4,a7
20011b80:	96c2                	add	a3,a3,a6
20011b82:	85f6                	mv	a1,t4
20011b84:	01f75893          	srli	a7,a4,0x1f
20011b88:	0786                	slli	a5,a5,0x1
20011b8a:	137d                	addi	t1,t1,-1
20011b8c:	97c6                	add	a5,a5,a7
20011b8e:	0706                	slli	a4,a4,0x1
20011b90:	00185813          	srli	a6,a6,0x1
20011b94:	fa031fe3          	bnez	t1,20011b52 <__ieee754_sqrt+0xd0>
20011b98:	8fd9                	or	a5,a5,a4
20011b9a:	c791                	beqz	a5,20011ba6 <__ieee754_sqrt+0x124>
20011b9c:	57fd                	li	a5,-1
20011b9e:	06f69163          	bne	a3,a5,20011c00 <__ieee754_sqrt+0x17e>
20011ba2:	0605                	addi	a2,a2,1
20011ba4:	4681                	li	a3,0
20011ba6:	40165793          	srai	a5,a2,0x1
20011baa:	3fe00737          	lui	a4,0x3fe00
20011bae:	8a05                	andi	a2,a2,1
20011bb0:	97ba                	add	a5,a5,a4
20011bb2:	8285                	srli	a3,a3,0x1
20011bb4:	c601                	beqz	a2,20011bbc <__ieee754_sqrt+0x13a>
20011bb6:	80000737          	lui	a4,0x80000
20011bba:	8ed9                	or	a3,a3,a4
20011bbc:	014e1713          	slli	a4,t3,0x14
20011bc0:	84b6                	mv	s1,a3
20011bc2:	00f70433          	add	s0,a4,a5
20011bc6:	b5ed                	j	20011ab0 <__ieee754_sqrt+0x2e>
20011bc8:	00b75793          	srli	a5,a4,0xb
20011bcc:	15ad                	addi	a1,a1,-21
20011bce:	0756                	slli	a4,a4,0x15
20011bd0:	dfe5                	beqz	a5,20011bc8 <__ieee754_sqrt+0x146>
20011bd2:	00100537          	lui	a0,0x100
20011bd6:	00a7f633          	and	a2,a5,a0
20011bda:	c205                	beqz	a2,20011bfa <__ieee754_sqrt+0x178>
20011bdc:	02000613          	li	a2,32
20011be0:	8e15                	sub	a2,a2,a3
20011be2:	00c75633          	srl	a2,a4,a2
20011be6:	fff68513          	addi	a0,a3,-1
20011bea:	00d71733          	sll	a4,a4,a3
20011bee:	8fd1                	or	a5,a5,a2
20011bf0:	40a586b3          	sub	a3,a1,a0
20011bf4:	bde5                	j	20011aec <__ieee754_sqrt+0x6a>
20011bf6:	4581                	li	a1,0
20011bf8:	bfe1                	j	20011bd0 <__ieee754_sqrt+0x14e>
20011bfa:	0786                	slli	a5,a5,0x1
20011bfc:	0685                	addi	a3,a3,1
20011bfe:	bfe1                	j	20011bd6 <__ieee754_sqrt+0x154>
20011c00:	0685                	addi	a3,a3,1
20011c02:	9af9                	andi	a3,a3,-2
20011c04:	b74d                	j	20011ba6 <__ieee754_sqrt+0x124>

20011c06 <atexit>:
atexit():
20011c06:	85aa                	mv	a1,a0
20011c08:	4681                	li	a3,0
20011c0a:	4601                	li	a2,0
20011c0c:	4501                	li	a0,0
20011c0e:	a0d9                	j	20011cd4 <__register_exitproc>

20011c10 <__errno>:
__errno():
20011c10:	80c1a503          	lw	a0,-2036(gp) # 80000494 <_impure_ptr>
20011c14:	8082                	ret

20011c16 <exit>:
exit():
20011c16:	1141                	addi	sp,sp,-16
20011c18:	c422                	sw	s0,8(sp)
20011c1a:	c606                	sw	ra,12(sp)
20011c1c:	00000797          	auipc	a5,0x0
20011c20:	13478793          	addi	a5,a5,308 # 20011d50 <__call_exitprocs>
20011c24:	842a                	mv	s0,a0
20011c26:	c399                	beqz	a5,20011c2c <exit+0x16>
20011c28:	4581                	li	a1,0
20011c2a:	221d                	jal	20011d50 <__call_exitprocs>
20011c2c:	fffff517          	auipc	a0,0xfffff
20011c30:	2c452503          	lw	a0,708(a0) # 20010ef0 <_global_impure_ptr>
20011c34:	551c                	lw	a5,40(a0)
20011c36:	c391                	beqz	a5,20011c3a <exit+0x24>
20011c38:	9782                	jalr	a5
20011c3a:	8522                	mv	a0,s0
20011c3c:	7f5030ef          	jal	ra,20015c30 <_exit>

20011c40 <__libc_fini_array>:
__libc_fini_array():
20011c40:	1141                	addi	sp,sp,-16
20011c42:	c422                	sw	s0,8(sp)
20011c44:	c226                	sw	s1,4(sp)
20011c46:	ffffe417          	auipc	s0,0xffffe
20011c4a:	6a240413          	addi	s0,s0,1698 # 200102e8 <metal_sifive_fe310_g000_pll_init>
20011c4e:	ffffe497          	auipc	s1,0xffffe
20011c52:	69a48493          	addi	s1,s1,1690 # 200102e8 <metal_sifive_fe310_g000_pll_init>
20011c56:	8c05                	sub	s0,s0,s1
20011c58:	c606                	sw	ra,12(sp)
20011c5a:	8409                	srai	s0,s0,0x2
20011c5c:	e411                	bnez	s0,20011c68 <__libc_fini_array+0x28>
20011c5e:	40b2                	lw	ra,12(sp)
20011c60:	4422                	lw	s0,8(sp)
20011c62:	4492                	lw	s1,4(sp)
20011c64:	0141                	addi	sp,sp,16
20011c66:	8082                	ret
20011c68:	147d                	addi	s0,s0,-1
20011c6a:	00241793          	slli	a5,s0,0x2
20011c6e:	97a6                	add	a5,a5,s1
20011c70:	439c                	lw	a5,0(a5)
20011c72:	9782                	jalr	a5
20011c74:	b7e5                	j	20011c5c <__libc_fini_array+0x1c>

20011c76 <__libc_init_array>:
__libc_init_array():
20011c76:	1141                	addi	sp,sp,-16
20011c78:	c422                	sw	s0,8(sp)
20011c7a:	c226                	sw	s1,4(sp)
20011c7c:	ffffe417          	auipc	s0,0xffffe
20011c80:	66440413          	addi	s0,s0,1636 # 200102e0 <_metal_sifive_fe310_g000_pll_init_ptr>
20011c84:	ffffe497          	auipc	s1,0xffffe
20011c88:	65c48493          	addi	s1,s1,1628 # 200102e0 <_metal_sifive_fe310_g000_pll_init_ptr>
20011c8c:	8c81                	sub	s1,s1,s0
20011c8e:	c04a                	sw	s2,0(sp)
20011c90:	c606                	sw	ra,12(sp)
20011c92:	8489                	srai	s1,s1,0x2
20011c94:	4901                	li	s2,0
20011c96:	02991563          	bne	s2,s1,20011cc0 <__libc_init_array+0x4a>
20011c9a:	ffffe417          	auipc	s0,0xffffe
20011c9e:	64640413          	addi	s0,s0,1606 # 200102e0 <_metal_sifive_fe310_g000_pll_init_ptr>
20011ca2:	ffffe497          	auipc	s1,0xffffe
20011ca6:	63e48493          	addi	s1,s1,1598 # 200102e0 <_metal_sifive_fe310_g000_pll_init_ptr>
20011caa:	8c81                	sub	s1,s1,s0
20011cac:	8489                	srai	s1,s1,0x2
20011cae:	4901                	li	s2,0
20011cb0:	00991d63          	bne	s2,s1,20011cca <__libc_init_array+0x54>
20011cb4:	40b2                	lw	ra,12(sp)
20011cb6:	4422                	lw	s0,8(sp)
20011cb8:	4492                	lw	s1,4(sp)
20011cba:	4902                	lw	s2,0(sp)
20011cbc:	0141                	addi	sp,sp,16
20011cbe:	8082                	ret
20011cc0:	401c                	lw	a5,0(s0)
20011cc2:	0905                	addi	s2,s2,1
20011cc4:	0411                	addi	s0,s0,4
20011cc6:	9782                	jalr	a5
20011cc8:	b7f9                	j	20011c96 <__libc_init_array+0x20>
20011cca:	401c                	lw	a5,0(s0)
20011ccc:	0905                	addi	s2,s2,1
20011cce:	0411                	addi	s0,s0,4
20011cd0:	9782                	jalr	a5
20011cd2:	bff9                	j	20011cb0 <__libc_init_array+0x3a>

20011cd4 <__register_exitproc>:
__register_exitproc():
20011cd4:	88aa                	mv	a7,a0
20011cd6:	5ffee517          	auipc	a0,0x5ffee
20011cda:	7de50513          	addi	a0,a0,2014 # 800004b4 <_global_atexit>
20011cde:	411c                	lw	a5,0(a0)
20011ce0:	ef91                	bnez	a5,20011cfc <__register_exitproc+0x28>
20011ce2:	5ffee717          	auipc	a4,0x5ffee
20011ce6:	7de70713          	addi	a4,a4,2014 # 800004c0 <_global_atexit0>
20011cea:	c118                	sw	a4,0(a0)
20011cec:	00000513          	li	a0,0
20011cf0:	87ba                	mv	a5,a4
20011cf2:	c509                	beqz	a0,20011cfc <__register_exitproc+0x28>
20011cf4:	411c                	lw	a5,0(a0)
20011cf6:	08f72423          	sw	a5,136(a4)
20011cfa:	87ba                	mv	a5,a4
20011cfc:	43d8                	lw	a4,4(a5)
20011cfe:	487d                	li	a6,31
20011d00:	557d                	li	a0,-1
20011d02:	04e84663          	blt	a6,a4,20011d4e <__register_exitproc+0x7a>
20011d06:	02088d63          	beqz	a7,20011d40 <__register_exitproc+0x6c>
20011d0a:	0887a803          	lw	a6,136(a5)
20011d0e:	04080063          	beqz	a6,20011d4e <__register_exitproc+0x7a>
20011d12:	00271513          	slli	a0,a4,0x2
20011d16:	9542                	add	a0,a0,a6
20011d18:	c110                	sw	a2,0(a0)
20011d1a:	10082303          	lw	t1,256(a6) # 80000100 <__global_pointer$+0xfffff478>
20011d1e:	4605                	li	a2,1
20011d20:	00e61633          	sll	a2,a2,a4
20011d24:	00c36333          	or	t1,t1,a2
20011d28:	10682023          	sw	t1,256(a6)
20011d2c:	08d52023          	sw	a3,128(a0)
20011d30:	4689                	li	a3,2
20011d32:	00d89763          	bne	a7,a3,20011d40 <__register_exitproc+0x6c>
20011d36:	10482683          	lw	a3,260(a6)
20011d3a:	8e55                	or	a2,a2,a3
20011d3c:	10c82223          	sw	a2,260(a6)
20011d40:	00170693          	addi	a3,a4,1
20011d44:	070a                	slli	a4,a4,0x2
20011d46:	c3d4                	sw	a3,4(a5)
20011d48:	97ba                	add	a5,a5,a4
20011d4a:	c78c                	sw	a1,8(a5)
20011d4c:	4501                	li	a0,0
20011d4e:	8082                	ret

20011d50 <__call_exitprocs>:
__call_exitprocs():
20011d50:	7179                	addi	sp,sp,-48
20011d52:	ca56                	sw	s5,20(sp)
20011d54:	c85a                	sw	s6,16(sp)
20011d56:	c65e                	sw	s7,12(sp)
20011d58:	c462                	sw	s8,8(sp)
20011d5a:	d606                	sw	ra,44(sp)
20011d5c:	d422                	sw	s0,40(sp)
20011d5e:	d226                	sw	s1,36(sp)
20011d60:	d04a                	sw	s2,32(sp)
20011d62:	ce4e                	sw	s3,28(sp)
20011d64:	cc52                	sw	s4,24(sp)
20011d66:	c266                	sw	s9,4(sp)
20011d68:	8b2a                	mv	s6,a0
20011d6a:	8aae                	mv	s5,a1
20011d6c:	5ffeeb97          	auipc	s7,0x5ffee
20011d70:	748b8b93          	addi	s7,s7,1864 # 800004b4 <_global_atexit>
20011d74:	4c05                	li	s8,1
20011d76:	000ba483          	lw	s1,0(s7)
20011d7a:	cc81                	beqz	s1,20011d92 <__call_exitprocs+0x42>
20011d7c:	40c0                	lw	s0,4(s1)
20011d7e:	0884a983          	lw	s3,136(s1)
20011d82:	fff40913          	addi	s2,s0,-1
20011d86:	040a                	slli	s0,s0,0x2
20011d88:	00898a33          	add	s4,s3,s0
20011d8c:	9426                	add	s0,s0,s1
20011d8e:	00095f63          	bgez	s2,20011dac <__call_exitprocs+0x5c>
20011d92:	50b2                	lw	ra,44(sp)
20011d94:	5422                	lw	s0,40(sp)
20011d96:	5492                	lw	s1,36(sp)
20011d98:	5902                	lw	s2,32(sp)
20011d9a:	49f2                	lw	s3,28(sp)
20011d9c:	4a62                	lw	s4,24(sp)
20011d9e:	4ad2                	lw	s5,20(sp)
20011da0:	4b42                	lw	s6,16(sp)
20011da2:	4bb2                	lw	s7,12(sp)
20011da4:	4c22                	lw	s8,8(sp)
20011da6:	4c92                	lw	s9,4(sp)
20011da8:	6145                	addi	sp,sp,48
20011daa:	8082                	ret
20011dac:	000a8c63          	beqz	s5,20011dc4 <__call_exitprocs+0x74>
20011db0:	00099663          	bnez	s3,20011dbc <__call_exitprocs+0x6c>
20011db4:	197d                	addi	s2,s2,-1
20011db6:	1a71                	addi	s4,s4,-4
20011db8:	1471                	addi	s0,s0,-4
20011dba:	bfd1                	j	20011d8e <__call_exitprocs+0x3e>
20011dbc:	07ca2783          	lw	a5,124(s4)
20011dc0:	ff579ae3          	bne	a5,s5,20011db4 <__call_exitprocs+0x64>
20011dc4:	40d8                	lw	a4,4(s1)
20011dc6:	405c                	lw	a5,4(s0)
20011dc8:	177d                	addi	a4,a4,-1
20011dca:	03271863          	bne	a4,s2,20011dfa <__call_exitprocs+0xaa>
20011dce:	0124a223          	sw	s2,4(s1)
20011dd2:	d3ed                	beqz	a5,20011db4 <__call_exitprocs+0x64>
20011dd4:	0044ac83          	lw	s9,4(s1)
20011dd8:	00098863          	beqz	s3,20011de8 <__call_exitprocs+0x98>
20011ddc:	1009a683          	lw	a3,256(s3)
20011de0:	012c1733          	sll	a4,s8,s2
20011de4:	8ef9                	and	a3,a3,a4
20011de6:	ee89                	bnez	a3,20011e00 <__call_exitprocs+0xb0>
20011de8:	9782                	jalr	a5
20011dea:	40d8                	lw	a4,4(s1)
20011dec:	000ba783          	lw	a5,0(s7)
20011df0:	f99713e3          	bne	a4,s9,20011d76 <__call_exitprocs+0x26>
20011df4:	fcf480e3          	beq	s1,a5,20011db4 <__call_exitprocs+0x64>
20011df8:	bfbd                	j	20011d76 <__call_exitprocs+0x26>
20011dfa:	00042223          	sw	zero,4(s0)
20011dfe:	bfd1                	j	20011dd2 <__call_exitprocs+0x82>
20011e00:	1049a683          	lw	a3,260(s3)
20011e04:	ffca2583          	lw	a1,-4(s4)
20011e08:	8f75                	and	a4,a4,a3
20011e0a:	e701                	bnez	a4,20011e12 <__call_exitprocs+0xc2>
20011e0c:	855a                	mv	a0,s6
20011e0e:	9782                	jalr	a5
20011e10:	bfe9                	j	20011dea <__call_exitprocs+0x9a>
20011e12:	852e                	mv	a0,a1
20011e14:	9782                	jalr	a5
20011e16:	bfd1                	j	20011dea <__call_exitprocs+0x9a>

20011e18 <__adddf3>:
__adddf3():
/home/scratch/jenkins/workspace/tpp-freedom-tools/tpp04--build-binary-packages--parameterized/obj/x86_64-linux-centos6/build/riscv64-unknown-elf-gcc/build-gcc-stage2/riscv64-unknown-elf/rv32imac/ilp32/libgcc/../../../../../riscv-gcc/libgcc/soft-fp/adddf3.c:44
20011e18:	00100837          	lui	a6,0x100
20011e1c:	187d                	addi	a6,a6,-1
/home/scratch/jenkins/workspace/tpp-freedom-tools/tpp04--build-binary-packages--parameterized/obj/x86_64-linux-centos6/build/riscv64-unknown-elf-gcc/build-gcc-stage2/riscv64-unknown-elf/rv32imac/ilp32/libgcc/../../../../../riscv-gcc/libgcc/soft-fp/adddf3.c:36
20011e1e:	1101                	addi	sp,sp,-32
/home/scratch/jenkins/workspace/tpp-freedom-tools/tpp04--build-binary-packages--parameterized/obj/x86_64-linux-centos6/build/riscv64-unknown-elf-gcc/build-gcc-stage2/riscv64-unknown-elf/rv32imac/ilp32/libgcc/../../../../../riscv-gcc/libgcc/soft-fp/adddf3.c:44
20011e20:	00b877b3          	and	a5,a6,a1
20011e24:	0145d713          	srli	a4,a1,0x14
/home/scratch/jenkins/workspace/tpp-freedom-tools/tpp04--build-binary-packages--parameterized/obj/x86_64-linux-centos6/build/riscv64-unknown-elf-gcc/build-gcc-stage2/riscv64-unknown-elf/rv32imac/ilp32/libgcc/../../../../../riscv-gcc/libgcc/soft-fp/adddf3.c:45
20011e28:	00d87833          	and	a6,a6,a3
20011e2c:	0146d313          	srli	t1,a3,0x14
/home/scratch/jenkins/workspace/tpp-freedom-tools/tpp04--build-binary-packages--parameterized/obj/x86_64-linux-centos6/build/riscv64-unknown-elf-gcc/build-gcc-stage2/riscv64-unknown-elf/rv32imac/ilp32/libgcc/../../../../../riscv-gcc/libgcc/soft-fp/adddf3.c:36
20011e30:	cc22                	sw	s0,24(sp)
/home/scratch/jenkins/workspace/tpp-freedom-tools/tpp04--build-binary-packages--parameterized/obj/x86_64-linux-centos6/build/riscv64-unknown-elf-gcc/build-gcc-stage2/riscv64-unknown-elf/rv32imac/ilp32/libgcc/../../../../../riscv-gcc/libgcc/soft-fp/adddf3.c:44
20011e32:	078e                	slli	a5,a5,0x3
20011e34:	7ff77413          	andi	s0,a4,2047
20011e38:	01d55713          	srli	a4,a0,0x1d
/home/scratch/jenkins/workspace/tpp-freedom-tools/tpp04--build-binary-packages--parameterized/obj/x86_64-linux-centos6/build/riscv64-unknown-elf-gcc/build-gcc-stage2/riscv64-unknown-elf/rv32imac/ilp32/libgcc/../../../../../riscv-gcc/libgcc/soft-fp/adddf3.c:45
20011e3c:	080e                	slli	a6,a6,0x3
/home/scratch/jenkins/workspace/tpp-freedom-tools/tpp04--build-binary-packages--parameterized/obj/x86_64-linux-centos6/build/riscv64-unknown-elf-gcc/build-gcc-stage2/riscv64-unknown-elf/rv32imac/ilp32/libgcc/../../../../../riscv-gcc/libgcc/soft-fp/adddf3.c:36
20011e3e:	ca26                	sw	s1,20(sp)
/home/scratch/jenkins/workspace/tpp-freedom-tools/tpp04--build-binary-packages--parameterized/obj/x86_64-linux-centos6/build/riscv64-unknown-elf-gcc/build-gcc-stage2/riscv64-unknown-elf/rv32imac/ilp32/libgcc/../../../../../riscv-gcc/libgcc/soft-fp/adddf3.c:44
20011e40:	8fd9                	or	a5,a5,a4
20011e42:	01f5d493          	srli	s1,a1,0x1f
/home/scratch/jenkins/workspace/tpp-freedom-tools/tpp04--build-binary-packages--parameterized/obj/x86_64-linux-centos6/build/riscv64-unknown-elf-gcc/build-gcc-stage2/riscv64-unknown-elf/rv32imac/ilp32/libgcc/../../../../../riscv-gcc/libgcc/soft-fp/adddf3.c:45
20011e46:	01d65713          	srli	a4,a2,0x1d
20011e4a:	7ff37313          	andi	t1,t1,2047
/home/scratch/jenkins/workspace/tpp-freedom-tools/tpp04--build-binary-packages--parameterized/obj/x86_64-linux-centos6/build/riscv64-unknown-elf-gcc/build-gcc-stage2/riscv64-unknown-elf/rv32imac/ilp32/libgcc/../../../../../riscv-gcc/libgcc/soft-fp/adddf3.c:36
20011e4e:	ce06                	sw	ra,28(sp)
20011e50:	c84a                	sw	s2,16(sp)
20011e52:	c64e                	sw	s3,12(sp)
/home/scratch/jenkins/workspace/tpp-freedom-tools/tpp04--build-binary-packages--parameterized/obj/x86_64-linux-centos6/build/riscv64-unknown-elf-gcc/build-gcc-stage2/riscv64-unknown-elf/rv32imac/ilp32/libgcc/../../../../../riscv-gcc/libgcc/soft-fp/adddf3.c:45
20011e54:	82fd                	srli	a3,a3,0x1f
20011e56:	01076733          	or	a4,a4,a6
/home/scratch/jenkins/workspace/tpp-freedom-tools/tpp04--build-binary-packages--parameterized/obj/x86_64-linux-centos6/build/riscv64-unknown-elf-gcc/build-gcc-stage2/riscv64-unknown-elf/rv32imac/ilp32/libgcc/../../../../../riscv-gcc/libgcc/soft-fp/adddf3.c:44
20011e5a:	00351593          	slli	a1,a0,0x3
/home/scratch/jenkins/workspace/tpp-freedom-tools/tpp04--build-binary-packages--parameterized/obj/x86_64-linux-centos6/build/riscv64-unknown-elf-gcc/build-gcc-stage2/riscv64-unknown-elf/rv32imac/ilp32/libgcc/../../../../../riscv-gcc/libgcc/soft-fp/adddf3.c:45
20011e5e:	060e                	slli	a2,a2,0x3
/home/scratch/jenkins/workspace/tpp-freedom-tools/tpp04--build-binary-packages--parameterized/obj/x86_64-linux-centos6/build/riscv64-unknown-elf-gcc/build-gcc-stage2/riscv64-unknown-elf/rv32imac/ilp32/libgcc/../../../../../riscv-gcc/libgcc/soft-fp/adddf3.c:46
20011e60:	40640833          	sub	a6,s0,t1
20011e64:	22d49863          	bne	s1,a3,20012094 <__adddf3+0x27c>
/home/scratch/jenkins/workspace/tpp-freedom-tools/tpp04--build-binary-packages--parameterized/obj/x86_64-linux-centos6/build/riscv64-unknown-elf-gcc/build-gcc-stage2/riscv64-unknown-elf/rv32imac/ilp32/libgcc/../../../../../riscv-gcc/libgcc/soft-fp/adddf3.c:46 (discriminator 7)
20011e68:	0f005363          	blez	a6,20011f4e <__adddf3+0x136>
/home/scratch/jenkins/workspace/tpp-freedom-tools/tpp04--build-binary-packages--parameterized/obj/x86_64-linux-centos6/build/riscv64-unknown-elf-gcc/build-gcc-stage2/riscv64-unknown-elf/rv32imac/ilp32/libgcc/../../../../../riscv-gcc/libgcc/soft-fp/adddf3.c:46 (discriminator 9)
20011e6c:	02031863          	bnez	t1,20011e9c <__adddf3+0x84>
/home/scratch/jenkins/workspace/tpp-freedom-tools/tpp04--build-binary-packages--parameterized/obj/x86_64-linux-centos6/build/riscv64-unknown-elf-gcc/build-gcc-stage2/riscv64-unknown-elf/rv32imac/ilp32/libgcc/../../../../../riscv-gcc/libgcc/soft-fp/adddf3.c:46 (discriminator 11)
20011e70:	00c766b3          	or	a3,a4,a2
20011e74:	58068363          	beqz	a3,200123fa <__adddf3+0x5e2>
/home/scratch/jenkins/workspace/tpp-freedom-tools/tpp04--build-binary-packages--parameterized/obj/x86_64-linux-centos6/build/riscv64-unknown-elf-gcc/build-gcc-stage2/riscv64-unknown-elf/rv32imac/ilp32/libgcc/../../../../../riscv-gcc/libgcc/soft-fp/adddf3.c:46 (discriminator 14)
20011e78:	fff80513          	addi	a0,a6,-1 # fffff <__heap_size+0xff7ff>
20011e7c:	e909                	bnez	a0,20011e8e <__adddf3+0x76>
/home/scratch/jenkins/workspace/tpp-freedom-tools/tpp04--build-binary-packages--parameterized/obj/x86_64-linux-centos6/build/riscv64-unknown-elf-gcc/build-gcc-stage2/riscv64-unknown-elf/rv32imac/ilp32/libgcc/../../../../../riscv-gcc/libgcc/soft-fp/adddf3.c:46 (discriminator 23)
20011e7e:	962e                	add	a2,a2,a1
20011e80:	00b63533          	sltu	a0,a2,a1
20011e84:	97ba                	add	a5,a5,a4
20011e86:	97aa                	add	a5,a5,a0
20011e88:	85b2                	mv	a1,a2
/home/scratch/jenkins/workspace/tpp-freedom-tools/tpp04--build-binary-packages--parameterized/obj/x86_64-linux-centos6/build/riscv64-unknown-elf-gcc/build-gcc-stage2/riscv64-unknown-elf/rv32imac/ilp32/libgcc/../../../../../riscv-gcc/libgcc/soft-fp/adddf3.c:45 (discriminator 80)
20011e8a:	4405                	li	s0,1
/home/scratch/jenkins/workspace/tpp-freedom-tools/tpp04--build-binary-packages--parameterized/obj/x86_64-linux-centos6/build/riscv64-unknown-elf-gcc/build-gcc-stage2/riscv64-unknown-elf/rv32imac/ilp32/libgcc/../../../../../riscv-gcc/libgcc/soft-fp/adddf3.c:46 (discriminator 80)
20011e8c:	a8b9                	j	20011eea <__adddf3+0xd2>
/home/scratch/jenkins/workspace/tpp-freedom-tools/tpp04--build-binary-packages--parameterized/obj/x86_64-linux-centos6/build/riscv64-unknown-elf-gcc/build-gcc-stage2/riscv64-unknown-elf/rv32imac/ilp32/libgcc/../../../../../riscv-gcc/libgcc/soft-fp/adddf3.c:46 (discriminator 24)
20011e8e:	7ff00693          	li	a3,2047
20011e92:	00d81d63          	bne	a6,a3,20011eac <__adddf3+0x94>
/home/scratch/jenkins/workspace/tpp-freedom-tools/tpp04--build-binary-packages--parameterized/obj/x86_64-linux-centos6/build/riscv64-unknown-elf-gcc/build-gcc-stage2/riscv64-unknown-elf/rv32imac/ilp32/libgcc/../../../../../riscv-gcc/libgcc/soft-fp/adddf3.c:46
20011e96:	7ff00413          	li	s0,2047
20011e9a:	a24d                	j	2001203c <__adddf3+0x224>
/home/scratch/jenkins/workspace/tpp-freedom-tools/tpp04--build-binary-packages--parameterized/obj/x86_64-linux-centos6/build/riscv64-unknown-elf-gcc/build-gcc-stage2/riscv64-unknown-elf/rv32imac/ilp32/libgcc/../../../../../riscv-gcc/libgcc/soft-fp/adddf3.c:46 (discriminator 12)
20011e9c:	7ff00693          	li	a3,2047
20011ea0:	18d40e63          	beq	s0,a3,2001203c <__adddf3+0x224>
/home/scratch/jenkins/workspace/tpp-freedom-tools/tpp04--build-binary-packages--parameterized/obj/x86_64-linux-centos6/build/riscv64-unknown-elf-gcc/build-gcc-stage2/riscv64-unknown-elf/rv32imac/ilp32/libgcc/../../../../../riscv-gcc/libgcc/soft-fp/adddf3.c:46 (discriminator 38)
20011ea4:	008006b7          	lui	a3,0x800
20011ea8:	8f55                	or	a4,a4,a3
20011eaa:	8542                	mv	a0,a6
/home/scratch/jenkins/workspace/tpp-freedom-tools/tpp04--build-binary-packages--parameterized/obj/x86_64-linux-centos6/build/riscv64-unknown-elf-gcc/build-gcc-stage2/riscv64-unknown-elf/rv32imac/ilp32/libgcc/../../../../../riscv-gcc/libgcc/soft-fp/adddf3.c:46 (discriminator 47)
20011eac:	03800693          	li	a3,56
20011eb0:	08a6cb63          	blt	a3,a0,20011f46 <__adddf3+0x12e>
/home/scratch/jenkins/workspace/tpp-freedom-tools/tpp04--build-binary-packages--parameterized/obj/x86_64-linux-centos6/build/riscv64-unknown-elf-gcc/build-gcc-stage2/riscv64-unknown-elf/rv32imac/ilp32/libgcc/../../../../../riscv-gcc/libgcc/soft-fp/adddf3.c:46 (discriminator 48)
20011eb4:	46fd                	li	a3,31
20011eb6:	06a6c263          	blt	a3,a0,20011f1a <__adddf3+0x102>
/home/scratch/jenkins/workspace/tpp-freedom-tools/tpp04--build-binary-packages--parameterized/obj/x86_64-linux-centos6/build/riscv64-unknown-elf-gcc/build-gcc-stage2/riscv64-unknown-elf/rv32imac/ilp32/libgcc/../../../../../riscv-gcc/libgcc/soft-fp/adddf3.c:46 (discriminator 50)
20011eba:	02000813          	li	a6,32
20011ebe:	40a80833          	sub	a6,a6,a0
20011ec2:	010716b3          	sll	a3,a4,a6
20011ec6:	00a658b3          	srl	a7,a2,a0
20011eca:	01061633          	sll	a2,a2,a6
20011ece:	0116e6b3          	or	a3,a3,a7
20011ed2:	00c03633          	snez	a2,a2
20011ed6:	8e55                	or	a2,a2,a3
20011ed8:	00a75733          	srl	a4,a4,a0
/home/scratch/jenkins/workspace/tpp-freedom-tools/tpp04--build-binary-packages--parameterized/obj/x86_64-linux-centos6/build/riscv64-unknown-elf-gcc/build-gcc-stage2/riscv64-unknown-elf/rv32imac/ilp32/libgcc/../../../../../riscv-gcc/libgcc/soft-fp/adddf3.c:46 (discriminator 64)
20011edc:	962e                	add	a2,a2,a1
20011ede:	00b63533          	sltu	a0,a2,a1
20011ee2:	973e                	add	a4,a4,a5
20011ee4:	00a707b3          	add	a5,a4,a0
20011ee8:	85b2                	mv	a1,a2
/home/scratch/jenkins/workspace/tpp-freedom-tools/tpp04--build-binary-packages--parameterized/obj/x86_64-linux-centos6/build/riscv64-unknown-elf-gcc/build-gcc-stage2/riscv64-unknown-elf/rv32imac/ilp32/libgcc/../../../../../riscv-gcc/libgcc/soft-fp/adddf3.c:46 (discriminator 122)
20011eea:	00800737          	lui	a4,0x800
20011eee:	8f7d                	and	a4,a4,a5
20011ef0:	14070663          	beqz	a4,2001203c <__adddf3+0x224>
/home/scratch/jenkins/workspace/tpp-freedom-tools/tpp04--build-binary-packages--parameterized/obj/x86_64-linux-centos6/build/riscv64-unknown-elf-gcc/build-gcc-stage2/riscv64-unknown-elf/rv32imac/ilp32/libgcc/../../../../../riscv-gcc/libgcc/soft-fp/adddf3.c:46 (discriminator 182)
20011ef4:	0405                	addi	s0,s0,1
20011ef6:	7ff00713          	li	a4,2047
20011efa:	48e40d63          	beq	s0,a4,20012394 <__adddf3+0x57c>
/home/scratch/jenkins/workspace/tpp-freedom-tools/tpp04--build-binary-packages--parameterized/obj/x86_64-linux-centos6/build/riscv64-unknown-elf-gcc/build-gcc-stage2/riscv64-unknown-elf/rv32imac/ilp32/libgcc/../../../../../riscv-gcc/libgcc/soft-fp/adddf3.c:46
20011efe:	ff800737          	lui	a4,0xff800
20011f02:	177d                	addi	a4,a4,-1
20011f04:	8ff9                	and	a5,a5,a4
20011f06:	0015f513          	andi	a0,a1,1
20011f0a:	0015d713          	srli	a4,a1,0x1
20011f0e:	8d59                	or	a0,a0,a4
20011f10:	01f79593          	slli	a1,a5,0x1f
20011f14:	8dc9                	or	a1,a1,a0
20011f16:	8385                	srli	a5,a5,0x1
20011f18:	a215                	j	2001203c <__adddf3+0x224>
/home/scratch/jenkins/workspace/tpp-freedom-tools/tpp04--build-binary-packages--parameterized/obj/x86_64-linux-centos6/build/riscv64-unknown-elf-gcc/build-gcc-stage2/riscv64-unknown-elf/rv32imac/ilp32/libgcc/../../../../../riscv-gcc/libgcc/soft-fp/adddf3.c:46 (discriminator 51)
20011f1a:	fe050693          	addi	a3,a0,-32
20011f1e:	02000893          	li	a7,32
20011f22:	00d756b3          	srl	a3,a4,a3
20011f26:	4801                	li	a6,0
20011f28:	01150863          	beq	a0,a7,20011f38 <__adddf3+0x120>
/home/scratch/jenkins/workspace/tpp-freedom-tools/tpp04--build-binary-packages--parameterized/obj/x86_64-linux-centos6/build/riscv64-unknown-elf-gcc/build-gcc-stage2/riscv64-unknown-elf/rv32imac/ilp32/libgcc/../../../../../riscv-gcc/libgcc/soft-fp/adddf3.c:46 (discriminator 58)
20011f2c:	04000813          	li	a6,64
20011f30:	40a80533          	sub	a0,a6,a0
20011f34:	00a71833          	sll	a6,a4,a0
/home/scratch/jenkins/workspace/tpp-freedom-tools/tpp04--build-binary-packages--parameterized/obj/x86_64-linux-centos6/build/riscv64-unknown-elf-gcc/build-gcc-stage2/riscv64-unknown-elf/rv32imac/ilp32/libgcc/../../../../../riscv-gcc/libgcc/soft-fp/adddf3.c:46 (discriminator 61)
20011f38:	00c86633          	or	a2,a6,a2
20011f3c:	00c03633          	snez	a2,a2
20011f40:	8e55                	or	a2,a2,a3
/home/scratch/jenkins/workspace/tpp-freedom-tools/tpp04--build-binary-packages--parameterized/obj/x86_64-linux-centos6/build/riscv64-unknown-elf-gcc/build-gcc-stage2/riscv64-unknown-elf/rv32imac/ilp32/libgcc/../../../../../riscv-gcc/libgcc/soft-fp/adddf3.c:46 (discriminator 49)
20011f42:	4701                	li	a4,0
20011f44:	bf61                	j	20011edc <__adddf3+0xc4>
20011f46:	8e59                	or	a2,a2,a4
20011f48:	00c03633          	snez	a2,a2
20011f4c:	bfdd                	j	20011f42 <__adddf3+0x12a>
/home/scratch/jenkins/workspace/tpp-freedom-tools/tpp04--build-binary-packages--parameterized/obj/x86_64-linux-centos6/build/riscv64-unknown-elf-gcc/build-gcc-stage2/riscv64-unknown-elf/rv32imac/ilp32/libgcc/../../../../../riscv-gcc/libgcc/soft-fp/adddf3.c:46 (discriminator 10)
20011f4e:	0a080b63          	beqz	a6,20012004 <__adddf3+0x1ec>
/home/scratch/jenkins/workspace/tpp-freedom-tools/tpp04--build-binary-packages--parameterized/obj/x86_64-linux-centos6/build/riscv64-unknown-elf-gcc/build-gcc-stage2/riscv64-unknown-elf/rv32imac/ilp32/libgcc/../../../../../riscv-gcc/libgcc/soft-fp/adddf3.c:46 (discriminator 66)
20011f52:	40830533          	sub	a0,t1,s0
20011f56:	e40d                	bnez	s0,20011f80 <__adddf3+0x168>
/home/scratch/jenkins/workspace/tpp-freedom-tools/tpp04--build-binary-packages--parameterized/obj/x86_64-linux-centos6/build/riscv64-unknown-elf-gcc/build-gcc-stage2/riscv64-unknown-elf/rv32imac/ilp32/libgcc/../../../../../riscv-gcc/libgcc/soft-fp/adddf3.c:46 (discriminator 68)
20011f58:	00b7e6b3          	or	a3,a5,a1
20011f5c:	42068363          	beqz	a3,20012382 <__adddf3+0x56a>
/home/scratch/jenkins/workspace/tpp-freedom-tools/tpp04--build-binary-packages--parameterized/obj/x86_64-linux-centos6/build/riscv64-unknown-elf-gcc/build-gcc-stage2/riscv64-unknown-elf/rv32imac/ilp32/libgcc/../../../../../riscv-gcc/libgcc/soft-fp/adddf3.c:46 (discriminator 71)
20011f60:	fff50693          	addi	a3,a0,-1
20011f64:	e699                	bnez	a3,20011f72 <__adddf3+0x15a>
/home/scratch/jenkins/workspace/tpp-freedom-tools/tpp04--build-binary-packages--parameterized/obj/x86_64-linux-centos6/build/riscv64-unknown-elf-gcc/build-gcc-stage2/riscv64-unknown-elf/rv32imac/ilp32/libgcc/../../../../../riscv-gcc/libgcc/soft-fp/adddf3.c:46 (discriminator 80)
20011f66:	95b2                	add	a1,a1,a2
20011f68:	97ba                	add	a5,a5,a4
20011f6a:	00c5b633          	sltu	a2,a1,a2
20011f6e:	97b2                	add	a5,a5,a2
20011f70:	bf29                	j	20011e8a <__adddf3+0x72>
/home/scratch/jenkins/workspace/tpp-freedom-tools/tpp04--build-binary-packages--parameterized/obj/x86_64-linux-centos6/build/riscv64-unknown-elf-gcc/build-gcc-stage2/riscv64-unknown-elf/rv32imac/ilp32/libgcc/../../../../../riscv-gcc/libgcc/soft-fp/adddf3.c:46 (discriminator 81)
20011f72:	7ff00813          	li	a6,2047
20011f76:	01051d63          	bne	a0,a6,20011f90 <__adddf3+0x178>
/home/scratch/jenkins/workspace/tpp-freedom-tools/tpp04--build-binary-packages--parameterized/obj/x86_64-linux-centos6/build/riscv64-unknown-elf-gcc/build-gcc-stage2/riscv64-unknown-elf/rv32imac/ilp32/libgcc/../../../../../riscv-gcc/libgcc/soft-fp/adddf3.c:45
20011f7a:	87ba                	mv	a5,a4
20011f7c:	85b2                	mv	a1,a2
20011f7e:	bf21                	j	20011e96 <__adddf3+0x7e>
/home/scratch/jenkins/workspace/tpp-freedom-tools/tpp04--build-binary-packages--parameterized/obj/x86_64-linux-centos6/build/riscv64-unknown-elf-gcc/build-gcc-stage2/riscv64-unknown-elf/rv32imac/ilp32/libgcc/../../../../../riscv-gcc/libgcc/soft-fp/adddf3.c:46 (discriminator 69)
20011f80:	7ff00693          	li	a3,2047
20011f84:	fed30be3          	beq	t1,a3,20011f7a <__adddf3+0x162>
/home/scratch/jenkins/workspace/tpp-freedom-tools/tpp04--build-binary-packages--parameterized/obj/x86_64-linux-centos6/build/riscv64-unknown-elf-gcc/build-gcc-stage2/riscv64-unknown-elf/rv32imac/ilp32/libgcc/../../../../../riscv-gcc/libgcc/soft-fp/adddf3.c:46 (discriminator 95)
20011f88:	008006b7          	lui	a3,0x800
20011f8c:	8fd5                	or	a5,a5,a3
20011f8e:	86aa                	mv	a3,a0
/home/scratch/jenkins/workspace/tpp-freedom-tools/tpp04--build-binary-packages--parameterized/obj/x86_64-linux-centos6/build/riscv64-unknown-elf-gcc/build-gcc-stage2/riscv64-unknown-elf/rv32imac/ilp32/libgcc/../../../../../riscv-gcc/libgcc/soft-fp/adddf3.c:46 (discriminator 104)
20011f90:	03800513          	li	a0,56
20011f94:	06d54363          	blt	a0,a3,20011ffa <__adddf3+0x1e2>
/home/scratch/jenkins/workspace/tpp-freedom-tools/tpp04--build-binary-packages--parameterized/obj/x86_64-linux-centos6/build/riscv64-unknown-elf-gcc/build-gcc-stage2/riscv64-unknown-elf/rv32imac/ilp32/libgcc/../../../../../riscv-gcc/libgcc/soft-fp/adddf3.c:46 (discriminator 105)
20011f98:	457d                	li	a0,31
20011f9a:	02d54b63          	blt	a0,a3,20011fd0 <__adddf3+0x1b8>
/home/scratch/jenkins/workspace/tpp-freedom-tools/tpp04--build-binary-packages--parameterized/obj/x86_64-linux-centos6/build/riscv64-unknown-elf-gcc/build-gcc-stage2/riscv64-unknown-elf/rv32imac/ilp32/libgcc/../../../../../riscv-gcc/libgcc/soft-fp/adddf3.c:46 (discriminator 107)
20011f9e:	02000813          	li	a6,32
20011fa2:	40d80833          	sub	a6,a6,a3
20011fa6:	01079533          	sll	a0,a5,a6
20011faa:	00d5d8b3          	srl	a7,a1,a3
20011fae:	010595b3          	sll	a1,a1,a6
20011fb2:	01156533          	or	a0,a0,a7
20011fb6:	00b035b3          	snez	a1,a1
20011fba:	8d4d                	or	a0,a0,a1
20011fbc:	00d7d7b3          	srl	a5,a5,a3
/home/scratch/jenkins/workspace/tpp-freedom-tools/tpp04--build-binary-packages--parameterized/obj/x86_64-linux-centos6/build/riscv64-unknown-elf-gcc/build-gcc-stage2/riscv64-unknown-elf/rv32imac/ilp32/libgcc/../../../../../riscv-gcc/libgcc/soft-fp/adddf3.c:46 (discriminator 121)
20011fc0:	00c505b3          	add	a1,a0,a2
20011fc4:	97ba                	add	a5,a5,a4
20011fc6:	00c5b633          	sltu	a2,a1,a2
20011fca:	97b2                	add	a5,a5,a2
/home/scratch/jenkins/workspace/tpp-freedom-tools/tpp04--build-binary-packages--parameterized/obj/x86_64-linux-centos6/build/riscv64-unknown-elf-gcc/build-gcc-stage2/riscv64-unknown-elf/rv32imac/ilp32/libgcc/../../../../../riscv-gcc/libgcc/soft-fp/adddf3.c:45 (discriminator 121)
20011fcc:	841a                	mv	s0,t1
20011fce:	bf31                	j	20011eea <__adddf3+0xd2>
/home/scratch/jenkins/workspace/tpp-freedom-tools/tpp04--build-binary-packages--parameterized/obj/x86_64-linux-centos6/build/riscv64-unknown-elf-gcc/build-gcc-stage2/riscv64-unknown-elf/rv32imac/ilp32/libgcc/../../../../../riscv-gcc/libgcc/soft-fp/adddf3.c:46 (discriminator 108)
20011fd0:	fe068513          	addi	a0,a3,-32 # 7fffe0 <__heap_size+0x7ff7e0>
20011fd4:	02000893          	li	a7,32
20011fd8:	00a7d833          	srl	a6,a5,a0
20011fdc:	4501                	li	a0,0
20011fde:	01168763          	beq	a3,a7,20011fec <__adddf3+0x1d4>
/home/scratch/jenkins/workspace/tpp-freedom-tools/tpp04--build-binary-packages--parameterized/obj/x86_64-linux-centos6/build/riscv64-unknown-elf-gcc/build-gcc-stage2/riscv64-unknown-elf/rv32imac/ilp32/libgcc/../../../../../riscv-gcc/libgcc/soft-fp/adddf3.c:46 (discriminator 115)
20011fe2:	04000513          	li	a0,64
20011fe6:	8d15                	sub	a0,a0,a3
20011fe8:	00a79533          	sll	a0,a5,a0
/home/scratch/jenkins/workspace/tpp-freedom-tools/tpp04--build-binary-packages--parameterized/obj/x86_64-linux-centos6/build/riscv64-unknown-elf-gcc/build-gcc-stage2/riscv64-unknown-elf/rv32imac/ilp32/libgcc/../../../../../riscv-gcc/libgcc/soft-fp/adddf3.c:46 (discriminator 118)
20011fec:	8d4d                	or	a0,a0,a1
20011fee:	00a03533          	snez	a0,a0
20011ff2:	00a86533          	or	a0,a6,a0
/home/scratch/jenkins/workspace/tpp-freedom-tools/tpp04--build-binary-packages--parameterized/obj/x86_64-linux-centos6/build/riscv64-unknown-elf-gcc/build-gcc-stage2/riscv64-unknown-elf/rv32imac/ilp32/libgcc/../../../../../riscv-gcc/libgcc/soft-fp/adddf3.c:46 (discriminator 106)
20011ff6:	4781                	li	a5,0
20011ff8:	b7e1                	j	20011fc0 <__adddf3+0x1a8>
20011ffa:	00b7e533          	or	a0,a5,a1
20011ffe:	00a03533          	snez	a0,a0
20012002:	bfd5                	j	20011ff6 <__adddf3+0x1de>
/home/scratch/jenkins/workspace/tpp-freedom-tools/tpp04--build-binary-packages--parameterized/obj/x86_64-linux-centos6/build/riscv64-unknown-elf-gcc/build-gcc-stage2/riscv64-unknown-elf/rv32imac/ilp32/libgcc/../../../../../riscv-gcc/libgcc/soft-fp/adddf3.c:46 (discriminator 67)
20012004:	00140693          	addi	a3,s0,1
20012008:	7fe6f513          	andi	a0,a3,2046
2001200c:	e13d                	bnez	a0,20012072 <__adddf3+0x25a>
/home/scratch/jenkins/workspace/tpp-freedom-tools/tpp04--build-binary-packages--parameterized/obj/x86_64-linux-centos6/build/riscv64-unknown-elf-gcc/build-gcc-stage2/riscv64-unknown-elf/rv32imac/ilp32/libgcc/../../../../../riscv-gcc/libgcc/soft-fp/adddf3.c:46 (discriminator 123)
2001200e:	00b7e6b3          	or	a3,a5,a1
20012012:	e429                	bnez	s0,2001205c <__adddf3+0x244>
/home/scratch/jenkins/workspace/tpp-freedom-tools/tpp04--build-binary-packages--parameterized/obj/x86_64-linux-centos6/build/riscv64-unknown-elf-gcc/build-gcc-stage2/riscv64-unknown-elf/rv32imac/ilp32/libgcc/../../../../../riscv-gcc/libgcc/soft-fp/adddf3.c:46 (discriminator 125)
20012014:	36068b63          	beqz	a3,2001238a <__adddf3+0x572>
/home/scratch/jenkins/workspace/tpp-freedom-tools/tpp04--build-binary-packages--parameterized/obj/x86_64-linux-centos6/build/riscv64-unknown-elf-gcc/build-gcc-stage2/riscv64-unknown-elf/rv32imac/ilp32/libgcc/../../../../../riscv-gcc/libgcc/soft-fp/adddf3.c:46 (discriminator 128)
20012018:	00c766b3          	or	a3,a4,a2
2001201c:	c285                	beqz	a3,2001203c <__adddf3+0x224>
/home/scratch/jenkins/workspace/tpp-freedom-tools/tpp04--build-binary-packages--parameterized/obj/x86_64-linux-centos6/build/riscv64-unknown-elf-gcc/build-gcc-stage2/riscv64-unknown-elf/rv32imac/ilp32/libgcc/../../../../../riscv-gcc/libgcc/soft-fp/adddf3.c:46 (discriminator 134)
2001201e:	962e                	add	a2,a2,a1
20012020:	97ba                	add	a5,a5,a4
20012022:	00b63533          	sltu	a0,a2,a1
20012026:	97aa                	add	a5,a5,a0
20012028:	00800737          	lui	a4,0x800
2001202c:	8f7d                	and	a4,a4,a5
2001202e:	85b2                	mv	a1,a2
20012030:	c711                	beqz	a4,2001203c <__adddf3+0x224>
/home/scratch/jenkins/workspace/tpp-freedom-tools/tpp04--build-binary-packages--parameterized/obj/x86_64-linux-centos6/build/riscv64-unknown-elf-gcc/build-gcc-stage2/riscv64-unknown-elf/rv32imac/ilp32/libgcc/../../../../../riscv-gcc/libgcc/soft-fp/adddf3.c:46 (discriminator 136)
20012032:	ff800737          	lui	a4,0xff800
20012036:	177d                	addi	a4,a4,-1
20012038:	8ff9                	and	a5,a5,a4
2001203a:	4405                	li	s0,1
/home/scratch/jenkins/workspace/tpp-freedom-tools/tpp04--build-binary-packages--parameterized/obj/x86_64-linux-centos6/build/riscv64-unknown-elf-gcc/build-gcc-stage2/riscv64-unknown-elf/rv32imac/ilp32/libgcc/../../../../../riscv-gcc/libgcc/soft-fp/adddf3.c:47 (discriminator 421)
2001203c:	0075f713          	andi	a4,a1,7
20012040:	34070c63          	beqz	a4,20012398 <__adddf3+0x580>
/home/scratch/jenkins/workspace/tpp-freedom-tools/tpp04--build-binary-packages--parameterized/obj/x86_64-linux-centos6/build/riscv64-unknown-elf-gcc/build-gcc-stage2/riscv64-unknown-elf/rv32imac/ilp32/libgcc/../../../../../riscv-gcc/libgcc/soft-fp/adddf3.c:47 (discriminator 37)
20012044:	00f5f713          	andi	a4,a1,15
20012048:	4691                	li	a3,4
2001204a:	34d70763          	beq	a4,a3,20012398 <__adddf3+0x580>
/home/scratch/jenkins/workspace/tpp-freedom-tools/tpp04--build-binary-packages--parameterized/obj/x86_64-linux-centos6/build/riscv64-unknown-elf-gcc/build-gcc-stage2/riscv64-unknown-elf/rv32imac/ilp32/libgcc/../../../../../riscv-gcc/libgcc/soft-fp/adddf3.c:47 (discriminator 44)
2001204e:	00458713          	addi	a4,a1,4
20012052:	00b73533          	sltu	a0,a4,a1
20012056:	97aa                	add	a5,a5,a0
20012058:	85ba                	mv	a1,a4
2001205a:	ae3d                	j	20012398 <__adddf3+0x580>
/home/scratch/jenkins/workspace/tpp-freedom-tools/tpp04--build-binary-packages--parameterized/obj/x86_64-linux-centos6/build/riscv64-unknown-elf-gcc/build-gcc-stage2/riscv64-unknown-elf/rv32imac/ilp32/libgcc/../../../../../riscv-gcc/libgcc/soft-fp/adddf3.c:46 (discriminator 153)
2001205c:	de99                	beqz	a3,20011f7a <__adddf3+0x162>
/home/scratch/jenkins/workspace/tpp-freedom-tools/tpp04--build-binary-packages--parameterized/obj/x86_64-linux-centos6/build/riscv64-unknown-elf-gcc/build-gcc-stage2/riscv64-unknown-elf/rv32imac/ilp32/libgcc/../../../../../riscv-gcc/libgcc/soft-fp/adddf3.c:46 (discriminator 155)
2001205e:	8e59                	or	a2,a2,a4
20012060:	e2060be3          	beqz	a2,20011e96 <__adddf3+0x7e>
/home/scratch/jenkins/workspace/tpp-freedom-tools/tpp04--build-binary-packages--parameterized/obj/x86_64-linux-centos6/build/riscv64-unknown-elf-gcc/build-gcc-stage2/riscv64-unknown-elf/rv32imac/ilp32/libgcc/../../../../../riscv-gcc/libgcc/soft-fp/adddf3.c:46
20012064:	4481                	li	s1,0
20012066:	004007b7          	lui	a5,0x400
2001206a:	4581                	li	a1,0
2001206c:	7ff00413          	li	s0,2047
20012070:	a625                	j	20012398 <__adddf3+0x580>
/home/scratch/jenkins/workspace/tpp-freedom-tools/tpp04--build-binary-packages--parameterized/obj/x86_64-linux-centos6/build/riscv64-unknown-elf-gcc/build-gcc-stage2/riscv64-unknown-elf/rv32imac/ilp32/libgcc/../../../../../riscv-gcc/libgcc/soft-fp/adddf3.c:46 (discriminator 124)
20012072:	7ff00513          	li	a0,2047
20012076:	30a68d63          	beq	a3,a0,20012390 <__adddf3+0x578>
/home/scratch/jenkins/workspace/tpp-freedom-tools/tpp04--build-binary-packages--parameterized/obj/x86_64-linux-centos6/build/riscv64-unknown-elf-gcc/build-gcc-stage2/riscv64-unknown-elf/rv32imac/ilp32/libgcc/../../../../../riscv-gcc/libgcc/soft-fp/adddf3.c:46
2001207a:	962e                	add	a2,a2,a1
2001207c:	00b63533          	sltu	a0,a2,a1
20012080:	97ba                	add	a5,a5,a4
20012082:	97aa                	add	a5,a5,a0
20012084:	01f79513          	slli	a0,a5,0x1f
20012088:	8205                	srli	a2,a2,0x1
2001208a:	00c565b3          	or	a1,a0,a2
2001208e:	8385                	srli	a5,a5,0x1
20012090:	8436                	mv	s0,a3
20012092:	b76d                	j	2001203c <__adddf3+0x224>
/home/scratch/jenkins/workspace/tpp-freedom-tools/tpp04--build-binary-packages--parameterized/obj/x86_64-linux-centos6/build/riscv64-unknown-elf-gcc/build-gcc-stage2/riscv64-unknown-elf/rv32imac/ilp32/libgcc/../../../../../riscv-gcc/libgcc/soft-fp/adddf3.c:46 (discriminator 8)
20012094:	0d005663          	blez	a6,20012160 <__adddf3+0x348>
/home/scratch/jenkins/workspace/tpp-freedom-tools/tpp04--build-binary-packages--parameterized/obj/x86_64-linux-centos6/build/riscv64-unknown-elf-gcc/build-gcc-stage2/riscv64-unknown-elf/rv32imac/ilp32/libgcc/../../../../../riscv-gcc/libgcc/soft-fp/adddf3.c:46 (discriminator 200)
20012098:	08031163          	bnez	t1,2001211a <__adddf3+0x302>
/home/scratch/jenkins/workspace/tpp-freedom-tools/tpp04--build-binary-packages--parameterized/obj/x86_64-linux-centos6/build/riscv64-unknown-elf-gcc/build-gcc-stage2/riscv64-unknown-elf/rv32imac/ilp32/libgcc/../../../../../riscv-gcc/libgcc/soft-fp/adddf3.c:46 (discriminator 202)
2001209c:	00c766b3          	or	a3,a4,a2
200120a0:	34068d63          	beqz	a3,200123fa <__adddf3+0x5e2>
/home/scratch/jenkins/workspace/tpp-freedom-tools/tpp04--build-binary-packages--parameterized/obj/x86_64-linux-centos6/build/riscv64-unknown-elf-gcc/build-gcc-stage2/riscv64-unknown-elf/rv32imac/ilp32/libgcc/../../../../../riscv-gcc/libgcc/soft-fp/adddf3.c:46 (discriminator 205)
200120a4:	fff80513          	addi	a0,a6,-1
200120a8:	e911                	bnez	a0,200120bc <__adddf3+0x2a4>
/home/scratch/jenkins/workspace/tpp-freedom-tools/tpp04--build-binary-packages--parameterized/obj/x86_64-linux-centos6/build/riscv64-unknown-elf-gcc/build-gcc-stage2/riscv64-unknown-elf/rv32imac/ilp32/libgcc/../../../../../riscv-gcc/libgcc/soft-fp/adddf3.c:46 (discriminator 214)
200120aa:	40c58633          	sub	a2,a1,a2
200120ae:	00c5b533          	sltu	a0,a1,a2
200120b2:	8f99                	sub	a5,a5,a4
200120b4:	8f89                	sub	a5,a5,a0
200120b6:	85b2                	mv	a1,a2
/home/scratch/jenkins/workspace/tpp-freedom-tools/tpp04--build-binary-packages--parameterized/obj/x86_64-linux-centos6/build/riscv64-unknown-elf-gcc/build-gcc-stage2/riscv64-unknown-elf/rv32imac/ilp32/libgcc/../../../../../riscv-gcc/libgcc/soft-fp/adddf3.c:45 (discriminator 271)
200120b8:	4405                	li	s0,1
/home/scratch/jenkins/workspace/tpp-freedom-tools/tpp04--build-binary-packages--parameterized/obj/x86_64-linux-centos6/build/riscv64-unknown-elf-gcc/build-gcc-stage2/riscv64-unknown-elf/rv32imac/ilp32/libgcc/../../../../../riscv-gcc/libgcc/soft-fp/adddf3.c:46 (discriminator 271)
200120ba:	a0b1                	j	20012106 <__adddf3+0x2ee>
/home/scratch/jenkins/workspace/tpp-freedom-tools/tpp04--build-binary-packages--parameterized/obj/x86_64-linux-centos6/build/riscv64-unknown-elf-gcc/build-gcc-stage2/riscv64-unknown-elf/rv32imac/ilp32/libgcc/../../../../../riscv-gcc/libgcc/soft-fp/adddf3.c:46 (discriminator 215)
200120bc:	7ff00693          	li	a3,2047
200120c0:	dcd80be3          	beq	a6,a3,20011e96 <__adddf3+0x7e>
/home/scratch/jenkins/workspace/tpp-freedom-tools/tpp04--build-binary-packages--parameterized/obj/x86_64-linux-centos6/build/riscv64-unknown-elf-gcc/build-gcc-stage2/riscv64-unknown-elf/rv32imac/ilp32/libgcc/../../../../../riscv-gcc/libgcc/soft-fp/adddf3.c:46 (discriminator 238)
200120c4:	03800693          	li	a3,56
200120c8:	08a6c863          	blt	a3,a0,20012158 <__adddf3+0x340>
/home/scratch/jenkins/workspace/tpp-freedom-tools/tpp04--build-binary-packages--parameterized/obj/x86_64-linux-centos6/build/riscv64-unknown-elf-gcc/build-gcc-stage2/riscv64-unknown-elf/rv32imac/ilp32/libgcc/../../../../../riscv-gcc/libgcc/soft-fp/adddf3.c:46 (discriminator 239)
200120cc:	46fd                	li	a3,31
200120ce:	04a6cf63          	blt	a3,a0,2001212c <__adddf3+0x314>
/home/scratch/jenkins/workspace/tpp-freedom-tools/tpp04--build-binary-packages--parameterized/obj/x86_64-linux-centos6/build/riscv64-unknown-elf-gcc/build-gcc-stage2/riscv64-unknown-elf/rv32imac/ilp32/libgcc/../../../../../riscv-gcc/libgcc/soft-fp/adddf3.c:46 (discriminator 241)
200120d2:	02000813          	li	a6,32
200120d6:	40a80833          	sub	a6,a6,a0
200120da:	010716b3          	sll	a3,a4,a6
200120de:	00a658b3          	srl	a7,a2,a0
200120e2:	01061633          	sll	a2,a2,a6
200120e6:	0116e6b3          	or	a3,a3,a7
200120ea:	00c03633          	snez	a2,a2
200120ee:	8e55                	or	a2,a2,a3
200120f0:	00a75733          	srl	a4,a4,a0
/home/scratch/jenkins/workspace/tpp-freedom-tools/tpp04--build-binary-packages--parameterized/obj/x86_64-linux-centos6/build/riscv64-unknown-elf-gcc/build-gcc-stage2/riscv64-unknown-elf/rv32imac/ilp32/libgcc/../../../../../riscv-gcc/libgcc/soft-fp/adddf3.c:46 (discriminator 255)
200120f4:	40c58633          	sub	a2,a1,a2
200120f8:	00c5b533          	sltu	a0,a1,a2
200120fc:	40e78733          	sub	a4,a5,a4
20012100:	40a707b3          	sub	a5,a4,a0
20012104:	85b2                	mv	a1,a2
/home/scratch/jenkins/workspace/tpp-freedom-tools/tpp04--build-binary-packages--parameterized/obj/x86_64-linux-centos6/build/riscv64-unknown-elf-gcc/build-gcc-stage2/riscv64-unknown-elf/rv32imac/ilp32/libgcc/../../../../../riscv-gcc/libgcc/soft-fp/adddf3.c:46 (discriminator 313)
20012106:	00800937          	lui	s2,0x800
2001210a:	0127f733          	and	a4,a5,s2
2001210e:	d71d                	beqz	a4,2001203c <__adddf3+0x224>
/home/scratch/jenkins/workspace/tpp-freedom-tools/tpp04--build-binary-packages--parameterized/obj/x86_64-linux-centos6/build/riscv64-unknown-elf-gcc/build-gcc-stage2/riscv64-unknown-elf/rv32imac/ilp32/libgcc/../../../../../riscv-gcc/libgcc/soft-fp/adddf3.c:46 (discriminator 373)
20012110:	197d                	addi	s2,s2,-1
20012112:	0127f933          	and	s2,a5,s2
20012116:	89ae                	mv	s3,a1
20012118:	aa5d                	j	200122ce <__adddf3+0x4b6>
/home/scratch/jenkins/workspace/tpp-freedom-tools/tpp04--build-binary-packages--parameterized/obj/x86_64-linux-centos6/build/riscv64-unknown-elf-gcc/build-gcc-stage2/riscv64-unknown-elf/rv32imac/ilp32/libgcc/../../../../../riscv-gcc/libgcc/soft-fp/adddf3.c:46 (discriminator 203)
2001211a:	7ff00693          	li	a3,2047
2001211e:	f0d40fe3          	beq	s0,a3,2001203c <__adddf3+0x224>
/home/scratch/jenkins/workspace/tpp-freedom-tools/tpp04--build-binary-packages--parameterized/obj/x86_64-linux-centos6/build/riscv64-unknown-elf-gcc/build-gcc-stage2/riscv64-unknown-elf/rv32imac/ilp32/libgcc/../../../../../riscv-gcc/libgcc/soft-fp/adddf3.c:46 (discriminator 229)
20012122:	008006b7          	lui	a3,0x800
20012126:	8f55                	or	a4,a4,a3
20012128:	8542                	mv	a0,a6
2001212a:	bf69                	j	200120c4 <__adddf3+0x2ac>
/home/scratch/jenkins/workspace/tpp-freedom-tools/tpp04--build-binary-packages--parameterized/obj/x86_64-linux-centos6/build/riscv64-unknown-elf-gcc/build-gcc-stage2/riscv64-unknown-elf/rv32imac/ilp32/libgcc/../../../../../riscv-gcc/libgcc/soft-fp/adddf3.c:46 (discriminator 242)
2001212c:	fe050693          	addi	a3,a0,-32
20012130:	02000893          	li	a7,32
20012134:	00d756b3          	srl	a3,a4,a3
20012138:	4801                	li	a6,0
2001213a:	01150863          	beq	a0,a7,2001214a <__adddf3+0x332>
/home/scratch/jenkins/workspace/tpp-freedom-tools/tpp04--build-binary-packages--parameterized/obj/x86_64-linux-centos6/build/riscv64-unknown-elf-gcc/build-gcc-stage2/riscv64-unknown-elf/rv32imac/ilp32/libgcc/../../../../../riscv-gcc/libgcc/soft-fp/adddf3.c:46 (discriminator 249)
2001213e:	04000813          	li	a6,64
20012142:	40a80533          	sub	a0,a6,a0
20012146:	00a71833          	sll	a6,a4,a0
/home/scratch/jenkins/workspace/tpp-freedom-tools/tpp04--build-binary-packages--parameterized/obj/x86_64-linux-centos6/build/riscv64-unknown-elf-gcc/build-gcc-stage2/riscv64-unknown-elf/rv32imac/ilp32/libgcc/../../../../../riscv-gcc/libgcc/soft-fp/adddf3.c:46 (discriminator 252)
2001214a:	00c86633          	or	a2,a6,a2
2001214e:	00c03633          	snez	a2,a2
20012152:	8e55                	or	a2,a2,a3
/home/scratch/jenkins/workspace/tpp-freedom-tools/tpp04--build-binary-packages--parameterized/obj/x86_64-linux-centos6/build/riscv64-unknown-elf-gcc/build-gcc-stage2/riscv64-unknown-elf/rv32imac/ilp32/libgcc/../../../../../riscv-gcc/libgcc/soft-fp/adddf3.c:46 (discriminator 240)
20012154:	4701                	li	a4,0
20012156:	bf79                	j	200120f4 <__adddf3+0x2dc>
20012158:	8e59                	or	a2,a2,a4
2001215a:	00c03633          	snez	a2,a2
2001215e:	bfdd                	j	20012154 <__adddf3+0x33c>
/home/scratch/jenkins/workspace/tpp-freedom-tools/tpp04--build-binary-packages--parameterized/obj/x86_64-linux-centos6/build/riscv64-unknown-elf-gcc/build-gcc-stage2/riscv64-unknown-elf/rv32imac/ilp32/libgcc/../../../../../riscv-gcc/libgcc/soft-fp/adddf3.c:46 (discriminator 201)
20012160:	0c080563          	beqz	a6,2001222a <__adddf3+0x412>
/home/scratch/jenkins/workspace/tpp-freedom-tools/tpp04--build-binary-packages--parameterized/obj/x86_64-linux-centos6/build/riscv64-unknown-elf-gcc/build-gcc-stage2/riscv64-unknown-elf/rv32imac/ilp32/libgcc/../../../../../riscv-gcc/libgcc/soft-fp/adddf3.c:46 (discriminator 257)
20012164:	40830533          	sub	a0,t1,s0
20012168:	e81d                	bnez	s0,2001219e <__adddf3+0x386>
/home/scratch/jenkins/workspace/tpp-freedom-tools/tpp04--build-binary-packages--parameterized/obj/x86_64-linux-centos6/build/riscv64-unknown-elf-gcc/build-gcc-stage2/riscv64-unknown-elf/rv32imac/ilp32/libgcc/../../../../../riscv-gcc/libgcc/soft-fp/adddf3.c:46 (discriminator 259)
2001216a:	00b7e833          	or	a6,a5,a1
2001216e:	28080863          	beqz	a6,200123fe <__adddf3+0x5e6>
/home/scratch/jenkins/workspace/tpp-freedom-tools/tpp04--build-binary-packages--parameterized/obj/x86_64-linux-centos6/build/riscv64-unknown-elf-gcc/build-gcc-stage2/riscv64-unknown-elf/rv32imac/ilp32/libgcc/../../../../../riscv-gcc/libgcc/soft-fp/adddf3.c:46 (discriminator 262)
20012172:	fff50813          	addi	a6,a0,-1
20012176:	00081b63          	bnez	a6,2001218c <__adddf3+0x374>
/home/scratch/jenkins/workspace/tpp-freedom-tools/tpp04--build-binary-packages--parameterized/obj/x86_64-linux-centos6/build/riscv64-unknown-elf-gcc/build-gcc-stage2/riscv64-unknown-elf/rv32imac/ilp32/libgcc/../../../../../riscv-gcc/libgcc/soft-fp/adddf3.c:46 (discriminator 271)
2001217a:	40b605b3          	sub	a1,a2,a1
2001217e:	40f707b3          	sub	a5,a4,a5
20012182:	00b63633          	sltu	a2,a2,a1
20012186:	8f91                	sub	a5,a5,a2
20012188:	84b6                	mv	s1,a3
2001218a:	b73d                	j	200120b8 <__adddf3+0x2a0>
/home/scratch/jenkins/workspace/tpp-freedom-tools/tpp04--build-binary-packages--parameterized/obj/x86_64-linux-centos6/build/riscv64-unknown-elf-gcc/build-gcc-stage2/riscv64-unknown-elf/rv32imac/ilp32/libgcc/../../../../../riscv-gcc/libgcc/soft-fp/adddf3.c:46 (discriminator 272)
2001218c:	7ff00893          	li	a7,2047
20012190:	03151063          	bne	a0,a7,200121b0 <__adddf3+0x398>
/home/scratch/jenkins/workspace/tpp-freedom-tools/tpp04--build-binary-packages--parameterized/obj/x86_64-linux-centos6/build/riscv64-unknown-elf-gcc/build-gcc-stage2/riscv64-unknown-elf/rv32imac/ilp32/libgcc/../../../../../riscv-gcc/libgcc/soft-fp/adddf3.c:45
20012194:	87ba                	mv	a5,a4
20012196:	85b2                	mv	a1,a2
/home/scratch/jenkins/workspace/tpp-freedom-tools/tpp04--build-binary-packages--parameterized/obj/x86_64-linux-centos6/build/riscv64-unknown-elf-gcc/build-gcc-stage2/riscv64-unknown-elf/rv32imac/ilp32/libgcc/../../../../../riscv-gcc/libgcc/soft-fp/adddf3.c:46
20012198:	7ff00413          	li	s0,2047
2001219c:	a07d                	j	2001224a <__adddf3+0x432>
/home/scratch/jenkins/workspace/tpp-freedom-tools/tpp04--build-binary-packages--parameterized/obj/x86_64-linux-centos6/build/riscv64-unknown-elf-gcc/build-gcc-stage2/riscv64-unknown-elf/rv32imac/ilp32/libgcc/../../../../../riscv-gcc/libgcc/soft-fp/adddf3.c:46 (discriminator 260)
2001219e:	7ff00813          	li	a6,2047
200121a2:	ff0309e3          	beq	t1,a6,20012194 <__adddf3+0x37c>
/home/scratch/jenkins/workspace/tpp-freedom-tools/tpp04--build-binary-packages--parameterized/obj/x86_64-linux-centos6/build/riscv64-unknown-elf-gcc/build-gcc-stage2/riscv64-unknown-elf/rv32imac/ilp32/libgcc/../../../../../riscv-gcc/libgcc/soft-fp/adddf3.c:46 (discriminator 286)
200121a6:	00800837          	lui	a6,0x800
200121aa:	0107e7b3          	or	a5,a5,a6
200121ae:	882a                	mv	a6,a0
/home/scratch/jenkins/workspace/tpp-freedom-tools/tpp04--build-binary-packages--parameterized/obj/x86_64-linux-centos6/build/riscv64-unknown-elf-gcc/build-gcc-stage2/riscv64-unknown-elf/rv32imac/ilp32/libgcc/../../../../../riscv-gcc/libgcc/soft-fp/adddf3.c:46 (discriminator 295)
200121b0:	03800513          	li	a0,56
200121b4:	07054663          	blt	a0,a6,20012220 <__adddf3+0x408>
/home/scratch/jenkins/workspace/tpp-freedom-tools/tpp04--build-binary-packages--parameterized/obj/x86_64-linux-centos6/build/riscv64-unknown-elf-gcc/build-gcc-stage2/riscv64-unknown-elf/rv32imac/ilp32/libgcc/../../../../../riscv-gcc/libgcc/soft-fp/adddf3.c:46 (discriminator 296)
200121b8:	457d                	li	a0,31
200121ba:	03054d63          	blt	a0,a6,200121f4 <__adddf3+0x3dc>
/home/scratch/jenkins/workspace/tpp-freedom-tools/tpp04--build-binary-packages--parameterized/obj/x86_64-linux-centos6/build/riscv64-unknown-elf-gcc/build-gcc-stage2/riscv64-unknown-elf/rv32imac/ilp32/libgcc/../../../../../riscv-gcc/libgcc/soft-fp/adddf3.c:46 (discriminator 298)
200121be:	02000893          	li	a7,32
200121c2:	410888b3          	sub	a7,a7,a6
200121c6:	01179533          	sll	a0,a5,a7
200121ca:	0105de33          	srl	t3,a1,a6
200121ce:	011595b3          	sll	a1,a1,a7
200121d2:	01c56533          	or	a0,a0,t3
200121d6:	00b035b3          	snez	a1,a1
200121da:	8d4d                	or	a0,a0,a1
200121dc:	0107d7b3          	srl	a5,a5,a6
/home/scratch/jenkins/workspace/tpp-freedom-tools/tpp04--build-binary-packages--parameterized/obj/x86_64-linux-centos6/build/riscv64-unknown-elf-gcc/build-gcc-stage2/riscv64-unknown-elf/rv32imac/ilp32/libgcc/../../../../../riscv-gcc/libgcc/soft-fp/adddf3.c:46 (discriminator 312)
200121e0:	40a605b3          	sub	a1,a2,a0
200121e4:	40f707b3          	sub	a5,a4,a5
200121e8:	00b63633          	sltu	a2,a2,a1
200121ec:	8f91                	sub	a5,a5,a2
/home/scratch/jenkins/workspace/tpp-freedom-tools/tpp04--build-binary-packages--parameterized/obj/x86_64-linux-centos6/build/riscv64-unknown-elf-gcc/build-gcc-stage2/riscv64-unknown-elf/rv32imac/ilp32/libgcc/../../../../../riscv-gcc/libgcc/soft-fp/adddf3.c:45 (discriminator 312)
200121ee:	841a                	mv	s0,t1
200121f0:	84b6                	mv	s1,a3
200121f2:	bf11                	j	20012106 <__adddf3+0x2ee>
/home/scratch/jenkins/workspace/tpp-freedom-tools/tpp04--build-binary-packages--parameterized/obj/x86_64-linux-centos6/build/riscv64-unknown-elf-gcc/build-gcc-stage2/riscv64-unknown-elf/rv32imac/ilp32/libgcc/../../../../../riscv-gcc/libgcc/soft-fp/adddf3.c:46 (discriminator 299)
200121f4:	fe080513          	addi	a0,a6,-32 # 7fffe0 <__heap_size+0x7ff7e0>
200121f8:	02000e13          	li	t3,32
200121fc:	00a7d8b3          	srl	a7,a5,a0
20012200:	4501                	li	a0,0
20012202:	01c80863          	beq	a6,t3,20012212 <__adddf3+0x3fa>
/home/scratch/jenkins/workspace/tpp-freedom-tools/tpp04--build-binary-packages--parameterized/obj/x86_64-linux-centos6/build/riscv64-unknown-elf-gcc/build-gcc-stage2/riscv64-unknown-elf/rv32imac/ilp32/libgcc/../../../../../riscv-gcc/libgcc/soft-fp/adddf3.c:46 (discriminator 306)
20012206:	04000513          	li	a0,64
2001220a:	41050533          	sub	a0,a0,a6
2001220e:	00a79533          	sll	a0,a5,a0
/home/scratch/jenkins/workspace/tpp-freedom-tools/tpp04--build-binary-packages--parameterized/obj/x86_64-linux-centos6/build/riscv64-unknown-elf-gcc/build-gcc-stage2/riscv64-unknown-elf/rv32imac/ilp32/libgcc/../../../../../riscv-gcc/libgcc/soft-fp/adddf3.c:46 (discriminator 309)
20012212:	8d4d                	or	a0,a0,a1
20012214:	00a03533          	snez	a0,a0
20012218:	00a8e533          	or	a0,a7,a0
/home/scratch/jenkins/workspace/tpp-freedom-tools/tpp04--build-binary-packages--parameterized/obj/x86_64-linux-centos6/build/riscv64-unknown-elf-gcc/build-gcc-stage2/riscv64-unknown-elf/rv32imac/ilp32/libgcc/../../../../../riscv-gcc/libgcc/soft-fp/adddf3.c:46 (discriminator 297)
2001221c:	4781                	li	a5,0
2001221e:	b7c9                	j	200121e0 <__adddf3+0x3c8>
20012220:	00b7e533          	or	a0,a5,a1
20012224:	00a03533          	snez	a0,a0
20012228:	bfd5                	j	2001221c <__adddf3+0x404>
/home/scratch/jenkins/workspace/tpp-freedom-tools/tpp04--build-binary-packages--parameterized/obj/x86_64-linux-centos6/build/riscv64-unknown-elf-gcc/build-gcc-stage2/riscv64-unknown-elf/rv32imac/ilp32/libgcc/../../../../../riscv-gcc/libgcc/soft-fp/adddf3.c:46 (discriminator 258)
2001222a:	00140513          	addi	a0,s0,1
2001222e:	7fe57513          	andi	a0,a0,2046
20012232:	e925                	bnez	a0,200122a2 <__adddf3+0x48a>
/home/scratch/jenkins/workspace/tpp-freedom-tools/tpp04--build-binary-packages--parameterized/obj/x86_64-linux-centos6/build/riscv64-unknown-elf-gcc/build-gcc-stage2/riscv64-unknown-elf/rv32imac/ilp32/libgcc/../../../../../riscv-gcc/libgcc/soft-fp/adddf3.c:46 (discriminator 314)
20012234:	00b7e833          	or	a6,a5,a1
20012238:	00c76533          	or	a0,a4,a2
2001223c:	e821                	bnez	s0,2001228c <__adddf3+0x474>
/home/scratch/jenkins/workspace/tpp-freedom-tools/tpp04--build-binary-packages--parameterized/obj/x86_64-linux-centos6/build/riscv64-unknown-elf-gcc/build-gcc-stage2/riscv64-unknown-elf/rv32imac/ilp32/libgcc/../../../../../riscv-gcc/libgcc/soft-fp/adddf3.c:46 (discriminator 316)
2001223e:	00081863          	bnez	a6,2001224e <__adddf3+0x436>
/home/scratch/jenkins/workspace/tpp-freedom-tools/tpp04--build-binary-packages--parameterized/obj/x86_64-linux-centos6/build/riscv64-unknown-elf-gcc/build-gcc-stage2/riscv64-unknown-elf/rv32imac/ilp32/libgcc/../../../../../riscv-gcc/libgcc/soft-fp/adddf3.c:46 (discriminator 318)
20012242:	1c050263          	beqz	a0,20012406 <__adddf3+0x5ee>
/home/scratch/jenkins/workspace/tpp-freedom-tools/tpp04--build-binary-packages--parameterized/obj/x86_64-linux-centos6/build/riscv64-unknown-elf-gcc/build-gcc-stage2/riscv64-unknown-elf/rv32imac/ilp32/libgcc/../../../../../riscv-gcc/libgcc/soft-fp/adddf3.c:45
20012246:	87ba                	mv	a5,a4
20012248:	85b2                	mv	a1,a2
2001224a:	84b6                	mv	s1,a3
2001224c:	bbc5                	j	2001203c <__adddf3+0x224>
/home/scratch/jenkins/workspace/tpp-freedom-tools/tpp04--build-binary-packages--parameterized/obj/x86_64-linux-centos6/build/riscv64-unknown-elf-gcc/build-gcc-stage2/riscv64-unknown-elf/rv32imac/ilp32/libgcc/../../../../../riscv-gcc/libgcc/soft-fp/adddf3.c:46 (discriminator 319)
2001224e:	de0507e3          	beqz	a0,2001203c <__adddf3+0x224>
/home/scratch/jenkins/workspace/tpp-freedom-tools/tpp04--build-binary-packages--parameterized/obj/x86_64-linux-centos6/build/riscv64-unknown-elf-gcc/build-gcc-stage2/riscv64-unknown-elf/rv32imac/ilp32/libgcc/../../../../../riscv-gcc/libgcc/soft-fp/adddf3.c:46 (discriminator 326)
20012252:	40c58833          	sub	a6,a1,a2
20012256:	0105b8b3          	sltu	a7,a1,a6
2001225a:	40e78533          	sub	a0,a5,a4
2001225e:	41150533          	sub	a0,a0,a7
20012262:	008008b7          	lui	a7,0x800
20012266:	011578b3          	and	a7,a0,a7
2001226a:	00088a63          	beqz	a7,2001227e <__adddf3+0x466>
/home/scratch/jenkins/workspace/tpp-freedom-tools/tpp04--build-binary-packages--parameterized/obj/x86_64-linux-centos6/build/riscv64-unknown-elf-gcc/build-gcc-stage2/riscv64-unknown-elf/rv32imac/ilp32/libgcc/../../../../../riscv-gcc/libgcc/soft-fp/adddf3.c:46 (discriminator 328)
2001226e:	40b605b3          	sub	a1,a2,a1
20012272:	40f707b3          	sub	a5,a4,a5
20012276:	00b63633          	sltu	a2,a2,a1
2001227a:	8f91                	sub	a5,a5,a2
2001227c:	b7f9                	j	2001224a <__adddf3+0x432>
/home/scratch/jenkins/workspace/tpp-freedom-tools/tpp04--build-binary-packages--parameterized/obj/x86_64-linux-centos6/build/riscv64-unknown-elf-gcc/build-gcc-stage2/riscv64-unknown-elf/rv32imac/ilp32/libgcc/../../../../../riscv-gcc/libgcc/soft-fp/adddf3.c:46 (discriminator 329)
2001227e:	00a865b3          	or	a1,a6,a0
20012282:	18058663          	beqz	a1,2001240e <__adddf3+0x5f6>
/home/scratch/jenkins/workspace/tpp-freedom-tools/tpp04--build-binary-packages--parameterized/obj/x86_64-linux-centos6/build/riscv64-unknown-elf-gcc/build-gcc-stage2/riscv64-unknown-elf/rv32imac/ilp32/libgcc/../../../../../riscv-gcc/libgcc/soft-fp/adddf3.c:46
20012286:	87aa                	mv	a5,a0
20012288:	85c2                	mv	a1,a6
2001228a:	bb4d                	j	2001203c <__adddf3+0x224>
/home/scratch/jenkins/workspace/tpp-freedom-tools/tpp04--build-binary-packages--parameterized/obj/x86_64-linux-centos6/build/riscv64-unknown-elf-gcc/build-gcc-stage2/riscv64-unknown-elf/rv32imac/ilp32/libgcc/../../../../../riscv-gcc/libgcc/soft-fp/adddf3.c:46 (discriminator 348)
2001228c:	00081863          	bnez	a6,2001229c <__adddf3+0x484>
/home/scratch/jenkins/workspace/tpp-freedom-tools/tpp04--build-binary-packages--parameterized/obj/x86_64-linux-centos6/build/riscv64-unknown-elf-gcc/build-gcc-stage2/riscv64-unknown-elf/rv32imac/ilp32/libgcc/../../../../../riscv-gcc/libgcc/soft-fp/adddf3.c:46 (discriminator 349)
20012290:	18050163          	beqz	a0,20012412 <__adddf3+0x5fa>
/home/scratch/jenkins/workspace/tpp-freedom-tools/tpp04--build-binary-packages--parameterized/obj/x86_64-linux-centos6/build/riscv64-unknown-elf-gcc/build-gcc-stage2/riscv64-unknown-elf/rv32imac/ilp32/libgcc/../../../../../riscv-gcc/libgcc/soft-fp/adddf3.c:45
20012294:	87ba                	mv	a5,a4
20012296:	85b2                	mv	a1,a2
/home/scratch/jenkins/workspace/tpp-freedom-tools/tpp04--build-binary-packages--parameterized/obj/x86_64-linux-centos6/build/riscv64-unknown-elf-gcc/build-gcc-stage2/riscv64-unknown-elf/rv32imac/ilp32/libgcc/../../../../../riscv-gcc/libgcc/soft-fp/adddf3.c:46
20012298:	84b6                	mv	s1,a3
2001229a:	bef5                	j	20011e96 <__adddf3+0x7e>
/home/scratch/jenkins/workspace/tpp-freedom-tools/tpp04--build-binary-packages--parameterized/obj/x86_64-linux-centos6/build/riscv64-unknown-elf-gcc/build-gcc-stage2/riscv64-unknown-elf/rv32imac/ilp32/libgcc/../../../../../riscv-gcc/libgcc/soft-fp/adddf3.c:46 (discriminator 350)
2001229c:	be050de3          	beqz	a0,20011e96 <__adddf3+0x7e>
200122a0:	b3d1                	j	20012064 <__adddf3+0x24c>
/home/scratch/jenkins/workspace/tpp-freedom-tools/tpp04--build-binary-packages--parameterized/obj/x86_64-linux-centos6/build/riscv64-unknown-elf-gcc/build-gcc-stage2/riscv64-unknown-elf/rv32imac/ilp32/libgcc/../../../../../riscv-gcc/libgcc/soft-fp/adddf3.c:46 (discriminator 315)
200122a2:	40c589b3          	sub	s3,a1,a2
200122a6:	0135b533          	sltu	a0,a1,s3
200122aa:	40e78933          	sub	s2,a5,a4
200122ae:	40a90933          	sub	s2,s2,a0
200122b2:	00800537          	lui	a0,0x800
200122b6:	00a97533          	and	a0,s2,a0
200122ba:	c925                	beqz	a0,2001232a <__adddf3+0x512>
/home/scratch/jenkins/workspace/tpp-freedom-tools/tpp04--build-binary-packages--parameterized/obj/x86_64-linux-centos6/build/riscv64-unknown-elf-gcc/build-gcc-stage2/riscv64-unknown-elf/rv32imac/ilp32/libgcc/../../../../../riscv-gcc/libgcc/soft-fp/adddf3.c:46 (discriminator 366)
200122bc:	40b609b3          	sub	s3,a2,a1
200122c0:	40f707b3          	sub	a5,a4,a5
200122c4:	01363633          	sltu	a2,a2,s3
200122c8:	40c78933          	sub	s2,a5,a2
200122cc:	84b6                	mv	s1,a3
/home/scratch/jenkins/workspace/tpp-freedom-tools/tpp04--build-binary-packages--parameterized/obj/x86_64-linux-centos6/build/riscv64-unknown-elf-gcc/build-gcc-stage2/riscv64-unknown-elf/rv32imac/ilp32/libgcc/../../../../../riscv-gcc/libgcc/soft-fp/adddf3.c:46 (discriminator 375)
200122ce:	06090463          	beqz	s2,20012336 <__adddf3+0x51e>
/home/scratch/jenkins/workspace/tpp-freedom-tools/tpp04--build-binary-packages--parameterized/obj/x86_64-linux-centos6/build/riscv64-unknown-elf-gcc/build-gcc-stage2/riscv64-unknown-elf/rv32imac/ilp32/libgcc/../../../../../riscv-gcc/libgcc/soft-fp/adddf3.c:46 (discriminator 378)
200122d2:	854a                	mv	a0,s2
200122d4:	f14ff0ef          	jal	ra,200119e8 <__clzsi2>
/home/scratch/jenkins/workspace/tpp-freedom-tools/tpp04--build-binary-packages--parameterized/obj/x86_64-linux-centos6/build/riscv64-unknown-elf-gcc/build-gcc-stage2/riscv64-unknown-elf/rv32imac/ilp32/libgcc/../../../../../riscv-gcc/libgcc/soft-fp/adddf3.c:46 (discriminator 392)
200122d8:	ff850713          	addi	a4,a0,-8 # 7ffff8 <__heap_size+0x7ff7f8>
200122dc:	47fd                	li	a5,31
200122de:	06e7c263          	blt	a5,a4,20012342 <__adddf3+0x52a>
/home/scratch/jenkins/workspace/tpp-freedom-tools/tpp04--build-binary-packages--parameterized/obj/x86_64-linux-centos6/build/riscv64-unknown-elf-gcc/build-gcc-stage2/riscv64-unknown-elf/rv32imac/ilp32/libgcc/../../../../../riscv-gcc/libgcc/soft-fp/adddf3.c:46 (discriminator 398)
200122e2:	02000793          	li	a5,32
200122e6:	8f99                	sub	a5,a5,a4
200122e8:	00e91933          	sll	s2,s2,a4
200122ec:	00f9d7b3          	srl	a5,s3,a5
200122f0:	0127e7b3          	or	a5,a5,s2
200122f4:	00e995b3          	sll	a1,s3,a4
/home/scratch/jenkins/workspace/tpp-freedom-tools/tpp04--build-binary-packages--parameterized/obj/x86_64-linux-centos6/build/riscv64-unknown-elf-gcc/build-gcc-stage2/riscv64-unknown-elf/rv32imac/ilp32/libgcc/../../../../../riscv-gcc/libgcc/soft-fp/adddf3.c:46 (discriminator 402)
200122f8:	06874f63          	blt	a4,s0,20012376 <__adddf3+0x55e>
/home/scratch/jenkins/workspace/tpp-freedom-tools/tpp04--build-binary-packages--parameterized/obj/x86_64-linux-centos6/build/riscv64-unknown-elf-gcc/build-gcc-stage2/riscv64-unknown-elf/rv32imac/ilp32/libgcc/../../../../../riscv-gcc/libgcc/soft-fp/adddf3.c:46 (discriminator 403)
200122fc:	8f01                	sub	a4,a4,s0
200122fe:	00170693          	addi	a3,a4,1 # ff800001 <__global_pointer$+0x7f7ff379>
20012302:	467d                	li	a2,31
20012304:	04d64563          	blt	a2,a3,2001234e <__adddf3+0x536>
/home/scratch/jenkins/workspace/tpp-freedom-tools/tpp04--build-binary-packages--parameterized/obj/x86_64-linux-centos6/build/riscv64-unknown-elf-gcc/build-gcc-stage2/riscv64-unknown-elf/rv32imac/ilp32/libgcc/../../../../../riscv-gcc/libgcc/soft-fp/adddf3.c:46 (discriminator 405)
20012308:	02000713          	li	a4,32
2001230c:	8f15                	sub	a4,a4,a3
2001230e:	00e79633          	sll	a2,a5,a4
20012312:	00d5d533          	srl	a0,a1,a3
20012316:	00e595b3          	sll	a1,a1,a4
2001231a:	8e49                	or	a2,a2,a0
2001231c:	00b035b3          	snez	a1,a1
20012320:	8dd1                	or	a1,a1,a2
20012322:	00d7d7b3          	srl	a5,a5,a3
/home/scratch/jenkins/workspace/tpp-freedom-tools/tpp04--build-binary-packages--parameterized/obj/x86_64-linux-centos6/build/riscv64-unknown-elf-gcc/build-gcc-stage2/riscv64-unknown-elf/rv32imac/ilp32/libgcc/../../../../../riscv-gcc/libgcc/soft-fp/adddf3.c:46 (discriminator 417)
20012326:	4401                	li	s0,0
20012328:	bb11                	j	2001203c <__adddf3+0x224>
/home/scratch/jenkins/workspace/tpp-freedom-tools/tpp04--build-binary-packages--parameterized/obj/x86_64-linux-centos6/build/riscv64-unknown-elf-gcc/build-gcc-stage2/riscv64-unknown-elf/rv32imac/ilp32/libgcc/../../../../../riscv-gcc/libgcc/soft-fp/adddf3.c:46 (discriminator 367)
2001232a:	0129e5b3          	or	a1,s3,s2
2001232e:	f1c5                	bnez	a1,200122ce <__adddf3+0x4b6>
20012330:	4781                	li	a5,0
/home/scratch/jenkins/workspace/tpp-freedom-tools/tpp04--build-binary-packages--parameterized/obj/x86_64-linux-centos6/build/riscv64-unknown-elf-gcc/build-gcc-stage2/riscv64-unknown-elf/rv32imac/ilp32/libgcc/../../../../../riscv-gcc/libgcc/soft-fp/adddf3.c:46
20012332:	4401                	li	s0,0
20012334:	a8d9                	j	2001240a <__adddf3+0x5f2>
/home/scratch/jenkins/workspace/tpp-freedom-tools/tpp04--build-binary-packages--parameterized/obj/x86_64-linux-centos6/build/riscv64-unknown-elf-gcc/build-gcc-stage2/riscv64-unknown-elf/rv32imac/ilp32/libgcc/../../../../../riscv-gcc/libgcc/soft-fp/adddf3.c:46 (discriminator 385)
20012336:	854e                	mv	a0,s3
20012338:	eb0ff0ef          	jal	ra,200119e8 <__clzsi2>
2001233c:	02050513          	addi	a0,a0,32
20012340:	bf61                	j	200122d8 <__adddf3+0x4c0>
/home/scratch/jenkins/workspace/tpp-freedom-tools/tpp04--build-binary-packages--parameterized/obj/x86_64-linux-centos6/build/riscv64-unknown-elf-gcc/build-gcc-stage2/riscv64-unknown-elf/rv32imac/ilp32/libgcc/../../../../../riscv-gcc/libgcc/soft-fp/adddf3.c:46 (discriminator 394)
20012342:	fd850793          	addi	a5,a0,-40
20012346:	00f997b3          	sll	a5,s3,a5
2001234a:	4581                	li	a1,0
2001234c:	b775                	j	200122f8 <__adddf3+0x4e0>
/home/scratch/jenkins/workspace/tpp-freedom-tools/tpp04--build-binary-packages--parameterized/obj/x86_64-linux-centos6/build/riscv64-unknown-elf-gcc/build-gcc-stage2/riscv64-unknown-elf/rv32imac/ilp32/libgcc/../../../../../riscv-gcc/libgcc/soft-fp/adddf3.c:46 (discriminator 406)
2001234e:	1705                	addi	a4,a4,-31
20012350:	02000613          	li	a2,32
20012354:	00e7d733          	srl	a4,a5,a4
20012358:	4501                	li	a0,0
2001235a:	00c68763          	beq	a3,a2,20012368 <__adddf3+0x550>
/home/scratch/jenkins/workspace/tpp-freedom-tools/tpp04--build-binary-packages--parameterized/obj/x86_64-linux-centos6/build/riscv64-unknown-elf-gcc/build-gcc-stage2/riscv64-unknown-elf/rv32imac/ilp32/libgcc/../../../../../riscv-gcc/libgcc/soft-fp/adddf3.c:46 (discriminator 414)
2001235e:	04000513          	li	a0,64
20012362:	8d15                	sub	a0,a0,a3
20012364:	00a79533          	sll	a0,a5,a0
/home/scratch/jenkins/workspace/tpp-freedom-tools/tpp04--build-binary-packages--parameterized/obj/x86_64-linux-centos6/build/riscv64-unknown-elf-gcc/build-gcc-stage2/riscv64-unknown-elf/rv32imac/ilp32/libgcc/../../../../../riscv-gcc/libgcc/soft-fp/adddf3.c:46 (discriminator 417)
20012368:	8d4d                	or	a0,a0,a1
2001236a:	00a03533          	snez	a0,a0
2001236e:	00a765b3          	or	a1,a4,a0
20012372:	4781                	li	a5,0
20012374:	bf4d                	j	20012326 <__adddf3+0x50e>
/home/scratch/jenkins/workspace/tpp-freedom-tools/tpp04--build-binary-packages--parameterized/obj/x86_64-linux-centos6/build/riscv64-unknown-elf-gcc/build-gcc-stage2/riscv64-unknown-elf/rv32imac/ilp32/libgcc/../../../../../riscv-gcc/libgcc/soft-fp/adddf3.c:46 (discriminator 404)
20012376:	8c19                	sub	s0,s0,a4
20012378:	ff800737          	lui	a4,0xff800
2001237c:	177d                	addi	a4,a4,-1
2001237e:	8ff9                	and	a5,a5,a4
20012380:	b975                	j	2001203c <__adddf3+0x224>
/home/scratch/jenkins/workspace/tpp-freedom-tools/tpp04--build-binary-packages--parameterized/obj/x86_64-linux-centos6/build/riscv64-unknown-elf-gcc/build-gcc-stage2/riscv64-unknown-elf/rv32imac/ilp32/libgcc/../../../../../riscv-gcc/libgcc/soft-fp/adddf3.c:45
20012382:	87ba                	mv	a5,a4
20012384:	85b2                	mv	a1,a2
/home/scratch/jenkins/workspace/tpp-freedom-tools/tpp04--build-binary-packages--parameterized/obj/x86_64-linux-centos6/build/riscv64-unknown-elf-gcc/build-gcc-stage2/riscv64-unknown-elf/rv32imac/ilp32/libgcc/../../../../../riscv-gcc/libgcc/soft-fp/adddf3.c:46
20012386:	842a                	mv	s0,a0
20012388:	b955                	j	2001203c <__adddf3+0x224>
/home/scratch/jenkins/workspace/tpp-freedom-tools/tpp04--build-binary-packages--parameterized/obj/x86_64-linux-centos6/build/riscv64-unknown-elf-gcc/build-gcc-stage2/riscv64-unknown-elf/rv32imac/ilp32/libgcc/../../../../../riscv-gcc/libgcc/soft-fp/adddf3.c:45
2001238a:	87ba                	mv	a5,a4
2001238c:	85b2                	mv	a1,a2
2001238e:	b17d                	j	2001203c <__adddf3+0x224>
20012390:	7ff00413          	li	s0,2047
20012394:	4781                	li	a5,0
20012396:	4581                	li	a1,0
/home/scratch/jenkins/workspace/tpp-freedom-tools/tpp04--build-binary-packages--parameterized/obj/x86_64-linux-centos6/build/riscv64-unknown-elf-gcc/build-gcc-stage2/riscv64-unknown-elf/rv32imac/ilp32/libgcc/../../../../../riscv-gcc/libgcc/soft-fp/adddf3.c:47 (discriminator 47)
20012398:	00800737          	lui	a4,0x800
2001239c:	8f7d                	and	a4,a4,a5
2001239e:	cb11                	beqz	a4,200123b2 <__adddf3+0x59a>
/home/scratch/jenkins/workspace/tpp-freedom-tools/tpp04--build-binary-packages--parameterized/obj/x86_64-linux-centos6/build/riscv64-unknown-elf-gcc/build-gcc-stage2/riscv64-unknown-elf/rv32imac/ilp32/libgcc/../../../../../riscv-gcc/libgcc/soft-fp/adddf3.c:47 (discriminator 63)
200123a0:	0405                	addi	s0,s0,1
200123a2:	7ff00713          	li	a4,2047
200123a6:	06e40b63          	beq	s0,a4,2001241c <__adddf3+0x604>
/home/scratch/jenkins/workspace/tpp-freedom-tools/tpp04--build-binary-packages--parameterized/obj/x86_64-linux-centos6/build/riscv64-unknown-elf-gcc/build-gcc-stage2/riscv64-unknown-elf/rv32imac/ilp32/libgcc/../../../../../riscv-gcc/libgcc/soft-fp/adddf3.c:47
200123aa:	ff800737          	lui	a4,0xff800
200123ae:	177d                	addi	a4,a4,-1
200123b0:	8ff9                	and	a5,a5,a4
/home/scratch/jenkins/workspace/tpp-freedom-tools/tpp04--build-binary-packages--parameterized/obj/x86_64-linux-centos6/build/riscv64-unknown-elf-gcc/build-gcc-stage2/riscv64-unknown-elf/rv32imac/ilp32/libgcc/../../../../../riscv-gcc/libgcc/soft-fp/adddf3.c:47 (discriminator 79)
200123b2:	01d79713          	slli	a4,a5,0x1d
200123b6:	0035d513          	srli	a0,a1,0x3
200123ba:	8d59                	or	a0,a0,a4
200123bc:	7ff00713          	li	a4,2047
200123c0:	838d                	srli	a5,a5,0x3
200123c2:	00e41963          	bne	s0,a4,200123d4 <__adddf3+0x5bc>
/home/scratch/jenkins/workspace/tpp-freedom-tools/tpp04--build-binary-packages--parameterized/obj/x86_64-linux-centos6/build/riscv64-unknown-elf-gcc/build-gcc-stage2/riscv64-unknown-elf/rv32imac/ilp32/libgcc/../../../../../riscv-gcc/libgcc/soft-fp/adddf3.c:47 (discriminator 80)
200123c6:	8d5d                	or	a0,a0,a5
200123c8:	4781                	li	a5,0
200123ca:	c509                	beqz	a0,200123d4 <__adddf3+0x5bc>
/home/scratch/jenkins/workspace/tpp-freedom-tools/tpp04--build-binary-packages--parameterized/obj/x86_64-linux-centos6/build/riscv64-unknown-elf-gcc/build-gcc-stage2/riscv64-unknown-elf/rv32imac/ilp32/libgcc/../../../../../riscv-gcc/libgcc/soft-fp/adddf3.c:47
200123cc:	000807b7          	lui	a5,0x80
200123d0:	4501                	li	a0,0
200123d2:	4481                	li	s1,0
/home/scratch/jenkins/workspace/tpp-freedom-tools/tpp04--build-binary-packages--parameterized/obj/x86_64-linux-centos6/build/riscv64-unknown-elf-gcc/build-gcc-stage2/riscv64-unknown-elf/rv32imac/ilp32/libgcc/../../../../../riscv-gcc/libgcc/soft-fp/adddf3.c:47 (discriminator 90)
200123d4:	01441713          	slli	a4,s0,0x14
200123d8:	7ff006b7          	lui	a3,0x7ff00
200123dc:	07b2                	slli	a5,a5,0xc
/home/scratch/jenkins/workspace/tpp-freedom-tools/tpp04--build-binary-packages--parameterized/obj/x86_64-linux-centos6/build/riscv64-unknown-elf-gcc/build-gcc-stage2/riscv64-unknown-elf/rv32imac/ilp32/libgcc/../../../../../riscv-gcc/libgcc/soft-fp/adddf3.c:51 (discriminator 90)
200123de:	40f2                	lw	ra,28(sp)
200123e0:	4462                	lw	s0,24(sp)
/home/scratch/jenkins/workspace/tpp-freedom-tools/tpp04--build-binary-packages--parameterized/obj/x86_64-linux-centos6/build/riscv64-unknown-elf-gcc/build-gcc-stage2/riscv64-unknown-elf/rv32imac/ilp32/libgcc/../../../../../riscv-gcc/libgcc/soft-fp/adddf3.c:47 (discriminator 90)
200123e2:	8f75                	and	a4,a4,a3
200123e4:	83b1                	srli	a5,a5,0xc
200123e6:	04fe                	slli	s1,s1,0x1f
200123e8:	8fd9                	or	a5,a5,a4
200123ea:	0097e733          	or	a4,a5,s1
/home/scratch/jenkins/workspace/tpp-freedom-tools/tpp04--build-binary-packages--parameterized/obj/x86_64-linux-centos6/build/riscv64-unknown-elf-gcc/build-gcc-stage2/riscv64-unknown-elf/rv32imac/ilp32/libgcc/../../../../../riscv-gcc/libgcc/soft-fp/adddf3.c:51 (discriminator 90)
200123ee:	4942                	lw	s2,16(sp)
200123f0:	44d2                	lw	s1,20(sp)
200123f2:	49b2                	lw	s3,12(sp)
200123f4:	85ba                	mv	a1,a4
200123f6:	6105                	addi	sp,sp,32
200123f8:	8082                	ret
200123fa:	8442                	mv	s0,a6
200123fc:	b181                	j	2001203c <__adddf3+0x224>
/home/scratch/jenkins/workspace/tpp-freedom-tools/tpp04--build-binary-packages--parameterized/obj/x86_64-linux-centos6/build/riscv64-unknown-elf-gcc/build-gcc-stage2/riscv64-unknown-elf/rv32imac/ilp32/libgcc/../../../../../riscv-gcc/libgcc/soft-fp/adddf3.c:45
200123fe:	87ba                	mv	a5,a4
20012400:	85b2                	mv	a1,a2
/home/scratch/jenkins/workspace/tpp-freedom-tools/tpp04--build-binary-packages--parameterized/obj/x86_64-linux-centos6/build/riscv64-unknown-elf-gcc/build-gcc-stage2/riscv64-unknown-elf/rv32imac/ilp32/libgcc/../../../../../riscv-gcc/libgcc/soft-fp/adddf3.c:46
20012402:	842a                	mv	s0,a0
20012404:	b599                	j	2001224a <__adddf3+0x432>
20012406:	4781                	li	a5,0
20012408:	4581                	li	a1,0
2001240a:	4481                	li	s1,0
2001240c:	b771                	j	20012398 <__adddf3+0x580>
2001240e:	4781                	li	a5,0
20012410:	bfed                	j	2001240a <__adddf3+0x5f2>
20012412:	4581                	li	a1,0
20012414:	4481                	li	s1,0
20012416:	004007b7          	lui	a5,0x400
2001241a:	b989                	j	2001206c <__adddf3+0x254>
2001241c:	4781                	li	a5,0
2001241e:	4581                	li	a1,0
20012420:	bf49                	j	200123b2 <__adddf3+0x59a>

20012422 <__divdf3>:
__divdf3():
/home/scratch/jenkins/workspace/tpp-freedom-tools/tpp04--build-binary-packages--parameterized/obj/x86_64-linux-centos6/build/riscv64-unknown-elf-gcc/build-gcc-stage2/riscv64-unknown-elf/rv32imac/ilp32/libgcc/../../../../../riscv-gcc/libgcc/soft-fp/divdf3.c:36
20012422:	7179                	addi	sp,sp,-48
20012424:	d04a                	sw	s2,32(sp)
/home/scratch/jenkins/workspace/tpp-freedom-tools/tpp04--build-binary-packages--parameterized/obj/x86_64-linux-centos6/build/riscv64-unknown-elf-gcc/build-gcc-stage2/riscv64-unknown-elf/rv32imac/ilp32/libgcc/../../../../../riscv-gcc/libgcc/soft-fp/divdf3.c:44
20012426:	0145d913          	srli	s2,a1,0x14
/home/scratch/jenkins/workspace/tpp-freedom-tools/tpp04--build-binary-packages--parameterized/obj/x86_64-linux-centos6/build/riscv64-unknown-elf-gcc/build-gcc-stage2/riscv64-unknown-elf/rv32imac/ilp32/libgcc/../../../../../riscv-gcc/libgcc/soft-fp/divdf3.c:36
2001242a:	d226                	sw	s1,36(sp)
2001242c:	ce4e                	sw	s3,28(sp)
2001242e:	cc52                	sw	s4,24(sp)
20012430:	c85a                	sw	s6,16(sp)
20012432:	c462                	sw	s8,8(sp)
/home/scratch/jenkins/workspace/tpp-freedom-tools/tpp04--build-binary-packages--parameterized/obj/x86_64-linux-centos6/build/riscv64-unknown-elf-gcc/build-gcc-stage2/riscv64-unknown-elf/rv32imac/ilp32/libgcc/../../../../../riscv-gcc/libgcc/soft-fp/divdf3.c:44
20012434:	00c59493          	slli	s1,a1,0xc
/home/scratch/jenkins/workspace/tpp-freedom-tools/tpp04--build-binary-packages--parameterized/obj/x86_64-linux-centos6/build/riscv64-unknown-elf-gcc/build-gcc-stage2/riscv64-unknown-elf/rv32imac/ilp32/libgcc/../../../../../riscv-gcc/libgcc/soft-fp/divdf3.c:36
20012438:	d606                	sw	ra,44(sp)
2001243a:	d422                	sw	s0,40(sp)
2001243c:	ca56                	sw	s5,20(sp)
2001243e:	c65e                	sw	s7,12(sp)
/home/scratch/jenkins/workspace/tpp-freedom-tools/tpp04--build-binary-packages--parameterized/obj/x86_64-linux-centos6/build/riscv64-unknown-elf-gcc/build-gcc-stage2/riscv64-unknown-elf/rv32imac/ilp32/libgcc/../../../../../riscv-gcc/libgcc/soft-fp/divdf3.c:44
20012440:	7ff97913          	andi	s2,s2,2047
/home/scratch/jenkins/workspace/tpp-freedom-tools/tpp04--build-binary-packages--parameterized/obj/x86_64-linux-centos6/build/riscv64-unknown-elf-gcc/build-gcc-stage2/riscv64-unknown-elf/rv32imac/ilp32/libgcc/../../../../../riscv-gcc/libgcc/soft-fp/divdf3.c:36
20012444:	8a2a                	mv	s4,a0
20012446:	8b32                	mv	s6,a2
20012448:	8c36                	mv	s8,a3
/home/scratch/jenkins/workspace/tpp-freedom-tools/tpp04--build-binary-packages--parameterized/obj/x86_64-linux-centos6/build/riscv64-unknown-elf-gcc/build-gcc-stage2/riscv64-unknown-elf/rv32imac/ilp32/libgcc/../../../../../riscv-gcc/libgcc/soft-fp/divdf3.c:44
2001244a:	80b1                	srli	s1,s1,0xc
2001244c:	01f5d993          	srli	s3,a1,0x1f
20012450:	08090463          	beqz	s2,200124d8 <__divdf3+0xb6>
20012454:	7ff00793          	li	a5,2047
20012458:	0cf90a63          	beq	s2,a5,2001252c <__divdf3+0x10a>
/home/scratch/jenkins/workspace/tpp-freedom-tools/tpp04--build-binary-packages--parameterized/obj/x86_64-linux-centos6/build/riscv64-unknown-elf-gcc/build-gcc-stage2/riscv64-unknown-elf/rv32imac/ilp32/libgcc/../../../../../riscv-gcc/libgcc/soft-fp/divdf3.c:44 (discriminator 1)
2001245c:	01d55a93          	srli	s5,a0,0x1d
20012460:	048e                	slli	s1,s1,0x3
20012462:	009ae4b3          	or	s1,s5,s1
20012466:	00800ab7          	lui	s5,0x800
2001246a:	0154eab3          	or	s5,s1,s5
2001246e:	00351413          	slli	s0,a0,0x3
20012472:	c0190913          	addi	s2,s2,-1023 # 7ffc01 <__heap_size+0x7ff401>
/home/scratch/jenkins/workspace/tpp-freedom-tools/tpp04--build-binary-packages--parameterized/obj/x86_64-linux-centos6/build/riscv64-unknown-elf-gcc/build-gcc-stage2/riscv64-unknown-elf/rv32imac/ilp32/libgcc/../../../../../riscv-gcc/libgcc/soft-fp/divdf3.c:44 (discriminator 41)
20012476:	4b81                	li	s7,0
/home/scratch/jenkins/workspace/tpp-freedom-tools/tpp04--build-binary-packages--parameterized/obj/x86_64-linux-centos6/build/riscv64-unknown-elf-gcc/build-gcc-stage2/riscv64-unknown-elf/rv32imac/ilp32/libgcc/../../../../../riscv-gcc/libgcc/soft-fp/divdf3.c:45 (discriminator 8)
20012478:	00cc1513          	slli	a0,s8,0xc
2001247c:	00c55493          	srli	s1,a0,0xc
20012480:	014c5513          	srli	a0,s8,0x14
20012484:	7ff57593          	andi	a1,a0,2047
20012488:	01fc5c13          	srli	s8,s8,0x1f
2001248c:	c1f9                	beqz	a1,20012552 <__divdf3+0x130>
/home/scratch/jenkins/workspace/tpp-freedom-tools/tpp04--build-binary-packages--parameterized/obj/x86_64-linux-centos6/build/riscv64-unknown-elf-gcc/build-gcc-stage2/riscv64-unknown-elf/rv32imac/ilp32/libgcc/../../../../../riscv-gcc/libgcc/soft-fp/divdf3.c:45
2001248e:	7ff00793          	li	a5,2047
20012492:	10f58b63          	beq	a1,a5,200125a8 <__divdf3+0x186>
/home/scratch/jenkins/workspace/tpp-freedom-tools/tpp04--build-binary-packages--parameterized/obj/x86_64-linux-centos6/build/riscv64-unknown-elf-gcc/build-gcc-stage2/riscv64-unknown-elf/rv32imac/ilp32/libgcc/../../../../../riscv-gcc/libgcc/soft-fp/divdf3.c:45 (discriminator 1)
20012496:	00349513          	slli	a0,s1,0x3
2001249a:	01db5793          	srli	a5,s6,0x1d
2001249e:	8d5d                	or	a0,a0,a5
200124a0:	008004b7          	lui	s1,0x800
200124a4:	8cc9                	or	s1,s1,a0
200124a6:	003b1f93          	slli	t6,s6,0x3
200124aa:	c0158513          	addi	a0,a1,-1023
/home/scratch/jenkins/workspace/tpp-freedom-tools/tpp04--build-binary-packages--parameterized/obj/x86_64-linux-centos6/build/riscv64-unknown-elf-gcc/build-gcc-stage2/riscv64-unknown-elf/rv32imac/ilp32/libgcc/../../../../../riscv-gcc/libgcc/soft-fp/divdf3.c:45 (discriminator 41)
200124ae:	4781                	li	a5,0
/home/scratch/jenkins/workspace/tpp-freedom-tools/tpp04--build-binary-packages--parameterized/obj/x86_64-linux-centos6/build/riscv64-unknown-elf-gcc/build-gcc-stage2/riscv64-unknown-elf/rv32imac/ilp32/libgcc/../../../../../riscv-gcc/libgcc/soft-fp/divdf3.c:46 (discriminator 8)
200124b0:	002b9713          	slli	a4,s7,0x2
200124b4:	8f5d                	or	a4,a4,a5
200124b6:	177d                	addi	a4,a4,-1
200124b8:	4639                	li	a2,14
200124ba:	0189c6b3          	xor	a3,s3,s8
200124be:	40a905b3          	sub	a1,s2,a0
200124c2:	10e66563          	bltu	a2,a4,200125cc <__divdf3+0x1aa>
200124c6:	ffffe617          	auipc	a2,0xffffe
200124ca:	f9660613          	addi	a2,a2,-106 # 2001045c <name+0xc>
200124ce:	070a                	slli	a4,a4,0x2
200124d0:	9732                	add	a4,a4,a2
200124d2:	4318                	lw	a4,0(a4)
200124d4:	9732                	add	a4,a4,a2
200124d6:	8702                	jr	a4
/home/scratch/jenkins/workspace/tpp-freedom-tools/tpp04--build-binary-packages--parameterized/obj/x86_64-linux-centos6/build/riscv64-unknown-elf-gcc/build-gcc-stage2/riscv64-unknown-elf/rv32imac/ilp32/libgcc/../../../../../riscv-gcc/libgcc/soft-fp/divdf3.c:44 (discriminator 2)
200124d8:	00a4eab3          	or	s5,s1,a0
200124dc:	060a8263          	beqz	s5,20012540 <__divdf3+0x11e>
/home/scratch/jenkins/workspace/tpp-freedom-tools/tpp04--build-binary-packages--parameterized/obj/x86_64-linux-centos6/build/riscv64-unknown-elf-gcc/build-gcc-stage2/riscv64-unknown-elf/rv32imac/ilp32/libgcc/../../../../../riscv-gcc/libgcc/soft-fp/divdf3.c:44 (discriminator 13)
200124e0:	c89d                	beqz	s1,20012516 <__divdf3+0xf4>
/home/scratch/jenkins/workspace/tpp-freedom-tools/tpp04--build-binary-packages--parameterized/obj/x86_64-linux-centos6/build/riscv64-unknown-elf-gcc/build-gcc-stage2/riscv64-unknown-elf/rv32imac/ilp32/libgcc/../../../../../riscv-gcc/libgcc/soft-fp/divdf3.c:44 (discriminator 17)
200124e2:	8526                	mv	a0,s1
200124e4:	d04ff0ef          	jal	ra,200119e8 <__clzsi2>
/home/scratch/jenkins/workspace/tpp-freedom-tools/tpp04--build-binary-packages--parameterized/obj/x86_64-linux-centos6/build/riscv64-unknown-elf-gcc/build-gcc-stage2/riscv64-unknown-elf/rv32imac/ilp32/libgcc/../../../../../riscv-gcc/libgcc/soft-fp/divdf3.c:44 (discriminator 31)
200124e8:	ff550793          	addi	a5,a0,-11
200124ec:	4771                	li	a4,28
200124ee:	02f74963          	blt	a4,a5,20012520 <__divdf3+0xfe>
/home/scratch/jenkins/workspace/tpp-freedom-tools/tpp04--build-binary-packages--parameterized/obj/x86_64-linux-centos6/build/riscv64-unknown-elf-gcc/build-gcc-stage2/riscv64-unknown-elf/rv32imac/ilp32/libgcc/../../../../../riscv-gcc/libgcc/soft-fp/divdf3.c:44 (discriminator 32)
200124f2:	4af5                	li	s5,29
200124f4:	ff850413          	addi	s0,a0,-8
200124f8:	40fa8ab3          	sub	s5,s5,a5
200124fc:	008494b3          	sll	s1,s1,s0
20012500:	015a5ab3          	srl	s5,s4,s5
20012504:	009aeab3          	or	s5,s5,s1
20012508:	008a1433          	sll	s0,s4,s0
/home/scratch/jenkins/workspace/tpp-freedom-tools/tpp04--build-binary-packages--parameterized/obj/x86_64-linux-centos6/build/riscv64-unknown-elf-gcc/build-gcc-stage2/riscv64-unknown-elf/rv32imac/ilp32/libgcc/../../../../../riscv-gcc/libgcc/soft-fp/divdf3.c:44 (discriminator 41)
2001250c:	c0d00593          	li	a1,-1011
20012510:	40a58933          	sub	s2,a1,a0
20012514:	b78d                	j	20012476 <__divdf3+0x54>
/home/scratch/jenkins/workspace/tpp-freedom-tools/tpp04--build-binary-packages--parameterized/obj/x86_64-linux-centos6/build/riscv64-unknown-elf-gcc/build-gcc-stage2/riscv64-unknown-elf/rv32imac/ilp32/libgcc/../../../../../riscv-gcc/libgcc/soft-fp/divdf3.c:44 (discriminator 24)
20012516:	cd2ff0ef          	jal	ra,200119e8 <__clzsi2>
2001251a:	02050513          	addi	a0,a0,32
2001251e:	b7e9                	j	200124e8 <__divdf3+0xc6>
/home/scratch/jenkins/workspace/tpp-freedom-tools/tpp04--build-binary-packages--parameterized/obj/x86_64-linux-centos6/build/riscv64-unknown-elf-gcc/build-gcc-stage2/riscv64-unknown-elf/rv32imac/ilp32/libgcc/../../../../../riscv-gcc/libgcc/soft-fp/divdf3.c:44 (discriminator 33)
20012520:	fd850493          	addi	s1,a0,-40
20012524:	009a1ab3          	sll	s5,s4,s1
20012528:	4401                	li	s0,0
2001252a:	b7cd                	j	2001250c <__divdf3+0xea>
/home/scratch/jenkins/workspace/tpp-freedom-tools/tpp04--build-binary-packages--parameterized/obj/x86_64-linux-centos6/build/riscv64-unknown-elf-gcc/build-gcc-stage2/riscv64-unknown-elf/rv32imac/ilp32/libgcc/../../../../../riscv-gcc/libgcc/soft-fp/divdf3.c:44 (discriminator 3)
2001252c:	00a4eab3          	or	s5,s1,a0
20012530:	000a8c63          	beqz	s5,20012548 <__divdf3+0x126>
20012534:	842a                	mv	s0,a0
/home/scratch/jenkins/workspace/tpp-freedom-tools/tpp04--build-binary-packages--parameterized/obj/x86_64-linux-centos6/build/riscv64-unknown-elf-gcc/build-gcc-stage2/riscv64-unknown-elf/rv32imac/ilp32/libgcc/../../../../../riscv-gcc/libgcc/soft-fp/divdf3.c:44
20012536:	8aa6                	mv	s5,s1
20012538:	7ff00913          	li	s2,2047
2001253c:	4b8d                	li	s7,3
2001253e:	bf2d                	j	20012478 <__divdf3+0x56>
20012540:	4401                	li	s0,0
20012542:	4901                	li	s2,0
20012544:	4b85                	li	s7,1
20012546:	bf0d                	j	20012478 <__divdf3+0x56>
20012548:	4401                	li	s0,0
2001254a:	7ff00913          	li	s2,2047
2001254e:	4b89                	li	s7,2
20012550:	b725                	j	20012478 <__divdf3+0x56>
/home/scratch/jenkins/workspace/tpp-freedom-tools/tpp04--build-binary-packages--parameterized/obj/x86_64-linux-centos6/build/riscv64-unknown-elf-gcc/build-gcc-stage2/riscv64-unknown-elf/rv32imac/ilp32/libgcc/../../../../../riscv-gcc/libgcc/soft-fp/divdf3.c:45 (discriminator 2)
20012552:	0164efb3          	or	t6,s1,s6
20012556:	060f8263          	beqz	t6,200125ba <__divdf3+0x198>
/home/scratch/jenkins/workspace/tpp-freedom-tools/tpp04--build-binary-packages--parameterized/obj/x86_64-linux-centos6/build/riscv64-unknown-elf-gcc/build-gcc-stage2/riscv64-unknown-elf/rv32imac/ilp32/libgcc/../../../../../riscv-gcc/libgcc/soft-fp/divdf3.c:45 (discriminator 13)
2001255a:	c89d                	beqz	s1,20012590 <__divdf3+0x16e>
/home/scratch/jenkins/workspace/tpp-freedom-tools/tpp04--build-binary-packages--parameterized/obj/x86_64-linux-centos6/build/riscv64-unknown-elf-gcc/build-gcc-stage2/riscv64-unknown-elf/rv32imac/ilp32/libgcc/../../../../../riscv-gcc/libgcc/soft-fp/divdf3.c:45 (discriminator 17)
2001255c:	8526                	mv	a0,s1
2001255e:	c8aff0ef          	jal	ra,200119e8 <__clzsi2>
20012562:	85aa                	mv	a1,a0
/home/scratch/jenkins/workspace/tpp-freedom-tools/tpp04--build-binary-packages--parameterized/obj/x86_64-linux-centos6/build/riscv64-unknown-elf-gcc/build-gcc-stage2/riscv64-unknown-elf/rv32imac/ilp32/libgcc/../../../../../riscv-gcc/libgcc/soft-fp/divdf3.c:45 (discriminator 31)
20012564:	ff558793          	addi	a5,a1,-11
20012568:	4771                	li	a4,28
2001256a:	02f74963          	blt	a4,a5,2001259c <__divdf3+0x17a>
/home/scratch/jenkins/workspace/tpp-freedom-tools/tpp04--build-binary-packages--parameterized/obj/x86_64-linux-centos6/build/riscv64-unknown-elf-gcc/build-gcc-stage2/riscv64-unknown-elf/rv32imac/ilp32/libgcc/../../../../../riscv-gcc/libgcc/soft-fp/divdf3.c:45 (discriminator 32)
2001256e:	46f5                	li	a3,29
20012570:	ff858f93          	addi	t6,a1,-8
20012574:	8e9d                	sub	a3,a3,a5
20012576:	01f49533          	sll	a0,s1,t6
2001257a:	00db56b3          	srl	a3,s6,a3
2001257e:	00a6e4b3          	or	s1,a3,a0
20012582:	01fb1fb3          	sll	t6,s6,t6
/home/scratch/jenkins/workspace/tpp-freedom-tools/tpp04--build-binary-packages--parameterized/obj/x86_64-linux-centos6/build/riscv64-unknown-elf-gcc/build-gcc-stage2/riscv64-unknown-elf/rv32imac/ilp32/libgcc/../../../../../riscv-gcc/libgcc/soft-fp/divdf3.c:45 (discriminator 41)
20012586:	c0d00693          	li	a3,-1011
2001258a:	40b68533          	sub	a0,a3,a1
2001258e:	b705                	j	200124ae <__divdf3+0x8c>
/home/scratch/jenkins/workspace/tpp-freedom-tools/tpp04--build-binary-packages--parameterized/obj/x86_64-linux-centos6/build/riscv64-unknown-elf-gcc/build-gcc-stage2/riscv64-unknown-elf/rv32imac/ilp32/libgcc/../../../../../riscv-gcc/libgcc/soft-fp/divdf3.c:45 (discriminator 24)
20012590:	855a                	mv	a0,s6
20012592:	c56ff0ef          	jal	ra,200119e8 <__clzsi2>
20012596:	02050593          	addi	a1,a0,32
2001259a:	b7e9                	j	20012564 <__divdf3+0x142>
/home/scratch/jenkins/workspace/tpp-freedom-tools/tpp04--build-binary-packages--parameterized/obj/x86_64-linux-centos6/build/riscv64-unknown-elf-gcc/build-gcc-stage2/riscv64-unknown-elf/rv32imac/ilp32/libgcc/../../../../../riscv-gcc/libgcc/soft-fp/divdf3.c:45 (discriminator 33)
2001259c:	fd858513          	addi	a0,a1,-40
200125a0:	00ab14b3          	sll	s1,s6,a0
200125a4:	4f81                	li	t6,0
200125a6:	b7c5                	j	20012586 <__divdf3+0x164>
/home/scratch/jenkins/workspace/tpp-freedom-tools/tpp04--build-binary-packages--parameterized/obj/x86_64-linux-centos6/build/riscv64-unknown-elf-gcc/build-gcc-stage2/riscv64-unknown-elf/rv32imac/ilp32/libgcc/../../../../../riscv-gcc/libgcc/soft-fp/divdf3.c:45 (discriminator 3)
200125a8:	0164efb3          	or	t6,s1,s6
200125ac:	000f8b63          	beqz	t6,200125c2 <__divdf3+0x1a0>
/home/scratch/jenkins/workspace/tpp-freedom-tools/tpp04--build-binary-packages--parameterized/obj/x86_64-linux-centos6/build/riscv64-unknown-elf-gcc/build-gcc-stage2/riscv64-unknown-elf/rv32imac/ilp32/libgcc/../../../../../riscv-gcc/libgcc/soft-fp/divdf3.c:45
200125b0:	8fda                	mv	t6,s6
200125b2:	7ff00513          	li	a0,2047
200125b6:	478d                	li	a5,3
200125b8:	bde5                	j	200124b0 <__divdf3+0x8e>
200125ba:	4481                	li	s1,0
200125bc:	4501                	li	a0,0
200125be:	4785                	li	a5,1
200125c0:	bdc5                	j	200124b0 <__divdf3+0x8e>
200125c2:	4481                	li	s1,0
200125c4:	7ff00513          	li	a0,2047
200125c8:	4789                	li	a5,2
200125ca:	b5dd                	j	200124b0 <__divdf3+0x8e>
/home/scratch/jenkins/workspace/tpp-freedom-tools/tpp04--build-binary-packages--parameterized/obj/x86_64-linux-centos6/build/riscv64-unknown-elf-gcc/build-gcc-stage2/riscv64-unknown-elf/rv32imac/ilp32/libgcc/../../../../../riscv-gcc/libgcc/soft-fp/divdf3.c:46 (discriminator 2)
200125cc:	0154e663          	bltu	s1,s5,200125d8 <__divdf3+0x1b6>
/home/scratch/jenkins/workspace/tpp-freedom-tools/tpp04--build-binary-packages--parameterized/obj/x86_64-linux-centos6/build/riscv64-unknown-elf-gcc/build-gcc-stage2/riscv64-unknown-elf/rv32imac/ilp32/libgcc/../../../../../riscv-gcc/libgcc/soft-fp/divdf3.c:46 (discriminator 11)
200125d0:	2a9a9663          	bne	s5,s1,2001287c <__divdf3+0x45a>
/home/scratch/jenkins/workspace/tpp-freedom-tools/tpp04--build-binary-packages--parameterized/obj/x86_64-linux-centos6/build/riscv64-unknown-elf-gcc/build-gcc-stage2/riscv64-unknown-elf/rv32imac/ilp32/libgcc/../../../../../riscv-gcc/libgcc/soft-fp/divdf3.c:46 (discriminator 12)
200125d4:	2bf46463          	bltu	s0,t6,2001287c <__divdf3+0x45a>
/home/scratch/jenkins/workspace/tpp-freedom-tools/tpp04--build-binary-packages--parameterized/obj/x86_64-linux-centos6/build/riscv64-unknown-elf-gcc/build-gcc-stage2/riscv64-unknown-elf/rv32imac/ilp32/libgcc/../../../../../riscv-gcc/libgcc/soft-fp/divdf3.c:46 (discriminator 14)
200125d8:	01fa9613          	slli	a2,s5,0x1f
200125dc:	00145713          	srli	a4,s0,0x1
200125e0:	01f41793          	slli	a5,s0,0x1f
200125e4:	001ada93          	srli	s5,s5,0x1
200125e8:	00e66433          	or	s0,a2,a4
/home/scratch/jenkins/workspace/tpp-freedom-tools/tpp04--build-binary-packages--parameterized/obj/x86_64-linux-centos6/build/riscv64-unknown-elf-gcc/build-gcc-stage2/riscv64-unknown-elf/rv32imac/ilp32/libgcc/../../../../../riscv-gcc/libgcc/soft-fp/divdf3.c:46 (discriminator 19)
200125ec:	00849513          	slli	a0,s1,0x8
200125f0:	018fd893          	srli	a7,t6,0x18
200125f4:	00a8e8b3          	or	a7,a7,a0
200125f8:	8141                	srli	a0,a0,0x10
200125fa:	02aade33          	divu	t3,s5,a0
200125fe:	01089e93          	slli	t4,a7,0x10
20012602:	010ede93          	srli	t4,t4,0x10
20012606:	01045713          	srli	a4,s0,0x10
2001260a:	008f9313          	slli	t1,t6,0x8
2001260e:	02aafab3          	remu	s5,s5,a0
20012612:	8672                	mv	a2,t3
20012614:	03ce8833          	mul	a6,t4,t3
20012618:	0ac2                	slli	s5,s5,0x10
2001261a:	01576733          	or	a4,a4,s5
2001261e:	01077c63          	bgeu	a4,a6,20012636 <__divdf3+0x214>
/home/scratch/jenkins/workspace/tpp-freedom-tools/tpp04--build-binary-packages--parameterized/obj/x86_64-linux-centos6/build/riscv64-unknown-elf-gcc/build-gcc-stage2/riscv64-unknown-elf/rv32imac/ilp32/libgcc/../../../../../riscv-gcc/libgcc/soft-fp/divdf3.c:46 (discriminator 22)
20012622:	9746                	add	a4,a4,a7
20012624:	fffe0613          	addi	a2,t3,-1
20012628:	01176763          	bltu	a4,a7,20012636 <__divdf3+0x214>
/home/scratch/jenkins/workspace/tpp-freedom-tools/tpp04--build-binary-packages--parameterized/obj/x86_64-linux-centos6/build/riscv64-unknown-elf-gcc/build-gcc-stage2/riscv64-unknown-elf/rv32imac/ilp32/libgcc/../../../../../riscv-gcc/libgcc/soft-fp/divdf3.c:46 (discriminator 24)
2001262c:	01077563          	bgeu	a4,a6,20012636 <__divdf3+0x214>
/home/scratch/jenkins/workspace/tpp-freedom-tools/tpp04--build-binary-packages--parameterized/obj/x86_64-linux-centos6/build/riscv64-unknown-elf-gcc/build-gcc-stage2/riscv64-unknown-elf/rv32imac/ilp32/libgcc/../../../../../riscv-gcc/libgcc/soft-fp/divdf3.c:46 (discriminator 26)
20012630:	ffee0613          	addi	a2,t3,-2
20012634:	9746                	add	a4,a4,a7
/home/scratch/jenkins/workspace/tpp-freedom-tools/tpp04--build-binary-packages--parameterized/obj/x86_64-linux-centos6/build/riscv64-unknown-elf-gcc/build-gcc-stage2/riscv64-unknown-elf/rv32imac/ilp32/libgcc/../../../../../riscv-gcc/libgcc/soft-fp/divdf3.c:46 (discriminator 28)
20012636:	41070733          	sub	a4,a4,a6
2001263a:	02a75e33          	divu	t3,a4,a0
2001263e:	0442                	slli	s0,s0,0x10
20012640:	8041                	srli	s0,s0,0x10
20012642:	02a77733          	remu	a4,a4,a0
20012646:	82f2                	mv	t0,t3
20012648:	03ce8833          	mul	a6,t4,t3
2001264c:	0742                	slli	a4,a4,0x10
2001264e:	8f41                	or	a4,a4,s0
20012650:	01077c63          	bgeu	a4,a6,20012668 <__divdf3+0x246>
/home/scratch/jenkins/workspace/tpp-freedom-tools/tpp04--build-binary-packages--parameterized/obj/x86_64-linux-centos6/build/riscv64-unknown-elf-gcc/build-gcc-stage2/riscv64-unknown-elf/rv32imac/ilp32/libgcc/../../../../../riscv-gcc/libgcc/soft-fp/divdf3.c:46 (discriminator 29)
20012654:	9746                	add	a4,a4,a7
20012656:	fffe0293          	addi	t0,t3,-1
2001265a:	01176763          	bltu	a4,a7,20012668 <__divdf3+0x246>
/home/scratch/jenkins/workspace/tpp-freedom-tools/tpp04--build-binary-packages--parameterized/obj/x86_64-linux-centos6/build/riscv64-unknown-elf-gcc/build-gcc-stage2/riscv64-unknown-elf/rv32imac/ilp32/libgcc/../../../../../riscv-gcc/libgcc/soft-fp/divdf3.c:46 (discriminator 31)
2001265e:	01077563          	bgeu	a4,a6,20012668 <__divdf3+0x246>
/home/scratch/jenkins/workspace/tpp-freedom-tools/tpp04--build-binary-packages--parameterized/obj/x86_64-linux-centos6/build/riscv64-unknown-elf-gcc/build-gcc-stage2/riscv64-unknown-elf/rv32imac/ilp32/libgcc/../../../../../riscv-gcc/libgcc/soft-fp/divdf3.c:46 (discriminator 33)
20012662:	ffee0293          	addi	t0,t3,-2
20012666:	9746                	add	a4,a4,a7
/home/scratch/jenkins/workspace/tpp-freedom-tools/tpp04--build-binary-packages--parameterized/obj/x86_64-linux-centos6/build/riscv64-unknown-elf-gcc/build-gcc-stage2/riscv64-unknown-elf/rv32imac/ilp32/libgcc/../../../../../riscv-gcc/libgcc/soft-fp/divdf3.c:46 (discriminator 35)
20012668:	41070433          	sub	s0,a4,a6
2001266c:	0642                	slli	a2,a2,0x10
2001266e:	6841                	lui	a6,0x10
20012670:	005662b3          	or	t0,a2,t0
20012674:	fff80e13          	addi	t3,a6,-1 # ffff <__heap_size+0xf7ff>
20012678:	0102d613          	srli	a2,t0,0x10
2001267c:	01c2f733          	and	a4,t0,t3
20012680:	01035f13          	srli	t5,t1,0x10
20012684:	01c37e33          	and	t3,t1,t3
20012688:	02ee03b3          	mul	t2,t3,a4
2001268c:	03c604b3          	mul	s1,a2,t3
20012690:	02ef0733          	mul	a4,t5,a4
20012694:	03e60fb3          	mul	t6,a2,t5
20012698:	00970633          	add	a2,a4,s1
2001269c:	0103d713          	srli	a4,t2,0x10
200126a0:	9732                	add	a4,a4,a2
200126a2:	00977363          	bgeu	a4,s1,200126a8 <__divdf3+0x286>
/home/scratch/jenkins/workspace/tpp-freedom-tools/tpp04--build-binary-packages--parameterized/obj/x86_64-linux-centos6/build/riscv64-unknown-elf-gcc/build-gcc-stage2/riscv64-unknown-elf/rv32imac/ilp32/libgcc/../../../../../riscv-gcc/libgcc/soft-fp/divdf3.c:46 (discriminator 36)
200126a6:	9fc2                	add	t6,t6,a6
/home/scratch/jenkins/workspace/tpp-freedom-tools/tpp04--build-binary-packages--parameterized/obj/x86_64-linux-centos6/build/riscv64-unknown-elf-gcc/build-gcc-stage2/riscv64-unknown-elf/rv32imac/ilp32/libgcc/../../../../../riscv-gcc/libgcc/soft-fp/divdf3.c:46 (discriminator 38)
200126a8:	01075613          	srli	a2,a4,0x10
200126ac:	967e                	add	a2,a2,t6
200126ae:	6fc1                	lui	t6,0x10
200126b0:	1ffd                	addi	t6,t6,-1
200126b2:	01f77833          	and	a6,a4,t6
200126b6:	0842                	slli	a6,a6,0x10
200126b8:	01f3f3b3          	and	t2,t2,t6
200126bc:	981e                	add	a6,a6,t2
200126be:	00c46763          	bltu	s0,a2,200126cc <__divdf3+0x2aa>
/home/scratch/jenkins/workspace/tpp-freedom-tools/tpp04--build-binary-packages--parameterized/obj/x86_64-linux-centos6/build/riscv64-unknown-elf-gcc/build-gcc-stage2/riscv64-unknown-elf/rv32imac/ilp32/libgcc/../../../../../riscv-gcc/libgcc/soft-fp/divdf3.c:46 (discriminator 40)
200126c2:	8496                	mv	s1,t0
200126c4:	02c41e63          	bne	s0,a2,20012700 <__divdf3+0x2de>
/home/scratch/jenkins/workspace/tpp-freedom-tools/tpp04--build-binary-packages--parameterized/obj/x86_64-linux-centos6/build/riscv64-unknown-elf-gcc/build-gcc-stage2/riscv64-unknown-elf/rv32imac/ilp32/libgcc/../../../../../riscv-gcc/libgcc/soft-fp/divdf3.c:46 (discriminator 41)
200126c8:	0307fc63          	bgeu	a5,a6,20012700 <__divdf3+0x2de>
/home/scratch/jenkins/workspace/tpp-freedom-tools/tpp04--build-binary-packages--parameterized/obj/x86_64-linux-centos6/build/riscv64-unknown-elf-gcc/build-gcc-stage2/riscv64-unknown-elf/rv32imac/ilp32/libgcc/../../../../../riscv-gcc/libgcc/soft-fp/divdf3.c:46 (discriminator 43)
200126cc:	979a                	add	a5,a5,t1
200126ce:	0067b733          	sltu	a4,a5,t1
200126d2:	9746                	add	a4,a4,a7
200126d4:	943a                	add	s0,s0,a4
200126d6:	fff28493          	addi	s1,t0,-1
200126da:	0088e663          	bltu	a7,s0,200126e6 <__divdf3+0x2c4>
/home/scratch/jenkins/workspace/tpp-freedom-tools/tpp04--build-binary-packages--parameterized/obj/x86_64-linux-centos6/build/riscv64-unknown-elf-gcc/build-gcc-stage2/riscv64-unknown-elf/rv32imac/ilp32/libgcc/../../../../../riscv-gcc/libgcc/soft-fp/divdf3.c:46 (discriminator 46)
200126de:	02889163          	bne	a7,s0,20012700 <__divdf3+0x2de>
/home/scratch/jenkins/workspace/tpp-freedom-tools/tpp04--build-binary-packages--parameterized/obj/x86_64-linux-centos6/build/riscv64-unknown-elf-gcc/build-gcc-stage2/riscv64-unknown-elf/rv32imac/ilp32/libgcc/../../../../../riscv-gcc/libgcc/soft-fp/divdf3.c:46 (discriminator 47)
200126e2:	0067ef63          	bltu	a5,t1,20012700 <__divdf3+0x2de>
/home/scratch/jenkins/workspace/tpp-freedom-tools/tpp04--build-binary-packages--parameterized/obj/x86_64-linux-centos6/build/riscv64-unknown-elf-gcc/build-gcc-stage2/riscv64-unknown-elf/rv32imac/ilp32/libgcc/../../../../../riscv-gcc/libgcc/soft-fp/divdf3.c:46 (discriminator 49)
200126e6:	00c46663          	bltu	s0,a2,200126f2 <__divdf3+0x2d0>
/home/scratch/jenkins/workspace/tpp-freedom-tools/tpp04--build-binary-packages--parameterized/obj/x86_64-linux-centos6/build/riscv64-unknown-elf-gcc/build-gcc-stage2/riscv64-unknown-elf/rv32imac/ilp32/libgcc/../../../../../riscv-gcc/libgcc/soft-fp/divdf3.c:46 (discriminator 52)
200126ea:	00861b63          	bne	a2,s0,20012700 <__divdf3+0x2de>
/home/scratch/jenkins/workspace/tpp-freedom-tools/tpp04--build-binary-packages--parameterized/obj/x86_64-linux-centos6/build/riscv64-unknown-elf-gcc/build-gcc-stage2/riscv64-unknown-elf/rv32imac/ilp32/libgcc/../../../../../riscv-gcc/libgcc/soft-fp/divdf3.c:46 (discriminator 53)
200126ee:	0107f963          	bgeu	a5,a6,20012700 <__divdf3+0x2de>
/home/scratch/jenkins/workspace/tpp-freedom-tools/tpp04--build-binary-packages--parameterized/obj/x86_64-linux-centos6/build/riscv64-unknown-elf-gcc/build-gcc-stage2/riscv64-unknown-elf/rv32imac/ilp32/libgcc/../../../../../riscv-gcc/libgcc/soft-fp/divdf3.c:46 (discriminator 55)
200126f2:	979a                	add	a5,a5,t1
200126f4:	0067b733          	sltu	a4,a5,t1
200126f8:	9746                	add	a4,a4,a7
200126fa:	ffe28493          	addi	s1,t0,-2
200126fe:	943a                	add	s0,s0,a4
/home/scratch/jenkins/workspace/tpp-freedom-tools/tpp04--build-binary-packages--parameterized/obj/x86_64-linux-centos6/build/riscv64-unknown-elf-gcc/build-gcc-stage2/riscv64-unknown-elf/rv32imac/ilp32/libgcc/../../../../../riscv-gcc/libgcc/soft-fp/divdf3.c:46 (discriminator 57)
20012700:	41078833          	sub	a6,a5,a6
20012704:	8c11                	sub	s0,s0,a2
20012706:	0107b7b3          	sltu	a5,a5,a6
2001270a:	8c1d                	sub	s0,s0,a5
2001270c:	5ffd                	li	t6,-1
2001270e:	0e888763          	beq	a7,s0,200127fc <__divdf3+0x3da>
/home/scratch/jenkins/workspace/tpp-freedom-tools/tpp04--build-binary-packages--parameterized/obj/x86_64-linux-centos6/build/riscv64-unknown-elf-gcc/build-gcc-stage2/riscv64-unknown-elf/rv32imac/ilp32/libgcc/../../../../../riscv-gcc/libgcc/soft-fp/divdf3.c:46 (discriminator 59)
20012712:	02a45fb3          	divu	t6,s0,a0
20012716:	01085713          	srli	a4,a6,0x10
2001271a:	02a47433          	remu	s0,s0,a0
2001271e:	867e                	mv	a2,t6
20012720:	03fe87b3          	mul	a5,t4,t6
20012724:	0442                	slli	s0,s0,0x10
20012726:	8c59                	or	s0,s0,a4
20012728:	00f47c63          	bgeu	s0,a5,20012740 <__divdf3+0x31e>
/home/scratch/jenkins/workspace/tpp-freedom-tools/tpp04--build-binary-packages--parameterized/obj/x86_64-linux-centos6/build/riscv64-unknown-elf-gcc/build-gcc-stage2/riscv64-unknown-elf/rv32imac/ilp32/libgcc/../../../../../riscv-gcc/libgcc/soft-fp/divdf3.c:46 (discriminator 61)
2001272c:	9446                	add	s0,s0,a7
2001272e:	ffff8613          	addi	a2,t6,-1 # ffff <__heap_size+0xf7ff>
20012732:	01146763          	bltu	s0,a7,20012740 <__divdf3+0x31e>
/home/scratch/jenkins/workspace/tpp-freedom-tools/tpp04--build-binary-packages--parameterized/obj/x86_64-linux-centos6/build/riscv64-unknown-elf-gcc/build-gcc-stage2/riscv64-unknown-elf/rv32imac/ilp32/libgcc/../../../../../riscv-gcc/libgcc/soft-fp/divdf3.c:46 (discriminator 63)
20012736:	00f47563          	bgeu	s0,a5,20012740 <__divdf3+0x31e>
/home/scratch/jenkins/workspace/tpp-freedom-tools/tpp04--build-binary-packages--parameterized/obj/x86_64-linux-centos6/build/riscv64-unknown-elf-gcc/build-gcc-stage2/riscv64-unknown-elf/rv32imac/ilp32/libgcc/../../../../../riscv-gcc/libgcc/soft-fp/divdf3.c:46 (discriminator 65)
2001273a:	ffef8613          	addi	a2,t6,-2
2001273e:	9446                	add	s0,s0,a7
/home/scratch/jenkins/workspace/tpp-freedom-tools/tpp04--build-binary-packages--parameterized/obj/x86_64-linux-centos6/build/riscv64-unknown-elf-gcc/build-gcc-stage2/riscv64-unknown-elf/rv32imac/ilp32/libgcc/../../../../../riscv-gcc/libgcc/soft-fp/divdf3.c:46 (discriminator 67)
20012740:	8c1d                	sub	s0,s0,a5
20012742:	02a45733          	divu	a4,s0,a0
20012746:	0842                	slli	a6,a6,0x10
20012748:	01085813          	srli	a6,a6,0x10
2001274c:	02a47433          	remu	s0,s0,a0
20012750:	87ba                	mv	a5,a4
20012752:	02ee8eb3          	mul	t4,t4,a4
20012756:	0442                	slli	s0,s0,0x10
20012758:	00886433          	or	s0,a6,s0
2001275c:	01d47c63          	bgeu	s0,t4,20012774 <__divdf3+0x352>
/home/scratch/jenkins/workspace/tpp-freedom-tools/tpp04--build-binary-packages--parameterized/obj/x86_64-linux-centos6/build/riscv64-unknown-elf-gcc/build-gcc-stage2/riscv64-unknown-elf/rv32imac/ilp32/libgcc/../../../../../riscv-gcc/libgcc/soft-fp/divdf3.c:46 (discriminator 68)
20012760:	9446                	add	s0,s0,a7
20012762:	fff70793          	addi	a5,a4,-1 # ff7fffff <__global_pointer$+0x7f7ff377>
20012766:	01146763          	bltu	s0,a7,20012774 <__divdf3+0x352>
/home/scratch/jenkins/workspace/tpp-freedom-tools/tpp04--build-binary-packages--parameterized/obj/x86_64-linux-centos6/build/riscv64-unknown-elf-gcc/build-gcc-stage2/riscv64-unknown-elf/rv32imac/ilp32/libgcc/../../../../../riscv-gcc/libgcc/soft-fp/divdf3.c:46 (discriminator 70)
2001276a:	01d47563          	bgeu	s0,t4,20012774 <__divdf3+0x352>
/home/scratch/jenkins/workspace/tpp-freedom-tools/tpp04--build-binary-packages--parameterized/obj/x86_64-linux-centos6/build/riscv64-unknown-elf-gcc/build-gcc-stage2/riscv64-unknown-elf/rv32imac/ilp32/libgcc/../../../../../riscv-gcc/libgcc/soft-fp/divdf3.c:46 (discriminator 72)
2001276e:	ffe70793          	addi	a5,a4,-2
20012772:	9446                	add	s0,s0,a7
/home/scratch/jenkins/workspace/tpp-freedom-tools/tpp04--build-binary-packages--parameterized/obj/x86_64-linux-centos6/build/riscv64-unknown-elf-gcc/build-gcc-stage2/riscv64-unknown-elf/rv32imac/ilp32/libgcc/../../../../../riscv-gcc/libgcc/soft-fp/divdf3.c:46 (discriminator 74)
20012774:	0642                	slli	a2,a2,0x10
20012776:	8e5d                	or	a2,a2,a5
20012778:	01061793          	slli	a5,a2,0x10
2001277c:	83c1                	srli	a5,a5,0x10
2001277e:	01065713          	srli	a4,a2,0x10
20012782:	02ef0833          	mul	a6,t5,a4
20012786:	41d40433          	sub	s0,s0,t4
2001278a:	02ff0f33          	mul	t5,t5,a5
2001278e:	03c78eb3          	mul	t4,a5,t3
20012792:	03c70e33          	mul	t3,a4,t3
20012796:	010ed793          	srli	a5,t4,0x10
2001279a:	9f72                	add	t5,t5,t3
2001279c:	97fa                	add	a5,a5,t5
2001279e:	01c7f463          	bgeu	a5,t3,200127a6 <__divdf3+0x384>
/home/scratch/jenkins/workspace/tpp-freedom-tools/tpp04--build-binary-packages--parameterized/obj/x86_64-linux-centos6/build/riscv64-unknown-elf-gcc/build-gcc-stage2/riscv64-unknown-elf/rv32imac/ilp32/libgcc/../../../../../riscv-gcc/libgcc/soft-fp/divdf3.c:46 (discriminator 75)
200127a2:	6741                	lui	a4,0x10
200127a4:	983a                	add	a6,a6,a4
/home/scratch/jenkins/workspace/tpp-freedom-tools/tpp04--build-binary-packages--parameterized/obj/x86_64-linux-centos6/build/riscv64-unknown-elf-gcc/build-gcc-stage2/riscv64-unknown-elf/rv32imac/ilp32/libgcc/../../../../../riscv-gcc/libgcc/soft-fp/divdf3.c:46 (discriminator 77)
200127a6:	0107d713          	srli	a4,a5,0x10
200127aa:	9742                	add	a4,a4,a6
200127ac:	6841                	lui	a6,0x10
200127ae:	187d                	addi	a6,a6,-1
200127b0:	0107f533          	and	a0,a5,a6
200127b4:	0542                	slli	a0,a0,0x10
200127b6:	010efeb3          	and	t4,t4,a6
200127ba:	9576                	add	a0,a0,t4
200127bc:	00e46663          	bltu	s0,a4,200127c8 <__divdf3+0x3a6>
/home/scratch/jenkins/workspace/tpp-freedom-tools/tpp04--build-binary-packages--parameterized/obj/x86_64-linux-centos6/build/riscv64-unknown-elf-gcc/build-gcc-stage2/riscv64-unknown-elf/rv32imac/ilp32/libgcc/../../../../../riscv-gcc/libgcc/soft-fp/divdf3.c:46 (discriminator 79)
200127c0:	18e41f63          	bne	s0,a4,2001295e <__divdf3+0x53c>
/home/scratch/jenkins/workspace/tpp-freedom-tools/tpp04--build-binary-packages--parameterized/obj/x86_64-linux-centos6/build/riscv64-unknown-elf-gcc/build-gcc-stage2/riscv64-unknown-elf/rv32imac/ilp32/libgcc/../../../../../riscv-gcc/libgcc/soft-fp/divdf3.c:46 (discriminator 80)
200127c4:	8fb2                	mv	t6,a2
200127c6:	c91d                	beqz	a0,200127fc <__divdf3+0x3da>
/home/scratch/jenkins/workspace/tpp-freedom-tools/tpp04--build-binary-packages--parameterized/obj/x86_64-linux-centos6/build/riscv64-unknown-elf-gcc/build-gcc-stage2/riscv64-unknown-elf/rv32imac/ilp32/libgcc/../../../../../riscv-gcc/libgcc/soft-fp/divdf3.c:46 (discriminator 82)
200127c8:	9446                	add	s0,s0,a7
200127ca:	fff60f93          	addi	t6,a2,-1
200127ce:	03146163          	bltu	s0,a7,200127f0 <__divdf3+0x3ce>
/home/scratch/jenkins/workspace/tpp-freedom-tools/tpp04--build-binary-packages--parameterized/obj/x86_64-linux-centos6/build/riscv64-unknown-elf-gcc/build-gcc-stage2/riscv64-unknown-elf/rv32imac/ilp32/libgcc/../../../../../riscv-gcc/libgcc/soft-fp/divdf3.c:46 (discriminator 88)
200127d2:	00e46663          	bltu	s0,a4,200127de <__divdf3+0x3bc>
/home/scratch/jenkins/workspace/tpp-freedom-tools/tpp04--build-binary-packages--parameterized/obj/x86_64-linux-centos6/build/riscv64-unknown-elf-gcc/build-gcc-stage2/riscv64-unknown-elf/rv32imac/ilp32/libgcc/../../../../../riscv-gcc/libgcc/soft-fp/divdf3.c:46 (discriminator 91)
200127d6:	18e41363          	bne	s0,a4,2001295c <__divdf3+0x53a>
/home/scratch/jenkins/workspace/tpp-freedom-tools/tpp04--build-binary-packages--parameterized/obj/x86_64-linux-centos6/build/riscv64-unknown-elf-gcc/build-gcc-stage2/riscv64-unknown-elf/rv32imac/ilp32/libgcc/../../../../../riscv-gcc/libgcc/soft-fp/divdf3.c:46 (discriminator 92)
200127da:	00a37d63          	bgeu	t1,a0,200127f4 <__divdf3+0x3d2>
/home/scratch/jenkins/workspace/tpp-freedom-tools/tpp04--build-binary-packages--parameterized/obj/x86_64-linux-centos6/build/riscv64-unknown-elf-gcc/build-gcc-stage2/riscv64-unknown-elf/rv32imac/ilp32/libgcc/../../../../../riscv-gcc/libgcc/soft-fp/divdf3.c:46 (discriminator 94)
200127de:	00131793          	slli	a5,t1,0x1
200127e2:	0067b333          	sltu	t1,a5,t1
200127e6:	989a                	add	a7,a7,t1
200127e8:	ffe60f93          	addi	t6,a2,-2
200127ec:	9446                	add	s0,s0,a7
200127ee:	833e                	mv	t1,a5
/home/scratch/jenkins/workspace/tpp-freedom-tools/tpp04--build-binary-packages--parameterized/obj/x86_64-linux-centos6/build/riscv64-unknown-elf-gcc/build-gcc-stage2/riscv64-unknown-elf/rv32imac/ilp32/libgcc/../../../../../riscv-gcc/libgcc/soft-fp/divdf3.c:46 (discriminator 96)
200127f0:	00e41463          	bne	s0,a4,200127f8 <__divdf3+0x3d6>
/home/scratch/jenkins/workspace/tpp-freedom-tools/tpp04--build-binary-packages--parameterized/obj/x86_64-linux-centos6/build/riscv64-unknown-elf-gcc/build-gcc-stage2/riscv64-unknown-elf/rv32imac/ilp32/libgcc/../../../../../riscv-gcc/libgcc/soft-fp/divdf3.c:46 (discriminator 98)
200127f4:	00650463          	beq	a0,t1,200127fc <__divdf3+0x3da>
/home/scratch/jenkins/workspace/tpp-freedom-tools/tpp04--build-binary-packages--parameterized/obj/x86_64-linux-centos6/build/riscv64-unknown-elf-gcc/build-gcc-stage2/riscv64-unknown-elf/rv32imac/ilp32/libgcc/../../../../../riscv-gcc/libgcc/soft-fp/divdf3.c:46 (discriminator 99)
200127f8:	001fef93          	ori	t6,t6,1
/home/scratch/jenkins/workspace/tpp-freedom-tools/tpp04--build-binary-packages--parameterized/obj/x86_64-linux-centos6/build/riscv64-unknown-elf-gcc/build-gcc-stage2/riscv64-unknown-elf/rv32imac/ilp32/libgcc/../../../../../riscv-gcc/libgcc/soft-fp/divdf3.c:47 (discriminator 2)
200127fc:	3ff58793          	addi	a5,a1,1023
20012800:	0af05b63          	blez	a5,200128b6 <__divdf3+0x494>
/home/scratch/jenkins/workspace/tpp-freedom-tools/tpp04--build-binary-packages--parameterized/obj/x86_64-linux-centos6/build/riscv64-unknown-elf-gcc/build-gcc-stage2/riscv64-unknown-elf/rv32imac/ilp32/libgcc/../../../../../riscv-gcc/libgcc/soft-fp/divdf3.c:47 (discriminator 6)
20012804:	007ff713          	andi	a4,t6,7
20012808:	cf01                	beqz	a4,20012820 <__divdf3+0x3fe>
/home/scratch/jenkins/workspace/tpp-freedom-tools/tpp04--build-binary-packages--parameterized/obj/x86_64-linux-centos6/build/riscv64-unknown-elf-gcc/build-gcc-stage2/riscv64-unknown-elf/rv32imac/ilp32/libgcc/../../../../../riscv-gcc/libgcc/soft-fp/divdf3.c:47 (discriminator 8)
2001280a:	00fff713          	andi	a4,t6,15
2001280e:	4611                	li	a2,4
20012810:	00c70863          	beq	a4,a2,20012820 <__divdf3+0x3fe>
/home/scratch/jenkins/workspace/tpp-freedom-tools/tpp04--build-binary-packages--parameterized/obj/x86_64-linux-centos6/build/riscv64-unknown-elf-gcc/build-gcc-stage2/riscv64-unknown-elf/rv32imac/ilp32/libgcc/../../../../../riscv-gcc/libgcc/soft-fp/divdf3.c:47 (discriminator 10)
20012814:	004f8613          	addi	a2,t6,4
20012818:	01f63fb3          	sltu	t6,a2,t6
2001281c:	94fe                	add	s1,s1,t6
2001281e:	8fb2                	mv	t6,a2
/home/scratch/jenkins/workspace/tpp-freedom-tools/tpp04--build-binary-packages--parameterized/obj/x86_64-linux-centos6/build/riscv64-unknown-elf-gcc/build-gcc-stage2/riscv64-unknown-elf/rv32imac/ilp32/libgcc/../../../../../riscv-gcc/libgcc/soft-fp/divdf3.c:47 (discriminator 9)
20012820:	01000737          	lui	a4,0x1000
20012824:	8f65                	and	a4,a4,s1
20012826:	c719                	beqz	a4,20012834 <__divdf3+0x412>
/home/scratch/jenkins/workspace/tpp-freedom-tools/tpp04--build-binary-packages--parameterized/obj/x86_64-linux-centos6/build/riscv64-unknown-elf-gcc/build-gcc-stage2/riscv64-unknown-elf/rv32imac/ilp32/libgcc/../../../../../riscv-gcc/libgcc/soft-fp/divdf3.c:47 (discriminator 24)
20012828:	ff0007b7          	lui	a5,0xff000
2001282c:	17fd                	addi	a5,a5,-1
2001282e:	8cfd                	and	s1,s1,a5
20012830:	40058793          	addi	a5,a1,1024
/home/scratch/jenkins/workspace/tpp-freedom-tools/tpp04--build-binary-packages--parameterized/obj/x86_64-linux-centos6/build/riscv64-unknown-elf-gcc/build-gcc-stage2/riscv64-unknown-elf/rv32imac/ilp32/libgcc/../../../../../riscv-gcc/libgcc/soft-fp/divdf3.c:47 (discriminator 26)
20012834:	7fe00713          	li	a4,2046
20012838:	06f74263          	blt	a4,a5,2001289c <__divdf3+0x47a>
/home/scratch/jenkins/workspace/tpp-freedom-tools/tpp04--build-binary-packages--parameterized/obj/x86_64-linux-centos6/build/riscv64-unknown-elf-gcc/build-gcc-stage2/riscv64-unknown-elf/rv32imac/ilp32/libgcc/../../../../../riscv-gcc/libgcc/soft-fp/divdf3.c:47
2001283c:	003fdf93          	srli	t6,t6,0x3
20012840:	01d49713          	slli	a4,s1,0x1d
20012844:	01f76733          	or	a4,a4,t6
20012848:	0034d513          	srli	a0,s1,0x3
/home/scratch/jenkins/workspace/tpp-freedom-tools/tpp04--build-binary-packages--parameterized/obj/x86_64-linux-centos6/build/riscv64-unknown-elf-gcc/build-gcc-stage2/riscv64-unknown-elf/rv32imac/ilp32/libgcc/../../../../../riscv-gcc/libgcc/soft-fp/divdf3.c:47 (discriminator 119)
2001284c:	07d2                	slli	a5,a5,0x14
2001284e:	7ff00637          	lui	a2,0x7ff00
20012852:	0532                	slli	a0,a0,0xc
/home/scratch/jenkins/workspace/tpp-freedom-tools/tpp04--build-binary-packages--parameterized/obj/x86_64-linux-centos6/build/riscv64-unknown-elf-gcc/build-gcc-stage2/riscv64-unknown-elf/rv32imac/ilp32/libgcc/../../../../../riscv-gcc/libgcc/soft-fp/divdf3.c:51 (discriminator 119)
20012854:	50b2                	lw	ra,44(sp)
20012856:	5422                	lw	s0,40(sp)
/home/scratch/jenkins/workspace/tpp-freedom-tools/tpp04--build-binary-packages--parameterized/obj/x86_64-linux-centos6/build/riscv64-unknown-elf-gcc/build-gcc-stage2/riscv64-unknown-elf/rv32imac/ilp32/libgcc/../../../../../riscv-gcc/libgcc/soft-fp/divdf3.c:47 (discriminator 119)
20012858:	8ff1                	and	a5,a5,a2
2001285a:	8131                	srli	a0,a0,0xc
2001285c:	8d5d                	or	a0,a0,a5
2001285e:	06fe                	slli	a3,a3,0x1f
20012860:	00d567b3          	or	a5,a0,a3
/home/scratch/jenkins/workspace/tpp-freedom-tools/tpp04--build-binary-packages--parameterized/obj/x86_64-linux-centos6/build/riscv64-unknown-elf-gcc/build-gcc-stage2/riscv64-unknown-elf/rv32imac/ilp32/libgcc/../../../../../riscv-gcc/libgcc/soft-fp/divdf3.c:51 (discriminator 119)
20012864:	5492                	lw	s1,36(sp)
20012866:	5902                	lw	s2,32(sp)
20012868:	49f2                	lw	s3,28(sp)
2001286a:	4a62                	lw	s4,24(sp)
2001286c:	4ad2                	lw	s5,20(sp)
2001286e:	4b42                	lw	s6,16(sp)
20012870:	4bb2                	lw	s7,12(sp)
20012872:	4c22                	lw	s8,8(sp)
20012874:	853a                	mv	a0,a4
20012876:	85be                	mv	a1,a5
20012878:	6145                	addi	sp,sp,48
2001287a:	8082                	ret
/home/scratch/jenkins/workspace/tpp-freedom-tools/tpp04--build-binary-packages--parameterized/obj/x86_64-linux-centos6/build/riscv64-unknown-elf-gcc/build-gcc-stage2/riscv64-unknown-elf/rv32imac/ilp32/libgcc/../../../../../riscv-gcc/libgcc/soft-fp/divdf3.c:46 (discriminator 15)
2001287c:	15fd                	addi	a1,a1,-1
2001287e:	4781                	li	a5,0
20012880:	b3b5                	j	200125ec <__divdf3+0x1ca>
/home/scratch/jenkins/workspace/tpp-freedom-tools/tpp04--build-binary-packages--parameterized/obj/x86_64-linux-centos6/build/riscv64-unknown-elf-gcc/build-gcc-stage2/riscv64-unknown-elf/rv32imac/ilp32/libgcc/../../../../../riscv-gcc/libgcc/soft-fp/divdf3.c:44 (discriminator 8)
20012882:	86ce                	mv	a3,s3
/home/scratch/jenkins/workspace/tpp-freedom-tools/tpp04--build-binary-packages--parameterized/obj/x86_64-linux-centos6/build/riscv64-unknown-elf-gcc/build-gcc-stage2/riscv64-unknown-elf/rv32imac/ilp32/libgcc/../../../../../riscv-gcc/libgcc/soft-fp/divdf3.c:46 (discriminator 8)
20012884:	84d6                	mv	s1,s5
20012886:	8fa2                	mv	t6,s0
20012888:	87de                	mv	a5,s7
/home/scratch/jenkins/workspace/tpp-freedom-tools/tpp04--build-binary-packages--parameterized/obj/x86_64-linux-centos6/build/riscv64-unknown-elf-gcc/build-gcc-stage2/riscv64-unknown-elf/rv32imac/ilp32/libgcc/../../../../../riscv-gcc/libgcc/soft-fp/divdf3.c:47 (discriminator 108)
2001288a:	470d                	li	a4,3
2001288c:	0ae78a63          	beq	a5,a4,20012940 <__divdf3+0x51e>
/home/scratch/jenkins/workspace/tpp-freedom-tools/tpp04--build-binary-packages--parameterized/obj/x86_64-linux-centos6/build/riscv64-unknown-elf-gcc/build-gcc-stage2/riscv64-unknown-elf/rv32imac/ilp32/libgcc/../../../../../riscv-gcc/libgcc/soft-fp/divdf3.c:47
20012890:	4705                	li	a4,1
20012892:	0ae78e63          	beq	a5,a4,2001294e <__divdf3+0x52c>
20012896:	4709                	li	a4,2
20012898:	f6e792e3          	bne	a5,a4,200127fc <__divdf3+0x3da>
2001289c:	4501                	li	a0,0
2001289e:	4701                	li	a4,0
200128a0:	7ff00793          	li	a5,2047
200128a4:	b765                	j	2001284c <__divdf3+0x42a>
/home/scratch/jenkins/workspace/tpp-freedom-tools/tpp04--build-binary-packages--parameterized/obj/x86_64-linux-centos6/build/riscv64-unknown-elf-gcc/build-gcc-stage2/riscv64-unknown-elf/rv32imac/ilp32/libgcc/../../../../../riscv-gcc/libgcc/soft-fp/divdf3.c:45 (discriminator 5)
200128a6:	86e2                	mv	a3,s8
/home/scratch/jenkins/workspace/tpp-freedom-tools/tpp04--build-binary-packages--parameterized/obj/x86_64-linux-centos6/build/riscv64-unknown-elf-gcc/build-gcc-stage2/riscv64-unknown-elf/rv32imac/ilp32/libgcc/../../../../../riscv-gcc/libgcc/soft-fp/divdf3.c:46 (discriminator 5)
200128a8:	b7cd                	j	2001288a <__divdf3+0x468>
/home/scratch/jenkins/workspace/tpp-freedom-tools/tpp04--build-binary-packages--parameterized/obj/x86_64-linux-centos6/build/riscv64-unknown-elf-gcc/build-gcc-stage2/riscv64-unknown-elf/rv32imac/ilp32/libgcc/../../../../../riscv-gcc/libgcc/soft-fp/divdf3.c:46
200128aa:	000804b7          	lui	s1,0x80
200128ae:	4f81                	li	t6,0
200128b0:	4681                	li	a3,0
200128b2:	478d                	li	a5,3
200128b4:	bfd9                	j	2001288a <__divdf3+0x468>
/home/scratch/jenkins/workspace/tpp-freedom-tools/tpp04--build-binary-packages--parameterized/obj/x86_64-linux-centos6/build/riscv64-unknown-elf-gcc/build-gcc-stage2/riscv64-unknown-elf/rv32imac/ilp32/libgcc/../../../../../riscv-gcc/libgcc/soft-fp/divdf3.c:47 (discriminator 59)
200128b6:	4505                	li	a0,1
200128b8:	8d1d                	sub	a0,a0,a5
200128ba:	03800713          	li	a4,56
200128be:	08a74863          	blt	a4,a0,2001294e <__divdf3+0x52c>
/home/scratch/jenkins/workspace/tpp-freedom-tools/tpp04--build-binary-packages--parameterized/obj/x86_64-linux-centos6/build/riscv64-unknown-elf-gcc/build-gcc-stage2/riscv64-unknown-elf/rv32imac/ilp32/libgcc/../../../../../riscv-gcc/libgcc/soft-fp/divdf3.c:47 (discriminator 60)
200128c2:	477d                	li	a4,31
200128c4:	04a74963          	blt	a4,a0,20012916 <__divdf3+0x4f4>
/home/scratch/jenkins/workspace/tpp-freedom-tools/tpp04--build-binary-packages--parameterized/obj/x86_64-linux-centos6/build/riscv64-unknown-elf-gcc/build-gcc-stage2/riscv64-unknown-elf/rv32imac/ilp32/libgcc/../../../../../riscv-gcc/libgcc/soft-fp/divdf3.c:47 (discriminator 62)
200128c8:	41e58593          	addi	a1,a1,1054
200128cc:	00b497b3          	sll	a5,s1,a1
200128d0:	00afd733          	srl	a4,t6,a0
200128d4:	00bf95b3          	sll	a1,t6,a1
200128d8:	8fd9                	or	a5,a5,a4
200128da:	00b035b3          	snez	a1,a1
200128de:	8fcd                	or	a5,a5,a1
200128e0:	00a4d533          	srl	a0,s1,a0
/home/scratch/jenkins/workspace/tpp-freedom-tools/tpp04--build-binary-packages--parameterized/obj/x86_64-linux-centos6/build/riscv64-unknown-elf-gcc/build-gcc-stage2/riscv64-unknown-elf/rv32imac/ilp32/libgcc/../../../../../riscv-gcc/libgcc/soft-fp/divdf3.c:47 (discriminator 75)
200128e4:	0077f713          	andi	a4,a5,7
200128e8:	cf01                	beqz	a4,20012900 <__divdf3+0x4de>
/home/scratch/jenkins/workspace/tpp-freedom-tools/tpp04--build-binary-packages--parameterized/obj/x86_64-linux-centos6/build/riscv64-unknown-elf-gcc/build-gcc-stage2/riscv64-unknown-elf/rv32imac/ilp32/libgcc/../../../../../riscv-gcc/libgcc/soft-fp/divdf3.c:47 (discriminator 76)
200128ea:	00f7f713          	andi	a4,a5,15
200128ee:	4611                	li	a2,4
200128f0:	00c70863          	beq	a4,a2,20012900 <__divdf3+0x4de>
/home/scratch/jenkins/workspace/tpp-freedom-tools/tpp04--build-binary-packages--parameterized/obj/x86_64-linux-centos6/build/riscv64-unknown-elf-gcc/build-gcc-stage2/riscv64-unknown-elf/rv32imac/ilp32/libgcc/../../../../../riscv-gcc/libgcc/soft-fp/divdf3.c:47 (discriminator 78)
200128f4:	00478713          	addi	a4,a5,4 # ff000004 <__global_pointer$+0x7efff37c>
200128f8:	00f737b3          	sltu	a5,a4,a5
200128fc:	953e                	add	a0,a0,a5
200128fe:	87ba                	mv	a5,a4
/home/scratch/jenkins/workspace/tpp-freedom-tools/tpp04--build-binary-packages--parameterized/obj/x86_64-linux-centos6/build/riscv64-unknown-elf-gcc/build-gcc-stage2/riscv64-unknown-elf/rv32imac/ilp32/libgcc/../../../../../riscv-gcc/libgcc/soft-fp/divdf3.c:47 (discriminator 77)
20012900:	00800737          	lui	a4,0x800
20012904:	8f69                	and	a4,a4,a0
20012906:	e739                	bnez	a4,20012954 <__divdf3+0x532>
/home/scratch/jenkins/workspace/tpp-freedom-tools/tpp04--build-binary-packages--parameterized/obj/x86_64-linux-centos6/build/riscv64-unknown-elf-gcc/build-gcc-stage2/riscv64-unknown-elf/rv32imac/ilp32/libgcc/../../../../../riscv-gcc/libgcc/soft-fp/divdf3.c:47 (discriminator 93)
20012908:	01d51713          	slli	a4,a0,0x1d
2001290c:	838d                	srli	a5,a5,0x3
2001290e:	8f5d                	or	a4,a4,a5
20012910:	810d                	srli	a0,a0,0x3
/home/scratch/jenkins/workspace/tpp-freedom-tools/tpp04--build-binary-packages--parameterized/obj/x86_64-linux-centos6/build/riscv64-unknown-elf-gcc/build-gcc-stage2/riscv64-unknown-elf/rv32imac/ilp32/libgcc/../../../../../riscv-gcc/libgcc/soft-fp/divdf3.c:47
20012912:	4781                	li	a5,0
20012914:	bf25                	j	2001284c <__divdf3+0x42a>
/home/scratch/jenkins/workspace/tpp-freedom-tools/tpp04--build-binary-packages--parameterized/obj/x86_64-linux-centos6/build/riscv64-unknown-elf-gcc/build-gcc-stage2/riscv64-unknown-elf/rv32imac/ilp32/libgcc/../../../../../riscv-gcc/libgcc/soft-fp/divdf3.c:47 (discriminator 63)
20012916:	5705                	li	a4,-31
20012918:	40f707b3          	sub	a5,a4,a5
2001291c:	02000613          	li	a2,32
20012920:	00f4d7b3          	srl	a5,s1,a5
20012924:	4701                	li	a4,0
20012926:	00c50663          	beq	a0,a2,20012932 <__divdf3+0x510>
/home/scratch/jenkins/workspace/tpp-freedom-tools/tpp04--build-binary-packages--parameterized/obj/x86_64-linux-centos6/build/riscv64-unknown-elf-gcc/build-gcc-stage2/riscv64-unknown-elf/rv32imac/ilp32/libgcc/../../../../../riscv-gcc/libgcc/soft-fp/divdf3.c:47 (discriminator 71)
2001292a:	43e58713          	addi	a4,a1,1086
2001292e:	00e49733          	sll	a4,s1,a4
/home/scratch/jenkins/workspace/tpp-freedom-tools/tpp04--build-binary-packages--parameterized/obj/x86_64-linux-centos6/build/riscv64-unknown-elf-gcc/build-gcc-stage2/riscv64-unknown-elf/rv32imac/ilp32/libgcc/../../../../../riscv-gcc/libgcc/soft-fp/divdf3.c:47 (discriminator 74)
20012932:	01f76733          	or	a4,a4,t6
20012936:	00e03733          	snez	a4,a4
2001293a:	8fd9                	or	a5,a5,a4
2001293c:	4501                	li	a0,0
2001293e:	b75d                	j	200128e4 <__divdf3+0x4c2>
/home/scratch/jenkins/workspace/tpp-freedom-tools/tpp04--build-binary-packages--parameterized/obj/x86_64-linux-centos6/build/riscv64-unknown-elf-gcc/build-gcc-stage2/riscv64-unknown-elf/rv32imac/ilp32/libgcc/../../../../../riscv-gcc/libgcc/soft-fp/divdf3.c:47
20012940:	00080537          	lui	a0,0x80
20012944:	4701                	li	a4,0
20012946:	7ff00793          	li	a5,2047
2001294a:	4681                	li	a3,0
2001294c:	b701                	j	2001284c <__divdf3+0x42a>
2001294e:	4501                	li	a0,0
20012950:	4701                	li	a4,0
20012952:	b7c1                	j	20012912 <__divdf3+0x4f0>
20012954:	4501                	li	a0,0
20012956:	4701                	li	a4,0
20012958:	4785                	li	a5,1
2001295a:	bdcd                	j	2001284c <__divdf3+0x42a>
/home/scratch/jenkins/workspace/tpp-freedom-tools/tpp04--build-binary-packages--parameterized/obj/x86_64-linux-centos6/build/riscv64-unknown-elf-gcc/build-gcc-stage2/riscv64-unknown-elf/rv32imac/ilp32/libgcc/../../../../../riscv-gcc/libgcc/soft-fp/divdf3.c:46
2001295c:	867e                	mv	a2,t6
2001295e:	8fb2                	mv	t6,a2
20012960:	bd61                	j	200127f8 <__divdf3+0x3d6>

20012962 <__ledf2>:
__ledf2():
/home/scratch/jenkins/workspace/tpp-freedom-tools/tpp04--build-binary-packages--parameterized/obj/x86_64-linux-centos6/build/riscv64-unknown-elf-gcc/build-gcc-stage2/riscv64-unknown-elf/rv32imac/ilp32/libgcc/../../../../../riscv-gcc/libgcc/soft-fp/ledf2.c:43
20012962:	00100737          	lui	a4,0x100
20012966:	177d                	addi	a4,a4,-1
20012968:	0145d813          	srli	a6,a1,0x14
2001296c:	00b778b3          	and	a7,a4,a1
/home/scratch/jenkins/workspace/tpp-freedom-tools/tpp04--build-binary-packages--parameterized/obj/x86_64-linux-centos6/build/riscv64-unknown-elf-gcc/build-gcc-stage2/riscv64-unknown-elf/rv32imac/ilp32/libgcc/../../../../../riscv-gcc/libgcc/soft-fp/ledf2.c:36
20012970:	87aa                	mv	a5,a0
20012972:	832a                	mv	t1,a0
/home/scratch/jenkins/workspace/tpp-freedom-tools/tpp04--build-binary-packages--parameterized/obj/x86_64-linux-centos6/build/riscv64-unknown-elf-gcc/build-gcc-stage2/riscv64-unknown-elf/rv32imac/ilp32/libgcc/../../../../../riscv-gcc/libgcc/soft-fp/ledf2.c:43
20012974:	7ff87813          	andi	a6,a6,2047
20012978:	01f5d513          	srli	a0,a1,0x1f
/home/scratch/jenkins/workspace/tpp-freedom-tools/tpp04--build-binary-packages--parameterized/obj/x86_64-linux-centos6/build/riscv64-unknown-elf-gcc/build-gcc-stage2/riscv64-unknown-elf/rv32imac/ilp32/libgcc/../../../../../riscv-gcc/libgcc/soft-fp/ledf2.c:45
2001297c:	7ff00e93          	li	t4,2047
/home/scratch/jenkins/workspace/tpp-freedom-tools/tpp04--build-binary-packages--parameterized/obj/x86_64-linux-centos6/build/riscv64-unknown-elf-gcc/build-gcc-stage2/riscv64-unknown-elf/rv32imac/ilp32/libgcc/../../../../../riscv-gcc/libgcc/soft-fp/ledf2.c:44
20012980:	0146d593          	srli	a1,a3,0x14
20012984:	8f75                	and	a4,a4,a3
20012986:	8e32                	mv	t3,a2
20012988:	7ff5f593          	andi	a1,a1,2047
2001298c:	82fd                	srli	a3,a3,0x1f
/home/scratch/jenkins/workspace/tpp-freedom-tools/tpp04--build-binary-packages--parameterized/obj/x86_64-linux-centos6/build/riscv64-unknown-elf-gcc/build-gcc-stage2/riscv64-unknown-elf/rv32imac/ilp32/libgcc/../../../../../riscv-gcc/libgcc/soft-fp/ledf2.c:45
2001298e:	01d81863          	bne	a6,t4,2001299e <__ledf2+0x3c>
/home/scratch/jenkins/workspace/tpp-freedom-tools/tpp04--build-binary-packages--parameterized/obj/x86_64-linux-centos6/build/riscv64-unknown-elf-gcc/build-gcc-stage2/riscv64-unknown-elf/rv32imac/ilp32/libgcc/../../../../../riscv-gcc/libgcc/soft-fp/ledf2.c:45 (discriminator 20)
20012992:	00f8eeb3          	or	t4,a7,a5
20012996:	060e8463          	beqz	t4,200129fe <__ledf2+0x9c>
/home/scratch/jenkins/workspace/tpp-freedom-tools/tpp04--build-binary-packages--parameterized/obj/x86_64-linux-centos6/build/riscv64-unknown-elf-gcc/build-gcc-stage2/riscv64-unknown-elf/rv32imac/ilp32/libgcc/../../../../../riscv-gcc/libgcc/soft-fp/ledf2.c:45
2001299a:	4509                	li	a0,2
2001299c:	8082                	ret
/home/scratch/jenkins/workspace/tpp-freedom-tools/tpp04--build-binary-packages--parameterized/obj/x86_64-linux-centos6/build/riscv64-unknown-elf-gcc/build-gcc-stage2/riscv64-unknown-elf/rv32imac/ilp32/libgcc/../../../../../riscv-gcc/libgcc/soft-fp/ledf2.c:45 (discriminator 23)
2001299e:	01d59663          	bne	a1,t4,200129aa <__ledf2+0x48>
/home/scratch/jenkins/workspace/tpp-freedom-tools/tpp04--build-binary-packages--parameterized/obj/x86_64-linux-centos6/build/riscv64-unknown-elf-gcc/build-gcc-stage2/riscv64-unknown-elf/rv32imac/ilp32/libgcc/../../../../../riscv-gcc/libgcc/soft-fp/ledf2.c:45 (discriminator 24)
200129a2:	00c76eb3          	or	t4,a4,a2
200129a6:	fe0e9ae3          	bnez	t4,2001299a <__ledf2+0x38>
/home/scratch/jenkins/workspace/tpp-freedom-tools/tpp04--build-binary-packages--parameterized/obj/x86_64-linux-centos6/build/riscv64-unknown-elf-gcc/build-gcc-stage2/riscv64-unknown-elf/rv32imac/ilp32/libgcc/../../../../../riscv-gcc/libgcc/soft-fp/ledf2.c:45 (discriminator 62)
200129aa:	04081c63          	bnez	a6,20012a02 <__ledf2+0xa0>
/home/scratch/jenkins/workspace/tpp-freedom-tools/tpp04--build-binary-packages--parameterized/obj/x86_64-linux-centos6/build/riscv64-unknown-elf-gcc/build-gcc-stage2/riscv64-unknown-elf/rv32imac/ilp32/libgcc/../../../../../riscv-gcc/libgcc/soft-fp/ledf2.c:45 (discriminator 63)
200129ae:	00f8e7b3          	or	a5,a7,a5
200129b2:	0017b793          	seqz	a5,a5
200129b6:	e199                	bnez	a1,200129bc <__ledf2+0x5a>
/home/scratch/jenkins/workspace/tpp-freedom-tools/tpp04--build-binary-packages--parameterized/obj/x86_64-linux-centos6/build/riscv64-unknown-elf-gcc/build-gcc-stage2/riscv64-unknown-elf/rv32imac/ilp32/libgcc/../../../../../riscv-gcc/libgcc/soft-fp/ledf2.c:45 (discriminator 69)
200129b8:	8e59                	or	a2,a2,a4
200129ba:	ce0d                	beqz	a2,200129f4 <__ledf2+0x92>
/home/scratch/jenkins/workspace/tpp-freedom-tools/tpp04--build-binary-packages--parameterized/obj/x86_64-linux-centos6/build/riscv64-unknown-elf-gcc/build-gcc-stage2/riscv64-unknown-elf/rv32imac/ilp32/libgcc/../../../../../riscv-gcc/libgcc/soft-fp/ledf2.c:45
200129bc:	eb81                	bnez	a5,200129cc <__ledf2+0x6a>
200129be:	00d51463          	bne	a0,a3,200129c6 <__ledf2+0x64>
/home/scratch/jenkins/workspace/tpp-freedom-tools/tpp04--build-binary-packages--parameterized/obj/x86_64-linux-centos6/build/riscv64-unknown-elf-gcc/build-gcc-stage2/riscv64-unknown-elf/rv32imac/ilp32/libgcc/../../../../../riscv-gcc/libgcc/soft-fp/ledf2.c:45 (discriminator 95)
200129c2:	0105d963          	bge	a1,a6,200129d4 <__ledf2+0x72>
/home/scratch/jenkins/workspace/tpp-freedom-tools/tpp04--build-binary-packages--parameterized/obj/x86_64-linux-centos6/build/riscv64-unknown-elf-gcc/build-gcc-stage2/riscv64-unknown-elf/rv32imac/ilp32/libgcc/../../../../../riscv-gcc/libgcc/soft-fp/ledf2.c:45 (discriminator 119)
200129c6:	c50d                	beqz	a0,200129f0 <__ledf2+0x8e>
/home/scratch/jenkins/workspace/tpp-freedom-tools/tpp04--build-binary-packages--parameterized/obj/x86_64-linux-centos6/build/riscv64-unknown-elf-gcc/build-gcc-stage2/riscv64-unknown-elf/rv32imac/ilp32/libgcc/../../../../../riscv-gcc/libgcc/soft-fp/ledf2.c:45
200129c8:	557d                	li	a0,-1
200129ca:	8082                	ret
/home/scratch/jenkins/workspace/tpp-freedom-tools/tpp04--build-binary-packages--parameterized/obj/x86_64-linux-centos6/build/riscv64-unknown-elf-gcc/build-gcc-stage2/riscv64-unknown-elf/rv32imac/ilp32/libgcc/../../../../../riscv-gcc/libgcc/soft-fp/ledf2.c:45 (discriminator 80)
200129cc:	557d                	li	a0,-1
200129ce:	c691                	beqz	a3,200129da <__ledf2+0x78>
/home/scratch/jenkins/workspace/tpp-freedom-tools/tpp04--build-binary-packages--parameterized/obj/x86_64-linux-centos6/build/riscv64-unknown-elf-gcc/build-gcc-stage2/riscv64-unknown-elf/rv32imac/ilp32/libgcc/../../../../../riscv-gcc/libgcc/soft-fp/ledf2.c:45
200129d0:	8536                	mv	a0,a3
200129d2:	8082                	ret
/home/scratch/jenkins/workspace/tpp-freedom-tools/tpp04--build-binary-packages--parameterized/obj/x86_64-linux-centos6/build/riscv64-unknown-elf-gcc/build-gcc-stage2/riscv64-unknown-elf/rv32imac/ilp32/libgcc/../../../../../riscv-gcc/libgcc/soft-fp/ledf2.c:45 (discriminator 102)
200129d4:	00b85463          	bge	a6,a1,200129dc <__ledf2+0x7a>
/home/scratch/jenkins/workspace/tpp-freedom-tools/tpp04--build-binary-packages--parameterized/obj/x86_64-linux-centos6/build/riscv64-unknown-elf-gcc/build-gcc-stage2/riscv64-unknown-elf/rv32imac/ilp32/libgcc/../../../../../riscv-gcc/libgcc/soft-fp/ledf2.c:45 (discriminator 130)
200129d8:	d965                	beqz	a0,200129c8 <__ledf2+0x66>
/home/scratch/jenkins/workspace/tpp-freedom-tools/tpp04--build-binary-packages--parameterized/obj/x86_64-linux-centos6/build/riscv64-unknown-elf-gcc/build-gcc-stage2/riscv64-unknown-elf/rv32imac/ilp32/libgcc/../../../../../riscv-gcc/libgcc/soft-fp/ledf2.c:49
200129da:	8082                	ret
/home/scratch/jenkins/workspace/tpp-freedom-tools/tpp04--build-binary-packages--parameterized/obj/x86_64-linux-centos6/build/riscv64-unknown-elf-gcc/build-gcc-stage2/riscv64-unknown-elf/rv32imac/ilp32/libgcc/../../../../../riscv-gcc/libgcc/soft-fp/ledf2.c:45 (discriminator 109)
200129dc:	ff1765e3          	bltu	a4,a7,200129c6 <__ledf2+0x64>
/home/scratch/jenkins/workspace/tpp-freedom-tools/tpp04--build-binary-packages--parameterized/obj/x86_64-linux-centos6/build/riscv64-unknown-elf-gcc/build-gcc-stage2/riscv64-unknown-elf/rv32imac/ilp32/libgcc/../../../../../riscv-gcc/libgcc/soft-fp/ledf2.c:45 (discriminator 116)
200129e0:	00e89c63          	bne	a7,a4,200129f8 <__ledf2+0x96>
/home/scratch/jenkins/workspace/tpp-freedom-tools/tpp04--build-binary-packages--parameterized/obj/x86_64-linux-centos6/build/riscv64-unknown-elf-gcc/build-gcc-stage2/riscv64-unknown-elf/rv32imac/ilp32/libgcc/../../../../../riscv-gcc/libgcc/soft-fp/ledf2.c:45 (discriminator 117)
200129e4:	fe6e61e3          	bltu	t3,t1,200129c6 <__ledf2+0x64>
/home/scratch/jenkins/workspace/tpp-freedom-tools/tpp04--build-binary-packages--parameterized/obj/x86_64-linux-centos6/build/riscv64-unknown-elf-gcc/build-gcc-stage2/riscv64-unknown-elf/rv32imac/ilp32/libgcc/../../../../../riscv-gcc/libgcc/soft-fp/ledf2.c:45 (discriminator 128)
200129e8:	ffc368e3          	bltu	t1,t3,200129d8 <__ledf2+0x76>
/home/scratch/jenkins/workspace/tpp-freedom-tools/tpp04--build-binary-packages--parameterized/obj/x86_64-linux-centos6/build/riscv64-unknown-elf-gcc/build-gcc-stage2/riscv64-unknown-elf/rv32imac/ilp32/libgcc/../../../../../riscv-gcc/libgcc/soft-fp/ledf2.c:45
200129ec:	4501                	li	a0,0
200129ee:	8082                	ret
200129f0:	4505                	li	a0,1
200129f2:	8082                	ret
200129f4:	ffe5                	bnez	a5,200129ec <__ledf2+0x8a>
200129f6:	bfc1                	j	200129c6 <__ledf2+0x64>
200129f8:	fee8e0e3          	bltu	a7,a4,200129d8 <__ledf2+0x76>
200129fc:	bfc5                	j	200129ec <__ledf2+0x8a>
200129fe:	fb0582e3          	beq	a1,a6,200129a2 <__ledf2+0x40>
20012a02:	fdd5                	bnez	a1,200129be <__ledf2+0x5c>
20012a04:	4781                	li	a5,0
20012a06:	bf4d                	j	200129b8 <__ledf2+0x56>

20012a08 <__muldf3>:
__muldf3():
/home/scratch/jenkins/workspace/tpp-freedom-tools/tpp04--build-binary-packages--parameterized/obj/x86_64-linux-centos6/build/riscv64-unknown-elf-gcc/build-gcc-stage2/riscv64-unknown-elf/rv32imac/ilp32/libgcc/../../../../../riscv-gcc/libgcc/soft-fp/muldf3.c:36
20012a08:	7179                	addi	sp,sp,-48
20012a0a:	ce4e                	sw	s3,28(sp)
/home/scratch/jenkins/workspace/tpp-freedom-tools/tpp04--build-binary-packages--parameterized/obj/x86_64-linux-centos6/build/riscv64-unknown-elf-gcc/build-gcc-stage2/riscv64-unknown-elf/rv32imac/ilp32/libgcc/../../../../../riscv-gcc/libgcc/soft-fp/muldf3.c:44
20012a0c:	0145d993          	srli	s3,a1,0x14
/home/scratch/jenkins/workspace/tpp-freedom-tools/tpp04--build-binary-packages--parameterized/obj/x86_64-linux-centos6/build/riscv64-unknown-elf-gcc/build-gcc-stage2/riscv64-unknown-elf/rv32imac/ilp32/libgcc/../../../../../riscv-gcc/libgcc/soft-fp/muldf3.c:36
20012a10:	d422                	sw	s0,40(sp)
20012a12:	d226                	sw	s1,36(sp)
20012a14:	cc52                	sw	s4,24(sp)
20012a16:	ca56                	sw	s5,20(sp)
20012a18:	c65e                	sw	s7,12(sp)
/home/scratch/jenkins/workspace/tpp-freedom-tools/tpp04--build-binary-packages--parameterized/obj/x86_64-linux-centos6/build/riscv64-unknown-elf-gcc/build-gcc-stage2/riscv64-unknown-elf/rv32imac/ilp32/libgcc/../../../../../riscv-gcc/libgcc/soft-fp/muldf3.c:44
20012a1a:	00c59493          	slli	s1,a1,0xc
/home/scratch/jenkins/workspace/tpp-freedom-tools/tpp04--build-binary-packages--parameterized/obj/x86_64-linux-centos6/build/riscv64-unknown-elf-gcc/build-gcc-stage2/riscv64-unknown-elf/rv32imac/ilp32/libgcc/../../../../../riscv-gcc/libgcc/soft-fp/muldf3.c:36
20012a1e:	d606                	sw	ra,44(sp)
20012a20:	d04a                	sw	s2,32(sp)
20012a22:	c85a                	sw	s6,16(sp)
/home/scratch/jenkins/workspace/tpp-freedom-tools/tpp04--build-binary-packages--parameterized/obj/x86_64-linux-centos6/build/riscv64-unknown-elf-gcc/build-gcc-stage2/riscv64-unknown-elf/rv32imac/ilp32/libgcc/../../../../../riscv-gcc/libgcc/soft-fp/muldf3.c:44
20012a24:	7ff9f993          	andi	s3,s3,2047
/home/scratch/jenkins/workspace/tpp-freedom-tools/tpp04--build-binary-packages--parameterized/obj/x86_64-linux-centos6/build/riscv64-unknown-elf-gcc/build-gcc-stage2/riscv64-unknown-elf/rv32imac/ilp32/libgcc/../../../../../riscv-gcc/libgcc/soft-fp/muldf3.c:36
20012a28:	842a                	mv	s0,a0
20012a2a:	8bb2                	mv	s7,a2
20012a2c:	8ab6                	mv	s5,a3
/home/scratch/jenkins/workspace/tpp-freedom-tools/tpp04--build-binary-packages--parameterized/obj/x86_64-linux-centos6/build/riscv64-unknown-elf-gcc/build-gcc-stage2/riscv64-unknown-elf/rv32imac/ilp32/libgcc/../../../../../riscv-gcc/libgcc/soft-fp/muldf3.c:44
20012a2e:	80b1                	srli	s1,s1,0xc
20012a30:	01f5da13          	srli	s4,a1,0x1f
20012a34:	08098163          	beqz	s3,20012ab6 <__muldf3+0xae>
20012a38:	7ff00793          	li	a5,2047
20012a3c:	0cf98563          	beq	s3,a5,20012b06 <__muldf3+0xfe>
/home/scratch/jenkins/workspace/tpp-freedom-tools/tpp04--build-binary-packages--parameterized/obj/x86_64-linux-centos6/build/riscv64-unknown-elf-gcc/build-gcc-stage2/riscv64-unknown-elf/rv32imac/ilp32/libgcc/../../../../../riscv-gcc/libgcc/soft-fp/muldf3.c:44 (discriminator 1)
20012a40:	01d55793          	srli	a5,a0,0x1d
20012a44:	048e                	slli	s1,s1,0x3
20012a46:	8cdd                	or	s1,s1,a5
20012a48:	008007b7          	lui	a5,0x800
20012a4c:	8cdd                	or	s1,s1,a5
20012a4e:	00351913          	slli	s2,a0,0x3
20012a52:	c0198993          	addi	s3,s3,-1023
/home/scratch/jenkins/workspace/tpp-freedom-tools/tpp04--build-binary-packages--parameterized/obj/x86_64-linux-centos6/build/riscv64-unknown-elf-gcc/build-gcc-stage2/riscv64-unknown-elf/rv32imac/ilp32/libgcc/../../../../../riscv-gcc/libgcc/soft-fp/muldf3.c:44 (discriminator 41)
20012a56:	4b01                	li	s6,0
/home/scratch/jenkins/workspace/tpp-freedom-tools/tpp04--build-binary-packages--parameterized/obj/x86_64-linux-centos6/build/riscv64-unknown-elf-gcc/build-gcc-stage2/riscv64-unknown-elf/rv32imac/ilp32/libgcc/../../../../../riscv-gcc/libgcc/soft-fp/muldf3.c:45 (discriminator 8)
20012a58:	014ad513          	srli	a0,s5,0x14
20012a5c:	00ca9413          	slli	s0,s5,0xc
20012a60:	7ff57513          	andi	a0,a0,2047
20012a64:	8031                	srli	s0,s0,0xc
20012a66:	01fada93          	srli	s5,s5,0x1f
20012a6a:	c161                	beqz	a0,20012b2a <__muldf3+0x122>
/home/scratch/jenkins/workspace/tpp-freedom-tools/tpp04--build-binary-packages--parameterized/obj/x86_64-linux-centos6/build/riscv64-unknown-elf-gcc/build-gcc-stage2/riscv64-unknown-elf/rv32imac/ilp32/libgcc/../../../../../riscv-gcc/libgcc/soft-fp/muldf3.c:45
20012a6c:	7ff00793          	li	a5,2047
20012a70:	10f50563          	beq	a0,a5,20012b7a <__muldf3+0x172>
/home/scratch/jenkins/workspace/tpp-freedom-tools/tpp04--build-binary-packages--parameterized/obj/x86_64-linux-centos6/build/riscv64-unknown-elf-gcc/build-gcc-stage2/riscv64-unknown-elf/rv32imac/ilp32/libgcc/../../../../../riscv-gcc/libgcc/soft-fp/muldf3.c:45 (discriminator 1)
20012a74:	01dbd793          	srli	a5,s7,0x1d
20012a78:	040e                	slli	s0,s0,0x3
20012a7a:	8c5d                	or	s0,s0,a5
20012a7c:	008007b7          	lui	a5,0x800
20012a80:	8c5d                	or	s0,s0,a5
20012a82:	c0150513          	addi	a0,a0,-1023 # 7fc01 <__heap_size+0x7f401>
20012a86:	003b9793          	slli	a5,s7,0x3
/home/scratch/jenkins/workspace/tpp-freedom-tools/tpp04--build-binary-packages--parameterized/obj/x86_64-linux-centos6/build/riscv64-unknown-elf-gcc/build-gcc-stage2/riscv64-unknown-elf/rv32imac/ilp32/libgcc/../../../../../riscv-gcc/libgcc/soft-fp/muldf3.c:45 (discriminator 41)
20012a8a:	4701                	li	a4,0
/home/scratch/jenkins/workspace/tpp-freedom-tools/tpp04--build-binary-packages--parameterized/obj/x86_64-linux-centos6/build/riscv64-unknown-elf-gcc/build-gcc-stage2/riscv64-unknown-elf/rv32imac/ilp32/libgcc/../../../../../riscv-gcc/libgcc/soft-fp/muldf3.c:46 (discriminator 8)
20012a8c:	002b1693          	slli	a3,s6,0x2
20012a90:	8ed9                	or	a3,a3,a4
20012a92:	954e                	add	a0,a0,s3
20012a94:	16fd                	addi	a3,a3,-1
20012a96:	4839                	li	a6,14
20012a98:	015a4633          	xor	a2,s4,s5
20012a9c:	00150593          	addi	a1,a0,1
20012aa0:	0ed86e63          	bltu	a6,a3,20012b9c <__muldf3+0x194>
20012aa4:	ffffe517          	auipc	a0,0xffffe
20012aa8:	9f450513          	addi	a0,a0,-1548 # 20010498 <name+0x48>
20012aac:	068a                	slli	a3,a3,0x2
20012aae:	96aa                	add	a3,a3,a0
20012ab0:	4294                	lw	a3,0(a3)
20012ab2:	96aa                	add	a3,a3,a0
20012ab4:	8682                	jr	a3
/home/scratch/jenkins/workspace/tpp-freedom-tools/tpp04--build-binary-packages--parameterized/obj/x86_64-linux-centos6/build/riscv64-unknown-elf-gcc/build-gcc-stage2/riscv64-unknown-elf/rv32imac/ilp32/libgcc/../../../../../riscv-gcc/libgcc/soft-fp/muldf3.c:44 (discriminator 2)
20012ab6:	00a4e933          	or	s2,s1,a0
20012aba:	04090f63          	beqz	s2,20012b18 <__muldf3+0x110>
/home/scratch/jenkins/workspace/tpp-freedom-tools/tpp04--build-binary-packages--parameterized/obj/x86_64-linux-centos6/build/riscv64-unknown-elf-gcc/build-gcc-stage2/riscv64-unknown-elf/rv32imac/ilp32/libgcc/../../../../../riscv-gcc/libgcc/soft-fp/muldf3.c:44 (discriminator 13)
20012abe:	c88d                	beqz	s1,20012af0 <__muldf3+0xe8>
/home/scratch/jenkins/workspace/tpp-freedom-tools/tpp04--build-binary-packages--parameterized/obj/x86_64-linux-centos6/build/riscv64-unknown-elf-gcc/build-gcc-stage2/riscv64-unknown-elf/rv32imac/ilp32/libgcc/../../../../../riscv-gcc/libgcc/soft-fp/muldf3.c:44 (discriminator 17)
20012ac0:	8526                	mv	a0,s1
20012ac2:	f27fe0ef          	jal	ra,200119e8 <__clzsi2>
/home/scratch/jenkins/workspace/tpp-freedom-tools/tpp04--build-binary-packages--parameterized/obj/x86_64-linux-centos6/build/riscv64-unknown-elf-gcc/build-gcc-stage2/riscv64-unknown-elf/rv32imac/ilp32/libgcc/../../../../../riscv-gcc/libgcc/soft-fp/muldf3.c:44 (discriminator 31)
20012ac6:	ff550713          	addi	a4,a0,-11
20012aca:	47f1                	li	a5,28
20012acc:	02e7c763          	blt	a5,a4,20012afa <__muldf3+0xf2>
/home/scratch/jenkins/workspace/tpp-freedom-tools/tpp04--build-binary-packages--parameterized/obj/x86_64-linux-centos6/build/riscv64-unknown-elf-gcc/build-gcc-stage2/riscv64-unknown-elf/rv32imac/ilp32/libgcc/../../../../../riscv-gcc/libgcc/soft-fp/muldf3.c:44 (discriminator 32)
20012ad0:	47f5                	li	a5,29
20012ad2:	ff850913          	addi	s2,a0,-8
20012ad6:	8f99                	sub	a5,a5,a4
20012ad8:	012494b3          	sll	s1,s1,s2
20012adc:	00f457b3          	srl	a5,s0,a5
20012ae0:	8cdd                	or	s1,s1,a5
20012ae2:	01241933          	sll	s2,s0,s2
/home/scratch/jenkins/workspace/tpp-freedom-tools/tpp04--build-binary-packages--parameterized/obj/x86_64-linux-centos6/build/riscv64-unknown-elf-gcc/build-gcc-stage2/riscv64-unknown-elf/rv32imac/ilp32/libgcc/../../../../../riscv-gcc/libgcc/soft-fp/muldf3.c:44 (discriminator 41)
20012ae6:	c0d00993          	li	s3,-1011
20012aea:	40a989b3          	sub	s3,s3,a0
20012aee:	b7a5                	j	20012a56 <__muldf3+0x4e>
/home/scratch/jenkins/workspace/tpp-freedom-tools/tpp04--build-binary-packages--parameterized/obj/x86_64-linux-centos6/build/riscv64-unknown-elf-gcc/build-gcc-stage2/riscv64-unknown-elf/rv32imac/ilp32/libgcc/../../../../../riscv-gcc/libgcc/soft-fp/muldf3.c:44 (discriminator 24)
20012af0:	ef9fe0ef          	jal	ra,200119e8 <__clzsi2>
20012af4:	02050513          	addi	a0,a0,32
20012af8:	b7f9                	j	20012ac6 <__muldf3+0xbe>
/home/scratch/jenkins/workspace/tpp-freedom-tools/tpp04--build-binary-packages--parameterized/obj/x86_64-linux-centos6/build/riscv64-unknown-elf-gcc/build-gcc-stage2/riscv64-unknown-elf/rv32imac/ilp32/libgcc/../../../../../riscv-gcc/libgcc/soft-fp/muldf3.c:44 (discriminator 33)
20012afa:	fd850493          	addi	s1,a0,-40
20012afe:	009414b3          	sll	s1,s0,s1
20012b02:	4901                	li	s2,0
20012b04:	b7cd                	j	20012ae6 <__muldf3+0xde>
/home/scratch/jenkins/workspace/tpp-freedom-tools/tpp04--build-binary-packages--parameterized/obj/x86_64-linux-centos6/build/riscv64-unknown-elf-gcc/build-gcc-stage2/riscv64-unknown-elf/rv32imac/ilp32/libgcc/../../../../../riscv-gcc/libgcc/soft-fp/muldf3.c:44 (discriminator 3)
20012b06:	00a4e933          	or	s2,s1,a0
20012b0a:	00090b63          	beqz	s2,20012b20 <__muldf3+0x118>
/home/scratch/jenkins/workspace/tpp-freedom-tools/tpp04--build-binary-packages--parameterized/obj/x86_64-linux-centos6/build/riscv64-unknown-elf-gcc/build-gcc-stage2/riscv64-unknown-elf/rv32imac/ilp32/libgcc/../../../../../riscv-gcc/libgcc/soft-fp/muldf3.c:44
20012b0e:	892a                	mv	s2,a0
20012b10:	7ff00993          	li	s3,2047
20012b14:	4b0d                	li	s6,3
20012b16:	b789                	j	20012a58 <__muldf3+0x50>
20012b18:	4481                	li	s1,0
20012b1a:	4981                	li	s3,0
20012b1c:	4b05                	li	s6,1
20012b1e:	bf2d                	j	20012a58 <__muldf3+0x50>
20012b20:	4481                	li	s1,0
20012b22:	7ff00993          	li	s3,2047
20012b26:	4b09                	li	s6,2
20012b28:	bf05                	j	20012a58 <__muldf3+0x50>
/home/scratch/jenkins/workspace/tpp-freedom-tools/tpp04--build-binary-packages--parameterized/obj/x86_64-linux-centos6/build/riscv64-unknown-elf-gcc/build-gcc-stage2/riscv64-unknown-elf/rv32imac/ilp32/libgcc/../../../../../riscv-gcc/libgcc/soft-fp/muldf3.c:45 (discriminator 2)
20012b2a:	017467b3          	or	a5,s0,s7
20012b2e:	cfb1                	beqz	a5,20012b8a <__muldf3+0x182>
/home/scratch/jenkins/workspace/tpp-freedom-tools/tpp04--build-binary-packages--parameterized/obj/x86_64-linux-centos6/build/riscv64-unknown-elf-gcc/build-gcc-stage2/riscv64-unknown-elf/rv32imac/ilp32/libgcc/../../../../../riscv-gcc/libgcc/soft-fp/muldf3.c:45 (discriminator 13)
20012b30:	c80d                	beqz	s0,20012b62 <__muldf3+0x15a>
/home/scratch/jenkins/workspace/tpp-freedom-tools/tpp04--build-binary-packages--parameterized/obj/x86_64-linux-centos6/build/riscv64-unknown-elf-gcc/build-gcc-stage2/riscv64-unknown-elf/rv32imac/ilp32/libgcc/../../../../../riscv-gcc/libgcc/soft-fp/muldf3.c:45 (discriminator 17)
20012b32:	8522                	mv	a0,s0
20012b34:	eb5fe0ef          	jal	ra,200119e8 <__clzsi2>
/home/scratch/jenkins/workspace/tpp-freedom-tools/tpp04--build-binary-packages--parameterized/obj/x86_64-linux-centos6/build/riscv64-unknown-elf-gcc/build-gcc-stage2/riscv64-unknown-elf/rv32imac/ilp32/libgcc/../../../../../riscv-gcc/libgcc/soft-fp/muldf3.c:45 (discriminator 31)
20012b38:	ff550693          	addi	a3,a0,-11
20012b3c:	47f1                	li	a5,28
20012b3e:	02d7c863          	blt	a5,a3,20012b6e <__muldf3+0x166>
/home/scratch/jenkins/workspace/tpp-freedom-tools/tpp04--build-binary-packages--parameterized/obj/x86_64-linux-centos6/build/riscv64-unknown-elf-gcc/build-gcc-stage2/riscv64-unknown-elf/rv32imac/ilp32/libgcc/../../../../../riscv-gcc/libgcc/soft-fp/muldf3.c:45 (discriminator 32)
20012b42:	4775                	li	a4,29
20012b44:	ff850793          	addi	a5,a0,-8
20012b48:	8f15                	sub	a4,a4,a3
20012b4a:	00f41433          	sll	s0,s0,a5
20012b4e:	00ebd733          	srl	a4,s7,a4
20012b52:	8c59                	or	s0,s0,a4
20012b54:	00fb97b3          	sll	a5,s7,a5
/home/scratch/jenkins/workspace/tpp-freedom-tools/tpp04--build-binary-packages--parameterized/obj/x86_64-linux-centos6/build/riscv64-unknown-elf-gcc/build-gcc-stage2/riscv64-unknown-elf/rv32imac/ilp32/libgcc/../../../../../riscv-gcc/libgcc/soft-fp/muldf3.c:45 (discriminator 41)
20012b58:	c0d00713          	li	a4,-1011
20012b5c:	40a70533          	sub	a0,a4,a0
20012b60:	b72d                	j	20012a8a <__muldf3+0x82>
/home/scratch/jenkins/workspace/tpp-freedom-tools/tpp04--build-binary-packages--parameterized/obj/x86_64-linux-centos6/build/riscv64-unknown-elf-gcc/build-gcc-stage2/riscv64-unknown-elf/rv32imac/ilp32/libgcc/../../../../../riscv-gcc/libgcc/soft-fp/muldf3.c:45 (discriminator 24)
20012b62:	855e                	mv	a0,s7
20012b64:	e85fe0ef          	jal	ra,200119e8 <__clzsi2>
20012b68:	02050513          	addi	a0,a0,32
20012b6c:	b7f1                	j	20012b38 <__muldf3+0x130>
/home/scratch/jenkins/workspace/tpp-freedom-tools/tpp04--build-binary-packages--parameterized/obj/x86_64-linux-centos6/build/riscv64-unknown-elf-gcc/build-gcc-stage2/riscv64-unknown-elf/rv32imac/ilp32/libgcc/../../../../../riscv-gcc/libgcc/soft-fp/muldf3.c:45 (discriminator 33)
20012b6e:	fd850413          	addi	s0,a0,-40
20012b72:	008b9433          	sll	s0,s7,s0
20012b76:	4781                	li	a5,0
20012b78:	b7c5                	j	20012b58 <__muldf3+0x150>
/home/scratch/jenkins/workspace/tpp-freedom-tools/tpp04--build-binary-packages--parameterized/obj/x86_64-linux-centos6/build/riscv64-unknown-elf-gcc/build-gcc-stage2/riscv64-unknown-elf/rv32imac/ilp32/libgcc/../../../../../riscv-gcc/libgcc/soft-fp/muldf3.c:45 (discriminator 3)
20012b7a:	017467b3          	or	a5,s0,s7
20012b7e:	cb91                	beqz	a5,20012b92 <__muldf3+0x18a>
/home/scratch/jenkins/workspace/tpp-freedom-tools/tpp04--build-binary-packages--parameterized/obj/x86_64-linux-centos6/build/riscv64-unknown-elf-gcc/build-gcc-stage2/riscv64-unknown-elf/rv32imac/ilp32/libgcc/../../../../../riscv-gcc/libgcc/soft-fp/muldf3.c:45
20012b80:	87de                	mv	a5,s7
20012b82:	7ff00513          	li	a0,2047
20012b86:	470d                	li	a4,3
20012b88:	b711                	j	20012a8c <__muldf3+0x84>
20012b8a:	4401                	li	s0,0
20012b8c:	4501                	li	a0,0
20012b8e:	4705                	li	a4,1
20012b90:	bdf5                	j	20012a8c <__muldf3+0x84>
20012b92:	4401                	li	s0,0
20012b94:	7ff00513          	li	a0,2047
20012b98:	4709                	li	a4,2
20012b9a:	bdcd                	j	20012a8c <__muldf3+0x84>
/home/scratch/jenkins/workspace/tpp-freedom-tools/tpp04--build-binary-packages--parameterized/obj/x86_64-linux-centos6/build/riscv64-unknown-elf-gcc/build-gcc-stage2/riscv64-unknown-elf/rv32imac/ilp32/libgcc/../../../../../riscv-gcc/libgcc/soft-fp/muldf3.c:46 (discriminator 2)
20012b9c:	6f41                	lui	t5,0x10
20012b9e:	ffff0e93          	addi	t4,t5,-1 # ffff <__heap_size+0xf7ff>
20012ba2:	01095713          	srli	a4,s2,0x10
20012ba6:	0107d893          	srli	a7,a5,0x10
20012baa:	01d97933          	and	s2,s2,t4
20012bae:	01d7f7b3          	and	a5,a5,t4
20012bb2:	03288833          	mul	a6,a7,s2
20012bb6:	02f906b3          	mul	a3,s2,a5
20012bba:	02f70fb3          	mul	t6,a4,a5
20012bbe:	01f80333          	add	t1,a6,t6
20012bc2:	0106d813          	srli	a6,a3,0x10
20012bc6:	981a                	add	a6,a6,t1
20012bc8:	03170e33          	mul	t3,a4,a7
20012bcc:	01f87363          	bgeu	a6,t6,20012bd2 <__muldf3+0x1ca>
/home/scratch/jenkins/workspace/tpp-freedom-tools/tpp04--build-binary-packages--parameterized/obj/x86_64-linux-centos6/build/riscv64-unknown-elf-gcc/build-gcc-stage2/riscv64-unknown-elf/rv32imac/ilp32/libgcc/../../../../../riscv-gcc/libgcc/soft-fp/muldf3.c:46 (discriminator 9)
20012bd0:	9e7a                	add	t3,t3,t5
/home/scratch/jenkins/workspace/tpp-freedom-tools/tpp04--build-binary-packages--parameterized/obj/x86_64-linux-centos6/build/riscv64-unknown-elf-gcc/build-gcc-stage2/riscv64-unknown-elf/rv32imac/ilp32/libgcc/../../../../../riscv-gcc/libgcc/soft-fp/muldf3.c:46 (discriminator 11)
20012bd2:	01085393          	srli	t2,a6,0x10
20012bd6:	01d87833          	and	a6,a6,t4
20012bda:	01d6f6b3          	and	a3,a3,t4
20012bde:	01045f13          	srli	t5,s0,0x10
20012be2:	01d472b3          	and	t0,s0,t4
20012be6:	0842                	slli	a6,a6,0x10
20012be8:	9836                	add	a6,a6,a3
20012bea:	02570eb3          	mul	t4,a4,t0
20012bee:	025906b3          	mul	a3,s2,t0
20012bf2:	032f0933          	mul	s2,t5,s2
20012bf6:	01d90333          	add	t1,s2,t4
20012bfa:	0106d913          	srli	s2,a3,0x10
20012bfe:	991a                	add	s2,s2,t1
20012c00:	03e70733          	mul	a4,a4,t5
20012c04:	01d97463          	bgeu	s2,t4,20012c0c <__muldf3+0x204>
/home/scratch/jenkins/workspace/tpp-freedom-tools/tpp04--build-binary-packages--parameterized/obj/x86_64-linux-centos6/build/riscv64-unknown-elf-gcc/build-gcc-stage2/riscv64-unknown-elf/rv32imac/ilp32/libgcc/../../../../../riscv-gcc/libgcc/soft-fp/muldf3.c:46 (discriminator 12)
20012c08:	6341                	lui	t1,0x10
20012c0a:	971a                	add	a4,a4,t1
/home/scratch/jenkins/workspace/tpp-freedom-tools/tpp04--build-binary-packages--parameterized/obj/x86_64-linux-centos6/build/riscv64-unknown-elf-gcc/build-gcc-stage2/riscv64-unknown-elf/rv32imac/ilp32/libgcc/../../../../../riscv-gcc/libgcc/soft-fp/muldf3.c:46 (discriminator 14)
20012c0c:	01095e93          	srli	t4,s2,0x10
20012c10:	69c1                	lui	s3,0x10
20012c12:	9eba                	add	t4,t4,a4
20012c14:	fff98713          	addi	a4,s3,-1 # ffff <__heap_size+0xf7ff>
20012c18:	00e97933          	and	s2,s2,a4
20012c1c:	8ef9                	and	a3,a3,a4
20012c1e:	0104d413          	srli	s0,s1,0x10
20012c22:	0942                	slli	s2,s2,0x10
20012c24:	8cf9                	and	s1,s1,a4
20012c26:	02978733          	mul	a4,a5,s1
20012c2a:	9936                	add	s2,s2,a3
20012c2c:	93ca                	add	t2,t2,s2
20012c2e:	02f40333          	mul	t1,s0,a5
20012c32:	029886b3          	mul	a3,a7,s1
20012c36:	028887b3          	mul	a5,a7,s0
20012c3a:	006688b3          	add	a7,a3,t1
20012c3e:	01075693          	srli	a3,a4,0x10
20012c42:	96c6                	add	a3,a3,a7
20012c44:	0066f363          	bgeu	a3,t1,20012c4a <__muldf3+0x242>
/home/scratch/jenkins/workspace/tpp-freedom-tools/tpp04--build-binary-packages--parameterized/obj/x86_64-linux-centos6/build/riscv64-unknown-elf-gcc/build-gcc-stage2/riscv64-unknown-elf/rv32imac/ilp32/libgcc/../../../../../riscv-gcc/libgcc/soft-fp/muldf3.c:46 (discriminator 15)
20012c48:	97ce                	add	a5,a5,s3
/home/scratch/jenkins/workspace/tpp-freedom-tools/tpp04--build-binary-packages--parameterized/obj/x86_64-linux-centos6/build/riscv64-unknown-elf-gcc/build-gcc-stage2/riscv64-unknown-elf/rv32imac/ilp32/libgcc/../../../../../riscv-gcc/libgcc/soft-fp/muldf3.c:46 (discriminator 17)
20012c4a:	0106d893          	srli	a7,a3,0x10
20012c4e:	69c1                	lui	s3,0x10
20012c50:	00f88fb3          	add	t6,a7,a5
20012c54:	fff98793          	addi	a5,s3,-1 # ffff <__heap_size+0xf7ff>
20012c58:	029288b3          	mul	a7,t0,s1
20012c5c:	8efd                	and	a3,a3,a5
20012c5e:	8f7d                	and	a4,a4,a5
20012c60:	06c2                	slli	a3,a3,0x10
20012c62:	96ba                	add	a3,a3,a4
20012c64:	025407b3          	mul	a5,s0,t0
20012c68:	029f04b3          	mul	s1,t5,s1
20012c6c:	028f0333          	mul	t1,t5,s0
20012c70:	94be                	add	s1,s1,a5
20012c72:	0108d413          	srli	s0,a7,0x10
20012c76:	94a2                	add	s1,s1,s0
20012c78:	00f4f363          	bgeu	s1,a5,20012c7e <__muldf3+0x276>
/home/scratch/jenkins/workspace/tpp-freedom-tools/tpp04--build-binary-packages--parameterized/obj/x86_64-linux-centos6/build/riscv64-unknown-elf-gcc/build-gcc-stage2/riscv64-unknown-elf/rv32imac/ilp32/libgcc/../../../../../riscv-gcc/libgcc/soft-fp/muldf3.c:46 (discriminator 18)
20012c7c:	934e                	add	t1,t1,s3
/home/scratch/jenkins/workspace/tpp-freedom-tools/tpp04--build-binary-packages--parameterized/obj/x86_64-linux-centos6/build/riscv64-unknown-elf-gcc/build-gcc-stage2/riscv64-unknown-elf/rv32imac/ilp32/libgcc/../../../../../riscv-gcc/libgcc/soft-fp/muldf3.c:46 (discriminator 20)
20012c7e:	67c1                	lui	a5,0x10
20012c80:	17fd                	addi	a5,a5,-1
20012c82:	00f4f733          	and	a4,s1,a5
20012c86:	00f8f8b3          	and	a7,a7,a5
20012c8a:	0742                	slli	a4,a4,0x10
20012c8c:	9e1e                	add	t3,t3,t2
20012c8e:	9746                	add	a4,a4,a7
20012c90:	012e3933          	sltu	s2,t3,s2
20012c94:	9776                	add	a4,a4,t4
20012c96:	01270433          	add	s0,a4,s2
20012c9a:	9e36                	add	t3,t3,a3
20012c9c:	00de36b3          	sltu	a3,t3,a3
20012ca0:	01f408b3          	add	a7,s0,t6
20012ca4:	00d88f33          	add	t5,a7,a3
20012ca8:	01d73733          	sltu	a4,a4,t4
20012cac:	01243433          	sltu	s0,s0,s2
20012cb0:	8c59                	or	s0,s0,a4
20012cb2:	80c1                	srli	s1,s1,0x10
20012cb4:	01f8b8b3          	sltu	a7,a7,t6
20012cb8:	00df36b3          	sltu	a3,t5,a3
20012cbc:	9426                	add	s0,s0,s1
20012cbe:	00d8e6b3          	or	a3,a7,a3
20012cc2:	9436                	add	s0,s0,a3
20012cc4:	941a                	add	s0,s0,t1
20012cc6:	017f5793          	srli	a5,t5,0x17
20012cca:	0426                	slli	s0,s0,0x9
20012ccc:	8c5d                	or	s0,s0,a5
20012cce:	009e1793          	slli	a5,t3,0x9
20012cd2:	0107e7b3          	or	a5,a5,a6
20012cd6:	00f037b3          	snez	a5,a5
20012cda:	017e5e13          	srli	t3,t3,0x17
20012cde:	009f1713          	slli	a4,t5,0x9
20012ce2:	01c7e7b3          	or	a5,a5,t3
20012ce6:	8fd9                	or	a5,a5,a4
20012ce8:	01000737          	lui	a4,0x1000
20012cec:	8f61                	and	a4,a4,s0
20012cee:	cb4d                	beqz	a4,20012da0 <__muldf3+0x398>
/home/scratch/jenkins/workspace/tpp-freedom-tools/tpp04--build-binary-packages--parameterized/obj/x86_64-linux-centos6/build/riscv64-unknown-elf-gcc/build-gcc-stage2/riscv64-unknown-elf/rv32imac/ilp32/libgcc/../../../../../riscv-gcc/libgcc/soft-fp/muldf3.c:46 (discriminator 38)
20012cf0:	0017d713          	srli	a4,a5,0x1
20012cf4:	8b85                	andi	a5,a5,1
20012cf6:	8fd9                	or	a5,a5,a4
20012cf8:	01f41713          	slli	a4,s0,0x1f
20012cfc:	8fd9                	or	a5,a5,a4
20012cfe:	8005                	srli	s0,s0,0x1
/home/scratch/jenkins/workspace/tpp-freedom-tools/tpp04--build-binary-packages--parameterized/obj/x86_64-linux-centos6/build/riscv64-unknown-elf-gcc/build-gcc-stage2/riscv64-unknown-elf/rv32imac/ilp32/libgcc/../../../../../riscv-gcc/libgcc/soft-fp/muldf3.c:47 (discriminator 2)
20012d00:	3ff58693          	addi	a3,a1,1023
20012d04:	0ad05063          	blez	a3,20012da4 <__muldf3+0x39c>
/home/scratch/jenkins/workspace/tpp-freedom-tools/tpp04--build-binary-packages--parameterized/obj/x86_64-linux-centos6/build/riscv64-unknown-elf-gcc/build-gcc-stage2/riscv64-unknown-elf/rv32imac/ilp32/libgcc/../../../../../riscv-gcc/libgcc/soft-fp/muldf3.c:47 (discriminator 6)
20012d08:	0077f713          	andi	a4,a5,7
20012d0c:	cf01                	beqz	a4,20012d24 <__muldf3+0x31c>
/home/scratch/jenkins/workspace/tpp-freedom-tools/tpp04--build-binary-packages--parameterized/obj/x86_64-linux-centos6/build/riscv64-unknown-elf-gcc/build-gcc-stage2/riscv64-unknown-elf/rv32imac/ilp32/libgcc/../../../../../riscv-gcc/libgcc/soft-fp/muldf3.c:47 (discriminator 8)
20012d0e:	00f7f713          	andi	a4,a5,15
20012d12:	4511                	li	a0,4
20012d14:	00a70863          	beq	a4,a0,20012d24 <__muldf3+0x31c>
/home/scratch/jenkins/workspace/tpp-freedom-tools/tpp04--build-binary-packages--parameterized/obj/x86_64-linux-centos6/build/riscv64-unknown-elf-gcc/build-gcc-stage2/riscv64-unknown-elf/rv32imac/ilp32/libgcc/../../../../../riscv-gcc/libgcc/soft-fp/muldf3.c:47 (discriminator 10)
20012d18:	00478713          	addi	a4,a5,4 # 10004 <__heap_size+0xf804>
20012d1c:	00f737b3          	sltu	a5,a4,a5
20012d20:	943e                	add	s0,s0,a5
20012d22:	87ba                	mv	a5,a4
/home/scratch/jenkins/workspace/tpp-freedom-tools/tpp04--build-binary-packages--parameterized/obj/x86_64-linux-centos6/build/riscv64-unknown-elf-gcc/build-gcc-stage2/riscv64-unknown-elf/rv32imac/ilp32/libgcc/../../../../../riscv-gcc/libgcc/soft-fp/muldf3.c:47 (discriminator 9)
20012d24:	01000737          	lui	a4,0x1000
20012d28:	8f61                	and	a4,a4,s0
20012d2a:	c719                	beqz	a4,20012d38 <__muldf3+0x330>
/home/scratch/jenkins/workspace/tpp-freedom-tools/tpp04--build-binary-packages--parameterized/obj/x86_64-linux-centos6/build/riscv64-unknown-elf-gcc/build-gcc-stage2/riscv64-unknown-elf/rv32imac/ilp32/libgcc/../../../../../riscv-gcc/libgcc/soft-fp/muldf3.c:47 (discriminator 24)
20012d2c:	ff000737          	lui	a4,0xff000
20012d30:	177d                	addi	a4,a4,-1
20012d32:	8c79                	and	s0,s0,a4
20012d34:	40058693          	addi	a3,a1,1024
/home/scratch/jenkins/workspace/tpp-freedom-tools/tpp04--build-binary-packages--parameterized/obj/x86_64-linux-centos6/build/riscv64-unknown-elf-gcc/build-gcc-stage2/riscv64-unknown-elf/rv32imac/ilp32/libgcc/../../../../../riscv-gcc/libgcc/soft-fp/muldf3.c:47 (discriminator 26)
20012d38:	7fe00713          	li	a4,2046
20012d3c:	0ed74e63          	blt	a4,a3,20012e38 <__muldf3+0x430>
/home/scratch/jenkins/workspace/tpp-freedom-tools/tpp04--build-binary-packages--parameterized/obj/x86_64-linux-centos6/build/riscv64-unknown-elf-gcc/build-gcc-stage2/riscv64-unknown-elf/rv32imac/ilp32/libgcc/../../../../../riscv-gcc/libgcc/soft-fp/muldf3.c:47
20012d40:	0037d713          	srli	a4,a5,0x3
20012d44:	01d41793          	slli	a5,s0,0x1d
20012d48:	8fd9                	or	a5,a5,a4
20012d4a:	800d                	srli	s0,s0,0x3
/home/scratch/jenkins/workspace/tpp-freedom-tools/tpp04--build-binary-packages--parameterized/obj/x86_64-linux-centos6/build/riscv64-unknown-elf-gcc/build-gcc-stage2/riscv64-unknown-elf/rv32imac/ilp32/libgcc/../../../../../riscv-gcc/libgcc/soft-fp/muldf3.c:47 (discriminator 119)
20012d4c:	01469713          	slli	a4,a3,0x14
20012d50:	0432                	slli	s0,s0,0xc
20012d52:	7ff006b7          	lui	a3,0x7ff00
20012d56:	8f75                	and	a4,a4,a3
20012d58:	8031                	srli	s0,s0,0xc
20012d5a:	8c59                	or	s0,s0,a4
20012d5c:	067e                	slli	a2,a2,0x1f
/home/scratch/jenkins/workspace/tpp-freedom-tools/tpp04--build-binary-packages--parameterized/obj/x86_64-linux-centos6/build/riscv64-unknown-elf-gcc/build-gcc-stage2/riscv64-unknown-elf/rv32imac/ilp32/libgcc/../../../../../riscv-gcc/libgcc/soft-fp/muldf3.c:51 (discriminator 119)
20012d5e:	50b2                	lw	ra,44(sp)
/home/scratch/jenkins/workspace/tpp-freedom-tools/tpp04--build-binary-packages--parameterized/obj/x86_64-linux-centos6/build/riscv64-unknown-elf-gcc/build-gcc-stage2/riscv64-unknown-elf/rv32imac/ilp32/libgcc/../../../../../riscv-gcc/libgcc/soft-fp/muldf3.c:47 (discriminator 119)
20012d60:	00c46733          	or	a4,s0,a2
/home/scratch/jenkins/workspace/tpp-freedom-tools/tpp04--build-binary-packages--parameterized/obj/x86_64-linux-centos6/build/riscv64-unknown-elf-gcc/build-gcc-stage2/riscv64-unknown-elf/rv32imac/ilp32/libgcc/../../../../../riscv-gcc/libgcc/soft-fp/muldf3.c:51 (discriminator 119)
20012d64:	5422                	lw	s0,40(sp)
20012d66:	5492                	lw	s1,36(sp)
20012d68:	5902                	lw	s2,32(sp)
20012d6a:	49f2                	lw	s3,28(sp)
20012d6c:	4a62                	lw	s4,24(sp)
20012d6e:	4ad2                	lw	s5,20(sp)
20012d70:	4b42                	lw	s6,16(sp)
20012d72:	4bb2                	lw	s7,12(sp)
20012d74:	853e                	mv	a0,a5
20012d76:	85ba                	mv	a1,a4
20012d78:	6145                	addi	sp,sp,48
20012d7a:	8082                	ret
/home/scratch/jenkins/workspace/tpp-freedom-tools/tpp04--build-binary-packages--parameterized/obj/x86_64-linux-centos6/build/riscv64-unknown-elf-gcc/build-gcc-stage2/riscv64-unknown-elf/rv32imac/ilp32/libgcc/../../../../../riscv-gcc/libgcc/soft-fp/muldf3.c:44 (discriminator 7)
20012d7c:	8652                	mv	a2,s4
/home/scratch/jenkins/workspace/tpp-freedom-tools/tpp04--build-binary-packages--parameterized/obj/x86_64-linux-centos6/build/riscv64-unknown-elf-gcc/build-gcc-stage2/riscv64-unknown-elf/rv32imac/ilp32/libgcc/../../../../../riscv-gcc/libgcc/soft-fp/muldf3.c:46 (discriminator 7)
20012d7e:	8426                	mv	s0,s1
20012d80:	87ca                	mv	a5,s2
20012d82:	875a                	mv	a4,s6
/home/scratch/jenkins/workspace/tpp-freedom-tools/tpp04--build-binary-packages--parameterized/obj/x86_64-linux-centos6/build/riscv64-unknown-elf-gcc/build-gcc-stage2/riscv64-unknown-elf/rv32imac/ilp32/libgcc/../../../../../riscv-gcc/libgcc/soft-fp/muldf3.c:47 (discriminator 47)
20012d84:	4689                	li	a3,2
20012d86:	0ad70963          	beq	a4,a3,20012e38 <__muldf3+0x430>
/home/scratch/jenkins/workspace/tpp-freedom-tools/tpp04--build-binary-packages--parameterized/obj/x86_64-linux-centos6/build/riscv64-unknown-elf-gcc/build-gcc-stage2/riscv64-unknown-elf/rv32imac/ilp32/libgcc/../../../../../riscv-gcc/libgcc/soft-fp/muldf3.c:47
20012d8a:	468d                	li	a3,3
20012d8c:	08d70f63          	beq	a4,a3,20012e2a <__muldf3+0x422>
20012d90:	4685                	li	a3,1
20012d92:	f6d717e3          	bne	a4,a3,20012d00 <__muldf3+0x2f8>
20012d96:	4401                	li	s0,0
20012d98:	4781                	li	a5,0
20012d9a:	a09d                	j	20012e00 <__muldf3+0x3f8>
/home/scratch/jenkins/workspace/tpp-freedom-tools/tpp04--build-binary-packages--parameterized/obj/x86_64-linux-centos6/build/riscv64-unknown-elf-gcc/build-gcc-stage2/riscv64-unknown-elf/rv32imac/ilp32/libgcc/../../../../../riscv-gcc/libgcc/soft-fp/muldf3.c:45 (discriminator 4)
20012d9c:	8656                	mv	a2,s5
/home/scratch/jenkins/workspace/tpp-freedom-tools/tpp04--build-binary-packages--parameterized/obj/x86_64-linux-centos6/build/riscv64-unknown-elf-gcc/build-gcc-stage2/riscv64-unknown-elf/rv32imac/ilp32/libgcc/../../../../../riscv-gcc/libgcc/soft-fp/muldf3.c:46 (discriminator 4)
20012d9e:	b7dd                	j	20012d84 <__muldf3+0x37c>
/home/scratch/jenkins/workspace/tpp-freedom-tools/tpp04--build-binary-packages--parameterized/obj/x86_64-linux-centos6/build/riscv64-unknown-elf-gcc/build-gcc-stage2/riscv64-unknown-elf/rv32imac/ilp32/libgcc/../../../../../riscv-gcc/libgcc/soft-fp/muldf3.c:46
20012da0:	85aa                	mv	a1,a0
20012da2:	bfb9                	j	20012d00 <__muldf3+0x2f8>
/home/scratch/jenkins/workspace/tpp-freedom-tools/tpp04--build-binary-packages--parameterized/obj/x86_64-linux-centos6/build/riscv64-unknown-elf-gcc/build-gcc-stage2/riscv64-unknown-elf/rv32imac/ilp32/libgcc/../../../../../riscv-gcc/libgcc/soft-fp/muldf3.c:47 (discriminator 59)
20012da4:	4505                	li	a0,1
20012da6:	8d15                	sub	a0,a0,a3
20012da8:	03800713          	li	a4,56
20012dac:	fea745e3          	blt	a4,a0,20012d96 <__muldf3+0x38e>
/home/scratch/jenkins/workspace/tpp-freedom-tools/tpp04--build-binary-packages--parameterized/obj/x86_64-linux-centos6/build/riscv64-unknown-elf-gcc/build-gcc-stage2/riscv64-unknown-elf/rv32imac/ilp32/libgcc/../../../../../riscv-gcc/libgcc/soft-fp/muldf3.c:47 (discriminator 60)
20012db0:	477d                	li	a4,31
20012db2:	04a74963          	blt	a4,a0,20012e04 <__muldf3+0x3fc>
/home/scratch/jenkins/workspace/tpp-freedom-tools/tpp04--build-binary-packages--parameterized/obj/x86_64-linux-centos6/build/riscv64-unknown-elf-gcc/build-gcc-stage2/riscv64-unknown-elf/rv32imac/ilp32/libgcc/../../../../../riscv-gcc/libgcc/soft-fp/muldf3.c:47 (discriminator 62)
20012db6:	41e58593          	addi	a1,a1,1054
20012dba:	00b41733          	sll	a4,s0,a1
20012dbe:	00a7d6b3          	srl	a3,a5,a0
20012dc2:	00b797b3          	sll	a5,a5,a1
20012dc6:	8f55                	or	a4,a4,a3
20012dc8:	00f037b3          	snez	a5,a5
20012dcc:	8fd9                	or	a5,a5,a4
20012dce:	00a45433          	srl	s0,s0,a0
/home/scratch/jenkins/workspace/tpp-freedom-tools/tpp04--build-binary-packages--parameterized/obj/x86_64-linux-centos6/build/riscv64-unknown-elf-gcc/build-gcc-stage2/riscv64-unknown-elf/rv32imac/ilp32/libgcc/../../../../../riscv-gcc/libgcc/soft-fp/muldf3.c:47 (discriminator 75)
20012dd2:	0077f713          	andi	a4,a5,7
20012dd6:	cf01                	beqz	a4,20012dee <__muldf3+0x3e6>
/home/scratch/jenkins/workspace/tpp-freedom-tools/tpp04--build-binary-packages--parameterized/obj/x86_64-linux-centos6/build/riscv64-unknown-elf-gcc/build-gcc-stage2/riscv64-unknown-elf/rv32imac/ilp32/libgcc/../../../../../riscv-gcc/libgcc/soft-fp/muldf3.c:47 (discriminator 76)
20012dd8:	00f7f713          	andi	a4,a5,15
20012ddc:	4691                	li	a3,4
20012dde:	00d70863          	beq	a4,a3,20012dee <__muldf3+0x3e6>
/home/scratch/jenkins/workspace/tpp-freedom-tools/tpp04--build-binary-packages--parameterized/obj/x86_64-linux-centos6/build/riscv64-unknown-elf-gcc/build-gcc-stage2/riscv64-unknown-elf/rv32imac/ilp32/libgcc/../../../../../riscv-gcc/libgcc/soft-fp/muldf3.c:47 (discriminator 78)
20012de2:	00478713          	addi	a4,a5,4
20012de6:	00f737b3          	sltu	a5,a4,a5
20012dea:	943e                	add	s0,s0,a5
20012dec:	87ba                	mv	a5,a4
/home/scratch/jenkins/workspace/tpp-freedom-tools/tpp04--build-binary-packages--parameterized/obj/x86_64-linux-centos6/build/riscv64-unknown-elf-gcc/build-gcc-stage2/riscv64-unknown-elf/rv32imac/ilp32/libgcc/../../../../../riscv-gcc/libgcc/soft-fp/muldf3.c:47 (discriminator 77)
20012dee:	00800737          	lui	a4,0x800
20012df2:	8f61                	and	a4,a4,s0
20012df4:	e739                	bnez	a4,20012e42 <__muldf3+0x43a>
/home/scratch/jenkins/workspace/tpp-freedom-tools/tpp04--build-binary-packages--parameterized/obj/x86_64-linux-centos6/build/riscv64-unknown-elf-gcc/build-gcc-stage2/riscv64-unknown-elf/rv32imac/ilp32/libgcc/../../../../../riscv-gcc/libgcc/soft-fp/muldf3.c:47 (discriminator 93)
20012df6:	01d41713          	slli	a4,s0,0x1d
20012dfa:	838d                	srli	a5,a5,0x3
20012dfc:	8fd9                	or	a5,a5,a4
20012dfe:	800d                	srli	s0,s0,0x3
/home/scratch/jenkins/workspace/tpp-freedom-tools/tpp04--build-binary-packages--parameterized/obj/x86_64-linux-centos6/build/riscv64-unknown-elf-gcc/build-gcc-stage2/riscv64-unknown-elf/rv32imac/ilp32/libgcc/../../../../../riscv-gcc/libgcc/soft-fp/muldf3.c:47
20012e00:	4681                	li	a3,0
20012e02:	b7a9                	j	20012d4c <__muldf3+0x344>
/home/scratch/jenkins/workspace/tpp-freedom-tools/tpp04--build-binary-packages--parameterized/obj/x86_64-linux-centos6/build/riscv64-unknown-elf-gcc/build-gcc-stage2/riscv64-unknown-elf/rv32imac/ilp32/libgcc/../../../../../riscv-gcc/libgcc/soft-fp/muldf3.c:47 (discriminator 63)
20012e04:	5705                	li	a4,-31
20012e06:	8f15                	sub	a4,a4,a3
20012e08:	02000813          	li	a6,32
20012e0c:	00e45733          	srl	a4,s0,a4
20012e10:	4681                	li	a3,0
20012e12:	01050663          	beq	a0,a6,20012e1e <__muldf3+0x416>
/home/scratch/jenkins/workspace/tpp-freedom-tools/tpp04--build-binary-packages--parameterized/obj/x86_64-linux-centos6/build/riscv64-unknown-elf-gcc/build-gcc-stage2/riscv64-unknown-elf/rv32imac/ilp32/libgcc/../../../../../riscv-gcc/libgcc/soft-fp/muldf3.c:47 (discriminator 71)
20012e16:	43e58593          	addi	a1,a1,1086
20012e1a:	00b416b3          	sll	a3,s0,a1
/home/scratch/jenkins/workspace/tpp-freedom-tools/tpp04--build-binary-packages--parameterized/obj/x86_64-linux-centos6/build/riscv64-unknown-elf-gcc/build-gcc-stage2/riscv64-unknown-elf/rv32imac/ilp32/libgcc/../../../../../riscv-gcc/libgcc/soft-fp/muldf3.c:47 (discriminator 74)
20012e1e:	8fd5                	or	a5,a5,a3
20012e20:	00f037b3          	snez	a5,a5
20012e24:	8fd9                	or	a5,a5,a4
20012e26:	4401                	li	s0,0
20012e28:	b76d                	j	20012dd2 <__muldf3+0x3ca>
/home/scratch/jenkins/workspace/tpp-freedom-tools/tpp04--build-binary-packages--parameterized/obj/x86_64-linux-centos6/build/riscv64-unknown-elf-gcc/build-gcc-stage2/riscv64-unknown-elf/rv32imac/ilp32/libgcc/../../../../../riscv-gcc/libgcc/soft-fp/muldf3.c:47
20012e2a:	00080437          	lui	s0,0x80
20012e2e:	4781                	li	a5,0
20012e30:	7ff00693          	li	a3,2047
20012e34:	4601                	li	a2,0
20012e36:	bf19                	j	20012d4c <__muldf3+0x344>
20012e38:	4401                	li	s0,0
20012e3a:	4781                	li	a5,0
20012e3c:	7ff00693          	li	a3,2047
20012e40:	b731                	j	20012d4c <__muldf3+0x344>
20012e42:	4401                	li	s0,0
20012e44:	4781                	li	a5,0
20012e46:	4685                	li	a3,1
20012e48:	b711                	j	20012d4c <__muldf3+0x344>

20012e4a <__unorddf2>:
__unorddf2():
/home/scratch/jenkins/workspace/tpp-freedom-tools/tpp04--build-binary-packages--parameterized/obj/x86_64-linux-centos6/build/riscv64-unknown-elf-gcc/build-gcc-stage2/riscv64-unknown-elf/rv32imac/ilp32/libgcc/../../../../../riscv-gcc/libgcc/soft-fp/unorddf2.c:42
20012e4a:	00100737          	lui	a4,0x100
20012e4e:	fff70793          	addi	a5,a4,-1 # fffff <__heap_size+0xff7ff>
20012e52:	00b7f733          	and	a4,a5,a1
20012e56:	81d1                	srli	a1,a1,0x14
/home/scratch/jenkins/workspace/tpp-freedom-tools/tpp04--build-binary-packages--parameterized/obj/x86_64-linux-centos6/build/riscv64-unknown-elf-gcc/build-gcc-stage2/riscv64-unknown-elf/rv32imac/ilp32/libgcc/../../../../../riscv-gcc/libgcc/soft-fp/unorddf2.c:43
20012e58:	8ff5                	and	a5,a5,a3
/home/scratch/jenkins/workspace/tpp-freedom-tools/tpp04--build-binary-packages--parameterized/obj/x86_64-linux-centos6/build/riscv64-unknown-elf-gcc/build-gcc-stage2/riscv64-unknown-elf/rv32imac/ilp32/libgcc/../../../../../riscv-gcc/libgcc/soft-fp/unorddf2.c:42
20012e5a:	7ff5f593          	andi	a1,a1,2047
/home/scratch/jenkins/workspace/tpp-freedom-tools/tpp04--build-binary-packages--parameterized/obj/x86_64-linux-centos6/build/riscv64-unknown-elf-gcc/build-gcc-stage2/riscv64-unknown-elf/rv32imac/ilp32/libgcc/../../../../../riscv-gcc/libgcc/soft-fp/unorddf2.c:43
20012e5e:	82d1                	srli	a3,a3,0x14
/home/scratch/jenkins/workspace/tpp-freedom-tools/tpp04--build-binary-packages--parameterized/obj/x86_64-linux-centos6/build/riscv64-unknown-elf-gcc/build-gcc-stage2/riscv64-unknown-elf/rv32imac/ilp32/libgcc/../../../../../riscv-gcc/libgcc/soft-fp/unorddf2.c:44
20012e60:	7ff00813          	li	a6,2047
/home/scratch/jenkins/workspace/tpp-freedom-tools/tpp04--build-binary-packages--parameterized/obj/x86_64-linux-centos6/build/riscv64-unknown-elf-gcc/build-gcc-stage2/riscv64-unknown-elf/rv32imac/ilp32/libgcc/../../../../../riscv-gcc/libgcc/soft-fp/unorddf2.c:43
20012e64:	7ff6f693          	andi	a3,a3,2047
/home/scratch/jenkins/workspace/tpp-freedom-tools/tpp04--build-binary-packages--parameterized/obj/x86_64-linux-centos6/build/riscv64-unknown-elf-gcc/build-gcc-stage2/riscv64-unknown-elf/rv32imac/ilp32/libgcc/../../../../../riscv-gcc/libgcc/soft-fp/unorddf2.c:44
20012e68:	01059563          	bne	a1,a6,20012e72 <__unorddf2+0x28>
/home/scratch/jenkins/workspace/tpp-freedom-tools/tpp04--build-binary-packages--parameterized/obj/x86_64-linux-centos6/build/riscv64-unknown-elf-gcc/build-gcc-stage2/riscv64-unknown-elf/rv32imac/ilp32/libgcc/../../../../../riscv-gcc/libgcc/soft-fp/unorddf2.c:44 (discriminator 20)
20012e6c:	8f49                	or	a4,a4,a0
20012e6e:	4505                	li	a0,1
20012e70:	eb09                	bnez	a4,20012e82 <__unorddf2+0x38>
/home/scratch/jenkins/workspace/tpp-freedom-tools/tpp04--build-binary-packages--parameterized/obj/x86_64-linux-centos6/build/riscv64-unknown-elf-gcc/build-gcc-stage2/riscv64-unknown-elf/rv32imac/ilp32/libgcc/../../../../../riscv-gcc/libgcc/soft-fp/unorddf2.c:44 (discriminator 23)
20012e72:	7ff00713          	li	a4,2047
20012e76:	4501                	li	a0,0
20012e78:	00e69563          	bne	a3,a4,20012e82 <__unorddf2+0x38>
/home/scratch/jenkins/workspace/tpp-freedom-tools/tpp04--build-binary-packages--parameterized/obj/x86_64-linux-centos6/build/riscv64-unknown-elf-gcc/build-gcc-stage2/riscv64-unknown-elf/rv32imac/ilp32/libgcc/../../../../../riscv-gcc/libgcc/soft-fp/unorddf2.c:44 (discriminator 24)
20012e7c:	8fd1                	or	a5,a5,a2
20012e7e:	00f03533          	snez	a0,a5
/home/scratch/jenkins/workspace/tpp-freedom-tools/tpp04--build-binary-packages--parameterized/obj/x86_64-linux-centos6/build/riscv64-unknown-elf-gcc/build-gcc-stage2/riscv64-unknown-elf/rv32imac/ilp32/libgcc/../../../../../riscv-gcc/libgcc/soft-fp/unorddf2.c:48
20012e82:	8082                	ret

20012e84 <metal_init>:
metal_init():
/home/nicoladgg/wsFreedomStudio/sifive_hifive1_revb_hello/freedom-metal/src/init.c:17
20012e84:	1101                	addi	sp,sp,-32
20012e86:	ce06                	sw	ra,28(sp)
20012e88:	cc22                	sw	s0,24(sp)
20012e8a:	1000                	addi	s0,sp,32
/home/nicoladgg/wsFreedomStudio/sifive_hifive1_revb_hello/freedom-metal/src/init.c:20
20012e8c:	800007b7          	lui	a5,0x80000
20012e90:	4b87a783          	lw	a5,1208(a5) # 800004b8 <__global_pointer$+0xfffff830>
20012e94:	efa9                	bnez	a5,20012eee <metal_init+0x6a>
/home/nicoladgg/wsFreedomStudio/sifive_hifive1_revb_hello/freedom-metal/src/init.c:23
20012e96:	800007b7          	lui	a5,0x80000
20012e9a:	4705                	li	a4,1
20012e9c:	4ae7ac23          	sw	a4,1208(a5) # 800004b8 <__global_pointer$+0xfffff830>
/home/nicoladgg/wsFreedomStudio/sifive_hifive1_revb_hello/freedom-metal/src/init.c:25
20012ea0:	200107b7          	lui	a5,0x20010
20012ea4:	2e878713          	addi	a4,a5,744 # 200102e8 <metal_sifive_fe310_g000_pll_init>
20012ea8:	200107b7          	lui	a5,0x20010
20012eac:	2e078793          	addi	a5,a5,736 # 200102e0 <_metal_sifive_fe310_g000_pll_init_ptr>
20012eb0:	04e7f163          	bgeu	a5,a4,20012ef2 <metal_init+0x6e>
/home/nicoladgg/wsFreedomStudio/sifive_hifive1_revb_hello/freedom-metal/src/init.c:29
20012eb4:	200107b7          	lui	a5,0x20010
20012eb8:	2e078793          	addi	a5,a5,736 # 200102e0 <_metal_sifive_fe310_g000_pll_init_ptr>
20012ebc:	fef42623          	sw	a5,-20(s0) # 7ffec <__heap_size+0x7f7ec>
/home/nicoladgg/wsFreedomStudio/sifive_hifive1_revb_hello/freedom-metal/src/init.c:30
20012ec0:	a831                	j	20012edc <metal_init+0x58>
/home/nicoladgg/wsFreedomStudio/sifive_hifive1_revb_hello/freedom-metal/src/init.c:31
20012ec2:	fec42783          	lw	a5,-20(s0)
20012ec6:	439c                	lw	a5,0(a5)
20012ec8:	fef42423          	sw	a5,-24(s0)
/home/nicoladgg/wsFreedomStudio/sifive_hifive1_revb_hello/freedom-metal/src/init.c:33
20012ecc:	fe842783          	lw	a5,-24(s0)
20012ed0:	9782                	jalr	a5
/home/nicoladgg/wsFreedomStudio/sifive_hifive1_revb_hello/freedom-metal/src/init.c:35
20012ed2:	fec42783          	lw	a5,-20(s0)
20012ed6:	0791                	addi	a5,a5,4
20012ed8:	fef42623          	sw	a5,-20(s0)
/home/nicoladgg/wsFreedomStudio/sifive_hifive1_revb_hello/freedom-metal/src/init.c:30
20012edc:	fec42703          	lw	a4,-20(s0)
20012ee0:	200107b7          	lui	a5,0x20010
20012ee4:	2e878793          	addi	a5,a5,744 # 200102e8 <metal_sifive_fe310_g000_pll_init>
20012ee8:	fcf71de3          	bne	a4,a5,20012ec2 <metal_init+0x3e>
20012eec:	a021                	j	20012ef4 <metal_init+0x70>
/home/nicoladgg/wsFreedomStudio/sifive_hifive1_revb_hello/freedom-metal/src/init.c:21
20012eee:	0001                	nop
20012ef0:	a011                	j	20012ef4 <metal_init+0x70>
/home/nicoladgg/wsFreedomStudio/sifive_hifive1_revb_hello/freedom-metal/src/init.c:26
20012ef2:	0001                	nop
/home/nicoladgg/wsFreedomStudio/sifive_hifive1_revb_hello/freedom-metal/src/init.c:37
20012ef4:	40f2                	lw	ra,28(sp)
20012ef6:	4462                	lw	s0,24(sp)
20012ef8:	6105                	addi	sp,sp,32
20012efa:	8082                	ret

20012efc <metal_fini>:
metal_fini():
/home/nicoladgg/wsFreedomStudio/sifive_hifive1_revb_hello/freedom-metal/src/init.c:39
20012efc:	1101                	addi	sp,sp,-32
20012efe:	ce06                	sw	ra,28(sp)
20012f00:	cc22                	sw	s0,24(sp)
20012f02:	1000                	addi	s0,sp,32
/home/nicoladgg/wsFreedomStudio/sifive_hifive1_revb_hello/freedom-metal/src/init.c:42
20012f04:	800007b7          	lui	a5,0x80000
20012f08:	4bc7a783          	lw	a5,1212(a5) # 800004bc <__global_pointer$+0xfffff834>
20012f0c:	efa9                	bnez	a5,20012f66 <metal_fini+0x6a>
/home/nicoladgg/wsFreedomStudio/sifive_hifive1_revb_hello/freedom-metal/src/init.c:45
20012f0e:	800007b7          	lui	a5,0x80000
20012f12:	4705                	li	a4,1
20012f14:	4ae7ae23          	sw	a4,1212(a5) # 800004bc <__global_pointer$+0xfffff834>
/home/nicoladgg/wsFreedomStudio/sifive_hifive1_revb_hello/freedom-metal/src/init.c:47
20012f18:	200107b7          	lui	a5,0x20010
20012f1c:	2e878713          	addi	a4,a5,744 # 200102e8 <metal_sifive_fe310_g000_pll_init>
20012f20:	200107b7          	lui	a5,0x20010
20012f24:	2e878793          	addi	a5,a5,744 # 200102e8 <metal_sifive_fe310_g000_pll_init>
20012f28:	04e7f163          	bgeu	a5,a4,20012f6a <metal_fini+0x6e>
/home/nicoladgg/wsFreedomStudio/sifive_hifive1_revb_hello/freedom-metal/src/init.c:51
20012f2c:	200107b7          	lui	a5,0x20010
20012f30:	2e878793          	addi	a5,a5,744 # 200102e8 <metal_sifive_fe310_g000_pll_init>
20012f34:	fef42623          	sw	a5,-20(s0)
/home/nicoladgg/wsFreedomStudio/sifive_hifive1_revb_hello/freedom-metal/src/init.c:52
20012f38:	a831                	j	20012f54 <metal_fini+0x58>
/home/nicoladgg/wsFreedomStudio/sifive_hifive1_revb_hello/freedom-metal/src/init.c:53
20012f3a:	fec42783          	lw	a5,-20(s0)
20012f3e:	439c                	lw	a5,0(a5)
20012f40:	fef42423          	sw	a5,-24(s0)
/home/nicoladgg/wsFreedomStudio/sifive_hifive1_revb_hello/freedom-metal/src/init.c:55
20012f44:	fe842783          	lw	a5,-24(s0)
20012f48:	9782                	jalr	a5
/home/nicoladgg/wsFreedomStudio/sifive_hifive1_revb_hello/freedom-metal/src/init.c:57
20012f4a:	fec42783          	lw	a5,-20(s0)
20012f4e:	0791                	addi	a5,a5,4
20012f50:	fef42623          	sw	a5,-20(s0)
/home/nicoladgg/wsFreedomStudio/sifive_hifive1_revb_hello/freedom-metal/src/init.c:52
20012f54:	fec42703          	lw	a4,-20(s0)
20012f58:	200107b7          	lui	a5,0x20010
20012f5c:	2e878793          	addi	a5,a5,744 # 200102e8 <metal_sifive_fe310_g000_pll_init>
20012f60:	fcf71de3          	bne	a4,a5,20012f3a <metal_fini+0x3e>
20012f64:	a021                	j	20012f6c <metal_fini+0x70>
/home/nicoladgg/wsFreedomStudio/sifive_hifive1_revb_hello/freedom-metal/src/init.c:43
20012f66:	0001                	nop
20012f68:	a011                	j	20012f6c <metal_fini+0x70>
/home/nicoladgg/wsFreedomStudio/sifive_hifive1_revb_hello/freedom-metal/src/init.c:48
20012f6a:	0001                	nop
/home/nicoladgg/wsFreedomStudio/sifive_hifive1_revb_hello/freedom-metal/src/init.c:59
20012f6c:	40f2                	lw	ra,28(sp)
20012f6e:	4462                	lw	s0,24(sp)
20012f70:	6105                	addi	sp,sp,32
20012f72:	8082                	ret

20012f74 <metal_init_run>:
metal_init_run():
/home/nicoladgg/wsFreedomStudio/sifive_hifive1_revb_hello/freedom-metal/src/init.c:69
20012f74:	1141                	addi	sp,sp,-16
20012f76:	c606                	sw	ra,12(sp)
20012f78:	c422                	sw	s0,8(sp)
20012f7a:	0800                	addi	s0,sp,16
20012f7c:	3721                	jal	20012e84 <metal_init>
20012f7e:	0001                	nop
20012f80:	40b2                	lw	ra,12(sp)
20012f82:	4422                	lw	s0,8(sp)
20012f84:	0141                	addi	sp,sp,16
20012f86:	8082                	ret

20012f88 <metal_fini_run>:
metal_fini_run():
/home/nicoladgg/wsFreedomStudio/sifive_hifive1_revb_hello/freedom-metal/src/init.c:72
20012f88:	1141                	addi	sp,sp,-16
20012f8a:	c606                	sw	ra,12(sp)
20012f8c:	c422                	sw	s0,8(sp)
20012f8e:	0800                	addi	s0,sp,16
20012f90:	37b5                	jal	20012efc <metal_fini>
20012f92:	0001                	nop
20012f94:	40b2                	lw	ra,12(sp)
20012f96:	4422                	lw	s0,8(sp)
20012f98:	0141                	addi	sp,sp,16
20012f9a:	8082                	ret

20012f9c <__metal_driver_sifive_clint0_control_base>:
__metal_driver_sifive_clint0_control_base():
/home/nicoladgg/wsFreedomStudio/sifive_hifive1_revb_hello/bsp/build/debug/./metal/machine.h:233
20012f9c:	1101                	addi	sp,sp,-32
20012f9e:	ce22                	sw	s0,28(sp)
20012fa0:	1000                	addi	s0,sp,32
20012fa2:	fea42623          	sw	a0,-20(s0)
/home/nicoladgg/wsFreedomStudio/sifive_hifive1_revb_hello/bsp/build/debug/./metal/machine.h:234
20012fa6:	fec42703          	lw	a4,-20(s0)
20012faa:	81418793          	addi	a5,gp,-2028 # 8000049c <__metal_dt_clint_2000000>
20012fae:	00f71563          	bne	a4,a5,20012fb8 <__metal_driver_sifive_clint0_control_base+0x1c>
/home/nicoladgg/wsFreedomStudio/sifive_hifive1_revb_hello/bsp/build/debug/./metal/machine.h:235
20012fb2:	020007b7          	lui	a5,0x2000
20012fb6:	a011                	j	20012fba <__metal_driver_sifive_clint0_control_base+0x1e>
/home/nicoladgg/wsFreedomStudio/sifive_hifive1_revb_hello/bsp/build/debug/./metal/machine.h:238
20012fb8:	4781                	li	a5,0
/home/nicoladgg/wsFreedomStudio/sifive_hifive1_revb_hello/bsp/build/debug/./metal/machine.h:240
20012fba:	853e                	mv	a0,a5
20012fbc:	4472                	lw	s0,28(sp)
20012fbe:	6105                	addi	sp,sp,32
20012fc0:	8082                	ret

20012fc2 <__metal_driver_sifive_clint0_num_interrupts>:
__metal_driver_sifive_clint0_num_interrupts():
/home/nicoladgg/wsFreedomStudio/sifive_hifive1_revb_hello/bsp/build/debug/./metal/machine.h:253
20012fc2:	1101                	addi	sp,sp,-32
20012fc4:	ce22                	sw	s0,28(sp)
20012fc6:	1000                	addi	s0,sp,32
20012fc8:	fea42623          	sw	a0,-20(s0)
/home/nicoladgg/wsFreedomStudio/sifive_hifive1_revb_hello/bsp/build/debug/./metal/machine.h:254
20012fcc:	fec42703          	lw	a4,-20(s0)
20012fd0:	81418793          	addi	a5,gp,-2028 # 8000049c <__metal_dt_clint_2000000>
20012fd4:	00f71463          	bne	a4,a5,20012fdc <__metal_driver_sifive_clint0_num_interrupts+0x1a>
/home/nicoladgg/wsFreedomStudio/sifive_hifive1_revb_hello/bsp/build/debug/./metal/machine.h:255
20012fd8:	4789                	li	a5,2
20012fda:	a011                	j	20012fde <__metal_driver_sifive_clint0_num_interrupts+0x1c>
/home/nicoladgg/wsFreedomStudio/sifive_hifive1_revb_hello/bsp/build/debug/./metal/machine.h:258
20012fdc:	4781                	li	a5,0
/home/nicoladgg/wsFreedomStudio/sifive_hifive1_revb_hello/bsp/build/debug/./metal/machine.h:260
20012fde:	853e                	mv	a0,a5
20012fe0:	4472                	lw	s0,28(sp)
20012fe2:	6105                	addi	sp,sp,32
20012fe4:	8082                	ret

20012fe6 <__metal_driver_sifive_clint0_interrupt_parents>:
__metal_driver_sifive_clint0_interrupt_parents():
/home/nicoladgg/wsFreedomStudio/sifive_hifive1_revb_hello/bsp/build/debug/./metal/machine.h:263
20012fe6:	1101                	addi	sp,sp,-32
20012fe8:	ce22                	sw	s0,28(sp)
20012fea:	1000                	addi	s0,sp,32
20012fec:	fea42623          	sw	a0,-20(s0)
20012ff0:	feb42423          	sw	a1,-24(s0)
/home/nicoladgg/wsFreedomStudio/sifive_hifive1_revb_hello/bsp/build/debug/./metal/machine.h:264
20012ff4:	fe842783          	lw	a5,-24(s0)
20012ff8:	e791                	bnez	a5,20013004 <__metal_driver_sifive_clint0_interrupt_parents+0x1e>
/home/nicoladgg/wsFreedomStudio/sifive_hifive1_revb_hello/bsp/build/debug/./metal/machine.h:265
20012ffa:	800007b7          	lui	a5,0x80000
20012ffe:	09078793          	addi	a5,a5,144 # 80000090 <__global_pointer$+0xfffff408>
20013002:	a821                	j	2001301a <__metal_driver_sifive_clint0_interrupt_parents+0x34>
/home/nicoladgg/wsFreedomStudio/sifive_hifive1_revb_hello/bsp/build/debug/./metal/machine.h:267
20013004:	fe842703          	lw	a4,-24(s0)
20013008:	4785                	li	a5,1
2001300a:	00f71763          	bne	a4,a5,20013018 <__metal_driver_sifive_clint0_interrupt_parents+0x32>
/home/nicoladgg/wsFreedomStudio/sifive_hifive1_revb_hello/bsp/build/debug/./metal/machine.h:268
2001300e:	800007b7          	lui	a5,0x80000
20013012:	09078793          	addi	a5,a5,144 # 80000090 <__global_pointer$+0xfffff408>
20013016:	a011                	j	2001301a <__metal_driver_sifive_clint0_interrupt_parents+0x34>
/home/nicoladgg/wsFreedomStudio/sifive_hifive1_revb_hello/bsp/build/debug/./metal/machine.h:271
20013018:	4781                	li	a5,0
/home/nicoladgg/wsFreedomStudio/sifive_hifive1_revb_hello/bsp/build/debug/./metal/machine.h:273
2001301a:	853e                	mv	a0,a5
2001301c:	4472                	lw	s0,28(sp)
2001301e:	6105                	addi	sp,sp,32
20013020:	8082                	ret

20013022 <__metal_driver_sifive_clint0_interrupt_lines>:
__metal_driver_sifive_clint0_interrupt_lines():
/home/nicoladgg/wsFreedomStudio/sifive_hifive1_revb_hello/bsp/build/debug/./metal/machine.h:276
20013022:	1101                	addi	sp,sp,-32
20013024:	ce22                	sw	s0,28(sp)
20013026:	1000                	addi	s0,sp,32
20013028:	fea42623          	sw	a0,-20(s0)
2001302c:	feb42423          	sw	a1,-24(s0)
/home/nicoladgg/wsFreedomStudio/sifive_hifive1_revb_hello/bsp/build/debug/./metal/machine.h:277
20013030:	fe842783          	lw	a5,-24(s0)
20013034:	e399                	bnez	a5,2001303a <__metal_driver_sifive_clint0_interrupt_lines+0x18>
/home/nicoladgg/wsFreedomStudio/sifive_hifive1_revb_hello/bsp/build/debug/./metal/machine.h:278
20013036:	478d                	li	a5,3
20013038:	a809                	j	2001304a <__metal_driver_sifive_clint0_interrupt_lines+0x28>
/home/nicoladgg/wsFreedomStudio/sifive_hifive1_revb_hello/bsp/build/debug/./metal/machine.h:280
2001303a:	fe842703          	lw	a4,-24(s0)
2001303e:	4785                	li	a5,1
20013040:	00f71463          	bne	a4,a5,20013048 <__metal_driver_sifive_clint0_interrupt_lines+0x26>
/home/nicoladgg/wsFreedomStudio/sifive_hifive1_revb_hello/bsp/build/debug/./metal/machine.h:281
20013044:	479d                	li	a5,7
20013046:	a011                	j	2001304a <__metal_driver_sifive_clint0_interrupt_lines+0x28>
/home/nicoladgg/wsFreedomStudio/sifive_hifive1_revb_hello/bsp/build/debug/./metal/machine.h:284
20013048:	4781                	li	a5,0
/home/nicoladgg/wsFreedomStudio/sifive_hifive1_revb_hello/bsp/build/debug/./metal/machine.h:286
2001304a:	853e                	mv	a0,a5
2001304c:	4472                	lw	s0,28(sp)
2001304e:	6105                	addi	sp,sp,32
20013050:	8082                	ret

20013052 <__metal_clint0_mtime_get>:
__metal_clint0_mtime_get():
/home/nicoladgg/wsFreedomStudio/sifive_hifive1_revb_hello/freedom-metal/src/drivers/riscv_clint0.c:14
20013052:	715d                	addi	sp,sp,-80
20013054:	c686                	sw	ra,76(sp)
20013056:	c4a2                	sw	s0,72(sp)
20013058:	c2ca                	sw	s2,68(sp)
2001305a:	c0ce                	sw	s3,64(sp)
2001305c:	de52                	sw	s4,60(sp)
2001305e:	dc56                	sw	s5,56(sp)
20013060:	da5a                	sw	s6,52(sp)
20013062:	d85e                	sw	s7,48(sp)
20013064:	d662                	sw	s8,44(sp)
20013066:	d466                	sw	s9,40(sp)
20013068:	0880                	addi	s0,sp,80
2001306a:	faa42e23          	sw	a0,-68(s0)
/home/nicoladgg/wsFreedomStudio/sifive_hifive1_revb_hello/freedom-metal/src/drivers/riscv_clint0.c:17
2001306e:	fbc42783          	lw	a5,-68(s0)
20013072:	853e                	mv	a0,a5
20013074:	3725                	jal	20012f9c <__metal_driver_sifive_clint0_control_base>
20013076:	fca42623          	sw	a0,-52(s0)
/home/nicoladgg/wsFreedomStudio/sifive_hifive1_revb_hello/freedom-metal/src/drivers/riscv_clint0.c:21 (discriminator 1)
2001307a:	fcc42703          	lw	a4,-52(s0)
2001307e:	67b1                	lui	a5,0xc
20013080:	17f1                	addi	a5,a5,-4
20013082:	97ba                	add	a5,a5,a4
20013084:	439c                	lw	a5,0(a5)
20013086:	fcf42423          	sw	a5,-56(s0)
/home/nicoladgg/wsFreedomStudio/sifive_hifive1_revb_hello/freedom-metal/src/drivers/riscv_clint0.c:23 (discriminator 1)
2001308a:	fcc42703          	lw	a4,-52(s0)
2001308e:	67b1                	lui	a5,0xc
20013090:	17e1                	addi	a5,a5,-8
20013092:	97ba                	add	a5,a5,a4
20013094:	439c                	lw	a5,0(a5)
20013096:	fcf42223          	sw	a5,-60(s0)
/home/nicoladgg/wsFreedomStudio/sifive_hifive1_revb_hello/freedom-metal/src/drivers/riscv_clint0.c:25 (discriminator 1)
2001309a:	fcc42703          	lw	a4,-52(s0)
2001309e:	67b1                	lui	a5,0xc
200130a0:	17f1                	addi	a5,a5,-4
200130a2:	97ba                	add	a5,a5,a4
200130a4:	439c                	lw	a5,0(a5)
200130a6:	fc842703          	lw	a4,-56(s0)
200130aa:	fcf718e3          	bne	a4,a5,2001307a <__metal_clint0_mtime_get+0x28>
/home/nicoladgg/wsFreedomStudio/sifive_hifive1_revb_hello/freedom-metal/src/drivers/riscv_clint0.c:29
200130ae:	fc842783          	lw	a5,-56(s0)
200130b2:	8c3e                	mv	s8,a5
200130b4:	4c81                	li	s9,0
200130b6:	000c1993          	slli	s3,s8,0x0
200130ba:	4901                	li	s2,0
200130bc:	fc442783          	lw	a5,-60(s0)
200130c0:	8a3e                	mv	s4,a5
200130c2:	4a81                	li	s5,0
200130c4:	01496b33          	or	s6,s2,s4
200130c8:	0159ebb3          	or	s7,s3,s5
200130cc:	875a                	mv	a4,s6
200130ce:	87de                	mv	a5,s7
/home/nicoladgg/wsFreedomStudio/sifive_hifive1_revb_hello/freedom-metal/src/drivers/riscv_clint0.c:30
200130d0:	853a                	mv	a0,a4
200130d2:	85be                	mv	a1,a5
200130d4:	40b6                	lw	ra,76(sp)
200130d6:	4426                	lw	s0,72(sp)
200130d8:	4916                	lw	s2,68(sp)
200130da:	4986                	lw	s3,64(sp)
200130dc:	5a72                	lw	s4,60(sp)
200130de:	5ae2                	lw	s5,56(sp)
200130e0:	5b52                	lw	s6,52(sp)
200130e2:	5bc2                	lw	s7,48(sp)
200130e4:	5c32                	lw	s8,44(sp)
200130e6:	5ca2                	lw	s9,40(sp)
200130e8:	6161                	addi	sp,sp,80
200130ea:	8082                	ret

200130ec <__metal_driver_riscv_clint0_mtimecmp_set>:
__metal_driver_riscv_clint0_mtimecmp_set():
/home/nicoladgg/wsFreedomStudio/sifive_hifive1_revb_hello/freedom-metal/src/drivers/riscv_clint0.c:34
200130ec:	7179                	addi	sp,sp,-48
200130ee:	d606                	sw	ra,44(sp)
200130f0:	d422                	sw	s0,40(sp)
200130f2:	d24a                	sw	s2,36(sp)
200130f4:	d04e                	sw	s3,32(sp)
200130f6:	1800                	addi	s0,sp,48
200130f8:	fca42e23          	sw	a0,-36(s0)
200130fc:	fcb42c23          	sw	a1,-40(s0)
20013100:	fcc42823          	sw	a2,-48(s0)
20013104:	fcd42a23          	sw	a3,-44(s0)
/home/nicoladgg/wsFreedomStudio/sifive_hifive1_revb_hello/freedom-metal/src/drivers/riscv_clint0.c:35
20013108:	fdc42783          	lw	a5,-36(s0)
2001310c:	fef42623          	sw	a5,-20(s0)
/home/nicoladgg/wsFreedomStudio/sifive_hifive1_revb_hello/freedom-metal/src/drivers/riscv_clint0.c:38
20013110:	fec42783          	lw	a5,-20(s0)
20013114:	853e                	mv	a0,a5
20013116:	3559                	jal	20012f9c <__metal_driver_sifive_clint0_control_base>
20013118:	fea42423          	sw	a0,-24(s0)
/home/nicoladgg/wsFreedomStudio/sifive_hifive1_revb_hello/freedom-metal/src/drivers/riscv_clint0.c:45
2001311c:	fd842783          	lw	a5,-40(s0)
20013120:	078e                	slli	a5,a5,0x3
20013122:	873e                	mv	a4,a5
20013124:	fe842783          	lw	a5,-24(s0)
20013128:	973e                	add	a4,a4,a5
2001312a:	6791                	lui	a5,0x4
2001312c:	0791                	addi	a5,a5,4
2001312e:	97ba                	add	a5,a5,a4
20013130:	873e                	mv	a4,a5
/home/nicoladgg/wsFreedomStudio/sifive_hifive1_revb_hello/freedom-metal/src/drivers/riscv_clint0.c:47
20013132:	57fd                	li	a5,-1
20013134:	c31c                	sw	a5,0(a4)
/home/nicoladgg/wsFreedomStudio/sifive_hifive1_revb_hello/freedom-metal/src/drivers/riscv_clint0.c:48
20013136:	fd842783          	lw	a5,-40(s0)
2001313a:	078e                	slli	a5,a5,0x3
2001313c:	873e                	mv	a4,a5
2001313e:	fe842783          	lw	a5,-24(s0)
20013142:	973e                	add	a4,a4,a5
20013144:	6791                	lui	a5,0x4
20013146:	97ba                	add	a5,a5,a4
20013148:	873e                	mv	a4,a5
/home/nicoladgg/wsFreedomStudio/sifive_hifive1_revb_hello/freedom-metal/src/drivers/riscv_clint0.c:50
2001314a:	fd042783          	lw	a5,-48(s0)
/home/nicoladgg/wsFreedomStudio/sifive_hifive1_revb_hello/freedom-metal/src/drivers/riscv_clint0.c:49
2001314e:	c31c                	sw	a5,0(a4)
/home/nicoladgg/wsFreedomStudio/sifive_hifive1_revb_hello/freedom-metal/src/drivers/riscv_clint0.c:53
20013150:	fd442783          	lw	a5,-44(s0)
20013154:	0007d913          	srli	s2,a5,0x0
20013158:	4981                	li	s3,0
/home/nicoladgg/wsFreedomStudio/sifive_hifive1_revb_hello/freedom-metal/src/drivers/riscv_clint0.c:51
2001315a:	fd842783          	lw	a5,-40(s0)
2001315e:	078e                	slli	a5,a5,0x3
20013160:	873e                	mv	a4,a5
20013162:	fe842783          	lw	a5,-24(s0)
20013166:	973e                	add	a4,a4,a5
20013168:	6791                	lui	a5,0x4
2001316a:	0791                	addi	a5,a5,4
2001316c:	97ba                	add	a5,a5,a4
/home/nicoladgg/wsFreedomStudio/sifive_hifive1_revb_hello/freedom-metal/src/drivers/riscv_clint0.c:53
2001316e:	874a                	mv	a4,s2
20013170:	c398                	sw	a4,0(a5)
/home/nicoladgg/wsFreedomStudio/sifive_hifive1_revb_hello/freedom-metal/src/drivers/riscv_clint0.c:54
20013172:	4781                	li	a5,0
/home/nicoladgg/wsFreedomStudio/sifive_hifive1_revb_hello/freedom-metal/src/drivers/riscv_clint0.c:55
20013174:	853e                	mv	a0,a5
20013176:	50b2                	lw	ra,44(sp)
20013178:	5422                	lw	s0,40(sp)
2001317a:	5912                	lw	s2,36(sp)
2001317c:	5982                	lw	s3,32(sp)
2001317e:	6145                	addi	sp,sp,48
20013180:	8082                	ret

20013182 <_get_cpu_intc>:
_get_cpu_intc():
/home/nicoladgg/wsFreedomStudio/sifive_hifive1_revb_hello/freedom-metal/src/drivers/riscv_clint0.c:57
20013182:	1101                	addi	sp,sp,-32
20013184:	ce06                	sw	ra,28(sp)
20013186:	cc22                	sw	s0,24(sp)
20013188:	1000                	addi	s0,sp,32
/home/nicoladgg/wsFreedomStudio/sifive_hifive1_revb_hello/freedom-metal/src/drivers/riscv_clint0.c:58
2001318a:	fe042623          	sw	zero,-20(s0)
/home/nicoladgg/wsFreedomStudio/sifive_hifive1_revb_hello/freedom-metal/src/drivers/riscv_clint0.c:59
2001318e:	f14027f3          	csrr	a5,mhartid
20013192:	fef42623          	sw	a5,-20(s0)
/home/nicoladgg/wsFreedomStudio/sifive_hifive1_revb_hello/freedom-metal/src/drivers/riscv_clint0.c:62
20013196:	fec42783          	lw	a5,-20(s0)
2001319a:	853e                	mv	a0,a5
2001319c:	109020ef          	jal	ra,20015aa4 <metal_cpu_get>
200131a0:	fea42423          	sw	a0,-24(s0)
/home/nicoladgg/wsFreedomStudio/sifive_hifive1_revb_hello/freedom-metal/src/drivers/riscv_clint0.c:64
200131a4:	fe842503          	lw	a0,-24(s0)
200131a8:	0d7020ef          	jal	ra,20015a7e <metal_cpu_interrupt_controller>
200131ac:	87aa                	mv	a5,a0
/home/nicoladgg/wsFreedomStudio/sifive_hifive1_revb_hello/freedom-metal/src/drivers/riscv_clint0.c:65
200131ae:	853e                	mv	a0,a5
200131b0:	40f2                	lw	ra,28(sp)
200131b2:	4462                	lw	s0,24(sp)
200131b4:	6105                	addi	sp,sp,32
200131b6:	8082                	ret

200131b8 <__metal_driver_riscv_clint0_init>:
__metal_driver_riscv_clint0_init():
/home/nicoladgg/wsFreedomStudio/sifive_hifive1_revb_hello/freedom-metal/src/drivers/riscv_clint0.c:67
200131b8:	7139                	addi	sp,sp,-64
200131ba:	de06                	sw	ra,60(sp)
200131bc:	dc22                	sw	s0,56(sp)
200131be:	0080                	addi	s0,sp,64
200131c0:	fca42623          	sw	a0,-52(s0)
/home/nicoladgg/wsFreedomStudio/sifive_hifive1_revb_hello/freedom-metal/src/drivers/riscv_clint0.c:69
200131c4:	fcc42503          	lw	a0,-52(s0)
200131c8:	3bed                	jal	20012fc2 <__metal_driver_sifive_clint0_num_interrupts>
200131ca:	fea42423          	sw	a0,-24(s0)
/home/nicoladgg/wsFreedomStudio/sifive_hifive1_revb_hello/freedom-metal/src/drivers/riscv_clint0.c:70
200131ce:	fcc42783          	lw	a5,-52(s0)
200131d2:	fef42223          	sw	a5,-28(s0)
/home/nicoladgg/wsFreedomStudio/sifive_hifive1_revb_hello/freedom-metal/src/drivers/riscv_clint0.c:73
200131d6:	fe442783          	lw	a5,-28(s0)
200131da:	43dc                	lw	a5,4(a5)
200131dc:	efa9                	bnez	a5,20013236 <__metal_driver_riscv_clint0_init+0x7e>
/home/nicoladgg/wsFreedomStudio/sifive_hifive1_revb_hello/freedom-metal/src/drivers/riscv_clint0.c:76
200131de:	fe042623          	sw	zero,-20(s0)
200131e2:	a081                	j	20013222 <__metal_driver_riscv_clint0_init+0x6a>
/home/nicoladgg/wsFreedomStudio/sifive_hifive1_revb_hello/freedom-metal/src/drivers/riscv_clint0.c:78 (discriminator 3)
200131e4:	fec42583          	lw	a1,-20(s0)
200131e8:	fcc42503          	lw	a0,-52(s0)
200131ec:	3bed                	jal	20012fe6 <__metal_driver_sifive_clint0_interrupt_parents>
200131ee:	fea42023          	sw	a0,-32(s0)
/home/nicoladgg/wsFreedomStudio/sifive_hifive1_revb_hello/freedom-metal/src/drivers/riscv_clint0.c:80 (discriminator 3)
200131f2:	fec42583          	lw	a1,-20(s0)
200131f6:	fcc42503          	lw	a0,-52(s0)
200131fa:	3525                	jal	20013022 <__metal_driver_sifive_clint0_interrupt_lines>
200131fc:	fca42e23          	sw	a0,-36(s0)
/home/nicoladgg/wsFreedomStudio/sifive_hifive1_revb_hello/freedom-metal/src/drivers/riscv_clint0.c:81 (discriminator 3)
20013200:	fe042783          	lw	a5,-32(s0)
20013204:	439c                	lw	a5,0(a5)
20013206:	4fdc                	lw	a5,28(a5)
20013208:	fcc42683          	lw	a3,-52(s0)
2001320c:	4601                	li	a2,0
2001320e:	fdc42583          	lw	a1,-36(s0)
20013212:	fe042503          	lw	a0,-32(s0)
20013216:	9782                	jalr	a5
/home/nicoladgg/wsFreedomStudio/sifive_hifive1_revb_hello/freedom-metal/src/drivers/riscv_clint0.c:76 (discriminator 3)
20013218:	fec42783          	lw	a5,-20(s0)
2001321c:	0785                	addi	a5,a5,1
2001321e:	fef42623          	sw	a5,-20(s0)
/home/nicoladgg/wsFreedomStudio/sifive_hifive1_revb_hello/freedom-metal/src/drivers/riscv_clint0.c:76 (discriminator 1)
20013222:	fec42703          	lw	a4,-20(s0)
20013226:	fe842783          	lw	a5,-24(s0)
2001322a:	faf74de3          	blt	a4,a5,200131e4 <__metal_driver_riscv_clint0_init+0x2c>
/home/nicoladgg/wsFreedomStudio/sifive_hifive1_revb_hello/freedom-metal/src/drivers/riscv_clint0.c:83
2001322e:	fe442783          	lw	a5,-28(s0)
20013232:	4705                	li	a4,1
20013234:	c3d8                	sw	a4,4(a5)
/home/nicoladgg/wsFreedomStudio/sifive_hifive1_revb_hello/freedom-metal/src/drivers/riscv_clint0.c:85
20013236:	0001                	nop
20013238:	50f2                	lw	ra,60(sp)
2001323a:	5462                	lw	s0,56(sp)
2001323c:	6121                	addi	sp,sp,64
2001323e:	8082                	ret

20013240 <__metal_driver_riscv_clint0_register>:
__metal_driver_riscv_clint0_register():
/home/nicoladgg/wsFreedomStudio/sifive_hifive1_revb_hello/freedom-metal/src/drivers/riscv_clint0.c:89
20013240:	7139                	addi	sp,sp,-64
20013242:	de06                	sw	ra,60(sp)
20013244:	dc22                	sw	s0,56(sp)
20013246:	0080                	addi	s0,sp,64
20013248:	fca42623          	sw	a0,-52(s0)
2001324c:	fcb42423          	sw	a1,-56(s0)
20013250:	fcc42223          	sw	a2,-60(s0)
20013254:	fcd42023          	sw	a3,-64(s0)
/home/nicoladgg/wsFreedomStudio/sifive_hifive1_revb_hello/freedom-metal/src/drivers/riscv_clint0.c:90
20013258:	57fd                	li	a5,-1
2001325a:	fef42623          	sw	a5,-20(s0)
/home/nicoladgg/wsFreedomStudio/sifive_hifive1_revb_hello/freedom-metal/src/drivers/riscv_clint0.c:91
2001325e:	434010ef          	jal	ra,20014692 <__metal_controller_interrupt_vector_mode>
20013262:	fea42023          	sw	a0,-32(s0)
/home/nicoladgg/wsFreedomStudio/sifive_hifive1_revb_hello/freedom-metal/src/drivers/riscv_clint0.c:92
20013266:	fe042423          	sw	zero,-24(s0)
/home/nicoladgg/wsFreedomStudio/sifive_hifive1_revb_hello/freedom-metal/src/drivers/riscv_clint0.c:93
2001326a:	3f21                	jal	20013182 <_get_cpu_intc>
2001326c:	fca42e23          	sw	a0,-36(s0)
/home/nicoladgg/wsFreedomStudio/sifive_hifive1_revb_hello/freedom-metal/src/drivers/riscv_clint0.c:95
20013270:	fcc42503          	lw	a0,-52(s0)
20013274:	33b9                	jal	20012fc2 <__metal_driver_sifive_clint0_num_interrupts>
20013276:	fca42c23          	sw	a0,-40(s0)
/home/nicoladgg/wsFreedomStudio/sifive_hifive1_revb_hello/freedom-metal/src/drivers/riscv_clint0.c:97
2001327a:	fe042703          	lw	a4,-32(s0)
2001327e:	4785                	li	a5,1
20013280:	00f70863          	beq	a4,a5,20013290 <__metal_driver_riscv_clint0_register+0x50>
/home/nicoladgg/wsFreedomStudio/sifive_hifive1_revb_hello/freedom-metal/src/drivers/riscv_clint0.c:97 (discriminator 1)
20013284:	fe042783          	lw	a5,-32(s0)
20013288:	c781                	beqz	a5,20013290 <__metal_driver_riscv_clint0_register+0x50>
/home/nicoladgg/wsFreedomStudio/sifive_hifive1_revb_hello/freedom-metal/src/drivers/riscv_clint0.c:98
2001328a:	fec42783          	lw	a5,-20(s0)
2001328e:	a049                	j	20013310 <__metal_driver_riscv_clint0_register+0xd0>
/home/nicoladgg/wsFreedomStudio/sifive_hifive1_revb_hello/freedom-metal/src/drivers/riscv_clint0.c:101
20013290:	fe042223          	sw	zero,-28(s0)
20013294:	a091                	j	200132d8 <__metal_driver_riscv_clint0_register+0x98>
/home/nicoladgg/wsFreedomStudio/sifive_hifive1_revb_hello/freedom-metal/src/drivers/riscv_clint0.c:102
20013296:	fe442583          	lw	a1,-28(s0)
2001329a:	fcc42503          	lw	a0,-52(s0)
2001329e:	3351                	jal	20013022 <__metal_driver_sifive_clint0_interrupt_lines>
200132a0:	fca42a23          	sw	a0,-44(s0)
/home/nicoladgg/wsFreedomStudio/sifive_hifive1_revb_hello/freedom-metal/src/drivers/riscv_clint0.c:103
200132a4:	fe442583          	lw	a1,-28(s0)
200132a8:	fcc42503          	lw	a0,-52(s0)
200132ac:	3b2d                	jal	20012fe6 <__metal_driver_sifive_clint0_interrupt_parents>
200132ae:	fea42423          	sw	a0,-24(s0)
/home/nicoladgg/wsFreedomStudio/sifive_hifive1_revb_hello/freedom-metal/src/drivers/riscv_clint0.c:104
200132b2:	fdc42703          	lw	a4,-36(s0)
200132b6:	fe842783          	lw	a5,-24(s0)
200132ba:	00f71863          	bne	a4,a5,200132ca <__metal_driver_riscv_clint0_register+0x8a>
/home/nicoladgg/wsFreedomStudio/sifive_hifive1_revb_hello/freedom-metal/src/drivers/riscv_clint0.c:104 (discriminator 1)
200132be:	fc842703          	lw	a4,-56(s0)
200132c2:	fd442783          	lw	a5,-44(s0)
200132c6:	02f70063          	beq	a4,a5,200132e6 <__metal_driver_riscv_clint0_register+0xa6>
/home/nicoladgg/wsFreedomStudio/sifive_hifive1_revb_hello/freedom-metal/src/drivers/riscv_clint0.c:107 (discriminator 2)
200132ca:	fe042423          	sw	zero,-24(s0)
/home/nicoladgg/wsFreedomStudio/sifive_hifive1_revb_hello/freedom-metal/src/drivers/riscv_clint0.c:101 (discriminator 2)
200132ce:	fe442783          	lw	a5,-28(s0)
200132d2:	0785                	addi	a5,a5,1
200132d4:	fef42223          	sw	a5,-28(s0)
/home/nicoladgg/wsFreedomStudio/sifive_hifive1_revb_hello/freedom-metal/src/drivers/riscv_clint0.c:101 (discriminator 1)
200132d8:	fe442703          	lw	a4,-28(s0)
200132dc:	fd842783          	lw	a5,-40(s0)
200132e0:	faf74be3          	blt	a4,a5,20013296 <__metal_driver_riscv_clint0_register+0x56>
200132e4:	a011                	j	200132e8 <__metal_driver_riscv_clint0_register+0xa8>
/home/nicoladgg/wsFreedomStudio/sifive_hifive1_revb_hello/freedom-metal/src/drivers/riscv_clint0.c:105
200132e6:	0001                	nop
/home/nicoladgg/wsFreedomStudio/sifive_hifive1_revb_hello/freedom-metal/src/drivers/riscv_clint0.c:111
200132e8:	fe842783          	lw	a5,-24(s0)
200132ec:	c385                	beqz	a5,2001330c <__metal_driver_riscv_clint0_register+0xcc>
/home/nicoladgg/wsFreedomStudio/sifive_hifive1_revb_hello/freedom-metal/src/drivers/riscv_clint0.c:112
200132ee:	fe842783          	lw	a5,-24(s0)
200132f2:	439c                	lw	a5,0(a5)
200132f4:	4fdc                	lw	a5,28(a5)
200132f6:	fc042683          	lw	a3,-64(s0)
200132fa:	fc442603          	lw	a2,-60(s0)
200132fe:	fc842583          	lw	a1,-56(s0)
20013302:	fe842503          	lw	a0,-24(s0)
20013306:	9782                	jalr	a5
20013308:	fea42623          	sw	a0,-20(s0)
/home/nicoladgg/wsFreedomStudio/sifive_hifive1_revb_hello/freedom-metal/src/drivers/riscv_clint0.c:114
2001330c:	fec42783          	lw	a5,-20(s0)
/home/nicoladgg/wsFreedomStudio/sifive_hifive1_revb_hello/freedom-metal/src/drivers/riscv_clint0.c:115
20013310:	853e                	mv	a0,a5
20013312:	50f2                	lw	ra,60(sp)
20013314:	5462                	lw	s0,56(sp)
20013316:	6121                	addi	sp,sp,64
20013318:	8082                	ret

2001331a <__metal_driver_riscv_clint0_vector_register>:
__metal_driver_riscv_clint0_vector_register():
/home/nicoladgg/wsFreedomStudio/sifive_hifive1_revb_hello/freedom-metal/src/drivers/riscv_clint0.c:119
2001331a:	7179                	addi	sp,sp,-48
2001331c:	d622                	sw	s0,44(sp)
2001331e:	1800                	addi	s0,sp,48
20013320:	fca42e23          	sw	a0,-36(s0)
20013324:	fcb42c23          	sw	a1,-40(s0)
20013328:	fcc42a23          	sw	a2,-44(s0)
2001332c:	fcd42823          	sw	a3,-48(s0)
/home/nicoladgg/wsFreedomStudio/sifive_hifive1_revb_hello/freedom-metal/src/drivers/riscv_clint0.c:121
20013330:	57fd                	li	a5,-1
20013332:	fef42623          	sw	a5,-20(s0)
/home/nicoladgg/wsFreedomStudio/sifive_hifive1_revb_hello/freedom-metal/src/drivers/riscv_clint0.c:122
20013336:	fec42783          	lw	a5,-20(s0)
/home/nicoladgg/wsFreedomStudio/sifive_hifive1_revb_hello/freedom-metal/src/drivers/riscv_clint0.c:123
2001333a:	853e                	mv	a0,a5
2001333c:	5432                	lw	s0,44(sp)
2001333e:	6145                	addi	sp,sp,48
20013340:	8082                	ret

20013342 <__metal_driver_riscv_clint0_get_vector_mode>:
__metal_driver_riscv_clint0_get_vector_mode():
/home/nicoladgg/wsFreedomStudio/sifive_hifive1_revb_hello/freedom-metal/src/drivers/riscv_clint0.c:126
20013342:	1101                	addi	sp,sp,-32
20013344:	ce06                	sw	ra,28(sp)
20013346:	cc22                	sw	s0,24(sp)
20013348:	1000                	addi	s0,sp,32
2001334a:	fea42623          	sw	a0,-20(s0)
/home/nicoladgg/wsFreedomStudio/sifive_hifive1_revb_hello/freedom-metal/src/drivers/riscv_clint0.c:127
2001334e:	344010ef          	jal	ra,20014692 <__metal_controller_interrupt_vector_mode>
20013352:	87aa                	mv	a5,a0
/home/nicoladgg/wsFreedomStudio/sifive_hifive1_revb_hello/freedom-metal/src/drivers/riscv_clint0.c:128
20013354:	853e                	mv	a0,a5
20013356:	40f2                	lw	ra,28(sp)
20013358:	4462                	lw	s0,24(sp)
2001335a:	6105                	addi	sp,sp,32
2001335c:	8082                	ret

2001335e <__metal_driver_riscv_clint0_set_vector_mode>:
__metal_driver_riscv_clint0_set_vector_mode():
/home/nicoladgg/wsFreedomStudio/sifive_hifive1_revb_hello/freedom-metal/src/drivers/riscv_clint0.c:131
2001335e:	7179                	addi	sp,sp,-48
20013360:	d606                	sw	ra,44(sp)
20013362:	d422                	sw	s0,40(sp)
20013364:	1800                	addi	s0,sp,48
20013366:	fca42e23          	sw	a0,-36(s0)
2001336a:	fcb42c23          	sw	a1,-40(s0)
/home/nicoladgg/wsFreedomStudio/sifive_hifive1_revb_hello/freedom-metal/src/drivers/riscv_clint0.c:132
2001336e:	57fd                	li	a5,-1
20013370:	fef42623          	sw	a5,-20(s0)
/home/nicoladgg/wsFreedomStudio/sifive_hifive1_revb_hello/freedom-metal/src/drivers/riscv_clint0.c:133
20013374:	3539                	jal	20013182 <_get_cpu_intc>
20013376:	fea42423          	sw	a0,-24(s0)
/home/nicoladgg/wsFreedomStudio/sifive_hifive1_revb_hello/freedom-metal/src/drivers/riscv_clint0.c:135
2001337a:	fe842783          	lw	a5,-24(s0)
2001337e:	c395                	beqz	a5,200133a2 <__metal_driver_riscv_clint0_set_vector_mode+0x44>
/home/nicoladgg/wsFreedomStudio/sifive_hifive1_revb_hello/freedom-metal/src/drivers/riscv_clint0.c:138
20013380:	fd842703          	lw	a4,-40(s0)
20013384:	4785                	li	a5,1
20013386:	02e7e063          	bltu	a5,a4,200133a6 <__metal_driver_riscv_clint0_set_vector_mode+0x48>
/home/nicoladgg/wsFreedomStudio/sifive_hifive1_revb_hello/freedom-metal/src/drivers/riscv_clint0.c:141
2001338a:	fe842783          	lw	a5,-24(s0)
2001338e:	439c                	lw	a5,0(a5)
20013390:	43dc                	lw	a5,4(a5)
20013392:	fd842583          	lw	a1,-40(s0)
20013396:	fe842503          	lw	a0,-24(s0)
2001339a:	9782                	jalr	a5
2001339c:	fea42623          	sw	a0,-20(s0)
/home/nicoladgg/wsFreedomStudio/sifive_hifive1_revb_hello/freedom-metal/src/drivers/riscv_clint0.c:142
200133a0:	a021                	j	200133a8 <__metal_driver_riscv_clint0_set_vector_mode+0x4a>
/home/nicoladgg/wsFreedomStudio/sifive_hifive1_revb_hello/freedom-metal/src/drivers/riscv_clint0.c:146
200133a2:	0001                	nop
200133a4:	a011                	j	200133a8 <__metal_driver_riscv_clint0_set_vector_mode+0x4a>
/home/nicoladgg/wsFreedomStudio/sifive_hifive1_revb_hello/freedom-metal/src/drivers/riscv_clint0.c:144
200133a6:	0001                	nop
/home/nicoladgg/wsFreedomStudio/sifive_hifive1_revb_hello/freedom-metal/src/drivers/riscv_clint0.c:147
200133a8:	fec42783          	lw	a5,-20(s0)
/home/nicoladgg/wsFreedomStudio/sifive_hifive1_revb_hello/freedom-metal/src/drivers/riscv_clint0.c:148
200133ac:	853e                	mv	a0,a5
200133ae:	50b2                	lw	ra,44(sp)
200133b0:	5422                	lw	s0,40(sp)
200133b2:	6145                	addi	sp,sp,48
200133b4:	8082                	ret

200133b6 <__metal_driver_riscv_clint0_enable>:
__metal_driver_riscv_clint0_enable():
/home/nicoladgg/wsFreedomStudio/sifive_hifive1_revb_hello/freedom-metal/src/drivers/riscv_clint0.c:151
200133b6:	7139                	addi	sp,sp,-64
200133b8:	de06                	sw	ra,60(sp)
200133ba:	dc22                	sw	s0,56(sp)
200133bc:	0080                	addi	s0,sp,64
200133be:	fca42623          	sw	a0,-52(s0)
200133c2:	fcb42423          	sw	a1,-56(s0)
/home/nicoladgg/wsFreedomStudio/sifive_hifive1_revb_hello/freedom-metal/src/drivers/riscv_clint0.c:152
200133c6:	57fd                	li	a5,-1
200133c8:	fef42623          	sw	a5,-20(s0)
/home/nicoladgg/wsFreedomStudio/sifive_hifive1_revb_hello/freedom-metal/src/drivers/riscv_clint0.c:154
200133cc:	fc842783          	lw	a5,-56(s0)
200133d0:	c7c9                	beqz	a5,2001345a <__metal_driver_riscv_clint0_enable+0xa4>
/home/nicoladgg/wsFreedomStudio/sifive_hifive1_revb_hello/freedom-metal/src/drivers/riscv_clint0.c:155
200133d2:	fe042423          	sw	zero,-24(s0)
/home/nicoladgg/wsFreedomStudio/sifive_hifive1_revb_hello/freedom-metal/src/drivers/riscv_clint0.c:156
200133d6:	3375                	jal	20013182 <_get_cpu_intc>
200133d8:	fea42023          	sw	a0,-32(s0)
/home/nicoladgg/wsFreedomStudio/sifive_hifive1_revb_hello/freedom-metal/src/drivers/riscv_clint0.c:158
200133dc:	fcc42503          	lw	a0,-52(s0)
200133e0:	36cd                	jal	20012fc2 <__metal_driver_sifive_clint0_num_interrupts>
200133e2:	fca42e23          	sw	a0,-36(s0)
/home/nicoladgg/wsFreedomStudio/sifive_hifive1_revb_hello/freedom-metal/src/drivers/riscv_clint0.c:160
200133e6:	fe042223          	sw	zero,-28(s0)
200133ea:	a091                	j	2001342e <__metal_driver_riscv_clint0_enable+0x78>
/home/nicoladgg/wsFreedomStudio/sifive_hifive1_revb_hello/freedom-metal/src/drivers/riscv_clint0.c:162
200133ec:	fe442583          	lw	a1,-28(s0)
200133f0:	fcc42503          	lw	a0,-52(s0)
200133f4:	313d                	jal	20013022 <__metal_driver_sifive_clint0_interrupt_lines>
200133f6:	fca42c23          	sw	a0,-40(s0)
/home/nicoladgg/wsFreedomStudio/sifive_hifive1_revb_hello/freedom-metal/src/drivers/riscv_clint0.c:164
200133fa:	fe442583          	lw	a1,-28(s0)
200133fe:	fcc42503          	lw	a0,-52(s0)
20013402:	36d5                	jal	20012fe6 <__metal_driver_sifive_clint0_interrupt_parents>
20013404:	fea42423          	sw	a0,-24(s0)
/home/nicoladgg/wsFreedomStudio/sifive_hifive1_revb_hello/freedom-metal/src/drivers/riscv_clint0.c:165
20013408:	fe042703          	lw	a4,-32(s0)
2001340c:	fe842783          	lw	a5,-24(s0)
20013410:	00f71863          	bne	a4,a5,20013420 <__metal_driver_riscv_clint0_enable+0x6a>
/home/nicoladgg/wsFreedomStudio/sifive_hifive1_revb_hello/freedom-metal/src/drivers/riscv_clint0.c:165 (discriminator 1)
20013414:	fc842703          	lw	a4,-56(s0)
20013418:	fd842783          	lw	a5,-40(s0)
2001341c:	02f70063          	beq	a4,a5,2001343c <__metal_driver_riscv_clint0_enable+0x86>
/home/nicoladgg/wsFreedomStudio/sifive_hifive1_revb_hello/freedom-metal/src/drivers/riscv_clint0.c:168 (discriminator 2)
20013420:	fe042423          	sw	zero,-24(s0)
/home/nicoladgg/wsFreedomStudio/sifive_hifive1_revb_hello/freedom-metal/src/drivers/riscv_clint0.c:160 (discriminator 2)
20013424:	fe442783          	lw	a5,-28(s0)
20013428:	0785                	addi	a5,a5,1
2001342a:	fef42223          	sw	a5,-28(s0)
/home/nicoladgg/wsFreedomStudio/sifive_hifive1_revb_hello/freedom-metal/src/drivers/riscv_clint0.c:160 (discriminator 1)
2001342e:	fe442703          	lw	a4,-28(s0)
20013432:	fdc42783          	lw	a5,-36(s0)
20013436:	faf74be3          	blt	a4,a5,200133ec <__metal_driver_riscv_clint0_enable+0x36>
2001343a:	a011                	j	2001343e <__metal_driver_riscv_clint0_enable+0x88>
/home/nicoladgg/wsFreedomStudio/sifive_hifive1_revb_hello/freedom-metal/src/drivers/riscv_clint0.c:166
2001343c:	0001                	nop
/home/nicoladgg/wsFreedomStudio/sifive_hifive1_revb_hello/freedom-metal/src/drivers/riscv_clint0.c:172
2001343e:	fe842783          	lw	a5,-24(s0)
20013442:	cf81                	beqz	a5,2001345a <__metal_driver_riscv_clint0_enable+0xa4>
/home/nicoladgg/wsFreedomStudio/sifive_hifive1_revb_hello/freedom-metal/src/drivers/riscv_clint0.c:173
20013444:	fe842783          	lw	a5,-24(s0)
20013448:	439c                	lw	a5,0(a5)
2001344a:	53dc                	lw	a5,36(a5)
2001344c:	fc842583          	lw	a1,-56(s0)
20013450:	fe842503          	lw	a0,-24(s0)
20013454:	9782                	jalr	a5
20013456:	fea42623          	sw	a0,-20(s0)
/home/nicoladgg/wsFreedomStudio/sifive_hifive1_revb_hello/freedom-metal/src/drivers/riscv_clint0.c:177
2001345a:	fec42783          	lw	a5,-20(s0)
/home/nicoladgg/wsFreedomStudio/sifive_hifive1_revb_hello/freedom-metal/src/drivers/riscv_clint0.c:178
2001345e:	853e                	mv	a0,a5
20013460:	50f2                	lw	ra,60(sp)
20013462:	5462                	lw	s0,56(sp)
20013464:	6121                	addi	sp,sp,64
20013466:	8082                	ret

20013468 <__metal_driver_riscv_clint0_disable>:
__metal_driver_riscv_clint0_disable():
/home/nicoladgg/wsFreedomStudio/sifive_hifive1_revb_hello/freedom-metal/src/drivers/riscv_clint0.c:181
20013468:	7139                	addi	sp,sp,-64
2001346a:	de06                	sw	ra,60(sp)
2001346c:	dc22                	sw	s0,56(sp)
2001346e:	0080                	addi	s0,sp,64
20013470:	fca42623          	sw	a0,-52(s0)
20013474:	fcb42423          	sw	a1,-56(s0)
/home/nicoladgg/wsFreedomStudio/sifive_hifive1_revb_hello/freedom-metal/src/drivers/riscv_clint0.c:182
20013478:	57fd                	li	a5,-1
2001347a:	fef42623          	sw	a5,-20(s0)
/home/nicoladgg/wsFreedomStudio/sifive_hifive1_revb_hello/freedom-metal/src/drivers/riscv_clint0.c:184
2001347e:	fc842783          	lw	a5,-56(s0)
20013482:	c7c9                	beqz	a5,2001350c <__metal_driver_riscv_clint0_disable+0xa4>
/home/nicoladgg/wsFreedomStudio/sifive_hifive1_revb_hello/freedom-metal/src/drivers/riscv_clint0.c:185
20013484:	fe042423          	sw	zero,-24(s0)
/home/nicoladgg/wsFreedomStudio/sifive_hifive1_revb_hello/freedom-metal/src/drivers/riscv_clint0.c:186
20013488:	39ed                	jal	20013182 <_get_cpu_intc>
2001348a:	fea42023          	sw	a0,-32(s0)
/home/nicoladgg/wsFreedomStudio/sifive_hifive1_revb_hello/freedom-metal/src/drivers/riscv_clint0.c:188
2001348e:	fcc42503          	lw	a0,-52(s0)
20013492:	3e05                	jal	20012fc2 <__metal_driver_sifive_clint0_num_interrupts>
20013494:	fca42e23          	sw	a0,-36(s0)
/home/nicoladgg/wsFreedomStudio/sifive_hifive1_revb_hello/freedom-metal/src/drivers/riscv_clint0.c:190
20013498:	fe042223          	sw	zero,-28(s0)
2001349c:	a091                	j	200134e0 <__metal_driver_riscv_clint0_disable+0x78>
/home/nicoladgg/wsFreedomStudio/sifive_hifive1_revb_hello/freedom-metal/src/drivers/riscv_clint0.c:192
2001349e:	fe442583          	lw	a1,-28(s0)
200134a2:	fcc42503          	lw	a0,-52(s0)
200134a6:	3eb5                	jal	20013022 <__metal_driver_sifive_clint0_interrupt_lines>
200134a8:	fca42c23          	sw	a0,-40(s0)
/home/nicoladgg/wsFreedomStudio/sifive_hifive1_revb_hello/freedom-metal/src/drivers/riscv_clint0.c:194
200134ac:	fe442583          	lw	a1,-28(s0)
200134b0:	fcc42503          	lw	a0,-52(s0)
200134b4:	3e0d                	jal	20012fe6 <__metal_driver_sifive_clint0_interrupt_parents>
200134b6:	fea42423          	sw	a0,-24(s0)
/home/nicoladgg/wsFreedomStudio/sifive_hifive1_revb_hello/freedom-metal/src/drivers/riscv_clint0.c:195
200134ba:	fe042703          	lw	a4,-32(s0)
200134be:	fe842783          	lw	a5,-24(s0)
200134c2:	00f71863          	bne	a4,a5,200134d2 <__metal_driver_riscv_clint0_disable+0x6a>
/home/nicoladgg/wsFreedomStudio/sifive_hifive1_revb_hello/freedom-metal/src/drivers/riscv_clint0.c:195 (discriminator 1)
200134c6:	fc842703          	lw	a4,-56(s0)
200134ca:	fd842783          	lw	a5,-40(s0)
200134ce:	02f70063          	beq	a4,a5,200134ee <__metal_driver_riscv_clint0_disable+0x86>
/home/nicoladgg/wsFreedomStudio/sifive_hifive1_revb_hello/freedom-metal/src/drivers/riscv_clint0.c:198 (discriminator 2)
200134d2:	fe042423          	sw	zero,-24(s0)
/home/nicoladgg/wsFreedomStudio/sifive_hifive1_revb_hello/freedom-metal/src/drivers/riscv_clint0.c:190 (discriminator 2)
200134d6:	fe442783          	lw	a5,-28(s0)
200134da:	0785                	addi	a5,a5,1
200134dc:	fef42223          	sw	a5,-28(s0)
/home/nicoladgg/wsFreedomStudio/sifive_hifive1_revb_hello/freedom-metal/src/drivers/riscv_clint0.c:190 (discriminator 1)
200134e0:	fe442703          	lw	a4,-28(s0)
200134e4:	fdc42783          	lw	a5,-36(s0)
200134e8:	faf74be3          	blt	a4,a5,2001349e <__metal_driver_riscv_clint0_disable+0x36>
200134ec:	a011                	j	200134f0 <__metal_driver_riscv_clint0_disable+0x88>
/home/nicoladgg/wsFreedomStudio/sifive_hifive1_revb_hello/freedom-metal/src/drivers/riscv_clint0.c:196
200134ee:	0001                	nop
/home/nicoladgg/wsFreedomStudio/sifive_hifive1_revb_hello/freedom-metal/src/drivers/riscv_clint0.c:202
200134f0:	fe842783          	lw	a5,-24(s0)
200134f4:	cf81                	beqz	a5,2001350c <__metal_driver_riscv_clint0_disable+0xa4>
/home/nicoladgg/wsFreedomStudio/sifive_hifive1_revb_hello/freedom-metal/src/drivers/riscv_clint0.c:203
200134f6:	fe842783          	lw	a5,-24(s0)
200134fa:	439c                	lw	a5,0(a5)
200134fc:	579c                	lw	a5,40(a5)
200134fe:	fc842583          	lw	a1,-56(s0)
20013502:	fe842503          	lw	a0,-24(s0)
20013506:	9782                	jalr	a5
20013508:	fea42623          	sw	a0,-20(s0)
/home/nicoladgg/wsFreedomStudio/sifive_hifive1_revb_hello/freedom-metal/src/drivers/riscv_clint0.c:207
2001350c:	fec42783          	lw	a5,-20(s0)
/home/nicoladgg/wsFreedomStudio/sifive_hifive1_revb_hello/freedom-metal/src/drivers/riscv_clint0.c:208
20013510:	853e                	mv	a0,a5
20013512:	50f2                	lw	ra,60(sp)
20013514:	5462                	lw	s0,56(sp)
20013516:	6121                	addi	sp,sp,64
20013518:	8082                	ret

2001351a <__metal_driver_riscv_clint0_command_request>:
__metal_driver_riscv_clint0_command_request():
/home/nicoladgg/wsFreedomStudio/sifive_hifive1_revb_hello/freedom-metal/src/drivers/riscv_clint0.c:211
2001351a:	7179                	addi	sp,sp,-48
2001351c:	d606                	sw	ra,44(sp)
2001351e:	d422                	sw	s0,40(sp)
20013520:	1800                	addi	s0,sp,48
20013522:	fca42e23          	sw	a0,-36(s0)
20013526:	fcb42c23          	sw	a1,-40(s0)
2001352a:	fcc42a23          	sw	a2,-44(s0)
/home/nicoladgg/wsFreedomStudio/sifive_hifive1_revb_hello/freedom-metal/src/drivers/riscv_clint0.c:213
2001352e:	57fd                	li	a5,-1
20013530:	fef42623          	sw	a5,-20(s0)
/home/nicoladgg/wsFreedomStudio/sifive_hifive1_revb_hello/freedom-metal/src/drivers/riscv_clint0.c:214
20013534:	fdc42783          	lw	a5,-36(s0)
20013538:	fef42423          	sw	a5,-24(s0)
/home/nicoladgg/wsFreedomStudio/sifive_hifive1_revb_hello/freedom-metal/src/drivers/riscv_clint0.c:217
2001353c:	fdc42503          	lw	a0,-36(s0)
20013540:	3cb1                	jal	20012f9c <__metal_driver_sifive_clint0_control_base>
20013542:	fea42223          	sw	a0,-28(s0)
/home/nicoladgg/wsFreedomStudio/sifive_hifive1_revb_hello/freedom-metal/src/drivers/riscv_clint0.c:219
20013546:	fd842703          	lw	a4,-40(s0)
2001354a:	4791                	li	a5,4
2001354c:	0cf70063          	beq	a4,a5,2001360c <__metal_driver_riscv_clint0_command_request+0xf2>
20013550:	fd842703          	lw	a4,-40(s0)
20013554:	4791                	li	a5,4
20013556:	0ee7c063          	blt	a5,a4,20013636 <__metal_driver_riscv_clint0_command_request+0x11c>
2001355a:	fd842703          	lw	a4,-40(s0)
2001355e:	478d                	li	a5,3
20013560:	06f70563          	beq	a4,a5,200135ca <__metal_driver_riscv_clint0_command_request+0xb0>
20013564:	fd842703          	lw	a4,-40(s0)
20013568:	478d                	li	a5,3
2001356a:	0ce7c663          	blt	a5,a4,20013636 <__metal_driver_riscv_clint0_command_request+0x11c>
2001356e:	fd842703          	lw	a4,-40(s0)
20013572:	4785                	li	a5,1
20013574:	00f70863          	beq	a4,a5,20013584 <__metal_driver_riscv_clint0_command_request+0x6a>
20013578:	fd842703          	lw	a4,-40(s0)
2001357c:	4789                	li	a5,2
2001357e:	02f70263          	beq	a4,a5,200135a2 <__metal_driver_riscv_clint0_command_request+0x88>
/home/nicoladgg/wsFreedomStudio/sifive_hifive1_revb_hello/freedom-metal/src/drivers/riscv_clint0.c:263
20013582:	a855                	j	20013636 <__metal_driver_riscv_clint0_command_request+0x11c>
/home/nicoladgg/wsFreedomStudio/sifive_hifive1_revb_hello/freedom-metal/src/drivers/riscv_clint0.c:221
20013584:	fd442783          	lw	a5,-44(s0)
20013588:	cbcd                	beqz	a5,2001363a <__metal_driver_riscv_clint0_command_request+0x120>
/home/nicoladgg/wsFreedomStudio/sifive_hifive1_revb_hello/freedom-metal/src/drivers/riscv_clint0.c:222
2001358a:	fe842503          	lw	a0,-24(s0)
2001358e:	34d1                	jal	20013052 <__metal_clint0_mtime_get>
20013590:	872a                	mv	a4,a0
20013592:	87ae                	mv	a5,a1
20013594:	fd442683          	lw	a3,-44(s0)
20013598:	c298                	sw	a4,0(a3)
2001359a:	c2dc                	sw	a5,4(a3)
/home/nicoladgg/wsFreedomStudio/sifive_hifive1_revb_hello/freedom-metal/src/drivers/riscv_clint0.c:223
2001359c:	fe042623          	sw	zero,-20(s0)
/home/nicoladgg/wsFreedomStudio/sifive_hifive1_revb_hello/freedom-metal/src/drivers/riscv_clint0.c:225
200135a0:	a869                	j	2001363a <__metal_driver_riscv_clint0_command_request+0x120>
/home/nicoladgg/wsFreedomStudio/sifive_hifive1_revb_hello/freedom-metal/src/drivers/riscv_clint0.c:227
200135a2:	fd442783          	lw	a5,-44(s0)
200135a6:	cfc1                	beqz	a5,2001363e <__metal_driver_riscv_clint0_command_request+0x124>
/home/nicoladgg/wsFreedomStudio/sifive_hifive1_revb_hello/freedom-metal/src/drivers/riscv_clint0.c:228
200135a8:	fd442783          	lw	a5,-44(s0)
200135ac:	439c                	lw	a5,0(a5)
200135ae:	fef42023          	sw	a5,-32(s0)
/home/nicoladgg/wsFreedomStudio/sifive_hifive1_revb_hello/freedom-metal/src/drivers/riscv_clint0.c:229
200135b2:	fe042783          	lw	a5,-32(s0)
200135b6:	078a                	slli	a5,a5,0x2
200135b8:	873e                	mv	a4,a5
200135ba:	fe442783          	lw	a5,-28(s0)
200135be:	97ba                	add	a5,a5,a4
/home/nicoladgg/wsFreedomStudio/sifive_hifive1_revb_hello/freedom-metal/src/drivers/riscv_clint0.c:230
200135c0:	0007a023          	sw	zero,0(a5) # 4000 <__heap_size+0x3800>
/home/nicoladgg/wsFreedomStudio/sifive_hifive1_revb_hello/freedom-metal/src/drivers/riscv_clint0.c:231
200135c4:	fe042623          	sw	zero,-20(s0)
/home/nicoladgg/wsFreedomStudio/sifive_hifive1_revb_hello/freedom-metal/src/drivers/riscv_clint0.c:233
200135c8:	a89d                	j	2001363e <__metal_driver_riscv_clint0_command_request+0x124>
/home/nicoladgg/wsFreedomStudio/sifive_hifive1_revb_hello/freedom-metal/src/drivers/riscv_clint0.c:235
200135ca:	fd442783          	lw	a5,-44(s0)
200135ce:	cbb5                	beqz	a5,20013642 <__metal_driver_riscv_clint0_command_request+0x128>
/home/nicoladgg/wsFreedomStudio/sifive_hifive1_revb_hello/freedom-metal/src/drivers/riscv_clint0.c:236
200135d0:	fd442783          	lw	a5,-44(s0)
200135d4:	439c                	lw	a5,0(a5)
200135d6:	fef42023          	sw	a5,-32(s0)
/home/nicoladgg/wsFreedomStudio/sifive_hifive1_revb_hello/freedom-metal/src/drivers/riscv_clint0.c:237
200135da:	fe042783          	lw	a5,-32(s0)
200135de:	078a                	slli	a5,a5,0x2
200135e0:	873e                	mv	a4,a5
200135e2:	fe442783          	lw	a5,-28(s0)
200135e6:	97ba                	add	a5,a5,a4
200135e8:	873e                	mv	a4,a5
/home/nicoladgg/wsFreedomStudio/sifive_hifive1_revb_hello/freedom-metal/src/drivers/riscv_clint0.c:238
200135ea:	4785                	li	a5,1
200135ec:	c31c                	sw	a5,0(a4)
/home/nicoladgg/wsFreedomStudio/sifive_hifive1_revb_hello/freedom-metal/src/drivers/riscv_clint0.c:248
200135ee:	0480000f          	fence	o,i
/home/nicoladgg/wsFreedomStudio/sifive_hifive1_revb_hello/freedom-metal/src/drivers/riscv_clint0.c:249
200135f2:	fe042783          	lw	a5,-32(s0)
200135f6:	078a                	slli	a5,a5,0x2
200135f8:	873e                	mv	a4,a5
200135fa:	fe442783          	lw	a5,-28(s0)
200135fe:	97ba                	add	a5,a5,a4
20013600:	439c                	lw	a5,0(a5)
20013602:	fef42623          	sw	a5,-20(s0)
/home/nicoladgg/wsFreedomStudio/sifive_hifive1_revb_hello/freedom-metal/src/drivers/riscv_clint0.c:251
20013606:	fe042623          	sw	zero,-20(s0)
/home/nicoladgg/wsFreedomStudio/sifive_hifive1_revb_hello/freedom-metal/src/drivers/riscv_clint0.c:253
2001360a:	a825                	j	20013642 <__metal_driver_riscv_clint0_command_request+0x128>
/home/nicoladgg/wsFreedomStudio/sifive_hifive1_revb_hello/freedom-metal/src/drivers/riscv_clint0.c:255
2001360c:	fe042623          	sw	zero,-20(s0)
/home/nicoladgg/wsFreedomStudio/sifive_hifive1_revb_hello/freedom-metal/src/drivers/riscv_clint0.c:256
20013610:	fd442783          	lw	a5,-44(s0)
20013614:	cb8d                	beqz	a5,20013646 <__metal_driver_riscv_clint0_command_request+0x12c>
/home/nicoladgg/wsFreedomStudio/sifive_hifive1_revb_hello/freedom-metal/src/drivers/riscv_clint0.c:257
20013616:	fd442783          	lw	a5,-44(s0)
2001361a:	439c                	lw	a5,0(a5)
2001361c:	fef42023          	sw	a5,-32(s0)
/home/nicoladgg/wsFreedomStudio/sifive_hifive1_revb_hello/freedom-metal/src/drivers/riscv_clint0.c:258
20013620:	fe042783          	lw	a5,-32(s0)
20013624:	078a                	slli	a5,a5,0x2
20013626:	873e                	mv	a4,a5
20013628:	fe442783          	lw	a5,-28(s0)
2001362c:	97ba                	add	a5,a5,a4
2001362e:	439c                	lw	a5,0(a5)
20013630:	fef42623          	sw	a5,-20(s0)
/home/nicoladgg/wsFreedomStudio/sifive_hifive1_revb_hello/freedom-metal/src/drivers/riscv_clint0.c:261
20013634:	a809                	j	20013646 <__metal_driver_riscv_clint0_command_request+0x12c>
/home/nicoladgg/wsFreedomStudio/sifive_hifive1_revb_hello/freedom-metal/src/drivers/riscv_clint0.c:263
20013636:	0001                	nop
20013638:	a801                	j	20013648 <__metal_driver_riscv_clint0_command_request+0x12e>
/home/nicoladgg/wsFreedomStudio/sifive_hifive1_revb_hello/freedom-metal/src/drivers/riscv_clint0.c:225
2001363a:	0001                	nop
2001363c:	a031                	j	20013648 <__metal_driver_riscv_clint0_command_request+0x12e>
/home/nicoladgg/wsFreedomStudio/sifive_hifive1_revb_hello/freedom-metal/src/drivers/riscv_clint0.c:233
2001363e:	0001                	nop
20013640:	a021                	j	20013648 <__metal_driver_riscv_clint0_command_request+0x12e>
/home/nicoladgg/wsFreedomStudio/sifive_hifive1_revb_hello/freedom-metal/src/drivers/riscv_clint0.c:253
20013642:	0001                	nop
20013644:	a011                	j	20013648 <__metal_driver_riscv_clint0_command_request+0x12e>
/home/nicoladgg/wsFreedomStudio/sifive_hifive1_revb_hello/freedom-metal/src/drivers/riscv_clint0.c:261
20013646:	0001                	nop
/home/nicoladgg/wsFreedomStudio/sifive_hifive1_revb_hello/freedom-metal/src/drivers/riscv_clint0.c:266
20013648:	fec42783          	lw	a5,-20(s0)
/home/nicoladgg/wsFreedomStudio/sifive_hifive1_revb_hello/freedom-metal/src/drivers/riscv_clint0.c:267
2001364c:	853e                	mv	a0,a5
2001364e:	50b2                	lw	ra,44(sp)
20013650:	5422                	lw	s0,40(sp)
20013652:	6145                	addi	sp,sp,48
20013654:	8082                	ret

20013656 <__metal_driver_riscv_clint0_clear_interrupt>:
__metal_driver_riscv_clint0_clear_interrupt():
/home/nicoladgg/wsFreedomStudio/sifive_hifive1_revb_hello/freedom-metal/src/drivers/riscv_clint0.c:270
20013656:	7179                	addi	sp,sp,-48
20013658:	d606                	sw	ra,44(sp)
2001365a:	d422                	sw	s0,40(sp)
2001365c:	1800                	addi	s0,sp,48
2001365e:	fca42e23          	sw	a0,-36(s0)
20013662:	fcb42c23          	sw	a1,-40(s0)
/home/nicoladgg/wsFreedomStudio/sifive_hifive1_revb_hello/freedom-metal/src/drivers/riscv_clint0.c:271
20013666:	468020ef          	jal	ra,20015ace <metal_cpu_get_current_hartid>
2001366a:	87aa                	mv	a5,a0
2001366c:	fef42623          	sw	a5,-20(s0)
/home/nicoladgg/wsFreedomStudio/sifive_hifive1_revb_hello/freedom-metal/src/drivers/riscv_clint0.c:272
20013670:	fec40793          	addi	a5,s0,-20
20013674:	863e                	mv	a2,a5
20013676:	4589                	li	a1,2
20013678:	fdc42503          	lw	a0,-36(s0)
2001367c:	3d79                	jal	2001351a <__metal_driver_riscv_clint0_command_request>
2001367e:	87aa                	mv	a5,a0
/home/nicoladgg/wsFreedomStudio/sifive_hifive1_revb_hello/freedom-metal/src/drivers/riscv_clint0.c:274
20013680:	853e                	mv	a0,a5
20013682:	50b2                	lw	ra,44(sp)
20013684:	5422                	lw	s0,40(sp)
20013686:	6145                	addi	sp,sp,48
20013688:	8082                	ret

2001368a <__metal_driver_riscv_clint0_set_interrupt>:
__metal_driver_riscv_clint0_set_interrupt():
/home/nicoladgg/wsFreedomStudio/sifive_hifive1_revb_hello/freedom-metal/src/drivers/riscv_clint0.c:277
2001368a:	7179                	addi	sp,sp,-48
2001368c:	d606                	sw	ra,44(sp)
2001368e:	d422                	sw	s0,40(sp)
20013690:	1800                	addi	s0,sp,48
20013692:	fca42e23          	sw	a0,-36(s0)
20013696:	fcb42c23          	sw	a1,-40(s0)
/home/nicoladgg/wsFreedomStudio/sifive_hifive1_revb_hello/freedom-metal/src/drivers/riscv_clint0.c:278
2001369a:	434020ef          	jal	ra,20015ace <metal_cpu_get_current_hartid>
2001369e:	87aa                	mv	a5,a0
200136a0:	fef42623          	sw	a5,-20(s0)
/home/nicoladgg/wsFreedomStudio/sifive_hifive1_revb_hello/freedom-metal/src/drivers/riscv_clint0.c:279
200136a4:	fec40793          	addi	a5,s0,-20
200136a8:	863e                	mv	a2,a5
200136aa:	458d                	li	a1,3
200136ac:	fdc42503          	lw	a0,-36(s0)
200136b0:	35ad                	jal	2001351a <__metal_driver_riscv_clint0_command_request>
200136b2:	87aa                	mv	a5,a0
/home/nicoladgg/wsFreedomStudio/sifive_hifive1_revb_hello/freedom-metal/src/drivers/riscv_clint0.c:281
200136b4:	853e                	mv	a0,a5
200136b6:	50b2                	lw	ra,44(sp)
200136b8:	5422                	lw	s0,40(sp)
200136ba:	6145                	addi	sp,sp,48
200136bc:	8082                	ret

200136be <__metal_driver_cpu_hartid>:
__metal_driver_cpu_hartid():
/home/nicoladgg/wsFreedomStudio/sifive_hifive1_revb_hello/bsp/build/debug/./metal/machine.h:292
200136be:	1101                	addi	sp,sp,-32
200136c0:	ce22                	sw	s0,28(sp)
200136c2:	1000                	addi	s0,sp,32
200136c4:	fea42623          	sw	a0,-20(s0)
/home/nicoladgg/wsFreedomStudio/sifive_hifive1_revb_hello/bsp/build/debug/./metal/machine.h:293
200136c8:	fec42703          	lw	a4,-20(s0)
200136cc:	81c18793          	addi	a5,gp,-2020 # 800004a4 <__metal_dt_cpu_0>
200136d0:	00f71463          	bne	a4,a5,200136d8 <__metal_driver_cpu_hartid+0x1a>
/home/nicoladgg/wsFreedomStudio/sifive_hifive1_revb_hello/bsp/build/debug/./metal/machine.h:294
200136d4:	4781                	li	a5,0
200136d6:	a011                	j	200136da <__metal_driver_cpu_hartid+0x1c>
/home/nicoladgg/wsFreedomStudio/sifive_hifive1_revb_hello/bsp/build/debug/./metal/machine.h:297
200136d8:	57fd                	li	a5,-1
/home/nicoladgg/wsFreedomStudio/sifive_hifive1_revb_hello/bsp/build/debug/./metal/machine.h:299
200136da:	853e                	mv	a0,a5
200136dc:	4472                	lw	s0,28(sp)
200136de:	6105                	addi	sp,sp,32
200136e0:	8082                	ret

200136e2 <__metal_driver_cpu_timebase>:
__metal_driver_cpu_timebase():
/home/nicoladgg/wsFreedomStudio/sifive_hifive1_revb_hello/bsp/build/debug/./metal/machine.h:302
200136e2:	1101                	addi	sp,sp,-32
200136e4:	ce22                	sw	s0,28(sp)
200136e6:	1000                	addi	s0,sp,32
200136e8:	fea42623          	sw	a0,-20(s0)
/home/nicoladgg/wsFreedomStudio/sifive_hifive1_revb_hello/bsp/build/debug/./metal/machine.h:303
200136ec:	fec42703          	lw	a4,-20(s0)
200136f0:	81c18793          	addi	a5,gp,-2020 # 800004a4 <__metal_dt_cpu_0>
200136f4:	00f71763          	bne	a4,a5,20013702 <__metal_driver_cpu_timebase+0x20>
/home/nicoladgg/wsFreedomStudio/sifive_hifive1_revb_hello/bsp/build/debug/./metal/machine.h:304
200136f8:	00f427b7          	lui	a5,0xf42
200136fc:	40078793          	addi	a5,a5,1024 # f42400 <__heap_size+0xf41c00>
20013700:	a011                	j	20013704 <__metal_driver_cpu_timebase+0x22>
/home/nicoladgg/wsFreedomStudio/sifive_hifive1_revb_hello/bsp/build/debug/./metal/machine.h:307
20013702:	4781                	li	a5,0
/home/nicoladgg/wsFreedomStudio/sifive_hifive1_revb_hello/bsp/build/debug/./metal/machine.h:309
20013704:	853e                	mv	a0,a5
20013706:	4472                	lw	s0,28(sp)
20013708:	6105                	addi	sp,sp,32
2001370a:	8082                	ret

2001370c <__metal_driver_cpu_interrupt_controller>:
__metal_driver_cpu_interrupt_controller():
/home/nicoladgg/wsFreedomStudio/sifive_hifive1_revb_hello/bsp/build/debug/./metal/machine.h:312
2001370c:	1101                	addi	sp,sp,-32
2001370e:	ce22                	sw	s0,28(sp)
20013710:	1000                	addi	s0,sp,32
20013712:	fea42623          	sw	a0,-20(s0)
/home/nicoladgg/wsFreedomStudio/sifive_hifive1_revb_hello/bsp/build/debug/./metal/machine.h:313
20013716:	fec42703          	lw	a4,-20(s0)
2001371a:	81c18793          	addi	a5,gp,-2020 # 800004a4 <__metal_dt_cpu_0>
2001371e:	00f71763          	bne	a4,a5,2001372c <__metal_driver_cpu_interrupt_controller+0x20>
/home/nicoladgg/wsFreedomStudio/sifive_hifive1_revb_hello/bsp/build/debug/./metal/machine.h:314
20013722:	800007b7          	lui	a5,0x80000
20013726:	09078793          	addi	a5,a5,144 # 80000090 <__global_pointer$+0xfffff408>
2001372a:	a011                	j	2001372e <__metal_driver_cpu_interrupt_controller+0x22>
/home/nicoladgg/wsFreedomStudio/sifive_hifive1_revb_hello/bsp/build/debug/./metal/machine.h:317
2001372c:	4781                	li	a5,0
/home/nicoladgg/wsFreedomStudio/sifive_hifive1_revb_hello/bsp/build/debug/./metal/machine.h:319
2001372e:	853e                	mv	a0,a5
20013730:	4472                	lw	s0,28(sp)
20013732:	6105                	addi	sp,sp,32
20013734:	8082                	ret

20013736 <__metal_driver_cpu_buserror>:
__metal_driver_cpu_buserror():
/home/nicoladgg/wsFreedomStudio/sifive_hifive1_revb_hello/bsp/build/debug/./metal/machine.h:332
20013736:	1101                	addi	sp,sp,-32
20013738:	ce22                	sw	s0,28(sp)
2001373a:	1000                	addi	s0,sp,32
2001373c:	fea42623          	sw	a0,-20(s0)
/home/nicoladgg/wsFreedomStudio/sifive_hifive1_revb_hello/bsp/build/debug/./metal/machine.h:333
20013740:	fec42703          	lw	a4,-20(s0)
20013744:	81c18793          	addi	a5,gp,-2020 # 800004a4 <__metal_dt_cpu_0>
20013748:	00f71463          	bne	a4,a5,20013750 <__metal_driver_cpu_buserror+0x1a>
/home/nicoladgg/wsFreedomStudio/sifive_hifive1_revb_hello/bsp/build/debug/./metal/machine.h:334
2001374c:	4781                	li	a5,0
2001374e:	a011                	j	20013752 <__metal_driver_cpu_buserror+0x1c>
/home/nicoladgg/wsFreedomStudio/sifive_hifive1_revb_hello/bsp/build/debug/./metal/machine.h:337
20013750:	4781                	li	a5,0
/home/nicoladgg/wsFreedomStudio/sifive_hifive1_revb_hello/bsp/build/debug/./metal/machine.h:339
20013752:	853e                	mv	a0,a5
20013754:	4472                	lw	s0,28(sp)
20013756:	6105                	addi	sp,sp,32
20013758:	8082                	ret

2001375a <__metal_driver_cpu_get>:
__metal_driver_cpu_get():
/home/nicoladgg/wsFreedomStudio/sifive_hifive1_revb_hello/freedom-metal/src/drivers/riscv_cpu.c:25
2001375a:	1101                	addi	sp,sp,-32
2001375c:	ce22                	sw	s0,28(sp)
2001375e:	1000                	addi	s0,sp,32
20013760:	fea42623          	sw	a0,-20(s0)
/home/nicoladgg/wsFreedomStudio/sifive_hifive1_revb_hello/freedom-metal/src/drivers/riscv_cpu.c:26
20013764:	fec42783          	lw	a5,-20(s0)
20013768:	00f04a63          	bgtz	a5,2001377c <__metal_driver_cpu_get+0x22>
/home/nicoladgg/wsFreedomStudio/sifive_hifive1_revb_hello/freedom-metal/src/drivers/riscv_cpu.c:27
2001376c:	fec42703          	lw	a4,-20(s0)
20013770:	070a                	slli	a4,a4,0x2
20013772:	81018793          	addi	a5,gp,-2032 # 80000498 <__metal_cpu_table>
20013776:	97ba                	add	a5,a5,a4
20013778:	439c                	lw	a5,0(a5)
2001377a:	a011                	j	2001377e <__metal_driver_cpu_get+0x24>
/home/nicoladgg/wsFreedomStudio/sifive_hifive1_revb_hello/freedom-metal/src/drivers/riscv_cpu.c:29
2001377c:	4781                	li	a5,0
/home/nicoladgg/wsFreedomStudio/sifive_hifive1_revb_hello/freedom-metal/src/drivers/riscv_cpu.c:30
2001377e:	853e                	mv	a0,a5
20013780:	4472                	lw	s0,28(sp)
20013782:	6105                	addi	sp,sp,32
20013784:	8082                	ret

20013786 <__metal_myhart_id>:
__metal_myhart_id():
/home/nicoladgg/wsFreedomStudio/sifive_hifive1_revb_hello/freedom-metal/src/drivers/riscv_cpu.c:32
20013786:	1101                	addi	sp,sp,-32
20013788:	ce22                	sw	s0,28(sp)
2001378a:	1000                	addi	s0,sp,32
/home/nicoladgg/wsFreedomStudio/sifive_hifive1_revb_hello/freedom-metal/src/drivers/riscv_cpu.c:34
2001378c:	f14027f3          	csrr	a5,mhartid
20013790:	fef42623          	sw	a5,-20(s0)
/home/nicoladgg/wsFreedomStudio/sifive_hifive1_revb_hello/freedom-metal/src/drivers/riscv_cpu.c:35
20013794:	fec42783          	lw	a5,-20(s0)
/home/nicoladgg/wsFreedomStudio/sifive_hifive1_revb_hello/freedom-metal/src/drivers/riscv_cpu.c:36
20013798:	853e                	mv	a0,a5
2001379a:	4472                	lw	s0,28(sp)
2001379c:	6105                	addi	sp,sp,32
2001379e:	8082                	ret

200137a0 <__metal_interrupt_global_enable>:
__metal_interrupt_global_enable():
/home/nicoladgg/wsFreedomStudio/sifive_hifive1_revb_hello/freedom-metal/src/drivers/riscv_cpu.c:45
200137a0:	1101                	addi	sp,sp,-32
200137a2:	ce22                	sw	s0,28(sp)
200137a4:	1000                	addi	s0,sp,32
/home/nicoladgg/wsFreedomStudio/sifive_hifive1_revb_hello/freedom-metal/src/drivers/riscv_cpu.c:47
200137a6:	47a1                	li	a5,8
200137a8:	3007a7f3          	csrrs	a5,mstatus,a5
200137ac:	fef42623          	sw	a5,-20(s0)
/home/nicoladgg/wsFreedomStudio/sifive_hifive1_revb_hello/freedom-metal/src/drivers/riscv_cpu.c:50
200137b0:	0001                	nop
200137b2:	4472                	lw	s0,28(sp)
200137b4:	6105                	addi	sp,sp,32
200137b6:	8082                	ret

200137b8 <__metal_interrupt_global_disable>:
__metal_interrupt_global_disable():
/home/nicoladgg/wsFreedomStudio/sifive_hifive1_revb_hello/freedom-metal/src/drivers/riscv_cpu.c:52
200137b8:	1101                	addi	sp,sp,-32
200137ba:	ce22                	sw	s0,28(sp)
200137bc:	1000                	addi	s0,sp,32
/home/nicoladgg/wsFreedomStudio/sifive_hifive1_revb_hello/freedom-metal/src/drivers/riscv_cpu.c:54
200137be:	47a1                	li	a5,8
200137c0:	3007b7f3          	csrrc	a5,mstatus,a5
200137c4:	fef42623          	sw	a5,-20(s0)
/home/nicoladgg/wsFreedomStudio/sifive_hifive1_revb_hello/freedom-metal/src/drivers/riscv_cpu.c:57
200137c8:	0001                	nop
200137ca:	4472                	lw	s0,28(sp)
200137cc:	6105                	addi	sp,sp,32
200137ce:	8082                	ret

200137d0 <__metal_interrupt_software_enable>:
__metal_interrupt_software_enable():
/home/nicoladgg/wsFreedomStudio/sifive_hifive1_revb_hello/freedom-metal/src/drivers/riscv_cpu.c:59
200137d0:	1101                	addi	sp,sp,-32
200137d2:	ce22                	sw	s0,28(sp)
200137d4:	1000                	addi	s0,sp,32
/home/nicoladgg/wsFreedomStudio/sifive_hifive1_revb_hello/freedom-metal/src/drivers/riscv_cpu.c:61
200137d6:	47a1                	li	a5,8
200137d8:	3047a7f3          	csrrs	a5,mie,a5
200137dc:	fef42623          	sw	a5,-20(s0)
/home/nicoladgg/wsFreedomStudio/sifive_hifive1_revb_hello/freedom-metal/src/drivers/riscv_cpu.c:64
200137e0:	0001                	nop
200137e2:	4472                	lw	s0,28(sp)
200137e4:	6105                	addi	sp,sp,32
200137e6:	8082                	ret

200137e8 <__metal_interrupt_software_disable>:
__metal_interrupt_software_disable():
/home/nicoladgg/wsFreedomStudio/sifive_hifive1_revb_hello/freedom-metal/src/drivers/riscv_cpu.c:66
200137e8:	1101                	addi	sp,sp,-32
200137ea:	ce22                	sw	s0,28(sp)
200137ec:	1000                	addi	s0,sp,32
/home/nicoladgg/wsFreedomStudio/sifive_hifive1_revb_hello/freedom-metal/src/drivers/riscv_cpu.c:68
200137ee:	47a1                	li	a5,8
200137f0:	3047b7f3          	csrrc	a5,mie,a5
200137f4:	fef42623          	sw	a5,-20(s0)
/home/nicoladgg/wsFreedomStudio/sifive_hifive1_revb_hello/freedom-metal/src/drivers/riscv_cpu.c:71
200137f8:	0001                	nop
200137fa:	4472                	lw	s0,28(sp)
200137fc:	6105                	addi	sp,sp,32
200137fe:	8082                	ret

20013800 <__metal_interrupt_timer_enable>:
__metal_interrupt_timer_enable():
/home/nicoladgg/wsFreedomStudio/sifive_hifive1_revb_hello/freedom-metal/src/drivers/riscv_cpu.c:73
20013800:	1101                	addi	sp,sp,-32
20013802:	ce22                	sw	s0,28(sp)
20013804:	1000                	addi	s0,sp,32
/home/nicoladgg/wsFreedomStudio/sifive_hifive1_revb_hello/freedom-metal/src/drivers/riscv_cpu.c:75
20013806:	08000793          	li	a5,128
2001380a:	3047a7f3          	csrrs	a5,mie,a5
2001380e:	fef42623          	sw	a5,-20(s0)
/home/nicoladgg/wsFreedomStudio/sifive_hifive1_revb_hello/freedom-metal/src/drivers/riscv_cpu.c:78
20013812:	0001                	nop
20013814:	4472                	lw	s0,28(sp)
20013816:	6105                	addi	sp,sp,32
20013818:	8082                	ret

2001381a <__metal_interrupt_timer_disable>:
__metal_interrupt_timer_disable():
/home/nicoladgg/wsFreedomStudio/sifive_hifive1_revb_hello/freedom-metal/src/drivers/riscv_cpu.c:80
2001381a:	1101                	addi	sp,sp,-32
2001381c:	ce22                	sw	s0,28(sp)
2001381e:	1000                	addi	s0,sp,32
/home/nicoladgg/wsFreedomStudio/sifive_hifive1_revb_hello/freedom-metal/src/drivers/riscv_cpu.c:82
20013820:	08000793          	li	a5,128
20013824:	3047b7f3          	csrrc	a5,mie,a5
20013828:	fef42623          	sw	a5,-20(s0)
/home/nicoladgg/wsFreedomStudio/sifive_hifive1_revb_hello/freedom-metal/src/drivers/riscv_cpu.c:85
2001382c:	0001                	nop
2001382e:	4472                	lw	s0,28(sp)
20013830:	6105                	addi	sp,sp,32
20013832:	8082                	ret

20013834 <__metal_interrupt_external_enable>:
__metal_interrupt_external_enable():
/home/nicoladgg/wsFreedomStudio/sifive_hifive1_revb_hello/freedom-metal/src/drivers/riscv_cpu.c:87
20013834:	1101                	addi	sp,sp,-32
20013836:	ce22                	sw	s0,28(sp)
20013838:	1000                	addi	s0,sp,32
/home/nicoladgg/wsFreedomStudio/sifive_hifive1_revb_hello/freedom-metal/src/drivers/riscv_cpu.c:89
2001383a:	6785                	lui	a5,0x1
2001383c:	80078793          	addi	a5,a5,-2048 # 800 <__heap_size>
20013840:	3047a7f3          	csrrs	a5,mie,a5
20013844:	fef42623          	sw	a5,-20(s0)
/home/nicoladgg/wsFreedomStudio/sifive_hifive1_revb_hello/freedom-metal/src/drivers/riscv_cpu.c:92
20013848:	0001                	nop
2001384a:	4472                	lw	s0,28(sp)
2001384c:	6105                	addi	sp,sp,32
2001384e:	8082                	ret

20013850 <__metal_interrupt_external_disable>:
__metal_interrupt_external_disable():
/home/nicoladgg/wsFreedomStudio/sifive_hifive1_revb_hello/freedom-metal/src/drivers/riscv_cpu.c:94
20013850:	1101                	addi	sp,sp,-32
20013852:	ce22                	sw	s0,28(sp)
20013854:	1000                	addi	s0,sp,32
/home/nicoladgg/wsFreedomStudio/sifive_hifive1_revb_hello/freedom-metal/src/drivers/riscv_cpu.c:96
20013856:	6785                	lui	a5,0x1
20013858:	80078793          	addi	a5,a5,-2048 # 800 <__heap_size>
2001385c:	3047b7f3          	csrrc	a5,mie,a5
20013860:	fef42623          	sw	a5,-20(s0)
/home/nicoladgg/wsFreedomStudio/sifive_hifive1_revb_hello/freedom-metal/src/drivers/riscv_cpu.c:99
20013864:	0001                	nop
20013866:	4472                	lw	s0,28(sp)
20013868:	6105                	addi	sp,sp,32
2001386a:	8082                	ret

2001386c <__metal_interrupt_local_enable>:
__metal_interrupt_local_enable():
/home/nicoladgg/wsFreedomStudio/sifive_hifive1_revb_hello/freedom-metal/src/drivers/riscv_cpu.c:101
2001386c:	7179                	addi	sp,sp,-48
2001386e:	d622                	sw	s0,44(sp)
20013870:	1800                	addi	s0,sp,48
20013872:	fca42e23          	sw	a0,-36(s0)
/home/nicoladgg/wsFreedomStudio/sifive_hifive1_revb_hello/freedom-metal/src/drivers/riscv_cpu.c:102
20013876:	fdc42783          	lw	a5,-36(s0)
2001387a:	4705                	li	a4,1
2001387c:	00f717b3          	sll	a5,a4,a5
20013880:	fef42623          	sw	a5,-20(s0)
/home/nicoladgg/wsFreedomStudio/sifive_hifive1_revb_hello/freedom-metal/src/drivers/riscv_cpu.c:104
20013884:	fec42783          	lw	a5,-20(s0)
20013888:	3047a7f3          	csrrs	a5,mie,a5
2001388c:	fef42423          	sw	a5,-24(s0)
/home/nicoladgg/wsFreedomStudio/sifive_hifive1_revb_hello/freedom-metal/src/drivers/riscv_cpu.c:105
20013890:	0001                	nop
20013892:	5432                	lw	s0,44(sp)
20013894:	6145                	addi	sp,sp,48
20013896:	8082                	ret

20013898 <__metal_interrupt_local_disable>:
__metal_interrupt_local_disable():
/home/nicoladgg/wsFreedomStudio/sifive_hifive1_revb_hello/freedom-metal/src/drivers/riscv_cpu.c:107
20013898:	7179                	addi	sp,sp,-48
2001389a:	d622                	sw	s0,44(sp)
2001389c:	1800                	addi	s0,sp,48
2001389e:	fca42e23          	sw	a0,-36(s0)
/home/nicoladgg/wsFreedomStudio/sifive_hifive1_revb_hello/freedom-metal/src/drivers/riscv_cpu.c:108
200138a2:	fdc42783          	lw	a5,-36(s0)
200138a6:	4705                	li	a4,1
200138a8:	00f717b3          	sll	a5,a4,a5
200138ac:	fef42623          	sw	a5,-20(s0)
/home/nicoladgg/wsFreedomStudio/sifive_hifive1_revb_hello/freedom-metal/src/drivers/riscv_cpu.c:110
200138b0:	fec42783          	lw	a5,-20(s0)
200138b4:	3047b7f3          	csrrc	a5,mie,a5
200138b8:	fef42423          	sw	a5,-24(s0)
/home/nicoladgg/wsFreedomStudio/sifive_hifive1_revb_hello/freedom-metal/src/drivers/riscv_cpu.c:111
200138bc:	0001                	nop
200138be:	5432                	lw	s0,44(sp)
200138c0:	6145                	addi	sp,sp,48
200138c2:	8082                	ret

200138c4 <__metal_default_exception_handler>:
__metal_default_exception_handler():
/home/nicoladgg/wsFreedomStudio/sifive_hifive1_revb_hello/freedom-metal/src/drivers/riscv_cpu.c:113
200138c4:	1101                	addi	sp,sp,-32
200138c6:	ce06                	sw	ra,28(sp)
200138c8:	cc22                	sw	s0,24(sp)
200138ca:	1000                	addi	s0,sp,32
200138cc:	fea42623          	sw	a0,-20(s0)
200138d0:	feb42423          	sw	a1,-24(s0)
/home/nicoladgg/wsFreedomStudio/sifive_hifive1_revb_hello/freedom-metal/src/drivers/riscv_cpu.c:114
200138d4:	06400513          	li	a0,100
200138d8:	210020ef          	jal	ra,20015ae8 <metal_shutdown>

200138dc <__metal_default_interrupt_handler>:
__metal_default_interrupt_handler():
/home/nicoladgg/wsFreedomStudio/sifive_hifive1_revb_hello/freedom-metal/src/drivers/riscv_cpu.c:117
200138dc:	1101                	addi	sp,sp,-32
200138de:	ce06                	sw	ra,28(sp)
200138e0:	cc22                	sw	s0,24(sp)
200138e2:	1000                	addi	s0,sp,32
200138e4:	fea42623          	sw	a0,-20(s0)
200138e8:	feb42423          	sw	a1,-24(s0)
/home/nicoladgg/wsFreedomStudio/sifive_hifive1_revb_hello/freedom-metal/src/drivers/riscv_cpu.c:118
200138ec:	0c800513          	li	a0,200
200138f0:	1f8020ef          	jal	ra,20015ae8 <metal_shutdown>

200138f4 <metal_interrupt_vector_handler>:
metal_interrupt_vector_handler():
/home/nicoladgg/wsFreedomStudio/sifive_hifive1_revb_hello/freedom-metal/src/drivers/riscv_cpu.c:122
200138f4:	715d                	addi	sp,sp,-80
200138f6:	c686                	sw	ra,76(sp)
200138f8:	c496                	sw	t0,72(sp)
200138fa:	c29a                	sw	t1,68(sp)
200138fc:	c09e                	sw	t2,64(sp)
200138fe:	de22                	sw	s0,60(sp)
20013900:	dc2a                	sw	a0,56(sp)
20013902:	da2e                	sw	a1,52(sp)
20013904:	d832                	sw	a2,48(sp)
20013906:	d636                	sw	a3,44(sp)
20013908:	d43a                	sw	a4,40(sp)
2001390a:	d23e                	sw	a5,36(sp)
2001390c:	d042                	sw	a6,32(sp)
2001390e:	ce46                	sw	a7,28(sp)
20013910:	cc72                	sw	t3,24(sp)
20013912:	ca76                	sw	t4,20(sp)
20013914:	c87a                	sw	t5,16(sp)
20013916:	c67e                	sw	t6,12(sp)
20013918:	0880                	addi	s0,sp,80
/home/nicoladgg/wsFreedomStudio/sifive_hifive1_revb_hello/freedom-metal/src/drivers/riscv_cpu.c:123
2001391a:	12c00513          	li	a0,300
2001391e:	1ca020ef          	jal	ra,20015ae8 <metal_shutdown>

20013922 <metal_software_interrupt_vector_handler>:
metal_software_interrupt_vector_handler():
/home/nicoladgg/wsFreedomStudio/sifive_hifive1_revb_hello/freedom-metal/src/drivers/riscv_cpu.c:128
20013922:	711d                	addi	sp,sp,-96
20013924:	ce86                	sw	ra,92(sp)
20013926:	cc96                	sw	t0,88(sp)
20013928:	ca9a                	sw	t1,84(sp)
2001392a:	c89e                	sw	t2,80(sp)
2001392c:	c6a2                	sw	s0,76(sp)
2001392e:	c4aa                	sw	a0,72(sp)
20013930:	c2ae                	sw	a1,68(sp)
20013932:	c0b2                	sw	a2,64(sp)
20013934:	de36                	sw	a3,60(sp)
20013936:	dc3a                	sw	a4,56(sp)
20013938:	da3e                	sw	a5,52(sp)
2001393a:	d842                	sw	a6,48(sp)
2001393c:	d646                	sw	a7,44(sp)
2001393e:	d472                	sw	t3,40(sp)
20013940:	d276                	sw	t4,36(sp)
20013942:	d07a                	sw	t5,32(sp)
20013944:	ce7e                	sw	t6,28(sp)
20013946:	1080                	addi	s0,sp,96
/home/nicoladgg/wsFreedomStudio/sifive_hifive1_revb_hello/freedom-metal/src/drivers/riscv_cpu.c:129
20013948:	3d3d                	jal	20013786 <__metal_myhart_id>
2001394a:	872a                	mv	a4,a0
2001394c:	070a                	slli	a4,a4,0x2
2001394e:	81018793          	addi	a5,gp,-2032 # 80000498 <__metal_cpu_table>
20013952:	97ba                	add	a5,a5,a4
20013954:	439c                	lw	a5,0(a5)
20013956:	faf42623          	sw	a5,-84(s0)
2001395a:	fac42783          	lw	a5,-84(s0)
2001395e:	c785                	beqz	a5,20013986 <metal_software_interrupt_vector_handler+0x64>
/home/nicoladgg/wsFreedomStudio/sifive_hifive1_revb_hello/freedom-metal/src/drivers/riscv_cpu.c:129 (discriminator 1)
20013960:	fac42503          	lw	a0,-84(s0)
20013964:	3365                	jal	2001370c <__metal_driver_cpu_interrupt_controller>
20013966:	faa42423          	sw	a0,-88(s0)
2001396a:	fa842783          	lw	a5,-88(s0)
2001396e:	0e07a783          	lw	a5,224(a5)
20013972:	faf42223          	sw	a5,-92(s0)
20013976:	fa842783          	lw	a5,-88(s0)
2001397a:	0d87a783          	lw	a5,216(a5)
2001397e:	fa442583          	lw	a1,-92(s0)
20013982:	450d                	li	a0,3
20013984:	9782                	jalr	a5
/home/nicoladgg/wsFreedomStudio/sifive_hifive1_revb_hello/freedom-metal/src/drivers/riscv_cpu.c:130
20013986:	0001                	nop
20013988:	40f6                	lw	ra,92(sp)
2001398a:	42e6                	lw	t0,88(sp)
2001398c:	4356                	lw	t1,84(sp)
2001398e:	43c6                	lw	t2,80(sp)
20013990:	4436                	lw	s0,76(sp)
20013992:	4526                	lw	a0,72(sp)
20013994:	4596                	lw	a1,68(sp)
20013996:	4606                	lw	a2,64(sp)
20013998:	56f2                	lw	a3,60(sp)
2001399a:	5762                	lw	a4,56(sp)
2001399c:	57d2                	lw	a5,52(sp)
2001399e:	5842                	lw	a6,48(sp)
200139a0:	58b2                	lw	a7,44(sp)
200139a2:	5e22                	lw	t3,40(sp)
200139a4:	5e92                	lw	t4,36(sp)
200139a6:	5f02                	lw	t5,32(sp)
200139a8:	4ff2                	lw	t6,28(sp)
200139aa:	6125                	addi	sp,sp,96
200139ac:	30200073          	mret

200139b0 <__metal_default_sw_handler>:
__metal_default_sw_handler():
/home/nicoladgg/wsFreedomStudio/sifive_hifive1_revb_hello/freedom-metal/src/drivers/riscv_cpu.c:132
200139b0:	7179                	addi	sp,sp,-48
200139b2:	d606                	sw	ra,44(sp)
200139b4:	d422                	sw	s0,40(sp)
200139b6:	1800                	addi	s0,sp,48
200139b8:	fca42e23          	sw	a0,-36(s0)
200139bc:	fcb42c23          	sw	a1,-40(s0)
/home/nicoladgg/wsFreedomStudio/sifive_hifive1_revb_hello/freedom-metal/src/drivers/riscv_cpu.c:135
200139c0:	33d9                	jal	20013786 <__metal_myhart_id>
200139c2:	872a                	mv	a4,a0
200139c4:	070a                	slli	a4,a4,0x2
200139c6:	81018793          	addi	a5,gp,-2032 # 80000498 <__metal_cpu_table>
200139ca:	97ba                	add	a5,a5,a4
200139cc:	439c                	lw	a5,0(a5)
200139ce:	fef42623          	sw	a5,-20(s0)
/home/nicoladgg/wsFreedomStudio/sifive_hifive1_revb_hello/freedom-metal/src/drivers/riscv_cpu.c:137
200139d2:	342027f3          	csrr	a5,mcause
200139d6:	fef42423          	sw	a5,-24(s0)
/home/nicoladgg/wsFreedomStudio/sifive_hifive1_revb_hello/freedom-metal/src/drivers/riscv_cpu.c:138
200139da:	fec42783          	lw	a5,-20(s0)
200139de:	c795                	beqz	a5,20013a0a <__metal_default_sw_handler+0x5a>
/home/nicoladgg/wsFreedomStudio/sifive_hifive1_revb_hello/freedom-metal/src/drivers/riscv_cpu.c:140
200139e0:	fec42503          	lw	a0,-20(s0)
200139e4:	3325                	jal	2001370c <__metal_driver_cpu_interrupt_controller>
200139e6:	fea42223          	sw	a0,-28(s0)
/home/nicoladgg/wsFreedomStudio/sifive_hifive1_revb_hello/freedom-metal/src/drivers/riscv_cpu.c:141
200139ea:	fe842783          	lw	a5,-24(s0)
200139ee:	3ff7f793          	andi	a5,a5,1023
200139f2:	fe442703          	lw	a4,-28(s0)
200139f6:	0e878793          	addi	a5,a5,232
200139fa:	078a                	slli	a5,a5,0x2
200139fc:	97ba                	add	a5,a5,a4
200139fe:	439c                	lw	a5,0(a5)
20013a00:	fdc42583          	lw	a1,-36(s0)
20013a04:	fec42503          	lw	a0,-20(s0)
20013a08:	9782                	jalr	a5
/home/nicoladgg/wsFreedomStudio/sifive_hifive1_revb_hello/freedom-metal/src/drivers/riscv_cpu.c:144
20013a0a:	0001                	nop
20013a0c:	50b2                	lw	ra,44(sp)
20013a0e:	5422                	lw	s0,40(sp)
20013a10:	6145                	addi	sp,sp,48
20013a12:	8082                	ret

20013a14 <metal_timer_interrupt_vector_handler>:
metal_timer_interrupt_vector_handler():
/home/nicoladgg/wsFreedomStudio/sifive_hifive1_revb_hello/freedom-metal/src/drivers/riscv_cpu.c:148
20013a14:	711d                	addi	sp,sp,-96
20013a16:	ce86                	sw	ra,92(sp)
20013a18:	cc96                	sw	t0,88(sp)
20013a1a:	ca9a                	sw	t1,84(sp)
20013a1c:	c89e                	sw	t2,80(sp)
20013a1e:	c6a2                	sw	s0,76(sp)
20013a20:	c4aa                	sw	a0,72(sp)
20013a22:	c2ae                	sw	a1,68(sp)
20013a24:	c0b2                	sw	a2,64(sp)
20013a26:	de36                	sw	a3,60(sp)
20013a28:	dc3a                	sw	a4,56(sp)
20013a2a:	da3e                	sw	a5,52(sp)
20013a2c:	d842                	sw	a6,48(sp)
20013a2e:	d646                	sw	a7,44(sp)
20013a30:	d472                	sw	t3,40(sp)
20013a32:	d276                	sw	t4,36(sp)
20013a34:	d07a                	sw	t5,32(sp)
20013a36:	ce7e                	sw	t6,28(sp)
20013a38:	1080                	addi	s0,sp,96
/home/nicoladgg/wsFreedomStudio/sifive_hifive1_revb_hello/freedom-metal/src/drivers/riscv_cpu.c:149
20013a3a:	33b1                	jal	20013786 <__metal_myhart_id>
20013a3c:	872a                	mv	a4,a0
20013a3e:	070a                	slli	a4,a4,0x2
20013a40:	81018793          	addi	a5,gp,-2032 # 80000498 <__metal_cpu_table>
20013a44:	97ba                	add	a5,a5,a4
20013a46:	439c                	lw	a5,0(a5)
20013a48:	faf42623          	sw	a5,-84(s0)
20013a4c:	fac42783          	lw	a5,-84(s0)
20013a50:	c785                	beqz	a5,20013a78 <metal_timer_interrupt_vector_handler+0x64>
/home/nicoladgg/wsFreedomStudio/sifive_hifive1_revb_hello/freedom-metal/src/drivers/riscv_cpu.c:149 (discriminator 1)
20013a52:	fac42503          	lw	a0,-84(s0)
20013a56:	395d                	jal	2001370c <__metal_driver_cpu_interrupt_controller>
20013a58:	faa42423          	sw	a0,-88(s0)
20013a5c:	fa842783          	lw	a5,-88(s0)
20013a60:	1407a783          	lw	a5,320(a5)
20013a64:	faf42223          	sw	a5,-92(s0)
20013a68:	fa842783          	lw	a5,-88(s0)
20013a6c:	1387a783          	lw	a5,312(a5)
20013a70:	fa442583          	lw	a1,-92(s0)
20013a74:	451d                	li	a0,7
20013a76:	9782                	jalr	a5
/home/nicoladgg/wsFreedomStudio/sifive_hifive1_revb_hello/freedom-metal/src/drivers/riscv_cpu.c:150
20013a78:	0001                	nop
20013a7a:	40f6                	lw	ra,92(sp)
20013a7c:	42e6                	lw	t0,88(sp)
20013a7e:	4356                	lw	t1,84(sp)
20013a80:	43c6                	lw	t2,80(sp)
20013a82:	4436                	lw	s0,76(sp)
20013a84:	4526                	lw	a0,72(sp)
20013a86:	4596                	lw	a1,68(sp)
20013a88:	4606                	lw	a2,64(sp)
20013a8a:	56f2                	lw	a3,60(sp)
20013a8c:	5762                	lw	a4,56(sp)
20013a8e:	57d2                	lw	a5,52(sp)
20013a90:	5842                	lw	a6,48(sp)
20013a92:	58b2                	lw	a7,44(sp)
20013a94:	5e22                	lw	t3,40(sp)
20013a96:	5e92                	lw	t4,36(sp)
20013a98:	5f02                	lw	t5,32(sp)
20013a9a:	4ff2                	lw	t6,28(sp)
20013a9c:	6125                	addi	sp,sp,96
20013a9e:	30200073          	mret

20013aa2 <__metal_default_beu_handler>:
__metal_default_beu_handler():
/home/nicoladgg/wsFreedomStudio/sifive_hifive1_revb_hello/freedom-metal/src/drivers/riscv_cpu.c:152
20013aa2:	1101                	addi	sp,sp,-32
20013aa4:	ce22                	sw	s0,28(sp)
20013aa6:	1000                	addi	s0,sp,32
20013aa8:	fea42623          	sw	a0,-20(s0)
20013aac:	feb42423          	sw	a1,-24(s0)
20013ab0:	0001                	nop
20013ab2:	4472                	lw	s0,28(sp)
20013ab4:	6105                	addi	sp,sp,32
20013ab6:	8082                	ret

20013ab8 <__metal_default_timer_handler>:
__metal_default_timer_handler():
/home/nicoladgg/wsFreedomStudio/sifive_hifive1_revb_hello/freedom-metal/src/drivers/riscv_cpu.c:154
20013ab8:	7179                	addi	sp,sp,-48
20013aba:	d606                	sw	ra,44(sp)
20013abc:	d422                	sw	s0,40(sp)
20013abe:	1800                	addi	s0,sp,48
20013ac0:	fca42e23          	sw	a0,-36(s0)
20013ac4:	fcb42c23          	sw	a1,-40(s0)
/home/nicoladgg/wsFreedomStudio/sifive_hifive1_revb_hello/freedom-metal/src/drivers/riscv_cpu.c:155
20013ac8:	397d                	jal	20013786 <__metal_myhart_id>
20013aca:	87aa                	mv	a5,a0
20013acc:	853e                	mv	a0,a5
20013ace:	3171                	jal	2001375a <__metal_driver_cpu_get>
20013ad0:	fea42623          	sw	a0,-20(s0)
/home/nicoladgg/wsFreedomStudio/sifive_hifive1_revb_hello/freedom-metal/src/drivers/riscv_cpu.c:156
20013ad4:	fec42503          	lw	a0,-20(s0)
20013ad8:	27e010ef          	jal	ra,20014d56 <__metal_driver_cpu_mtime_get>
20013adc:	fea42023          	sw	a0,-32(s0)
20013ae0:	feb42223          	sw	a1,-28(s0)
/home/nicoladgg/wsFreedomStudio/sifive_hifive1_revb_hello/freedom-metal/src/drivers/riscv_cpu.c:159
20013ae4:	fe042703          	lw	a4,-32(s0)
20013ae8:	fe442783          	lw	a5,-28(s0)
20013aec:	4529                	li	a0,10
20013aee:	4581                	li	a1,0
20013af0:	00a70633          	add	a2,a4,a0
20013af4:	8832                	mv	a6,a2
20013af6:	00e83833          	sltu	a6,a6,a4
20013afa:	00b786b3          	add	a3,a5,a1
20013afe:	00d807b3          	add	a5,a6,a3
20013b02:	86be                	mv	a3,a5
20013b04:	8732                	mv	a4,a2
20013b06:	87b6                	mv	a5,a3
20013b08:	85ba                	mv	a1,a4
20013b0a:	863e                	mv	a2,a5
20013b0c:	fec42503          	lw	a0,-20(s0)
20013b10:	2ac010ef          	jal	ra,20014dbc <__metal_driver_cpu_mtimecmp_set>
/home/nicoladgg/wsFreedomStudio/sifive_hifive1_revb_hello/freedom-metal/src/drivers/riscv_cpu.c:160
20013b14:	0001                	nop
20013b16:	50b2                	lw	ra,44(sp)
20013b18:	5422                	lw	s0,40(sp)
20013b1a:	6145                	addi	sp,sp,48
20013b1c:	8082                	ret
	...

20013b80 <__metal_exception_handler>:
__metal_exception_handler():
/home/nicoladgg/wsFreedomStudio/sifive_hifive1_revb_hello/freedom-metal/src/drivers/riscv_cpu.c:169
20013b80:	7119                	addi	sp,sp,-128
20013b82:	de86                	sw	ra,124(sp)
20013b84:	dc96                	sw	t0,120(sp)
20013b86:	da9a                	sw	t1,116(sp)
20013b88:	d89e                	sw	t2,112(sp)
20013b8a:	d6a2                	sw	s0,108(sp)
20013b8c:	d4aa                	sw	a0,104(sp)
20013b8e:	d2ae                	sw	a1,100(sp)
20013b90:	d0b2                	sw	a2,96(sp)
20013b92:	ceb6                	sw	a3,92(sp)
20013b94:	ccba                	sw	a4,88(sp)
20013b96:	cabe                	sw	a5,84(sp)
20013b98:	c8c2                	sw	a6,80(sp)
20013b9a:	c6c6                	sw	a7,76(sp)
20013b9c:	c4f2                	sw	t3,72(sp)
20013b9e:	c2f6                	sw	t4,68(sp)
20013ba0:	c0fa                	sw	t5,64(sp)
20013ba2:	de7e                	sw	t6,60(sp)
20013ba4:	0100                	addi	s0,sp,128
/home/nicoladgg/wsFreedomStudio/sifive_hifive1_revb_hello/freedom-metal/src/drivers/riscv_cpu.c:174
20013ba6:	36c5                	jal	20013786 <__metal_myhart_id>
20013ba8:	872a                	mv	a4,a0
20013baa:	070a                	slli	a4,a4,0x2
20013bac:	81018793          	addi	a5,gp,-2032 # 80000498 <__metal_cpu_table>
20013bb0:	97ba                	add	a5,a5,a4
20013bb2:	439c                	lw	a5,0(a5)
20013bb4:	faf42623          	sw	a5,-84(s0)
/home/nicoladgg/wsFreedomStudio/sifive_hifive1_revb_hello/freedom-metal/src/drivers/riscv_cpu.c:176
20013bb8:	342027f3          	csrr	a5,mcause
20013bbc:	faf42423          	sw	a5,-88(s0)
/home/nicoladgg/wsFreedomStudio/sifive_hifive1_revb_hello/freedom-metal/src/drivers/riscv_cpu.c:177
20013bc0:	341027f3          	csrr	a5,mepc
20013bc4:	faf42223          	sw	a5,-92(s0)
/home/nicoladgg/wsFreedomStudio/sifive_hifive1_revb_hello/freedom-metal/src/drivers/riscv_cpu.c:178
20013bc8:	343027f3          	csrr	a5,mtval
20013bcc:	faf42023          	sw	a5,-96(s0)
/home/nicoladgg/wsFreedomStudio/sifive_hifive1_revb_hello/freedom-metal/src/drivers/riscv_cpu.c:179
20013bd0:	305027f3          	csrr	a5,mtvec
20013bd4:	f8f42e23          	sw	a5,-100(s0)
/home/nicoladgg/wsFreedomStudio/sifive_hifive1_revb_hello/freedom-metal/src/drivers/riscv_cpu.c:181
20013bd8:	fac42783          	lw	a5,-84(s0)
20013bdc:	cbf5                	beqz	a5,20013cd0 <__metal_exception_handler+0x150>
/home/nicoladgg/wsFreedomStudio/sifive_hifive1_revb_hello/freedom-metal/src/drivers/riscv_cpu.c:183
20013bde:	fac42503          	lw	a0,-84(s0)
20013be2:	362d                	jal	2001370c <__metal_driver_cpu_interrupt_controller>
20013be4:	f8a42c23          	sw	a0,-104(s0)
/home/nicoladgg/wsFreedomStudio/sifive_hifive1_revb_hello/freedom-metal/src/drivers/riscv_cpu.c:184
20013be8:	fa842783          	lw	a5,-88(s0)
20013bec:	3ff7f793          	andi	a5,a5,1023
20013bf0:	f8f42a23          	sw	a5,-108(s0)
/home/nicoladgg/wsFreedomStudio/sifive_hifive1_revb_hello/freedom-metal/src/drivers/riscv_cpu.c:185
20013bf4:	fa842783          	lw	a5,-88(s0)
20013bf8:	0a07de63          	bgez	a5,20013cb4 <__metal_exception_handler+0x134>
/home/nicoladgg/wsFreedomStudio/sifive_hifive1_revb_hello/freedom-metal/src/drivers/riscv_cpu.c:186
20013bfc:	f9442703          	lw	a4,-108(s0)
20013c00:	08000793          	li	a5,128
20013c04:	02f71263          	bne	a4,a5,20013c28 <__metal_exception_handler+0xa8>
/home/nicoladgg/wsFreedomStudio/sifive_hifive1_revb_hello/freedom-metal/src/drivers/riscv_cpu.c:187
20013c08:	f9842783          	lw	a5,-104(s0)
20013c0c:	3987a783          	lw	a5,920(a5)
20013c10:	f8f42623          	sw	a5,-116(s0)
/home/nicoladgg/wsFreedomStudio/sifive_hifive1_revb_hello/freedom-metal/src/drivers/riscv_cpu.c:188
20013c14:	f9842783          	lw	a5,-104(s0)
20013c18:	3907a783          	lw	a5,912(a5)
20013c1c:	f8c42583          	lw	a1,-116(s0)
20013c20:	f9442503          	lw	a0,-108(s0)
20013c24:	9782                	jalr	a5
/home/nicoladgg/wsFreedomStudio/sifive_hifive1_revb_hello/freedom-metal/src/drivers/riscv_cpu.c:189
20013c26:	a06d                	j	20013cd0 <__metal_exception_handler+0x150>
/home/nicoladgg/wsFreedomStudio/sifive_hifive1_revb_hello/freedom-metal/src/drivers/riscv_cpu.c:191
20013c28:	f9442703          	lw	a4,-108(s0)
20013c2c:	47ad                	li	a5,11
20013c2e:	00e7d763          	bge	a5,a4,20013c3c <__metal_exception_handler+0xbc>
/home/nicoladgg/wsFreedomStudio/sifive_hifive1_revb_hello/freedom-metal/src/drivers/riscv_cpu.c:192 (discriminator 1)
20013c32:	f9c42783          	lw	a5,-100(s0)
20013c36:	03f7f793          	andi	a5,a5,63
/home/nicoladgg/wsFreedomStudio/sifive_hifive1_revb_hello/freedom-metal/src/drivers/riscv_cpu.c:191 (discriminator 1)
20013c3a:	ef9d                	bnez	a5,20013c78 <__metal_exception_handler+0xf8>
/home/nicoladgg/wsFreedomStudio/sifive_hifive1_revb_hello/freedom-metal/src/drivers/riscv_cpu.c:193
20013c3c:	f9842683          	lw	a3,-104(s0)
20013c40:	f9442703          	lw	a4,-108(s0)
20013c44:	87ba                	mv	a5,a4
20013c46:	0786                	slli	a5,a5,0x1
20013c48:	97ba                	add	a5,a5,a4
20013c4a:	078e                	slli	a5,a5,0x3
20013c4c:	97b6                	add	a5,a5,a3
20013c4e:	0987a783          	lw	a5,152(a5)
20013c52:	f8f42623          	sw	a5,-116(s0)
/home/nicoladgg/wsFreedomStudio/sifive_hifive1_revb_hello/freedom-metal/src/drivers/riscv_cpu.c:194
20013c56:	f9842683          	lw	a3,-104(s0)
20013c5a:	f9442703          	lw	a4,-108(s0)
20013c5e:	87ba                	mv	a5,a4
20013c60:	0786                	slli	a5,a5,0x1
20013c62:	97ba                	add	a5,a5,a4
20013c64:	078e                	slli	a5,a5,0x3
20013c66:	97b6                	add	a5,a5,a3
20013c68:	0907a783          	lw	a5,144(a5)
20013c6c:	f8c42583          	lw	a1,-116(s0)
20013c70:	f9442503          	lw	a0,-108(s0)
20013c74:	9782                	jalr	a5
/home/nicoladgg/wsFreedomStudio/sifive_hifive1_revb_hello/freedom-metal/src/drivers/riscv_cpu.c:195
20013c76:	a8a9                	j	20013cd0 <__metal_exception_handler+0x150>
/home/nicoladgg/wsFreedomStudio/sifive_hifive1_revb_hello/freedom-metal/src/drivers/riscv_cpu.c:197
20013c78:	f9c42783          	lw	a5,-100(s0)
20013c7c:	03f7f713          	andi	a4,a5,63
20013c80:	4789                	li	a5,2
20013c82:	04f71763          	bne	a4,a5,20013cd0 <__metal_exception_handler+0x150>
/home/nicoladgg/wsFreedomStudio/sifive_hifive1_revb_hello/freedom-metal/src/drivers/riscv_cpu.c:201
20013c86:	307027f3          	csrr	a5,mtvt
20013c8a:	f8f42823          	sw	a5,-112(s0)
/home/nicoladgg/wsFreedomStudio/sifive_hifive1_revb_hello/freedom-metal/src/drivers/riscv_cpu.c:202
20013c8e:	f9842783          	lw	a5,-104(s0)
20013c92:	0dc7a783          	lw	a5,220(a5)
20013c96:	f8f42623          	sw	a5,-116(s0)
/home/nicoladgg/wsFreedomStudio/sifive_hifive1_revb_hello/freedom-metal/src/drivers/riscv_cpu.c:203
20013c9a:	f9042783          	lw	a5,-112(s0)
20013c9e:	439c                	lw	a5,0(a5)
20013ca0:	f8f42423          	sw	a5,-120(s0)
/home/nicoladgg/wsFreedomStudio/sifive_hifive1_revb_hello/freedom-metal/src/drivers/riscv_cpu.c:204
20013ca4:	f8842783          	lw	a5,-120(s0)
20013ca8:	f8c42583          	lw	a1,-116(s0)
20013cac:	f9442503          	lw	a0,-108(s0)
20013cb0:	9782                	jalr	a5
/home/nicoladgg/wsFreedomStudio/sifive_hifive1_revb_hello/freedom-metal/src/drivers/riscv_cpu.c:205
20013cb2:	a839                	j	20013cd0 <__metal_exception_handler+0x150>
/home/nicoladgg/wsFreedomStudio/sifive_hifive1_revb_hello/freedom-metal/src/drivers/riscv_cpu.c:208
20013cb4:	f9842703          	lw	a4,-104(s0)
20013cb8:	f9442783          	lw	a5,-108(s0)
20013cbc:	0e878793          	addi	a5,a5,232
20013cc0:	078a                	slli	a5,a5,0x2
20013cc2:	97ba                	add	a5,a5,a4
20013cc4:	439c                	lw	a5,0(a5)
20013cc6:	f9442583          	lw	a1,-108(s0)
20013cca:	fac42503          	lw	a0,-84(s0)
20013cce:	9782                	jalr	a5
/home/nicoladgg/wsFreedomStudio/sifive_hifive1_revb_hello/freedom-metal/src/drivers/riscv_cpu.c:211
20013cd0:	50f6                	lw	ra,124(sp)
20013cd2:	52e6                	lw	t0,120(sp)
20013cd4:	5356                	lw	t1,116(sp)
20013cd6:	53c6                	lw	t2,112(sp)
20013cd8:	5436                	lw	s0,108(sp)
20013cda:	5526                	lw	a0,104(sp)
20013cdc:	5596                	lw	a1,100(sp)
20013cde:	5606                	lw	a2,96(sp)
20013ce0:	46f6                	lw	a3,92(sp)
20013ce2:	4766                	lw	a4,88(sp)
20013ce4:	47d6                	lw	a5,84(sp)
20013ce6:	4846                	lw	a6,80(sp)
20013ce8:	48b6                	lw	a7,76(sp)
20013cea:	4e26                	lw	t3,72(sp)
20013cec:	4e96                	lw	t4,68(sp)
20013cee:	4f06                	lw	t5,64(sp)
20013cf0:	5ff2                	lw	t6,60(sp)
20013cf2:	6109                	addi	sp,sp,128
20013cf4:	30200073          	mret
	...

20013d72 <metal_lc0_interrupt_vector_handler>:
metal_lc0_interrupt_vector_handler():
/home/nicoladgg/wsFreedomStudio/sifive_hifive1_revb_hello/freedom-metal/src/drivers/riscv_cpu.c:214
20013d72:	711d                	addi	sp,sp,-96
20013d74:	ce86                	sw	ra,92(sp)
20013d76:	cc96                	sw	t0,88(sp)
20013d78:	ca9a                	sw	t1,84(sp)
20013d7a:	c89e                	sw	t2,80(sp)
20013d7c:	c6a2                	sw	s0,76(sp)
20013d7e:	c4aa                	sw	a0,72(sp)
20013d80:	c2ae                	sw	a1,68(sp)
20013d82:	c0b2                	sw	a2,64(sp)
20013d84:	de36                	sw	a3,60(sp)
20013d86:	dc3a                	sw	a4,56(sp)
20013d88:	da3e                	sw	a5,52(sp)
20013d8a:	d842                	sw	a6,48(sp)
20013d8c:	d646                	sw	a7,44(sp)
20013d8e:	d472                	sw	t3,40(sp)
20013d90:	d276                	sw	t4,36(sp)
20013d92:	d07a                	sw	t5,32(sp)
20013d94:	ce7e                	sw	t6,28(sp)
20013d96:	1080                	addi	s0,sp,96
/home/nicoladgg/wsFreedomStudio/sifive_hifive1_revb_hello/freedom-metal/src/drivers/riscv_cpu.c:215
20013d98:	9efff0ef          	jal	ra,20013786 <__metal_myhart_id>
20013d9c:	872a                	mv	a4,a0
20013d9e:	070a                	slli	a4,a4,0x2
20013da0:	81018793          	addi	a5,gp,-2032 # 80000498 <__metal_cpu_table>
20013da4:	97ba                	add	a5,a5,a4
20013da6:	439c                	lw	a5,0(a5)
20013da8:	faf42623          	sw	a5,-84(s0)
20013dac:	fac42783          	lw	a5,-84(s0)
20013db0:	c78d                	beqz	a5,20013dda <metal_lc0_interrupt_vector_handler+0x68>
/home/nicoladgg/wsFreedomStudio/sifive_hifive1_revb_hello/freedom-metal/src/drivers/riscv_cpu.c:215 (discriminator 1)
20013db2:	fac42503          	lw	a0,-84(s0)
20013db6:	957ff0ef          	jal	ra,2001370c <__metal_driver_cpu_interrupt_controller>
20013dba:	faa42423          	sw	a0,-88(s0)
20013dbe:	fa842783          	lw	a5,-88(s0)
20013dc2:	2187a783          	lw	a5,536(a5)
20013dc6:	faf42223          	sw	a5,-92(s0)
20013dca:	fa842783          	lw	a5,-88(s0)
20013dce:	2107a783          	lw	a5,528(a5)
20013dd2:	fa442583          	lw	a1,-92(s0)
20013dd6:	4541                	li	a0,16
20013dd8:	9782                	jalr	a5
/home/nicoladgg/wsFreedomStudio/sifive_hifive1_revb_hello/freedom-metal/src/drivers/riscv_cpu.c:216
20013dda:	0001                	nop
20013ddc:	40f6                	lw	ra,92(sp)
20013dde:	42e6                	lw	t0,88(sp)
20013de0:	4356                	lw	t1,84(sp)
20013de2:	43c6                	lw	t2,80(sp)
20013de4:	4436                	lw	s0,76(sp)
20013de6:	4526                	lw	a0,72(sp)
20013de8:	4596                	lw	a1,68(sp)
20013dea:	4606                	lw	a2,64(sp)
20013dec:	56f2                	lw	a3,60(sp)
20013dee:	5762                	lw	a4,56(sp)
20013df0:	57d2                	lw	a5,52(sp)
20013df2:	5842                	lw	a6,48(sp)
20013df4:	58b2                	lw	a7,44(sp)
20013df6:	5e22                	lw	t3,40(sp)
20013df8:	5e92                	lw	t4,36(sp)
20013dfa:	5f02                	lw	t5,32(sp)
20013dfc:	4ff2                	lw	t6,28(sp)
20013dfe:	6125                	addi	sp,sp,96
20013e00:	30200073          	mret

20013e04 <metal_lc1_interrupt_vector_handler>:
metal_lc1_interrupt_vector_handler():
/home/nicoladgg/wsFreedomStudio/sifive_hifive1_revb_hello/freedom-metal/src/drivers/riscv_cpu.c:219
20013e04:	711d                	addi	sp,sp,-96
20013e06:	ce86                	sw	ra,92(sp)
20013e08:	cc96                	sw	t0,88(sp)
20013e0a:	ca9a                	sw	t1,84(sp)
20013e0c:	c89e                	sw	t2,80(sp)
20013e0e:	c6a2                	sw	s0,76(sp)
20013e10:	c4aa                	sw	a0,72(sp)
20013e12:	c2ae                	sw	a1,68(sp)
20013e14:	c0b2                	sw	a2,64(sp)
20013e16:	de36                	sw	a3,60(sp)
20013e18:	dc3a                	sw	a4,56(sp)
20013e1a:	da3e                	sw	a5,52(sp)
20013e1c:	d842                	sw	a6,48(sp)
20013e1e:	d646                	sw	a7,44(sp)
20013e20:	d472                	sw	t3,40(sp)
20013e22:	d276                	sw	t4,36(sp)
20013e24:	d07a                	sw	t5,32(sp)
20013e26:	ce7e                	sw	t6,28(sp)
20013e28:	1080                	addi	s0,sp,96
/home/nicoladgg/wsFreedomStudio/sifive_hifive1_revb_hello/freedom-metal/src/drivers/riscv_cpu.c:220
20013e2a:	95dff0ef          	jal	ra,20013786 <__metal_myhart_id>
20013e2e:	872a                	mv	a4,a0
20013e30:	070a                	slli	a4,a4,0x2
20013e32:	81018793          	addi	a5,gp,-2032 # 80000498 <__metal_cpu_table>
20013e36:	97ba                	add	a5,a5,a4
20013e38:	439c                	lw	a5,0(a5)
20013e3a:	faf42623          	sw	a5,-84(s0)
20013e3e:	fac42783          	lw	a5,-84(s0)
20013e42:	c78d                	beqz	a5,20013e6c <metal_lc1_interrupt_vector_handler+0x68>
/home/nicoladgg/wsFreedomStudio/sifive_hifive1_revb_hello/freedom-metal/src/drivers/riscv_cpu.c:220 (discriminator 1)
20013e44:	fac42503          	lw	a0,-84(s0)
20013e48:	8c5ff0ef          	jal	ra,2001370c <__metal_driver_cpu_interrupt_controller>
20013e4c:	faa42423          	sw	a0,-88(s0)
20013e50:	fa842783          	lw	a5,-88(s0)
20013e54:	2307a783          	lw	a5,560(a5)
20013e58:	faf42223          	sw	a5,-92(s0)
20013e5c:	fa842783          	lw	a5,-88(s0)
20013e60:	2287a783          	lw	a5,552(a5)
20013e64:	fa442583          	lw	a1,-92(s0)
20013e68:	4545                	li	a0,17
20013e6a:	9782                	jalr	a5
/home/nicoladgg/wsFreedomStudio/sifive_hifive1_revb_hello/freedom-metal/src/drivers/riscv_cpu.c:221
20013e6c:	0001                	nop
20013e6e:	40f6                	lw	ra,92(sp)
20013e70:	42e6                	lw	t0,88(sp)
20013e72:	4356                	lw	t1,84(sp)
20013e74:	43c6                	lw	t2,80(sp)
20013e76:	4436                	lw	s0,76(sp)
20013e78:	4526                	lw	a0,72(sp)
20013e7a:	4596                	lw	a1,68(sp)
20013e7c:	4606                	lw	a2,64(sp)
20013e7e:	56f2                	lw	a3,60(sp)
20013e80:	5762                	lw	a4,56(sp)
20013e82:	57d2                	lw	a5,52(sp)
20013e84:	5842                	lw	a6,48(sp)
20013e86:	58b2                	lw	a7,44(sp)
20013e88:	5e22                	lw	t3,40(sp)
20013e8a:	5e92                	lw	t4,36(sp)
20013e8c:	5f02                	lw	t5,32(sp)
20013e8e:	4ff2                	lw	t6,28(sp)
20013e90:	6125                	addi	sp,sp,96
20013e92:	30200073          	mret

20013e96 <metal_lc2_interrupt_vector_handler>:
metal_lc2_interrupt_vector_handler():
/home/nicoladgg/wsFreedomStudio/sifive_hifive1_revb_hello/freedom-metal/src/drivers/riscv_cpu.c:224
20013e96:	711d                	addi	sp,sp,-96
20013e98:	ce86                	sw	ra,92(sp)
20013e9a:	cc96                	sw	t0,88(sp)
20013e9c:	ca9a                	sw	t1,84(sp)
20013e9e:	c89e                	sw	t2,80(sp)
20013ea0:	c6a2                	sw	s0,76(sp)
20013ea2:	c4aa                	sw	a0,72(sp)
20013ea4:	c2ae                	sw	a1,68(sp)
20013ea6:	c0b2                	sw	a2,64(sp)
20013ea8:	de36                	sw	a3,60(sp)
20013eaa:	dc3a                	sw	a4,56(sp)
20013eac:	da3e                	sw	a5,52(sp)
20013eae:	d842                	sw	a6,48(sp)
20013eb0:	d646                	sw	a7,44(sp)
20013eb2:	d472                	sw	t3,40(sp)
20013eb4:	d276                	sw	t4,36(sp)
20013eb6:	d07a                	sw	t5,32(sp)
20013eb8:	ce7e                	sw	t6,28(sp)
20013eba:	1080                	addi	s0,sp,96
/home/nicoladgg/wsFreedomStudio/sifive_hifive1_revb_hello/freedom-metal/src/drivers/riscv_cpu.c:225
20013ebc:	8cbff0ef          	jal	ra,20013786 <__metal_myhart_id>
20013ec0:	872a                	mv	a4,a0
20013ec2:	070a                	slli	a4,a4,0x2
20013ec4:	81018793          	addi	a5,gp,-2032 # 80000498 <__metal_cpu_table>
20013ec8:	97ba                	add	a5,a5,a4
20013eca:	439c                	lw	a5,0(a5)
20013ecc:	faf42623          	sw	a5,-84(s0)
20013ed0:	fac42783          	lw	a5,-84(s0)
20013ed4:	c78d                	beqz	a5,20013efe <metal_lc2_interrupt_vector_handler+0x68>
/home/nicoladgg/wsFreedomStudio/sifive_hifive1_revb_hello/freedom-metal/src/drivers/riscv_cpu.c:225 (discriminator 1)
20013ed6:	fac42503          	lw	a0,-84(s0)
20013eda:	833ff0ef          	jal	ra,2001370c <__metal_driver_cpu_interrupt_controller>
20013ede:	faa42423          	sw	a0,-88(s0)
20013ee2:	fa842783          	lw	a5,-88(s0)
20013ee6:	2487a783          	lw	a5,584(a5)
20013eea:	faf42223          	sw	a5,-92(s0)
20013eee:	fa842783          	lw	a5,-88(s0)
20013ef2:	2407a783          	lw	a5,576(a5)
20013ef6:	fa442583          	lw	a1,-92(s0)
20013efa:	4549                	li	a0,18
20013efc:	9782                	jalr	a5
/home/nicoladgg/wsFreedomStudio/sifive_hifive1_revb_hello/freedom-metal/src/drivers/riscv_cpu.c:226
20013efe:	0001                	nop
20013f00:	40f6                	lw	ra,92(sp)
20013f02:	42e6                	lw	t0,88(sp)
20013f04:	4356                	lw	t1,84(sp)
20013f06:	43c6                	lw	t2,80(sp)
20013f08:	4436                	lw	s0,76(sp)
20013f0a:	4526                	lw	a0,72(sp)
20013f0c:	4596                	lw	a1,68(sp)
20013f0e:	4606                	lw	a2,64(sp)
20013f10:	56f2                	lw	a3,60(sp)
20013f12:	5762                	lw	a4,56(sp)
20013f14:	57d2                	lw	a5,52(sp)
20013f16:	5842                	lw	a6,48(sp)
20013f18:	58b2                	lw	a7,44(sp)
20013f1a:	5e22                	lw	t3,40(sp)
20013f1c:	5e92                	lw	t4,36(sp)
20013f1e:	5f02                	lw	t5,32(sp)
20013f20:	4ff2                	lw	t6,28(sp)
20013f22:	6125                	addi	sp,sp,96
20013f24:	30200073          	mret

20013f28 <metal_lc3_interrupt_vector_handler>:
metal_lc3_interrupt_vector_handler():
/home/nicoladgg/wsFreedomStudio/sifive_hifive1_revb_hello/freedom-metal/src/drivers/riscv_cpu.c:229
20013f28:	711d                	addi	sp,sp,-96
20013f2a:	ce86                	sw	ra,92(sp)
20013f2c:	cc96                	sw	t0,88(sp)
20013f2e:	ca9a                	sw	t1,84(sp)
20013f30:	c89e                	sw	t2,80(sp)
20013f32:	c6a2                	sw	s0,76(sp)
20013f34:	c4aa                	sw	a0,72(sp)
20013f36:	c2ae                	sw	a1,68(sp)
20013f38:	c0b2                	sw	a2,64(sp)
20013f3a:	de36                	sw	a3,60(sp)
20013f3c:	dc3a                	sw	a4,56(sp)
20013f3e:	da3e                	sw	a5,52(sp)
20013f40:	d842                	sw	a6,48(sp)
20013f42:	d646                	sw	a7,44(sp)
20013f44:	d472                	sw	t3,40(sp)
20013f46:	d276                	sw	t4,36(sp)
20013f48:	d07a                	sw	t5,32(sp)
20013f4a:	ce7e                	sw	t6,28(sp)
20013f4c:	1080                	addi	s0,sp,96
/home/nicoladgg/wsFreedomStudio/sifive_hifive1_revb_hello/freedom-metal/src/drivers/riscv_cpu.c:230
20013f4e:	839ff0ef          	jal	ra,20013786 <__metal_myhart_id>
20013f52:	872a                	mv	a4,a0
20013f54:	070a                	slli	a4,a4,0x2
20013f56:	81018793          	addi	a5,gp,-2032 # 80000498 <__metal_cpu_table>
20013f5a:	97ba                	add	a5,a5,a4
20013f5c:	439c                	lw	a5,0(a5)
20013f5e:	faf42623          	sw	a5,-84(s0)
20013f62:	fac42783          	lw	a5,-84(s0)
20013f66:	c78d                	beqz	a5,20013f90 <metal_lc3_interrupt_vector_handler+0x68>
/home/nicoladgg/wsFreedomStudio/sifive_hifive1_revb_hello/freedom-metal/src/drivers/riscv_cpu.c:230 (discriminator 1)
20013f68:	fac42503          	lw	a0,-84(s0)
20013f6c:	fa0ff0ef          	jal	ra,2001370c <__metal_driver_cpu_interrupt_controller>
20013f70:	faa42423          	sw	a0,-88(s0)
20013f74:	fa842783          	lw	a5,-88(s0)
20013f78:	2607a783          	lw	a5,608(a5)
20013f7c:	faf42223          	sw	a5,-92(s0)
20013f80:	fa842783          	lw	a5,-88(s0)
20013f84:	2587a783          	lw	a5,600(a5)
20013f88:	fa442583          	lw	a1,-92(s0)
20013f8c:	454d                	li	a0,19
20013f8e:	9782                	jalr	a5
/home/nicoladgg/wsFreedomStudio/sifive_hifive1_revb_hello/freedom-metal/src/drivers/riscv_cpu.c:231
20013f90:	0001                	nop
20013f92:	40f6                	lw	ra,92(sp)
20013f94:	42e6                	lw	t0,88(sp)
20013f96:	4356                	lw	t1,84(sp)
20013f98:	43c6                	lw	t2,80(sp)
20013f9a:	4436                	lw	s0,76(sp)
20013f9c:	4526                	lw	a0,72(sp)
20013f9e:	4596                	lw	a1,68(sp)
20013fa0:	4606                	lw	a2,64(sp)
20013fa2:	56f2                	lw	a3,60(sp)
20013fa4:	5762                	lw	a4,56(sp)
20013fa6:	57d2                	lw	a5,52(sp)
20013fa8:	5842                	lw	a6,48(sp)
20013faa:	58b2                	lw	a7,44(sp)
20013fac:	5e22                	lw	t3,40(sp)
20013fae:	5e92                	lw	t4,36(sp)
20013fb0:	5f02                	lw	t5,32(sp)
20013fb2:	4ff2                	lw	t6,28(sp)
20013fb4:	6125                	addi	sp,sp,96
20013fb6:	30200073          	mret

20013fba <metal_lc4_interrupt_vector_handler>:
metal_lc4_interrupt_vector_handler():
/home/nicoladgg/wsFreedomStudio/sifive_hifive1_revb_hello/freedom-metal/src/drivers/riscv_cpu.c:234
20013fba:	711d                	addi	sp,sp,-96
20013fbc:	ce86                	sw	ra,92(sp)
20013fbe:	cc96                	sw	t0,88(sp)
20013fc0:	ca9a                	sw	t1,84(sp)
20013fc2:	c89e                	sw	t2,80(sp)
20013fc4:	c6a2                	sw	s0,76(sp)
20013fc6:	c4aa                	sw	a0,72(sp)
20013fc8:	c2ae                	sw	a1,68(sp)
20013fca:	c0b2                	sw	a2,64(sp)
20013fcc:	de36                	sw	a3,60(sp)
20013fce:	dc3a                	sw	a4,56(sp)
20013fd0:	da3e                	sw	a5,52(sp)
20013fd2:	d842                	sw	a6,48(sp)
20013fd4:	d646                	sw	a7,44(sp)
20013fd6:	d472                	sw	t3,40(sp)
20013fd8:	d276                	sw	t4,36(sp)
20013fda:	d07a                	sw	t5,32(sp)
20013fdc:	ce7e                	sw	t6,28(sp)
20013fde:	1080                	addi	s0,sp,96
/home/nicoladgg/wsFreedomStudio/sifive_hifive1_revb_hello/freedom-metal/src/drivers/riscv_cpu.c:235
20013fe0:	fa6ff0ef          	jal	ra,20013786 <__metal_myhart_id>
20013fe4:	872a                	mv	a4,a0
20013fe6:	070a                	slli	a4,a4,0x2
20013fe8:	81018793          	addi	a5,gp,-2032 # 80000498 <__metal_cpu_table>
20013fec:	97ba                	add	a5,a5,a4
20013fee:	439c                	lw	a5,0(a5)
20013ff0:	faf42623          	sw	a5,-84(s0)
20013ff4:	fac42783          	lw	a5,-84(s0)
20013ff8:	c78d                	beqz	a5,20014022 <metal_lc4_interrupt_vector_handler+0x68>
/home/nicoladgg/wsFreedomStudio/sifive_hifive1_revb_hello/freedom-metal/src/drivers/riscv_cpu.c:235 (discriminator 1)
20013ffa:	fac42503          	lw	a0,-84(s0)
20013ffe:	f0eff0ef          	jal	ra,2001370c <__metal_driver_cpu_interrupt_controller>
20014002:	faa42423          	sw	a0,-88(s0)
20014006:	fa842783          	lw	a5,-88(s0)
2001400a:	2787a783          	lw	a5,632(a5)
2001400e:	faf42223          	sw	a5,-92(s0)
20014012:	fa842783          	lw	a5,-88(s0)
20014016:	2707a783          	lw	a5,624(a5)
2001401a:	fa442583          	lw	a1,-92(s0)
2001401e:	4551                	li	a0,20
20014020:	9782                	jalr	a5
/home/nicoladgg/wsFreedomStudio/sifive_hifive1_revb_hello/freedom-metal/src/drivers/riscv_cpu.c:236
20014022:	0001                	nop
20014024:	40f6                	lw	ra,92(sp)
20014026:	42e6                	lw	t0,88(sp)
20014028:	4356                	lw	t1,84(sp)
2001402a:	43c6                	lw	t2,80(sp)
2001402c:	4436                	lw	s0,76(sp)
2001402e:	4526                	lw	a0,72(sp)
20014030:	4596                	lw	a1,68(sp)
20014032:	4606                	lw	a2,64(sp)
20014034:	56f2                	lw	a3,60(sp)
20014036:	5762                	lw	a4,56(sp)
20014038:	57d2                	lw	a5,52(sp)
2001403a:	5842                	lw	a6,48(sp)
2001403c:	58b2                	lw	a7,44(sp)
2001403e:	5e22                	lw	t3,40(sp)
20014040:	5e92                	lw	t4,36(sp)
20014042:	5f02                	lw	t5,32(sp)
20014044:	4ff2                	lw	t6,28(sp)
20014046:	6125                	addi	sp,sp,96
20014048:	30200073          	mret

2001404c <metal_lc5_interrupt_vector_handler>:
metal_lc5_interrupt_vector_handler():
/home/nicoladgg/wsFreedomStudio/sifive_hifive1_revb_hello/freedom-metal/src/drivers/riscv_cpu.c:239
2001404c:	711d                	addi	sp,sp,-96
2001404e:	ce86                	sw	ra,92(sp)
20014050:	cc96                	sw	t0,88(sp)
20014052:	ca9a                	sw	t1,84(sp)
20014054:	c89e                	sw	t2,80(sp)
20014056:	c6a2                	sw	s0,76(sp)
20014058:	c4aa                	sw	a0,72(sp)
2001405a:	c2ae                	sw	a1,68(sp)
2001405c:	c0b2                	sw	a2,64(sp)
2001405e:	de36                	sw	a3,60(sp)
20014060:	dc3a                	sw	a4,56(sp)
20014062:	da3e                	sw	a5,52(sp)
20014064:	d842                	sw	a6,48(sp)
20014066:	d646                	sw	a7,44(sp)
20014068:	d472                	sw	t3,40(sp)
2001406a:	d276                	sw	t4,36(sp)
2001406c:	d07a                	sw	t5,32(sp)
2001406e:	ce7e                	sw	t6,28(sp)
20014070:	1080                	addi	s0,sp,96
/home/nicoladgg/wsFreedomStudio/sifive_hifive1_revb_hello/freedom-metal/src/drivers/riscv_cpu.c:240
20014072:	f14ff0ef          	jal	ra,20013786 <__metal_myhart_id>
20014076:	872a                	mv	a4,a0
20014078:	070a                	slli	a4,a4,0x2
2001407a:	81018793          	addi	a5,gp,-2032 # 80000498 <__metal_cpu_table>
2001407e:	97ba                	add	a5,a5,a4
20014080:	439c                	lw	a5,0(a5)
20014082:	faf42623          	sw	a5,-84(s0)
20014086:	fac42783          	lw	a5,-84(s0)
2001408a:	c78d                	beqz	a5,200140b4 <metal_lc5_interrupt_vector_handler+0x68>
/home/nicoladgg/wsFreedomStudio/sifive_hifive1_revb_hello/freedom-metal/src/drivers/riscv_cpu.c:240 (discriminator 1)
2001408c:	fac42503          	lw	a0,-84(s0)
20014090:	e7cff0ef          	jal	ra,2001370c <__metal_driver_cpu_interrupt_controller>
20014094:	faa42423          	sw	a0,-88(s0)
20014098:	fa842783          	lw	a5,-88(s0)
2001409c:	2907a783          	lw	a5,656(a5)
200140a0:	faf42223          	sw	a5,-92(s0)
200140a4:	fa842783          	lw	a5,-88(s0)
200140a8:	2887a783          	lw	a5,648(a5)
200140ac:	fa442583          	lw	a1,-92(s0)
200140b0:	4555                	li	a0,21
200140b2:	9782                	jalr	a5
/home/nicoladgg/wsFreedomStudio/sifive_hifive1_revb_hello/freedom-metal/src/drivers/riscv_cpu.c:241
200140b4:	0001                	nop
200140b6:	40f6                	lw	ra,92(sp)
200140b8:	42e6                	lw	t0,88(sp)
200140ba:	4356                	lw	t1,84(sp)
200140bc:	43c6                	lw	t2,80(sp)
200140be:	4436                	lw	s0,76(sp)
200140c0:	4526                	lw	a0,72(sp)
200140c2:	4596                	lw	a1,68(sp)
200140c4:	4606                	lw	a2,64(sp)
200140c6:	56f2                	lw	a3,60(sp)
200140c8:	5762                	lw	a4,56(sp)
200140ca:	57d2                	lw	a5,52(sp)
200140cc:	5842                	lw	a6,48(sp)
200140ce:	58b2                	lw	a7,44(sp)
200140d0:	5e22                	lw	t3,40(sp)
200140d2:	5e92                	lw	t4,36(sp)
200140d4:	5f02                	lw	t5,32(sp)
200140d6:	4ff2                	lw	t6,28(sp)
200140d8:	6125                	addi	sp,sp,96
200140da:	30200073          	mret

200140de <metal_lc6_interrupt_vector_handler>:
metal_lc6_interrupt_vector_handler():
/home/nicoladgg/wsFreedomStudio/sifive_hifive1_revb_hello/freedom-metal/src/drivers/riscv_cpu.c:244
200140de:	711d                	addi	sp,sp,-96
200140e0:	ce86                	sw	ra,92(sp)
200140e2:	cc96                	sw	t0,88(sp)
200140e4:	ca9a                	sw	t1,84(sp)
200140e6:	c89e                	sw	t2,80(sp)
200140e8:	c6a2                	sw	s0,76(sp)
200140ea:	c4aa                	sw	a0,72(sp)
200140ec:	c2ae                	sw	a1,68(sp)
200140ee:	c0b2                	sw	a2,64(sp)
200140f0:	de36                	sw	a3,60(sp)
200140f2:	dc3a                	sw	a4,56(sp)
200140f4:	da3e                	sw	a5,52(sp)
200140f6:	d842                	sw	a6,48(sp)
200140f8:	d646                	sw	a7,44(sp)
200140fa:	d472                	sw	t3,40(sp)
200140fc:	d276                	sw	t4,36(sp)
200140fe:	d07a                	sw	t5,32(sp)
20014100:	ce7e                	sw	t6,28(sp)
20014102:	1080                	addi	s0,sp,96
/home/nicoladgg/wsFreedomStudio/sifive_hifive1_revb_hello/freedom-metal/src/drivers/riscv_cpu.c:245
20014104:	e82ff0ef          	jal	ra,20013786 <__metal_myhart_id>
20014108:	872a                	mv	a4,a0
2001410a:	070a                	slli	a4,a4,0x2
2001410c:	81018793          	addi	a5,gp,-2032 # 80000498 <__metal_cpu_table>
20014110:	97ba                	add	a5,a5,a4
20014112:	439c                	lw	a5,0(a5)
20014114:	faf42623          	sw	a5,-84(s0)
20014118:	fac42783          	lw	a5,-84(s0)
2001411c:	c78d                	beqz	a5,20014146 <metal_lc6_interrupt_vector_handler+0x68>
/home/nicoladgg/wsFreedomStudio/sifive_hifive1_revb_hello/freedom-metal/src/drivers/riscv_cpu.c:245 (discriminator 1)
2001411e:	fac42503          	lw	a0,-84(s0)
20014122:	deaff0ef          	jal	ra,2001370c <__metal_driver_cpu_interrupt_controller>
20014126:	faa42423          	sw	a0,-88(s0)
2001412a:	fa842783          	lw	a5,-88(s0)
2001412e:	2a87a783          	lw	a5,680(a5)
20014132:	faf42223          	sw	a5,-92(s0)
20014136:	fa842783          	lw	a5,-88(s0)
2001413a:	2a07a783          	lw	a5,672(a5)
2001413e:	fa442583          	lw	a1,-92(s0)
20014142:	4559                	li	a0,22
20014144:	9782                	jalr	a5
/home/nicoladgg/wsFreedomStudio/sifive_hifive1_revb_hello/freedom-metal/src/drivers/riscv_cpu.c:246
20014146:	0001                	nop
20014148:	40f6                	lw	ra,92(sp)
2001414a:	42e6                	lw	t0,88(sp)
2001414c:	4356                	lw	t1,84(sp)
2001414e:	43c6                	lw	t2,80(sp)
20014150:	4436                	lw	s0,76(sp)
20014152:	4526                	lw	a0,72(sp)
20014154:	4596                	lw	a1,68(sp)
20014156:	4606                	lw	a2,64(sp)
20014158:	56f2                	lw	a3,60(sp)
2001415a:	5762                	lw	a4,56(sp)
2001415c:	57d2                	lw	a5,52(sp)
2001415e:	5842                	lw	a6,48(sp)
20014160:	58b2                	lw	a7,44(sp)
20014162:	5e22                	lw	t3,40(sp)
20014164:	5e92                	lw	t4,36(sp)
20014166:	5f02                	lw	t5,32(sp)
20014168:	4ff2                	lw	t6,28(sp)
2001416a:	6125                	addi	sp,sp,96
2001416c:	30200073          	mret

20014170 <metal_lc7_interrupt_vector_handler>:
metal_lc7_interrupt_vector_handler():
/home/nicoladgg/wsFreedomStudio/sifive_hifive1_revb_hello/freedom-metal/src/drivers/riscv_cpu.c:249
20014170:	711d                	addi	sp,sp,-96
20014172:	ce86                	sw	ra,92(sp)
20014174:	cc96                	sw	t0,88(sp)
20014176:	ca9a                	sw	t1,84(sp)
20014178:	c89e                	sw	t2,80(sp)
2001417a:	c6a2                	sw	s0,76(sp)
2001417c:	c4aa                	sw	a0,72(sp)
2001417e:	c2ae                	sw	a1,68(sp)
20014180:	c0b2                	sw	a2,64(sp)
20014182:	de36                	sw	a3,60(sp)
20014184:	dc3a                	sw	a4,56(sp)
20014186:	da3e                	sw	a5,52(sp)
20014188:	d842                	sw	a6,48(sp)
2001418a:	d646                	sw	a7,44(sp)
2001418c:	d472                	sw	t3,40(sp)
2001418e:	d276                	sw	t4,36(sp)
20014190:	d07a                	sw	t5,32(sp)
20014192:	ce7e                	sw	t6,28(sp)
20014194:	1080                	addi	s0,sp,96
/home/nicoladgg/wsFreedomStudio/sifive_hifive1_revb_hello/freedom-metal/src/drivers/riscv_cpu.c:250
20014196:	df0ff0ef          	jal	ra,20013786 <__metal_myhart_id>
2001419a:	872a                	mv	a4,a0
2001419c:	070a                	slli	a4,a4,0x2
2001419e:	81018793          	addi	a5,gp,-2032 # 80000498 <__metal_cpu_table>
200141a2:	97ba                	add	a5,a5,a4
200141a4:	439c                	lw	a5,0(a5)
200141a6:	faf42623          	sw	a5,-84(s0)
200141aa:	fac42783          	lw	a5,-84(s0)
200141ae:	c78d                	beqz	a5,200141d8 <metal_lc7_interrupt_vector_handler+0x68>
/home/nicoladgg/wsFreedomStudio/sifive_hifive1_revb_hello/freedom-metal/src/drivers/riscv_cpu.c:250 (discriminator 1)
200141b0:	fac42503          	lw	a0,-84(s0)
200141b4:	d58ff0ef          	jal	ra,2001370c <__metal_driver_cpu_interrupt_controller>
200141b8:	faa42423          	sw	a0,-88(s0)
200141bc:	fa842783          	lw	a5,-88(s0)
200141c0:	2c07a783          	lw	a5,704(a5)
200141c4:	faf42223          	sw	a5,-92(s0)
200141c8:	fa842783          	lw	a5,-88(s0)
200141cc:	2b87a783          	lw	a5,696(a5)
200141d0:	fa442583          	lw	a1,-92(s0)
200141d4:	455d                	li	a0,23
200141d6:	9782                	jalr	a5
/home/nicoladgg/wsFreedomStudio/sifive_hifive1_revb_hello/freedom-metal/src/drivers/riscv_cpu.c:251
200141d8:	0001                	nop
200141da:	40f6                	lw	ra,92(sp)
200141dc:	42e6                	lw	t0,88(sp)
200141de:	4356                	lw	t1,84(sp)
200141e0:	43c6                	lw	t2,80(sp)
200141e2:	4436                	lw	s0,76(sp)
200141e4:	4526                	lw	a0,72(sp)
200141e6:	4596                	lw	a1,68(sp)
200141e8:	4606                	lw	a2,64(sp)
200141ea:	56f2                	lw	a3,60(sp)
200141ec:	5762                	lw	a4,56(sp)
200141ee:	57d2                	lw	a5,52(sp)
200141f0:	5842                	lw	a6,48(sp)
200141f2:	58b2                	lw	a7,44(sp)
200141f4:	5e22                	lw	t3,40(sp)
200141f6:	5e92                	lw	t4,36(sp)
200141f8:	5f02                	lw	t5,32(sp)
200141fa:	4ff2                	lw	t6,28(sp)
200141fc:	6125                	addi	sp,sp,96
200141fe:	30200073          	mret

20014202 <metal_lc8_interrupt_vector_handler>:
metal_lc8_interrupt_vector_handler():
/home/nicoladgg/wsFreedomStudio/sifive_hifive1_revb_hello/freedom-metal/src/drivers/riscv_cpu.c:254
20014202:	711d                	addi	sp,sp,-96
20014204:	ce86                	sw	ra,92(sp)
20014206:	cc96                	sw	t0,88(sp)
20014208:	ca9a                	sw	t1,84(sp)
2001420a:	c89e                	sw	t2,80(sp)
2001420c:	c6a2                	sw	s0,76(sp)
2001420e:	c4aa                	sw	a0,72(sp)
20014210:	c2ae                	sw	a1,68(sp)
20014212:	c0b2                	sw	a2,64(sp)
20014214:	de36                	sw	a3,60(sp)
20014216:	dc3a                	sw	a4,56(sp)
20014218:	da3e                	sw	a5,52(sp)
2001421a:	d842                	sw	a6,48(sp)
2001421c:	d646                	sw	a7,44(sp)
2001421e:	d472                	sw	t3,40(sp)
20014220:	d276                	sw	t4,36(sp)
20014222:	d07a                	sw	t5,32(sp)
20014224:	ce7e                	sw	t6,28(sp)
20014226:	1080                	addi	s0,sp,96
/home/nicoladgg/wsFreedomStudio/sifive_hifive1_revb_hello/freedom-metal/src/drivers/riscv_cpu.c:255
20014228:	d5eff0ef          	jal	ra,20013786 <__metal_myhart_id>
2001422c:	872a                	mv	a4,a0
2001422e:	070a                	slli	a4,a4,0x2
20014230:	81018793          	addi	a5,gp,-2032 # 80000498 <__metal_cpu_table>
20014234:	97ba                	add	a5,a5,a4
20014236:	439c                	lw	a5,0(a5)
20014238:	faf42623          	sw	a5,-84(s0)
2001423c:	fac42783          	lw	a5,-84(s0)
20014240:	c78d                	beqz	a5,2001426a <metal_lc8_interrupt_vector_handler+0x68>
/home/nicoladgg/wsFreedomStudio/sifive_hifive1_revb_hello/freedom-metal/src/drivers/riscv_cpu.c:255 (discriminator 1)
20014242:	fac42503          	lw	a0,-84(s0)
20014246:	cc6ff0ef          	jal	ra,2001370c <__metal_driver_cpu_interrupt_controller>
2001424a:	faa42423          	sw	a0,-88(s0)
2001424e:	fa842783          	lw	a5,-88(s0)
20014252:	2d87a783          	lw	a5,728(a5)
20014256:	faf42223          	sw	a5,-92(s0)
2001425a:	fa842783          	lw	a5,-88(s0)
2001425e:	2d07a783          	lw	a5,720(a5)
20014262:	fa442583          	lw	a1,-92(s0)
20014266:	4561                	li	a0,24
20014268:	9782                	jalr	a5
/home/nicoladgg/wsFreedomStudio/sifive_hifive1_revb_hello/freedom-metal/src/drivers/riscv_cpu.c:256
2001426a:	0001                	nop
2001426c:	40f6                	lw	ra,92(sp)
2001426e:	42e6                	lw	t0,88(sp)
20014270:	4356                	lw	t1,84(sp)
20014272:	43c6                	lw	t2,80(sp)
20014274:	4436                	lw	s0,76(sp)
20014276:	4526                	lw	a0,72(sp)
20014278:	4596                	lw	a1,68(sp)
2001427a:	4606                	lw	a2,64(sp)
2001427c:	56f2                	lw	a3,60(sp)
2001427e:	5762                	lw	a4,56(sp)
20014280:	57d2                	lw	a5,52(sp)
20014282:	5842                	lw	a6,48(sp)
20014284:	58b2                	lw	a7,44(sp)
20014286:	5e22                	lw	t3,40(sp)
20014288:	5e92                	lw	t4,36(sp)
2001428a:	5f02                	lw	t5,32(sp)
2001428c:	4ff2                	lw	t6,28(sp)
2001428e:	6125                	addi	sp,sp,96
20014290:	30200073          	mret

20014294 <metal_lc9_interrupt_vector_handler>:
metal_lc9_interrupt_vector_handler():
/home/nicoladgg/wsFreedomStudio/sifive_hifive1_revb_hello/freedom-metal/src/drivers/riscv_cpu.c:259
20014294:	711d                	addi	sp,sp,-96
20014296:	ce86                	sw	ra,92(sp)
20014298:	cc96                	sw	t0,88(sp)
2001429a:	ca9a                	sw	t1,84(sp)
2001429c:	c89e                	sw	t2,80(sp)
2001429e:	c6a2                	sw	s0,76(sp)
200142a0:	c4aa                	sw	a0,72(sp)
200142a2:	c2ae                	sw	a1,68(sp)
200142a4:	c0b2                	sw	a2,64(sp)
200142a6:	de36                	sw	a3,60(sp)
200142a8:	dc3a                	sw	a4,56(sp)
200142aa:	da3e                	sw	a5,52(sp)
200142ac:	d842                	sw	a6,48(sp)
200142ae:	d646                	sw	a7,44(sp)
200142b0:	d472                	sw	t3,40(sp)
200142b2:	d276                	sw	t4,36(sp)
200142b4:	d07a                	sw	t5,32(sp)
200142b6:	ce7e                	sw	t6,28(sp)
200142b8:	1080                	addi	s0,sp,96
/home/nicoladgg/wsFreedomStudio/sifive_hifive1_revb_hello/freedom-metal/src/drivers/riscv_cpu.c:260
200142ba:	cccff0ef          	jal	ra,20013786 <__metal_myhart_id>
200142be:	872a                	mv	a4,a0
200142c0:	070a                	slli	a4,a4,0x2
200142c2:	81018793          	addi	a5,gp,-2032 # 80000498 <__metal_cpu_table>
200142c6:	97ba                	add	a5,a5,a4
200142c8:	439c                	lw	a5,0(a5)
200142ca:	faf42623          	sw	a5,-84(s0)
200142ce:	fac42783          	lw	a5,-84(s0)
200142d2:	c78d                	beqz	a5,200142fc <metal_lc9_interrupt_vector_handler+0x68>
/home/nicoladgg/wsFreedomStudio/sifive_hifive1_revb_hello/freedom-metal/src/drivers/riscv_cpu.c:260 (discriminator 1)
200142d4:	fac42503          	lw	a0,-84(s0)
200142d8:	c34ff0ef          	jal	ra,2001370c <__metal_driver_cpu_interrupt_controller>
200142dc:	faa42423          	sw	a0,-88(s0)
200142e0:	fa842783          	lw	a5,-88(s0)
200142e4:	2f07a783          	lw	a5,752(a5)
200142e8:	faf42223          	sw	a5,-92(s0)
200142ec:	fa842783          	lw	a5,-88(s0)
200142f0:	2e87a783          	lw	a5,744(a5)
200142f4:	fa442583          	lw	a1,-92(s0)
200142f8:	4565                	li	a0,25
200142fa:	9782                	jalr	a5
/home/nicoladgg/wsFreedomStudio/sifive_hifive1_revb_hello/freedom-metal/src/drivers/riscv_cpu.c:261
200142fc:	0001                	nop
200142fe:	40f6                	lw	ra,92(sp)
20014300:	42e6                	lw	t0,88(sp)
20014302:	4356                	lw	t1,84(sp)
20014304:	43c6                	lw	t2,80(sp)
20014306:	4436                	lw	s0,76(sp)
20014308:	4526                	lw	a0,72(sp)
2001430a:	4596                	lw	a1,68(sp)
2001430c:	4606                	lw	a2,64(sp)
2001430e:	56f2                	lw	a3,60(sp)
20014310:	5762                	lw	a4,56(sp)
20014312:	57d2                	lw	a5,52(sp)
20014314:	5842                	lw	a6,48(sp)
20014316:	58b2                	lw	a7,44(sp)
20014318:	5e22                	lw	t3,40(sp)
2001431a:	5e92                	lw	t4,36(sp)
2001431c:	5f02                	lw	t5,32(sp)
2001431e:	4ff2                	lw	t6,28(sp)
20014320:	6125                	addi	sp,sp,96
20014322:	30200073          	mret

20014326 <metal_lc10_interrupt_vector_handler>:
metal_lc10_interrupt_vector_handler():
/home/nicoladgg/wsFreedomStudio/sifive_hifive1_revb_hello/freedom-metal/src/drivers/riscv_cpu.c:265
20014326:	711d                	addi	sp,sp,-96
20014328:	ce86                	sw	ra,92(sp)
2001432a:	cc96                	sw	t0,88(sp)
2001432c:	ca9a                	sw	t1,84(sp)
2001432e:	c89e                	sw	t2,80(sp)
20014330:	c6a2                	sw	s0,76(sp)
20014332:	c4aa                	sw	a0,72(sp)
20014334:	c2ae                	sw	a1,68(sp)
20014336:	c0b2                	sw	a2,64(sp)
20014338:	de36                	sw	a3,60(sp)
2001433a:	dc3a                	sw	a4,56(sp)
2001433c:	da3e                	sw	a5,52(sp)
2001433e:	d842                	sw	a6,48(sp)
20014340:	d646                	sw	a7,44(sp)
20014342:	d472                	sw	t3,40(sp)
20014344:	d276                	sw	t4,36(sp)
20014346:	d07a                	sw	t5,32(sp)
20014348:	ce7e                	sw	t6,28(sp)
2001434a:	1080                	addi	s0,sp,96
/home/nicoladgg/wsFreedomStudio/sifive_hifive1_revb_hello/freedom-metal/src/drivers/riscv_cpu.c:266
2001434c:	c3aff0ef          	jal	ra,20013786 <__metal_myhart_id>
20014350:	872a                	mv	a4,a0
20014352:	070a                	slli	a4,a4,0x2
20014354:	81018793          	addi	a5,gp,-2032 # 80000498 <__metal_cpu_table>
20014358:	97ba                	add	a5,a5,a4
2001435a:	439c                	lw	a5,0(a5)
2001435c:	faf42623          	sw	a5,-84(s0)
20014360:	fac42783          	lw	a5,-84(s0)
20014364:	c78d                	beqz	a5,2001438e <metal_lc10_interrupt_vector_handler+0x68>
/home/nicoladgg/wsFreedomStudio/sifive_hifive1_revb_hello/freedom-metal/src/drivers/riscv_cpu.c:266 (discriminator 1)
20014366:	fac42503          	lw	a0,-84(s0)
2001436a:	ba2ff0ef          	jal	ra,2001370c <__metal_driver_cpu_interrupt_controller>
2001436e:	faa42423          	sw	a0,-88(s0)
20014372:	fa842783          	lw	a5,-88(s0)
20014376:	3087a783          	lw	a5,776(a5)
2001437a:	faf42223          	sw	a5,-92(s0)
2001437e:	fa842783          	lw	a5,-88(s0)
20014382:	3007a783          	lw	a5,768(a5)
20014386:	fa442583          	lw	a1,-92(s0)
2001438a:	4569                	li	a0,26
2001438c:	9782                	jalr	a5
/home/nicoladgg/wsFreedomStudio/sifive_hifive1_revb_hello/freedom-metal/src/drivers/riscv_cpu.c:267
2001438e:	0001                	nop
20014390:	40f6                	lw	ra,92(sp)
20014392:	42e6                	lw	t0,88(sp)
20014394:	4356                	lw	t1,84(sp)
20014396:	43c6                	lw	t2,80(sp)
20014398:	4436                	lw	s0,76(sp)
2001439a:	4526                	lw	a0,72(sp)
2001439c:	4596                	lw	a1,68(sp)
2001439e:	4606                	lw	a2,64(sp)
200143a0:	56f2                	lw	a3,60(sp)
200143a2:	5762                	lw	a4,56(sp)
200143a4:	57d2                	lw	a5,52(sp)
200143a6:	5842                	lw	a6,48(sp)
200143a8:	58b2                	lw	a7,44(sp)
200143aa:	5e22                	lw	t3,40(sp)
200143ac:	5e92                	lw	t4,36(sp)
200143ae:	5f02                	lw	t5,32(sp)
200143b0:	4ff2                	lw	t6,28(sp)
200143b2:	6125                	addi	sp,sp,96
200143b4:	30200073          	mret

200143b8 <metal_lc11_interrupt_vector_handler>:
metal_lc11_interrupt_vector_handler():
/home/nicoladgg/wsFreedomStudio/sifive_hifive1_revb_hello/freedom-metal/src/drivers/riscv_cpu.c:271
200143b8:	711d                	addi	sp,sp,-96
200143ba:	ce86                	sw	ra,92(sp)
200143bc:	cc96                	sw	t0,88(sp)
200143be:	ca9a                	sw	t1,84(sp)
200143c0:	c89e                	sw	t2,80(sp)
200143c2:	c6a2                	sw	s0,76(sp)
200143c4:	c4aa                	sw	a0,72(sp)
200143c6:	c2ae                	sw	a1,68(sp)
200143c8:	c0b2                	sw	a2,64(sp)
200143ca:	de36                	sw	a3,60(sp)
200143cc:	dc3a                	sw	a4,56(sp)
200143ce:	da3e                	sw	a5,52(sp)
200143d0:	d842                	sw	a6,48(sp)
200143d2:	d646                	sw	a7,44(sp)
200143d4:	d472                	sw	t3,40(sp)
200143d6:	d276                	sw	t4,36(sp)
200143d8:	d07a                	sw	t5,32(sp)
200143da:	ce7e                	sw	t6,28(sp)
200143dc:	1080                	addi	s0,sp,96
/home/nicoladgg/wsFreedomStudio/sifive_hifive1_revb_hello/freedom-metal/src/drivers/riscv_cpu.c:272
200143de:	ba8ff0ef          	jal	ra,20013786 <__metal_myhart_id>
200143e2:	872a                	mv	a4,a0
200143e4:	070a                	slli	a4,a4,0x2
200143e6:	81018793          	addi	a5,gp,-2032 # 80000498 <__metal_cpu_table>
200143ea:	97ba                	add	a5,a5,a4
200143ec:	439c                	lw	a5,0(a5)
200143ee:	faf42623          	sw	a5,-84(s0)
200143f2:	fac42783          	lw	a5,-84(s0)
200143f6:	c78d                	beqz	a5,20014420 <metal_lc11_interrupt_vector_handler+0x68>
/home/nicoladgg/wsFreedomStudio/sifive_hifive1_revb_hello/freedom-metal/src/drivers/riscv_cpu.c:272 (discriminator 1)
200143f8:	fac42503          	lw	a0,-84(s0)
200143fc:	b10ff0ef          	jal	ra,2001370c <__metal_driver_cpu_interrupt_controller>
20014400:	faa42423          	sw	a0,-88(s0)
20014404:	fa842783          	lw	a5,-88(s0)
20014408:	3207a783          	lw	a5,800(a5)
2001440c:	faf42223          	sw	a5,-92(s0)
20014410:	fa842783          	lw	a5,-88(s0)
20014414:	3187a783          	lw	a5,792(a5)
20014418:	fa442583          	lw	a1,-92(s0)
2001441c:	456d                	li	a0,27
2001441e:	9782                	jalr	a5
/home/nicoladgg/wsFreedomStudio/sifive_hifive1_revb_hello/freedom-metal/src/drivers/riscv_cpu.c:273
20014420:	0001                	nop
20014422:	40f6                	lw	ra,92(sp)
20014424:	42e6                	lw	t0,88(sp)
20014426:	4356                	lw	t1,84(sp)
20014428:	43c6                	lw	t2,80(sp)
2001442a:	4436                	lw	s0,76(sp)
2001442c:	4526                	lw	a0,72(sp)
2001442e:	4596                	lw	a1,68(sp)
20014430:	4606                	lw	a2,64(sp)
20014432:	56f2                	lw	a3,60(sp)
20014434:	5762                	lw	a4,56(sp)
20014436:	57d2                	lw	a5,52(sp)
20014438:	5842                	lw	a6,48(sp)
2001443a:	58b2                	lw	a7,44(sp)
2001443c:	5e22                	lw	t3,40(sp)
2001443e:	5e92                	lw	t4,36(sp)
20014440:	5f02                	lw	t5,32(sp)
20014442:	4ff2                	lw	t6,28(sp)
20014444:	6125                	addi	sp,sp,96
20014446:	30200073          	mret

2001444a <metal_lc12_interrupt_vector_handler>:
metal_lc12_interrupt_vector_handler():
/home/nicoladgg/wsFreedomStudio/sifive_hifive1_revb_hello/freedom-metal/src/drivers/riscv_cpu.c:277
2001444a:	711d                	addi	sp,sp,-96
2001444c:	ce86                	sw	ra,92(sp)
2001444e:	cc96                	sw	t0,88(sp)
20014450:	ca9a                	sw	t1,84(sp)
20014452:	c89e                	sw	t2,80(sp)
20014454:	c6a2                	sw	s0,76(sp)
20014456:	c4aa                	sw	a0,72(sp)
20014458:	c2ae                	sw	a1,68(sp)
2001445a:	c0b2                	sw	a2,64(sp)
2001445c:	de36                	sw	a3,60(sp)
2001445e:	dc3a                	sw	a4,56(sp)
20014460:	da3e                	sw	a5,52(sp)
20014462:	d842                	sw	a6,48(sp)
20014464:	d646                	sw	a7,44(sp)
20014466:	d472                	sw	t3,40(sp)
20014468:	d276                	sw	t4,36(sp)
2001446a:	d07a                	sw	t5,32(sp)
2001446c:	ce7e                	sw	t6,28(sp)
2001446e:	1080                	addi	s0,sp,96
/home/nicoladgg/wsFreedomStudio/sifive_hifive1_revb_hello/freedom-metal/src/drivers/riscv_cpu.c:278
20014470:	b16ff0ef          	jal	ra,20013786 <__metal_myhart_id>
20014474:	872a                	mv	a4,a0
20014476:	070a                	slli	a4,a4,0x2
20014478:	81018793          	addi	a5,gp,-2032 # 80000498 <__metal_cpu_table>
2001447c:	97ba                	add	a5,a5,a4
2001447e:	439c                	lw	a5,0(a5)
20014480:	faf42623          	sw	a5,-84(s0)
20014484:	fac42783          	lw	a5,-84(s0)
20014488:	c78d                	beqz	a5,200144b2 <metal_lc12_interrupt_vector_handler+0x68>
/home/nicoladgg/wsFreedomStudio/sifive_hifive1_revb_hello/freedom-metal/src/drivers/riscv_cpu.c:278 (discriminator 1)
2001448a:	fac42503          	lw	a0,-84(s0)
2001448e:	a7eff0ef          	jal	ra,2001370c <__metal_driver_cpu_interrupt_controller>
20014492:	faa42423          	sw	a0,-88(s0)
20014496:	fa842783          	lw	a5,-88(s0)
2001449a:	3387a783          	lw	a5,824(a5)
2001449e:	faf42223          	sw	a5,-92(s0)
200144a2:	fa842783          	lw	a5,-88(s0)
200144a6:	3307a783          	lw	a5,816(a5)
200144aa:	fa442583          	lw	a1,-92(s0)
200144ae:	4571                	li	a0,28
200144b0:	9782                	jalr	a5
/home/nicoladgg/wsFreedomStudio/sifive_hifive1_revb_hello/freedom-metal/src/drivers/riscv_cpu.c:279
200144b2:	0001                	nop
200144b4:	40f6                	lw	ra,92(sp)
200144b6:	42e6                	lw	t0,88(sp)
200144b8:	4356                	lw	t1,84(sp)
200144ba:	43c6                	lw	t2,80(sp)
200144bc:	4436                	lw	s0,76(sp)
200144be:	4526                	lw	a0,72(sp)
200144c0:	4596                	lw	a1,68(sp)
200144c2:	4606                	lw	a2,64(sp)
200144c4:	56f2                	lw	a3,60(sp)
200144c6:	5762                	lw	a4,56(sp)
200144c8:	57d2                	lw	a5,52(sp)
200144ca:	5842                	lw	a6,48(sp)
200144cc:	58b2                	lw	a7,44(sp)
200144ce:	5e22                	lw	t3,40(sp)
200144d0:	5e92                	lw	t4,36(sp)
200144d2:	5f02                	lw	t5,32(sp)
200144d4:	4ff2                	lw	t6,28(sp)
200144d6:	6125                	addi	sp,sp,96
200144d8:	30200073          	mret

200144dc <metal_lc13_interrupt_vector_handler>:
metal_lc13_interrupt_vector_handler():
/home/nicoladgg/wsFreedomStudio/sifive_hifive1_revb_hello/freedom-metal/src/drivers/riscv_cpu.c:283
200144dc:	711d                	addi	sp,sp,-96
200144de:	ce86                	sw	ra,92(sp)
200144e0:	cc96                	sw	t0,88(sp)
200144e2:	ca9a                	sw	t1,84(sp)
200144e4:	c89e                	sw	t2,80(sp)
200144e6:	c6a2                	sw	s0,76(sp)
200144e8:	c4aa                	sw	a0,72(sp)
200144ea:	c2ae                	sw	a1,68(sp)
200144ec:	c0b2                	sw	a2,64(sp)
200144ee:	de36                	sw	a3,60(sp)
200144f0:	dc3a                	sw	a4,56(sp)
200144f2:	da3e                	sw	a5,52(sp)
200144f4:	d842                	sw	a6,48(sp)
200144f6:	d646                	sw	a7,44(sp)
200144f8:	d472                	sw	t3,40(sp)
200144fa:	d276                	sw	t4,36(sp)
200144fc:	d07a                	sw	t5,32(sp)
200144fe:	ce7e                	sw	t6,28(sp)
20014500:	1080                	addi	s0,sp,96
/home/nicoladgg/wsFreedomStudio/sifive_hifive1_revb_hello/freedom-metal/src/drivers/riscv_cpu.c:284
20014502:	a84ff0ef          	jal	ra,20013786 <__metal_myhart_id>
20014506:	872a                	mv	a4,a0
20014508:	070a                	slli	a4,a4,0x2
2001450a:	81018793          	addi	a5,gp,-2032 # 80000498 <__metal_cpu_table>
2001450e:	97ba                	add	a5,a5,a4
20014510:	439c                	lw	a5,0(a5)
20014512:	faf42623          	sw	a5,-84(s0)
20014516:	fac42783          	lw	a5,-84(s0)
2001451a:	c78d                	beqz	a5,20014544 <metal_lc13_interrupt_vector_handler+0x68>
/home/nicoladgg/wsFreedomStudio/sifive_hifive1_revb_hello/freedom-metal/src/drivers/riscv_cpu.c:284 (discriminator 1)
2001451c:	fac42503          	lw	a0,-84(s0)
20014520:	9ecff0ef          	jal	ra,2001370c <__metal_driver_cpu_interrupt_controller>
20014524:	faa42423          	sw	a0,-88(s0)
20014528:	fa842783          	lw	a5,-88(s0)
2001452c:	3507a783          	lw	a5,848(a5)
20014530:	faf42223          	sw	a5,-92(s0)
20014534:	fa842783          	lw	a5,-88(s0)
20014538:	3487a783          	lw	a5,840(a5)
2001453c:	fa442583          	lw	a1,-92(s0)
20014540:	4575                	li	a0,29
20014542:	9782                	jalr	a5
/home/nicoladgg/wsFreedomStudio/sifive_hifive1_revb_hello/freedom-metal/src/drivers/riscv_cpu.c:285
20014544:	0001                	nop
20014546:	40f6                	lw	ra,92(sp)
20014548:	42e6                	lw	t0,88(sp)
2001454a:	4356                	lw	t1,84(sp)
2001454c:	43c6                	lw	t2,80(sp)
2001454e:	4436                	lw	s0,76(sp)
20014550:	4526                	lw	a0,72(sp)
20014552:	4596                	lw	a1,68(sp)
20014554:	4606                	lw	a2,64(sp)
20014556:	56f2                	lw	a3,60(sp)
20014558:	5762                	lw	a4,56(sp)
2001455a:	57d2                	lw	a5,52(sp)
2001455c:	5842                	lw	a6,48(sp)
2001455e:	58b2                	lw	a7,44(sp)
20014560:	5e22                	lw	t3,40(sp)
20014562:	5e92                	lw	t4,36(sp)
20014564:	5f02                	lw	t5,32(sp)
20014566:	4ff2                	lw	t6,28(sp)
20014568:	6125                	addi	sp,sp,96
2001456a:	30200073          	mret

2001456e <metal_lc14_interrupt_vector_handler>:
metal_lc14_interrupt_vector_handler():
/home/nicoladgg/wsFreedomStudio/sifive_hifive1_revb_hello/freedom-metal/src/drivers/riscv_cpu.c:289
2001456e:	711d                	addi	sp,sp,-96
20014570:	ce86                	sw	ra,92(sp)
20014572:	cc96                	sw	t0,88(sp)
20014574:	ca9a                	sw	t1,84(sp)
20014576:	c89e                	sw	t2,80(sp)
20014578:	c6a2                	sw	s0,76(sp)
2001457a:	c4aa                	sw	a0,72(sp)
2001457c:	c2ae                	sw	a1,68(sp)
2001457e:	c0b2                	sw	a2,64(sp)
20014580:	de36                	sw	a3,60(sp)
20014582:	dc3a                	sw	a4,56(sp)
20014584:	da3e                	sw	a5,52(sp)
20014586:	d842                	sw	a6,48(sp)
20014588:	d646                	sw	a7,44(sp)
2001458a:	d472                	sw	t3,40(sp)
2001458c:	d276                	sw	t4,36(sp)
2001458e:	d07a                	sw	t5,32(sp)
20014590:	ce7e                	sw	t6,28(sp)
20014592:	1080                	addi	s0,sp,96
/home/nicoladgg/wsFreedomStudio/sifive_hifive1_revb_hello/freedom-metal/src/drivers/riscv_cpu.c:290
20014594:	9f2ff0ef          	jal	ra,20013786 <__metal_myhart_id>
20014598:	872a                	mv	a4,a0
2001459a:	070a                	slli	a4,a4,0x2
2001459c:	81018793          	addi	a5,gp,-2032 # 80000498 <__metal_cpu_table>
200145a0:	97ba                	add	a5,a5,a4
200145a2:	439c                	lw	a5,0(a5)
200145a4:	faf42623          	sw	a5,-84(s0)
200145a8:	fac42783          	lw	a5,-84(s0)
200145ac:	c78d                	beqz	a5,200145d6 <metal_lc14_interrupt_vector_handler+0x68>
/home/nicoladgg/wsFreedomStudio/sifive_hifive1_revb_hello/freedom-metal/src/drivers/riscv_cpu.c:290 (discriminator 1)
200145ae:	fac42503          	lw	a0,-84(s0)
200145b2:	95aff0ef          	jal	ra,2001370c <__metal_driver_cpu_interrupt_controller>
200145b6:	faa42423          	sw	a0,-88(s0)
200145ba:	fa842783          	lw	a5,-88(s0)
200145be:	3687a783          	lw	a5,872(a5)
200145c2:	faf42223          	sw	a5,-92(s0)
200145c6:	fa842783          	lw	a5,-88(s0)
200145ca:	3607a783          	lw	a5,864(a5)
200145ce:	fa442583          	lw	a1,-92(s0)
200145d2:	4579                	li	a0,30
200145d4:	9782                	jalr	a5
/home/nicoladgg/wsFreedomStudio/sifive_hifive1_revb_hello/freedom-metal/src/drivers/riscv_cpu.c:291
200145d6:	0001                	nop
200145d8:	40f6                	lw	ra,92(sp)
200145da:	42e6                	lw	t0,88(sp)
200145dc:	4356                	lw	t1,84(sp)
200145de:	43c6                	lw	t2,80(sp)
200145e0:	4436                	lw	s0,76(sp)
200145e2:	4526                	lw	a0,72(sp)
200145e4:	4596                	lw	a1,68(sp)
200145e6:	4606                	lw	a2,64(sp)
200145e8:	56f2                	lw	a3,60(sp)
200145ea:	5762                	lw	a4,56(sp)
200145ec:	57d2                	lw	a5,52(sp)
200145ee:	5842                	lw	a6,48(sp)
200145f0:	58b2                	lw	a7,44(sp)
200145f2:	5e22                	lw	t3,40(sp)
200145f4:	5e92                	lw	t4,36(sp)
200145f6:	5f02                	lw	t5,32(sp)
200145f8:	4ff2                	lw	t6,28(sp)
200145fa:	6125                	addi	sp,sp,96
200145fc:	30200073          	mret

20014600 <metal_lc15_interrupt_vector_handler>:
metal_lc15_interrupt_vector_handler():
/home/nicoladgg/wsFreedomStudio/sifive_hifive1_revb_hello/freedom-metal/src/drivers/riscv_cpu.c:295
20014600:	711d                	addi	sp,sp,-96
20014602:	ce86                	sw	ra,92(sp)
20014604:	cc96                	sw	t0,88(sp)
20014606:	ca9a                	sw	t1,84(sp)
20014608:	c89e                	sw	t2,80(sp)
2001460a:	c6a2                	sw	s0,76(sp)
2001460c:	c4aa                	sw	a0,72(sp)
2001460e:	c2ae                	sw	a1,68(sp)
20014610:	c0b2                	sw	a2,64(sp)
20014612:	de36                	sw	a3,60(sp)
20014614:	dc3a                	sw	a4,56(sp)
20014616:	da3e                	sw	a5,52(sp)
20014618:	d842                	sw	a6,48(sp)
2001461a:	d646                	sw	a7,44(sp)
2001461c:	d472                	sw	t3,40(sp)
2001461e:	d276                	sw	t4,36(sp)
20014620:	d07a                	sw	t5,32(sp)
20014622:	ce7e                	sw	t6,28(sp)
20014624:	1080                	addi	s0,sp,96
/home/nicoladgg/wsFreedomStudio/sifive_hifive1_revb_hello/freedom-metal/src/drivers/riscv_cpu.c:296
20014626:	960ff0ef          	jal	ra,20013786 <__metal_myhart_id>
2001462a:	872a                	mv	a4,a0
2001462c:	070a                	slli	a4,a4,0x2
2001462e:	81018793          	addi	a5,gp,-2032 # 80000498 <__metal_cpu_table>
20014632:	97ba                	add	a5,a5,a4
20014634:	439c                	lw	a5,0(a5)
20014636:	faf42623          	sw	a5,-84(s0)
2001463a:	fac42783          	lw	a5,-84(s0)
2001463e:	c78d                	beqz	a5,20014668 <metal_lc15_interrupt_vector_handler+0x68>
/home/nicoladgg/wsFreedomStudio/sifive_hifive1_revb_hello/freedom-metal/src/drivers/riscv_cpu.c:296 (discriminator 1)
20014640:	fac42503          	lw	a0,-84(s0)
20014644:	8c8ff0ef          	jal	ra,2001370c <__metal_driver_cpu_interrupt_controller>
20014648:	faa42423          	sw	a0,-88(s0)
2001464c:	fa842783          	lw	a5,-88(s0)
20014650:	3807a783          	lw	a5,896(a5)
20014654:	faf42223          	sw	a5,-92(s0)
20014658:	fa842783          	lw	a5,-88(s0)
2001465c:	3787a783          	lw	a5,888(a5)
20014660:	fa442583          	lw	a1,-92(s0)
20014664:	457d                	li	a0,31
20014666:	9782                	jalr	a5
/home/nicoladgg/wsFreedomStudio/sifive_hifive1_revb_hello/freedom-metal/src/drivers/riscv_cpu.c:297
20014668:	0001                	nop
2001466a:	40f6                	lw	ra,92(sp)
2001466c:	42e6                	lw	t0,88(sp)
2001466e:	4356                	lw	t1,84(sp)
20014670:	43c6                	lw	t2,80(sp)
20014672:	4436                	lw	s0,76(sp)
20014674:	4526                	lw	a0,72(sp)
20014676:	4596                	lw	a1,68(sp)
20014678:	4606                	lw	a2,64(sp)
2001467a:	56f2                	lw	a3,60(sp)
2001467c:	5762                	lw	a4,56(sp)
2001467e:	57d2                	lw	a5,52(sp)
20014680:	5842                	lw	a6,48(sp)
20014682:	58b2                	lw	a7,44(sp)
20014684:	5e22                	lw	t3,40(sp)
20014686:	5e92                	lw	t4,36(sp)
20014688:	5f02                	lw	t5,32(sp)
2001468a:	4ff2                	lw	t6,28(sp)
2001468c:	6125                	addi	sp,sp,96
2001468e:	30200073          	mret

20014692 <__metal_controller_interrupt_vector_mode>:
__metal_controller_interrupt_vector_mode():
/home/nicoladgg/wsFreedomStudio/sifive_hifive1_revb_hello/freedom-metal/src/drivers/riscv_cpu.c:299
20014692:	1101                	addi	sp,sp,-32
20014694:	ce22                	sw	s0,28(sp)
20014696:	1000                	addi	s0,sp,32
/home/nicoladgg/wsFreedomStudio/sifive_hifive1_revb_hello/freedom-metal/src/drivers/riscv_cpu.c:302
20014698:	305027f3          	csrr	a5,mtvec
2001469c:	fef42623          	sw	a5,-20(s0)
/home/nicoladgg/wsFreedomStudio/sifive_hifive1_revb_hello/freedom-metal/src/drivers/riscv_cpu.c:303
200146a0:	fec42783          	lw	a5,-20(s0)
200146a4:	03f7f793          	andi	a5,a5,63
200146a8:	fef42623          	sw	a5,-20(s0)
/home/nicoladgg/wsFreedomStudio/sifive_hifive1_revb_hello/freedom-metal/src/drivers/riscv_cpu.c:305
200146ac:	fec42703          	lw	a4,-20(s0)
200146b0:	478d                	li	a5,3
200146b2:	02f70363          	beq	a4,a5,200146d8 <__metal_controller_interrupt_vector_mode+0x46>
200146b6:	fec42703          	lw	a4,-20(s0)
200146ba:	478d                	li	a5,3
200146bc:	02e7e263          	bltu	a5,a4,200146e0 <__metal_controller_interrupt_vector_mode+0x4e>
200146c0:	fec42703          	lw	a4,-20(s0)
200146c4:	4785                	li	a5,1
200146c6:	00f70b63          	beq	a4,a5,200146dc <__metal_controller_interrupt_vector_mode+0x4a>
200146ca:	fec42703          	lw	a4,-20(s0)
200146ce:	4789                	li	a5,2
200146d0:	00f71863          	bne	a4,a5,200146e0 <__metal_controller_interrupt_vector_mode+0x4e>
/home/nicoladgg/wsFreedomStudio/sifive_hifive1_revb_hello/freedom-metal/src/drivers/riscv_cpu.c:307
200146d4:	478d                	li	a5,3
200146d6:	a031                	j	200146e2 <__metal_controller_interrupt_vector_mode+0x50>
/home/nicoladgg/wsFreedomStudio/sifive_hifive1_revb_hello/freedom-metal/src/drivers/riscv_cpu.c:309
200146d8:	4791                	li	a5,4
200146da:	a021                	j	200146e2 <__metal_controller_interrupt_vector_mode+0x50>
/home/nicoladgg/wsFreedomStudio/sifive_hifive1_revb_hello/freedom-metal/src/drivers/riscv_cpu.c:311
200146dc:	4785                	li	a5,1
200146de:	a011                	j	200146e2 <__metal_controller_interrupt_vector_mode+0x50>
/home/nicoladgg/wsFreedomStudio/sifive_hifive1_revb_hello/freedom-metal/src/drivers/riscv_cpu.c:313
200146e0:	4781                	li	a5,0
/home/nicoladgg/wsFreedomStudio/sifive_hifive1_revb_hello/freedom-metal/src/drivers/riscv_cpu.c:314
200146e2:	853e                	mv	a0,a5
200146e4:	4472                	lw	s0,28(sp)
200146e6:	6105                	addi	sp,sp,32
200146e8:	8082                	ret

200146ea <__metal_controller_interrupt_vector>:
__metal_controller_interrupt_vector():
/home/nicoladgg/wsFreedomStudio/sifive_hifive1_revb_hello/freedom-metal/src/drivers/riscv_cpu.c:317
200146ea:	7179                	addi	sp,sp,-48
200146ec:	d622                	sw	s0,44(sp)
200146ee:	1800                	addi	s0,sp,48
200146f0:	fca42e23          	sw	a0,-36(s0)
200146f4:	fcb42c23          	sw	a1,-40(s0)
/home/nicoladgg/wsFreedomStudio/sifive_hifive1_revb_hello/freedom-metal/src/drivers/riscv_cpu.c:320
200146f8:	305027f3          	csrr	a5,mtvec
200146fc:	fef42623          	sw	a5,-20(s0)
/home/nicoladgg/wsFreedomStudio/sifive_hifive1_revb_hello/freedom-metal/src/drivers/riscv_cpu.c:321
20014700:	fec42783          	lw	a5,-20(s0)
20014704:	fc07f793          	andi	a5,a5,-64
20014708:	fef42623          	sw	a5,-20(s0)
/home/nicoladgg/wsFreedomStudio/sifive_hifive1_revb_hello/freedom-metal/src/drivers/riscv_cpu.c:322
2001470c:	fd842783          	lw	a5,-40(s0)
20014710:	fef42423          	sw	a5,-24(s0)
/home/nicoladgg/wsFreedomStudio/sifive_hifive1_revb_hello/freedom-metal/src/drivers/riscv_cpu.c:324
20014714:	fdc42703          	lw	a4,-36(s0)
20014718:	4791                	li	a5,4
2001471a:	04f70563          	beq	a4,a5,20014764 <__metal_controller_interrupt_vector+0x7a>
2001471e:	fdc42703          	lw	a4,-36(s0)
20014722:	4791                	li	a5,4
20014724:	06e7e863          	bltu	a5,a4,20014794 <__metal_controller_interrupt_vector+0xaa>
20014728:	fdc42703          	lw	a4,-36(s0)
2001472c:	478d                	li	a5,3
2001472e:	06e7e363          	bltu	a5,a4,20014794 <__metal_controller_interrupt_vector+0xaa>
20014732:	fdc42703          	lw	a4,-36(s0)
20014736:	4789                	li	a5,2
20014738:	00f77b63          	bgeu	a4,a5,2001474e <__metal_controller_interrupt_vector+0x64>
2001473c:	fdc42783          	lw	a5,-36(s0)
20014740:	c7a1                	beqz	a5,20014788 <__metal_controller_interrupt_vector+0x9e>
20014742:	fdc42703          	lw	a4,-36(s0)
20014746:	4785                	li	a5,1
20014748:	02f70963          	beq	a4,a5,2001477a <__metal_controller_interrupt_vector+0x90>
/home/nicoladgg/wsFreedomStudio/sifive_hifive1_revb_hello/freedom-metal/src/drivers/riscv_cpu.c:344
2001474c:	a0a1                	j	20014794 <__metal_controller_interrupt_vector+0xaa>
/home/nicoladgg/wsFreedomStudio/sifive_hifive1_revb_hello/freedom-metal/src/drivers/riscv_cpu.c:327
2001474e:	fe842783          	lw	a5,-24(s0)
20014752:	30779073          	csrw	mtvt,a5
/home/nicoladgg/wsFreedomStudio/sifive_hifive1_revb_hello/freedom-metal/src/drivers/riscv_cpu.c:328
20014756:	fec42783          	lw	a5,-20(s0)
2001475a:	0027e793          	ori	a5,a5,2
2001475e:	30579073          	csrw	mtvec,a5
/home/nicoladgg/wsFreedomStudio/sifive_hifive1_revb_hello/freedom-metal/src/drivers/riscv_cpu.c:329
20014762:	a80d                	j	20014794 <__metal_controller_interrupt_vector+0xaa>
/home/nicoladgg/wsFreedomStudio/sifive_hifive1_revb_hello/freedom-metal/src/drivers/riscv_cpu.c:331
20014764:	fe842783          	lw	a5,-24(s0)
20014768:	30779073          	csrw	mtvt,a5
/home/nicoladgg/wsFreedomStudio/sifive_hifive1_revb_hello/freedom-metal/src/drivers/riscv_cpu.c:333
2001476c:	fec42783          	lw	a5,-20(s0)
20014770:	0037e793          	ori	a5,a5,3
/home/nicoladgg/wsFreedomStudio/sifive_hifive1_revb_hello/freedom-metal/src/drivers/riscv_cpu.c:332
20014774:	30579073          	csrw	mtvec,a5
/home/nicoladgg/wsFreedomStudio/sifive_hifive1_revb_hello/freedom-metal/src/drivers/riscv_cpu.c:334
20014778:	a831                	j	20014794 <__metal_controller_interrupt_vector+0xaa>
/home/nicoladgg/wsFreedomStudio/sifive_hifive1_revb_hello/freedom-metal/src/drivers/riscv_cpu.c:337
2001477a:	fe842783          	lw	a5,-24(s0)
2001477e:	0017e793          	ori	a5,a5,1
/home/nicoladgg/wsFreedomStudio/sifive_hifive1_revb_hello/freedom-metal/src/drivers/riscv_cpu.c:336
20014782:	30579073          	csrw	mtvec,a5
/home/nicoladgg/wsFreedomStudio/sifive_hifive1_revb_hello/freedom-metal/src/drivers/riscv_cpu.c:338
20014786:	a039                	j	20014794 <__metal_controller_interrupt_vector+0xaa>
/home/nicoladgg/wsFreedomStudio/sifive_hifive1_revb_hello/freedom-metal/src/drivers/riscv_cpu.c:341
20014788:	fe842783          	lw	a5,-24(s0)
2001478c:	9bf1                	andi	a5,a5,-4
/home/nicoladgg/wsFreedomStudio/sifive_hifive1_revb_hello/freedom-metal/src/drivers/riscv_cpu.c:340
2001478e:	30579073          	csrw	mtvec,a5
/home/nicoladgg/wsFreedomStudio/sifive_hifive1_revb_hello/freedom-metal/src/drivers/riscv_cpu.c:342
20014792:	0001                	nop
/home/nicoladgg/wsFreedomStudio/sifive_hifive1_revb_hello/freedom-metal/src/drivers/riscv_cpu.c:344
20014794:	0001                	nop
20014796:	5432                	lw	s0,44(sp)
20014798:	6145                	addi	sp,sp,48
2001479a:	8082                	ret

2001479c <__metal_valid_interrupt_id>:
__metal_valid_interrupt_id():
/home/nicoladgg/wsFreedomStudio/sifive_hifive1_revb_hello/freedom-metal/src/drivers/riscv_cpu.c:346
2001479c:	1101                	addi	sp,sp,-32
2001479e:	ce22                	sw	s0,28(sp)
200147a0:	1000                	addi	s0,sp,32
200147a2:	fea42623          	sw	a0,-20(s0)
/home/nicoladgg/wsFreedomStudio/sifive_hifive1_revb_hello/freedom-metal/src/drivers/riscv_cpu.c:347
200147a6:	fec42703          	lw	a4,-20(s0)
200147aa:	47fd                	li	a5,31
200147ac:	02e7c663          	blt	a5,a4,200147d8 <__metal_valid_interrupt_id+0x3c>
200147b0:	fec42703          	lw	a4,-20(s0)
200147b4:	478d                	li	a5,3
200147b6:	02f74963          	blt	a4,a5,200147e8 <__metal_valid_interrupt_id+0x4c>
200147ba:	fec42783          	lw	a5,-20(s0)
200147be:	4705                	li	a4,1
200147c0:	00f71733          	sll	a4,a4,a5
200147c4:	77c5                	lui	a5,0xffff1
200147c6:	88878793          	addi	a5,a5,-1912 # ffff0888 <__global_pointer$+0x7ffefc00>
200147ca:	8ff9                	and	a5,a5,a4
200147cc:	00f037b3          	snez	a5,a5
200147d0:	0ff7f793          	zext.b	a5,a5
200147d4:	eb81                	bnez	a5,200147e4 <__metal_valid_interrupt_id+0x48>
/home/nicoladgg/wsFreedomStudio/sifive_hifive1_revb_hello/freedom-metal/src/drivers/riscv_cpu.c:370
200147d6:	a809                	j	200147e8 <__metal_valid_interrupt_id+0x4c>
/home/nicoladgg/wsFreedomStudio/sifive_hifive1_revb_hello/freedom-metal/src/drivers/riscv_cpu.c:347
200147d8:	fec42703          	lw	a4,-20(s0)
200147dc:	08000793          	li	a5,128
200147e0:	00f71463          	bne	a4,a5,200147e8 <__metal_valid_interrupt_id+0x4c>
/home/nicoladgg/wsFreedomStudio/sifive_hifive1_revb_hello/freedom-metal/src/drivers/riscv_cpu.c:368
200147e4:	4785                	li	a5,1
200147e6:	a019                	j	200147ec <__metal_valid_interrupt_id+0x50>
/home/nicoladgg/wsFreedomStudio/sifive_hifive1_revb_hello/freedom-metal/src/drivers/riscv_cpu.c:370
200147e8:	0001                	nop
/home/nicoladgg/wsFreedomStudio/sifive_hifive1_revb_hello/freedom-metal/src/drivers/riscv_cpu.c:373
200147ea:	4781                	li	a5,0
/home/nicoladgg/wsFreedomStudio/sifive_hifive1_revb_hello/freedom-metal/src/drivers/riscv_cpu.c:374
200147ec:	853e                	mv	a0,a5
200147ee:	4472                	lw	s0,28(sp)
200147f0:	6105                	addi	sp,sp,32
200147f2:	8082                	ret

200147f4 <__metal_local_interrupt_enable>:
__metal_local_interrupt_enable():
/home/nicoladgg/wsFreedomStudio/sifive_hifive1_revb_hello/freedom-metal/src/drivers/riscv_cpu.c:377
200147f4:	7179                	addi	sp,sp,-48
200147f6:	d606                	sw	ra,44(sp)
200147f8:	d422                	sw	s0,40(sp)
200147fa:	1800                	addi	s0,sp,48
200147fc:	fca42e23          	sw	a0,-36(s0)
20014800:	fcb42c23          	sw	a1,-40(s0)
20014804:	fcc42a23          	sw	a2,-44(s0)
/home/nicoladgg/wsFreedomStudio/sifive_hifive1_revb_hello/freedom-metal/src/drivers/riscv_cpu.c:378
20014808:	fe042623          	sw	zero,-20(s0)
/home/nicoladgg/wsFreedomStudio/sifive_hifive1_revb_hello/freedom-metal/src/drivers/riscv_cpu.c:380
2001480c:	fdc42783          	lw	a5,-36(s0)
20014810:	e399                	bnez	a5,20014816 <__metal_local_interrupt_enable+0x22>
/home/nicoladgg/wsFreedomStudio/sifive_hifive1_revb_hello/freedom-metal/src/drivers/riscv_cpu.c:381
20014812:	57fd                	li	a5,-1
20014814:	a849                	j	200148a6 <__metal_local_interrupt_enable+0xb2>
20014816:	fd842703          	lw	a4,-40(s0)
2001481a:	47fd                	li	a5,31
2001481c:	08e7e063          	bltu	a5,a4,2001489c <__metal_local_interrupt_enable+0xa8>
20014820:	fd842783          	lw	a5,-40(s0)
20014824:	00279713          	slli	a4,a5,0x2
20014828:	200107b7          	lui	a5,0x20010
2001482c:	53878793          	addi	a5,a5,1336 # 20010538 <__metal_driver_vtable_riscv_clint0+0x64>
20014830:	97ba                	add	a5,a5,a4
20014832:	439c                	lw	a5,0(a5)
20014834:	8782                	jr	a5
/home/nicoladgg/wsFreedomStudio/sifive_hifive1_revb_hello/freedom-metal/src/drivers/riscv_cpu.c:386
20014836:	fd442783          	lw	a5,-44(s0)
2001483a:	c781                	beqz	a5,20014842 <__metal_local_interrupt_enable+0x4e>
/home/nicoladgg/wsFreedomStudio/sifive_hifive1_revb_hello/freedom-metal/src/drivers/riscv_cpu.c:387
2001483c:	f65fe0ef          	jal	ra,200137a0 <__metal_interrupt_global_enable>
/home/nicoladgg/wsFreedomStudio/sifive_hifive1_revb_hello/freedom-metal/src/drivers/riscv_cpu.c:391
20014840:	a08d                	j	200148a2 <__metal_local_interrupt_enable+0xae>
/home/nicoladgg/wsFreedomStudio/sifive_hifive1_revb_hello/freedom-metal/src/drivers/riscv_cpu.c:389
20014842:	f77fe0ef          	jal	ra,200137b8 <__metal_interrupt_global_disable>
/home/nicoladgg/wsFreedomStudio/sifive_hifive1_revb_hello/freedom-metal/src/drivers/riscv_cpu.c:391
20014846:	a8b1                	j	200148a2 <__metal_local_interrupt_enable+0xae>
/home/nicoladgg/wsFreedomStudio/sifive_hifive1_revb_hello/freedom-metal/src/drivers/riscv_cpu.c:393
20014848:	fd442783          	lw	a5,-44(s0)
2001484c:	c781                	beqz	a5,20014854 <__metal_local_interrupt_enable+0x60>
/home/nicoladgg/wsFreedomStudio/sifive_hifive1_revb_hello/freedom-metal/src/drivers/riscv_cpu.c:394
2001484e:	f83fe0ef          	jal	ra,200137d0 <__metal_interrupt_software_enable>
/home/nicoladgg/wsFreedomStudio/sifive_hifive1_revb_hello/freedom-metal/src/drivers/riscv_cpu.c:398
20014852:	a881                	j	200148a2 <__metal_local_interrupt_enable+0xae>
/home/nicoladgg/wsFreedomStudio/sifive_hifive1_revb_hello/freedom-metal/src/drivers/riscv_cpu.c:396
20014854:	f95fe0ef          	jal	ra,200137e8 <__metal_interrupt_software_disable>
/home/nicoladgg/wsFreedomStudio/sifive_hifive1_revb_hello/freedom-metal/src/drivers/riscv_cpu.c:398
20014858:	a0a9                	j	200148a2 <__metal_local_interrupt_enable+0xae>
/home/nicoladgg/wsFreedomStudio/sifive_hifive1_revb_hello/freedom-metal/src/drivers/riscv_cpu.c:400
2001485a:	fd442783          	lw	a5,-44(s0)
2001485e:	c781                	beqz	a5,20014866 <__metal_local_interrupt_enable+0x72>
/home/nicoladgg/wsFreedomStudio/sifive_hifive1_revb_hello/freedom-metal/src/drivers/riscv_cpu.c:401
20014860:	fa1fe0ef          	jal	ra,20013800 <__metal_interrupt_timer_enable>
/home/nicoladgg/wsFreedomStudio/sifive_hifive1_revb_hello/freedom-metal/src/drivers/riscv_cpu.c:405
20014864:	a83d                	j	200148a2 <__metal_local_interrupt_enable+0xae>
/home/nicoladgg/wsFreedomStudio/sifive_hifive1_revb_hello/freedom-metal/src/drivers/riscv_cpu.c:403
20014866:	fb5fe0ef          	jal	ra,2001381a <__metal_interrupt_timer_disable>
/home/nicoladgg/wsFreedomStudio/sifive_hifive1_revb_hello/freedom-metal/src/drivers/riscv_cpu.c:405
2001486a:	a825                	j	200148a2 <__metal_local_interrupt_enable+0xae>
/home/nicoladgg/wsFreedomStudio/sifive_hifive1_revb_hello/freedom-metal/src/drivers/riscv_cpu.c:407
2001486c:	fd442783          	lw	a5,-44(s0)
20014870:	c781                	beqz	a5,20014878 <__metal_local_interrupt_enable+0x84>
/home/nicoladgg/wsFreedomStudio/sifive_hifive1_revb_hello/freedom-metal/src/drivers/riscv_cpu.c:408
20014872:	fc3fe0ef          	jal	ra,20013834 <__metal_interrupt_external_enable>
/home/nicoladgg/wsFreedomStudio/sifive_hifive1_revb_hello/freedom-metal/src/drivers/riscv_cpu.c:412
20014876:	a035                	j	200148a2 <__metal_local_interrupt_enable+0xae>
/home/nicoladgg/wsFreedomStudio/sifive_hifive1_revb_hello/freedom-metal/src/drivers/riscv_cpu.c:410
20014878:	fd9fe0ef          	jal	ra,20013850 <__metal_interrupt_external_disable>
/home/nicoladgg/wsFreedomStudio/sifive_hifive1_revb_hello/freedom-metal/src/drivers/riscv_cpu.c:412
2001487c:	a01d                	j	200148a2 <__metal_local_interrupt_enable+0xae>
/home/nicoladgg/wsFreedomStudio/sifive_hifive1_revb_hello/freedom-metal/src/drivers/riscv_cpu.c:429
2001487e:	fd442783          	lw	a5,-44(s0)
20014882:	c799                	beqz	a5,20014890 <__metal_local_interrupt_enable+0x9c>
/home/nicoladgg/wsFreedomStudio/sifive_hifive1_revb_hello/freedom-metal/src/drivers/riscv_cpu.c:430
20014884:	fd842783          	lw	a5,-40(s0)
20014888:	853e                	mv	a0,a5
2001488a:	fe3fe0ef          	jal	ra,2001386c <__metal_interrupt_local_enable>
/home/nicoladgg/wsFreedomStudio/sifive_hifive1_revb_hello/freedom-metal/src/drivers/riscv_cpu.c:434
2001488e:	a811                	j	200148a2 <__metal_local_interrupt_enable+0xae>
/home/nicoladgg/wsFreedomStudio/sifive_hifive1_revb_hello/freedom-metal/src/drivers/riscv_cpu.c:432
20014890:	fd842783          	lw	a5,-40(s0)
20014894:	853e                	mv	a0,a5
20014896:	802ff0ef          	jal	ra,20013898 <__metal_interrupt_local_disable>
/home/nicoladgg/wsFreedomStudio/sifive_hifive1_revb_hello/freedom-metal/src/drivers/riscv_cpu.c:434
2001489a:	a021                	j	200148a2 <__metal_local_interrupt_enable+0xae>
/home/nicoladgg/wsFreedomStudio/sifive_hifive1_revb_hello/freedom-metal/src/drivers/riscv_cpu.c:436
2001489c:	57fd                	li	a5,-1
2001489e:	fef42623          	sw	a5,-20(s0)
/home/nicoladgg/wsFreedomStudio/sifive_hifive1_revb_hello/freedom-metal/src/drivers/riscv_cpu.c:438
200148a2:	fec42783          	lw	a5,-20(s0)
/home/nicoladgg/wsFreedomStudio/sifive_hifive1_revb_hello/freedom-metal/src/drivers/riscv_cpu.c:439
200148a6:	853e                	mv	a0,a5
200148a8:	50b2                	lw	ra,44(sp)
200148aa:	5422                	lw	s0,40(sp)
200148ac:	6145                	addi	sp,sp,48
200148ae:	8082                	ret

200148b0 <__metal_exception_register>:
__metal_exception_register():
/home/nicoladgg/wsFreedomStudio/sifive_hifive1_revb_hello/freedom-metal/src/drivers/riscv_cpu.c:442
200148b0:	7179                	addi	sp,sp,-48
200148b2:	d622                	sw	s0,44(sp)
200148b4:	1800                	addi	s0,sp,48
200148b6:	fca42e23          	sw	a0,-36(s0)
200148ba:	fcb42c23          	sw	a1,-40(s0)
200148be:	fcc42a23          	sw	a2,-44(s0)
/home/nicoladgg/wsFreedomStudio/sifive_hifive1_revb_hello/freedom-metal/src/drivers/riscv_cpu.c:443
200148c2:	fdc42783          	lw	a5,-36(s0)
200148c6:	fef42623          	sw	a5,-20(s0)
/home/nicoladgg/wsFreedomStudio/sifive_hifive1_revb_hello/freedom-metal/src/drivers/riscv_cpu.c:445
200148ca:	fd842703          	lw	a4,-40(s0)
200148ce:	47ad                	li	a5,11
200148d0:	02e7c263          	blt	a5,a4,200148f4 <__metal_exception_register+0x44>
/home/nicoladgg/wsFreedomStudio/sifive_hifive1_revb_hello/freedom-metal/src/drivers/riscv_cpu.c:445 (discriminator 1)
200148d4:	fd442783          	lw	a5,-44(s0)
200148d8:	cf91                	beqz	a5,200148f4 <__metal_exception_register+0x44>
/home/nicoladgg/wsFreedomStudio/sifive_hifive1_revb_hello/freedom-metal/src/drivers/riscv_cpu.c:446
200148da:	fec42703          	lw	a4,-20(s0)
200148de:	fd842783          	lw	a5,-40(s0)
200148e2:	0e878793          	addi	a5,a5,232
200148e6:	078a                	slli	a5,a5,0x2
200148e8:	97ba                	add	a5,a5,a4
200148ea:	fd442703          	lw	a4,-44(s0)
200148ee:	c398                	sw	a4,0(a5)
/home/nicoladgg/wsFreedomStudio/sifive_hifive1_revb_hello/freedom-metal/src/drivers/riscv_cpu.c:447
200148f0:	4781                	li	a5,0
200148f2:	a011                	j	200148f6 <__metal_exception_register+0x46>
/home/nicoladgg/wsFreedomStudio/sifive_hifive1_revb_hello/freedom-metal/src/drivers/riscv_cpu.c:449
200148f4:	57fd                	li	a5,-1
/home/nicoladgg/wsFreedomStudio/sifive_hifive1_revb_hello/freedom-metal/src/drivers/riscv_cpu.c:450
200148f6:	853e                	mv	a0,a5
200148f8:	5432                	lw	s0,44(sp)
200148fa:	6145                	addi	sp,sp,48
200148fc:	8082                	ret

200148fe <__metal_driver_riscv_cpu_controller_interrupt_init>:
__metal_driver_riscv_cpu_controller_interrupt_init():
/home/nicoladgg/wsFreedomStudio/sifive_hifive1_revb_hello/freedom-metal/src/drivers/riscv_cpu.c:454
200148fe:	7179                	addi	sp,sp,-48
20014900:	d606                	sw	ra,44(sp)
20014902:	d422                	sw	s0,40(sp)
20014904:	1800                	addi	s0,sp,48
20014906:	fca42e23          	sw	a0,-36(s0)
/home/nicoladgg/wsFreedomStudio/sifive_hifive1_revb_hello/freedom-metal/src/drivers/riscv_cpu.c:455
2001490a:	fdc42783          	lw	a5,-36(s0)
2001490e:	fef42223          	sw	a5,-28(s0)
/home/nicoladgg/wsFreedomStudio/sifive_hifive1_revb_hello/freedom-metal/src/drivers/riscv_cpu.c:457
20014912:	fe442783          	lw	a5,-28(s0)
20014916:	43dc                	lw	a5,4(a5)
20014918:	efdd                	bnez	a5,200149d6 <__metal_driver_riscv_cpu_controller_interrupt_init+0xd8>
/home/nicoladgg/wsFreedomStudio/sifive_hifive1_revb_hello/freedom-metal/src/drivers/riscv_cpu.c:459
2001491a:	fe042623          	sw	zero,-20(s0)
2001491e:	a0b9                	j	2001496c <__metal_driver_riscv_cpu_controller_interrupt_init+0x6e>
/home/nicoladgg/wsFreedomStudio/sifive_hifive1_revb_hello/freedom-metal/src/drivers/riscv_cpu.c:460 (discriminator 3)
20014920:	fe442683          	lw	a3,-28(s0)
20014924:	fec42703          	lw	a4,-20(s0)
20014928:	87ba                	mv	a5,a4
2001492a:	0786                	slli	a5,a5,0x1
2001492c:	97ba                	add	a5,a5,a4
2001492e:	078e                	slli	a5,a5,0x3
20014930:	97b6                	add	a5,a5,a3
20014932:	0807a823          	sw	zero,144(a5)
/home/nicoladgg/wsFreedomStudio/sifive_hifive1_revb_hello/freedom-metal/src/drivers/riscv_cpu.c:461 (discriminator 3)
20014936:	fe442683          	lw	a3,-28(s0)
2001493a:	fec42703          	lw	a4,-20(s0)
2001493e:	87ba                	mv	a5,a4
20014940:	0786                	slli	a5,a5,0x1
20014942:	97ba                	add	a5,a5,a4
20014944:	078e                	slli	a5,a5,0x3
20014946:	97b6                	add	a5,a5,a3
20014948:	0807aa23          	sw	zero,148(a5)
/home/nicoladgg/wsFreedomStudio/sifive_hifive1_revb_hello/freedom-metal/src/drivers/riscv_cpu.c:462 (discriminator 3)
2001494c:	fe442683          	lw	a3,-28(s0)
20014950:	fec42703          	lw	a4,-20(s0)
20014954:	87ba                	mv	a5,a4
20014956:	0786                	slli	a5,a5,0x1
20014958:	97ba                	add	a5,a5,a4
2001495a:	078e                	slli	a5,a5,0x3
2001495c:	97b6                	add	a5,a5,a3
2001495e:	0807ac23          	sw	zero,152(a5)
/home/nicoladgg/wsFreedomStudio/sifive_hifive1_revb_hello/freedom-metal/src/drivers/riscv_cpu.c:459 (discriminator 3)
20014962:	fec42783          	lw	a5,-20(s0)
20014966:	0785                	addi	a5,a5,1
20014968:	fef42623          	sw	a5,-20(s0)
/home/nicoladgg/wsFreedomStudio/sifive_hifive1_revb_hello/freedom-metal/src/drivers/riscv_cpu.c:459 (discriminator 1)
2001496c:	fec42703          	lw	a4,-20(s0)
20014970:	47fd                	li	a5,31
20014972:	fae7d7e3          	bge	a5,a4,20014920 <__metal_driver_riscv_cpu_controller_interrupt_init+0x22>
/home/nicoladgg/wsFreedomStudio/sifive_hifive1_revb_hello/freedom-metal/src/drivers/riscv_cpu.c:465
20014976:	fe042423          	sw	zero,-24(s0)
2001497a:	a01d                	j	200149a0 <__metal_driver_riscv_cpu_controller_interrupt_init+0xa2>
/home/nicoladgg/wsFreedomStudio/sifive_hifive1_revb_hello/freedom-metal/src/drivers/riscv_cpu.c:466 (discriminator 3)
2001497c:	fe442703          	lw	a4,-28(s0)
20014980:	fe842783          	lw	a5,-24(s0)
20014984:	0e878793          	addi	a5,a5,232
20014988:	078a                	slli	a5,a5,0x2
2001498a:	97ba                	add	a5,a5,a4
2001498c:	20014737          	lui	a4,0x20014
20014990:	8c470713          	addi	a4,a4,-1852 # 200138c4 <__metal_default_exception_handler>
20014994:	c398                	sw	a4,0(a5)
/home/nicoladgg/wsFreedomStudio/sifive_hifive1_revb_hello/freedom-metal/src/drivers/riscv_cpu.c:465 (discriminator 3)
20014996:	fe842783          	lw	a5,-24(s0)
2001499a:	0785                	addi	a5,a5,1
2001499c:	fef42423          	sw	a5,-24(s0)
/home/nicoladgg/wsFreedomStudio/sifive_hifive1_revb_hello/freedom-metal/src/drivers/riscv_cpu.c:465 (discriminator 1)
200149a0:	fe842703          	lw	a4,-24(s0)
200149a4:	47ad                	li	a5,11
200149a6:	fce7dbe3          	bge	a5,a4,2001497c <__metal_driver_riscv_cpu_controller_interrupt_init+0x7e>
/home/nicoladgg/wsFreedomStudio/sifive_hifive1_revb_hello/freedom-metal/src/drivers/riscv_cpu.c:475
200149aa:	305027f3          	csrr	a5,mtvec
200149ae:	fef42023          	sw	a5,-32(s0)
/home/nicoladgg/wsFreedomStudio/sifive_hifive1_revb_hello/freedom-metal/src/drivers/riscv_cpu.c:476
200149b2:	200107b7          	lui	a5,0x20010
200149b6:	13478793          	addi	a5,a5,308 # 20010134 <early_trap_vector>
200149ba:	fe042703          	lw	a4,-32(s0)
200149be:	00f71863          	bne	a4,a5,200149ce <__metal_driver_riscv_cpu_controller_interrupt_init+0xd0>
/home/nicoladgg/wsFreedomStudio/sifive_hifive1_revb_hello/freedom-metal/src/drivers/riscv_cpu.c:477
200149c2:	200147b7          	lui	a5,0x20014
200149c6:	b8078593          	addi	a1,a5,-1152 # 20013b80 <__metal_exception_handler>
200149ca:	4501                	li	a0,0
200149cc:	3b39                	jal	200146ea <__metal_controller_interrupt_vector>
/home/nicoladgg/wsFreedomStudio/sifive_hifive1_revb_hello/freedom-metal/src/drivers/riscv_cpu.c:481
200149ce:	fe442783          	lw	a5,-28(s0)
200149d2:	4705                	li	a4,1
200149d4:	c3d8                	sw	a4,4(a5)
/home/nicoladgg/wsFreedomStudio/sifive_hifive1_revb_hello/freedom-metal/src/drivers/riscv_cpu.c:483
200149d6:	0001                	nop
200149d8:	50b2                	lw	ra,44(sp)
200149da:	5422                	lw	s0,40(sp)
200149dc:	6145                	addi	sp,sp,48
200149de:	8082                	ret

200149e0 <__metal_driver_riscv_cpu_controller_interrupt_register>:
__metal_driver_riscv_cpu_controller_interrupt_register():
/home/nicoladgg/wsFreedomStudio/sifive_hifive1_revb_hello/freedom-metal/src/drivers/riscv_cpu.c:487
200149e0:	7179                	addi	sp,sp,-48
200149e2:	d606                	sw	ra,44(sp)
200149e4:	d422                	sw	s0,40(sp)
200149e6:	1800                	addi	s0,sp,48
200149e8:	fca42e23          	sw	a0,-36(s0)
200149ec:	fcb42c23          	sw	a1,-40(s0)
200149f0:	fcc42a23          	sw	a2,-44(s0)
200149f4:	fcd42823          	sw	a3,-48(s0)
/home/nicoladgg/wsFreedomStudio/sifive_hifive1_revb_hello/freedom-metal/src/drivers/riscv_cpu.c:488
200149f8:	fe042623          	sw	zero,-20(s0)
/home/nicoladgg/wsFreedomStudio/sifive_hifive1_revb_hello/freedom-metal/src/drivers/riscv_cpu.c:489
200149fc:	fdc42783          	lw	a5,-36(s0)
20014a00:	fef42423          	sw	a5,-24(s0)
/home/nicoladgg/wsFreedomStudio/sifive_hifive1_revb_hello/freedom-metal/src/drivers/riscv_cpu.c:491
20014a04:	fd842503          	lw	a0,-40(s0)
20014a08:	3b51                	jal	2001479c <__metal_valid_interrupt_id>
20014a0a:	87aa                	mv	a5,a0
20014a0c:	e399                	bnez	a5,20014a12 <__metal_driver_riscv_cpu_controller_interrupt_register+0x32>
/home/nicoladgg/wsFreedomStudio/sifive_hifive1_revb_hello/freedom-metal/src/drivers/riscv_cpu.c:492
20014a0e:	57d5                	li	a5,-11
20014a10:	a25d                	j	20014bb6 <__metal_driver_riscv_cpu_controller_interrupt_register+0x1d6>
/home/nicoladgg/wsFreedomStudio/sifive_hifive1_revb_hello/freedom-metal/src/drivers/riscv_cpu.c:494
20014a12:	fd842703          	lw	a4,-40(s0)
20014a16:	08000793          	li	a5,128
20014a1a:	00f71763          	bne	a4,a5,20014a28 <__metal_driver_riscv_cpu_controller_interrupt_register+0x48>
/home/nicoladgg/wsFreedomStudio/sifive_hifive1_revb_hello/freedom-metal/src/drivers/riscv_cpu.c:495 (discriminator 1)
20014a1e:	3995                	jal	20014692 <__metal_controller_interrupt_vector_mode>
20014a20:	87aa                	mv	a5,a0
/home/nicoladgg/wsFreedomStudio/sifive_hifive1_revb_hello/freedom-metal/src/drivers/riscv_cpu.c:494 (discriminator 1)
20014a22:	c399                	beqz	a5,20014a28 <__metal_driver_riscv_cpu_controller_interrupt_register+0x48>
/home/nicoladgg/wsFreedomStudio/sifive_hifive1_revb_hello/freedom-metal/src/drivers/riscv_cpu.c:498
20014a24:	57cd                	li	a5,-13
20014a26:	aa41                	j	20014bb6 <__metal_driver_riscv_cpu_controller_interrupt_register+0x1d6>
/home/nicoladgg/wsFreedomStudio/sifive_hifive1_revb_hello/freedom-metal/src/drivers/riscv_cpu.c:501
20014a28:	fd442783          	lw	a5,-44(s0)
20014a2c:	cfb9                	beqz	a5,20014a8a <__metal_driver_riscv_cpu_controller_interrupt_register+0xaa>
/home/nicoladgg/wsFreedomStudio/sifive_hifive1_revb_hello/freedom-metal/src/drivers/riscv_cpu.c:502
20014a2e:	fd842703          	lw	a4,-40(s0)
20014a32:	08000793          	li	a5,128
20014a36:	00f71f63          	bne	a4,a5,20014a54 <__metal_driver_riscv_cpu_controller_interrupt_register+0x74>
/home/nicoladgg/wsFreedomStudio/sifive_hifive1_revb_hello/freedom-metal/src/drivers/riscv_cpu.c:503
20014a3a:	fe842783          	lw	a5,-24(s0)
20014a3e:	fd442703          	lw	a4,-44(s0)
20014a42:	38e7a823          	sw	a4,912(a5)
/home/nicoladgg/wsFreedomStudio/sifive_hifive1_revb_hello/freedom-metal/src/drivers/riscv_cpu.c:504
20014a46:	fe842783          	lw	a5,-24(s0)
20014a4a:	fd042703          	lw	a4,-48(s0)
20014a4e:	38e7ac23          	sw	a4,920(a5)
20014a52:	a285                	j	20014bb2 <__metal_driver_riscv_cpu_controller_interrupt_register+0x1d2>
/home/nicoladgg/wsFreedomStudio/sifive_hifive1_revb_hello/freedom-metal/src/drivers/riscv_cpu.c:506
20014a54:	fe842683          	lw	a3,-24(s0)
20014a58:	fd842703          	lw	a4,-40(s0)
20014a5c:	87ba                	mv	a5,a4
20014a5e:	0786                	slli	a5,a5,0x1
20014a60:	97ba                	add	a5,a5,a4
20014a62:	078e                	slli	a5,a5,0x3
20014a64:	97b6                	add	a5,a5,a3
20014a66:	fd442703          	lw	a4,-44(s0)
20014a6a:	08e7a823          	sw	a4,144(a5)
/home/nicoladgg/wsFreedomStudio/sifive_hifive1_revb_hello/freedom-metal/src/drivers/riscv_cpu.c:507
20014a6e:	fe842683          	lw	a3,-24(s0)
20014a72:	fd842703          	lw	a4,-40(s0)
20014a76:	87ba                	mv	a5,a4
20014a78:	0786                	slli	a5,a5,0x1
20014a7a:	97ba                	add	a5,a5,a4
20014a7c:	078e                	slli	a5,a5,0x3
20014a7e:	97b6                	add	a5,a5,a3
20014a80:	fd042703          	lw	a4,-48(s0)
20014a84:	08e7ac23          	sw	a4,152(a5)
20014a88:	a22d                	j	20014bb2 <__metal_driver_riscv_cpu_controller_interrupt_register+0x1d2>
/home/nicoladgg/wsFreedomStudio/sifive_hifive1_revb_hello/freedom-metal/src/drivers/riscv_cpu.c:510
20014a8a:	fd842703          	lw	a4,-40(s0)
20014a8e:	08000793          	li	a5,128
20014a92:	0cf70163          	beq	a4,a5,20014b54 <__metal_driver_riscv_cpu_controller_interrupt_register+0x174>
20014a96:	fd842703          	lw	a4,-40(s0)
20014a9a:	08000793          	li	a5,128
20014a9e:	10e7c763          	blt	a5,a4,20014bac <__metal_driver_riscv_cpu_controller_interrupt_register+0x1cc>
20014aa2:	fd842703          	lw	a4,-40(s0)
20014aa6:	47fd                	li	a5,31
20014aa8:	10e7c263          	blt	a5,a4,20014bac <__metal_driver_riscv_cpu_controller_interrupt_register+0x1cc>
20014aac:	fd842703          	lw	a4,-40(s0)
20014ab0:	47c1                	li	a5,16
20014ab2:	0cf75063          	bge	a4,a5,20014b72 <__metal_driver_riscv_cpu_controller_interrupt_register+0x192>
20014ab6:	fd842703          	lw	a4,-40(s0)
20014aba:	47ad                	li	a5,11
20014abc:	0af70b63          	beq	a4,a5,20014b72 <__metal_driver_riscv_cpu_controller_interrupt_register+0x192>
20014ac0:	fd842703          	lw	a4,-40(s0)
20014ac4:	47ad                	li	a5,11
20014ac6:	0ee7c363          	blt	a5,a4,20014bac <__metal_driver_riscv_cpu_controller_interrupt_register+0x1cc>
20014aca:	fd842703          	lw	a4,-40(s0)
20014ace:	478d                	li	a5,3
20014ad0:	00f70863          	beq	a4,a5,20014ae0 <__metal_driver_riscv_cpu_controller_interrupt_register+0x100>
20014ad4:	fd842703          	lw	a4,-40(s0)
20014ad8:	479d                	li	a5,7
20014ada:	04f70063          	beq	a4,a5,20014b1a <__metal_driver_riscv_cpu_controller_interrupt_register+0x13a>
20014ade:	a0f9                	j	20014bac <__metal_driver_riscv_cpu_controller_interrupt_register+0x1cc>
/home/nicoladgg/wsFreedomStudio/sifive_hifive1_revb_hello/freedom-metal/src/drivers/riscv_cpu.c:512
20014ae0:	fe842683          	lw	a3,-24(s0)
20014ae4:	fd842703          	lw	a4,-40(s0)
20014ae8:	87ba                	mv	a5,a4
20014aea:	0786                	slli	a5,a5,0x1
20014aec:	97ba                	add	a5,a5,a4
20014aee:	078e                	slli	a5,a5,0x3
20014af0:	97b6                	add	a5,a5,a3
20014af2:	20014737          	lui	a4,0x20014
20014af6:	9b070713          	addi	a4,a4,-1616 # 200139b0 <__metal_default_sw_handler>
20014afa:	08e7a823          	sw	a4,144(a5)
/home/nicoladgg/wsFreedomStudio/sifive_hifive1_revb_hello/freedom-metal/src/drivers/riscv_cpu.c:513
20014afe:	fe842683          	lw	a3,-24(s0)
20014b02:	fd842703          	lw	a4,-40(s0)
20014b06:	87ba                	mv	a5,a4
20014b08:	0786                	slli	a5,a5,0x1
20014b0a:	97ba                	add	a5,a5,a4
20014b0c:	078e                	slli	a5,a5,0x3
20014b0e:	97b6                	add	a5,a5,a3
20014b10:	fd042703          	lw	a4,-48(s0)
20014b14:	08e7aa23          	sw	a4,148(a5)
/home/nicoladgg/wsFreedomStudio/sifive_hifive1_revb_hello/freedom-metal/src/drivers/riscv_cpu.c:514
20014b18:	a869                	j	20014bb2 <__metal_driver_riscv_cpu_controller_interrupt_register+0x1d2>
/home/nicoladgg/wsFreedomStudio/sifive_hifive1_revb_hello/freedom-metal/src/drivers/riscv_cpu.c:516
20014b1a:	fe842683          	lw	a3,-24(s0)
20014b1e:	fd842703          	lw	a4,-40(s0)
20014b22:	87ba                	mv	a5,a4
20014b24:	0786                	slli	a5,a5,0x1
20014b26:	97ba                	add	a5,a5,a4
20014b28:	078e                	slli	a5,a5,0x3
20014b2a:	97b6                	add	a5,a5,a3
20014b2c:	20014737          	lui	a4,0x20014
20014b30:	ab870713          	addi	a4,a4,-1352 # 20013ab8 <__metal_default_timer_handler>
20014b34:	08e7a823          	sw	a4,144(a5)
/home/nicoladgg/wsFreedomStudio/sifive_hifive1_revb_hello/freedom-metal/src/drivers/riscv_cpu.c:517
20014b38:	fe842683          	lw	a3,-24(s0)
20014b3c:	fd842703          	lw	a4,-40(s0)
20014b40:	87ba                	mv	a5,a4
20014b42:	0786                	slli	a5,a5,0x1
20014b44:	97ba                	add	a5,a5,a4
20014b46:	078e                	slli	a5,a5,0x3
20014b48:	97b6                	add	a5,a5,a3
20014b4a:	fd042703          	lw	a4,-48(s0)
20014b4e:	08e7aa23          	sw	a4,148(a5)
/home/nicoladgg/wsFreedomStudio/sifive_hifive1_revb_hello/freedom-metal/src/drivers/riscv_cpu.c:518
20014b52:	a085                	j	20014bb2 <__metal_driver_riscv_cpu_controller_interrupt_register+0x1d2>
/home/nicoladgg/wsFreedomStudio/sifive_hifive1_revb_hello/freedom-metal/src/drivers/riscv_cpu.c:520
20014b54:	fe842783          	lw	a5,-24(s0)
20014b58:	20014737          	lui	a4,0x20014
20014b5c:	aa270713          	addi	a4,a4,-1374 # 20013aa2 <__metal_default_beu_handler>
20014b60:	38e7a823          	sw	a4,912(a5)
/home/nicoladgg/wsFreedomStudio/sifive_hifive1_revb_hello/freedom-metal/src/drivers/riscv_cpu.c:521
20014b64:	fe842783          	lw	a5,-24(s0)
20014b68:	fd042703          	lw	a4,-48(s0)
20014b6c:	38e7ac23          	sw	a4,920(a5)
/home/nicoladgg/wsFreedomStudio/sifive_hifive1_revb_hello/freedom-metal/src/drivers/riscv_cpu.c:522
20014b70:	a089                	j	20014bb2 <__metal_driver_riscv_cpu_controller_interrupt_register+0x1d2>
/home/nicoladgg/wsFreedomStudio/sifive_hifive1_revb_hello/freedom-metal/src/drivers/riscv_cpu.c:540
20014b72:	fe842683          	lw	a3,-24(s0)
20014b76:	fd842703          	lw	a4,-40(s0)
20014b7a:	87ba                	mv	a5,a4
20014b7c:	0786                	slli	a5,a5,0x1
20014b7e:	97ba                	add	a5,a5,a4
20014b80:	078e                	slli	a5,a5,0x3
20014b82:	97b6                	add	a5,a5,a3
20014b84:	20014737          	lui	a4,0x20014
20014b88:	8dc70713          	addi	a4,a4,-1828 # 200138dc <__metal_default_interrupt_handler>
20014b8c:	08e7a823          	sw	a4,144(a5)
/home/nicoladgg/wsFreedomStudio/sifive_hifive1_revb_hello/freedom-metal/src/drivers/riscv_cpu.c:542
20014b90:	fe842683          	lw	a3,-24(s0)
20014b94:	fd842703          	lw	a4,-40(s0)
20014b98:	87ba                	mv	a5,a4
20014b9a:	0786                	slli	a5,a5,0x1
20014b9c:	97ba                	add	a5,a5,a4
20014b9e:	078e                	slli	a5,a5,0x3
20014ba0:	97b6                	add	a5,a5,a3
20014ba2:	fd042703          	lw	a4,-48(s0)
20014ba6:	08e7aa23          	sw	a4,148(a5)
/home/nicoladgg/wsFreedomStudio/sifive_hifive1_revb_hello/freedom-metal/src/drivers/riscv_cpu.c:543
20014baa:	a021                	j	20014bb2 <__metal_driver_riscv_cpu_controller_interrupt_register+0x1d2>
/home/nicoladgg/wsFreedomStudio/sifive_hifive1_revb_hello/freedom-metal/src/drivers/riscv_cpu.c:545
20014bac:	57d1                	li	a5,-12
20014bae:	fef42623          	sw	a5,-20(s0)
/home/nicoladgg/wsFreedomStudio/sifive_hifive1_revb_hello/freedom-metal/src/drivers/riscv_cpu.c:548
20014bb2:	fec42783          	lw	a5,-20(s0)
/home/nicoladgg/wsFreedomStudio/sifive_hifive1_revb_hello/freedom-metal/src/drivers/riscv_cpu.c:549
20014bb6:	853e                	mv	a0,a5
20014bb8:	50b2                	lw	ra,44(sp)
20014bba:	5422                	lw	s0,40(sp)
20014bbc:	6145                	addi	sp,sp,48
20014bbe:	8082                	ret

20014bc0 <__metal_driver_riscv_cpu_controller_interrupt_enable>:
__metal_driver_riscv_cpu_controller_interrupt_enable():
/home/nicoladgg/wsFreedomStudio/sifive_hifive1_revb_hello/freedom-metal/src/drivers/riscv_cpu.c:552
20014bc0:	1101                	addi	sp,sp,-32
20014bc2:	ce06                	sw	ra,28(sp)
20014bc4:	cc22                	sw	s0,24(sp)
20014bc6:	1000                	addi	s0,sp,32
20014bc8:	fea42623          	sw	a0,-20(s0)
20014bcc:	feb42423          	sw	a1,-24(s0)
/home/nicoladgg/wsFreedomStudio/sifive_hifive1_revb_hello/freedom-metal/src/drivers/riscv_cpu.c:553
20014bd0:	fe842783          	lw	a5,-24(s0)
20014bd4:	4605                	li	a2,1
20014bd6:	85be                	mv	a1,a5
20014bd8:	fec42503          	lw	a0,-20(s0)
20014bdc:	3921                	jal	200147f4 <__metal_local_interrupt_enable>
20014bde:	87aa                	mv	a5,a0
/home/nicoladgg/wsFreedomStudio/sifive_hifive1_revb_hello/freedom-metal/src/drivers/riscv_cpu.c:554
20014be0:	853e                	mv	a0,a5
20014be2:	40f2                	lw	ra,28(sp)
20014be4:	4462                	lw	s0,24(sp)
20014be6:	6105                	addi	sp,sp,32
20014be8:	8082                	ret

20014bea <__metal_driver_riscv_cpu_controller_interrupt_disable>:
__metal_driver_riscv_cpu_controller_interrupt_disable():
/home/nicoladgg/wsFreedomStudio/sifive_hifive1_revb_hello/freedom-metal/src/drivers/riscv_cpu.c:557
20014bea:	1101                	addi	sp,sp,-32
20014bec:	ce06                	sw	ra,28(sp)
20014bee:	cc22                	sw	s0,24(sp)
20014bf0:	1000                	addi	s0,sp,32
20014bf2:	fea42623          	sw	a0,-20(s0)
20014bf6:	feb42423          	sw	a1,-24(s0)
/home/nicoladgg/wsFreedomStudio/sifive_hifive1_revb_hello/freedom-metal/src/drivers/riscv_cpu.c:558
20014bfa:	fe842783          	lw	a5,-24(s0)
20014bfe:	4601                	li	a2,0
20014c00:	85be                	mv	a1,a5
20014c02:	fec42503          	lw	a0,-20(s0)
20014c06:	36fd                	jal	200147f4 <__metal_local_interrupt_enable>
20014c08:	87aa                	mv	a5,a0
/home/nicoladgg/wsFreedomStudio/sifive_hifive1_revb_hello/freedom-metal/src/drivers/riscv_cpu.c:559
20014c0a:	853e                	mv	a0,a5
20014c0c:	40f2                	lw	ra,28(sp)
20014c0e:	4462                	lw	s0,24(sp)
20014c10:	6105                	addi	sp,sp,32
20014c12:	8082                	ret

20014c14 <__metal_driver_riscv_cpu_controller_get_vector_mode>:
__metal_driver_riscv_cpu_controller_get_vector_mode():
/home/nicoladgg/wsFreedomStudio/sifive_hifive1_revb_hello/freedom-metal/src/drivers/riscv_cpu.c:591
20014c14:	1101                	addi	sp,sp,-32
20014c16:	ce06                	sw	ra,28(sp)
20014c18:	cc22                	sw	s0,24(sp)
20014c1a:	1000                	addi	s0,sp,32
20014c1c:	fea42623          	sw	a0,-20(s0)
/home/nicoladgg/wsFreedomStudio/sifive_hifive1_revb_hello/freedom-metal/src/drivers/riscv_cpu.c:592
20014c20:	a73ff0ef          	jal	ra,20014692 <__metal_controller_interrupt_vector_mode>
20014c24:	87aa                	mv	a5,a0
/home/nicoladgg/wsFreedomStudio/sifive_hifive1_revb_hello/freedom-metal/src/drivers/riscv_cpu.c:593
20014c26:	853e                	mv	a0,a5
20014c28:	40f2                	lw	ra,28(sp)
20014c2a:	4462                	lw	s0,24(sp)
20014c2c:	6105                	addi	sp,sp,32
20014c2e:	8082                	ret

20014c30 <__metal_driver_riscv_cpu_controller_set_vector_mode>:
__metal_driver_riscv_cpu_controller_set_vector_mode():
/home/nicoladgg/wsFreedomStudio/sifive_hifive1_revb_hello/freedom-metal/src/drivers/riscv_cpu.c:596
20014c30:	1101                	addi	sp,sp,-32
20014c32:	ce06                	sw	ra,28(sp)
20014c34:	cc22                	sw	s0,24(sp)
20014c36:	1000                	addi	s0,sp,32
20014c38:	fea42623          	sw	a0,-20(s0)
20014c3c:	feb42423          	sw	a1,-24(s0)
/home/nicoladgg/wsFreedomStudio/sifive_hifive1_revb_hello/freedom-metal/src/drivers/riscv_cpu.c:598
20014c40:	fe842783          	lw	a5,-24(s0)
20014c44:	eb99                	bnez	a5,20014c5a <__metal_driver_riscv_cpu_controller_set_vector_mode+0x2a>
/home/nicoladgg/wsFreedomStudio/sifive_hifive1_revb_hello/freedom-metal/src/drivers/riscv_cpu.c:599
20014c46:	200147b7          	lui	a5,0x20014
20014c4a:	b8078593          	addi	a1,a5,-1152 # 20013b80 <__metal_exception_handler>
20014c4e:	fe842503          	lw	a0,-24(s0)
20014c52:	a99ff0ef          	jal	ra,200146ea <__metal_controller_interrupt_vector>
/home/nicoladgg/wsFreedomStudio/sifive_hifive1_revb_hello/freedom-metal/src/drivers/riscv_cpu.c:601
20014c56:	4781                	li	a5,0
20014c58:	a00d                	j	20014c7a <__metal_driver_riscv_cpu_controller_set_vector_mode+0x4a>
/home/nicoladgg/wsFreedomStudio/sifive_hifive1_revb_hello/freedom-metal/src/drivers/riscv_cpu.c:603
20014c5a:	fe842703          	lw	a4,-24(s0)
20014c5e:	4785                	li	a5,1
20014c60:	00f71c63          	bne	a4,a5,20014c78 <__metal_driver_riscv_cpu_controller_set_vector_mode+0x48>
/home/nicoladgg/wsFreedomStudio/sifive_hifive1_revb_hello/freedom-metal/src/drivers/riscv_cpu.c:604
20014c64:	200167b7          	lui	a5,0x20016
20014c68:	b0078593          	addi	a1,a5,-1280 # 20015b00 <__metal_vector_table>
20014c6c:	fe842503          	lw	a0,-24(s0)
20014c70:	a7bff0ef          	jal	ra,200146ea <__metal_controller_interrupt_vector>
/home/nicoladgg/wsFreedomStudio/sifive_hifive1_revb_hello/freedom-metal/src/drivers/riscv_cpu.c:606
20014c74:	4781                	li	a5,0
20014c76:	a011                	j	20014c7a <__metal_driver_riscv_cpu_controller_set_vector_mode+0x4a>
/home/nicoladgg/wsFreedomStudio/sifive_hifive1_revb_hello/freedom-metal/src/drivers/riscv_cpu.c:608
20014c78:	57fd                	li	a5,-1
/home/nicoladgg/wsFreedomStudio/sifive_hifive1_revb_hello/freedom-metal/src/drivers/riscv_cpu.c:609
20014c7a:	853e                	mv	a0,a5
20014c7c:	40f2                	lw	ra,28(sp)
20014c7e:	4462                	lw	s0,24(sp)
20014c80:	6105                	addi	sp,sp,32
20014c82:	8082                	ret

20014c84 <__metal_driver_riscv_cpu_controller_command_request>:
__metal_driver_riscv_cpu_controller_command_request():
/home/nicoladgg/wsFreedomStudio/sifive_hifive1_revb_hello/freedom-metal/src/drivers/riscv_cpu.c:612
20014c84:	1101                	addi	sp,sp,-32
20014c86:	ce22                	sw	s0,28(sp)
20014c88:	1000                	addi	s0,sp,32
20014c8a:	fea42623          	sw	a0,-20(s0)
20014c8e:	feb42423          	sw	a1,-24(s0)
20014c92:	fec42223          	sw	a2,-28(s0)
/home/nicoladgg/wsFreedomStudio/sifive_hifive1_revb_hello/freedom-metal/src/drivers/riscv_cpu.c:615
20014c96:	4781                	li	a5,0
/home/nicoladgg/wsFreedomStudio/sifive_hifive1_revb_hello/freedom-metal/src/drivers/riscv_cpu.c:616
20014c98:	853e                	mv	a0,a5
20014c9a:	4472                	lw	s0,28(sp)
20014c9c:	6105                	addi	sp,sp,32
20014c9e:	8082                	ret

20014ca0 <__metal_driver_cpu_mcycle_get>:
__metal_driver_cpu_mcycle_get():
/home/nicoladgg/wsFreedomStudio/sifive_hifive1_revb_hello/freedom-metal/src/drivers/riscv_cpu.c:620
20014ca0:	7139                	addi	sp,sp,-64
20014ca2:	de22                	sw	s0,60(sp)
20014ca4:	0080                	addi	s0,sp,64
20014ca6:	fca42623          	sw	a0,-52(s0)
/home/nicoladgg/wsFreedomStudio/sifive_hifive1_revb_hello/freedom-metal/src/drivers/riscv_cpu.c:621
20014caa:	4501                	li	a0,0
20014cac:	4581                	li	a1,0
20014cae:	fea42423          	sw	a0,-24(s0)
20014cb2:	feb42623          	sw	a1,-20(s0)
/home/nicoladgg/wsFreedomStudio/sifive_hifive1_revb_hello/freedom-metal/src/drivers/riscv_cpu.c:627 (discriminator 1)
20014cb6:	b80025f3          	csrr	a1,mcycleh
20014cba:	feb42223          	sw	a1,-28(s0)
/home/nicoladgg/wsFreedomStudio/sifive_hifive1_revb_hello/freedom-metal/src/drivers/riscv_cpu.c:628 (discriminator 1)
20014cbe:	b00025f3          	csrr	a1,mcycle
20014cc2:	feb42023          	sw	a1,-32(s0)
/home/nicoladgg/wsFreedomStudio/sifive_hifive1_revb_hello/freedom-metal/src/drivers/riscv_cpu.c:629 (discriminator 1)
20014cc6:	b80025f3          	csrr	a1,mcycleh
20014cca:	fcb42e23          	sw	a1,-36(s0)
/home/nicoladgg/wsFreedomStudio/sifive_hifive1_revb_hello/freedom-metal/src/drivers/riscv_cpu.c:632 (discriminator 1)
20014cce:	fe442503          	lw	a0,-28(s0)
20014cd2:	fdc42583          	lw	a1,-36(s0)
20014cd6:	feb510e3          	bne	a0,a1,20014cb6 <__metal_driver_cpu_mcycle_get+0x16>
/home/nicoladgg/wsFreedomStudio/sifive_hifive1_revb_hello/freedom-metal/src/drivers/riscv_cpu.c:634
20014cda:	fe442583          	lw	a1,-28(s0)
20014cde:	882e                	mv	a6,a1
20014ce0:	4881                	li	a7,0
20014ce2:	00081793          	slli	a5,a6,0x0
20014ce6:	4701                	li	a4,0
20014ce8:	fe042583          	lw	a1,-32(s0)
20014cec:	862e                	mv	a2,a1
20014cee:	4681                	li	a3,0
20014cf0:	00c765b3          	or	a1,a4,a2
20014cf4:	feb42423          	sw	a1,-24(s0)
20014cf8:	8fd5                	or	a5,a5,a3
20014cfa:	fef42623          	sw	a5,-20(s0)
/home/nicoladgg/wsFreedomStudio/sifive_hifive1_revb_hello/freedom-metal/src/drivers/riscv_cpu.c:639
20014cfe:	fe842703          	lw	a4,-24(s0)
20014d02:	fec42783          	lw	a5,-20(s0)
/home/nicoladgg/wsFreedomStudio/sifive_hifive1_revb_hello/freedom-metal/src/drivers/riscv_cpu.c:640
20014d06:	853a                	mv	a0,a4
20014d08:	85be                	mv	a1,a5
20014d0a:	5472                	lw	s0,60(sp)
20014d0c:	6121                	addi	sp,sp,64
20014d0e:	8082                	ret

20014d10 <__metal_driver_cpu_timebase_get>:
__metal_driver_cpu_timebase_get():
/home/nicoladgg/wsFreedomStudio/sifive_hifive1_revb_hello/freedom-metal/src/drivers/riscv_cpu.c:642
20014d10:	7179                	addi	sp,sp,-48
20014d12:	d606                	sw	ra,44(sp)
20014d14:	d422                	sw	s0,40(sp)
20014d16:	d24a                	sw	s2,36(sp)
20014d18:	d04e                	sw	s3,32(sp)
20014d1a:	1800                	addi	s0,sp,48
20014d1c:	fca42e23          	sw	a0,-36(s0)
/home/nicoladgg/wsFreedomStudio/sifive_hifive1_revb_hello/freedom-metal/src/drivers/riscv_cpu.c:644
20014d20:	fdc42783          	lw	a5,-36(s0)
20014d24:	e781                	bnez	a5,20014d2c <__metal_driver_cpu_timebase_get+0x1c>
/home/nicoladgg/wsFreedomStudio/sifive_hifive1_revb_hello/freedom-metal/src/drivers/riscv_cpu.c:645
20014d26:	4901                	li	s2,0
20014d28:	4981                	li	s3,0
20014d2a:	a821                	j	20014d42 <__metal_driver_cpu_timebase_get+0x32>
/home/nicoladgg/wsFreedomStudio/sifive_hifive1_revb_hello/freedom-metal/src/drivers/riscv_cpu.c:648
20014d2c:	fdc42503          	lw	a0,-36(s0)
20014d30:	9b3fe0ef          	jal	ra,200136e2 <__metal_driver_cpu_timebase>
20014d34:	fea42623          	sw	a0,-20(s0)
/home/nicoladgg/wsFreedomStudio/sifive_hifive1_revb_hello/freedom-metal/src/drivers/riscv_cpu.c:649
20014d38:	fec42783          	lw	a5,-20(s0)
20014d3c:	893e                	mv	s2,a5
20014d3e:	87fd                	srai	a5,a5,0x1f
20014d40:	89be                	mv	s3,a5
/home/nicoladgg/wsFreedomStudio/sifive_hifive1_revb_hello/freedom-metal/src/drivers/riscv_cpu.c:650
20014d42:	874a                	mv	a4,s2
20014d44:	87ce                	mv	a5,s3
20014d46:	853a                	mv	a0,a4
20014d48:	85be                	mv	a1,a5
20014d4a:	50b2                	lw	ra,44(sp)
20014d4c:	5422                	lw	s0,40(sp)
20014d4e:	5912                	lw	s2,36(sp)
20014d50:	5982                	lw	s3,32(sp)
20014d52:	6145                	addi	sp,sp,48
20014d54:	8082                	ret

20014d56 <__metal_driver_cpu_mtime_get>:
__metal_driver_cpu_mtime_get():
/home/nicoladgg/wsFreedomStudio/sifive_hifive1_revb_hello/freedom-metal/src/drivers/riscv_cpu.c:652
20014d56:	7179                	addi	sp,sp,-48
20014d58:	d606                	sw	ra,44(sp)
20014d5a:	d422                	sw	s0,40(sp)
20014d5c:	1800                	addi	s0,sp,48
20014d5e:	fca42e23          	sw	a0,-36(s0)
/home/nicoladgg/wsFreedomStudio/sifive_hifive1_revb_hello/freedom-metal/src/drivers/riscv_cpu.c:653
20014d62:	4781                	li	a5,0
20014d64:	4801                	li	a6,0
20014d66:	fef42023          	sw	a5,-32(s0)
20014d6a:	ff042223          	sw	a6,-28(s0)
/home/nicoladgg/wsFreedomStudio/sifive_hifive1_revb_hello/freedom-metal/src/drivers/riscv_cpu.c:657
20014d6e:	fdc42503          	lw	a0,-36(s0)
20014d72:	99bfe0ef          	jal	ra,2001370c <__metal_driver_cpu_interrupt_controller>
20014d76:	fea42623          	sw	a0,-20(s0)
/home/nicoladgg/wsFreedomStudio/sifive_hifive1_revb_hello/freedom-metal/src/drivers/riscv_cpu.c:659
20014d7a:	fec42783          	lw	a5,-20(s0)
20014d7e:	c78d                	beqz	a5,20014da8 <__metal_driver_cpu_mtime_get+0x52>
/home/nicoladgg/wsFreedomStudio/sifive_hifive1_revb_hello/freedom-metal/src/drivers/riscv_cpu.c:660
20014d80:	fec42783          	lw	a5,-20(s0)
20014d84:	13c7a783          	lw	a5,316(a5)
20014d88:	fef42423          	sw	a5,-24(s0)
/home/nicoladgg/wsFreedomStudio/sifive_hifive1_revb_hello/freedom-metal/src/drivers/riscv_cpu.c:661
20014d8c:	fe842783          	lw	a5,-24(s0)
20014d90:	cf81                	beqz	a5,20014da8 <__metal_driver_cpu_mtime_get+0x52>
/home/nicoladgg/wsFreedomStudio/sifive_hifive1_revb_hello/freedom-metal/src/drivers/riscv_cpu.c:662
20014d92:	fe842783          	lw	a5,-24(s0)
20014d96:	439c                	lw	a5,0(a5)
20014d98:	47f8                	lw	a4,76(a5)
20014d9a:	fe040793          	addi	a5,s0,-32
20014d9e:	863e                	mv	a2,a5
20014da0:	4585                	li	a1,1
20014da2:	fe842503          	lw	a0,-24(s0)
20014da6:	9702                	jalr	a4
/home/nicoladgg/wsFreedomStudio/sifive_hifive1_revb_hello/freedom-metal/src/drivers/riscv_cpu.c:666
20014da8:	fe042703          	lw	a4,-32(s0)
20014dac:	fe442783          	lw	a5,-28(s0)
/home/nicoladgg/wsFreedomStudio/sifive_hifive1_revb_hello/freedom-metal/src/drivers/riscv_cpu.c:667
20014db0:	853a                	mv	a0,a4
20014db2:	85be                	mv	a1,a5
20014db4:	50b2                	lw	ra,44(sp)
20014db6:	5422                	lw	s0,40(sp)
20014db8:	6145                	addi	sp,sp,48
20014dba:	8082                	ret

20014dbc <__metal_driver_cpu_mtimecmp_set>:
__metal_driver_cpu_mtimecmp_set():
/home/nicoladgg/wsFreedomStudio/sifive_hifive1_revb_hello/freedom-metal/src/drivers/riscv_cpu.c:670
20014dbc:	7179                	addi	sp,sp,-48
20014dbe:	d606                	sw	ra,44(sp)
20014dc0:	d422                	sw	s0,40(sp)
20014dc2:	d226                	sw	s1,36(sp)
20014dc4:	1800                	addi	s0,sp,48
20014dc6:	fca42e23          	sw	a0,-36(s0)
20014dca:	fcb42823          	sw	a1,-48(s0)
20014dce:	fcc42a23          	sw	a2,-44(s0)
/home/nicoladgg/wsFreedomStudio/sifive_hifive1_revb_hello/freedom-metal/src/drivers/riscv_cpu.c:671
20014dd2:	57fd                	li	a5,-1
20014dd4:	fef42623          	sw	a5,-20(s0)
/home/nicoladgg/wsFreedomStudio/sifive_hifive1_revb_hello/freedom-metal/src/drivers/riscv_cpu.c:675
20014dd8:	fdc42503          	lw	a0,-36(s0)
20014ddc:	931fe0ef          	jal	ra,2001370c <__metal_driver_cpu_interrupt_controller>
20014de0:	fea42423          	sw	a0,-24(s0)
/home/nicoladgg/wsFreedomStudio/sifive_hifive1_revb_hello/freedom-metal/src/drivers/riscv_cpu.c:677
20014de4:	fe842783          	lw	a5,-24(s0)
20014de8:	cf8d                	beqz	a5,20014e22 <__metal_driver_cpu_mtimecmp_set+0x66>
/home/nicoladgg/wsFreedomStudio/sifive_hifive1_revb_hello/freedom-metal/src/drivers/riscv_cpu.c:678
20014dea:	fe842783          	lw	a5,-24(s0)
20014dee:	13c7a783          	lw	a5,316(a5)
20014df2:	fef42223          	sw	a5,-28(s0)
/home/nicoladgg/wsFreedomStudio/sifive_hifive1_revb_hello/freedom-metal/src/drivers/riscv_cpu.c:679
20014df6:	fe442783          	lw	a5,-28(s0)
20014dfa:	c785                	beqz	a5,20014e22 <__metal_driver_cpu_mtimecmp_set+0x66>
/home/nicoladgg/wsFreedomStudio/sifive_hifive1_revb_hello/freedom-metal/src/drivers/riscv_cpu.c:680
20014dfc:	fe442783          	lw	a5,-28(s0)
20014e00:	439c                	lw	a5,0(a5)
20014e02:	4ba4                	lw	s1,80(a5)
20014e04:	fdc42503          	lw	a0,-36(s0)
20014e08:	8b7fe0ef          	jal	ra,200136be <__metal_driver_cpu_hartid>
20014e0c:	87aa                	mv	a5,a0
20014e0e:	fd042603          	lw	a2,-48(s0)
20014e12:	fd442683          	lw	a3,-44(s0)
20014e16:	85be                	mv	a1,a5
20014e18:	fe442503          	lw	a0,-28(s0)
20014e1c:	9482                	jalr	s1
20014e1e:	fea42623          	sw	a0,-20(s0)
/home/nicoladgg/wsFreedomStudio/sifive_hifive1_revb_hello/freedom-metal/src/drivers/riscv_cpu.c:684
20014e22:	fec42783          	lw	a5,-20(s0)
/home/nicoladgg/wsFreedomStudio/sifive_hifive1_revb_hello/freedom-metal/src/drivers/riscv_cpu.c:685
20014e26:	853e                	mv	a0,a5
20014e28:	50b2                	lw	ra,44(sp)
20014e2a:	5422                	lw	s0,40(sp)
20014e2c:	5492                	lw	s1,36(sp)
20014e2e:	6145                	addi	sp,sp,48
20014e30:	8082                	ret

20014e32 <__metal_driver_cpu_timer_controller_interrupt>:
__metal_driver_cpu_timer_controller_interrupt():
/home/nicoladgg/wsFreedomStudio/sifive_hifive1_revb_hello/freedom-metal/src/drivers/riscv_cpu.c:688
20014e32:	1101                	addi	sp,sp,-32
20014e34:	ce22                	sw	s0,28(sp)
20014e36:	1000                	addi	s0,sp,32
20014e38:	fea42623          	sw	a0,-20(s0)
/home/nicoladgg/wsFreedomStudio/sifive_hifive1_revb_hello/freedom-metal/src/drivers/riscv_cpu.c:690
20014e3c:	81418793          	addi	a5,gp,-2028 # 8000049c <__metal_dt_clint_2000000>
/home/nicoladgg/wsFreedomStudio/sifive_hifive1_revb_hello/freedom-metal/src/drivers/riscv_cpu.c:699
20014e40:	853e                	mv	a0,a5
20014e42:	4472                	lw	s0,28(sp)
20014e44:	6105                	addi	sp,sp,32
20014e46:	8082                	ret

20014e48 <__metal_driver_cpu_get_timer_interrupt_id>:
__metal_driver_cpu_get_timer_interrupt_id():
/home/nicoladgg/wsFreedomStudio/sifive_hifive1_revb_hello/freedom-metal/src/drivers/riscv_cpu.c:701
20014e48:	1101                	addi	sp,sp,-32
20014e4a:	ce22                	sw	s0,28(sp)
20014e4c:	1000                	addi	s0,sp,32
20014e4e:	fea42623          	sw	a0,-20(s0)
/home/nicoladgg/wsFreedomStudio/sifive_hifive1_revb_hello/freedom-metal/src/drivers/riscv_cpu.c:702
20014e52:	479d                	li	a5,7
/home/nicoladgg/wsFreedomStudio/sifive_hifive1_revb_hello/freedom-metal/src/drivers/riscv_cpu.c:703
20014e54:	853e                	mv	a0,a5
20014e56:	4472                	lw	s0,28(sp)
20014e58:	6105                	addi	sp,sp,32
20014e5a:	8082                	ret

20014e5c <__metal_driver_cpu_sw_controller_interrupt>:
__metal_driver_cpu_sw_controller_interrupt():
/home/nicoladgg/wsFreedomStudio/sifive_hifive1_revb_hello/freedom-metal/src/drivers/riscv_cpu.c:706
20014e5c:	1101                	addi	sp,sp,-32
20014e5e:	ce22                	sw	s0,28(sp)
20014e60:	1000                	addi	s0,sp,32
20014e62:	fea42623          	sw	a0,-20(s0)
/home/nicoladgg/wsFreedomStudio/sifive_hifive1_revb_hello/freedom-metal/src/drivers/riscv_cpu.c:708
20014e66:	81418793          	addi	a5,gp,-2028 # 8000049c <__metal_dt_clint_2000000>
/home/nicoladgg/wsFreedomStudio/sifive_hifive1_revb_hello/freedom-metal/src/drivers/riscv_cpu.c:717
20014e6a:	853e                	mv	a0,a5
20014e6c:	4472                	lw	s0,28(sp)
20014e6e:	6105                	addi	sp,sp,32
20014e70:	8082                	ret

20014e72 <__metal_driver_cpu_get_sw_interrupt_id>:
__metal_driver_cpu_get_sw_interrupt_id():
/home/nicoladgg/wsFreedomStudio/sifive_hifive1_revb_hello/freedom-metal/src/drivers/riscv_cpu.c:719
20014e72:	1101                	addi	sp,sp,-32
20014e74:	ce22                	sw	s0,28(sp)
20014e76:	1000                	addi	s0,sp,32
20014e78:	fea42623          	sw	a0,-20(s0)
/home/nicoladgg/wsFreedomStudio/sifive_hifive1_revb_hello/freedom-metal/src/drivers/riscv_cpu.c:720
20014e7c:	478d                	li	a5,3
/home/nicoladgg/wsFreedomStudio/sifive_hifive1_revb_hello/freedom-metal/src/drivers/riscv_cpu.c:721
20014e7e:	853e                	mv	a0,a5
20014e80:	4472                	lw	s0,28(sp)
20014e82:	6105                	addi	sp,sp,32
20014e84:	8082                	ret

20014e86 <__metal_driver_cpu_set_sw_ipi>:
__metal_driver_cpu_set_sw_ipi():
/home/nicoladgg/wsFreedomStudio/sifive_hifive1_revb_hello/freedom-metal/src/drivers/riscv_cpu.c:723
20014e86:	7179                	addi	sp,sp,-48
20014e88:	d606                	sw	ra,44(sp)
20014e8a:	d422                	sw	s0,40(sp)
20014e8c:	1800                	addi	s0,sp,48
20014e8e:	fca42e23          	sw	a0,-36(s0)
20014e92:	fcb42c23          	sw	a1,-40(s0)
/home/nicoladgg/wsFreedomStudio/sifive_hifive1_revb_hello/freedom-metal/src/drivers/riscv_cpu.c:724
20014e96:	57fd                	li	a5,-1
20014e98:	fef42623          	sw	a5,-20(s0)
/home/nicoladgg/wsFreedomStudio/sifive_hifive1_revb_hello/freedom-metal/src/drivers/riscv_cpu.c:728
20014e9c:	fdc42503          	lw	a0,-36(s0)
20014ea0:	86dfe0ef          	jal	ra,2001370c <__metal_driver_cpu_interrupt_controller>
20014ea4:	fea42423          	sw	a0,-24(s0)
/home/nicoladgg/wsFreedomStudio/sifive_hifive1_revb_hello/freedom-metal/src/drivers/riscv_cpu.c:730
20014ea8:	fe842783          	lw	a5,-24(s0)
20014eac:	c79d                	beqz	a5,20014eda <__metal_driver_cpu_set_sw_ipi+0x54>
/home/nicoladgg/wsFreedomStudio/sifive_hifive1_revb_hello/freedom-metal/src/drivers/riscv_cpu.c:731
20014eae:	fe842783          	lw	a5,-24(s0)
20014eb2:	0dc7a783          	lw	a5,220(a5)
20014eb6:	fef42223          	sw	a5,-28(s0)
/home/nicoladgg/wsFreedomStudio/sifive_hifive1_revb_hello/freedom-metal/src/drivers/riscv_cpu.c:732
20014eba:	fe442783          	lw	a5,-28(s0)
20014ebe:	cf91                	beqz	a5,20014eda <__metal_driver_cpu_set_sw_ipi+0x54>
/home/nicoladgg/wsFreedomStudio/sifive_hifive1_revb_hello/freedom-metal/src/drivers/riscv_cpu.c:733
20014ec0:	fe442783          	lw	a5,-28(s0)
20014ec4:	439c                	lw	a5,0(a5)
20014ec6:	47f8                	lw	a4,76(a5)
20014ec8:	fd840793          	addi	a5,s0,-40
20014ecc:	863e                	mv	a2,a5
20014ece:	458d                	li	a1,3
20014ed0:	fe442503          	lw	a0,-28(s0)
20014ed4:	9702                	jalr	a4
20014ed6:	fea42623          	sw	a0,-20(s0)
/home/nicoladgg/wsFreedomStudio/sifive_hifive1_revb_hello/freedom-metal/src/drivers/riscv_cpu.c:737
20014eda:	fec42783          	lw	a5,-20(s0)
/home/nicoladgg/wsFreedomStudio/sifive_hifive1_revb_hello/freedom-metal/src/drivers/riscv_cpu.c:738
20014ede:	853e                	mv	a0,a5
20014ee0:	50b2                	lw	ra,44(sp)
20014ee2:	5422                	lw	s0,40(sp)
20014ee4:	6145                	addi	sp,sp,48
20014ee6:	8082                	ret

20014ee8 <__metal_driver_cpu_clear_sw_ipi>:
__metal_driver_cpu_clear_sw_ipi():
/home/nicoladgg/wsFreedomStudio/sifive_hifive1_revb_hello/freedom-metal/src/drivers/riscv_cpu.c:740
20014ee8:	7179                	addi	sp,sp,-48
20014eea:	d606                	sw	ra,44(sp)
20014eec:	d422                	sw	s0,40(sp)
20014eee:	1800                	addi	s0,sp,48
20014ef0:	fca42e23          	sw	a0,-36(s0)
20014ef4:	fcb42c23          	sw	a1,-40(s0)
/home/nicoladgg/wsFreedomStudio/sifive_hifive1_revb_hello/freedom-metal/src/drivers/riscv_cpu.c:741
20014ef8:	57fd                	li	a5,-1
20014efa:	fef42623          	sw	a5,-20(s0)
/home/nicoladgg/wsFreedomStudio/sifive_hifive1_revb_hello/freedom-metal/src/drivers/riscv_cpu.c:745
20014efe:	fdc42503          	lw	a0,-36(s0)
20014f02:	80bfe0ef          	jal	ra,2001370c <__metal_driver_cpu_interrupt_controller>
20014f06:	fea42423          	sw	a0,-24(s0)
/home/nicoladgg/wsFreedomStudio/sifive_hifive1_revb_hello/freedom-metal/src/drivers/riscv_cpu.c:747
20014f0a:	fe842783          	lw	a5,-24(s0)
20014f0e:	c79d                	beqz	a5,20014f3c <__metal_driver_cpu_clear_sw_ipi+0x54>
/home/nicoladgg/wsFreedomStudio/sifive_hifive1_revb_hello/freedom-metal/src/drivers/riscv_cpu.c:748
20014f10:	fe842783          	lw	a5,-24(s0)
20014f14:	0dc7a783          	lw	a5,220(a5)
20014f18:	fef42223          	sw	a5,-28(s0)
/home/nicoladgg/wsFreedomStudio/sifive_hifive1_revb_hello/freedom-metal/src/drivers/riscv_cpu.c:749
20014f1c:	fe442783          	lw	a5,-28(s0)
20014f20:	cf91                	beqz	a5,20014f3c <__metal_driver_cpu_clear_sw_ipi+0x54>
/home/nicoladgg/wsFreedomStudio/sifive_hifive1_revb_hello/freedom-metal/src/drivers/riscv_cpu.c:750
20014f22:	fe442783          	lw	a5,-28(s0)
20014f26:	439c                	lw	a5,0(a5)
20014f28:	47f8                	lw	a4,76(a5)
20014f2a:	fd840793          	addi	a5,s0,-40
20014f2e:	863e                	mv	a2,a5
20014f30:	4589                	li	a1,2
20014f32:	fe442503          	lw	a0,-28(s0)
20014f36:	9702                	jalr	a4
20014f38:	fea42623          	sw	a0,-20(s0)
/home/nicoladgg/wsFreedomStudio/sifive_hifive1_revb_hello/freedom-metal/src/drivers/riscv_cpu.c:754
20014f3c:	fec42783          	lw	a5,-20(s0)
/home/nicoladgg/wsFreedomStudio/sifive_hifive1_revb_hello/freedom-metal/src/drivers/riscv_cpu.c:755
20014f40:	853e                	mv	a0,a5
20014f42:	50b2                	lw	ra,44(sp)
20014f44:	5422                	lw	s0,40(sp)
20014f46:	6145                	addi	sp,sp,48
20014f48:	8082                	ret

20014f4a <__metal_driver_cpu_get_msip>:
__metal_driver_cpu_get_msip():
/home/nicoladgg/wsFreedomStudio/sifive_hifive1_revb_hello/freedom-metal/src/drivers/riscv_cpu.c:757
20014f4a:	7179                	addi	sp,sp,-48
20014f4c:	d606                	sw	ra,44(sp)
20014f4e:	d422                	sw	s0,40(sp)
20014f50:	1800                	addi	s0,sp,48
20014f52:	fca42e23          	sw	a0,-36(s0)
20014f56:	fcb42c23          	sw	a1,-40(s0)
/home/nicoladgg/wsFreedomStudio/sifive_hifive1_revb_hello/freedom-metal/src/drivers/riscv_cpu.c:758
20014f5a:	fe042623          	sw	zero,-20(s0)
/home/nicoladgg/wsFreedomStudio/sifive_hifive1_revb_hello/freedom-metal/src/drivers/riscv_cpu.c:762
20014f5e:	fdc42503          	lw	a0,-36(s0)
20014f62:	faafe0ef          	jal	ra,2001370c <__metal_driver_cpu_interrupt_controller>
20014f66:	fea42423          	sw	a0,-24(s0)
/home/nicoladgg/wsFreedomStudio/sifive_hifive1_revb_hello/freedom-metal/src/drivers/riscv_cpu.c:764
20014f6a:	fe842783          	lw	a5,-24(s0)
20014f6e:	c79d                	beqz	a5,20014f9c <__metal_driver_cpu_get_msip+0x52>
/home/nicoladgg/wsFreedomStudio/sifive_hifive1_revb_hello/freedom-metal/src/drivers/riscv_cpu.c:765
20014f70:	fe842783          	lw	a5,-24(s0)
20014f74:	0dc7a783          	lw	a5,220(a5)
20014f78:	fef42223          	sw	a5,-28(s0)
/home/nicoladgg/wsFreedomStudio/sifive_hifive1_revb_hello/freedom-metal/src/drivers/riscv_cpu.c:766
20014f7c:	fe442783          	lw	a5,-28(s0)
20014f80:	cf91                	beqz	a5,20014f9c <__metal_driver_cpu_get_msip+0x52>
/home/nicoladgg/wsFreedomStudio/sifive_hifive1_revb_hello/freedom-metal/src/drivers/riscv_cpu.c:767
20014f82:	fe442783          	lw	a5,-28(s0)
20014f86:	439c                	lw	a5,0(a5)
20014f88:	47f8                	lw	a4,76(a5)
20014f8a:	fd840793          	addi	a5,s0,-40
20014f8e:	863e                	mv	a2,a5
20014f90:	4591                	li	a1,4
20014f92:	fe442503          	lw	a0,-28(s0)
20014f96:	9702                	jalr	a4
20014f98:	fea42623          	sw	a0,-20(s0)
/home/nicoladgg/wsFreedomStudio/sifive_hifive1_revb_hello/freedom-metal/src/drivers/riscv_cpu.c:771
20014f9c:	fec42783          	lw	a5,-20(s0)
/home/nicoladgg/wsFreedomStudio/sifive_hifive1_revb_hello/freedom-metal/src/drivers/riscv_cpu.c:772
20014fa0:	853e                	mv	a0,a5
20014fa2:	50b2                	lw	ra,44(sp)
20014fa4:	5422                	lw	s0,40(sp)
20014fa6:	6145                	addi	sp,sp,48
20014fa8:	8082                	ret

20014faa <__metal_driver_cpu_controller_interrupt>:
__metal_driver_cpu_controller_interrupt():
/home/nicoladgg/wsFreedomStudio/sifive_hifive1_revb_hello/freedom-metal/src/drivers/riscv_cpu.c:775
20014faa:	1101                	addi	sp,sp,-32
20014fac:	ce06                	sw	ra,28(sp)
20014fae:	cc22                	sw	s0,24(sp)
20014fb0:	1000                	addi	s0,sp,32
20014fb2:	fea42623          	sw	a0,-20(s0)
/home/nicoladgg/wsFreedomStudio/sifive_hifive1_revb_hello/freedom-metal/src/drivers/riscv_cpu.c:776
20014fb6:	fec42503          	lw	a0,-20(s0)
20014fba:	f52fe0ef          	jal	ra,2001370c <__metal_driver_cpu_interrupt_controller>
20014fbe:	87aa                	mv	a5,a0
/home/nicoladgg/wsFreedomStudio/sifive_hifive1_revb_hello/freedom-metal/src/drivers/riscv_cpu.c:777
20014fc0:	853e                	mv	a0,a5
20014fc2:	40f2                	lw	ra,28(sp)
20014fc4:	4462                	lw	s0,24(sp)
20014fc6:	6105                	addi	sp,sp,32
20014fc8:	8082                	ret

20014fca <__metal_driver_cpu_exception_register>:
__metal_driver_cpu_exception_register():
/home/nicoladgg/wsFreedomStudio/sifive_hifive1_revb_hello/freedom-metal/src/drivers/riscv_cpu.c:798
20014fca:	7179                	addi	sp,sp,-48
20014fcc:	d606                	sw	ra,44(sp)
20014fce:	d422                	sw	s0,40(sp)
20014fd0:	1800                	addi	s0,sp,48
20014fd2:	fca42e23          	sw	a0,-36(s0)
20014fd6:	fcb42c23          	sw	a1,-40(s0)
20014fda:	fcc42a23          	sw	a2,-44(s0)
/home/nicoladgg/wsFreedomStudio/sifive_hifive1_revb_hello/freedom-metal/src/drivers/riscv_cpu.c:801
20014fde:	fdc42503          	lw	a0,-36(s0)
20014fe2:	f2afe0ef          	jal	ra,2001370c <__metal_driver_cpu_interrupt_controller>
20014fe6:	fea42623          	sw	a0,-20(s0)
/home/nicoladgg/wsFreedomStudio/sifive_hifive1_revb_hello/freedom-metal/src/drivers/riscv_cpu.c:803
20014fea:	fec42783          	lw	a5,-20(s0)
20014fee:	cb99                	beqz	a5,20015004 <__metal_driver_cpu_exception_register+0x3a>
/home/nicoladgg/wsFreedomStudio/sifive_hifive1_revb_hello/freedom-metal/src/drivers/riscv_cpu.c:804
20014ff0:	fd442603          	lw	a2,-44(s0)
20014ff4:	fd842583          	lw	a1,-40(s0)
20014ff8:	fec42503          	lw	a0,-20(s0)
20014ffc:	8b5ff0ef          	jal	ra,200148b0 <__metal_exception_register>
20015000:	87aa                	mv	a5,a0
20015002:	a011                	j	20015006 <__metal_driver_cpu_exception_register+0x3c>
/home/nicoladgg/wsFreedomStudio/sifive_hifive1_revb_hello/freedom-metal/src/drivers/riscv_cpu.c:807
20015004:	57fd                	li	a5,-1
/home/nicoladgg/wsFreedomStudio/sifive_hifive1_revb_hello/freedom-metal/src/drivers/riscv_cpu.c:808
20015006:	853e                	mv	a0,a5
20015008:	50b2                	lw	ra,44(sp)
2001500a:	5422                	lw	s0,40(sp)
2001500c:	6145                	addi	sp,sp,48
2001500e:	8082                	ret

20015010 <__metal_driver_cpu_get_instruction_length>:
__metal_driver_cpu_get_instruction_length():
/home/nicoladgg/wsFreedomStudio/sifive_hifive1_revb_hello/freedom-metal/src/drivers/riscv_cpu.c:811
20015010:	1101                	addi	sp,sp,-32
20015012:	ce22                	sw	s0,28(sp)
20015014:	1000                	addi	s0,sp,32
20015016:	fea42623          	sw	a0,-20(s0)
2001501a:	feb42423          	sw	a1,-24(s0)
/home/nicoladgg/wsFreedomStudio/sifive_hifive1_revb_hello/freedom-metal/src/drivers/riscv_cpu.c:817
2001501e:	fe842783          	lw	a5,-24(s0)
20015022:	0007d783          	lhu	a5,0(a5)
20015026:	0037f713          	andi	a4,a5,3
/home/nicoladgg/wsFreedomStudio/sifive_hifive1_revb_hello/freedom-metal/src/drivers/riscv_cpu.c:820
2001502a:	478d                	li	a5,3
2001502c:	00f71463          	bne	a4,a5,20015034 <__metal_driver_cpu_get_instruction_length+0x24>
/home/nicoladgg/wsFreedomStudio/sifive_hifive1_revb_hello/freedom-metal/src/drivers/riscv_cpu.c:820 (discriminator 1)
20015030:	4791                	li	a5,4
20015032:	a011                	j	20015036 <__metal_driver_cpu_get_instruction_length+0x26>
/home/nicoladgg/wsFreedomStudio/sifive_hifive1_revb_hello/freedom-metal/src/drivers/riscv_cpu.c:820 (discriminator 2)
20015034:	4789                	li	a5,2
/home/nicoladgg/wsFreedomStudio/sifive_hifive1_revb_hello/freedom-metal/src/drivers/riscv_cpu.c:821 (discriminator 5)
20015036:	853e                	mv	a0,a5
20015038:	4472                	lw	s0,28(sp)
2001503a:	6105                	addi	sp,sp,32
2001503c:	8082                	ret

2001503e <__metal_driver_cpu_get_exception_pc>:
__metal_driver_cpu_get_exception_pc():
/home/nicoladgg/wsFreedomStudio/sifive_hifive1_revb_hello/freedom-metal/src/drivers/riscv_cpu.c:823
2001503e:	7179                	addi	sp,sp,-48
20015040:	d622                	sw	s0,44(sp)
20015042:	1800                	addi	s0,sp,48
20015044:	fca42e23          	sw	a0,-36(s0)
/home/nicoladgg/wsFreedomStudio/sifive_hifive1_revb_hello/freedom-metal/src/drivers/riscv_cpu.c:825
20015048:	341027f3          	csrr	a5,mepc
2001504c:	fef42623          	sw	a5,-20(s0)
/home/nicoladgg/wsFreedomStudio/sifive_hifive1_revb_hello/freedom-metal/src/drivers/riscv_cpu.c:826
20015050:	fec42783          	lw	a5,-20(s0)
/home/nicoladgg/wsFreedomStudio/sifive_hifive1_revb_hello/freedom-metal/src/drivers/riscv_cpu.c:827
20015054:	853e                	mv	a0,a5
20015056:	5432                	lw	s0,44(sp)
20015058:	6145                	addi	sp,sp,48
2001505a:	8082                	ret

2001505c <__metal_driver_cpu_set_exception_pc>:
__metal_driver_cpu_set_exception_pc():
/home/nicoladgg/wsFreedomStudio/sifive_hifive1_revb_hello/freedom-metal/src/drivers/riscv_cpu.c:829
2001505c:	1101                	addi	sp,sp,-32
2001505e:	ce22                	sw	s0,28(sp)
20015060:	1000                	addi	s0,sp,32
20015062:	fea42623          	sw	a0,-20(s0)
20015066:	feb42423          	sw	a1,-24(s0)
/home/nicoladgg/wsFreedomStudio/sifive_hifive1_revb_hello/freedom-metal/src/drivers/riscv_cpu.c:830
2001506a:	fe842783          	lw	a5,-24(s0)
2001506e:	34179073          	csrw	mepc,a5
/home/nicoladgg/wsFreedomStudio/sifive_hifive1_revb_hello/freedom-metal/src/drivers/riscv_cpu.c:831
20015072:	4781                	li	a5,0
/home/nicoladgg/wsFreedomStudio/sifive_hifive1_revb_hello/freedom-metal/src/drivers/riscv_cpu.c:832
20015074:	853e                	mv	a0,a5
20015076:	4472                	lw	s0,28(sp)
20015078:	6105                	addi	sp,sp,32
2001507a:	8082                	ret

2001507c <__metal_driver_cpu_get_buserror>:
__metal_driver_cpu_get_buserror():
/home/nicoladgg/wsFreedomStudio/sifive_hifive1_revb_hello/freedom-metal/src/drivers/riscv_cpu.c:834
2001507c:	1101                	addi	sp,sp,-32
2001507e:	ce06                	sw	ra,28(sp)
20015080:	cc22                	sw	s0,24(sp)
20015082:	1000                	addi	s0,sp,32
20015084:	fea42623          	sw	a0,-20(s0)
/home/nicoladgg/wsFreedomStudio/sifive_hifive1_revb_hello/freedom-metal/src/drivers/riscv_cpu.c:835
20015088:	fec42503          	lw	a0,-20(s0)
2001508c:	eaafe0ef          	jal	ra,20013736 <__metal_driver_cpu_buserror>
20015090:	87aa                	mv	a5,a0
/home/nicoladgg/wsFreedomStudio/sifive_hifive1_revb_hello/freedom-metal/src/drivers/riscv_cpu.c:836
20015092:	853e                	mv	a0,a5
20015094:	40f2                	lw	ra,28(sp)
20015096:	4462                	lw	s0,24(sp)
20015098:	6105                	addi	sp,sp,32
2001509a:	8082                	ret

2001509c <__metal_driver_sifive_fe310_g000_hfrosc_ref>:
__metal_driver_sifive_fe310_g000_hfrosc_ref():
/home/nicoladgg/wsFreedomStudio/sifive_hifive1_revb_hello/bsp/build/debug/./metal/machine.h:1242
2001509c:	1101                	addi	sp,sp,-32
2001509e:	ce22                	sw	s0,28(sp)
200150a0:	1000                	addi	s0,sp,32
200150a2:	fea42623          	sw	a0,-20(s0)
/home/nicoladgg/wsFreedomStudio/sifive_hifive1_revb_hello/bsp/build/debug/./metal/machine.h:1243
200150a6:	800007b7          	lui	a5,0x80000
200150aa:	06c78793          	addi	a5,a5,108 # 8000006c <__global_pointer$+0xfffff3e4>
/home/nicoladgg/wsFreedomStudio/sifive_hifive1_revb_hello/bsp/build/debug/./metal/machine.h:1244
200150ae:	853e                	mv	a0,a5
200150b0:	4472                	lw	s0,28(sp)
200150b2:	6105                	addi	sp,sp,32
200150b4:	8082                	ret

200150b6 <__metal_driver_sifive_fe310_g000_hfrosc_config_base>:
__metal_driver_sifive_fe310_g000_hfrosc_config_base():
/home/nicoladgg/wsFreedomStudio/sifive_hifive1_revb_hello/bsp/build/debug/./metal/machine.h:1247
200150b6:	1101                	addi	sp,sp,-32
200150b8:	ce22                	sw	s0,28(sp)
200150ba:	1000                	addi	s0,sp,32
200150bc:	fea42623          	sw	a0,-20(s0)
/home/nicoladgg/wsFreedomStudio/sifive_hifive1_revb_hello/bsp/build/debug/./metal/machine.h:1248
200150c0:	82418793          	addi	a5,gp,-2012 # 800004ac <__metal_dt_prci_10008000>
/home/nicoladgg/wsFreedomStudio/sifive_hifive1_revb_hello/bsp/build/debug/./metal/machine.h:1249
200150c4:	853e                	mv	a0,a5
200150c6:	4472                	lw	s0,28(sp)
200150c8:	6105                	addi	sp,sp,32
200150ca:	8082                	ret

200150cc <__metal_driver_sifive_fe310_g000_hfrosc_config_offset>:
__metal_driver_sifive_fe310_g000_hfrosc_config_offset():
/home/nicoladgg/wsFreedomStudio/sifive_hifive1_revb_hello/bsp/build/debug/./metal/machine.h:1257
200150cc:	1101                	addi	sp,sp,-32
200150ce:	ce22                	sw	s0,28(sp)
200150d0:	1000                	addi	s0,sp,32
200150d2:	fea42623          	sw	a0,-20(s0)
/home/nicoladgg/wsFreedomStudio/sifive_hifive1_revb_hello/bsp/build/debug/./metal/machine.h:1258
200150d6:	4781                	li	a5,0
/home/nicoladgg/wsFreedomStudio/sifive_hifive1_revb_hello/bsp/build/debug/./metal/machine.h:1259
200150d8:	853e                	mv	a0,a5
200150da:	4472                	lw	s0,28(sp)
200150dc:	6105                	addi	sp,sp,32
200150de:	8082                	ret

200150e0 <__metal_driver_sifive_fe310_g000_prci_vtable>:
__metal_driver_sifive_fe310_g000_prci_vtable():
/home/nicoladgg/wsFreedomStudio/sifive_hifive1_revb_hello/bsp/build/debug/./metal/machine.h:1374
200150e0:	1141                	addi	sp,sp,-16
200150e2:	c622                	sw	s0,12(sp)
200150e4:	0800                	addi	s0,sp,16
/home/nicoladgg/wsFreedomStudio/sifive_hifive1_revb_hello/bsp/build/debug/./metal/machine.h:1375
200150e6:	200117b7          	lui	a5,0x20011
200150ea:	f0478793          	addi	a5,a5,-252 # 20010f04 <__metal_driver_vtable_sifive_fe310_g000_prci>
/home/nicoladgg/wsFreedomStudio/sifive_hifive1_revb_hello/bsp/build/debug/./metal/machine.h:1376
200150ee:	853e                	mv	a0,a5
200150f0:	4432                	lw	s0,12(sp)
200150f2:	0141                	addi	sp,sp,16
200150f4:	8082                	ret

200150f6 <__metal_driver_sifive_fe310_g000_hfrosc_get_rate_hz>:
__metal_driver_sifive_fe310_g000_hfrosc_get_rate_hz():
/home/nicoladgg/wsFreedomStudio/sifive_hifive1_revb_hello/freedom-metal/src/drivers/sifive_fe310-g000_hfrosc.c:17
200150f6:	7139                	addi	sp,sp,-64
200150f8:	de06                	sw	ra,60(sp)
200150fa:	dc22                	sw	s0,56(sp)
200150fc:	0080                	addi	s0,sp,64
200150fe:	fca42623          	sw	a0,-52(s0)
/home/nicoladgg/wsFreedomStudio/sifive_hifive1_revb_hello/freedom-metal/src/drivers/sifive_fe310-g000_hfrosc.c:19
20015102:	fcc42503          	lw	a0,-52(s0)
20015106:	3f59                	jal	2001509c <__metal_driver_sifive_fe310_g000_hfrosc_ref>
20015108:	fea42623          	sw	a0,-20(s0)
/home/nicoladgg/wsFreedomStudio/sifive_hifive1_revb_hello/freedom-metal/src/drivers/sifive_fe310-g000_hfrosc.c:21
2001510c:	fcc42503          	lw	a0,-52(s0)
20015110:	3f75                	jal	200150cc <__metal_driver_sifive_fe310_g000_hfrosc_config_offset>
20015112:	fea42423          	sw	a0,-24(s0)
/home/nicoladgg/wsFreedomStudio/sifive_hifive1_revb_hello/freedom-metal/src/drivers/sifive_fe310-g000_hfrosc.c:23
20015116:	fcc42503          	lw	a0,-52(s0)
2001511a:	3f71                	jal	200150b6 <__metal_driver_sifive_fe310_g000_hfrosc_config_base>
2001511c:	fea42223          	sw	a0,-28(s0)
/home/nicoladgg/wsFreedomStudio/sifive_hifive1_revb_hello/freedom-metal/src/drivers/sifive_fe310-g000_hfrosc.c:25
20015120:	37c1                	jal	200150e0 <__metal_driver_sifive_fe310_g000_prci_vtable>
20015122:	fea42023          	sw	a0,-32(s0)
/home/nicoladgg/wsFreedomStudio/sifive_hifive1_revb_hello/freedom-metal/src/drivers/sifive_fe310-g000_hfrosc.c:26
20015126:	fe042783          	lw	a5,-32(s0)
2001512a:	439c                	lw	a5,0(a5)
2001512c:	fe842583          	lw	a1,-24(s0)
20015130:	fe442503          	lw	a0,-28(s0)
20015134:	9782                	jalr	a5
20015136:	fca42e23          	sw	a0,-36(s0)
/home/nicoladgg/wsFreedomStudio/sifive_hifive1_revb_hello/freedom-metal/src/drivers/sifive_fe310-g000_hfrosc.c:28
2001513a:	fdc42703          	lw	a4,-36(s0)
2001513e:	400007b7          	lui	a5,0x40000
20015142:	8ff9                	and	a5,a5,a4
20015144:	e399                	bnez	a5,2001514a <__metal_driver_sifive_fe310_g000_hfrosc_get_rate_hz+0x54>
/home/nicoladgg/wsFreedomStudio/sifive_hifive1_revb_hello/freedom-metal/src/drivers/sifive_fe310-g000_hfrosc.c:29
20015146:	57fd                	li	a5,-1
20015148:	a025                	j	20015170 <__metal_driver_sifive_fe310_g000_hfrosc_get_rate_hz+0x7a>
/home/nicoladgg/wsFreedomStudio/sifive_hifive1_revb_hello/freedom-metal/src/drivers/sifive_fe310-g000_hfrosc.c:30
2001514a:	fdc42783          	lw	a5,-36(s0)
2001514e:	0007c463          	bltz	a5,20015156 <__metal_driver_sifive_fe310_g000_hfrosc_get_rate_hz+0x60>
/home/nicoladgg/wsFreedomStudio/sifive_hifive1_revb_hello/freedom-metal/src/drivers/sifive_fe310-g000_hfrosc.c:31
20015152:	57fd                	li	a5,-1
20015154:	a831                	j	20015170 <__metal_driver_sifive_fe310_g000_hfrosc_get_rate_hz+0x7a>
/home/nicoladgg/wsFreedomStudio/sifive_hifive1_revb_hello/freedom-metal/src/drivers/sifive_fe310-g000_hfrosc.c:32
20015156:	fec42503          	lw	a0,-20(s0)
2001515a:	0b7000ef          	jal	ra,20015a10 <metal_clock_get_rate_hz>
2001515e:	87aa                	mv	a5,a0
20015160:	873e                	mv	a4,a5
20015162:	fdc42783          	lw	a5,-36(s0)
20015166:	03f7f793          	andi	a5,a5,63
2001516a:	0785                	addi	a5,a5,1
2001516c:	02f757b3          	divu	a5,a4,a5
/home/nicoladgg/wsFreedomStudio/sifive_hifive1_revb_hello/freedom-metal/src/drivers/sifive_fe310-g000_hfrosc.c:33
20015170:	853e                	mv	a0,a5
20015172:	50f2                	lw	ra,60(sp)
20015174:	5462                	lw	s0,56(sp)
20015176:	6121                	addi	sp,sp,64
20015178:	8082                	ret

2001517a <__metal_driver_sifive_fe310_g000_hfrosc_set_rate_hz>:
__metal_driver_sifive_fe310_g000_hfrosc_set_rate_hz():
/home/nicoladgg/wsFreedomStudio/sifive_hifive1_revb_hello/freedom-metal/src/drivers/sifive_fe310-g000_hfrosc.c:36
2001517a:	1101                	addi	sp,sp,-32
2001517c:	ce06                	sw	ra,28(sp)
2001517e:	cc22                	sw	s0,24(sp)
20015180:	1000                	addi	s0,sp,32
20015182:	fea42623          	sw	a0,-20(s0)
20015186:	feb42423          	sw	a1,-24(s0)
/home/nicoladgg/wsFreedomStudio/sifive_hifive1_revb_hello/freedom-metal/src/drivers/sifive_fe310-g000_hfrosc.c:37
2001518a:	fec42503          	lw	a0,-20(s0)
2001518e:	37a5                	jal	200150f6 <__metal_driver_sifive_fe310_g000_hfrosc_get_rate_hz>
20015190:	87aa                	mv	a5,a0
/home/nicoladgg/wsFreedomStudio/sifive_hifive1_revb_hello/freedom-metal/src/drivers/sifive_fe310-g000_hfrosc.c:38
20015192:	853e                	mv	a0,a5
20015194:	40f2                	lw	ra,28(sp)
20015196:	4462                	lw	s0,24(sp)
20015198:	6105                	addi	sp,sp,32
2001519a:	8082                	ret

2001519c <__metal_driver_sifive_fe310_g000_hfxosc_ref>:
__metal_driver_sifive_fe310_g000_hfxosc_ref():
/home/nicoladgg/wsFreedomStudio/sifive_hifive1_revb_hello/bsp/build/debug/./metal/machine.h:1265
2001519c:	1101                	addi	sp,sp,-32
2001519e:	ce22                	sw	s0,28(sp)
200151a0:	1000                	addi	s0,sp,32
200151a2:	fea42623          	sw	a0,-20(s0)
/home/nicoladgg/wsFreedomStudio/sifive_hifive1_revb_hello/bsp/build/debug/./metal/machine.h:1266
200151a6:	800007b7          	lui	a5,0x80000
200151aa:	06078793          	addi	a5,a5,96 # 80000060 <__global_pointer$+0xfffff3d8>
/home/nicoladgg/wsFreedomStudio/sifive_hifive1_revb_hello/bsp/build/debug/./metal/machine.h:1267
200151ae:	853e                	mv	a0,a5
200151b0:	4472                	lw	s0,28(sp)
200151b2:	6105                	addi	sp,sp,32
200151b4:	8082                	ret

200151b6 <__metal_driver_sifive_fe310_g000_hfxosc_config_base>:
__metal_driver_sifive_fe310_g000_hfxosc_config_base():
/home/nicoladgg/wsFreedomStudio/sifive_hifive1_revb_hello/bsp/build/debug/./metal/machine.h:1270
200151b6:	1101                	addi	sp,sp,-32
200151b8:	ce22                	sw	s0,28(sp)
200151ba:	1000                	addi	s0,sp,32
200151bc:	fea42623          	sw	a0,-20(s0)
/home/nicoladgg/wsFreedomStudio/sifive_hifive1_revb_hello/bsp/build/debug/./metal/machine.h:1271
200151c0:	82418793          	addi	a5,gp,-2012 # 800004ac <__metal_dt_prci_10008000>
/home/nicoladgg/wsFreedomStudio/sifive_hifive1_revb_hello/bsp/build/debug/./metal/machine.h:1272
200151c4:	853e                	mv	a0,a5
200151c6:	4472                	lw	s0,28(sp)
200151c8:	6105                	addi	sp,sp,32
200151ca:	8082                	ret

200151cc <__metal_driver_sifive_fe310_g000_hfxosc_config_offset>:
__metal_driver_sifive_fe310_g000_hfxosc_config_offset():
/home/nicoladgg/wsFreedomStudio/sifive_hifive1_revb_hello/bsp/build/debug/./metal/machine.h:1275
200151cc:	1101                	addi	sp,sp,-32
200151ce:	ce22                	sw	s0,28(sp)
200151d0:	1000                	addi	s0,sp,32
200151d2:	fea42623          	sw	a0,-20(s0)
/home/nicoladgg/wsFreedomStudio/sifive_hifive1_revb_hello/bsp/build/debug/./metal/machine.h:1276
200151d6:	4791                	li	a5,4
/home/nicoladgg/wsFreedomStudio/sifive_hifive1_revb_hello/bsp/build/debug/./metal/machine.h:1277
200151d8:	853e                	mv	a0,a5
200151da:	4472                	lw	s0,28(sp)
200151dc:	6105                	addi	sp,sp,32
200151de:	8082                	ret

200151e0 <__metal_driver_sifive_fe310_g000_prci_vtable>:
__metal_driver_sifive_fe310_g000_prci_vtable():
/home/nicoladgg/wsFreedomStudio/sifive_hifive1_revb_hello/bsp/build/debug/./metal/machine.h:1374
200151e0:	1141                	addi	sp,sp,-16
200151e2:	c622                	sw	s0,12(sp)
200151e4:	0800                	addi	s0,sp,16
/home/nicoladgg/wsFreedomStudio/sifive_hifive1_revb_hello/bsp/build/debug/./metal/machine.h:1375
200151e6:	200117b7          	lui	a5,0x20011
200151ea:	f0478793          	addi	a5,a5,-252 # 20010f04 <__metal_driver_vtable_sifive_fe310_g000_prci>
/home/nicoladgg/wsFreedomStudio/sifive_hifive1_revb_hello/bsp/build/debug/./metal/machine.h:1376
200151ee:	853e                	mv	a0,a5
200151f0:	4432                	lw	s0,12(sp)
200151f2:	0141                	addi	sp,sp,16
200151f4:	8082                	ret

200151f6 <__metal_driver_sifive_fe310_g000_hfxosc_get_rate_hz>:
__metal_driver_sifive_fe310_g000_hfxosc_get_rate_hz():
/home/nicoladgg/wsFreedomStudio/sifive_hifive1_revb_hello/freedom-metal/src/drivers/sifive_fe310-g000_hfxosc.c:15
200151f6:	7139                	addi	sp,sp,-64
200151f8:	de06                	sw	ra,60(sp)
200151fa:	dc22                	sw	s0,56(sp)
200151fc:	0080                	addi	s0,sp,64
200151fe:	fca42623          	sw	a0,-52(s0)
/home/nicoladgg/wsFreedomStudio/sifive_hifive1_revb_hello/freedom-metal/src/drivers/sifive_fe310-g000_hfxosc.c:17
20015202:	fcc42503          	lw	a0,-52(s0)
20015206:	3f59                	jal	2001519c <__metal_driver_sifive_fe310_g000_hfxosc_ref>
20015208:	fea42623          	sw	a0,-20(s0)
/home/nicoladgg/wsFreedomStudio/sifive_hifive1_revb_hello/freedom-metal/src/drivers/sifive_fe310-g000_hfxosc.c:19
2001520c:	fcc42503          	lw	a0,-52(s0)
20015210:	3f75                	jal	200151cc <__metal_driver_sifive_fe310_g000_hfxosc_config_offset>
20015212:	fea42423          	sw	a0,-24(s0)
/home/nicoladgg/wsFreedomStudio/sifive_hifive1_revb_hello/freedom-metal/src/drivers/sifive_fe310-g000_hfxosc.c:21
20015216:	fcc42503          	lw	a0,-52(s0)
2001521a:	3f71                	jal	200151b6 <__metal_driver_sifive_fe310_g000_hfxosc_config_base>
2001521c:	fea42223          	sw	a0,-28(s0)
/home/nicoladgg/wsFreedomStudio/sifive_hifive1_revb_hello/freedom-metal/src/drivers/sifive_fe310-g000_hfxosc.c:23
20015220:	37c1                	jal	200151e0 <__metal_driver_sifive_fe310_g000_prci_vtable>
20015222:	fea42023          	sw	a0,-32(s0)
/home/nicoladgg/wsFreedomStudio/sifive_hifive1_revb_hello/freedom-metal/src/drivers/sifive_fe310-g000_hfxosc.c:24
20015226:	fe042783          	lw	a5,-32(s0)
2001522a:	439c                	lw	a5,0(a5)
2001522c:	fe842583          	lw	a1,-24(s0)
20015230:	fe442503          	lw	a0,-28(s0)
20015234:	9782                	jalr	a5
20015236:	fca42e23          	sw	a0,-36(s0)
/home/nicoladgg/wsFreedomStudio/sifive_hifive1_revb_hello/freedom-metal/src/drivers/sifive_fe310-g000_hfxosc.c:26
2001523a:	fdc42703          	lw	a4,-36(s0)
2001523e:	400007b7          	lui	a5,0x40000
20015242:	8ff9                	and	a5,a5,a4
20015244:	e399                	bnez	a5,2001524a <__metal_driver_sifive_fe310_g000_hfxosc_get_rate_hz+0x54>
/home/nicoladgg/wsFreedomStudio/sifive_hifive1_revb_hello/freedom-metal/src/drivers/sifive_fe310-g000_hfxosc.c:27
20015246:	57fd                	li	a5,-1
20015248:	a821                	j	20015260 <__metal_driver_sifive_fe310_g000_hfxosc_get_rate_hz+0x6a>
/home/nicoladgg/wsFreedomStudio/sifive_hifive1_revb_hello/freedom-metal/src/drivers/sifive_fe310-g000_hfxosc.c:28
2001524a:	fdc42783          	lw	a5,-36(s0)
2001524e:	0007c463          	bltz	a5,20015256 <__metal_driver_sifive_fe310_g000_hfxosc_get_rate_hz+0x60>
/home/nicoladgg/wsFreedomStudio/sifive_hifive1_revb_hello/freedom-metal/src/drivers/sifive_fe310-g000_hfxosc.c:29
20015252:	57fd                	li	a5,-1
20015254:	a031                	j	20015260 <__metal_driver_sifive_fe310_g000_hfxosc_get_rate_hz+0x6a>
/home/nicoladgg/wsFreedomStudio/sifive_hifive1_revb_hello/freedom-metal/src/drivers/sifive_fe310-g000_hfxosc.c:30
20015256:	fec42503          	lw	a0,-20(s0)
2001525a:	7b6000ef          	jal	ra,20015a10 <metal_clock_get_rate_hz>
2001525e:	87aa                	mv	a5,a0
/home/nicoladgg/wsFreedomStudio/sifive_hifive1_revb_hello/freedom-metal/src/drivers/sifive_fe310-g000_hfxosc.c:31
20015260:	853e                	mv	a0,a5
20015262:	50f2                	lw	ra,60(sp)
20015264:	5462                	lw	s0,56(sp)
20015266:	6121                	addi	sp,sp,64
20015268:	8082                	ret

2001526a <__metal_driver_sifive_fe310_g000_hfxosc_set_rate_hz>:
__metal_driver_sifive_fe310_g000_hfxosc_set_rate_hz():
/home/nicoladgg/wsFreedomStudio/sifive_hifive1_revb_hello/freedom-metal/src/drivers/sifive_fe310-g000_hfxosc.c:34
2001526a:	1101                	addi	sp,sp,-32
2001526c:	ce06                	sw	ra,28(sp)
2001526e:	cc22                	sw	s0,24(sp)
20015270:	1000                	addi	s0,sp,32
20015272:	fea42623          	sw	a0,-20(s0)
20015276:	feb42423          	sw	a1,-24(s0)
/home/nicoladgg/wsFreedomStudio/sifive_hifive1_revb_hello/freedom-metal/src/drivers/sifive_fe310-g000_hfxosc.c:35
2001527a:	fec42503          	lw	a0,-20(s0)
2001527e:	3fa5                	jal	200151f6 <__metal_driver_sifive_fe310_g000_hfxosc_get_rate_hz>
20015280:	87aa                	mv	a5,a0
/home/nicoladgg/wsFreedomStudio/sifive_hifive1_revb_hello/freedom-metal/src/drivers/sifive_fe310-g000_hfxosc.c:36
20015282:	853e                	mv	a0,a5
20015284:	40f2                	lw	ra,28(sp)
20015286:	4462                	lw	s0,24(sp)
20015288:	6105                	addi	sp,sp,32
2001528a:	8082                	ret

2001528c <__metal_driver_sifive_fe310_g000_pll_pllsel0>:
__metal_driver_sifive_fe310_g000_pll_pllsel0():
/home/nicoladgg/wsFreedomStudio/sifive_hifive1_revb_hello/bsp/build/debug/./metal/machine.h:1326
2001528c:	1101                	addi	sp,sp,-32
2001528e:	ce22                	sw	s0,28(sp)
20015290:	1000                	addi	s0,sp,32
20015292:	fea42623          	sw	a0,-20(s0)
/home/nicoladgg/wsFreedomStudio/sifive_hifive1_revb_hello/bsp/build/debug/./metal/machine.h:1327
20015296:	800007b7          	lui	a5,0x80000
2001529a:	46078793          	addi	a5,a5,1120 # 80000460 <__global_pointer$+0xfffff7d8>
/home/nicoladgg/wsFreedomStudio/sifive_hifive1_revb_hello/bsp/build/debug/./metal/machine.h:1328
2001529e:	853e                	mv	a0,a5
200152a0:	4472                	lw	s0,28(sp)
200152a2:	6105                	addi	sp,sp,32
200152a4:	8082                	ret

200152a6 <__metal_driver_sifive_fe310_g000_pll_pllref>:
__metal_driver_sifive_fe310_g000_pll_pllref():
/home/nicoladgg/wsFreedomStudio/sifive_hifive1_revb_hello/bsp/build/debug/./metal/machine.h:1331
200152a6:	1101                	addi	sp,sp,-32
200152a8:	ce22                	sw	s0,28(sp)
200152aa:	1000                	addi	s0,sp,32
200152ac:	fea42623          	sw	a0,-20(s0)
/home/nicoladgg/wsFreedomStudio/sifive_hifive1_revb_hello/bsp/build/debug/./metal/machine.h:1332
200152b0:	800007b7          	lui	a5,0x80000
200152b4:	46c78793          	addi	a5,a5,1132 # 8000046c <__global_pointer$+0xfffff7e4>
/home/nicoladgg/wsFreedomStudio/sifive_hifive1_revb_hello/bsp/build/debug/./metal/machine.h:1333
200152b8:	853e                	mv	a0,a5
200152ba:	4472                	lw	s0,28(sp)
200152bc:	6105                	addi	sp,sp,32
200152be:	8082                	ret

200152c0 <__metal_driver_sifive_fe310_g000_pll_divider_base>:
__metal_driver_sifive_fe310_g000_pll_divider_base():
/home/nicoladgg/wsFreedomStudio/sifive_hifive1_revb_hello/bsp/build/debug/./metal/machine.h:1336
200152c0:	1101                	addi	sp,sp,-32
200152c2:	ce22                	sw	s0,28(sp)
200152c4:	1000                	addi	s0,sp,32
200152c6:	fea42623          	sw	a0,-20(s0)
/home/nicoladgg/wsFreedomStudio/sifive_hifive1_revb_hello/bsp/build/debug/./metal/machine.h:1337
200152ca:	82418793          	addi	a5,gp,-2012 # 800004ac <__metal_dt_prci_10008000>
/home/nicoladgg/wsFreedomStudio/sifive_hifive1_revb_hello/bsp/build/debug/./metal/machine.h:1338
200152ce:	853e                	mv	a0,a5
200152d0:	4472                	lw	s0,28(sp)
200152d2:	6105                	addi	sp,sp,32
200152d4:	8082                	ret

200152d6 <__metal_driver_sifive_fe310_g000_pll_divider_offset>:
__metal_driver_sifive_fe310_g000_pll_divider_offset():
/home/nicoladgg/wsFreedomStudio/sifive_hifive1_revb_hello/bsp/build/debug/./metal/machine.h:1341
200152d6:	1101                	addi	sp,sp,-32
200152d8:	ce22                	sw	s0,28(sp)
200152da:	1000                	addi	s0,sp,32
200152dc:	fea42623          	sw	a0,-20(s0)
/home/nicoladgg/wsFreedomStudio/sifive_hifive1_revb_hello/bsp/build/debug/./metal/machine.h:1342
200152e0:	47b1                	li	a5,12
/home/nicoladgg/wsFreedomStudio/sifive_hifive1_revb_hello/bsp/build/debug/./metal/machine.h:1343
200152e2:	853e                	mv	a0,a5
200152e4:	4472                	lw	s0,28(sp)
200152e6:	6105                	addi	sp,sp,32
200152e8:	8082                	ret

200152ea <__metal_driver_sifive_fe310_g000_pll_config_base>:
__metal_driver_sifive_fe310_g000_pll_config_base():
/home/nicoladgg/wsFreedomStudio/sifive_hifive1_revb_hello/bsp/build/debug/./metal/machine.h:1346
200152ea:	1141                	addi	sp,sp,-16
200152ec:	c622                	sw	s0,12(sp)
200152ee:	0800                	addi	s0,sp,16
/home/nicoladgg/wsFreedomStudio/sifive_hifive1_revb_hello/bsp/build/debug/./metal/machine.h:1347
200152f0:	82418793          	addi	a5,gp,-2012 # 800004ac <__metal_dt_prci_10008000>
/home/nicoladgg/wsFreedomStudio/sifive_hifive1_revb_hello/bsp/build/debug/./metal/machine.h:1348
200152f4:	853e                	mv	a0,a5
200152f6:	4432                	lw	s0,12(sp)
200152f8:	0141                	addi	sp,sp,16
200152fa:	8082                	ret

200152fc <__metal_driver_sifive_fe310_g000_pll_config_offset>:
__metal_driver_sifive_fe310_g000_pll_config_offset():
/home/nicoladgg/wsFreedomStudio/sifive_hifive1_revb_hello/bsp/build/debug/./metal/machine.h:1351
200152fc:	1141                	addi	sp,sp,-16
200152fe:	c622                	sw	s0,12(sp)
20015300:	0800                	addi	s0,sp,16
/home/nicoladgg/wsFreedomStudio/sifive_hifive1_revb_hello/bsp/build/debug/./metal/machine.h:1352
20015302:	47a1                	li	a5,8
/home/nicoladgg/wsFreedomStudio/sifive_hifive1_revb_hello/bsp/build/debug/./metal/machine.h:1353
20015304:	853e                	mv	a0,a5
20015306:	4432                	lw	s0,12(sp)
20015308:	0141                	addi	sp,sp,16
2001530a:	8082                	ret

2001530c <__metal_driver_sifive_fe310_g000_pll_init_rate>:
__metal_driver_sifive_fe310_g000_pll_init_rate():
/home/nicoladgg/wsFreedomStudio/sifive_hifive1_revb_hello/bsp/build/debug/./metal/machine.h:1356
2001530c:	1141                	addi	sp,sp,-16
2001530e:	c622                	sw	s0,12(sp)
20015310:	0800                	addi	s0,sp,16
/home/nicoladgg/wsFreedomStudio/sifive_hifive1_revb_hello/bsp/build/debug/./metal/machine.h:1357
20015312:	00f427b7          	lui	a5,0xf42
20015316:	40078793          	addi	a5,a5,1024 # f42400 <__heap_size+0xf41c00>
/home/nicoladgg/wsFreedomStudio/sifive_hifive1_revb_hello/bsp/build/debug/./metal/machine.h:1358
2001531a:	853e                	mv	a0,a5
2001531c:	4432                	lw	s0,12(sp)
2001531e:	0141                	addi	sp,sp,16
20015320:	8082                	ret

20015322 <__metal_driver_sifive_fe310_g000_prci_base>:
__metal_driver_sifive_fe310_g000_prci_base():
/home/nicoladgg/wsFreedomStudio/sifive_hifive1_revb_hello/bsp/build/debug/./metal/machine.h:1364
20015322:	1141                	addi	sp,sp,-16
20015324:	c622                	sw	s0,12(sp)
20015326:	0800                	addi	s0,sp,16
/home/nicoladgg/wsFreedomStudio/sifive_hifive1_revb_hello/bsp/build/debug/./metal/machine.h:1365
20015328:	100087b7          	lui	a5,0x10008
/home/nicoladgg/wsFreedomStudio/sifive_hifive1_revb_hello/bsp/build/debug/./metal/machine.h:1366
2001532c:	853e                	mv	a0,a5
2001532e:	4432                	lw	s0,12(sp)
20015330:	0141                	addi	sp,sp,16
20015332:	8082                	ret

20015334 <__metal_driver_sifive_fe310_g000_prci_vtable>:
__metal_driver_sifive_fe310_g000_prci_vtable():
/home/nicoladgg/wsFreedomStudio/sifive_hifive1_revb_hello/bsp/build/debug/./metal/machine.h:1374
20015334:	1141                	addi	sp,sp,-16
20015336:	c622                	sw	s0,12(sp)
20015338:	0800                	addi	s0,sp,16
/home/nicoladgg/wsFreedomStudio/sifive_hifive1_revb_hello/bsp/build/debug/./metal/machine.h:1375
2001533a:	200117b7          	lui	a5,0x20011
2001533e:	f0478793          	addi	a5,a5,-252 # 20010f04 <__metal_driver_vtable_sifive_fe310_g000_prci>
/home/nicoladgg/wsFreedomStudio/sifive_hifive1_revb_hello/bsp/build/debug/./metal/machine.h:1376
20015342:	853e                	mv	a0,a5
20015344:	4432                	lw	s0,12(sp)
20015346:	0141                	addi	sp,sp,16
20015348:	8082                	ret

2001534a <get_pll_config_freq>:
get_pll_config_freq():
/home/nicoladgg/wsFreedomStudio/sifive_hifive1_revb_hello/freedom-metal/src/drivers/sifive_fe310-g000_pll.c:141
2001534a:	1101                	addi	sp,sp,-32
2001534c:	ce22                	sw	s0,28(sp)
2001534e:	1000                	addi	s0,sp,32
20015350:	fea42623          	sw	a0,-20(s0)
20015354:	feb42423          	sw	a1,-24(s0)
/home/nicoladgg/wsFreedomStudio/sifive_hifive1_revb_hello/freedom-metal/src/drivers/sifive_fe310-g000_pll.c:142
20015358:	fe842783          	lw	a5,-24(s0)
2001535c:	479c                	lw	a5,8(a5)
2001535e:	fec42703          	lw	a4,-20(s0)
20015362:	00f76963          	bltu	a4,a5,20015374 <get_pll_config_freq+0x2a>
/home/nicoladgg/wsFreedomStudio/sifive_hifive1_revb_hello/freedom-metal/src/drivers/sifive_fe310-g000_pll.c:143 (discriminator 1)
20015366:	fe842783          	lw	a5,-24(s0)
2001536a:	47dc                	lw	a5,12(a5)
/home/nicoladgg/wsFreedomStudio/sifive_hifive1_revb_hello/freedom-metal/src/drivers/sifive_fe310-g000_pll.c:142 (discriminator 1)
2001536c:	fec42703          	lw	a4,-20(s0)
20015370:	00e7f463          	bgeu	a5,a4,20015378 <get_pll_config_freq+0x2e>
/home/nicoladgg/wsFreedomStudio/sifive_hifive1_revb_hello/freedom-metal/src/drivers/sifive_fe310-g000_pll.c:144
20015374:	57fd                	li	a5,-1
20015376:	a829                	j	20015390 <get_pll_config_freq+0x46>
/home/nicoladgg/wsFreedomStudio/sifive_hifive1_revb_hello/freedom-metal/src/drivers/sifive_fe310-g000_pll.c:146
20015378:	fe842783          	lw	a5,-24(s0)
2001537c:	4398                	lw	a4,0(a5)
2001537e:	fec42783          	lw	a5,-20(s0)
20015382:	02f70733          	mul	a4,a4,a5
20015386:	fe842783          	lw	a5,-24(s0)
2001538a:	43dc                	lw	a5,4(a5)
2001538c:	02f757b3          	divu	a5,a4,a5
/home/nicoladgg/wsFreedomStudio/sifive_hifive1_revb_hello/freedom-metal/src/drivers/sifive_fe310-g000_pll.c:147
20015390:	853e                	mv	a0,a5
20015392:	4472                	lw	s0,28(sp)
20015394:	6105                	addi	sp,sp,32
20015396:	8082                	ret

20015398 <__metal_driver_sifive_fe310_g000_pll_init>:
__metal_driver_sifive_fe310_g000_pll_init():
/home/nicoladgg/wsFreedomStudio/sifive_hifive1_revb_hello/freedom-metal/src/drivers/sifive_fe310-g000_pll.c:162
20015398:	7139                	addi	sp,sp,-64
2001539a:	de06                	sw	ra,60(sp)
2001539c:	dc22                	sw	s0,56(sp)
2001539e:	0080                	addi	s0,sp,64
200153a0:	fca42623          	sw	a0,-52(s0)
/home/nicoladgg/wsFreedomStudio/sifive_hifive1_revb_hello/freedom-metal/src/drivers/sifive_fe310-g000_pll.c:164
200153a4:	fcc42783          	lw	a5,-52(s0)
200153a8:	853e                	mv	a0,a5
200153aa:	3df5                	jal	200152a6 <__metal_driver_sifive_fe310_g000_pll_pllref>
200153ac:	fea42623          	sw	a0,-20(s0)
/home/nicoladgg/wsFreedomStudio/sifive_hifive1_revb_hello/freedom-metal/src/drivers/sifive_fe310-g000_pll.c:165
200153b0:	3fb1                	jal	2001530c <__metal_driver_sifive_fe310_g000_pll_init_rate>
200153b2:	fea42423          	sw	a0,-24(s0)
/home/nicoladgg/wsFreedomStudio/sifive_hifive1_revb_hello/freedom-metal/src/drivers/sifive_fe310-g000_pll.c:166
200153b6:	3799                	jal	200152fc <__metal_driver_sifive_fe310_g000_pll_config_offset>
200153b8:	fea42223          	sw	a0,-28(s0)
/home/nicoladgg/wsFreedomStudio/sifive_hifive1_revb_hello/freedom-metal/src/drivers/sifive_fe310-g000_pll.c:167
200153bc:	379d                	jal	20015322 <__metal_driver_sifive_fe310_g000_prci_base>
200153be:	fea42023          	sw	a0,-32(s0)
/home/nicoladgg/wsFreedomStudio/sifive_hifive1_revb_hello/freedom-metal/src/drivers/sifive_fe310-g000_pll.c:169
200153c2:	fe042703          	lw	a4,-32(s0)
200153c6:	fe442783          	lw	a5,-28(s0)
200153ca:	97ba                	add	a5,a5,a4
200153cc:	fcf42e23          	sw	a5,-36(s0)
/home/nicoladgg/wsFreedomStudio/sifive_hifive1_revb_hello/freedom-metal/src/drivers/sifive_fe310-g000_pll.c:173
200153d0:	fcc42783          	lw	a5,-52(s0)
200153d4:	43dc                	lw	a5,4(a5)
200153d6:	853e                	mv	a0,a5
200153d8:	2bdd                	jal	200159ce <_metal_clock_call_all_callbacks>
/home/nicoladgg/wsFreedomStudio/sifive_hifive1_revb_hello/freedom-metal/src/drivers/sifive_fe310-g000_pll.c:177
200153da:	fdc42783          	lw	a5,-36(s0)
200153de:	4398                	lw	a4,0(a5)
200153e0:	67c1                	lui	a5,0x10
200153e2:	8ff9                	and	a5,a5,a4
200153e4:	cb91                	beqz	a5,200153f8 <__metal_driver_sifive_fe310_g000_pll_init+0x60>
/home/nicoladgg/wsFreedomStudio/sifive_hifive1_revb_hello/freedom-metal/src/drivers/sifive_fe310-g000_pll.c:178
200153e6:	fdc42783          	lw	a5,-36(s0)
200153ea:	4398                	lw	a4,0(a5)
200153ec:	77c1                	lui	a5,0xffff0
200153ee:	17fd                	addi	a5,a5,-1
200153f0:	8f7d                	and	a4,a4,a5
200153f2:	fdc42783          	lw	a5,-36(s0)
200153f6:	c398                	sw	a4,0(a5)
/home/nicoladgg/wsFreedomStudio/sifive_hifive1_revb_hello/freedom-metal/src/drivers/sifive_fe310-g000_pll.c:181
200153f8:	fec42783          	lw	a5,-20(s0)
200153fc:	cb91                	beqz	a5,20015410 <__metal_driver_sifive_fe310_g000_pll_init+0x78>
/home/nicoladgg/wsFreedomStudio/sifive_hifive1_revb_hello/freedom-metal/src/drivers/sifive_fe310-g000_pll.c:182
200153fe:	fdc42783          	lw	a5,-36(s0)
20015402:	4398                	lw	a4,0(a5)
20015404:	000207b7          	lui	a5,0x20
20015408:	8f5d                	or	a4,a4,a5
2001540a:	fdc42783          	lw	a5,-36(s0)
2001540e:	c398                	sw	a4,0(a5)
/home/nicoladgg/wsFreedomStudio/sifive_hifive1_revb_hello/freedom-metal/src/drivers/sifive_fe310-g000_pll.c:187
20015410:	fcc42783          	lw	a5,-52(s0)
20015414:	439c                	lw	a5,0(a5)
20015416:	43d8                	lw	a4,4(a5)
20015418:	fcc42783          	lw	a5,-52(s0)
2001541c:	fe842583          	lw	a1,-24(s0)
20015420:	853e                	mv	a0,a5
20015422:	9702                	jalr	a4
/home/nicoladgg/wsFreedomStudio/sifive_hifive1_revb_hello/freedom-metal/src/drivers/sifive_fe310-g000_pll.c:190
20015424:	fcc42783          	lw	a5,-52(s0)
20015428:	479c                	lw	a5,8(a5)
2001542a:	853e                	mv	a0,a5
2001542c:	234d                	jal	200159ce <_metal_clock_call_all_callbacks>
/home/nicoladgg/wsFreedomStudio/sifive_hifive1_revb_hello/freedom-metal/src/drivers/sifive_fe310-g000_pll.c:191
2001542e:	0001                	nop
20015430:	50f2                	lw	ra,60(sp)
20015432:	5462                	lw	s0,56(sp)
20015434:	6121                	addi	sp,sp,64
20015436:	8082                	ret

20015438 <__metal_driver_sifive_fe310_g000_pll_get_rate_hz>:
__metal_driver_sifive_fe310_g000_pll_get_rate_hz():
/home/nicoladgg/wsFreedomStudio/sifive_hifive1_revb_hello/freedom-metal/src/drivers/sifive_fe310-g000_pll.c:194
20015438:	711d                	addi	sp,sp,-96
2001543a:	ce86                	sw	ra,92(sp)
2001543c:	cca2                	sw	s0,88(sp)
2001543e:	1080                	addi	s0,sp,96
20015440:	faa42623          	sw	a0,-84(s0)
/home/nicoladgg/wsFreedomStudio/sifive_hifive1_revb_hello/freedom-metal/src/drivers/sifive_fe310-g000_pll.c:196
20015444:	fac42503          	lw	a0,-84(s0)
20015448:	3db9                	jal	200152a6 <__metal_driver_sifive_fe310_g000_pll_pllref>
2001544a:	fea42623          	sw	a0,-20(s0)
/home/nicoladgg/wsFreedomStudio/sifive_hifive1_revb_hello/freedom-metal/src/drivers/sifive_fe310-g000_pll.c:198
2001544e:	fac42503          	lw	a0,-84(s0)
20015452:	3d2d                	jal	2001528c <__metal_driver_sifive_fe310_g000_pll_pllsel0>
20015454:	fea42423          	sw	a0,-24(s0)
/home/nicoladgg/wsFreedomStudio/sifive_hifive1_revb_hello/freedom-metal/src/drivers/sifive_fe310-g000_pll.c:200
20015458:	fac42503          	lw	a0,-84(s0)
2001545c:	3545                	jal	200152fc <__metal_driver_sifive_fe310_g000_pll_config_offset>
2001545e:	fea42223          	sw	a0,-28(s0)
/home/nicoladgg/wsFreedomStudio/sifive_hifive1_revb_hello/freedom-metal/src/drivers/sifive_fe310-g000_pll.c:202
20015462:	fac42503          	lw	a0,-84(s0)
20015466:	3551                	jal	200152ea <__metal_driver_sifive_fe310_g000_pll_config_base>
20015468:	fea42023          	sw	a0,-32(s0)
/home/nicoladgg/wsFreedomStudio/sifive_hifive1_revb_hello/freedom-metal/src/drivers/sifive_fe310-g000_pll.c:204
2001546c:	fac42503          	lw	a0,-84(s0)
20015470:	359d                	jal	200152d6 <__metal_driver_sifive_fe310_g000_pll_divider_offset>
20015472:	fca42e23          	sw	a0,-36(s0)
/home/nicoladgg/wsFreedomStudio/sifive_hifive1_revb_hello/freedom-metal/src/drivers/sifive_fe310-g000_pll.c:206
20015476:	fac42503          	lw	a0,-84(s0)
2001547a:	3599                	jal	200152c0 <__metal_driver_sifive_fe310_g000_pll_divider_base>
2001547c:	fca42c23          	sw	a0,-40(s0)
/home/nicoladgg/wsFreedomStudio/sifive_hifive1_revb_hello/freedom-metal/src/drivers/sifive_fe310-g000_pll.c:208
20015480:	3d55                	jal	20015334 <__metal_driver_sifive_fe310_g000_prci_vtable>
20015482:	fca42a23          	sw	a0,-44(s0)
/home/nicoladgg/wsFreedomStudio/sifive_hifive1_revb_hello/freedom-metal/src/drivers/sifive_fe310-g000_pll.c:210
20015486:	fd442783          	lw	a5,-44(s0)
2001548a:	439c                	lw	a5,0(a5)
2001548c:	fe442583          	lw	a1,-28(s0)
20015490:	fe042503          	lw	a0,-32(s0)
20015494:	9782                	jalr	a5
20015496:	fca42823          	sw	a0,-48(s0)
/home/nicoladgg/wsFreedomStudio/sifive_hifive1_revb_hello/freedom-metal/src/drivers/sifive_fe310-g000_pll.c:211
2001549a:	fd442783          	lw	a5,-44(s0)
2001549e:	439c                	lw	a5,0(a5)
200154a0:	fdc42583          	lw	a1,-36(s0)
200154a4:	fd842503          	lw	a0,-40(s0)
200154a8:	9782                	jalr	a5
200154aa:	fca42623          	sw	a0,-52(s0)
/home/nicoladgg/wsFreedomStudio/sifive_hifive1_revb_hello/freedom-metal/src/drivers/sifive_fe310-g000_pll.c:215
200154ae:	fd042703          	lw	a4,-48(s0)
200154b2:	67c1                	lui	a5,0x10
200154b4:	8f7d                	and	a4,a4,a5
200154b6:	67c1                	lui	a5,0x10
200154b8:	00f77763          	bgeu	a4,a5,200154c6 <__metal_driver_sifive_fe310_g000_pll_get_rate_hz+0x8e>
/home/nicoladgg/wsFreedomStudio/sifive_hifive1_revb_hello/freedom-metal/src/drivers/sifive_fe310-g000_pll.c:216
200154bc:	fe842503          	lw	a0,-24(s0)
200154c0:	2b81                	jal	20015a10 <metal_clock_get_rate_hz>
200154c2:	87aa                	mv	a5,a0
200154c4:	a8d9                	j	2001559a <__metal_driver_sifive_fe310_g000_pll_get_rate_hz+0x162>
/home/nicoladgg/wsFreedomStudio/sifive_hifive1_revb_hello/freedom-metal/src/drivers/sifive_fe310-g000_pll.c:221
200154c6:	fd042703          	lw	a4,-48(s0)
200154ca:	000207b7          	lui	a5,0x20
200154ce:	8f7d                	and	a4,a4,a5
/home/nicoladgg/wsFreedomStudio/sifive_hifive1_revb_hello/freedom-metal/src/drivers/sifive_fe310-g000_pll.c:220
200154d0:	000207b7          	lui	a5,0x20
200154d4:	00f76563          	bltu	a4,a5,200154de <__metal_driver_sifive_fe310_g000_pll_get_rate_hz+0xa6>
/home/nicoladgg/wsFreedomStudio/sifive_hifive1_revb_hello/freedom-metal/src/drivers/sifive_fe310-g000_pll.c:220 (discriminator 1)
200154d8:	fec42783          	lw	a5,-20(s0)
200154dc:	a019                	j	200154e2 <__metal_driver_sifive_fe310_g000_pll_get_rate_hz+0xaa>
/home/nicoladgg/wsFreedomStudio/sifive_hifive1_revb_hello/freedom-metal/src/drivers/sifive_fe310-g000_pll.c:220 (discriminator 2)
200154de:	fe842783          	lw	a5,-24(s0)
/home/nicoladgg/wsFreedomStudio/sifive_hifive1_revb_hello/freedom-metal/src/drivers/sifive_fe310-g000_pll.c:220 (discriminator 4)
200154e2:	853e                	mv	a0,a5
200154e4:	2335                	jal	20015a10 <metal_clock_get_rate_hz>
200154e6:	fca42423          	sw	a0,-56(s0)
/home/nicoladgg/wsFreedomStudio/sifive_hifive1_revb_hello/freedom-metal/src/drivers/sifive_fe310-g000_pll.c:225 (discriminator 4)
200154ea:	fd042703          	lw	a4,-48(s0)
200154ee:	000407b7          	lui	a5,0x40
200154f2:	8f7d                	and	a4,a4,a5
200154f4:	000407b7          	lui	a5,0x40
200154f8:	00f76563          	bltu	a4,a5,20015502 <__metal_driver_sifive_fe310_g000_pll_get_rate_hz+0xca>
/home/nicoladgg/wsFreedomStudio/sifive_hifive1_revb_hello/freedom-metal/src/drivers/sifive_fe310-g000_pll.c:226
200154fc:	fc842783          	lw	a5,-56(s0)
20015500:	a869                	j	2001559a <__metal_driver_sifive_fe310_g000_pll_get_rate_hz+0x162>
/home/nicoladgg/wsFreedomStudio/sifive_hifive1_revb_hello/freedom-metal/src/drivers/sifive_fe310-g000_pll.c:229
20015502:	fd042783          	lw	a5,-48(s0)
20015506:	8b9d                	andi	a5,a5,7
20015508:	0785                	addi	a5,a5,1
2001550a:	fcf42223          	sw	a5,-60(s0)
/home/nicoladgg/wsFreedomStudio/sifive_hifive1_revb_hello/freedom-metal/src/drivers/sifive_fe310-g000_pll.c:230
2001550e:	fd042783          	lw	a5,-48(s0)
20015512:	3f07f793          	andi	a5,a5,1008
20015516:	8391                	srli	a5,a5,0x4
20015518:	0785                	addi	a5,a5,1
2001551a:	0786                	slli	a5,a5,0x1
2001551c:	fcf42023          	sw	a5,-64(s0)
/home/nicoladgg/wsFreedomStudio/sifive_hifive1_revb_hello/freedom-metal/src/drivers/sifive_fe310-g000_pll.c:231
20015520:	fd042703          	lw	a4,-48(s0)
20015524:	6785                	lui	a5,0x1
20015526:	c0078793          	addi	a5,a5,-1024 # c00 <__heap_size+0x400>
2001552a:	8f7d                	and	a4,a4,a5
2001552c:	3ff00793          	li	a5,1023
20015530:	00e7e463          	bltu	a5,a4,20015538 <__metal_driver_sifive_fe310_g000_pll_get_rate_hz+0x100>
/home/nicoladgg/wsFreedomStudio/sifive_hifive1_revb_hello/freedom-metal/src/drivers/sifive_fe310-g000_pll.c:232
20015534:	57fd                	li	a5,-1
20015536:	a095                	j	2001559a <__metal_driver_sifive_fe310_g000_pll_get_rate_hz+0x162>
/home/nicoladgg/wsFreedomStudio/sifive_hifive1_revb_hello/freedom-metal/src/drivers/sifive_fe310-g000_pll.c:233
20015538:	fd042703          	lw	a4,-48(s0)
2001553c:	6785                	lui	a5,0x1
2001553e:	c0078793          	addi	a5,a5,-1024 # c00 <__heap_size+0x400>
20015542:	8ff9                	and	a5,a5,a4
20015544:	83a9                	srli	a5,a5,0xa
20015546:	4705                	li	a4,1
20015548:	00f717b3          	sll	a5,a4,a5
2001554c:	faf42e23          	sw	a5,-68(s0)
/home/nicoladgg/wsFreedomStudio/sifive_hifive1_revb_hello/freedom-metal/src/drivers/sifive_fe310-g000_pll.c:238
20015550:	fc842703          	lw	a4,-56(s0)
20015554:	fc442783          	lw	a5,-60(s0)
20015558:	02f74733          	div	a4,a4,a5
2001555c:	fc042783          	lw	a5,-64(s0)
20015560:	02f70733          	mul	a4,a4,a5
20015564:	fbc42783          	lw	a5,-68(s0)
20015568:	02f747b3          	div	a5,a4,a5
2001556c:	faf42c23          	sw	a5,-72(s0)
/home/nicoladgg/wsFreedomStudio/sifive_hifive1_revb_hello/freedom-metal/src/drivers/sifive_fe310-g000_pll.c:239
20015570:	fcc42783          	lw	a5,-52(s0)
20015574:	1007f713          	andi	a4,a5,256
20015578:	0ff00793          	li	a5,255
2001557c:	00e7f563          	bgeu	a5,a4,20015586 <__metal_driver_sifive_fe310_g000_pll_get_rate_hz+0x14e>
/home/nicoladgg/wsFreedomStudio/sifive_hifive1_revb_hello/freedom-metal/src/drivers/sifive_fe310-g000_pll.c:240
20015580:	fb842783          	lw	a5,-72(s0)
20015584:	a819                	j	2001559a <__metal_driver_sifive_fe310_g000_pll_get_rate_hz+0x162>
/home/nicoladgg/wsFreedomStudio/sifive_hifive1_revb_hello/freedom-metal/src/drivers/sifive_fe310-g000_pll.c:242
20015586:	fb842703          	lw	a4,-72(s0)
2001558a:	fcc42783          	lw	a5,-52(s0)
2001558e:	03f7f793          	andi	a5,a5,63
20015592:	0785                	addi	a5,a5,1
20015594:	0786                	slli	a5,a5,0x1
20015596:	02f757b3          	divu	a5,a4,a5
/home/nicoladgg/wsFreedomStudio/sifive_hifive1_revb_hello/freedom-metal/src/drivers/sifive_fe310-g000_pll.c:243
2001559a:	853e                	mv	a0,a5
2001559c:	40f6                	lw	ra,92(sp)
2001559e:	4466                	lw	s0,88(sp)
200155a0:	6125                	addi	sp,sp,96
200155a2:	8082                	ret

200155a4 <find_closest_config>:
find_closest_config():
/home/nicoladgg/wsFreedomStudio/sifive_hifive1_revb_hello/freedom-metal/src/drivers/sifive_fe310-g000_pll.c:253
200155a4:	7139                	addi	sp,sp,-64
200155a6:	de06                	sw	ra,60(sp)
200155a8:	dc22                	sw	s0,56(sp)
200155aa:	0080                	addi	s0,sp,64
200155ac:	fca42623          	sw	a0,-52(s0)
200155b0:	fcb42423          	sw	a1,-56(s0)
/home/nicoladgg/wsFreedomStudio/sifive_hifive1_revb_hello/freedom-metal/src/drivers/sifive_fe310-g000_pll.c:254
200155b4:	57fd                	li	a5,-1
200155b6:	fef42623          	sw	a5,-20(s0)
/home/nicoladgg/wsFreedomStudio/sifive_hifive1_revb_hello/freedom-metal/src/drivers/sifive_fe310-g000_pll.c:255
200155ba:	800007b7          	lui	a5,0x80000
200155be:	fff7c793          	not	a5,a5
200155c2:	fef42423          	sw	a5,-24(s0)
/home/nicoladgg/wsFreedomStudio/sifive_hifive1_revb_hello/freedom-metal/src/drivers/sifive_fe310-g000_pll.c:259
200155c6:	04300793          	li	a5,67
200155ca:	fef42223          	sw	a5,-28(s0)
200155ce:	a0ad                	j	20015638 <find_closest_config+0x94>
/home/nicoladgg/wsFreedomStudio/sifive_hifive1_revb_hello/freedom-metal/src/drivers/sifive_fe310-g000_pll.c:261
200155d0:	fcc42683          	lw	a3,-52(s0)
200155d4:	fe442783          	lw	a5,-28(s0)
200155d8:	00579713          	slli	a4,a5,0x5
200155dc:	200107b7          	lui	a5,0x20010
200155e0:	66078793          	addi	a5,a5,1632 # 20010660 <pll_configs>
200155e4:	97ba                	add	a5,a5,a4
200155e6:	85be                	mv	a1,a5
200155e8:	8536                	mv	a0,a3
200155ea:	3385                	jal	2001534a <get_pll_config_freq>
200155ec:	fea42023          	sw	a0,-32(s0)
/home/nicoladgg/wsFreedomStudio/sifive_hifive1_revb_hello/freedom-metal/src/drivers/sifive_fe310-g000_pll.c:262
200155f0:	fe042703          	lw	a4,-32(s0)
200155f4:	57fd                	li	a5,-1
200155f6:	02f70c63          	beq	a4,a5,2001562e <find_closest_config+0x8a>
/home/nicoladgg/wsFreedomStudio/sifive_hifive1_revb_hello/freedom-metal/src/drivers/sifive_fe310-g000_pll.c:263
200155fa:	fe042703          	lw	a4,-32(s0)
200155fe:	fc842783          	lw	a5,-56(s0)
20015602:	8f1d                	sub	a4,a4,a5
20015604:	41f75793          	srai	a5,a4,0x1f
20015608:	8f3d                	xor	a4,a4,a5
2001560a:	40f707b3          	sub	a5,a4,a5
2001560e:	fcf42e23          	sw	a5,-36(s0)
/home/nicoladgg/wsFreedomStudio/sifive_hifive1_revb_hello/freedom-metal/src/drivers/sifive_fe310-g000_pll.c:265
20015612:	fdc42703          	lw	a4,-36(s0)
20015616:	fe842783          	lw	a5,-24(s0)
2001561a:	00f75a63          	bge	a4,a5,2001562e <find_closest_config+0x8a>
/home/nicoladgg/wsFreedomStudio/sifive_hifive1_revb_hello/freedom-metal/src/drivers/sifive_fe310-g000_pll.c:266
2001561e:	fe442783          	lw	a5,-28(s0)
20015622:	fef42623          	sw	a5,-20(s0)
/home/nicoladgg/wsFreedomStudio/sifive_hifive1_revb_hello/freedom-metal/src/drivers/sifive_fe310-g000_pll.c:267
20015626:	fdc42783          	lw	a5,-36(s0)
2001562a:	fef42423          	sw	a5,-24(s0)
/home/nicoladgg/wsFreedomStudio/sifive_hifive1_revb_hello/freedom-metal/src/drivers/sifive_fe310-g000_pll.c:260
2001562e:	fe442783          	lw	a5,-28(s0)
20015632:	17fd                	addi	a5,a5,-1
20015634:	fef42223          	sw	a5,-28(s0)
/home/nicoladgg/wsFreedomStudio/sifive_hifive1_revb_hello/freedom-metal/src/drivers/sifive_fe310-g000_pll.c:259 (discriminator 1)
20015638:	fe442783          	lw	a5,-28(s0)
2001563c:	f807dae3          	bgez	a5,200155d0 <find_closest_config+0x2c>
/home/nicoladgg/wsFreedomStudio/sifive_hifive1_revb_hello/freedom-metal/src/drivers/sifive_fe310-g000_pll.c:272
20015640:	fec42783          	lw	a5,-20(s0)
/home/nicoladgg/wsFreedomStudio/sifive_hifive1_revb_hello/freedom-metal/src/drivers/sifive_fe310-g000_pll.c:273
20015644:	853e                	mv	a0,a5
20015646:	50f2                	lw	ra,60(sp)
20015648:	5462                	lw	s0,56(sp)
2001564a:	6121                	addi	sp,sp,64
2001564c:	8082                	ret

2001564e <configure_pll>:
configure_pll():
/home/nicoladgg/wsFreedomStudio/sifive_hifive1_revb_hello/freedom-metal/src/drivers/sifive_fe310-g000_pll.c:290
2001564e:	7179                	addi	sp,sp,-48
20015650:	d606                	sw	ra,44(sp)
20015652:	d422                	sw	s0,40(sp)
20015654:	1800                	addi	s0,sp,48
20015656:	fca42e23          	sw	a0,-36(s0)
2001565a:	fcb42c23          	sw	a1,-40(s0)
2001565e:	fcc42a23          	sw	a2,-44(s0)
/home/nicoladgg/wsFreedomStudio/sifive_hifive1_revb_hello/freedom-metal/src/drivers/sifive_fe310-g000_pll.c:291
20015662:	fdc42783          	lw	a5,-36(s0)
20015666:	439c                	lw	a5,0(a5)
20015668:	ff87f713          	andi	a4,a5,-8
2001566c:	fdc42783          	lw	a5,-36(s0)
20015670:	c398                	sw	a4,0(a5)
/home/nicoladgg/wsFreedomStudio/sifive_hifive1_revb_hello/freedom-metal/src/drivers/sifive_fe310-g000_pll.c:292
20015672:	fdc42783          	lw	a5,-36(s0)
20015676:	4398                	lw	a4,0(a5)
20015678:	fd442783          	lw	a5,-44(s0)
2001567c:	4b9c                	lw	a5,16(a5)
2001567e:	8b9d                	andi	a5,a5,7
20015680:	8f5d                	or	a4,a4,a5
20015682:	fdc42783          	lw	a5,-36(s0)
20015686:	c398                	sw	a4,0(a5)
/home/nicoladgg/wsFreedomStudio/sifive_hifive1_revb_hello/freedom-metal/src/drivers/sifive_fe310-g000_pll.c:294
20015688:	fdc42783          	lw	a5,-36(s0)
2001568c:	439c                	lw	a5,0(a5)
2001568e:	c0f7f713          	andi	a4,a5,-1009
20015692:	fdc42783          	lw	a5,-36(s0)
20015696:	c398                	sw	a4,0(a5)
/home/nicoladgg/wsFreedomStudio/sifive_hifive1_revb_hello/freedom-metal/src/drivers/sifive_fe310-g000_pll.c:295
20015698:	fdc42783          	lw	a5,-36(s0)
2001569c:	4398                	lw	a4,0(a5)
2001569e:	fd442783          	lw	a5,-44(s0)
200156a2:	4bdc                	lw	a5,20(a5)
200156a4:	0792                	slli	a5,a5,0x4
200156a6:	3f07f793          	andi	a5,a5,1008
200156aa:	8f5d                	or	a4,a4,a5
200156ac:	fdc42783          	lw	a5,-36(s0)
200156b0:	c398                	sw	a4,0(a5)
/home/nicoladgg/wsFreedomStudio/sifive_hifive1_revb_hello/freedom-metal/src/drivers/sifive_fe310-g000_pll.c:297
200156b2:	fdc42783          	lw	a5,-36(s0)
200156b6:	4398                	lw	a4,0(a5)
200156b8:	77fd                	lui	a5,0xfffff
200156ba:	3ff78793          	addi	a5,a5,1023 # fffff3ff <__global_pointer$+0x7fffe777>
200156be:	8f7d                	and	a4,a4,a5
200156c0:	fdc42783          	lw	a5,-36(s0)
200156c4:	c398                	sw	a4,0(a5)
/home/nicoladgg/wsFreedomStudio/sifive_hifive1_revb_hello/freedom-metal/src/drivers/sifive_fe310-g000_pll.c:298
200156c6:	fdc42783          	lw	a5,-36(s0)
200156ca:	4398                	lw	a4,0(a5)
200156cc:	fd442783          	lw	a5,-44(s0)
200156d0:	4f9c                	lw	a5,24(a5)
200156d2:	00a79693          	slli	a3,a5,0xa
200156d6:	6785                	lui	a5,0x1
200156d8:	c0078793          	addi	a5,a5,-1024 # c00 <__heap_size+0x400>
200156dc:	8ff5                	and	a5,a5,a3
200156de:	8f5d                	or	a4,a4,a5
200156e0:	fdc42783          	lw	a5,-36(s0)
200156e4:	c398                	sw	a4,0(a5)
/home/nicoladgg/wsFreedomStudio/sifive_hifive1_revb_hello/freedom-metal/src/drivers/sifive_fe310-g000_pll.c:300
200156e6:	fd442783          	lw	a5,-44(s0)
200156ea:	4fdc                	lw	a5,28(a5)
200156ec:	0207db63          	bgez	a5,20015722 <configure_pll+0xd4>
/home/nicoladgg/wsFreedomStudio/sifive_hifive1_revb_hello/freedom-metal/src/drivers/sifive_fe310-g000_pll.c:302
200156f0:	fd842783          	lw	a5,-40(s0)
200156f4:	439c                	lw	a5,0(a5)
200156f6:	1007e713          	ori	a4,a5,256
200156fa:	fd842783          	lw	a5,-40(s0)
200156fe:	c398                	sw	a4,0(a5)
/home/nicoladgg/wsFreedomStudio/sifive_hifive1_revb_hello/freedom-metal/src/drivers/sifive_fe310-g000_pll.c:304
20015700:	fd842783          	lw	a5,-40(s0)
20015704:	439c                	lw	a5,0(a5)
20015706:	fc07f713          	andi	a4,a5,-64
2001570a:	fd842783          	lw	a5,-40(s0)
2001570e:	c398                	sw	a4,0(a5)
/home/nicoladgg/wsFreedomStudio/sifive_hifive1_revb_hello/freedom-metal/src/drivers/sifive_fe310-g000_pll.c:305
20015710:	fd842783          	lw	a5,-40(s0)
20015714:	439c                	lw	a5,0(a5)
20015716:	0017e713          	ori	a4,a5,1
2001571a:	fd842783          	lw	a5,-40(s0)
2001571e:	c398                	sw	a4,0(a5)
20015720:	a82d                	j	2001575a <configure_pll+0x10c>
/home/nicoladgg/wsFreedomStudio/sifive_hifive1_revb_hello/freedom-metal/src/drivers/sifive_fe310-g000_pll.c:307
20015722:	fd842783          	lw	a5,-40(s0)
20015726:	439c                	lw	a5,0(a5)
20015728:	eff7f713          	andi	a4,a5,-257
2001572c:	fd842783          	lw	a5,-40(s0)
20015730:	c398                	sw	a4,0(a5)
/home/nicoladgg/wsFreedomStudio/sifive_hifive1_revb_hello/freedom-metal/src/drivers/sifive_fe310-g000_pll.c:309
20015732:	fd842783          	lw	a5,-40(s0)
20015736:	439c                	lw	a5,0(a5)
20015738:	fc07f713          	andi	a4,a5,-64
2001573c:	fd842783          	lw	a5,-40(s0)
20015740:	c398                	sw	a4,0(a5)
/home/nicoladgg/wsFreedomStudio/sifive_hifive1_revb_hello/freedom-metal/src/drivers/sifive_fe310-g000_pll.c:310
20015742:	fd842783          	lw	a5,-40(s0)
20015746:	4398                	lw	a4,0(a5)
20015748:	fd442783          	lw	a5,-44(s0)
2001574c:	4fdc                	lw	a5,28(a5)
2001574e:	03f7f793          	andi	a5,a5,63
20015752:	8f5d                	or	a4,a4,a5
20015754:	fd842783          	lw	a5,-40(s0)
20015758:	c398                	sw	a4,0(a5)
/home/nicoladgg/wsFreedomStudio/sifive_hifive1_revb_hello/freedom-metal/src/drivers/sifive_fe310-g000_pll.c:313
2001575a:	fdc42783          	lw	a5,-36(s0)
2001575e:	4398                	lw	a4,0(a5)
20015760:	fffc07b7          	lui	a5,0xfffc0
20015764:	17fd                	addi	a5,a5,-1
20015766:	8f7d                	and	a4,a4,a5
20015768:	fdc42783          	lw	a5,-36(s0)
2001576c:	c398                	sw	a4,0(a5)
/home/nicoladgg/wsFreedomStudio/sifive_hifive1_revb_hello/freedom-metal/src/drivers/sifive_fe310-g000_pll.c:318
2001576e:	fe040793          	addi	a5,s0,-32
20015772:	863e                	mv	a2,a5
20015774:	4585                	li	a1,1
20015776:	81418513          	addi	a0,gp,-2028 # 8000049c <__metal_dt_clint_2000000>
2001577a:	da1fd0ef          	jal	ra,2001351a <__metal_driver_riscv_clint0_command_request>
/home/nicoladgg/wsFreedomStudio/sifive_hifive1_revb_hello/freedom-metal/src/drivers/sifive_fe310-g000_pll.c:320
2001577e:	fe042603          	lw	a2,-32(s0)
20015782:	fe442683          	lw	a3,-28(s0)
20015786:	4511                	li	a0,4
20015788:	4581                	li	a1,0
2001578a:	00a60733          	add	a4,a2,a0
2001578e:	883a                	mv	a6,a4
20015790:	00c83833          	sltu	a6,a6,a2
20015794:	00b687b3          	add	a5,a3,a1
20015798:	00f806b3          	add	a3,a6,a5
2001579c:	87b6                	mv	a5,a3
2001579e:	fee42423          	sw	a4,-24(s0)
200157a2:	fef42623          	sw	a5,-20(s0)
/home/nicoladgg/wsFreedomStudio/sifive_hifive1_revb_hello/freedom-metal/src/drivers/sifive_fe310-g000_pll.c:321
200157a6:	a809                	j	200157b8 <configure_pll+0x16a>
/home/nicoladgg/wsFreedomStudio/sifive_hifive1_revb_hello/freedom-metal/src/drivers/sifive_fe310-g000_pll.c:322
200157a8:	fe040793          	addi	a5,s0,-32
200157ac:	863e                	mv	a2,a5
200157ae:	4585                	li	a1,1
200157b0:	81418513          	addi	a0,gp,-2028 # 8000049c <__metal_dt_clint_2000000>
200157b4:	d67fd0ef          	jal	ra,2001351a <__metal_driver_riscv_clint0_command_request>
/home/nicoladgg/wsFreedomStudio/sifive_hifive1_revb_hello/freedom-metal/src/drivers/sifive_fe310-g000_pll.c:321
200157b8:	fe042703          	lw	a4,-32(s0)
200157bc:	fe442783          	lw	a5,-28(s0)
200157c0:	fec42683          	lw	a3,-20(s0)
200157c4:	863e                	mv	a2,a5
200157c6:	00c6ec63          	bltu	a3,a2,200157de <configure_pll+0x190>
200157ca:	fec42683          	lw	a3,-20(s0)
200157ce:	863e                	mv	a2,a5
200157d0:	fcc69ce3          	bne	a3,a2,200157a8 <configure_pll+0x15a>
200157d4:	fe842683          	lw	a3,-24(s0)
200157d8:	87ba                	mv	a5,a4
200157da:	fcf6f7e3          	bgeu	a3,a5,200157a8 <configure_pll+0x15a>
/home/nicoladgg/wsFreedomStudio/sifive_hifive1_revb_hello/freedom-metal/src/drivers/sifive_fe310-g000_pll.c:340
200157de:	0001                	nop
/home/nicoladgg/wsFreedomStudio/sifive_hifive1_revb_hello/freedom-metal/src/drivers/sifive_fe310-g000_pll.c:340 (discriminator 1)
200157e0:	fdc42783          	lw	a5,-36(s0)
200157e4:	439c                	lw	a5,0(a5)
200157e6:	fe07dde3          	bgez	a5,200157e0 <configure_pll+0x192>
/home/nicoladgg/wsFreedomStudio/sifive_hifive1_revb_hello/freedom-metal/src/drivers/sifive_fe310-g000_pll.c:342
200157ea:	0001                	nop
200157ec:	0001                	nop
200157ee:	50b2                	lw	ra,44(sp)
200157f0:	5422                	lw	s0,40(sp)
200157f2:	6145                	addi	sp,sp,48
200157f4:	8082                	ret

200157f6 <__metal_driver_sifive_fe310_g000_pll_set_rate_hz>:
__metal_driver_sifive_fe310_g000_pll_set_rate_hz():
/home/nicoladgg/wsFreedomStudio/sifive_hifive1_revb_hello/freedom-metal/src/drivers/sifive_fe310-g000_pll.c:345
200157f6:	715d                	addi	sp,sp,-80
200157f8:	c686                	sw	ra,76(sp)
200157fa:	c4a2                	sw	s0,72(sp)
200157fc:	0880                	addi	s0,sp,80
200157fe:	faa42e23          	sw	a0,-68(s0)
20015802:	fab42c23          	sw	a1,-72(s0)
/home/nicoladgg/wsFreedomStudio/sifive_hifive1_revb_hello/freedom-metal/src/drivers/sifive_fe310-g000_pll.c:347
20015806:	fbc42503          	lw	a0,-68(s0)
2001580a:	a9dff0ef          	jal	ra,200152a6 <__metal_driver_sifive_fe310_g000_pll_pllref>
2001580e:	fea42623          	sw	a0,-20(s0)
/home/nicoladgg/wsFreedomStudio/sifive_hifive1_revb_hello/freedom-metal/src/drivers/sifive_fe310-g000_pll.c:349
20015812:	fbc42503          	lw	a0,-68(s0)
20015816:	a77ff0ef          	jal	ra,2001528c <__metal_driver_sifive_fe310_g000_pll_pllsel0>
2001581a:	fea42423          	sw	a0,-24(s0)
/home/nicoladgg/wsFreedomStudio/sifive_hifive1_revb_hello/freedom-metal/src/drivers/sifive_fe310-g000_pll.c:351
2001581e:	fbc42503          	lw	a0,-68(s0)
20015822:	adbff0ef          	jal	ra,200152fc <__metal_driver_sifive_fe310_g000_pll_config_offset>
20015826:	fea42223          	sw	a0,-28(s0)
/home/nicoladgg/wsFreedomStudio/sifive_hifive1_revb_hello/freedom-metal/src/drivers/sifive_fe310-g000_pll.c:353
2001582a:	fbc42503          	lw	a0,-68(s0)
2001582e:	aa9ff0ef          	jal	ra,200152d6 <__metal_driver_sifive_fe310_g000_pll_divider_offset>
20015832:	fea42023          	sw	a0,-32(s0)
/home/nicoladgg/wsFreedomStudio/sifive_hifive1_revb_hello/freedom-metal/src/drivers/sifive_fe310-g000_pll.c:354
20015836:	aedff0ef          	jal	ra,20015322 <__metal_driver_sifive_fe310_g000_prci_base>
2001583a:	fca42e23          	sw	a0,-36(s0)
/home/nicoladgg/wsFreedomStudio/sifive_hifive1_revb_hello/freedom-metal/src/drivers/sifive_fe310-g000_pll.c:356
2001583e:	fdc42703          	lw	a4,-36(s0)
20015842:	fe442783          	lw	a5,-28(s0)
20015846:	97ba                	add	a5,a5,a4
20015848:	fcf42c23          	sw	a5,-40(s0)
/home/nicoladgg/wsFreedomStudio/sifive_hifive1_revb_hello/freedom-metal/src/drivers/sifive_fe310-g000_pll.c:357
2001584c:	fdc42703          	lw	a4,-36(s0)
20015850:	fe042783          	lw	a5,-32(s0)
20015854:	97ba                	add	a5,a5,a4
20015856:	fcf42a23          	sw	a5,-44(s0)
/home/nicoladgg/wsFreedomStudio/sifive_hifive1_revb_hello/freedom-metal/src/drivers/sifive_fe310-g000_pll.c:360
2001585a:	fd842783          	lw	a5,-40(s0)
2001585e:	4398                	lw	a4,0(a5)
20015860:	67c1                	lui	a5,0x10
20015862:	8ff9                	and	a5,a5,a4
20015864:	cb91                	beqz	a5,20015878 <__metal_driver_sifive_fe310_g000_pll_set_rate_hz+0x82>
/home/nicoladgg/wsFreedomStudio/sifive_hifive1_revb_hello/freedom-metal/src/drivers/sifive_fe310-g000_pll.c:361
20015866:	fd842783          	lw	a5,-40(s0)
2001586a:	4398                	lw	a4,0(a5)
2001586c:	77c1                	lui	a5,0xffff0
2001586e:	17fd                	addi	a5,a5,-1
20015870:	8f7d                	and	a4,a4,a5
20015872:	fd842783          	lw	a5,-40(s0)
20015876:	c398                	sw	a4,0(a5)
/home/nicoladgg/wsFreedomStudio/sifive_hifive1_revb_hello/freedom-metal/src/drivers/sifive_fe310-g000_pll.c:366
20015878:	fd842783          	lw	a5,-40(s0)
2001587c:	4398                	lw	a4,0(a5)
2001587e:	000207b7          	lui	a5,0x20
20015882:	8ff9                	and	a5,a5,a4
/home/nicoladgg/wsFreedomStudio/sifive_hifive1_revb_hello/freedom-metal/src/drivers/sifive_fe310-g000_pll.c:365
20015884:	c781                	beqz	a5,2001588c <__metal_driver_sifive_fe310_g000_pll_set_rate_hz+0x96>
/home/nicoladgg/wsFreedomStudio/sifive_hifive1_revb_hello/freedom-metal/src/drivers/sifive_fe310-g000_pll.c:365 (discriminator 1)
20015886:	fec42783          	lw	a5,-20(s0)
2001588a:	a019                	j	20015890 <__metal_driver_sifive_fe310_g000_pll_set_rate_hz+0x9a>
/home/nicoladgg/wsFreedomStudio/sifive_hifive1_revb_hello/freedom-metal/src/drivers/sifive_fe310-g000_pll.c:365 (discriminator 2)
2001588c:	fe842783          	lw	a5,-24(s0)
/home/nicoladgg/wsFreedomStudio/sifive_hifive1_revb_hello/freedom-metal/src/drivers/sifive_fe310-g000_pll.c:365 (discriminator 4)
20015890:	853e                	mv	a0,a5
20015892:	2abd                	jal	20015a10 <metal_clock_get_rate_hz>
20015894:	fca42823          	sw	a0,-48(s0)
/home/nicoladgg/wsFreedomStudio/sifive_hifive1_revb_hello/freedom-metal/src/drivers/sifive_fe310-g000_pll.c:370 (discriminator 4)
20015898:	fd042703          	lw	a4,-48(s0)
2001589c:	87ba                	mv	a5,a4
2001589e:	0786                	slli	a5,a5,0x1
200158a0:	97ba                	add	a5,a5,a4
200158a2:	41f7d713          	srai	a4,a5,0x1f
200158a6:	8b0d                	andi	a4,a4,3
200158a8:	97ba                	add	a5,a5,a4
200158aa:	8789                	srai	a5,a5,0x2
200158ac:	873e                	mv	a4,a5
200158ae:	fb842783          	lw	a5,-72(s0)
200158b2:	02e7cb63          	blt	a5,a4,200158e8 <__metal_driver_sifive_fe310_g000_pll_set_rate_hz+0xf2>
/home/nicoladgg/wsFreedomStudio/sifive_hifive1_revb_hello/freedom-metal/src/drivers/sifive_fe310-g000_pll.c:370 (discriminator 1)
200158b6:	fd042703          	lw	a4,-48(s0)
200158ba:	87ba                	mv	a5,a4
200158bc:	078a                	slli	a5,a5,0x2
200158be:	97ba                	add	a5,a5,a4
200158c0:	41f7d713          	srai	a4,a5,0x1f
200158c4:	8b0d                	andi	a4,a4,3
200158c6:	97ba                	add	a5,a5,a4
200158c8:	8789                	srai	a5,a5,0x2
200158ca:	873e                	mv	a4,a5
200158cc:	fb842783          	lw	a5,-72(s0)
200158d0:	00f74c63          	blt	a4,a5,200158e8 <__metal_driver_sifive_fe310_g000_pll_set_rate_hz+0xf2>
/home/nicoladgg/wsFreedomStudio/sifive_hifive1_revb_hello/freedom-metal/src/drivers/sifive_fe310-g000_pll.c:371
200158d4:	fd842783          	lw	a5,-40(s0)
200158d8:	4398                	lw	a4,0(a5)
200158da:	000407b7          	lui	a5,0x40
200158de:	8f5d                	or	a4,a4,a5
200158e0:	fd842783          	lw	a5,-40(s0)
200158e4:	c398                	sw	a4,0(a5)
200158e6:	a0b1                	j	20015932 <__metal_driver_sifive_fe310_g000_pll_set_rate_hz+0x13c>
/home/nicoladgg/wsFreedomStudio/sifive_hifive1_revb_hello/freedom-metal/src/drivers/sifive_fe310-g000_pll.c:373
200158e8:	fb842583          	lw	a1,-72(s0)
200158ec:	fd042503          	lw	a0,-48(s0)
200158f0:	3955                	jal	200155a4 <find_closest_config>
200158f2:	fca42623          	sw	a0,-52(s0)
/home/nicoladgg/wsFreedomStudio/sifive_hifive1_revb_hello/freedom-metal/src/drivers/sifive_fe310-g000_pll.c:374
200158f6:	fcc42703          	lw	a4,-52(s0)
200158fa:	57fd                	li	a5,-1
200158fc:	02f70263          	beq	a4,a5,20015920 <__metal_driver_sifive_fe310_g000_pll_set_rate_hz+0x12a>
/home/nicoladgg/wsFreedomStudio/sifive_hifive1_revb_hello/freedom-metal/src/drivers/sifive_fe310-g000_pll.c:375
20015900:	fcc42783          	lw	a5,-52(s0)
20015904:	00579713          	slli	a4,a5,0x5
20015908:	200107b7          	lui	a5,0x20010
2001590c:	66078793          	addi	a5,a5,1632 # 20010660 <pll_configs>
20015910:	97ba                	add	a5,a5,a4
20015912:	863e                	mv	a2,a5
20015914:	fd442583          	lw	a1,-44(s0)
20015918:	fd842503          	lw	a0,-40(s0)
2001591c:	3b0d                	jal	2001564e <configure_pll>
2001591e:	a811                	j	20015932 <__metal_driver_sifive_fe310_g000_pll_set_rate_hz+0x13c>
/home/nicoladgg/wsFreedomStudio/sifive_hifive1_revb_hello/freedom-metal/src/drivers/sifive_fe310-g000_pll.c:378
20015920:	fd842783          	lw	a5,-40(s0)
20015924:	4398                	lw	a4,0(a5)
20015926:	000407b7          	lui	a5,0x40
2001592a:	8f5d                	or	a4,a4,a5
2001592c:	fd842783          	lw	a5,-40(s0)
20015930:	c398                	sw	a4,0(a5)
/home/nicoladgg/wsFreedomStudio/sifive_hifive1_revb_hello/freedom-metal/src/drivers/sifive_fe310-g000_pll.c:383
20015932:	fd842783          	lw	a5,-40(s0)
20015936:	4398                	lw	a4,0(a5)
20015938:	67c1                	lui	a5,0x10
2001593a:	8f5d                	or	a4,a4,a5
2001593c:	fd842783          	lw	a5,-40(s0)
20015940:	c398                	sw	a4,0(a5)
/home/nicoladgg/wsFreedomStudio/sifive_hifive1_revb_hello/freedom-metal/src/drivers/sifive_fe310-g000_pll.c:385
20015942:	fbc42503          	lw	a0,-68(s0)
20015946:	af3ff0ef          	jal	ra,20015438 <__metal_driver_sifive_fe310_g000_pll_get_rate_hz>
2001594a:	87aa                	mv	a5,a0
/home/nicoladgg/wsFreedomStudio/sifive_hifive1_revb_hello/freedom-metal/src/drivers/sifive_fe310-g000_pll.c:386
2001594c:	853e                	mv	a0,a5
2001594e:	40b6                	lw	ra,76(sp)
20015950:	4426                	lw	s0,72(sp)
20015952:	6161                	addi	sp,sp,80
20015954:	8082                	ret

20015956 <__metal_driver_sifive_fe310_g000_prci_base>:
__metal_driver_sifive_fe310_g000_prci_base():
/home/nicoladgg/wsFreedomStudio/sifive_hifive1_revb_hello/bsp/build/debug/./metal/machine.h:1364
20015956:	1141                	addi	sp,sp,-16
20015958:	c622                	sw	s0,12(sp)
2001595a:	0800                	addi	s0,sp,16
/home/nicoladgg/wsFreedomStudio/sifive_hifive1_revb_hello/bsp/build/debug/./metal/machine.h:1365
2001595c:	100087b7          	lui	a5,0x10008
/home/nicoladgg/wsFreedomStudio/sifive_hifive1_revb_hello/bsp/build/debug/./metal/machine.h:1366
20015960:	853e                	mv	a0,a5
20015962:	4432                	lw	s0,12(sp)
20015964:	0141                	addi	sp,sp,16
20015966:	8082                	ret

20015968 <__metal_driver_sifive_fe310_g000_prci_get_reg>:
__metal_driver_sifive_fe310_g000_prci_get_reg():
/home/nicoladgg/wsFreedomStudio/sifive_hifive1_revb_hello/freedom-metal/src/drivers/sifive_fe310-g000_prci.c:12
20015968:	7179                	addi	sp,sp,-48
2001596a:	d606                	sw	ra,44(sp)
2001596c:	d422                	sw	s0,40(sp)
2001596e:	1800                	addi	s0,sp,48
20015970:	fca42e23          	sw	a0,-36(s0)
20015974:	fcb42c23          	sw	a1,-40(s0)
/home/nicoladgg/wsFreedomStudio/sifive_hifive1_revb_hello/freedom-metal/src/drivers/sifive_fe310-g000_prci.c:13
20015978:	3ff9                	jal	20015956 <__metal_driver_sifive_fe310_g000_prci_base>
2001597a:	87aa                	mv	a5,a0
2001597c:	fef42623          	sw	a5,-20(s0)
/home/nicoladgg/wsFreedomStudio/sifive_hifive1_revb_hello/freedom-metal/src/drivers/sifive_fe310-g000_prci.c:14
20015980:	fd842703          	lw	a4,-40(s0)
20015984:	fec42783          	lw	a5,-20(s0)
20015988:	97ba                	add	a5,a5,a4
2001598a:	439c                	lw	a5,0(a5)
/home/nicoladgg/wsFreedomStudio/sifive_hifive1_revb_hello/freedom-metal/src/drivers/sifive_fe310-g000_prci.c:15
2001598c:	853e                	mv	a0,a5
2001598e:	50b2                	lw	ra,44(sp)
20015990:	5422                	lw	s0,40(sp)
20015992:	6145                	addi	sp,sp,48
20015994:	8082                	ret

20015996 <__metal_driver_sifive_fe310_g000_prci_set_reg>:
__metal_driver_sifive_fe310_g000_prci_set_reg():
/home/nicoladgg/wsFreedomStudio/sifive_hifive1_revb_hello/freedom-metal/src/drivers/sifive_fe310-g000_prci.c:19
20015996:	7179                	addi	sp,sp,-48
20015998:	d606                	sw	ra,44(sp)
2001599a:	d422                	sw	s0,40(sp)
2001599c:	1800                	addi	s0,sp,48
2001599e:	fca42e23          	sw	a0,-36(s0)
200159a2:	fcb42c23          	sw	a1,-40(s0)
200159a6:	fcc42a23          	sw	a2,-44(s0)
/home/nicoladgg/wsFreedomStudio/sifive_hifive1_revb_hello/freedom-metal/src/drivers/sifive_fe310-g000_prci.c:20
200159aa:	3775                	jal	20015956 <__metal_driver_sifive_fe310_g000_prci_base>
200159ac:	87aa                	mv	a5,a0
200159ae:	fef42623          	sw	a5,-20(s0)
/home/nicoladgg/wsFreedomStudio/sifive_hifive1_revb_hello/freedom-metal/src/drivers/sifive_fe310-g000_prci.c:21
200159b2:	fd842703          	lw	a4,-40(s0)
200159b6:	fec42783          	lw	a5,-20(s0)
200159ba:	97ba                	add	a5,a5,a4
200159bc:	873e                	mv	a4,a5
200159be:	fd442783          	lw	a5,-44(s0)
200159c2:	c31c                	sw	a5,0(a4)
/home/nicoladgg/wsFreedomStudio/sifive_hifive1_revb_hello/freedom-metal/src/drivers/sifive_fe310-g000_prci.c:22
200159c4:	853e                	mv	a0,a5
200159c6:	50b2                	lw	ra,44(sp)
200159c8:	5422                	lw	s0,40(sp)
200159ca:	6145                	addi	sp,sp,48
200159cc:	8082                	ret

200159ce <_metal_clock_call_all_callbacks>:
_metal_clock_call_all_callbacks():
/home/nicoladgg/wsFreedomStudio/sifive_hifive1_revb_hello/freedom-metal/metal/clock.h:50
200159ce:	7179                	addi	sp,sp,-48
200159d0:	d606                	sw	ra,44(sp)
200159d2:	d422                	sw	s0,40(sp)
200159d4:	1800                	addi	s0,sp,48
200159d6:	fca42e23          	sw	a0,-36(s0)
/home/nicoladgg/wsFreedomStudio/sifive_hifive1_revb_hello/freedom-metal/metal/clock.h:51
200159da:	fdc42783          	lw	a5,-36(s0)
200159de:	fef42623          	sw	a5,-20(s0)
/home/nicoladgg/wsFreedomStudio/sifive_hifive1_revb_hello/freedom-metal/metal/clock.h:52
200159e2:	a831                	j	200159fe <_metal_clock_call_all_callbacks+0x30>
/home/nicoladgg/wsFreedomStudio/sifive_hifive1_revb_hello/freedom-metal/metal/clock.h:53
200159e4:	fec42783          	lw	a5,-20(s0)
200159e8:	4398                	lw	a4,0(a5)
200159ea:	fec42783          	lw	a5,-20(s0)
200159ee:	43dc                	lw	a5,4(a5)
200159f0:	853e                	mv	a0,a5
200159f2:	9702                	jalr	a4
/home/nicoladgg/wsFreedomStudio/sifive_hifive1_revb_hello/freedom-metal/metal/clock.h:54
200159f4:	fec42783          	lw	a5,-20(s0)
200159f8:	479c                	lw	a5,8(a5)
200159fa:	fef42623          	sw	a5,-20(s0)
/home/nicoladgg/wsFreedomStudio/sifive_hifive1_revb_hello/freedom-metal/metal/clock.h:52
200159fe:	fec42783          	lw	a5,-20(s0)
20015a02:	f3ed                	bnez	a5,200159e4 <_metal_clock_call_all_callbacks+0x16>
/home/nicoladgg/wsFreedomStudio/sifive_hifive1_revb_hello/freedom-metal/metal/clock.h:56
20015a04:	0001                	nop
20015a06:	0001                	nop
20015a08:	50b2                	lw	ra,44(sp)
20015a0a:	5422                	lw	s0,40(sp)
20015a0c:	6145                	addi	sp,sp,48
20015a0e:	8082                	ret

20015a10 <metal_clock_get_rate_hz>:
metal_clock_get_rate_hz():
/home/nicoladgg/wsFreedomStudio/sifive_hifive1_revb_hello/freedom-metal/metal/clock.h:110
20015a10:	1101                	addi	sp,sp,-32
20015a12:	ce06                	sw	ra,28(sp)
20015a14:	cc22                	sw	s0,24(sp)
20015a16:	1000                	addi	s0,sp,32
20015a18:	fea42623          	sw	a0,-20(s0)
/home/nicoladgg/wsFreedomStudio/sifive_hifive1_revb_hello/freedom-metal/metal/clock.h:111
20015a1c:	fec42783          	lw	a5,-20(s0)
20015a20:	439c                	lw	a5,0(a5)
20015a22:	439c                	lw	a5,0(a5)
20015a24:	fec42503          	lw	a0,-20(s0)
20015a28:	9782                	jalr	a5
20015a2a:	87aa                	mv	a5,a0
/home/nicoladgg/wsFreedomStudio/sifive_hifive1_revb_hello/freedom-metal/metal/clock.h:112
20015a2c:	853e                	mv	a0,a5
20015a2e:	40f2                	lw	ra,28(sp)
20015a30:	4462                	lw	s0,24(sp)
20015a32:	6105                	addi	sp,sp,32
20015a34:	8082                	ret

20015a36 <metal_clock_set_rate_hz>:
metal_clock_set_rate_hz():
/home/nicoladgg/wsFreedomStudio/sifive_hifive1_revb_hello/freedom-metal/metal/clock.h:128
20015a36:	7179                	addi	sp,sp,-48
20015a38:	d606                	sw	ra,44(sp)
20015a3a:	d422                	sw	s0,40(sp)
20015a3c:	1800                	addi	s0,sp,48
20015a3e:	fca42e23          	sw	a0,-36(s0)
20015a42:	fcb42c23          	sw	a1,-40(s0)
/home/nicoladgg/wsFreedomStudio/sifive_hifive1_revb_hello/freedom-metal/metal/clock.h:129
20015a46:	fdc42783          	lw	a5,-36(s0)
20015a4a:	43dc                	lw	a5,4(a5)
20015a4c:	853e                	mv	a0,a5
20015a4e:	3741                	jal	200159ce <_metal_clock_call_all_callbacks>
/home/nicoladgg/wsFreedomStudio/sifive_hifive1_revb_hello/freedom-metal/metal/clock.h:131
20015a50:	fdc42783          	lw	a5,-36(s0)
20015a54:	439c                	lw	a5,0(a5)
20015a56:	43dc                	lw	a5,4(a5)
20015a58:	fd842583          	lw	a1,-40(s0)
20015a5c:	fdc42503          	lw	a0,-36(s0)
20015a60:	9782                	jalr	a5
20015a62:	fea42623          	sw	a0,-20(s0)
/home/nicoladgg/wsFreedomStudio/sifive_hifive1_revb_hello/freedom-metal/metal/clock.h:133
20015a66:	fdc42783          	lw	a5,-36(s0)
20015a6a:	479c                	lw	a5,8(a5)
20015a6c:	853e                	mv	a0,a5
20015a6e:	3785                	jal	200159ce <_metal_clock_call_all_callbacks>
/home/nicoladgg/wsFreedomStudio/sifive_hifive1_revb_hello/freedom-metal/metal/clock.h:135
20015a70:	fec42783          	lw	a5,-20(s0)
/home/nicoladgg/wsFreedomStudio/sifive_hifive1_revb_hello/freedom-metal/metal/clock.h:136
20015a74:	853e                	mv	a0,a5
20015a76:	50b2                	lw	ra,44(sp)
20015a78:	5422                	lw	s0,40(sp)
20015a7a:	6145                	addi	sp,sp,48
20015a7c:	8082                	ret

20015a7e <metal_cpu_interrupt_controller>:
metal_cpu_interrupt_controller():
/home/nicoladgg/wsFreedomStudio/sifive_hifive1_revb_hello/freedom-metal/metal/cpu.h:224
20015a7e:	1101                	addi	sp,sp,-32
20015a80:	ce06                	sw	ra,28(sp)
20015a82:	cc22                	sw	s0,24(sp)
20015a84:	1000                	addi	s0,sp,32
20015a86:	fea42623          	sw	a0,-20(s0)
/home/nicoladgg/wsFreedomStudio/sifive_hifive1_revb_hello/freedom-metal/metal/cpu.h:225
20015a8a:	fec42783          	lw	a5,-20(s0)
20015a8e:	439c                	lw	a5,0(a5)
20015a90:	57dc                	lw	a5,44(a5)
20015a92:	fec42503          	lw	a0,-20(s0)
20015a96:	9782                	jalr	a5
20015a98:	87aa                	mv	a5,a0
/home/nicoladgg/wsFreedomStudio/sifive_hifive1_revb_hello/freedom-metal/metal/cpu.h:226
20015a9a:	853e                	mv	a0,a5
20015a9c:	40f2                	lw	ra,28(sp)
20015a9e:	4462                	lw	s0,24(sp)
20015aa0:	6105                	addi	sp,sp,32
20015aa2:	8082                	ret

20015aa4 <metal_cpu_get>:
metal_cpu_get():
/home/nicoladgg/wsFreedomStudio/sifive_hifive1_revb_hello/freedom-metal/src/cpu.c:7
20015aa4:	1101                	addi	sp,sp,-32
20015aa6:	ce22                	sw	s0,28(sp)
20015aa8:	1000                	addi	s0,sp,32
20015aaa:	fea42623          	sw	a0,-20(s0)
/home/nicoladgg/wsFreedomStudio/sifive_hifive1_revb_hello/freedom-metal/src/cpu.c:8
20015aae:	fec42783          	lw	a5,-20(s0)
20015ab2:	eb89                	bnez	a5,20015ac4 <metal_cpu_get+0x20>
/home/nicoladgg/wsFreedomStudio/sifive_hifive1_revb_hello/freedom-metal/src/cpu.c:9
20015ab4:	fec42703          	lw	a4,-20(s0)
20015ab8:	070a                	slli	a4,a4,0x2
20015aba:	81018793          	addi	a5,gp,-2032 # 80000498 <__metal_cpu_table>
20015abe:	97ba                	add	a5,a5,a4
20015ac0:	439c                	lw	a5,0(a5)
20015ac2:	a011                	j	20015ac6 <metal_cpu_get+0x22>
/home/nicoladgg/wsFreedomStudio/sifive_hifive1_revb_hello/freedom-metal/src/cpu.c:11
20015ac4:	4781                	li	a5,0
/home/nicoladgg/wsFreedomStudio/sifive_hifive1_revb_hello/freedom-metal/src/cpu.c:12
20015ac6:	853e                	mv	a0,a5
20015ac8:	4472                	lw	s0,28(sp)
20015aca:	6105                	addi	sp,sp,32
20015acc:	8082                	ret

20015ace <metal_cpu_get_current_hartid>:
metal_cpu_get_current_hartid():
/home/nicoladgg/wsFreedomStudio/sifive_hifive1_revb_hello/freedom-metal/src/cpu.c:14
20015ace:	1101                	addi	sp,sp,-32
20015ad0:	ce22                	sw	s0,28(sp)
20015ad2:	1000                	addi	s0,sp,32
/home/nicoladgg/wsFreedomStudio/sifive_hifive1_revb_hello/freedom-metal/src/cpu.c:17
20015ad4:	f14027f3          	csrr	a5,mhartid
20015ad8:	fef42623          	sw	a5,-20(s0)
/home/nicoladgg/wsFreedomStudio/sifive_hifive1_revb_hello/freedom-metal/src/cpu.c:18
20015adc:	fec42783          	lw	a5,-20(s0)
/home/nicoladgg/wsFreedomStudio/sifive_hifive1_revb_hello/freedom-metal/src/cpu.c:20
20015ae0:	853e                	mv	a0,a5
20015ae2:	4472                	lw	s0,28(sp)
20015ae4:	6105                	addi	sp,sp,32
20015ae6:	8082                	ret

20015ae8 <metal_shutdown>:
metal_shutdown():
/home/nicoladgg/wsFreedomStudio/sifive_hifive1_revb_hello/freedom-metal/src/shutdown.c:17
20015ae8:	1101                	addi	sp,sp,-32
20015aea:	ce22                	sw	s0,28(sp)
20015aec:	1000                	addi	s0,sp,32
20015aee:	fea42623          	sw	a0,-20(s0)
/home/nicoladgg/wsFreedomStudio/sifive_hifive1_revb_hello/freedom-metal/src/shutdown.c:19 (discriminator 1)
20015af2:	0001                	nop
20015af4:	bffd                	j	20015af2 <metal_shutdown+0xa>
	...

20015b00 <__metal_vector_table>:
IRQ_0():
/home/nicoladgg/wsFreedomStudio/sifive_hifive1_revb_hello/freedom-metal/src/vector.S:96
20015b00:	df5fd06f          	j	200138f4 <metal_interrupt_vector_handler>

20015b04 <IRQ_1>:
IRQ_1():
/home/nicoladgg/wsFreedomStudio/sifive_hifive1_revb_hello/freedom-metal/src/vector.S:98
20015b04:	df1fd06f          	j	200138f4 <metal_interrupt_vector_handler>

20015b08 <IRQ_2>:
IRQ_2():
/home/nicoladgg/wsFreedomStudio/sifive_hifive1_revb_hello/freedom-metal/src/vector.S:100
20015b08:	dedfd06f          	j	200138f4 <metal_interrupt_vector_handler>

20015b0c <IRQ_3>:
IRQ_3():
/home/nicoladgg/wsFreedomStudio/sifive_hifive1_revb_hello/freedom-metal/src/vector.S:102
20015b0c:	e17fd06f          	j	20013922 <metal_software_interrupt_vector_handler>

20015b10 <IRQ_4>:
IRQ_4():
/home/nicoladgg/wsFreedomStudio/sifive_hifive1_revb_hello/freedom-metal/src/vector.S:104
20015b10:	de5fd06f          	j	200138f4 <metal_interrupt_vector_handler>

20015b14 <IRQ_5>:
IRQ_5():
/home/nicoladgg/wsFreedomStudio/sifive_hifive1_revb_hello/freedom-metal/src/vector.S:106
20015b14:	de1fd06f          	j	200138f4 <metal_interrupt_vector_handler>

20015b18 <IRQ_6>:
IRQ_6():
/home/nicoladgg/wsFreedomStudio/sifive_hifive1_revb_hello/freedom-metal/src/vector.S:108
20015b18:	dddfd06f          	j	200138f4 <metal_interrupt_vector_handler>

20015b1c <IRQ_7>:
IRQ_7():
/home/nicoladgg/wsFreedomStudio/sifive_hifive1_revb_hello/freedom-metal/src/vector.S:110
20015b1c:	ef9fd06f          	j	20013a14 <metal_timer_interrupt_vector_handler>

20015b20 <IRQ_8>:
IRQ_8():
/home/nicoladgg/wsFreedomStudio/sifive_hifive1_revb_hello/freedom-metal/src/vector.S:112
20015b20:	dd5fd06f          	j	200138f4 <metal_interrupt_vector_handler>

20015b24 <IRQ_9>:
IRQ_9():
/home/nicoladgg/wsFreedomStudio/sifive_hifive1_revb_hello/freedom-metal/src/vector.S:114
20015b24:	dd1fd06f          	j	200138f4 <metal_interrupt_vector_handler>

20015b28 <IRQ_10>:
IRQ_10():
/home/nicoladgg/wsFreedomStudio/sifive_hifive1_revb_hello/freedom-metal/src/vector.S:116
20015b28:	dcdfd06f          	j	200138f4 <metal_interrupt_vector_handler>

20015b2c <IRQ_11>:
IRQ_11():
/home/nicoladgg/wsFreedomStudio/sifive_hifive1_revb_hello/freedom-metal/src/vector.S:118
20015b2c:	dc9fd06f          	j	200138f4 <metal_interrupt_vector_handler>

20015b30 <IRQ_12>:
IRQ_12():
/home/nicoladgg/wsFreedomStudio/sifive_hifive1_revb_hello/freedom-metal/src/vector.S:120
20015b30:	dc5fd06f          	j	200138f4 <metal_interrupt_vector_handler>

20015b34 <IRQ_13>:
IRQ_13():
/home/nicoladgg/wsFreedomStudio/sifive_hifive1_revb_hello/freedom-metal/src/vector.S:122
20015b34:	dc1fd06f          	j	200138f4 <metal_interrupt_vector_handler>

20015b38 <IRQ_14>:
IRQ_14():
/home/nicoladgg/wsFreedomStudio/sifive_hifive1_revb_hello/freedom-metal/src/vector.S:124
20015b38:	dbdfd06f          	j	200138f4 <metal_interrupt_vector_handler>

20015b3c <IRQ_15>:
IRQ_15():
/home/nicoladgg/wsFreedomStudio/sifive_hifive1_revb_hello/freedom-metal/src/vector.S:126
20015b3c:	db9fd06f          	j	200138f4 <metal_interrupt_vector_handler>

20015b40 <IRQ_LC0>:
IRQ_LC0():
/home/nicoladgg/wsFreedomStudio/sifive_hifive1_revb_hello/freedom-metal/src/vector.S:128
20015b40:	a32fe06f          	j	20013d72 <metal_lc0_interrupt_vector_handler>

20015b44 <IRQ_LC1>:
IRQ_LC1():
/home/nicoladgg/wsFreedomStudio/sifive_hifive1_revb_hello/freedom-metal/src/vector.S:130
20015b44:	ac0fe06f          	j	20013e04 <metal_lc1_interrupt_vector_handler>

20015b48 <IRQ_LC2>:
IRQ_LC2():
/home/nicoladgg/wsFreedomStudio/sifive_hifive1_revb_hello/freedom-metal/src/vector.S:132
20015b48:	b4efe06f          	j	20013e96 <metal_lc2_interrupt_vector_handler>

20015b4c <IRQ_LC3>:
IRQ_LC3():
/home/nicoladgg/wsFreedomStudio/sifive_hifive1_revb_hello/freedom-metal/src/vector.S:134
20015b4c:	bdcfe06f          	j	20013f28 <metal_lc3_interrupt_vector_handler>

20015b50 <IRQ_LC4>:
IRQ_LC4():
/home/nicoladgg/wsFreedomStudio/sifive_hifive1_revb_hello/freedom-metal/src/vector.S:136
20015b50:	c6afe06f          	j	20013fba <metal_lc4_interrupt_vector_handler>

20015b54 <IRQ_LC5>:
IRQ_LC5():
/home/nicoladgg/wsFreedomStudio/sifive_hifive1_revb_hello/freedom-metal/src/vector.S:138
20015b54:	cf8fe06f          	j	2001404c <metal_lc5_interrupt_vector_handler>

20015b58 <IRQ_LC6>:
IRQ_LC6():
/home/nicoladgg/wsFreedomStudio/sifive_hifive1_revb_hello/freedom-metal/src/vector.S:140
20015b58:	d86fe06f          	j	200140de <metal_lc6_interrupt_vector_handler>

20015b5c <IRQ_LC7>:
IRQ_LC7():
/home/nicoladgg/wsFreedomStudio/sifive_hifive1_revb_hello/freedom-metal/src/vector.S:142
20015b5c:	e14fe06f          	j	20014170 <metal_lc7_interrupt_vector_handler>

20015b60 <IRQ_LC8>:
IRQ_LC8():
/home/nicoladgg/wsFreedomStudio/sifive_hifive1_revb_hello/freedom-metal/src/vector.S:144
20015b60:	ea2fe06f          	j	20014202 <metal_lc8_interrupt_vector_handler>

20015b64 <IRQ_LC9>:
IRQ_LC9():
/home/nicoladgg/wsFreedomStudio/sifive_hifive1_revb_hello/freedom-metal/src/vector.S:146
20015b64:	f30fe06f          	j	20014294 <metal_lc9_interrupt_vector_handler>

20015b68 <IRQ_LC10>:
IRQ_LC10():
/home/nicoladgg/wsFreedomStudio/sifive_hifive1_revb_hello/freedom-metal/src/vector.S:148
20015b68:	fbefe06f          	j	20014326 <metal_lc10_interrupt_vector_handler>

20015b6c <IRQ_LC11>:
IRQ_LC11():
/home/nicoladgg/wsFreedomStudio/sifive_hifive1_revb_hello/freedom-metal/src/vector.S:150
20015b6c:	84dfe06f          	j	200143b8 <metal_lc11_interrupt_vector_handler>

20015b70 <IRQ_LC12>:
IRQ_LC12():
/home/nicoladgg/wsFreedomStudio/sifive_hifive1_revb_hello/freedom-metal/src/vector.S:152
20015b70:	8dbfe06f          	j	2001444a <metal_lc12_interrupt_vector_handler>

20015b74 <IRQ_LC13>:
IRQ_LC13():
/home/nicoladgg/wsFreedomStudio/sifive_hifive1_revb_hello/freedom-metal/src/vector.S:154
20015b74:	969fe06f          	j	200144dc <metal_lc13_interrupt_vector_handler>

20015b78 <IRQ_LC14>:
IRQ_LC14():
/home/nicoladgg/wsFreedomStudio/sifive_hifive1_revb_hello/freedom-metal/src/vector.S:156
20015b78:	9f7fe06f          	j	2001456e <metal_lc14_interrupt_vector_handler>

20015b7c <IRQ_LC15>:
IRQ_LC15():
/home/nicoladgg/wsFreedomStudio/sifive_hifive1_revb_hello/freedom-metal/src/vector.S:158
20015b7c:	a85fe06f          	j	20014600 <metal_lc15_interrupt_vector_handler>

20015b80 <__metal_driver_fixed_clock_rate>:
__metal_driver_fixed_clock_rate():
/home/nicoladgg/wsFreedomStudio/sifive_hifive1_revb_hello/bsp/build/debug/./metal/machine.h:208
20015b80:	1101                	addi	sp,sp,-32
20015b82:	ce22                	sw	s0,28(sp)
20015b84:	1000                	addi	s0,sp,32
20015b86:	fea42623          	sw	a0,-20(s0)
/home/nicoladgg/wsFreedomStudio/sifive_hifive1_revb_hello/bsp/build/debug/./metal/machine.h:209
20015b8a:	fec42703          	lw	a4,-20(s0)
20015b8e:	800007b7          	lui	a5,0x80000
20015b92:	06078793          	addi	a5,a5,96 # 80000060 <__global_pointer$+0xfffff3d8>
20015b96:	00f71763          	bne	a4,a5,20015ba4 <__metal_driver_fixed_clock_rate+0x24>
/home/nicoladgg/wsFreedomStudio/sifive_hifive1_revb_hello/bsp/build/debug/./metal/machine.h:210
20015b9a:	00f427b7          	lui	a5,0xf42
20015b9e:	40078793          	addi	a5,a5,1024 # f42400 <__heap_size+0xf41c00>
20015ba2:	a099                	j	20015be8 <__metal_driver_fixed_clock_rate+0x68>
/home/nicoladgg/wsFreedomStudio/sifive_hifive1_revb_hello/bsp/build/debug/./metal/machine.h:212
20015ba4:	fec42703          	lw	a4,-20(s0)
20015ba8:	800007b7          	lui	a5,0x80000
20015bac:	06c78793          	addi	a5,a5,108 # 8000006c <__global_pointer$+0xfffff3e4>
20015bb0:	00f71763          	bne	a4,a5,20015bbe <__metal_driver_fixed_clock_rate+0x3e>
/home/nicoladgg/wsFreedomStudio/sifive_hifive1_revb_hello/bsp/build/debug/./metal/machine.h:213
20015bb4:	044aa7b7          	lui	a5,0x44aa
20015bb8:	20078793          	addi	a5,a5,512 # 44aa200 <__heap_size+0x44a9a00>
20015bbc:	a035                	j	20015be8 <__metal_driver_fixed_clock_rate+0x68>
/home/nicoladgg/wsFreedomStudio/sifive_hifive1_revb_hello/bsp/build/debug/./metal/machine.h:215
20015bbe:	fec42703          	lw	a4,-20(s0)
20015bc2:	800007b7          	lui	a5,0x80000
20015bc6:	07878793          	addi	a5,a5,120 # 80000078 <__global_pointer$+0xfffff3f0>
20015bca:	00f71463          	bne	a4,a5,20015bd2 <__metal_driver_fixed_clock_rate+0x52>
/home/nicoladgg/wsFreedomStudio/sifive_hifive1_revb_hello/bsp/build/debug/./metal/machine.h:216
20015bce:	67a1                	lui	a5,0x8
20015bd0:	a821                	j	20015be8 <__metal_driver_fixed_clock_rate+0x68>
/home/nicoladgg/wsFreedomStudio/sifive_hifive1_revb_hello/bsp/build/debug/./metal/machine.h:218
20015bd2:	fec42703          	lw	a4,-20(s0)
20015bd6:	800007b7          	lui	a5,0x80000
20015bda:	08478793          	addi	a5,a5,132 # 80000084 <__global_pointer$+0xfffff3fc>
20015bde:	00f71463          	bne	a4,a5,20015be6 <__metal_driver_fixed_clock_rate+0x66>
/home/nicoladgg/wsFreedomStudio/sifive_hifive1_revb_hello/bsp/build/debug/./metal/machine.h:219
20015be2:	67a1                	lui	a5,0x8
20015be4:	a011                	j	20015be8 <__metal_driver_fixed_clock_rate+0x68>
/home/nicoladgg/wsFreedomStudio/sifive_hifive1_revb_hello/bsp/build/debug/./metal/machine.h:222
20015be6:	4781                	li	a5,0
/home/nicoladgg/wsFreedomStudio/sifive_hifive1_revb_hello/bsp/build/debug/./metal/machine.h:224
20015be8:	853e                	mv	a0,a5
20015bea:	4472                	lw	s0,28(sp)
20015bec:	6105                	addi	sp,sp,32
20015bee:	8082                	ret

20015bf0 <__metal_driver_fixed_clock_get_rate_hz>:
__metal_driver_fixed_clock_get_rate_hz():
/home/nicoladgg/wsFreedomStudio/sifive_hifive1_revb_hello/freedom-metal/src/drivers/fixed-clock.c:12
20015bf0:	1101                	addi	sp,sp,-32
20015bf2:	ce06                	sw	ra,28(sp)
20015bf4:	cc22                	sw	s0,24(sp)
20015bf6:	1000                	addi	s0,sp,32
20015bf8:	fea42623          	sw	a0,-20(s0)
/home/nicoladgg/wsFreedomStudio/sifive_hifive1_revb_hello/freedom-metal/src/drivers/fixed-clock.c:13
20015bfc:	fec42503          	lw	a0,-20(s0)
20015c00:	3741                	jal	20015b80 <__metal_driver_fixed_clock_rate>
20015c02:	87aa                	mv	a5,a0
/home/nicoladgg/wsFreedomStudio/sifive_hifive1_revb_hello/freedom-metal/src/drivers/fixed-clock.c:14
20015c04:	853e                	mv	a0,a5
20015c06:	40f2                	lw	ra,28(sp)
20015c08:	4462                	lw	s0,24(sp)
20015c0a:	6105                	addi	sp,sp,32
20015c0c:	8082                	ret

20015c0e <__metal_driver_fixed_clock_set_rate_hz>:
__metal_driver_fixed_clock_set_rate_hz():
/home/nicoladgg/wsFreedomStudio/sifive_hifive1_revb_hello/freedom-metal/src/drivers/fixed-clock.c:17
20015c0e:	1101                	addi	sp,sp,-32
20015c10:	ce06                	sw	ra,28(sp)
20015c12:	cc22                	sw	s0,24(sp)
20015c14:	1000                	addi	s0,sp,32
20015c16:	fea42623          	sw	a0,-20(s0)
20015c1a:	feb42423          	sw	a1,-24(s0)
/home/nicoladgg/wsFreedomStudio/sifive_hifive1_revb_hello/freedom-metal/src/drivers/fixed-clock.c:18
20015c1e:	fec42503          	lw	a0,-20(s0)
20015c22:	37f9                	jal	20015bf0 <__metal_driver_fixed_clock_get_rate_hz>
20015c24:	87aa                	mv	a5,a0
/home/nicoladgg/wsFreedomStudio/sifive_hifive1_revb_hello/freedom-metal/src/drivers/fixed-clock.c:19
20015c26:	853e                	mv	a0,a5
20015c28:	40f2                	lw	ra,28(sp)
20015c2a:	4462                	lw	s0,24(sp)
20015c2c:	6105                	addi	sp,sp,32
20015c2e:	8082                	ret

20015c30 <_exit>:
_exit():
/home/nicoladgg/wsFreedomStudio/sifive_hifive1_revb_hello/freedom-metal/gloss/sys_exit.c:3
20015c30:	1101                	addi	sp,sp,-32
20015c32:	ce06                	sw	ra,28(sp)
20015c34:	cc22                	sw	s0,24(sp)
20015c36:	1000                	addi	s0,sp,32
20015c38:	fea42623          	sw	a0,-20(s0)
/home/nicoladgg/wsFreedomStudio/sifive_hifive1_revb_hello/freedom-metal/gloss/sys_exit.c:4
20015c3c:	fec42503          	lw	a0,-20(s0)
20015c40:	3565                	jal	20015ae8 <metal_shutdown>
