
/home/nicoladgg/wsFreedomStudio/SiFive_HiFive_RevB_Projects/sifive_hifive1_revb_HCSR04/src/debug/main.elf:     file format elf32-littleriscv
/home/nicoladgg/wsFreedomStudio/SiFive_HiFive_RevB_Projects/sifive_hifive1_revb_HCSR04/src/debug/main.elf
architecture: riscv:rv32, flags 0x00000112:
EXEC_P, HAS_SYMS, D_PAGED
start address 0x20010000

Program Header:
    LOAD off    0x00001000 vaddr 0x20010000 paddr 0x20010000 align 2**12
         filesz 0x00000ff4 memsz 0x00000ff4 flags rwx
    LOAD off    0x00008000 vaddr 0x80000000 paddr 0x20016bb8 align 2**12
         filesz 0x00000ac4 memsz 0x00000ac4 flags rw-
     TLS off    0x00000000 vaddr 0x00000000 paddr 0x00000000 align 2**2
         filesz 0x00000000 memsz 0x00000000 flags ---
    LOAD off    0x00000ac8 vaddr 0x80000ac8 paddr 0x80000ac8 align 2**12
         filesz 0x00000000 memsz 0x00000cb8 flags rw-
    LOAD off    0x00000114 vaddr 0x00000000 paddr 0x00000000 align 2**12
         filesz 0x00000000 memsz 0x00000000 flags ---
    LOAD off    0x00002000 vaddr 0x20011000 paddr 0x20011000 align 2**12
         filesz 0x00005bb2 memsz 0x00005bb2 flags r-x
    LOAD off    0x00000114 vaddr 0x00000000 paddr 0x00000000 align 2**12
         filesz 0x00000000 memsz 0x00000000 flags ---

Sections:
Idx Name              Size      VMA       LMA       File off  Algn  Flags
  0 .init             000002dc  20010000  20010000  00001000  2**4  CONTENTS, ALLOC, LOAD, READONLY, CODE
  1 .init_array       0000000c  200102e0  200102e0  000012e0  2**3  CONTENTS, ALLOC, LOAD, DATA
  2 .ctors            0000007a  200102ec  200102ec  000012ec  2**1  CONTENTS, ALLOC, LOAD, READONLY, CODE
  3 .rodata           00000c8c  20010368  20010368  00001368  2**3  CONTENTS, ALLOC, LOAD, READONLY, DATA
  4 .text             00005bb2  20011000  20011000  00002000  2**7  CONTENTS, ALLOC, LOAD, READONLY, CODE
  5 .data             00000ac4  80000000  20016bb8  00008000  2**3  CONTENTS, ALLOC, LOAD, DATA
  6 .bss              000000b8  80000ac8  80000ac8  00008ac8  2**3  ALLOC
  7 .stack            00000400  80000b80  80000b80  00008ac8  2**4  ALLOC
  8 .heap             00000800  80000f80  80000f80  00008ac8  2**3  ALLOC
  9 .debug_info       000232fa  00000000  00000000  00008ac4  2**0  CONTENTS, READONLY, DEBUGGING, OCTETS
 10 .debug_abbrev     00002c6d  00000000  00000000  0002bdbe  2**0  CONTENTS, READONLY, DEBUGGING, OCTETS
 11 .debug_aranges    00000c60  00000000  00000000  0002ea30  2**3  CONTENTS, READONLY, DEBUGGING, OCTETS
 12 .debug_ranges     00000a70  00000000  00000000  0002f690  2**3  CONTENTS, READONLY, DEBUGGING, OCTETS
 13 .debug_line       0000c118  00000000  00000000  00030100  2**0  CONTENTS, READONLY, DEBUGGING, OCTETS
 14 .debug_str        00004f8e  00000000  00000000  0003c218  2**0  CONTENTS, READONLY, DEBUGGING, OCTETS
 15 .comment          00000030  00000000  00000000  000411a6  2**0  CONTENTS, READONLY
 16 .riscv.attributes 0000002f  00000000  00000000  000411d6  2**0  CONTENTS, READONLY
 17 .debug_frame      00003264  00000000  00000000  00041208  2**2  CONTENTS, READONLY, DEBUGGING, OCTETS
SYMBOL TABLE:
20010000 l    d  .init	00000000 .init
200102e0 l    d  .init_array	00000000 .init_array
200102ec l    d  .ctors	00000000 .ctors
20010368 l    d  .rodata	00000000 .rodata
20011000 l    d  .text	00000000 .text
80000000 l    d  .data	00000000 .data
80000ac8 l    d  .bss	00000000 .bss
80000b80 l    d  .stack	00000000 .stack
80000f80 l    d  .heap	00000000 .heap
00000000 l    d  .debug_info	00000000 .debug_info
00000000 l    d  .debug_abbrev	00000000 .debug_abbrev
00000000 l    d  .debug_aranges	00000000 .debug_aranges
00000000 l    d  .debug_ranges	00000000 .debug_ranges
00000000 l    d  .debug_line	00000000 .debug_line
00000000 l    d  .debug_str	00000000 .debug_str
00000000 l    d  .comment	00000000 .comment
00000000 l    d  .riscv.attributes	00000000 .riscv.attributes
00000000 l    d  .debug_frame	00000000 .debug_frame
00000000 l    df *ABS*	00000000 scrub.o
200100c0 l     F .init	00000000 __metal_memory_scrub
2001012e l       .init	00000000 skip_scrub
00000000 l    df *ABS*	00000000 synchronize_harts.c
00000000 l    df *ABS*	00000000 crt0.o
20010240 l       .init	00000000 _skip_init
20010fb8 l       .rodata	00000000 argv
20010fbc l       .rodata	00000000 envp
20010fc0 l       .rodata	00000000 name
00000000 l    df *ABS*	00000000 sifive_fe310-g000_pll.c
20014914 l     F .text	0000001a __metal_driver_sifive_fe310_g000_pll_pllsel0
2001492e l     F .text	0000001a __metal_driver_sifive_fe310_g000_pll_pllref
20014948 l     F .text	00000016 __metal_driver_sifive_fe310_g000_pll_divider_base
2001495e l     F .text	00000014 __metal_driver_sifive_fe310_g000_pll_divider_offset
20014972 l     F .text	00000012 __metal_driver_sifive_fe310_g000_pll_config_base
20014984 l     F .text	00000010 __metal_driver_sifive_fe310_g000_pll_config_offset
20014994 l     F .text	00000016 __metal_driver_sifive_fe310_g000_pll_init_rate
200149aa l     F .text	00000012 __metal_driver_sifive_fe310_g000_prci_base
200149bc l     F .text	00000016 __metal_driver_sifive_fe310_g000_prci_vtable
20010670 l     O .rodata	00000880 pll_configs
200149d2 l     F .text	0000004e get_pll_config_freq
20014c34 l     F .text	000000ac find_closest_config
20014ce0 l     F .text	000001b0 configure_pll
00000000 l    df *ABS*	00000000 tty.c
00000000 l    df *ABS*	00000000 main.c
00000000 l    df *ABS*	00000000 findfp.c
200115c4 l     F .text	00000068 std
00000000 l    df *ABS*	00000000 riscv_clint0.c
20011d1e l     F .text	0000002a __metal_driver_sifive_clint0_control_base
20011d48 l     F .text	00000028 __metal_driver_sifive_clint0_num_interrupts
20011d70 l     F .text	0000003c __metal_driver_sifive_clint0_interrupt_parents
20011dac l     F .text	00000030 __metal_driver_sifive_clint0_interrupt_lines
20011f0c l     F .text	00000036 _get_cpu_intc
00000000 l    df *ABS*	00000000 riscv_cpu.c
2001244a l     F .text	00000024 __metal_driver_cpu_hartid
2001246e l     F .text	0000002a __metal_driver_cpu_timebase
20012498 l     F .text	0000002a __metal_driver_cpu_interrupt_controller
200124c2 l     F .text	00000024 __metal_driver_cpu_buserror
00000000 l    df *ABS*	00000000 riscv_plic0.c
20013e6a l     F .text	0000002a __metal_driver_sifive_plic0_control_base
20013e94 l     F .text	0000002a __metal_driver_sifive_plic0_num_interrupts
20013ebe l     F .text	00000028 __metal_driver_sifive_plic0_max_priority
20013ee6 l     F .text	00000028 __metal_driver_sifive_plic0_interrupt_parents
20013f0e l     F .text	00000022 __metal_driver_sifive_plic0_interrupt_lines
20013f30 l     F .text	0000001e __metal_driver_sifive_plic0_context_ids
00000000 l    df *ABS*	00000000 sifive_gpio0.c
2001506e l     F .text	00000026 __metal_driver_sifive_gpio0_base
20015094 l     F .text	0000002a __metal_driver_sifive_gpio0_interrupt_parent
200150be l     F .text	0000035e __metal_driver_sifive_gpio0_interrupt_lines
00000000 l    df *ABS*	00000000 sifive_uart0.c
20015acc l     F .text	00000040 __metal_driver_sifive_uart0_control_base
20015b0c l     F .text	00000048 __metal_driver_sifive_uart0_interrupt_parent
20015b54 l     F .text	0000003c __metal_driver_sifive_uart0_interrupt_line
20015b90 l     F .text	00000048 __metal_driver_sifive_uart0_clock
20015bd8 l     F .text	00000040 __metal_driver_sifive_uart0_pinmux
20015c18 l     F .text	0000003c __metal_driver_sifive_uart0_pinmux_output_selector
20015c54 l     F .text	00000040 __metal_driver_sifive_uart0_pinmux_source_selector
20016030 l     F .text	000000da pre_rate_change_callback_func
2001610a l     F .text	0000002e post_rate_change_callback_func
00000000 l    df *ABS*	00000000 impure.c
80000000 l     O .data	00000060 impure_data
00000000 l    df *ABS*	00000000 sifive_fe310-g000_hfrosc.c
20014724 l     F .text	0000001a __metal_driver_sifive_fe310_g000_hfrosc_ref
2001473e l     F .text	00000016 __metal_driver_sifive_fe310_g000_hfrosc_config_base
20014754 l     F .text	00000014 __metal_driver_sifive_fe310_g000_hfrosc_config_offset
20014768 l     F .text	00000016 __metal_driver_sifive_fe310_g000_prci_vtable
00000000 l    df *ABS*	00000000 sifive_fe310-g000_hfxosc.c
20014824 l     F .text	0000001a __metal_driver_sifive_fe310_g000_hfxosc_ref
2001483e l     F .text	00000016 __metal_driver_sifive_fe310_g000_hfxosc_config_base
20014854 l     F .text	00000014 __metal_driver_sifive_fe310_g000_hfxosc_config_offset
20014868 l     F .text	00000016 __metal_driver_sifive_fe310_g000_prci_vtable
00000000 l    df *ABS*	00000000 sifive_fe310-g000_prci.c
20014ff6 l     F .text	00000012 __metal_driver_sifive_fe310_g000_prci_base
00000000 l    df *ABS*	00000000 fixed-clock.c
20016600 l     F .text	00000070 __metal_driver_fixed_clock_rate
00000000 l    df *ABS*	00000000 puts.c
00000000 l    df *ABS*	00000000 wbuf.c
00000000 l    df *ABS*	00000000 wsetup.c
00000000 l    df *ABS*	00000000 fflush.c
00000000 l    df *ABS*	00000000 fwalk.c
00000000 l    df *ABS*	00000000 makebuf.c
00000000 l    df *ABS*	00000000 nano-mallocr.c
00000000 l    df *ABS*	00000000 nano-mallocr.c
00000000 l    df *ABS*	00000000 sbrkr.c
00000000 l    df *ABS*	00000000 stdio.c
00000000 l    df *ABS*	00000000 writer.c
00000000 l    df *ABS*	00000000 closer.c
00000000 l    df *ABS*	00000000 fstatr.c
00000000 l    df *ABS*	00000000 isattyr.c
00000000 l    df *ABS*	00000000 lseekr.c
00000000 l    df *ABS*	00000000 mlock.c
00000000 l    df *ABS*	00000000 readr.c
00000000 l    df *ABS*	00000000 clock.c
00000000 l    df *ABS*	00000000 cpu.c
00000000 l    df *ABS*	00000000 interrupt.c
00000000 l    df *ABS*	00000000 shutdown.c
00000000 l    df *ABS*	00000000 uart.c
00000000 l    df *ABS*	00000000 vector.o
20016580 l       .text	00000000 IRQ_0
20016584 l       .text	00000000 IRQ_1
20016588 l       .text	00000000 IRQ_2
2001658c l       .text	00000000 IRQ_3
20016590 l       .text	00000000 IRQ_4
20016594 l       .text	00000000 IRQ_5
20016598 l       .text	00000000 IRQ_6
2001659c l       .text	00000000 IRQ_7
200165a0 l       .text	00000000 IRQ_8
200165a4 l       .text	00000000 IRQ_9
200165a8 l       .text	00000000 IRQ_10
200165ac l       .text	00000000 IRQ_11
200165b0 l       .text	00000000 IRQ_12
200165b4 l       .text	00000000 IRQ_13
200165b8 l       .text	00000000 IRQ_14
200165bc l       .text	00000000 IRQ_15
200165c0 l       .text	00000000 IRQ_LC0
200165c4 l       .text	00000000 IRQ_LC1
200165c8 l       .text	00000000 IRQ_LC2
200165cc l       .text	00000000 IRQ_LC3
200165d0 l       .text	00000000 IRQ_LC4
200165d4 l       .text	00000000 IRQ_LC5
200165d8 l       .text	00000000 IRQ_LC6
200165dc l       .text	00000000 IRQ_LC7
200165e0 l       .text	00000000 IRQ_LC8
200165e4 l       .text	00000000 IRQ_LC9
200165e8 l       .text	00000000 IRQ_LC10
200165ec l       .text	00000000 IRQ_LC11
200165f0 l       .text	00000000 IRQ_LC12
200165f4 l       .text	00000000 IRQ_LC13
200165f8 l       .text	00000000 IRQ_LC14
200165fc l       .text	00000000 IRQ_LC15
00000000 l    df *ABS*	00000000 sys_close.c
00000000 l    df *ABS*	00000000 sys_exit.c
00000000 l    df *ABS*	00000000 sys_fstat.c
00000000 l    df *ABS*	00000000 sys_isatty.c
00000000 l    df *ABS*	00000000 sys_lseek.c
00000000 l    df *ABS*	00000000 sys_read.c
00000000 l    df *ABS*	00000000 sys_sbrk.c
80000ac0 l     O .data	00000004 __brk
00000000 l    df *ABS*	00000000 sys_write.c
00000000 l    df *ABS*	00000000 atexit.c
00000000 l    df *ABS*	00000000 errno.c
00000000 l    df *ABS*	00000000 exit.c
00000000 l    df *ABS*	00000000 fini.c
00000000 l    df *ABS*	00000000 init.c
00000000 l    df *ABS*	00000000 __atexit.c
80000ae0 l     O .bss	0000008c _global_atexit0
00000000 l    df *ABS*	00000000 __call_atexit.c
00000000 l    df *ABS*	00000000 init.c
80000ad8 l     O .bss	00000004 init_done.1
80000adc l     O .bss	00000004 fini_done.0
00000000 l    df *ABS*	00000000 inline.c
00000000 l    df *ABS*	00000000 
200102ec l       .init_array	00000000 metal_constructors_end
200102f0 l       .init_array	00000000 __fini_array_end
200102f0 l       .init_array	00000000 metal_destructors_end
200102f0 l       .init_array	00000000 metal_destructors_start
200102f0 l       .init_array	00000000 __fini_array_start
200102e0 l       .init_array	00000000 __init_array_end
200102e0 l       .init_array	00000000 __preinit_array_end
200102e0 l       .init_array	00000000 __init_array_start
200102e0 l       .init_array	00000000 metal_constructors_start
200102e0 l       .init_array	00000000 __preinit_array_start
20010f78 g     O .rodata	00000040 __metal_driver_vtable_sifive_uart0
20016394 g     F .text	00000026 metal_cpu_timer_get_interrupt_id
20011c82 g     F .text	00000030 _isatty_r
20012d50  w    F .text	00000096 metal_lc4_interrupt_vector_handler
2001116a g     F .text	000000da _puts_r
20011cb2 g     F .text	00000034 _lseek_r
2001629e g     F .text	00000026 metal_clock_get_rate_hz
20015f90 g     F .text	000000a0 __metal_driver_sifive_uart0_set_baud_rate
200120e8 g     F .text	00000058 __metal_driver_riscv_clint0_set_vector_mode
20015de6 g     F .text	0000004a __metal_driver_sifive_uart0_set_tx_watermark
20012cba  w    F .text	00000096 metal_lc3_interrupt_vector_handler
20013562 g     F .text	00000058 __metal_valid_interrupt_id
800012a0 g       .data	00000000 __global_pointer$
200102e4 g     O .init_array	00000004 _use_hfxosc_ptr
200139da g     F .text	0000001c __metal_driver_riscv_cpu_controller_get_vector_mode
20010342 g     F .ctors	00000024 metal_tty_init
2001636e g     F .text	00000026 metal_cpu_timer_interrupt_controller
2001624a g     F .text	00000054 _metal_clock_append_to_callbacks
20013f8a g     F .text	00000046 __metal_plic0_complete_interrupt
200137a6 g     F .text	000001e0 __metal_driver_riscv_cpu_controller_interrupt_register
200102e0 g     O .init_array	00000004 _metal_sifive_fe310_g000_pll_init_ptr
20011bb0 g     F .text	00000036 __sseek
2001167a g     F .text	0000006a __sinit
20011250 g     F .text	000000c0 __swbuf_r
80000ac8 g       .data	00000000 __tls_base
20011636 g     F .text	00000044 __sfmoreglue
20011ce8 g     F .text	00000002 __malloc_unlock
200163e0 g     F .text	0000002e metal_cpu_get
80000a38 g     O .data	00000020 __metal_dt_serial_10013000
200156a6 g     F .text	0000004a __metal_driver_sifive_gpio0_disable_io
20010480 g     O .rodata	00000064 __metal_driver_vtable_riscv_clint0
80000b80 g       .bss	00000000 metal_segment_bss_target_end
20011ddc g     F .text	0000009a __metal_clint0_mtime_get
20013dde g     F .text	0000002e __metal_driver_cpu_get_instruction_length
00000001 g       *ABS*	00000000 __metal_chicken_bit
20015eaa g     F .text	00000030 __metal_driver_sifive_uart0_get_rx_watermark
2001545c g     F .text	00000046 __metal_driver_sifive_gpio0_disable_input
20016862 g     F .text	0000000a __errno
08000000 g       .rodata	00000000 metal_segment_itim_target_start
20015db6 g     F .text	00000030 __metal_driver_sifive_uart0_txready
20015d44 g     F .text	0000003a __metal_driver_sifive_uart0_rx_interrupt_enable
20010142 g     F .init	0000000e __metal_synchronize_harts
80000ac8 g       .data	00000000 metal_segment_bss_target_start
20011e76 g     F .text	00000096 __metal_driver_riscv_clint0_mtimecmp_set
20011c50 g     F .text	00000032 _fstat_r
200158f6 g     F .text	00000188 __metal_driver_sifive_gpio0_clear_int
80000ad0 g     O .bss	00000004 errno
20014ac4 g     F .text	00000170 __metal_driver_sifive_fe310_g000_pll_get_rate_hz
00000400 g       *ABS*	00000000 __stack_size
2001630c g     F .text	00000030 metal_clock_register_pre_rate_change_callback
2001303e  w    F .text	00000096 metal_lc9_interrupt_vector_handler
200100cc  w    F .init	00000000 __metal_before_start
20016b5e  w    F .text	00000016 metal_init_run
80000a58 g     O .data	00000020 __metal_dt_serial_10023000
2001060c g     O .rodata	00000064 __metal_driver_vtable_riscv_plic0
200105c8 g     O .rodata	00000044 __metal_driver_vtable_cpu
2001654e g     F .text	0000002e metal_uart_set_baud_rate
20016138 g     F .text	000000d0 __metal_driver_sifive_uart0_init
00000000 g       *ABS*	00000000 __metal_eccscrub_bit
80000b6c g     O .bss	00000004 cpu
20013a66 g     F .text	00000070 __metal_driver_cpu_mcycle_get
20010ef0 g     O .rodata	0000000c __metal_driver_vtable_sifive_fe310_g000_pll
80000f80 g       .heap	00000000 metal_segment_heap_target_start
2001162c g     F .text	0000000a _cleanup_r
80000ab0 g     O .data	00000008 __metal_dt_cpu_0
20012fa8  w    F .text	00000096 metal_lc8_interrupt_vector_handler
20014e90 g     F .text	00000166 __metal_driver_sifive_fe310_g000_pll_set_rate_hz
20014688 g     F .text	00000074 __metal_driver_riscv_plic0_affinity_set_threshold
20011244 g     F .text	0000000c puts
20013296  w    F .text	00000096 metal_lc13_interrupt_vector_handler
20012654 g     F .text	00000018 __metal_default_exception_handler
200166e6 g     F .text	00000026 _fstat
20012416 g     F .text	00000034 __metal_driver_riscv_clint0_set_interrupt
200139f6 g     F .text	00000054 __metal_driver_riscv_cpu_controller_set_vector_mode
200124e6 g     F .text	00000030 __metal_driver_cpu_get
20010564 g     O .rodata	00000064 __metal_driver_vtable_riscv_cpu_intc
20012548 g     F .text	00000018 __metal_interrupt_global_disable
200146fc g     F .text	00000028 __metal_driver_riscv_plic0_affinity_get_threshold
20012f12  w    F .text	00000096 metal_lc7_interrupt_vector_handler
200130d4  w    F .text	00000096 metal_lc10_interrupt_vector_handler
20011b02 g     F .text	00000030 _sbrk_r
200144a8 g     F .text	00000050 __metal_driver_riscv_plic0_disable
20013676 g     F .text	0000004e __metal_exception_register
20016a6e g     F .text	00000078 metal_init
20011cea g     F .text	00000034 _read_r
20013bf8 g     F .text	0000001a __metal_driver_cpu_timer_controller_interrupt
2001553e g     F .text	00000040 __metal_driver_sifive_gpio0_enable_output
80000000 g       .rodata	00000000 metal_segment_lim_target_end
20012744 g     F .text	00000068 __metal_default_sw_handler
2001633c g     F .text	00000032 metal_clock_register_post_rate_change_callback
8000006c g     O .data	0000000c __metal_dt_clock_2
20015c94 g     F .text	00000020 __metal_driver_sifive_uart0_interrupt_controller
2001670c g     F .text	00000020 _isatty
20015604 g     F .text	00000040 __metal_driver_sifive_gpio0_output_toggle
20015cd2 g     F .text	0000003a __metal_driver_sifive_uart0_tx_interrupt_enable
20010fec g     O .rodata	00000008 __metal_driver_vtable_fixed_clock
20010fd0 g     O .rodata	00000004 _global_impure_ptr
200127ac  w    F .text	00000092 metal_timer_interrupt_vector_handler
200168cc g     F .text	0000005e __libc_init_array
2001557e g     F .text	00000040 __metal_driver_sifive_gpio0_output_set
2001316a  w    F .text	00000096 metal_lc11_interrupt_vector_handler
200148f2 g     F .text	00000022 __metal_driver_sifive_fe310_g000_hfxosc_set_rate_hz
20013986 g     F .text	0000002a __metal_driver_riscv_cpu_controller_interrupt_enable
20016780 g     F .text	0000006a _sbrk
200154f8 g     F .text	00000046 __metal_driver_sifive_gpio0_disable_output
20016208 g     F .text	00000042 _metal_clock_call_all_callbacks
200102ba g     F .init	00000002 _init
200125aa g     F .text	0000001a __metal_interrupt_timer_disable
200156f0 g     F .text	00000206 __metal_driver_sifive_gpio0_config_int
20013cb6 g     F .text	00000062 __metal_driver_cpu_clear_sw_ipi
20010f3c g     O .rodata	0000003c __metal_driver_vtable_sifive_gpio0
20015d0c g     F .text	00000038 __metal_driver_sifive_uart0_tx_interrupt_disable
20015644 g     F .text	00000062 __metal_driver_sifive_gpio0_enable_io
20016896 g     F .text	00000036 __libc_fini_array
80000a90 g     O .data	0000000c __metal_dt_clock_4
20016ae6 g     F .text	00000078 metal_fini
20015a7e g     F .text	00000020 __metal_driver_gpio_interrupt_controller
20013c40 g     F .text	00000014 __metal_driver_cpu_get_sw_interrupt_id
20013e4a g     F .text	00000020 __metal_driver_cpu_get_buserror
80000000 g       .data	00000000 metal_segment_data_target_start
200125fc g     F .text	0000002c __metal_interrupt_local_enable
200123e2 g     F .text	00000034 __metal_driver_riscv_clint0_clear_interrupt
20016b8a g     F .text	00000028 metal_tty_putc
20014188 g     F .text	00000018 __metal_plic0_default_handler
200167ea  w    F .text	0000006e write
00000000 g       *ABS*	00000000 __tbss_size
80000060 g     O .data	0000000c __metal_dt_clock_0
00000800 g       *ABS*	00000000 __heap_size
200144f8 g     F .text	00000030 __metal_driver_riscv_plic0_set_threshold
2001283e g     F .text	00000016 __metal_default_beu_handler
20010420 g     O .rodata	00000020 __sf_fake_stderr
200125e0 g     F .text	0000001c __metal_interrupt_external_disable
20015cb4 g     F .text	0000001e __metal_driver_sifive_uart0_get_interrupt_id
20013a4a g     F .text	0000001c __metal_driver_riscv_cpu_controller_command_request
200136c4 g     F .text	000000e2 __metal_driver_riscv_cpu_controller_interrupt_init
20013d98 g     F .text	00000046 __metal_driver_cpu_exception_register
20012560 g     F .text	00000018 __metal_interrupt_software_enable
20012b8e  w    F .text	00000096 metal_lc1_interrupt_vector_handler
20011988 g     F .text	000000a2 _free_r
80000ad4 g     O .bss	00000004 _global_atexit
20014050 g     F .text	00000062 __metal_driver_riscv_plic0_set_priority
20013458 g     F .text	00000058 __metal_controller_interrupt_vector_mode
200169a6 g     F .text	000000c8 __call_exitprocs
80000f80 g       .stack	00000000 _sp
200102e8 g     O .init_array	00000004 _metal_tty_init_ptr
20010150 g     F .init	00000000 _start
2001477e g     F .text	00000084 __metal_driver_sifive_fe310_g000_hfrosc_get_rate_hz
2001672c g     F .text	0000002a _lseek
20013d78 g     F .text	00000020 __metal_driver_cpu_controller_interrupt
20013e0c g     F .text	0000001e __metal_driver_cpu_get_exception_pc
200125c4 g     F .text	0000001c __metal_interrupt_external_enable
2001692a g     F .text	0000007c __register_exitproc
20015eda g     F .text	00000040 __metal_driver_sifive_uart0_putc
20014244 g     F .text	00000152 __metal_driver_riscv_plic0_init
20014458 g     F .text	00000050 __metal_driver_riscv_plic0_enable
200154cc g     F .text	0000002c __metal_driver_sifive_gpio0_output
20012e7c  w    F .text	00000096 metal_lc6_interrupt_vector_handler
20012516 g     F .text	0000001a __metal_myhart_id
20015a9e g     F .text	0000002e __metal_driver_gpio_get_interrupt_id
200126b2  w    F .text	00000092 metal_software_interrupt_vector_handler
200139b0 g     F .text	0000002a __metal_driver_riscv_cpu_controller_interrupt_disable
20011c20 g     F .text	00000030 _close_r
20015f70 g     F .text	00000020 __metal_driver_sifive_uart0_get_baud_rate
20011fca g     F .text	000000da __metal_driver_riscv_clint0_register
80000aa8 g     O .data	00000008 __metal_dt_clint_2000000
20011310 g     F .text	0000010a __swsetup_r
2001644c g     F .text	0000003e metal_interrupt_register_handler
200116e4 g     F .text	0000009c __sfp
200162c4 g     F .text	00000048 metal_clock_set_rate_hz
20011b32 g     F .text	00000030 __sread
2001541c g     F .text	00000040 __metal_driver_sifive_gpio0_enable_input
200102bc  w    F .init	00000000 secondary_main
20012684  w    F .text	0000002e metal_interrupt_vector_handler
20011ce6 g     F .text	00000002 __malloc_lock
20015d7e g     F .text	00000038 __metal_driver_sifive_uart0_rx_interrupt_disable
80000b70 g     O .bss	00000004 tmr_intr
20011560 g     F .text	00000064 _fflush_r
20014016 g     F .text	0000003a __metal_plic0_get_threshold
20015008 g     F .text	0000002e __metal_driver_sifive_fe310_g000_prci_get_reg
20010440 g     O .rodata	00000020 __sf_fake_stdin
200135ba g     F .text	000000bc __metal_local_interrupt_enable
200122a4 g     F .text	0000013e __metal_driver_riscv_clint0_command_request
200118e0 g     F .text	000000a8 memset
20012de6  w    F .text	00000096 metal_lc5_interrupt_vector_handler
20011030 g     F .text	0000013a main
80000ac8 g       .data	00000000 metal_segment_data_target_end
20015e60 g     F .text	0000004a __metal_driver_sifive_uart0_set_rx_watermark
20010fd4 g     O .rodata	00000008 __metal_driver_vtable_sifive_fe310_g000_hfrosc
20013c54 g     F .text	00000062 __metal_driver_cpu_set_sw_ipi
20013d18 g     F .text	00000060 __metal_driver_cpu_get_msip
200164e6 g     F .text	0000000e metal_shutdown
08000000 g       .rodata	00000000 metal_segment_itim_target_end
20013e2a g     F .text	00000020 __metal_driver_cpu_set_exception_pc
20013f4e g     F .text	0000003c __metal_plic0_claim_interrupt
20015e30 g     F .text	00000030 __metal_driver_sifive_uart0_get_tx_watermark
20011be6 g     F .text	00000006 __sclose
20013200  w    F .text	00000096 metal_lc12_interrupt_vector_handler
2001008a g     F .init	00000000 metal_mem_scrub
20011a2a g     F .text	000000d8 _malloc_r
200120cc g     F .text	0000001c __metal_driver_riscv_clint0_get_vector_mode
80000abc g     O .data	00000004 __metal_dt_prci_10008000
20013ad6 g     F .text	00000046 __metal_driver_cpu_timebase_get
200145ec g     F .text	0000009c __metal_driver_riscv_plic0_affinity_disable
20010000 g       .init	00000000 _enter
2001640e g     F .text	0000001a metal_cpu_get_current_hartid
2001487e g     F .text	00000074 __metal_driver_sifive_fe310_g000_hfxosc_get_rate_hz
20016580 g       .text	00000000 __metal_vector_table
20010ff8 g       *ABS*	00000000 metal_segment_itim_source_start
80000aa0  w    O .data	00000004 __metal_cpu_table
80000090 g     O .data	000003d0 __metal_dt_cpu_0_interrupt_controller
200102ba g     F .init	00000002 _fini
80000000 g       .rodata	00000000 metal_segment_lim_target_start
200140b2 g     F .text	00000034 __metal_driver_riscv_plic0_get_priority
20010318 g     F .ctors	0000002a use_hfxosc
20012530 g     F .text	00000018 __metal_interrupt_global_enable
20016858 g     F .text	0000000a atexit
20011bec g     F .text	00000034 _write_r
20012590 g     F .text	0000001a __metal_interrupt_timer_enable
20015f1a g     F .text	00000056 __metal_driver_sifive_uart0_getc
200121f2 g     F .text	000000b2 __metal_driver_riscv_clint0_disable
80000aa4 g     O .data	00000004 _impure_ptr
20013b82 g     F .text	00000076 __metal_driver_cpu_mtimecmp_set
2001141a g     F .text	00000146 __sflush_r
20014528 g     F .text	00000028 __metal_driver_riscv_plic0_get_threshold
20014a20 g     F .text	000000a4 __metal_driver_sifive_fe310_g000_pll_init
80000078 g     O .data	0000000c __metal_dt_clock_5
80000b74 g     O .bss	00000004 cpu_intr
20015036 g     F .text	00000038 __metal_driver_sifive_fe310_g000_prci_set_reg
20016670 g     F .text	0000001e __metal_driver_fixed_clock_get_rate_hz
20012140 g     F .text	000000b2 __metal_driver_riscv_clint0_enable
20016bb8 g       *ABS*	00000000 metal_segment_data_source_start
20010134 g       .init	00000000 early_trap_vector
80001780 g       .heap	00000000 metal_segment_heap_target_end
200134b0 g     F .text	000000b2 __metal_controller_interrupt_vector
80000a84 g     O .data	0000000c __metal_dt_clock_1
80000460 g     O .data	000005d8 __metal_dt_interrupt_controller_c000000
200117ea g     F .text	0000005a __swhatbuf_r
200155be g     F .text	00000046 __metal_driver_sifive_gpio0_output_clear
20012854 g     F .text	00000066 __metal_default_timer_handler
200167ea g     F .text	0000006e _write
200141a0 g     F .text	000000a4 __metal_plic0_handler
20012c24  w    F .text	00000096 metal_lc2_interrupt_vector_handler
200133c2  w    F .text	00000096 metal_lc15_interrupt_vector_handler
200163ba g     F .text	00000026 metal_cpu_interrupt_controller
20016428 g     F .text	00000024 metal_interrupt_init
20011b62 g     F .text	0000004e __swrite
2001686c g     F .text	0000002a exit
20011780 g     F .text	0000006a _fwalk_reent
2001668e g     F .text	00000022 __metal_driver_fixed_clock_set_rate_hz
20010ff8 g       *ABS*	00000000 metal_segment_lim_source_start
20010460 g     O .rodata	00000020 __sf_fake_stdout
80000ab8 g     O .data	00000004 __metal_dt_gpio_10012000
2001266c g     F .text	00000018 __metal_default_interrupt_handler
2001648a g     F .text	0000002e metal_interrupt_enable
20016520 g     F .text	0000002e metal_uart_putc
20016756 g     F .text	0000002a _read
20016b74  w    F .text	00000016 metal_fini_run
200154a2 g     F .text	0000002a __metal_driver_sifive_gpio0_input
20012900 g     F .text	0000017e __metal_exception_handler
20012af8  w    F .text	00000096 metal_lc0_interrupt_vector_handler
200166d2 g     F .text	00000014 _exit
20011000 g     F .text	00000030 timer_isr
20013b1c g     F .text	00000066 __metal_driver_cpu_mtime_get
20011844 g     F .text	0000009c __smakebuf_r
200120a4 g     F .text	00000028 __metal_driver_riscv_clint0_vector_register
80000acc g     O .bss	00000004 __malloc_sbrk_start
80000b78 g     O .bss	00000004 timer_isr_flag
2001332c  w    F .text	00000096 metal_lc14_interrupt_vector_handler
20010fdc g     O .rodata	00000008 __metal_driver_vtable_sifive_fe310_g000_hfxosc
20011f42 g     F .text	00000088 __metal_driver_riscv_clint0_init
80000ac8 g     O .bss	00000004 __malloc_free_list
200102ec g     F .ctors	0000002c metal_sifive_fe310_g000_pll_init
80000b7c g     O .bss	00000004 tmr_id
20013c12 g     F .text	00000014 __metal_driver_cpu_get_timer_interrupt_id
200140e6 g     F .text	000000a2 __metal_plic0_enable
20010088  w      .init	00000000 __register_frame_info
20014802 g     F .text	00000022 __metal_driver_sifive_fe310_g000_hfrosc_set_rate_hz
20013c26 g     F .text	0000001a __metal_driver_cpu_sw_controller_interrupt
20012628 g     F .text	0000002c __metal_interrupt_local_disable
20012578 g     F .text	00000018 __metal_interrupt_software_disable
200164f4 g     F .text	0000002c metal_uart_init
80000a78 g     O .data	0000000c __metal_dt_clock_3
80000084 g     O .data	0000000c __metal_dt_clock_6
20013fd0 g     F .text	00000046 __metal_plic0_set_threshold
20014550 g     F .text	0000009c __metal_driver_riscv_plic0_affinity_enable
200166b0 g     F .text	00000022 _close
20010fe4 g     O .rodata	00000008 __metal_driver_vtable_sifive_fe310_g000_prci
00000000 g       *ABS*	00000000 __metal_boot_hart
20014396 g     F .text	000000c2 __metal_driver_riscv_plic0_register
200164b8 g     F .text	0000002e metal_interrupt_disable



Disassembly of section .init:

20010000 <_enter>:
_enter():
/home/nicoladgg/wsFreedomStudio/sifive_hifive1_revb_HCSR04/freedom-metal/src/entry.S:24
20010000:	5fff1197          	auipc	gp,0x5fff1
20010004:	2a018193          	addi	gp,gp,672 # 800012a0 <__global_pointer$>
/home/nicoladgg/wsFreedomStudio/sifive_hifive1_revb_HCSR04/freedom-metal/src/entry.S:28
20010008:	00000297          	auipc	t0,0x0
2001000c:	01828293          	addi	t0,t0,24 # 20010020 <_enter+0x20>
/home/nicoladgg/wsFreedomStudio/sifive_hifive1_revb_HCSR04/freedom-metal/src/entry.S:29
20010010:	30529073          	csrw	mtvec,t0
/home/nicoladgg/wsFreedomStudio/sifive_hifive1_revb_HCSR04/freedom-metal/src/entry.S:31
20010014:	00100293          	li	t0,1
/home/nicoladgg/wsFreedomStudio/sifive_hifive1_revb_HCSR04/freedom-metal/src/entry.S:32
20010018:	00028463          	beqz	t0,20010020 <_enter+0x20>
/home/nicoladgg/wsFreedomStudio/sifive_hifive1_revb_HCSR04/freedom-metal/src/entry.S:34
2001001c:	7c105073          	csrwi	0x7c1,0
/home/nicoladgg/wsFreedomStudio/sifive_hifive1_revb_HCSR04/freedom-metal/src/entry.S:39
20010020:	00000297          	auipc	t0,0x0
20010024:	11428293          	addi	t0,t0,276 # 20010134 <early_trap_vector>
/home/nicoladgg/wsFreedomStudio/sifive_hifive1_revb_HCSR04/freedom-metal/src/entry.S:40
20010028:	30529073          	csrw	mtvec,t0
/home/nicoladgg/wsFreedomStudio/sifive_hifive1_revb_HCSR04/freedom-metal/src/entry.S:48
2001002c:	00000113          	li	sp,0
/home/nicoladgg/wsFreedomStudio/sifive_hifive1_revb_HCSR04/freedom-metal/src/entry.S:55
20010030:	00011463          	bnez	sp,20010038 <_enter+0x38>
/home/nicoladgg/wsFreedomStudio/sifive_hifive1_revb_HCSR04/freedom-metal/src/entry.S:56
20010034:	ce018113          	addi	sp,gp,-800 # 80000f80 <_sp>
/home/nicoladgg/wsFreedomStudio/sifive_hifive1_revb_HCSR04/freedom-metal/src/entry.S:59
20010038:	f1402573          	csrr	a0,mhartid
/home/nicoladgg/wsFreedomStudio/sifive_hifive1_revb_HCSR04/freedom-metal/src/entry.S:60
2001003c:	4281                	li	t0,0
/home/nicoladgg/wsFreedomStudio/sifive_hifive1_revb_HCSR04/freedom-metal/src/entry.S:61
2001003e:	40000313          	li	t1,1024
/home/nicoladgg/wsFreedomStudio/sifive_hifive1_revb_HCSR04/freedom-metal/src/entry.S:63
20010042:	ff017113          	andi	sp,sp,-16
/home/nicoladgg/wsFreedomStudio/sifive_hifive1_revb_HCSR04/freedom-metal/src/entry.S:64
20010046:	00a28563          	beq	t0,a0,20010050 <_enter+0x50>
/home/nicoladgg/wsFreedomStudio/sifive_hifive1_revb_HCSR04/freedom-metal/src/entry.S:65
2001004a:	911a                	add	sp,sp,t1
/home/nicoladgg/wsFreedomStudio/sifive_hifive1_revb_HCSR04/freedom-metal/src/entry.S:66
2001004c:	0285                	addi	t0,t0,1
/home/nicoladgg/wsFreedomStudio/sifive_hifive1_revb_HCSR04/freedom-metal/src/entry.S:67
2001004e:	bfd5                	j	20010042 <_enter+0x42>
/home/nicoladgg/wsFreedomStudio/sifive_hifive1_revb_HCSR04/freedom-metal/src/entry.S:76
20010050:	00000097          	auipc	ra,0x0
20010054:	07c08093          	addi	ra,ra,124 # 200100cc <__metal_before_start>
/home/nicoladgg/wsFreedomStudio/sifive_hifive1_revb_HCSR04/freedom-metal/src/entry.S:77
20010058:	00008363          	beqz	ra,2001005e <_enter+0x5e>
/home/nicoladgg/wsFreedomStudio/sifive_hifive1_revb_HCSR04/freedom-metal/src/entry.S:78
2001005c:	9082                	jalr	ra
/home/nicoladgg/wsFreedomStudio/sifive_hifive1_revb_HCSR04/freedom-metal/src/entry.S:84
2001005e:	f1402573          	csrr	a0,mhartid
/home/nicoladgg/wsFreedomStudio/sifive_hifive1_revb_HCSR04/freedom-metal/src/entry.S:85
20010062:	4581                	li	a1,0
/home/nicoladgg/wsFreedomStudio/sifive_hifive1_revb_HCSR04/freedom-metal/src/entry.S:86
20010064:	4601                	li	a2,0
/home/nicoladgg/wsFreedomStudio/sifive_hifive1_revb_HCSR04/freedom-metal/src/entry.S:87
20010066:	20ed                	jal	20010150 <_start>
/home/nicoladgg/wsFreedomStudio/sifive_hifive1_revb_HCSR04/freedom-metal/src/entry.S:92
20010068:	00000093          	li	ra,0
/home/nicoladgg/wsFreedomStudio/sifive_hifive1_revb_HCSR04/freedom-metal/src/entry.S:93
2001006c:	00008363          	beqz	ra,20010072 <_enter+0x72>
/home/nicoladgg/wsFreedomStudio/sifive_hifive1_revb_HCSR04/freedom-metal/src/entry.S:94
20010070:	9082                	jalr	ra
/home/nicoladgg/wsFreedomStudio/sifive_hifive1_revb_HCSR04/freedom-metal/src/entry.S:99
20010072:	00000297          	auipc	t0,0x0
20010076:	00c28293          	addi	t0,t0,12 # 2001007e <_enter+0x7e>
/home/nicoladgg/wsFreedomStudio/sifive_hifive1_revb_HCSR04/freedom-metal/src/entry.S:100
2001007a:	30529073          	csrw	mtvec,t0
/home/nicoladgg/wsFreedomStudio/sifive_hifive1_revb_HCSR04/freedom-metal/src/entry.S:102
2001007e:	00002303          	lw	t1,0(zero) # 0 <__metal_boot_hart>
/home/nicoladgg/wsFreedomStudio/sifive_hifive1_revb_HCSR04/freedom-metal/src/entry.S:103
20010082:	bff5                	j	2001007e <_enter+0x7e>
20010084:	0000                	unimp
	...

20010088 <__register_frame_info>:
__register_frame_info():
/home/nicoladgg/wsFreedomStudio/sifive_hifive1_revb_HCSR04/freedom-metal/src/entry.S:117
20010088:	8082                	ret

2001008a <metal_mem_scrub>:
metal_mem_scrub():
/home/nicoladgg/wsFreedomStudio/sifive_hifive1_revb_HCSR04/freedom-metal/src/scrub.S:24
2001008a:	46a1                	li	a3,8
/home/nicoladgg/wsFreedomStudio/sifive_hifive1_revb_HCSR04/freedom-metal/src/scrub.S:25
2001008c:	3006b373          	csrrc	t1,mstatus,a3
/home/nicoladgg/wsFreedomStudio/sifive_hifive1_revb_HCSR04/freedom-metal/src/scrub.S:28
20010090:	4291                	li	t0,4
/home/nicoladgg/wsFreedomStudio/sifive_hifive1_revb_HCSR04/freedom-metal/src/scrub.S:30
20010092:	0055c563          	blt	a1,t0,2001009c <metal_mem_scrub+0x12>
/home/nicoladgg/wsFreedomStudio/sifive_hifive1_revb_HCSR04/freedom-metal/src/scrub.S:31
20010096:	00357613          	andi	a2,a0,3
/home/nicoladgg/wsFreedomStudio/sifive_hifive1_revb_HCSR04/freedom-metal/src/scrub.S:32
2001009a:	ca11                	beqz	a2,200100ae <metal_mem_scrub+0x24>
/home/nicoladgg/wsFreedomStudio/sifive_hifive1_revb_HCSR04/freedom-metal/src/scrub.S:34
2001009c:	00050023          	sb	zero,0(a0)
/home/nicoladgg/wsFreedomStudio/sifive_hifive1_revb_HCSR04/freedom-metal/src/scrub.S:35
200100a0:	0505                	addi	a0,a0,1
/home/nicoladgg/wsFreedomStudio/sifive_hifive1_revb_HCSR04/freedom-metal/src/scrub.S:36
200100a2:	15fd                	addi	a1,a1,-1
/home/nicoladgg/wsFreedomStudio/sifive_hifive1_revb_HCSR04/freedom-metal/src/scrub.S:37
200100a4:	feb047e3          	bgtz	a1,20010092 <metal_mem_scrub+0x8>
/home/nicoladgg/wsFreedomStudio/sifive_hifive1_revb_HCSR04/freedom-metal/src/scrub.S:38
200100a8:	30031073          	csrw	mstatus,t1
/home/nicoladgg/wsFreedomStudio/sifive_hifive1_revb_HCSR04/freedom-metal/src/scrub.S:39
200100ac:	8082                	ret
/home/nicoladgg/wsFreedomStudio/sifive_hifive1_revb_HCSR04/freedom-metal/src/scrub.S:41
200100ae:	00052023          	sw	zero,0(a0)
/home/nicoladgg/wsFreedomStudio/sifive_hifive1_revb_HCSR04/freedom-metal/src/scrub.S:42
200100b2:	0511                	addi	a0,a0,4
/home/nicoladgg/wsFreedomStudio/sifive_hifive1_revb_HCSR04/freedom-metal/src/scrub.S:43
200100b4:	15f1                	addi	a1,a1,-4
/home/nicoladgg/wsFreedomStudio/sifive_hifive1_revb_HCSR04/freedom-metal/src/scrub.S:44
200100b6:	fcb04ee3          	bgtz	a1,20010092 <metal_mem_scrub+0x8>
/home/nicoladgg/wsFreedomStudio/sifive_hifive1_revb_HCSR04/freedom-metal/src/scrub.S:45
200100ba:	30031073          	csrw	mstatus,t1
/home/nicoladgg/wsFreedomStudio/sifive_hifive1_revb_HCSR04/freedom-metal/src/scrub.S:46
200100be:	8082                	ret

200100c0 <__metal_memory_scrub>:
__metal_memory_scrub():
/home/nicoladgg/wsFreedomStudio/sifive_hifive1_revb_HCSR04/freedom-metal/src/scrub.S:74
200100c0:	00032023          	sw	zero,0(t1)
/home/nicoladgg/wsFreedomStudio/sifive_hifive1_revb_HCSR04/freedom-metal/src/scrub.S:75
200100c4:	0311                	addi	t1,t1,4
/home/nicoladgg/wsFreedomStudio/sifive_hifive1_revb_HCSR04/freedom-metal/src/scrub.S:76
200100c6:	fe734de3          	blt	t1,t2,200100c0 <__metal_memory_scrub>
/home/nicoladgg/wsFreedomStudio/sifive_hifive1_revb_HCSR04/freedom-metal/src/scrub.S:82
200100ca:	8082                	ret

200100cc <__metal_before_start>:
__metal_before_start():
/home/nicoladgg/wsFreedomStudio/sifive_hifive1_revb_HCSR04/freedom-metal/src/scrub.S:94
200100cc:	8406                	mv	s0,ra
/home/nicoladgg/wsFreedomStudio/sifive_hifive1_revb_HCSR04/freedom-metal/src/scrub.S:96
200100ce:	dfff0297          	auipc	t0,0xdfff0
200100d2:	f3228293          	addi	t0,t0,-206 # 0 <__metal_boot_hart>
/home/nicoladgg/wsFreedomStudio/sifive_hifive1_revb_HCSR04/freedom-metal/src/scrub.S:97
200100d6:	04028c63          	beqz	t0,2001012e <skip_scrub>
/home/nicoladgg/wsFreedomStudio/sifive_hifive1_revb_HCSR04/freedom-metal/src/scrub.S:99
200100da:	dfff0297          	auipc	t0,0xdfff0
200100de:	f2628293          	addi	t0,t0,-218 # 0 <__metal_boot_hart>
/home/nicoladgg/wsFreedomStudio/sifive_hifive1_revb_HCSR04/freedom-metal/src/scrub.S:100
200100e2:	f14027f3          	csrr	a5,mhartid
/home/nicoladgg/wsFreedomStudio/sifive_hifive1_revb_HCSR04/freedom-metal/src/scrub.S:103
200100e6:	46a1                	li	a3,8
/home/nicoladgg/wsFreedomStudio/sifive_hifive1_revb_HCSR04/freedom-metal/src/scrub.S:104
200100e8:	3006b073          	csrc	mstatus,a3
/home/nicoladgg/wsFreedomStudio/sifive_hifive1_revb_HCSR04/freedom-metal/src/scrub.S:107
200100ec:	830a                	mv	t1,sp
/home/nicoladgg/wsFreedomStudio/sifive_hifive1_revb_HCSR04/freedom-metal/src/scrub.S:108
200100ee:	dfff0397          	auipc	t2,0xdfff0
200100f2:	31238393          	addi	t2,t2,786 # 400 <__stack_size>
/home/nicoladgg/wsFreedomStudio/sifive_hifive1_revb_HCSR04/freedom-metal/src/scrub.S:109
200100f6:	938a                	add	t2,t2,sp
/home/nicoladgg/wsFreedomStudio/sifive_hifive1_revb_HCSR04/freedom-metal/src/scrub.S:110
200100f8:	00730363          	beq	t1,t2,200100fe <__metal_before_start+0x32>
/home/nicoladgg/wsFreedomStudio/sifive_hifive1_revb_HCSR04/freedom-metal/src/scrub.S:111
200100fc:	37d1                	jal	200100c0 <__metal_memory_scrub>
/home/nicoladgg/wsFreedomStudio/sifive_hifive1_revb_HCSR04/freedom-metal/src/scrub.S:113
200100fe:	02579863          	bne	a5,t0,2001012e <skip_scrub>
/home/nicoladgg/wsFreedomStudio/sifive_hifive1_revb_HCSR04/freedom-metal/src/scrub.S:116
20010102:	5fff0317          	auipc	t1,0x5fff0
20010106:	efe30313          	addi	t1,t1,-258 # 80000000 <impure_data>
/home/nicoladgg/wsFreedomStudio/sifive_hifive1_revb_HCSR04/freedom-metal/src/scrub.S:117
2001010a:	5fff1397          	auipc	t2,0x5fff1
2001010e:	9be38393          	addi	t2,t2,-1602 # 80000ac8 <__malloc_free_list>
/home/nicoladgg/wsFreedomStudio/sifive_hifive1_revb_HCSR04/freedom-metal/src/scrub.S:118
20010112:	00730363          	beq	t1,t2,20010118 <__metal_before_start+0x4c>
/home/nicoladgg/wsFreedomStudio/sifive_hifive1_revb_HCSR04/freedom-metal/src/scrub.S:119
20010116:	376d                	jal	200100c0 <__metal_memory_scrub>
/home/nicoladgg/wsFreedomStudio/sifive_hifive1_revb_HCSR04/freedom-metal/src/scrub.S:122
20010118:	e7ff0317          	auipc	t1,0xe7ff0
2001011c:	ee830313          	addi	t1,t1,-280 # 8000000 <metal_segment_itim_target_end>
/home/nicoladgg/wsFreedomStudio/sifive_hifive1_revb_HCSR04/freedom-metal/src/scrub.S:123
20010120:	e7ff0397          	auipc	t2,0xe7ff0
20010124:	ee038393          	addi	t2,t2,-288 # 8000000 <metal_segment_itim_target_end>
/home/nicoladgg/wsFreedomStudio/sifive_hifive1_revb_HCSR04/freedom-metal/src/scrub.S:124
20010128:	00730363          	beq	t1,t2,2001012e <skip_scrub>
/home/nicoladgg/wsFreedomStudio/sifive_hifive1_revb_HCSR04/freedom-metal/src/scrub.S:125
2001012c:	3f51                	jal	200100c0 <__metal_memory_scrub>

2001012e <skip_scrub>:
skip_scrub():
/home/nicoladgg/wsFreedomStudio/sifive_hifive1_revb_HCSR04/freedom-metal/src/scrub.S:129
2001012e:	80a2                	mv	ra,s0
/home/nicoladgg/wsFreedomStudio/sifive_hifive1_revb_HCSR04/freedom-metal/src/scrub.S:130
20010130:	8082                	ret
	...

20010134 <early_trap_vector>:
early_trap_vector():
/home/nicoladgg/wsFreedomStudio/sifive_hifive1_revb_HCSR04/freedom-metal/src/trap.S:64
20010134:	342022f3          	csrr	t0,mcause
/home/nicoladgg/wsFreedomStudio/sifive_hifive1_revb_HCSR04/freedom-metal/src/trap.S:65
20010138:	34102373          	csrr	t1,mepc
/home/nicoladgg/wsFreedomStudio/sifive_hifive1_revb_HCSR04/freedom-metal/src/trap.S:66
2001013c:	343023f3          	csrr	t2,mtval
/home/nicoladgg/wsFreedomStudio/sifive_hifive1_revb_HCSR04/freedom-metal/src/trap.S:67
20010140:	bfd5                	j	20010134 <early_trap_vector>

20010142 <__metal_synchronize_harts>:
__metal_synchronize_harts():
/home/nicoladgg/wsFreedomStudio/sifive_hifive1_revb_HCSR04/freedom-metal/src/synchronize_harts.c:19
20010142:	1141                	addi	sp,sp,-16
20010144:	c622                	sw	s0,12(sp)
20010146:	0800                	addi	s0,sp,16
/home/nicoladgg/wsFreedomStudio/sifive_hifive1_revb_HCSR04/freedom-metal/src/synchronize_harts.c:66
20010148:	0001                	nop
2001014a:	4432                	lw	s0,12(sp)
2001014c:	0141                	addi	sp,sp,16
2001014e:	8082                	ret

20010150 <_start>:
_start():
/home/nicoladgg/wsFreedomStudio/sifive_hifive1_revb_HCSR04/freedom-metal/gloss/crt0.S:36
20010150:	8406                	mv	s0,ra
/home/nicoladgg/wsFreedomStudio/sifive_hifive1_revb_HCSR04/freedom-metal/gloss/crt0.S:44
20010152:	5fff1197          	auipc	gp,0x5fff1
20010156:	14e18193          	addi	gp,gp,334 # 800012a0 <__global_pointer$>
/home/nicoladgg/wsFreedomStudio/sifive_hifive1_revb_HCSR04/freedom-metal/gloss/crt0.S:50
2001015a:	00000293          	li	t0,0
/home/nicoladgg/wsFreedomStudio/sifive_hifive1_revb_HCSR04/freedom-metal/gloss/crt0.S:51
2001015e:	0e551163          	bne	a0,t0,20010240 <_skip_init>
/home/nicoladgg/wsFreedomStudio/sifive_hifive1_revb_HCSR04/freedom-metal/gloss/crt0.S:60
20010162:	00007297          	auipc	t0,0x7
20010166:	a5628293          	addi	t0,t0,-1450 # 20016bb8 <metal_segment_data_source_start>
/home/nicoladgg/wsFreedomStudio/sifive_hifive1_revb_HCSR04/freedom-metal/gloss/crt0.S:61
2001016a:	5fff0317          	auipc	t1,0x5fff0
2001016e:	e9630313          	addi	t1,t1,-362 # 80000000 <impure_data>
/home/nicoladgg/wsFreedomStudio/sifive_hifive1_revb_HCSR04/freedom-metal/gloss/crt0.S:62
20010172:	5fff1397          	auipc	t2,0x5fff1
20010176:	95638393          	addi	t2,t2,-1706 # 80000ac8 <__malloc_free_list>
/home/nicoladgg/wsFreedomStudio/sifive_hifive1_revb_HCSR04/freedom-metal/gloss/crt0.S:64
2001017a:	00628c63          	beq	t0,t1,20010192 <_start+0x42>
/home/nicoladgg/wsFreedomStudio/sifive_hifive1_revb_HCSR04/freedom-metal/gloss/crt0.S:65
2001017e:	00735a63          	bge	t1,t2,20010192 <_start+0x42>
/home/nicoladgg/wsFreedomStudio/sifive_hifive1_revb_HCSR04/freedom-metal/gloss/crt0.S:69
20010182:	0002a503          	lw	a0,0(t0)
/home/nicoladgg/wsFreedomStudio/sifive_hifive1_revb_HCSR04/freedom-metal/gloss/crt0.S:70
20010186:	0291                	addi	t0,t0,4
/home/nicoladgg/wsFreedomStudio/sifive_hifive1_revb_HCSR04/freedom-metal/gloss/crt0.S:71
20010188:	00a32023          	sw	a0,0(t1)
/home/nicoladgg/wsFreedomStudio/sifive_hifive1_revb_HCSR04/freedom-metal/gloss/crt0.S:72
2001018c:	0311                	addi	t1,t1,4
/home/nicoladgg/wsFreedomStudio/sifive_hifive1_revb_HCSR04/freedom-metal/gloss/crt0.S:73
2001018e:	fe734ae3          	blt	t1,t2,20010182 <_start+0x32>
/home/nicoladgg/wsFreedomStudio/sifive_hifive1_revb_HCSR04/freedom-metal/gloss/crt0.S:84
20010192:	00001297          	auipc	t0,0x1
20010196:	e6628293          	addi	t0,t0,-410 # 20010ff8 <metal_segment_itim_source_start>
/home/nicoladgg/wsFreedomStudio/sifive_hifive1_revb_HCSR04/freedom-metal/gloss/crt0.S:85
2001019a:	e7ff0317          	auipc	t1,0xe7ff0
2001019e:	e6630313          	addi	t1,t1,-410 # 8000000 <metal_segment_itim_target_end>
/home/nicoladgg/wsFreedomStudio/sifive_hifive1_revb_HCSR04/freedom-metal/gloss/crt0.S:86
200101a2:	e7ff0397          	auipc	t2,0xe7ff0
200101a6:	e5e38393          	addi	t2,t2,-418 # 8000000 <metal_segment_itim_target_end>
/home/nicoladgg/wsFreedomStudio/sifive_hifive1_revb_HCSR04/freedom-metal/gloss/crt0.S:88
200101aa:	00628c63          	beq	t0,t1,200101c2 <_start+0x72>
/home/nicoladgg/wsFreedomStudio/sifive_hifive1_revb_HCSR04/freedom-metal/gloss/crt0.S:89
200101ae:	00735a63          	bge	t1,t2,200101c2 <_start+0x72>
/home/nicoladgg/wsFreedomStudio/sifive_hifive1_revb_HCSR04/freedom-metal/gloss/crt0.S:93
200101b2:	0002a503          	lw	a0,0(t0)
/home/nicoladgg/wsFreedomStudio/sifive_hifive1_revb_HCSR04/freedom-metal/gloss/crt0.S:94
200101b6:	0291                	addi	t0,t0,4
/home/nicoladgg/wsFreedomStudio/sifive_hifive1_revb_HCSR04/freedom-metal/gloss/crt0.S:95
200101b8:	00a32023          	sw	a0,0(t1)
/home/nicoladgg/wsFreedomStudio/sifive_hifive1_revb_HCSR04/freedom-metal/gloss/crt0.S:96
200101bc:	0311                	addi	t1,t1,4
/home/nicoladgg/wsFreedomStudio/sifive_hifive1_revb_HCSR04/freedom-metal/gloss/crt0.S:97
200101be:	fe734ae3          	blt	t1,t2,200101b2 <_start+0x62>
/home/nicoladgg/wsFreedomStudio/sifive_hifive1_revb_HCSR04/freedom-metal/gloss/crt0.S:109
200101c2:	0000100f          	fence.i
/home/nicoladgg/wsFreedomStudio/sifive_hifive1_revb_HCSR04/freedom-metal/gloss/crt0.S:114
200101c6:	00001297          	auipc	t0,0x1
200101ca:	e3228293          	addi	t0,t0,-462 # 20010ff8 <metal_segment_itim_source_start>
/home/nicoladgg/wsFreedomStudio/sifive_hifive1_revb_HCSR04/freedom-metal/gloss/crt0.S:115
200101ce:	5fff0317          	auipc	t1,0x5fff0
200101d2:	e3230313          	addi	t1,t1,-462 # 80000000 <impure_data>
/home/nicoladgg/wsFreedomStudio/sifive_hifive1_revb_HCSR04/freedom-metal/gloss/crt0.S:116
200101d6:	5fff0397          	auipc	t2,0x5fff0
200101da:	e2a38393          	addi	t2,t2,-470 # 80000000 <impure_data>
/home/nicoladgg/wsFreedomStudio/sifive_hifive1_revb_HCSR04/freedom-metal/gloss/crt0.S:118
200101de:	00628c63          	beq	t0,t1,200101f6 <_start+0xa6>
/home/nicoladgg/wsFreedomStudio/sifive_hifive1_revb_HCSR04/freedom-metal/gloss/crt0.S:119
200101e2:	00735a63          	bge	t1,t2,200101f6 <_start+0xa6>
/home/nicoladgg/wsFreedomStudio/sifive_hifive1_revb_HCSR04/freedom-metal/gloss/crt0.S:123
200101e6:	0002a503          	lw	a0,0(t0)
/home/nicoladgg/wsFreedomStudio/sifive_hifive1_revb_HCSR04/freedom-metal/gloss/crt0.S:124
200101ea:	0291                	addi	t0,t0,4
/home/nicoladgg/wsFreedomStudio/sifive_hifive1_revb_HCSR04/freedom-metal/gloss/crt0.S:125
200101ec:	00a32023          	sw	a0,0(t1)
/home/nicoladgg/wsFreedomStudio/sifive_hifive1_revb_HCSR04/freedom-metal/gloss/crt0.S:126
200101f0:	0311                	addi	t1,t1,4
/home/nicoladgg/wsFreedomStudio/sifive_hifive1_revb_HCSR04/freedom-metal/gloss/crt0.S:127
200101f2:	fe734ae3          	blt	t1,t2,200101e6 <_start+0x96>
/home/nicoladgg/wsFreedomStudio/sifive_hifive1_revb_HCSR04/freedom-metal/gloss/crt0.S:139
200101f6:	0000100f          	fence.i
/home/nicoladgg/wsFreedomStudio/sifive_hifive1_revb_HCSR04/freedom-metal/gloss/crt0.S:142
200101fa:	5fff1317          	auipc	t1,0x5fff1
200101fe:	8ce30313          	addi	t1,t1,-1842 # 80000ac8 <__malloc_free_list>
/home/nicoladgg/wsFreedomStudio/sifive_hifive1_revb_HCSR04/freedom-metal/gloss/crt0.S:143
20010202:	8e018393          	addi	t2,gp,-1824 # 80000b80 <metal_segment_bss_target_end>
/home/nicoladgg/wsFreedomStudio/sifive_hifive1_revb_HCSR04/freedom-metal/gloss/crt0.S:145
20010206:	00735763          	bge	t1,t2,20010214 <_start+0xc4>
/home/nicoladgg/wsFreedomStudio/sifive_hifive1_revb_HCSR04/freedom-metal/gloss/crt0.S:149
2001020a:	00032023          	sw	zero,0(t1)
/home/nicoladgg/wsFreedomStudio/sifive_hifive1_revb_HCSR04/freedom-metal/gloss/crt0.S:150
2001020e:	0311                	addi	t1,t1,4
/home/nicoladgg/wsFreedomStudio/sifive_hifive1_revb_HCSR04/freedom-metal/gloss/crt0.S:151
20010210:	fe734de3          	blt	t1,t2,2001020a <_start+0xba>
/home/nicoladgg/wsFreedomStudio/sifive_hifive1_revb_HCSR04/freedom-metal/gloss/crt0.S:161
20010214:	5fff1217          	auipc	tp,0x5fff1
20010218:	8b420213          	addi	tp,tp,-1868 # 80000ac8 <__malloc_free_list>
/home/nicoladgg/wsFreedomStudio/sifive_hifive1_revb_HCSR04/freedom-metal/gloss/crt0.S:166
2001021c:	c211                	beqz	a2,20010220 <_start+0xd0>
/home/nicoladgg/wsFreedomStudio/sifive_hifive1_revb_HCSR04/freedom-metal/gloss/crt0.S:167
2001021e:	9602                	jalr	a2
/home/nicoladgg/wsFreedomStudio/sifive_hifive1_revb_HCSR04/freedom-metal/gloss/crt0.S:171
20010220:	00006517          	auipc	a0,0x6
20010224:	67650513          	addi	a0,a0,1654 # 20016896 <__libc_fini_array>
/home/nicoladgg/wsFreedomStudio/sifive_hifive1_revb_HCSR04/freedom-metal/gloss/crt0.S:172
20010228:	630060ef          	jal	ra,20016858 <atexit>
/home/nicoladgg/wsFreedomStudio/sifive_hifive1_revb_HCSR04/freedom-metal/gloss/crt0.S:173
2001022c:	6a0060ef          	jal	ra,200168cc <__libc_init_array>
/home/nicoladgg/wsFreedomStudio/sifive_hifive1_revb_HCSR04/freedom-metal/gloss/crt0.S:177
20010230:	00007517          	auipc	a0,0x7
20010234:	94450513          	addi	a0,a0,-1724 # 20016b74 <metal_fini_run>
/home/nicoladgg/wsFreedomStudio/sifive_hifive1_revb_HCSR04/freedom-metal/gloss/crt0.S:178
20010238:	620060ef          	jal	ra,20016858 <atexit>
/home/nicoladgg/wsFreedomStudio/sifive_hifive1_revb_HCSR04/freedom-metal/gloss/crt0.S:179
2001023c:	123060ef          	jal	ra,20016b5e <metal_init_run>

20010240 <_skip_init>:
_skip_init():
/home/nicoladgg/wsFreedomStudio/sifive_hifive1_revb_HCSR04/freedom-metal/gloss/crt0.S:185
20010240:	3709                	jal	20010142 <__metal_synchronize_harts>
/home/nicoladgg/wsFreedomStudio/sifive_hifive1_revb_HCSR04/freedom-metal/gloss/crt0.S:188
20010242:	56fd                	li	a3,-1
/home/nicoladgg/wsFreedomStudio/sifive_hifive1_revb_HCSR04/freedom-metal/gloss/crt0.S:189
20010244:	3046b073          	csrc	mie,a3
/home/nicoladgg/wsFreedomStudio/sifive_hifive1_revb_HCSR04/freedom-metal/gloss/crt0.S:190
20010248:	3446b073          	csrc	mip,a3
/home/nicoladgg/wsFreedomStudio/sifive_hifive1_revb_HCSR04/freedom-metal/gloss/crt0.S:194
2001024c:	301027f3          	csrr	a5,misa
/home/nicoladgg/wsFreedomStudio/sifive_hifive1_revb_HCSR04/freedom-metal/gloss/crt0.S:195
20010250:	00042737          	lui	a4,0x42
/home/nicoladgg/wsFreedomStudio/sifive_hifive1_revb_HCSR04/freedom-metal/gloss/crt0.S:196
20010254:	8f7d                	and	a4,a4,a5
/home/nicoladgg/wsFreedomStudio/sifive_hifive1_revb_HCSR04/freedom-metal/gloss/crt0.S:197
20010256:	c709                	beqz	a4,20010260 <_skip_init+0x20>
/home/nicoladgg/wsFreedomStudio/sifive_hifive1_revb_HCSR04/freedom-metal/gloss/crt0.S:198
20010258:	3036b073          	csrc	mideleg,a3
/home/nicoladgg/wsFreedomStudio/sifive_hifive1_revb_HCSR04/freedom-metal/gloss/crt0.S:199
2001025c:	3026b073          	csrc	medeleg,a3
/home/nicoladgg/wsFreedomStudio/sifive_hifive1_revb_HCSR04/freedom-metal/gloss/crt0.S:203
20010260:	00040737          	lui	a4,0x40
/home/nicoladgg/wsFreedomStudio/sifive_hifive1_revb_HCSR04/freedom-metal/gloss/crt0.S:204
20010264:	8f7d                	and	a4,a4,a5
/home/nicoladgg/wsFreedomStudio/sifive_hifive1_revb_HCSR04/freedom-metal/gloss/crt0.S:205
20010266:	c319                	beqz	a4,2001026c <_skip_init+0x2c>
/home/nicoladgg/wsFreedomStudio/sifive_hifive1_revb_HCSR04/freedom-metal/gloss/crt0.S:206
20010268:	1806b073          	csrc	satp,a3
/home/nicoladgg/wsFreedomStudio/sifive_hifive1_revb_HCSR04/freedom-metal/gloss/crt0.S:210
2001026c:	6741                	lui	a4,0x10
2001026e:	02870713          	addi	a4,a4,40 # 10028 <__heap_size+0xf828>
/home/nicoladgg/wsFreedomStudio/sifive_hifive1_revb_HCSR04/freedom-metal/gloss/crt0.S:211
20010272:	8ff9                	and	a5,a5,a4
/home/nicoladgg/wsFreedomStudio/sifive_hifive1_revb_HCSR04/freedom-metal/gloss/crt0.S:212
20010274:	cb89                	beqz	a5,20010286 <_skip_init+0x46>
/home/nicoladgg/wsFreedomStudio/sifive_hifive1_revb_HCSR04/freedom-metal/gloss/crt0.S:213
20010276:	300027f3          	csrr	a5,mstatus
/home/nicoladgg/wsFreedomStudio/sifive_hifive1_revb_HCSR04/freedom-metal/gloss/crt0.S:214
2001027a:	6709                	lui	a4,0x2
/home/nicoladgg/wsFreedomStudio/sifive_hifive1_revb_HCSR04/freedom-metal/gloss/crt0.S:215
2001027c:	8fd9                	or	a5,a5,a4
/home/nicoladgg/wsFreedomStudio/sifive_hifive1_revb_HCSR04/freedom-metal/gloss/crt0.S:216
2001027e:	30079073          	csrw	mstatus,a5
/home/nicoladgg/wsFreedomStudio/sifive_hifive1_revb_HCSR04/freedom-metal/gloss/crt0.S:217
20010282:	00305073          	csrwi	fcsr,0
/home/nicoladgg/wsFreedomStudio/sifive_hifive1_revb_HCSR04/freedom-metal/gloss/crt0.S:221
20010286:	301027f3          	csrr	a5,misa
/home/nicoladgg/wsFreedomStudio/sifive_hifive1_revb_HCSR04/freedom-metal/gloss/crt0.S:222
2001028a:	00200737          	lui	a4,0x200
/home/nicoladgg/wsFreedomStudio/sifive_hifive1_revb_HCSR04/freedom-metal/gloss/crt0.S:223
2001028e:	8ff9                	and	a5,a5,a4
/home/nicoladgg/wsFreedomStudio/sifive_hifive1_revb_HCSR04/freedom-metal/gloss/crt0.S:224
20010290:	c799                	beqz	a5,2001029e <_skip_init+0x5e>
/home/nicoladgg/wsFreedomStudio/sifive_hifive1_revb_HCSR04/freedom-metal/gloss/crt0.S:225
20010292:	300027f3          	csrr	a5,mstatus
/home/nicoladgg/wsFreedomStudio/sifive_hifive1_revb_HCSR04/freedom-metal/gloss/crt0.S:226
20010296:	2007e793          	ori	a5,a5,512
/home/nicoladgg/wsFreedomStudio/sifive_hifive1_revb_HCSR04/freedom-metal/gloss/crt0.S:227
2001029a:	30079073          	csrw	mstatus,a5
/home/nicoladgg/wsFreedomStudio/sifive_hifive1_revb_HCSR04/freedom-metal/gloss/crt0.S:233
2001029e:	4505                	li	a0,1
/home/nicoladgg/wsFreedomStudio/sifive_hifive1_revb_HCSR04/freedom-metal/gloss/crt0.S:234
200102a0:	00001597          	auipc	a1,0x1
200102a4:	d1858593          	addi	a1,a1,-744 # 20010fb8 <argv>
/home/nicoladgg/wsFreedomStudio/sifive_hifive1_revb_HCSR04/freedom-metal/gloss/crt0.S:235
200102a8:	00001617          	auipc	a2,0x1
200102ac:	d1460613          	addi	a2,a2,-748 # 20010fbc <envp>
/home/nicoladgg/wsFreedomStudio/sifive_hifive1_revb_HCSR04/freedom-metal/gloss/crt0.S:236
200102b0:	2031                	jal	200102bc <secondary_main>
/home/nicoladgg/wsFreedomStudio/sifive_hifive1_revb_HCSR04/freedom-metal/gloss/crt0.S:242
200102b2:	5ba060ef          	jal	ra,2001686c <exit>
/home/nicoladgg/wsFreedomStudio/sifive_hifive1_revb_HCSR04/freedom-metal/gloss/crt0.S:247
200102b6:	80a2                	mv	ra,s0
/home/nicoladgg/wsFreedomStudio/sifive_hifive1_revb_HCSR04/freedom-metal/gloss/crt0.S:248
200102b8:	8082                	ret

200102ba <_fini>:
_init():
/home/nicoladgg/wsFreedomStudio/sifive_hifive1_revb_HCSR04/freedom-metal/gloss/crt0.S:260
200102ba:	8082                	ret

200102bc <secondary_main>:
secondary_main():
/home/nicoladgg/wsFreedomStudio/sifive_hifive1_revb_HCSR04/freedom-metal/gloss/crt0.S:271
200102bc:	1141                	addi	sp,sp,-16
/home/nicoladgg/wsFreedomStudio/sifive_hifive1_revb_HCSR04/freedom-metal/gloss/crt0.S:273
200102be:	c206                	sw	ra,4(sp)
/home/nicoladgg/wsFreedomStudio/sifive_hifive1_revb_HCSR04/freedom-metal/gloss/crt0.S:277
200102c0:	f14022f3          	csrr	t0,mhartid
/home/nicoladgg/wsFreedomStudio/sifive_hifive1_revb_HCSR04/freedom-metal/gloss/crt0.S:278
200102c4:	00000313          	li	t1,0
/home/nicoladgg/wsFreedomStudio/sifive_hifive1_revb_HCSR04/freedom-metal/gloss/crt0.S:279
200102c8:	00628563          	beq	t0,t1,200102d2 <secondary_main+0x16>
/home/nicoladgg/wsFreedomStudio/sifive_hifive1_revb_HCSR04/freedom-metal/gloss/crt0.S:281
200102cc:	10500073          	wfi
/home/nicoladgg/wsFreedomStudio/sifive_hifive1_revb_HCSR04/freedom-metal/gloss/crt0.S:282
200102d0:	bff5                	j	200102cc <secondary_main+0x10>
/home/nicoladgg/wsFreedomStudio/sifive_hifive1_revb_HCSR04/freedom-metal/gloss/crt0.S:284
200102d2:	55f000ef          	jal	ra,20011030 <main>
/home/nicoladgg/wsFreedomStudio/sifive_hifive1_revb_HCSR04/freedom-metal/gloss/crt0.S:286
200102d6:	4092                	lw	ra,4(sp)
/home/nicoladgg/wsFreedomStudio/sifive_hifive1_revb_HCSR04/freedom-metal/gloss/crt0.S:290
200102d8:	0141                	addi	sp,sp,16
/home/nicoladgg/wsFreedomStudio/sifive_hifive1_revb_HCSR04/freedom-metal/gloss/crt0.S:291
200102da:	8082                	ret

Disassembly of section .ctors:

200102ec <metal_sifive_fe310_g000_pll_init>:
metal_sifive_fe310_g000_pll_init():
/home/nicoladgg/wsFreedomStudio/sifive_hifive1_revb_HCSR04/freedom-metal/src/drivers/sifive_fe310-g000_pll.c:151
200102ec:	1101                	addi	sp,sp,-32
200102ee:	ce06                	sw	ra,28(sp)
200102f0:	cc22                	sw	s0,24(sp)
200102f2:	1000                	addi	s0,sp,32
/home/nicoladgg/wsFreedomStudio/sifive_hifive1_revb_HCSR04/freedom-metal/src/drivers/sifive_fe310-g000_pll.c:152
200102f4:	6a0040ef          	jal	ra,20014994 <__metal_driver_sifive_fe310_g000_pll_init_rate>
200102f8:	fea42623          	sw	a0,-20(s0)
/home/nicoladgg/wsFreedomStudio/sifive_hifive1_revb_HCSR04/freedom-metal/src/drivers/sifive_fe310-g000_pll.c:154
200102fc:	fec42783          	lw	a5,-20(s0)
20010300:	c799                	beqz	a5,2001030e <__fini_array_end+0x1e>
/home/nicoladgg/wsFreedomStudio/sifive_hifive1_revb_HCSR04/freedom-metal/src/drivers/sifive_fe310-g000_pll.c:155
20010302:	800017b7          	lui	a5,0x80001
20010306:	a9078513          	addi	a0,a5,-1392 # 80000a90 <metal_segment_heap_target_end+0xfffff310>
2001030a:	716040ef          	jal	ra,20014a20 <__metal_driver_sifive_fe310_g000_pll_init>
/home/nicoladgg/wsFreedomStudio/sifive_hifive1_revb_HCSR04/freedom-metal/src/drivers/sifive_fe310-g000_pll.c:157
2001030e:	0001                	nop
20010310:	40f2                	lw	ra,28(sp)
20010312:	4462                	lw	s0,24(sp)
20010314:	6105                	addi	sp,sp,32
20010316:	8082                	ret

20010318 <use_hfxosc>:
use_hfxosc():
/home/nicoladgg/wsFreedomStudio/sifive_hifive1_revb_HCSR04/freedom-metal/src/drivers/sifive_fe310-g000_pll.c:389
20010318:	1101                	addi	sp,sp,-32
2001031a:	ce06                	sw	ra,28(sp)
2001031c:	cc22                	sw	s0,24(sp)
2001031e:	1000                	addi	s0,sp,32
/home/nicoladgg/wsFreedomStudio/sifive_hifive1_revb_HCSR04/freedom-metal/src/drivers/sifive_fe310-g000_pll.c:390
20010320:	674040ef          	jal	ra,20014994 <__metal_driver_sifive_fe310_g000_pll_init_rate>
20010324:	fea42623          	sw	a0,-20(s0)
/home/nicoladgg/wsFreedomStudio/sifive_hifive1_revb_HCSR04/freedom-metal/src/drivers/sifive_fe310-g000_pll.c:391
20010328:	fec42583          	lw	a1,-20(s0)
2001032c:	800017b7          	lui	a5,0x80001
20010330:	a9078513          	addi	a0,a5,-1392 # 80000a90 <metal_segment_heap_target_end+0xfffff310>
20010334:	791050ef          	jal	ra,200162c4 <metal_clock_set_rate_hz>
/home/nicoladgg/wsFreedomStudio/sifive_hifive1_revb_HCSR04/freedom-metal/src/drivers/sifive_fe310-g000_pll.c:393
20010338:	0001                	nop
2001033a:	40f2                	lw	ra,28(sp)
2001033c:	4462                	lw	s0,24(sp)
2001033e:	6105                	addi	sp,sp,32
20010340:	8082                	ret

20010342 <metal_tty_init>:
metal_tty_init():
/home/nicoladgg/wsFreedomStudio/sifive_hifive1_revb_HCSR04/freedom-metal/src/tty.c:28
20010342:	1141                	addi	sp,sp,-16
20010344:	c606                	sw	ra,12(sp)
20010346:	c422                	sw	s0,8(sp)
20010348:	0800                	addi	s0,sp,16
/home/nicoladgg/wsFreedomStudio/sifive_hifive1_revb_HCSR04/freedom-metal/src/tty.c:29
2001034a:	67f1                	lui	a5,0x1c
2001034c:	20078593          	addi	a1,a5,512 # 1c200 <__heap_size+0x1ba00>
20010350:	800017b7          	lui	a5,0x80001
20010354:	a3878513          	addi	a0,a5,-1480 # 80000a38 <metal_segment_heap_target_end+0xfffff2b8>
20010358:	19c060ef          	jal	ra,200164f4 <metal_uart_init>
/home/nicoladgg/wsFreedomStudio/sifive_hifive1_revb_HCSR04/freedom-metal/src/tty.c:30
2001035c:	0001                	nop
2001035e:	40b2                	lw	ra,12(sp)
20010360:	4422                	lw	s0,8(sp)
20010362:	0141                	addi	sp,sp,16
20010364:	8082                	ret

Disassembly of section .text:

20011000 <timer_isr>:
timer_isr():
/home/nicoladgg/wsFreedomStudio/SiFive_HiFive_RevB_Projects/sifive_hifive1_revb_HCSR04/src/main.c:29
struct metal_cpu *cpu;
struct metal_interrupt *cpu_intr, *tmr_intr;
int tmr_id;
volatile uint32_t timer_isr_flag;

void timer_isr (int id, void *data) {
20011000:	1101                	addi	sp,sp,-32
20011002:	ce06                	sw	ra,28(sp)
20011004:	cc22                	sw	s0,24(sp)
20011006:	1000                	addi	s0,sp,32
20011008:	fea42623          	sw	a0,-20(s0)
2001100c:	feb42423          	sw	a1,-24(s0)
/home/nicoladgg/wsFreedomStudio/SiFive_HiFive_RevB_Projects/sifive_hifive1_revb_HCSR04/src/main.c:32

    // Disable Timer interrupt
    metal_interrupt_disable(tmr_intr, tmr_id);
20011010:	8d01a703          	lw	a4,-1840(gp) # 80000b70 <tmr_intr>
20011014:	8dc1a783          	lw	a5,-1828(gp) # 80000b7c <tmr_id>
20011018:	85be                	mv	a1,a5
2001101a:	853a                	mv	a0,a4
2001101c:	49c050ef          	jal	ra,200164b8 <metal_interrupt_disable>
/home/nicoladgg/wsFreedomStudio/SiFive_HiFive_RevB_Projects/sifive_hifive1_revb_HCSR04/src/main.c:35

    // Flag showing we hit timer isr
    timer_isr_flag = 1;
20011020:	4705                	li	a4,1
20011022:	8ce1ac23          	sw	a4,-1832(gp) # 80000b78 <timer_isr_flag>
/home/nicoladgg/wsFreedomStudio/SiFive_HiFive_RevB_Projects/sifive_hifive1_revb_HCSR04/src/main.c:36
}
20011026:	0001                	nop
20011028:	40f2                	lw	ra,28(sp)
2001102a:	4462                	lw	s0,24(sp)
2001102c:	6105                	addi	sp,sp,32
2001102e:	8082                	ret

20011030 <main>:
main():
/home/nicoladgg/wsFreedomStudio/SiFive_HiFive_RevB_Projects/sifive_hifive1_revb_HCSR04/src/main.c:106
{
	GPIO_REG(GPIO_OUTPUT_EN)  |= 0<<pin;
}

int main (void)
{
20011030:	1101                	addi	sp,sp,-32
20011032:	ce06                	sw	ra,28(sp)
20011034:	cc22                	sw	s0,24(sp)
20011036:	1000                	addi	s0,sp,32
/home/nicoladgg/wsFreedomStudio/SiFive_HiFive_RevB_Projects/sifive_hifive1_revb_HCSR04/src/main.c:113
    struct metal_led *led0_red, *led0_green, *led0_blue;


    /* This code
 		wait_for_timer(); is used to initialize the cpu and its interrupts */
    cpu = metal_cpu_get(metal_cpu_get_current_hartid());
20011038:	3d6050ef          	jal	ra,2001640e <metal_cpu_get_current_hartid>
2001103c:	87aa                	mv	a5,a0
2001103e:	853e                	mv	a0,a5
20011040:	3a0050ef          	jal	ra,200163e0 <metal_cpu_get>
20011044:	872a                	mv	a4,a0
20011046:	8ce1a623          	sw	a4,-1844(gp) # 80000b6c <cpu>
/home/nicoladgg/wsFreedomStudio/SiFive_HiFive_RevB_Projects/sifive_hifive1_revb_HCSR04/src/main.c:114
    if (cpu == NULL) {
2001104a:	8cc1a783          	lw	a5,-1844(gp) # 80000b6c <cpu>
2001104e:	eb81                	bnez	a5,2001105e <main+0x2e>
/home/nicoladgg/wsFreedomStudio/SiFive_HiFive_RevB_Projects/sifive_hifive1_revb_HCSR04/src/main.c:115
        printf("CPU null.\n");
20011050:	200107b7          	lui	a5,0x20010
20011054:	36878513          	addi	a0,a5,872 # 20010368 <metal_tty_init+0x26>
20011058:	22f5                	jal	20011244 <puts>
/home/nicoladgg/wsFreedomStudio/SiFive_HiFive_RevB_Projects/sifive_hifive1_revb_HCSR04/src/main.c:116
        return 2;
2001105a:	4789                	li	a5,2
2001105c:	a211                	j	20011160 <main+0x130>
/home/nicoladgg/wsFreedomStudio/SiFive_HiFive_RevB_Projects/sifive_hifive1_revb_HCSR04/src/main.c:118
    }
    cpu_intr = metal_cpu_interrupt_controller(cpu);
2001105e:	8cc1a783          	lw	a5,-1844(gp) # 80000b6c <cpu>
20011062:	853e                	mv	a0,a5
20011064:	356050ef          	jal	ra,200163ba <metal_cpu_interrupt_controller>
20011068:	872a                	mv	a4,a0
2001106a:	8ce1aa23          	sw	a4,-1836(gp) # 80000b74 <cpu_intr>
/home/nicoladgg/wsFreedomStudio/SiFive_HiFive_RevB_Projects/sifive_hifive1_revb_HCSR04/src/main.c:119
    if (cpu_intr == NULL) {
2001106e:	8d41a783          	lw	a5,-1836(gp) # 80000b74 <cpu_intr>
20011072:	eb81                	bnez	a5,20011082 <main+0x52>
/home/nicoladgg/wsFreedomStudio/SiFive_HiFive_RevB_Projects/sifive_hifive1_revb_HCSR04/src/main.c:120
        printf("CPU interrupt controller is null.\n");
20011074:	200107b7          	lui	a5,0x20010
20011078:	37478513          	addi	a0,a5,884 # 20010374 <metal_tty_init+0x32>
2001107c:	22e1                	jal	20011244 <puts>
/home/nicoladgg/wsFreedomStudio/SiFive_HiFive_RevB_Projects/sifive_hifive1_revb_HCSR04/src/main.c:121
        return 3;
2001107e:	478d                	li	a5,3
20011080:	a0c5                	j	20011160 <main+0x130>
/home/nicoladgg/wsFreedomStudio/SiFive_HiFive_RevB_Projects/sifive_hifive1_revb_HCSR04/src/main.c:123
    }
    metal_interrupt_init(cpu_intr);
20011082:	8d41a783          	lw	a5,-1836(gp) # 80000b74 <cpu_intr>
20011086:	853e                	mv	a0,a5
20011088:	3a0050ef          	jal	ra,20016428 <metal_interrupt_init>
/home/nicoladgg/wsFreedomStudio/SiFive_HiFive_RevB_Projects/sifive_hifive1_revb_HCSR04/src/main.c:127


    // Setup Timer and its interrupt so we can toggle LEDs on 1s cadence
    tmr_intr = metal_cpu_timer_interrupt_controller(cpu);
2001108c:	8cc1a783          	lw	a5,-1844(gp) # 80000b6c <cpu>
20011090:	853e                	mv	a0,a5
20011092:	2dc050ef          	jal	ra,2001636e <metal_cpu_timer_interrupt_controller>
20011096:	872a                	mv	a4,a0
20011098:	8ce1a823          	sw	a4,-1840(gp) # 80000b70 <tmr_intr>
/home/nicoladgg/wsFreedomStudio/SiFive_HiFive_RevB_Projects/sifive_hifive1_revb_HCSR04/src/main.c:128
    if (tmr_intr == NULL) {
2001109c:	8d01a783          	lw	a5,-1840(gp) # 80000b70 <tmr_intr>
200110a0:	eb81                	bnez	a5,200110b0 <main+0x80>
/home/nicoladgg/wsFreedomStudio/SiFive_HiFive_RevB_Projects/sifive_hifive1_revb_HCSR04/src/main.c:129
        printf("TIMER interrupt controller is  null.\n");
200110a2:	200107b7          	lui	a5,0x20010
200110a6:	39878513          	addi	a0,a5,920 # 20010398 <metal_tty_init+0x56>
200110aa:	2a69                	jal	20011244 <puts>
/home/nicoladgg/wsFreedomStudio/SiFive_HiFive_RevB_Projects/sifive_hifive1_revb_HCSR04/src/main.c:130
        return 4;
200110ac:	4791                	li	a5,4
200110ae:	a84d                	j	20011160 <main+0x130>
/home/nicoladgg/wsFreedomStudio/SiFive_HiFive_RevB_Projects/sifive_hifive1_revb_HCSR04/src/main.c:132
    }
    metal_interrupt_init(tmr_intr);
200110b0:	8d01a783          	lw	a5,-1840(gp) # 80000b70 <tmr_intr>
200110b4:	853e                	mv	a0,a5
200110b6:	372050ef          	jal	ra,20016428 <metal_interrupt_init>
/home/nicoladgg/wsFreedomStudio/SiFive_HiFive_RevB_Projects/sifive_hifive1_revb_HCSR04/src/main.c:133
    tmr_id = metal_cpu_timer_get_interrupt_id(cpu);
200110ba:	8cc1a783          	lw	a5,-1844(gp) # 80000b6c <cpu>
200110be:	853e                	mv	a0,a5
200110c0:	2d4050ef          	jal	ra,20016394 <metal_cpu_timer_get_interrupt_id>
200110c4:	872a                	mv	a4,a0
200110c6:	8ce1ae23          	sw	a4,-1828(gp) # 80000b7c <tmr_id>
/home/nicoladgg/wsFreedomStudio/SiFive_HiFive_RevB_Projects/sifive_hifive1_revb_HCSR04/src/main.c:134
    rc = metal_interrupt_register_handler(tmr_intr, tmr_id, timer_isr, cpu);
200110ca:	8d01a703          	lw	a4,-1840(gp) # 80000b70 <tmr_intr>
200110ce:	8dc1a583          	lw	a1,-1828(gp) # 80000b7c <tmr_id>
200110d2:	8cc1a783          	lw	a5,-1844(gp) # 80000b6c <cpu>
200110d6:	86be                	mv	a3,a5
200110d8:	200117b7          	lui	a5,0x20011
200110dc:	00078613          	mv	a2,a5
200110e0:	853a                	mv	a0,a4
200110e2:	36a050ef          	jal	ra,2001644c <metal_interrupt_register_handler>
200110e6:	fea42423          	sw	a0,-24(s0)
/home/nicoladgg/wsFreedomStudio/SiFive_HiFive_RevB_Projects/sifive_hifive1_revb_HCSR04/src/main.c:135
    if (rc < 0) {
200110ea:	fe842783          	lw	a5,-24(s0)
200110ee:	0007dc63          	bgez	a5,20011106 <main+0xd6>
/home/nicoladgg/wsFreedomStudio/SiFive_HiFive_RevB_Projects/sifive_hifive1_revb_HCSR04/src/main.c:136
        printf("TIMER interrupt handler registration failed\n");
200110f2:	200107b7          	lui	a5,0x20010
200110f6:	3c078513          	addi	a0,a5,960 # 200103c0 <metal_tty_init+0x7e>
200110fa:	22a9                	jal	20011244 <puts>
/home/nicoladgg/wsFreedomStudio/SiFive_HiFive_RevB_Projects/sifive_hifive1_revb_HCSR04/src/main.c:137
        return (rc * -1);
200110fc:	fe842783          	lw	a5,-24(s0)
20011100:	40f007b3          	neg	a5,a5
20011104:	a8b1                	j	20011160 <main+0x130>
/home/nicoladgg/wsFreedomStudio/SiFive_HiFive_RevB_Projects/sifive_hifive1_revb_HCSR04/src/main.c:141
    }

    // Lastly CPU interrupt
    if (metal_interrupt_enable(cpu_intr, 0) == -1) {
20011106:	8d41a783          	lw	a5,-1836(gp) # 80000b74 <cpu_intr>
2001110a:	4581                	li	a1,0
2001110c:	853e                	mv	a0,a5
2001110e:	37c050ef          	jal	ra,2001648a <metal_interrupt_enable>
20011112:	872a                	mv	a4,a0
20011114:	57fd                	li	a5,-1
20011116:	00f71963          	bne	a4,a5,20011128 <main+0xf8>
/home/nicoladgg/wsFreedomStudio/SiFive_HiFive_RevB_Projects/sifive_hifive1_revb_HCSR04/src/main.c:142
        printf("CPU interrupt enable failed\n");
2001111a:	200107b7          	lui	a5,0x20010
2001111e:	3ec78513          	addi	a0,a5,1004 # 200103ec <metal_tty_init+0xaa>
20011122:	220d                	jal	20011244 <puts>
/home/nicoladgg/wsFreedomStudio/SiFive_HiFive_RevB_Projects/sifive_hifive1_revb_HCSR04/src/main.c:143
        return 6;
20011124:	4799                	li	a5,6
20011126:	a82d                	j	20011160 <main+0x130>
/home/nicoladgg/wsFreedomStudio/SiFive_HiFive_RevB_Projects/sifive_hifive1_revb_HCSR04/src/main.c:146
    }

    int cpu_freq = 16000000;
20011128:	00f427b7          	lui	a5,0xf42
2001112c:	40078793          	addi	a5,a5,1024 # f42400 <__heap_size+0xf41c00>
20011130:	fef42223          	sw	a5,-28(s0)
/home/nicoladgg/wsFreedomStudio/SiFive_HiFive_RevB_Projects/sifive_hifive1_revb_HCSR04/src/main.c:147
    int pwmpin = PIN6;
20011134:	47d9                	li	a5,22
20011136:	fef42023          	sw	a5,-32(s0)
/home/nicoladgg/wsFreedomStudio/SiFive_HiFive_RevB_Projects/sifive_hifive1_revb_HCSR04/src/main.c:151



	for(unsigned int i = 0; i < 180; i++)
2001113a:	fe042623          	sw	zero,-20(s0)
2001113e:	a031                	j	2001114a <main+0x11a>
/home/nicoladgg/wsFreedomStudio/SiFive_HiFive_RevB_Projects/sifive_hifive1_revb_HCSR04/src/main.c:151 (discriminator 3)
20011140:	fec42783          	lw	a5,-20(s0)
20011144:	0785                	addi	a5,a5,1
20011146:	fef42623          	sw	a5,-20(s0)
/home/nicoladgg/wsFreedomStudio/SiFive_HiFive_RevB_Projects/sifive_hifive1_revb_HCSR04/src/main.c:151 (discriminator 1)
2001114a:	fec42703          	lw	a4,-20(s0)
2001114e:	0b300793          	li	a5,179
20011152:	fee7f7e3          	bgeu	a5,a4,20011140 <main+0x110>
/home/nicoladgg/wsFreedomStudio/SiFive_HiFive_RevB_Projects/sifive_hifive1_revb_HCSR04/src/main.c:165
		PWM1_REG(PWM_CFG) |= pwmscale | PWM_CFG_ENALWAYS | PWM_CFG_ZEROCMP;
		wait_for_timer();
		*/
	}

	PWM1_REG(PWM_CFG) = 0;
20011156:	100257b7          	lui	a5,0x10025
2001115a:	0007a023          	sw	zero,0(a5) # 10025000 <metal_segment_itim_target_end+0x8025000>
/home/nicoladgg/wsFreedomStudio/SiFive_HiFive_RevB_Projects/sifive_hifive1_revb_HCSR04/src/main.c:167
    // return
    return 0;
2001115e:	4781                	li	a5,0
/home/nicoladgg/wsFreedomStudio/SiFive_HiFive_RevB_Projects/sifive_hifive1_revb_HCSR04/src/main.c:168
}
20011160:	853e                	mv	a0,a5
20011162:	40f2                	lw	ra,28(sp)
20011164:	4462                	lw	s0,24(sp)
20011166:	6105                	addi	sp,sp,32
20011168:	8082                	ret

2001116a <_puts_r>:
_puts_r():
2001116a:	1101                	addi	sp,sp,-32
2001116c:	ca26                	sw	s1,20(sp)
2001116e:	c84a                	sw	s2,16(sp)
20011170:	ce06                	sw	ra,28(sp)
20011172:	cc22                	sw	s0,24(sp)
20011174:	c64e                	sw	s3,12(sp)
20011176:	c452                	sw	s4,8(sp)
20011178:	84aa                	mv	s1,a0
2001117a:	892e                	mv	s2,a1
2001117c:	c501                	beqz	a0,20011184 <_puts_r+0x1a>
2001117e:	4d1c                	lw	a5,24(a0)
20011180:	e391                	bnez	a5,20011184 <_puts_r+0x1a>
20011182:	29e5                	jal	2001167a <__sinit>
20011184:	4c9c                	lw	a5,24(s1)
20011186:	4480                	lw	s0,8(s1)
20011188:	e399                	bnez	a5,2001118e <_puts_r+0x24>
2001118a:	8526                	mv	a0,s1
2001118c:	21fd                	jal	2001167a <__sinit>
2001118e:	fffff797          	auipc	a5,0xfffff
20011192:	2b278793          	addi	a5,a5,690 # 20010440 <__sf_fake_stdin>
20011196:	02f41c63          	bne	s0,a5,200111ce <_puts_r+0x64>
2001119a:	40c0                	lw	s0,4(s1)
2001119c:	00c45783          	lhu	a5,12(s0)
200111a0:	8ba1                	andi	a5,a5,8
200111a2:	c7b1                	beqz	a5,200111ee <_puts_r+0x84>
200111a4:	481c                	lw	a5,16(s0)
200111a6:	c7a1                	beqz	a5,200111ee <_puts_r+0x84>
200111a8:	59fd                	li	s3,-1
200111aa:	4a29                	li	s4,10
200111ac:	441c                	lw	a5,8(s0)
200111ae:	00094583          	lbu	a1,0(s2)
200111b2:	17fd                	addi	a5,a5,-1
200111b4:	e9b1                	bnez	a1,20011208 <_puts_r+0x9e>
200111b6:	c41c                	sw	a5,8(s0)
200111b8:	0607de63          	bgez	a5,20011234 <_puts_r+0xca>
200111bc:	8622                	mv	a2,s0
200111be:	45a9                	li	a1,10
200111c0:	8526                	mv	a0,s1
200111c2:	2079                	jal	20011250 <__swbuf_r>
200111c4:	57fd                	li	a5,-1
200111c6:	02f50863          	beq	a0,a5,200111f6 <_puts_r+0x8c>
200111ca:	4529                	li	a0,10
200111cc:	a035                	j	200111f8 <_puts_r+0x8e>
200111ce:	fffff797          	auipc	a5,0xfffff
200111d2:	29278793          	addi	a5,a5,658 # 20010460 <__sf_fake_stdout>
200111d6:	00f41463          	bne	s0,a5,200111de <_puts_r+0x74>
200111da:	4480                	lw	s0,8(s1)
200111dc:	b7c1                	j	2001119c <_puts_r+0x32>
200111de:	fffff797          	auipc	a5,0xfffff
200111e2:	24278793          	addi	a5,a5,578 # 20010420 <__sf_fake_stderr>
200111e6:	faf41be3          	bne	s0,a5,2001119c <_puts_r+0x32>
200111ea:	44c0                	lw	s0,12(s1)
200111ec:	bf45                	j	2001119c <_puts_r+0x32>
200111ee:	85a2                	mv	a1,s0
200111f0:	8526                	mv	a0,s1
200111f2:	2a39                	jal	20011310 <__swsetup_r>
200111f4:	d955                	beqz	a0,200111a8 <_puts_r+0x3e>
200111f6:	557d                	li	a0,-1
200111f8:	40f2                	lw	ra,28(sp)
200111fa:	4462                	lw	s0,24(sp)
200111fc:	44d2                	lw	s1,20(sp)
200111fe:	4942                	lw	s2,16(sp)
20011200:	49b2                	lw	s3,12(sp)
20011202:	4a22                	lw	s4,8(sp)
20011204:	6105                	addi	sp,sp,32
20011206:	8082                	ret
20011208:	c41c                	sw	a5,8(s0)
2001120a:	0905                	addi	s2,s2,1
2001120c:	0007d763          	bgez	a5,2001121a <_puts_r+0xb0>
20011210:	4c18                	lw	a4,24(s0)
20011212:	00e7cb63          	blt	a5,a4,20011228 <_puts_r+0xbe>
20011216:	01458963          	beq	a1,s4,20011228 <_puts_r+0xbe>
2001121a:	401c                	lw	a5,0(s0)
2001121c:	00178713          	addi	a4,a5,1
20011220:	c018                	sw	a4,0(s0)
20011222:	00b78023          	sb	a1,0(a5)
20011226:	b759                	j	200111ac <_puts_r+0x42>
20011228:	8622                	mv	a2,s0
2001122a:	8526                	mv	a0,s1
2001122c:	2015                	jal	20011250 <__swbuf_r>
2001122e:	f7351fe3          	bne	a0,s3,200111ac <_puts_r+0x42>
20011232:	b7d1                	j	200111f6 <_puts_r+0x8c>
20011234:	401c                	lw	a5,0(s0)
20011236:	00178713          	addi	a4,a5,1
2001123a:	c018                	sw	a4,0(s0)
2001123c:	4729                	li	a4,10
2001123e:	00e78023          	sb	a4,0(a5)
20011242:	b761                	j	200111ca <_puts_r+0x60>

20011244 <puts>:
puts():
20011244:	85aa                	mv	a1,a0
20011246:	5fff0517          	auipc	a0,0x5fff0
2001124a:	85e52503          	lw	a0,-1954(a0) # 80000aa4 <_impure_ptr>
2001124e:	bf31                	j	2001116a <_puts_r>

20011250 <__swbuf_r>:
__swbuf_r():
20011250:	1101                	addi	sp,sp,-32
20011252:	cc22                	sw	s0,24(sp)
20011254:	ca26                	sw	s1,20(sp)
20011256:	c84a                	sw	s2,16(sp)
20011258:	ce06                	sw	ra,28(sp)
2001125a:	c64e                	sw	s3,12(sp)
2001125c:	84aa                	mv	s1,a0
2001125e:	892e                	mv	s2,a1
20011260:	8432                	mv	s0,a2
20011262:	c501                	beqz	a0,2001126a <__swbuf_r+0x1a>
20011264:	4d1c                	lw	a5,24(a0)
20011266:	e391                	bnez	a5,2001126a <__swbuf_r+0x1a>
20011268:	2909                	jal	2001167a <__sinit>
2001126a:	fffff797          	auipc	a5,0xfffff
2001126e:	1d678793          	addi	a5,a5,470 # 20010440 <__sf_fake_stdin>
20011272:	06f41963          	bne	s0,a5,200112e4 <__swbuf_r+0x94>
20011276:	40c0                	lw	s0,4(s1)
20011278:	4c1c                	lw	a5,24(s0)
2001127a:	c41c                	sw	a5,8(s0)
2001127c:	00c45783          	lhu	a5,12(s0)
20011280:	8ba1                	andi	a5,a5,8
20011282:	c3c9                	beqz	a5,20011304 <__swbuf_r+0xb4>
20011284:	481c                	lw	a5,16(s0)
20011286:	cfbd                	beqz	a5,20011304 <__swbuf_r+0xb4>
20011288:	481c                	lw	a5,16(s0)
2001128a:	4008                	lw	a0,0(s0)
2001128c:	0ff97993          	zext.b	s3,s2
20011290:	0ff97913          	zext.b	s2,s2
20011294:	8d1d                	sub	a0,a0,a5
20011296:	485c                	lw	a5,20(s0)
20011298:	00f54663          	blt	a0,a5,200112a4 <__swbuf_r+0x54>
2001129c:	85a2                	mv	a1,s0
2001129e:	8526                	mv	a0,s1
200112a0:	24c1                	jal	20011560 <_fflush_r>
200112a2:	e52d                	bnez	a0,2001130c <__swbuf_r+0xbc>
200112a4:	441c                	lw	a5,8(s0)
200112a6:	0505                	addi	a0,a0,1
200112a8:	17fd                	addi	a5,a5,-1
200112aa:	c41c                	sw	a5,8(s0)
200112ac:	401c                	lw	a5,0(s0)
200112ae:	00178713          	addi	a4,a5,1
200112b2:	c018                	sw	a4,0(s0)
200112b4:	01378023          	sb	s3,0(a5)
200112b8:	485c                	lw	a5,20(s0)
200112ba:	00a78963          	beq	a5,a0,200112cc <__swbuf_r+0x7c>
200112be:	00c45783          	lhu	a5,12(s0)
200112c2:	8b85                	andi	a5,a5,1
200112c4:	cb81                	beqz	a5,200112d4 <__swbuf_r+0x84>
200112c6:	47a9                	li	a5,10
200112c8:	00f91663          	bne	s2,a5,200112d4 <__swbuf_r+0x84>
200112cc:	85a2                	mv	a1,s0
200112ce:	8526                	mv	a0,s1
200112d0:	2c41                	jal	20011560 <_fflush_r>
200112d2:	ed0d                	bnez	a0,2001130c <__swbuf_r+0xbc>
200112d4:	40f2                	lw	ra,28(sp)
200112d6:	4462                	lw	s0,24(sp)
200112d8:	44d2                	lw	s1,20(sp)
200112da:	49b2                	lw	s3,12(sp)
200112dc:	854a                	mv	a0,s2
200112de:	4942                	lw	s2,16(sp)
200112e0:	6105                	addi	sp,sp,32
200112e2:	8082                	ret
200112e4:	fffff797          	auipc	a5,0xfffff
200112e8:	17c78793          	addi	a5,a5,380 # 20010460 <__sf_fake_stdout>
200112ec:	00f41463          	bne	s0,a5,200112f4 <__swbuf_r+0xa4>
200112f0:	4480                	lw	s0,8(s1)
200112f2:	b759                	j	20011278 <__swbuf_r+0x28>
200112f4:	fffff797          	auipc	a5,0xfffff
200112f8:	12c78793          	addi	a5,a5,300 # 20010420 <__sf_fake_stderr>
200112fc:	f6f41ee3          	bne	s0,a5,20011278 <__swbuf_r+0x28>
20011300:	44c0                	lw	s0,12(s1)
20011302:	bf9d                	j	20011278 <__swbuf_r+0x28>
20011304:	85a2                	mv	a1,s0
20011306:	8526                	mv	a0,s1
20011308:	2021                	jal	20011310 <__swsetup_r>
2001130a:	dd3d                	beqz	a0,20011288 <__swbuf_r+0x38>
2001130c:	597d                	li	s2,-1
2001130e:	b7d9                	j	200112d4 <__swbuf_r+0x84>

20011310 <__swsetup_r>:
__swsetup_r():
20011310:	1141                	addi	sp,sp,-16
20011312:	c422                	sw	s0,8(sp)
20011314:	c226                	sw	s1,4(sp)
20011316:	c04a                	sw	s2,0(sp)
20011318:	c606                	sw	ra,12(sp)
2001131a:	5ffef497          	auipc	s1,0x5ffef
2001131e:	78a4a483          	lw	s1,1930(s1) # 80000aa4 <_impure_ptr>
20011322:	892a                	mv	s2,a0
20011324:	842e                	mv	s0,a1
20011326:	c489                	beqz	s1,20011330 <__swsetup_r+0x20>
20011328:	4c9c                	lw	a5,24(s1)
2001132a:	e399                	bnez	a5,20011330 <__swsetup_r+0x20>
2001132c:	8526                	mv	a0,s1
2001132e:	26b1                	jal	2001167a <__sinit>
20011330:	fffff797          	auipc	a5,0xfffff
20011334:	11078793          	addi	a5,a5,272 # 20010440 <__sf_fake_stdin>
20011338:	02f41763          	bne	s0,a5,20011366 <__swsetup_r+0x56>
2001133c:	40c0                	lw	s0,4(s1)
2001133e:	00c41783          	lh	a5,12(s0)
20011342:	01079713          	slli	a4,a5,0x10
20011346:	0087f693          	andi	a3,a5,8
2001134a:	8341                	srli	a4,a4,0x10
2001134c:	eaad                	bnez	a3,200113be <__swsetup_r+0xae>
2001134e:	01077693          	andi	a3,a4,16
20011352:	ea95                	bnez	a3,20011386 <__swsetup_r+0x76>
20011354:	4725                	li	a4,9
20011356:	00e92023          	sw	a4,0(s2)
2001135a:	0407e793          	ori	a5,a5,64
2001135e:	00f41623          	sh	a5,12(s0)
20011362:	557d                	li	a0,-1
20011364:	a871                	j	20011400 <__swsetup_r+0xf0>
20011366:	fffff797          	auipc	a5,0xfffff
2001136a:	0fa78793          	addi	a5,a5,250 # 20010460 <__sf_fake_stdout>
2001136e:	00f41463          	bne	s0,a5,20011376 <__swsetup_r+0x66>
20011372:	4480                	lw	s0,8(s1)
20011374:	b7e9                	j	2001133e <__swsetup_r+0x2e>
20011376:	fffff797          	auipc	a5,0xfffff
2001137a:	0aa78793          	addi	a5,a5,170 # 20010420 <__sf_fake_stderr>
2001137e:	fcf410e3          	bne	s0,a5,2001133e <__swsetup_r+0x2e>
20011382:	44c0                	lw	s0,12(s1)
20011384:	bf6d                	j	2001133e <__swsetup_r+0x2e>
20011386:	8b11                	andi	a4,a4,4
20011388:	c70d                	beqz	a4,200113b2 <__swsetup_r+0xa2>
2001138a:	584c                	lw	a1,52(s0)
2001138c:	c989                	beqz	a1,2001139e <__swsetup_r+0x8e>
2001138e:	04440793          	addi	a5,s0,68
20011392:	00f58463          	beq	a1,a5,2001139a <__swsetup_r+0x8a>
20011396:	854a                	mv	a0,s2
20011398:	2bc5                	jal	20011988 <_free_r>
2001139a:	02042a23          	sw	zero,52(s0)
2001139e:	00c45783          	lhu	a5,12(s0)
200113a2:	00042223          	sw	zero,4(s0)
200113a6:	fdb7f793          	andi	a5,a5,-37
200113aa:	00f41623          	sh	a5,12(s0)
200113ae:	481c                	lw	a5,16(s0)
200113b0:	c01c                	sw	a5,0(s0)
200113b2:	00c45783          	lhu	a5,12(s0)
200113b6:	0087e793          	ori	a5,a5,8
200113ba:	00f41623          	sh	a5,12(s0)
200113be:	481c                	lw	a5,16(s0)
200113c0:	ef81                	bnez	a5,200113d8 <__swsetup_r+0xc8>
200113c2:	00c45783          	lhu	a5,12(s0)
200113c6:	20000713          	li	a4,512
200113ca:	2807f793          	andi	a5,a5,640
200113ce:	00e78563          	beq	a5,a4,200113d8 <__swsetup_r+0xc8>
200113d2:	85a2                	mv	a1,s0
200113d4:	854a                	mv	a0,s2
200113d6:	21bd                	jal	20011844 <__smakebuf_r>
200113d8:	00c41783          	lh	a5,12(s0)
200113dc:	01079713          	slli	a4,a5,0x10
200113e0:	0017f693          	andi	a3,a5,1
200113e4:	8341                	srli	a4,a4,0x10
200113e6:	c29d                	beqz	a3,2001140c <__swsetup_r+0xfc>
200113e8:	4854                	lw	a3,20(s0)
200113ea:	00042423          	sw	zero,8(s0)
200113ee:	40d006b3          	neg	a3,a3
200113f2:	cc14                	sw	a3,24(s0)
200113f4:	4814                	lw	a3,16(s0)
200113f6:	4501                	li	a0,0
200113f8:	e681                	bnez	a3,20011400 <__swsetup_r+0xf0>
200113fa:	08077713          	andi	a4,a4,128
200113fe:	ff31                	bnez	a4,2001135a <__swsetup_r+0x4a>
20011400:	40b2                	lw	ra,12(sp)
20011402:	4422                	lw	s0,8(sp)
20011404:	4492                	lw	s1,4(sp)
20011406:	4902                	lw	s2,0(sp)
20011408:	0141                	addi	sp,sp,16
2001140a:	8082                	ret
2001140c:	00277693          	andi	a3,a4,2
20011410:	4601                	li	a2,0
20011412:	e291                	bnez	a3,20011416 <__swsetup_r+0x106>
20011414:	4850                	lw	a2,20(s0)
20011416:	c410                	sw	a2,8(s0)
20011418:	bff1                	j	200113f4 <__swsetup_r+0xe4>

2001141a <__sflush_r>:
__sflush_r():
2001141a:	00c5d783          	lhu	a5,12(a1)
2001141e:	1101                	addi	sp,sp,-32
20011420:	cc22                	sw	s0,24(sp)
20011422:	ca26                	sw	s1,20(sp)
20011424:	ce06                	sw	ra,28(sp)
20011426:	c84a                	sw	s2,16(sp)
20011428:	c64e                	sw	s3,12(sp)
2001142a:	0087f713          	andi	a4,a5,8
2001142e:	84aa                	mv	s1,a0
20011430:	842e                	mv	s0,a1
20011432:	e375                	bnez	a4,20011516 <__sflush_r+0xfc>
20011434:	41d8                	lw	a4,4(a1)
20011436:	00e04763          	bgtz	a4,20011444 <__sflush_r+0x2a>
2001143a:	41b8                	lw	a4,64(a1)
2001143c:	00e04463          	bgtz	a4,20011444 <__sflush_r+0x2a>
20011440:	4501                	li	a0,0
20011442:	a875                	j	200114fe <__sflush_r+0xe4>
20011444:	5458                	lw	a4,44(s0)
20011446:	df6d                	beqz	a4,20011440 <__sflush_r+0x26>
20011448:	6685                	lui	a3,0x1
2001144a:	0004a903          	lw	s2,0(s1)
2001144e:	8ff5                	and	a5,a5,a3
20011450:	0004a023          	sw	zero,0(s1)
20011454:	cfa5                	beqz	a5,200114cc <__sflush_r+0xb2>
20011456:	4868                	lw	a0,84(s0)
20011458:	00c45783          	lhu	a5,12(s0)
2001145c:	8b91                	andi	a5,a5,4
2001145e:	c799                	beqz	a5,2001146c <__sflush_r+0x52>
20011460:	405c                	lw	a5,4(s0)
20011462:	8d1d                	sub	a0,a0,a5
20011464:	585c                	lw	a5,52(s0)
20011466:	c399                	beqz	a5,2001146c <__sflush_r+0x52>
20011468:	403c                	lw	a5,64(s0)
2001146a:	8d1d                	sub	a0,a0,a5
2001146c:	545c                	lw	a5,44(s0)
2001146e:	500c                	lw	a1,32(s0)
20011470:	862a                	mv	a2,a0
20011472:	4681                	li	a3,0
20011474:	8526                	mv	a0,s1
20011476:	9782                	jalr	a5
20011478:	57fd                	li	a5,-1
2001147a:	00c45703          	lhu	a4,12(s0)
2001147e:	00f51d63          	bne	a0,a5,20011498 <__sflush_r+0x7e>
20011482:	4094                	lw	a3,0(s1)
20011484:	47f5                	li	a5,29
20011486:	08d7e363          	bltu	a5,a3,2001150c <__sflush_r+0xf2>
2001148a:	204007b7          	lui	a5,0x20400
2001148e:	0785                	addi	a5,a5,1
20011490:	00d7d7b3          	srl	a5,a5,a3
20011494:	8b85                	andi	a5,a5,1
20011496:	cbbd                	beqz	a5,2001150c <__sflush_r+0xf2>
20011498:	481c                	lw	a5,16(s0)
2001149a:	00042223          	sw	zero,4(s0)
2001149e:	c01c                	sw	a5,0(s0)
200114a0:	6785                	lui	a5,0x1
200114a2:	8f7d                	and	a4,a4,a5
200114a4:	c719                	beqz	a4,200114b2 <__sflush_r+0x98>
200114a6:	57fd                	li	a5,-1
200114a8:	00f51463          	bne	a0,a5,200114b0 <__sflush_r+0x96>
200114ac:	409c                	lw	a5,0(s1)
200114ae:	e391                	bnez	a5,200114b2 <__sflush_r+0x98>
200114b0:	c868                	sw	a0,84(s0)
200114b2:	584c                	lw	a1,52(s0)
200114b4:	0124a023          	sw	s2,0(s1)
200114b8:	d5c1                	beqz	a1,20011440 <__sflush_r+0x26>
200114ba:	04440793          	addi	a5,s0,68
200114be:	00f58463          	beq	a1,a5,200114c6 <__sflush_r+0xac>
200114c2:	8526                	mv	a0,s1
200114c4:	21d1                	jal	20011988 <_free_r>
200114c6:	02042a23          	sw	zero,52(s0)
200114ca:	bf9d                	j	20011440 <__sflush_r+0x26>
200114cc:	500c                	lw	a1,32(s0)
200114ce:	4685                	li	a3,1
200114d0:	4601                	li	a2,0
200114d2:	8526                	mv	a0,s1
200114d4:	9702                	jalr	a4
200114d6:	57fd                	li	a5,-1
200114d8:	f8f510e3          	bne	a0,a5,20011458 <__sflush_r+0x3e>
200114dc:	409c                	lw	a5,0(s1)
200114de:	dfad                	beqz	a5,20011458 <__sflush_r+0x3e>
200114e0:	4775                	li	a4,29
200114e2:	00e78563          	beq	a5,a4,200114ec <__sflush_r+0xd2>
200114e6:	4759                	li	a4,22
200114e8:	00e79563          	bne	a5,a4,200114f2 <__sflush_r+0xd8>
200114ec:	0124a023          	sw	s2,0(s1)
200114f0:	bf81                	j	20011440 <__sflush_r+0x26>
200114f2:	00c45783          	lhu	a5,12(s0)
200114f6:	0407e793          	ori	a5,a5,64
200114fa:	00f41623          	sh	a5,12(s0)
200114fe:	40f2                	lw	ra,28(sp)
20011500:	4462                	lw	s0,24(sp)
20011502:	44d2                	lw	s1,20(sp)
20011504:	4942                	lw	s2,16(sp)
20011506:	49b2                	lw	s3,12(sp)
20011508:	6105                	addi	sp,sp,32
2001150a:	8082                	ret
2001150c:	04076713          	ori	a4,a4,64
20011510:	00e41623          	sh	a4,12(s0)
20011514:	b7ed                	j	200114fe <__sflush_r+0xe4>
20011516:	0105a983          	lw	s3,16(a1)
2001151a:	f20983e3          	beqz	s3,20011440 <__sflush_r+0x26>
2001151e:	0005a903          	lw	s2,0(a1)
20011522:	8b8d                	andi	a5,a5,3
20011524:	0135a023          	sw	s3,0(a1)
20011528:	41390933          	sub	s2,s2,s3
2001152c:	4701                	li	a4,0
2001152e:	e391                	bnez	a5,20011532 <__sflush_r+0x118>
20011530:	49d8                	lw	a4,20(a1)
20011532:	c418                	sw	a4,8(s0)
20011534:	f12056e3          	blez	s2,20011440 <__sflush_r+0x26>
20011538:	541c                	lw	a5,40(s0)
2001153a:	500c                	lw	a1,32(s0)
2001153c:	86ca                	mv	a3,s2
2001153e:	864e                	mv	a2,s3
20011540:	8526                	mv	a0,s1
20011542:	9782                	jalr	a5
20011544:	00a04a63          	bgtz	a0,20011558 <__sflush_r+0x13e>
20011548:	00c45783          	lhu	a5,12(s0)
2001154c:	557d                	li	a0,-1
2001154e:	0407e793          	ori	a5,a5,64
20011552:	00f41623          	sh	a5,12(s0)
20011556:	b765                	j	200114fe <__sflush_r+0xe4>
20011558:	99aa                	add	s3,s3,a0
2001155a:	40a90933          	sub	s2,s2,a0
2001155e:	bfd9                	j	20011534 <__sflush_r+0x11a>

20011560 <_fflush_r>:
_fflush_r():
20011560:	499c                	lw	a5,16(a1)
20011562:	cfb9                	beqz	a5,200115c0 <_fflush_r+0x60>
20011564:	1101                	addi	sp,sp,-32
20011566:	cc22                	sw	s0,24(sp)
20011568:	ce06                	sw	ra,28(sp)
2001156a:	842a                	mv	s0,a0
2001156c:	c511                	beqz	a0,20011578 <_fflush_r+0x18>
2001156e:	4d1c                	lw	a5,24(a0)
20011570:	e781                	bnez	a5,20011578 <_fflush_r+0x18>
20011572:	c62e                	sw	a1,12(sp)
20011574:	2219                	jal	2001167a <__sinit>
20011576:	45b2                	lw	a1,12(sp)
20011578:	fffff797          	auipc	a5,0xfffff
2001157c:	ec878793          	addi	a5,a5,-312 # 20010440 <__sf_fake_stdin>
20011580:	00f59b63          	bne	a1,a5,20011596 <_fflush_r+0x36>
20011584:	404c                	lw	a1,4(s0)
20011586:	00c59783          	lh	a5,12(a1)
2001158a:	c795                	beqz	a5,200115b6 <_fflush_r+0x56>
2001158c:	8522                	mv	a0,s0
2001158e:	4462                	lw	s0,24(sp)
20011590:	40f2                	lw	ra,28(sp)
20011592:	6105                	addi	sp,sp,32
20011594:	b559                	j	2001141a <__sflush_r>
20011596:	fffff797          	auipc	a5,0xfffff
2001159a:	eca78793          	addi	a5,a5,-310 # 20010460 <__sf_fake_stdout>
2001159e:	00f59463          	bne	a1,a5,200115a6 <_fflush_r+0x46>
200115a2:	440c                	lw	a1,8(s0)
200115a4:	b7cd                	j	20011586 <_fflush_r+0x26>
200115a6:	fffff797          	auipc	a5,0xfffff
200115aa:	e7a78793          	addi	a5,a5,-390 # 20010420 <__sf_fake_stderr>
200115ae:	fcf59ce3          	bne	a1,a5,20011586 <_fflush_r+0x26>
200115b2:	444c                	lw	a1,12(s0)
200115b4:	bfc9                	j	20011586 <_fflush_r+0x26>
200115b6:	40f2                	lw	ra,28(sp)
200115b8:	4462                	lw	s0,24(sp)
200115ba:	4501                	li	a0,0
200115bc:	6105                	addi	sp,sp,32
200115be:	8082                	ret
200115c0:	4501                	li	a0,0
200115c2:	8082                	ret

200115c4 <std>:
std():
200115c4:	1141                	addi	sp,sp,-16
200115c6:	c422                	sw	s0,8(sp)
200115c8:	c606                	sw	ra,12(sp)
200115ca:	842a                	mv	s0,a0
200115cc:	00b51623          	sh	a1,12(a0)
200115d0:	00c51723          	sh	a2,14(a0)
200115d4:	00052023          	sw	zero,0(a0)
200115d8:	00052223          	sw	zero,4(a0)
200115dc:	00052423          	sw	zero,8(a0)
200115e0:	06052223          	sw	zero,100(a0)
200115e4:	00052823          	sw	zero,16(a0)
200115e8:	00052a23          	sw	zero,20(a0)
200115ec:	00052c23          	sw	zero,24(a0)
200115f0:	4621                	li	a2,8
200115f2:	4581                	li	a1,0
200115f4:	05c50513          	addi	a0,a0,92
200115f8:	24e5                	jal	200118e0 <memset>
200115fa:	00000797          	auipc	a5,0x0
200115fe:	53878793          	addi	a5,a5,1336 # 20011b32 <__sread>
20011602:	d05c                	sw	a5,36(s0)
20011604:	00000797          	auipc	a5,0x0
20011608:	55e78793          	addi	a5,a5,1374 # 20011b62 <__swrite>
2001160c:	d41c                	sw	a5,40(s0)
2001160e:	00000797          	auipc	a5,0x0
20011612:	5a278793          	addi	a5,a5,1442 # 20011bb0 <__sseek>
20011616:	d45c                	sw	a5,44(s0)
20011618:	00000797          	auipc	a5,0x0
2001161c:	5ce78793          	addi	a5,a5,1486 # 20011be6 <__sclose>
20011620:	40b2                	lw	ra,12(sp)
20011622:	d000                	sw	s0,32(s0)
20011624:	d81c                	sw	a5,48(s0)
20011626:	4422                	lw	s0,8(sp)
20011628:	0141                	addi	sp,sp,16
2001162a:	8082                	ret

2001162c <_cleanup_r>:
_cleanup_r():
2001162c:	00000597          	auipc	a1,0x0
20011630:	f3458593          	addi	a1,a1,-204 # 20011560 <_fflush_r>
20011634:	a2b1                	j	20011780 <_fwalk_reent>

20011636 <__sfmoreglue>:
__sfmoreglue():
20011636:	1141                	addi	sp,sp,-16
20011638:	c226                	sw	s1,4(sp)
2001163a:	06800613          	li	a2,104
2001163e:	fff58493          	addi	s1,a1,-1
20011642:	02c484b3          	mul	s1,s1,a2
20011646:	c04a                	sw	s2,0(sp)
20011648:	892e                	mv	s2,a1
2001164a:	c422                	sw	s0,8(sp)
2001164c:	c606                	sw	ra,12(sp)
2001164e:	07448593          	addi	a1,s1,116
20011652:	2ee1                	jal	20011a2a <_malloc_r>
20011654:	842a                	mv	s0,a0
20011656:	c919                	beqz	a0,2001166c <__sfmoreglue+0x36>
20011658:	00052023          	sw	zero,0(a0)
2001165c:	01252223          	sw	s2,4(a0)
20011660:	0531                	addi	a0,a0,12
20011662:	c408                	sw	a0,8(s0)
20011664:	06848613          	addi	a2,s1,104
20011668:	4581                	li	a1,0
2001166a:	2c9d                	jal	200118e0 <memset>
2001166c:	40b2                	lw	ra,12(sp)
2001166e:	8522                	mv	a0,s0
20011670:	4422                	lw	s0,8(sp)
20011672:	4492                	lw	s1,4(sp)
20011674:	4902                	lw	s2,0(sp)
20011676:	0141                	addi	sp,sp,16
20011678:	8082                	ret

2001167a <__sinit>:
__sinit():
2001167a:	4d1c                	lw	a5,24(a0)
2001167c:	e3bd                	bnez	a5,200116e2 <__sinit+0x68>
2001167e:	1141                	addi	sp,sp,-16
20011680:	c422                	sw	s0,8(sp)
20011682:	c606                	sw	ra,12(sp)
20011684:	00000797          	auipc	a5,0x0
20011688:	fa878793          	addi	a5,a5,-88 # 2001162c <_cleanup_r>
2001168c:	d51c                	sw	a5,40(a0)
2001168e:	04052423          	sw	zero,72(a0)
20011692:	04052623          	sw	zero,76(a0)
20011696:	04052823          	sw	zero,80(a0)
2001169a:	00000797          	auipc	a5,0x0
2001169e:	9367a783          	lw	a5,-1738(a5) # 20010fd0 <_global_impure_ptr>
200116a2:	842a                	mv	s0,a0
200116a4:	00f51463          	bne	a0,a5,200116ac <__sinit+0x32>
200116a8:	4785                	li	a5,1
200116aa:	cd1c                	sw	a5,24(a0)
200116ac:	8522                	mv	a0,s0
200116ae:	281d                	jal	200116e4 <__sfp>
200116b0:	c048                	sw	a0,4(s0)
200116b2:	8522                	mv	a0,s0
200116b4:	2805                	jal	200116e4 <__sfp>
200116b6:	c408                	sw	a0,8(s0)
200116b8:	8522                	mv	a0,s0
200116ba:	202d                	jal	200116e4 <__sfp>
200116bc:	c448                	sw	a0,12(s0)
200116be:	4048                	lw	a0,4(s0)
200116c0:	4601                	li	a2,0
200116c2:	4591                	li	a1,4
200116c4:	3701                	jal	200115c4 <std>
200116c6:	4408                	lw	a0,8(s0)
200116c8:	4605                	li	a2,1
200116ca:	45a5                	li	a1,9
200116cc:	3de5                	jal	200115c4 <std>
200116ce:	4448                	lw	a0,12(s0)
200116d0:	4609                	li	a2,2
200116d2:	45c9                	li	a1,18
200116d4:	3dc5                	jal	200115c4 <std>
200116d6:	4785                	li	a5,1
200116d8:	40b2                	lw	ra,12(sp)
200116da:	cc1c                	sw	a5,24(s0)
200116dc:	4422                	lw	s0,8(sp)
200116de:	0141                	addi	sp,sp,16
200116e0:	8082                	ret
200116e2:	8082                	ret

200116e4 <__sfp>:
__sfp():
200116e4:	1141                	addi	sp,sp,-16
200116e6:	c226                	sw	s1,4(sp)
200116e8:	00000497          	auipc	s1,0x0
200116ec:	8e84a483          	lw	s1,-1816(s1) # 20010fd0 <_global_impure_ptr>
200116f0:	4c9c                	lw	a5,24(s1)
200116f2:	c04a                	sw	s2,0(sp)
200116f4:	c606                	sw	ra,12(sp)
200116f6:	c422                	sw	s0,8(sp)
200116f8:	892a                	mv	s2,a0
200116fa:	e399                	bnez	a5,20011700 <__sfp+0x1c>
200116fc:	8526                	mv	a0,s1
200116fe:	3fb5                	jal	2001167a <__sinit>
20011700:	04848493          	addi	s1,s1,72
20011704:	4480                	lw	s0,8(s1)
20011706:	40dc                	lw	a5,4(s1)
20011708:	17fd                	addi	a5,a5,-1
2001170a:	0007d663          	bgez	a5,20011716 <__sfp+0x32>
2001170e:	409c                	lw	a5,0(s1)
20011710:	cfb1                	beqz	a5,2001176c <__sfp+0x88>
20011712:	4084                	lw	s1,0(s1)
20011714:	bfc5                	j	20011704 <__sfp+0x20>
20011716:	00c41703          	lh	a4,12(s0)
2001171a:	e731                	bnez	a4,20011766 <__sfp+0x82>
2001171c:	77c1                	lui	a5,0xffff0
2001171e:	0785                	addi	a5,a5,1
20011720:	06042223          	sw	zero,100(s0)
20011724:	00042023          	sw	zero,0(s0)
20011728:	00042223          	sw	zero,4(s0)
2001172c:	00042423          	sw	zero,8(s0)
20011730:	c45c                	sw	a5,12(s0)
20011732:	00042823          	sw	zero,16(s0)
20011736:	00042a23          	sw	zero,20(s0)
2001173a:	00042c23          	sw	zero,24(s0)
2001173e:	4621                	li	a2,8
20011740:	4581                	li	a1,0
20011742:	05c40513          	addi	a0,s0,92
20011746:	2a69                	jal	200118e0 <memset>
20011748:	02042a23          	sw	zero,52(s0)
2001174c:	02042c23          	sw	zero,56(s0)
20011750:	04042423          	sw	zero,72(s0)
20011754:	04042623          	sw	zero,76(s0)
20011758:	40b2                	lw	ra,12(sp)
2001175a:	8522                	mv	a0,s0
2001175c:	4422                	lw	s0,8(sp)
2001175e:	4492                	lw	s1,4(sp)
20011760:	4902                	lw	s2,0(sp)
20011762:	0141                	addi	sp,sp,16
20011764:	8082                	ret
20011766:	06840413          	addi	s0,s0,104
2001176a:	bf79                	j	20011708 <__sfp+0x24>
2001176c:	4591                	li	a1,4
2001176e:	854a                	mv	a0,s2
20011770:	35d9                	jal	20011636 <__sfmoreglue>
20011772:	c088                	sw	a0,0(s1)
20011774:	842a                	mv	s0,a0
20011776:	fd51                	bnez	a0,20011712 <__sfp+0x2e>
20011778:	47b1                	li	a5,12
2001177a:	00f92023          	sw	a5,0(s2)
2001177e:	bfe9                	j	20011758 <__sfp+0x74>

20011780 <_fwalk_reent>:
_fwalk_reent():
20011780:	7179                	addi	sp,sp,-48
20011782:	d422                	sw	s0,40(sp)
20011784:	d04a                	sw	s2,32(sp)
20011786:	ce4e                	sw	s3,28(sp)
20011788:	cc52                	sw	s4,24(sp)
2001178a:	c85a                	sw	s6,16(sp)
2001178c:	c65e                	sw	s7,12(sp)
2001178e:	d606                	sw	ra,44(sp)
20011790:	d226                	sw	s1,36(sp)
20011792:	ca56                	sw	s5,20(sp)
20011794:	892a                	mv	s2,a0
20011796:	8a2e                	mv	s4,a1
20011798:	04850413          	addi	s0,a0,72
2001179c:	4981                	li	s3,0
2001179e:	4b05                	li	s6,1
200117a0:	5bfd                	li	s7,-1
200117a2:	4404                	lw	s1,8(s0)
200117a4:	00442a83          	lw	s5,4(s0)
200117a8:	1afd                	addi	s5,s5,-1
200117aa:	020ad063          	bgez	s5,200117ca <_fwalk_reent+0x4a>
200117ae:	4000                	lw	s0,0(s0)
200117b0:	f86d                	bnez	s0,200117a2 <_fwalk_reent+0x22>
200117b2:	50b2                	lw	ra,44(sp)
200117b4:	5422                	lw	s0,40(sp)
200117b6:	5492                	lw	s1,36(sp)
200117b8:	5902                	lw	s2,32(sp)
200117ba:	4a62                	lw	s4,24(sp)
200117bc:	4ad2                	lw	s5,20(sp)
200117be:	4b42                	lw	s6,16(sp)
200117c0:	4bb2                	lw	s7,12(sp)
200117c2:	854e                	mv	a0,s3
200117c4:	49f2                	lw	s3,28(sp)
200117c6:	6145                	addi	sp,sp,48
200117c8:	8082                	ret
200117ca:	00c4d783          	lhu	a5,12(s1)
200117ce:	00fb7b63          	bgeu	s6,a5,200117e4 <_fwalk_reent+0x64>
200117d2:	00e49783          	lh	a5,14(s1)
200117d6:	01778763          	beq	a5,s7,200117e4 <_fwalk_reent+0x64>
200117da:	85a6                	mv	a1,s1
200117dc:	854a                	mv	a0,s2
200117de:	9a02                	jalr	s4
200117e0:	00a9e9b3          	or	s3,s3,a0
200117e4:	06848493          	addi	s1,s1,104
200117e8:	b7c1                	j	200117a8 <_fwalk_reent+0x28>

200117ea <__swhatbuf_r>:
__swhatbuf_r():
200117ea:	7159                	addi	sp,sp,-112
200117ec:	d0ca                	sw	s2,96(sp)
200117ee:	892e                	mv	s2,a1
200117f0:	00e59583          	lh	a1,14(a1)
200117f4:	d4a2                	sw	s0,104(sp)
200117f6:	d2a6                	sw	s1,100(sp)
200117f8:	d686                	sw	ra,108(sp)
200117fa:	8432                	mv	s0,a2
200117fc:	84b6                	mv	s1,a3
200117fe:	0005dc63          	bgez	a1,20011816 <__swhatbuf_r+0x2c>
20011802:	00c91783          	lh	a5,12(s2)
20011806:	0004a023          	sw	zero,0(s1)
2001180a:	0807f793          	andi	a5,a5,128
2001180e:	e38d                	bnez	a5,20011830 <__swhatbuf_r+0x46>
20011810:	40000793          	li	a5,1024
20011814:	a005                	j	20011834 <__swhatbuf_r+0x4a>
20011816:	0030                	addi	a2,sp,8
20011818:	2925                	jal	20011c50 <_fstat_r>
2001181a:	fe0544e3          	bltz	a0,20011802 <__swhatbuf_r+0x18>
2001181e:	4732                	lw	a4,12(sp)
20011820:	67bd                	lui	a5,0xf
20011822:	8ff9                	and	a5,a5,a4
20011824:	7779                	lui	a4,0xffffe
20011826:	97ba                	add	a5,a5,a4
20011828:	0017b793          	seqz	a5,a5
2001182c:	c09c                	sw	a5,0(s1)
2001182e:	b7cd                	j	20011810 <__swhatbuf_r+0x26>
20011830:	04000793          	li	a5,64
20011834:	50b6                	lw	ra,108(sp)
20011836:	c01c                	sw	a5,0(s0)
20011838:	5426                	lw	s0,104(sp)
2001183a:	5496                	lw	s1,100(sp)
2001183c:	5906                	lw	s2,96(sp)
2001183e:	4501                	li	a0,0
20011840:	6165                	addi	sp,sp,112
20011842:	8082                	ret

20011844 <__smakebuf_r>:
__smakebuf_r():
20011844:	00c5d783          	lhu	a5,12(a1)
20011848:	1101                	addi	sp,sp,-32
2001184a:	cc22                	sw	s0,24(sp)
2001184c:	ce06                	sw	ra,28(sp)
2001184e:	ca26                	sw	s1,20(sp)
20011850:	c84a                	sw	s2,16(sp)
20011852:	8b89                	andi	a5,a5,2
20011854:	842e                	mv	s0,a1
20011856:	cf89                	beqz	a5,20011870 <__smakebuf_r+0x2c>
20011858:	04740793          	addi	a5,s0,71
2001185c:	c01c                	sw	a5,0(s0)
2001185e:	c81c                	sw	a5,16(s0)
20011860:	4785                	li	a5,1
20011862:	c85c                	sw	a5,20(s0)
20011864:	40f2                	lw	ra,28(sp)
20011866:	4462                	lw	s0,24(sp)
20011868:	44d2                	lw	s1,20(sp)
2001186a:	4942                	lw	s2,16(sp)
2001186c:	6105                	addi	sp,sp,32
2001186e:	8082                	ret
20011870:	0074                	addi	a3,sp,12
20011872:	0030                	addi	a2,sp,8
20011874:	892a                	mv	s2,a0
20011876:	3f95                	jal	200117ea <__swhatbuf_r>
20011878:	45a2                	lw	a1,8(sp)
2001187a:	84aa                	mv	s1,a0
2001187c:	854a                	mv	a0,s2
2001187e:	2275                	jal	20011a2a <_malloc_r>
20011880:	ed01                	bnez	a0,20011898 <__smakebuf_r+0x54>
20011882:	00c41783          	lh	a5,12(s0)
20011886:	2007f713          	andi	a4,a5,512
2001188a:	ff69                	bnez	a4,20011864 <__smakebuf_r+0x20>
2001188c:	9bf1                	andi	a5,a5,-4
2001188e:	0027e793          	ori	a5,a5,2
20011892:	00f41623          	sh	a5,12(s0)
20011896:	b7c9                	j	20011858 <__smakebuf_r+0x14>
20011898:	00000797          	auipc	a5,0x0
2001189c:	d9478793          	addi	a5,a5,-620 # 2001162c <_cleanup_r>
200118a0:	02f92423          	sw	a5,40(s2)
200118a4:	00c45783          	lhu	a5,12(s0)
200118a8:	c008                	sw	a0,0(s0)
200118aa:	c808                	sw	a0,16(s0)
200118ac:	0807e793          	ori	a5,a5,128
200118b0:	00f41623          	sh	a5,12(s0)
200118b4:	47a2                	lw	a5,8(sp)
200118b6:	c85c                	sw	a5,20(s0)
200118b8:	47b2                	lw	a5,12(sp)
200118ba:	cf89                	beqz	a5,200118d4 <__smakebuf_r+0x90>
200118bc:	00e41583          	lh	a1,14(s0)
200118c0:	854a                	mv	a0,s2
200118c2:	26c1                	jal	20011c82 <_isatty_r>
200118c4:	c901                	beqz	a0,200118d4 <__smakebuf_r+0x90>
200118c6:	00c45783          	lhu	a5,12(s0)
200118ca:	9bf1                	andi	a5,a5,-4
200118cc:	0017e793          	ori	a5,a5,1
200118d0:	00f41623          	sh	a5,12(s0)
200118d4:	00c45503          	lhu	a0,12(s0)
200118d8:	8cc9                	or	s1,s1,a0
200118da:	00941623          	sh	s1,12(s0)
200118de:	b759                	j	20011864 <__smakebuf_r+0x20>

200118e0 <memset>:
memset():
200118e0:	433d                	li	t1,15
200118e2:	872a                	mv	a4,a0
200118e4:	02c37363          	bgeu	t1,a2,2001190a <memset+0x2a>
200118e8:	00f77793          	andi	a5,a4,15
200118ec:	efbd                	bnez	a5,2001196a <memset+0x8a>
200118ee:	e5ad                	bnez	a1,20011958 <memset+0x78>
200118f0:	ff067693          	andi	a3,a2,-16
200118f4:	8a3d                	andi	a2,a2,15
200118f6:	96ba                	add	a3,a3,a4
200118f8:	c30c                	sw	a1,0(a4)
200118fa:	c34c                	sw	a1,4(a4)
200118fc:	c70c                	sw	a1,8(a4)
200118fe:	c74c                	sw	a1,12(a4)
20011900:	0741                	addi	a4,a4,16
20011902:	fed76be3          	bltu	a4,a3,200118f8 <memset+0x18>
20011906:	e211                	bnez	a2,2001190a <memset+0x2a>
20011908:	8082                	ret
2001190a:	40c306b3          	sub	a3,t1,a2
2001190e:	068a                	slli	a3,a3,0x2
20011910:	00000297          	auipc	t0,0x0
20011914:	9696                	add	a3,a3,t0
20011916:	00a68067          	jr	10(a3) # 100a <__heap_size+0x80a>
2001191a:	00b70723          	sb	a1,14(a4) # ffffe00e <metal_segment_heap_target_end+0x7fffc88e>
2001191e:	00b706a3          	sb	a1,13(a4)
20011922:	00b70623          	sb	a1,12(a4)
20011926:	00b705a3          	sb	a1,11(a4)
2001192a:	00b70523          	sb	a1,10(a4)
2001192e:	00b704a3          	sb	a1,9(a4)
20011932:	00b70423          	sb	a1,8(a4)
20011936:	00b703a3          	sb	a1,7(a4)
2001193a:	00b70323          	sb	a1,6(a4)
2001193e:	00b702a3          	sb	a1,5(a4)
20011942:	00b70223          	sb	a1,4(a4)
20011946:	00b701a3          	sb	a1,3(a4)
2001194a:	00b70123          	sb	a1,2(a4)
2001194e:	00b700a3          	sb	a1,1(a4)
20011952:	00b70023          	sb	a1,0(a4)
20011956:	8082                	ret
20011958:	0ff5f593          	zext.b	a1,a1
2001195c:	00859693          	slli	a3,a1,0x8
20011960:	8dd5                	or	a1,a1,a3
20011962:	01059693          	slli	a3,a1,0x10
20011966:	8dd5                	or	a1,a1,a3
20011968:	b761                	j	200118f0 <memset+0x10>
2001196a:	00279693          	slli	a3,a5,0x2
2001196e:	00000297          	auipc	t0,0x0
20011972:	9696                	add	a3,a3,t0
20011974:	8286                	mv	t0,ra
20011976:	fa8680e7          	jalr	-88(a3)
2001197a:	8096                	mv	ra,t0
2001197c:	17c1                	addi	a5,a5,-16
2001197e:	8f1d                	sub	a4,a4,a5
20011980:	963e                	add	a2,a2,a5
20011982:	f8c374e3          	bgeu	t1,a2,2001190a <memset+0x2a>
20011986:	b7a5                	j	200118ee <memset+0xe>

20011988 <_free_r>:
_free_r():
20011988:	c1c5                	beqz	a1,20011a28 <_free_r+0xa0>
2001198a:	ffc5a783          	lw	a5,-4(a1)
2001198e:	1101                	addi	sp,sp,-32
20011990:	cc22                	sw	s0,24(sp)
20011992:	ce06                	sw	ra,28(sp)
20011994:	ffc58413          	addi	s0,a1,-4
20011998:	0007d363          	bgez	a5,2001199e <_free_r+0x16>
2001199c:	943e                	add	s0,s0,a5
2001199e:	c62a                	sw	a0,12(sp)
200119a0:	2699                	jal	20011ce6 <__malloc_lock>
200119a2:	5ffef717          	auipc	a4,0x5ffef
200119a6:	12670713          	addi	a4,a4,294 # 80000ac8 <__malloc_free_list>
200119aa:	431c                	lw	a5,0(a4)
200119ac:	4532                	lw	a0,12(sp)
200119ae:	eb81                	bnez	a5,200119be <_free_r+0x36>
200119b0:	00042223          	sw	zero,4(s0)
200119b4:	c300                	sw	s0,0(a4)
200119b6:	4462                	lw	s0,24(sp)
200119b8:	40f2                	lw	ra,28(sp)
200119ba:	6105                	addi	sp,sp,32
200119bc:	a635                	j	20011ce8 <__malloc_unlock>
200119be:	00f47d63          	bgeu	s0,a5,200119d8 <_free_r+0x50>
200119c2:	4010                	lw	a2,0(s0)
200119c4:	00c406b3          	add	a3,s0,a2
200119c8:	00d79663          	bne	a5,a3,200119d4 <_free_r+0x4c>
200119cc:	4394                	lw	a3,0(a5)
200119ce:	43dc                	lw	a5,4(a5)
200119d0:	96b2                	add	a3,a3,a2
200119d2:	c014                	sw	a3,0(s0)
200119d4:	c05c                	sw	a5,4(s0)
200119d6:	bff9                	j	200119b4 <_free_r+0x2c>
200119d8:	873e                	mv	a4,a5
200119da:	43dc                	lw	a5,4(a5)
200119dc:	c399                	beqz	a5,200119e2 <_free_r+0x5a>
200119de:	fef47de3          	bgeu	s0,a5,200119d8 <_free_r+0x50>
200119e2:	4314                	lw	a3,0(a4)
200119e4:	00d70633          	add	a2,a4,a3
200119e8:	00861f63          	bne	a2,s0,20011a06 <_free_r+0x7e>
200119ec:	4010                	lw	a2,0(s0)
200119ee:	96b2                	add	a3,a3,a2
200119f0:	c314                	sw	a3,0(a4)
200119f2:	00d70633          	add	a2,a4,a3
200119f6:	fcc790e3          	bne	a5,a2,200119b6 <_free_r+0x2e>
200119fa:	4390                	lw	a2,0(a5)
200119fc:	43dc                	lw	a5,4(a5)
200119fe:	96b2                	add	a3,a3,a2
20011a00:	c314                	sw	a3,0(a4)
20011a02:	c35c                	sw	a5,4(a4)
20011a04:	bf4d                	j	200119b6 <_free_r+0x2e>
20011a06:	00c47563          	bgeu	s0,a2,20011a10 <_free_r+0x88>
20011a0a:	47b1                	li	a5,12
20011a0c:	c11c                	sw	a5,0(a0)
20011a0e:	b765                	j	200119b6 <_free_r+0x2e>
20011a10:	4010                	lw	a2,0(s0)
20011a12:	00c406b3          	add	a3,s0,a2
20011a16:	00d79663          	bne	a5,a3,20011a22 <_free_r+0x9a>
20011a1a:	4394                	lw	a3,0(a5)
20011a1c:	43dc                	lw	a5,4(a5)
20011a1e:	96b2                	add	a3,a3,a2
20011a20:	c014                	sw	a3,0(s0)
20011a22:	c05c                	sw	a5,4(s0)
20011a24:	c340                	sw	s0,4(a4)
20011a26:	bf41                	j	200119b6 <_free_r+0x2e>
20011a28:	8082                	ret

20011a2a <_malloc_r>:
_malloc_r():
20011a2a:	1101                	addi	sp,sp,-32
20011a2c:	ca26                	sw	s1,20(sp)
20011a2e:	00358493          	addi	s1,a1,3
20011a32:	98f1                	andi	s1,s1,-4
20011a34:	c84a                	sw	s2,16(sp)
20011a36:	ce06                	sw	ra,28(sp)
20011a38:	cc22                	sw	s0,24(sp)
20011a3a:	c64e                	sw	s3,12(sp)
20011a3c:	04a1                	addi	s1,s1,8
20011a3e:	47b1                	li	a5,12
20011a40:	892a                	mv	s2,a0
20011a42:	04f4f463          	bgeu	s1,a5,20011a8a <_malloc_r+0x60>
20011a46:	44b1                	li	s1,12
20011a48:	04b4e363          	bltu	s1,a1,20011a8e <_malloc_r+0x64>
20011a4c:	854a                	mv	a0,s2
20011a4e:	2c61                	jal	20011ce6 <__malloc_lock>
20011a50:	5ffef697          	auipc	a3,0x5ffef
20011a54:	07868693          	addi	a3,a3,120 # 80000ac8 <__malloc_free_list>
20011a58:	4298                	lw	a4,0(a3)
20011a5a:	843a                	mv	s0,a4
20011a5c:	e421                	bnez	s0,20011aa4 <_malloc_r+0x7a>
20011a5e:	5ffef417          	auipc	s0,0x5ffef
20011a62:	06e40413          	addi	s0,s0,110 # 80000acc <__malloc_sbrk_start>
20011a66:	401c                	lw	a5,0(s0)
20011a68:	e789                	bnez	a5,20011a72 <_malloc_r+0x48>
20011a6a:	4581                	li	a1,0
20011a6c:	854a                	mv	a0,s2
20011a6e:	2851                	jal	20011b02 <_sbrk_r>
20011a70:	c008                	sw	a0,0(s0)
20011a72:	85a6                	mv	a1,s1
20011a74:	854a                	mv	a0,s2
20011a76:	2071                	jal	20011b02 <_sbrk_r>
20011a78:	59fd                	li	s3,-1
20011a7a:	07351863          	bne	a0,s3,20011aea <_malloc_r+0xc0>
20011a7e:	47b1                	li	a5,12
20011a80:	00f92023          	sw	a5,0(s2)
20011a84:	854a                	mv	a0,s2
20011a86:	248d                	jal	20011ce8 <__malloc_unlock>
20011a88:	a031                	j	20011a94 <_malloc_r+0x6a>
20011a8a:	fa04dfe3          	bgez	s1,20011a48 <_malloc_r+0x1e>
20011a8e:	47b1                	li	a5,12
20011a90:	00f92023          	sw	a5,0(s2)
20011a94:	4501                	li	a0,0
20011a96:	40f2                	lw	ra,28(sp)
20011a98:	4462                	lw	s0,24(sp)
20011a9a:	44d2                	lw	s1,20(sp)
20011a9c:	4942                	lw	s2,16(sp)
20011a9e:	49b2                	lw	s3,12(sp)
20011aa0:	6105                	addi	sp,sp,32
20011aa2:	8082                	ret
20011aa4:	401c                	lw	a5,0(s0)
20011aa6:	8f85                	sub	a5,a5,s1
20011aa8:	0207ce63          	bltz	a5,20011ae4 <_malloc_r+0xba>
20011aac:	462d                	li	a2,11
20011aae:	00f67663          	bgeu	a2,a5,20011aba <_malloc_r+0x90>
20011ab2:	c01c                	sw	a5,0(s0)
20011ab4:	943e                	add	s0,s0,a5
20011ab6:	c004                	sw	s1,0(s0)
20011ab8:	a029                	j	20011ac2 <_malloc_r+0x98>
20011aba:	405c                	lw	a5,4(s0)
20011abc:	02871263          	bne	a4,s0,20011ae0 <_malloc_r+0xb6>
20011ac0:	c29c                	sw	a5,0(a3)
20011ac2:	854a                	mv	a0,s2
20011ac4:	2415                	jal	20011ce8 <__malloc_unlock>
20011ac6:	00b40513          	addi	a0,s0,11
20011aca:	00440793          	addi	a5,s0,4
20011ace:	9961                	andi	a0,a0,-8
20011ad0:	40f50733          	sub	a4,a0,a5
20011ad4:	fcf501e3          	beq	a0,a5,20011a96 <_malloc_r+0x6c>
20011ad8:	943a                	add	s0,s0,a4
20011ada:	8f89                	sub	a5,a5,a0
20011adc:	c01c                	sw	a5,0(s0)
20011ade:	bf65                	j	20011a96 <_malloc_r+0x6c>
20011ae0:	c35c                	sw	a5,4(a4)
20011ae2:	b7c5                	j	20011ac2 <_malloc_r+0x98>
20011ae4:	8722                	mv	a4,s0
20011ae6:	4040                	lw	s0,4(s0)
20011ae8:	bf95                	j	20011a5c <_malloc_r+0x32>
20011aea:	00350413          	addi	s0,a0,3
20011aee:	9871                	andi	s0,s0,-4
20011af0:	fc8503e3          	beq	a0,s0,20011ab6 <_malloc_r+0x8c>
20011af4:	40a405b3          	sub	a1,s0,a0
20011af8:	854a                	mv	a0,s2
20011afa:	2021                	jal	20011b02 <_sbrk_r>
20011afc:	fb351de3          	bne	a0,s3,20011ab6 <_malloc_r+0x8c>
20011b00:	bfbd                	j	20011a7e <_malloc_r+0x54>

20011b02 <_sbrk_r>:
_sbrk_r():
20011b02:	1141                	addi	sp,sp,-16
20011b04:	c422                	sw	s0,8(sp)
20011b06:	842a                	mv	s0,a0
20011b08:	852e                	mv	a0,a1
20011b0a:	5ffef797          	auipc	a5,0x5ffef
20011b0e:	fc07a323          	sw	zero,-58(a5) # 80000ad0 <errno>
20011b12:	c606                	sw	ra,12(sp)
20011b14:	46d040ef          	jal	ra,20016780 <_sbrk>
20011b18:	57fd                	li	a5,-1
20011b1a:	00f51863          	bne	a0,a5,20011b2a <_sbrk_r+0x28>
20011b1e:	5ffef797          	auipc	a5,0x5ffef
20011b22:	fb27a783          	lw	a5,-78(a5) # 80000ad0 <errno>
20011b26:	c391                	beqz	a5,20011b2a <_sbrk_r+0x28>
20011b28:	c01c                	sw	a5,0(s0)
20011b2a:	40b2                	lw	ra,12(sp)
20011b2c:	4422                	lw	s0,8(sp)
20011b2e:	0141                	addi	sp,sp,16
20011b30:	8082                	ret

20011b32 <__sread>:
__sread():
20011b32:	1141                	addi	sp,sp,-16
20011b34:	c422                	sw	s0,8(sp)
20011b36:	842e                	mv	s0,a1
20011b38:	00e59583          	lh	a1,14(a1)
20011b3c:	c606                	sw	ra,12(sp)
20011b3e:	2275                	jal	20011cea <_read_r>
20011b40:	00054963          	bltz	a0,20011b52 <__sread+0x20>
20011b44:	487c                	lw	a5,84(s0)
20011b46:	97aa                	add	a5,a5,a0
20011b48:	c87c                	sw	a5,84(s0)
20011b4a:	40b2                	lw	ra,12(sp)
20011b4c:	4422                	lw	s0,8(sp)
20011b4e:	0141                	addi	sp,sp,16
20011b50:	8082                	ret
20011b52:	00c45783          	lhu	a5,12(s0)
20011b56:	777d                	lui	a4,0xfffff
20011b58:	177d                	addi	a4,a4,-1
20011b5a:	8ff9                	and	a5,a5,a4
20011b5c:	00f41623          	sh	a5,12(s0)
20011b60:	b7ed                	j	20011b4a <__sread+0x18>

20011b62 <__swrite>:
__swrite():
20011b62:	00c5d783          	lhu	a5,12(a1)
20011b66:	1101                	addi	sp,sp,-32
20011b68:	cc22                	sw	s0,24(sp)
20011b6a:	ca26                	sw	s1,20(sp)
20011b6c:	c84a                	sw	s2,16(sp)
20011b6e:	c64e                	sw	s3,12(sp)
20011b70:	ce06                	sw	ra,28(sp)
20011b72:	1007f793          	andi	a5,a5,256
20011b76:	84aa                	mv	s1,a0
20011b78:	842e                	mv	s0,a1
20011b7a:	8932                	mv	s2,a2
20011b7c:	89b6                	mv	s3,a3
20011b7e:	c791                	beqz	a5,20011b8a <__swrite+0x28>
20011b80:	00e59583          	lh	a1,14(a1)
20011b84:	4689                	li	a3,2
20011b86:	4601                	li	a2,0
20011b88:	222d                	jal	20011cb2 <_lseek_r>
20011b8a:	00c45783          	lhu	a5,12(s0)
20011b8e:	777d                	lui	a4,0xfffff
20011b90:	177d                	addi	a4,a4,-1
20011b92:	8ff9                	and	a5,a5,a4
20011b94:	00e41583          	lh	a1,14(s0)
20011b98:	00f41623          	sh	a5,12(s0)
20011b9c:	4462                	lw	s0,24(sp)
20011b9e:	40f2                	lw	ra,28(sp)
20011ba0:	86ce                	mv	a3,s3
20011ba2:	864a                	mv	a2,s2
20011ba4:	49b2                	lw	s3,12(sp)
20011ba6:	4942                	lw	s2,16(sp)
20011ba8:	8526                	mv	a0,s1
20011baa:	44d2                	lw	s1,20(sp)
20011bac:	6105                	addi	sp,sp,32
20011bae:	a83d                	j	20011bec <_write_r>

20011bb0 <__sseek>:
__sseek():
20011bb0:	1141                	addi	sp,sp,-16
20011bb2:	c422                	sw	s0,8(sp)
20011bb4:	842e                	mv	s0,a1
20011bb6:	00e59583          	lh	a1,14(a1)
20011bba:	c606                	sw	ra,12(sp)
20011bbc:	28dd                	jal	20011cb2 <_lseek_r>
20011bbe:	57fd                	li	a5,-1
20011bc0:	00c45703          	lhu	a4,12(s0)
20011bc4:	00f51b63          	bne	a0,a5,20011bda <__sseek+0x2a>
20011bc8:	77fd                	lui	a5,0xfffff
20011bca:	17fd                	addi	a5,a5,-1
20011bcc:	8ff9                	and	a5,a5,a4
20011bce:	00f41623          	sh	a5,12(s0)
20011bd2:	40b2                	lw	ra,12(sp)
20011bd4:	4422                	lw	s0,8(sp)
20011bd6:	0141                	addi	sp,sp,16
20011bd8:	8082                	ret
20011bda:	6785                	lui	a5,0x1
20011bdc:	8fd9                	or	a5,a5,a4
20011bde:	00f41623          	sh	a5,12(s0)
20011be2:	c868                	sw	a0,84(s0)
20011be4:	b7fd                	j	20011bd2 <__sseek+0x22>

20011be6 <__sclose>:
__sclose():
20011be6:	00e59583          	lh	a1,14(a1)
20011bea:	a81d                	j	20011c20 <_close_r>

20011bec <_write_r>:
_write_r():
20011bec:	1141                	addi	sp,sp,-16
20011bee:	c422                	sw	s0,8(sp)
20011bf0:	842a                	mv	s0,a0
20011bf2:	852e                	mv	a0,a1
20011bf4:	85b2                	mv	a1,a2
20011bf6:	8636                	mv	a2,a3
20011bf8:	5ffef797          	auipc	a5,0x5ffef
20011bfc:	ec07ac23          	sw	zero,-296(a5) # 80000ad0 <errno>
20011c00:	c606                	sw	ra,12(sp)
20011c02:	3e9040ef          	jal	ra,200167ea <_write>
20011c06:	57fd                	li	a5,-1
20011c08:	00f51863          	bne	a0,a5,20011c18 <_write_r+0x2c>
20011c0c:	5ffef797          	auipc	a5,0x5ffef
20011c10:	ec47a783          	lw	a5,-316(a5) # 80000ad0 <errno>
20011c14:	c391                	beqz	a5,20011c18 <_write_r+0x2c>
20011c16:	c01c                	sw	a5,0(s0)
20011c18:	40b2                	lw	ra,12(sp)
20011c1a:	4422                	lw	s0,8(sp)
20011c1c:	0141                	addi	sp,sp,16
20011c1e:	8082                	ret

20011c20 <_close_r>:
_close_r():
20011c20:	1141                	addi	sp,sp,-16
20011c22:	c422                	sw	s0,8(sp)
20011c24:	842a                	mv	s0,a0
20011c26:	852e                	mv	a0,a1
20011c28:	5ffef797          	auipc	a5,0x5ffef
20011c2c:	ea07a423          	sw	zero,-344(a5) # 80000ad0 <errno>
20011c30:	c606                	sw	ra,12(sp)
20011c32:	27f040ef          	jal	ra,200166b0 <_close>
20011c36:	57fd                	li	a5,-1
20011c38:	00f51863          	bne	a0,a5,20011c48 <_close_r+0x28>
20011c3c:	5ffef797          	auipc	a5,0x5ffef
20011c40:	e947a783          	lw	a5,-364(a5) # 80000ad0 <errno>
20011c44:	c391                	beqz	a5,20011c48 <_close_r+0x28>
20011c46:	c01c                	sw	a5,0(s0)
20011c48:	40b2                	lw	ra,12(sp)
20011c4a:	4422                	lw	s0,8(sp)
20011c4c:	0141                	addi	sp,sp,16
20011c4e:	8082                	ret

20011c50 <_fstat_r>:
_fstat_r():
20011c50:	1141                	addi	sp,sp,-16
20011c52:	c422                	sw	s0,8(sp)
20011c54:	842a                	mv	s0,a0
20011c56:	852e                	mv	a0,a1
20011c58:	85b2                	mv	a1,a2
20011c5a:	5ffef797          	auipc	a5,0x5ffef
20011c5e:	e607ab23          	sw	zero,-394(a5) # 80000ad0 <errno>
20011c62:	c606                	sw	ra,12(sp)
20011c64:	283040ef          	jal	ra,200166e6 <_fstat>
20011c68:	57fd                	li	a5,-1
20011c6a:	00f51863          	bne	a0,a5,20011c7a <_fstat_r+0x2a>
20011c6e:	5ffef797          	auipc	a5,0x5ffef
20011c72:	e627a783          	lw	a5,-414(a5) # 80000ad0 <errno>
20011c76:	c391                	beqz	a5,20011c7a <_fstat_r+0x2a>
20011c78:	c01c                	sw	a5,0(s0)
20011c7a:	40b2                	lw	ra,12(sp)
20011c7c:	4422                	lw	s0,8(sp)
20011c7e:	0141                	addi	sp,sp,16
20011c80:	8082                	ret

20011c82 <_isatty_r>:
_isatty_r():
20011c82:	1141                	addi	sp,sp,-16
20011c84:	c422                	sw	s0,8(sp)
20011c86:	842a                	mv	s0,a0
20011c88:	852e                	mv	a0,a1
20011c8a:	5ffef797          	auipc	a5,0x5ffef
20011c8e:	e407a323          	sw	zero,-442(a5) # 80000ad0 <errno>
20011c92:	c606                	sw	ra,12(sp)
20011c94:	279040ef          	jal	ra,2001670c <_isatty>
20011c98:	57fd                	li	a5,-1
20011c9a:	00f51863          	bne	a0,a5,20011caa <_isatty_r+0x28>
20011c9e:	5ffef797          	auipc	a5,0x5ffef
20011ca2:	e327a783          	lw	a5,-462(a5) # 80000ad0 <errno>
20011ca6:	c391                	beqz	a5,20011caa <_isatty_r+0x28>
20011ca8:	c01c                	sw	a5,0(s0)
20011caa:	40b2                	lw	ra,12(sp)
20011cac:	4422                	lw	s0,8(sp)
20011cae:	0141                	addi	sp,sp,16
20011cb0:	8082                	ret

20011cb2 <_lseek_r>:
_lseek_r():
20011cb2:	1141                	addi	sp,sp,-16
20011cb4:	c422                	sw	s0,8(sp)
20011cb6:	842a                	mv	s0,a0
20011cb8:	852e                	mv	a0,a1
20011cba:	85b2                	mv	a1,a2
20011cbc:	8636                	mv	a2,a3
20011cbe:	5ffef797          	auipc	a5,0x5ffef
20011cc2:	e007a923          	sw	zero,-494(a5) # 80000ad0 <errno>
20011cc6:	c606                	sw	ra,12(sp)
20011cc8:	265040ef          	jal	ra,2001672c <_lseek>
20011ccc:	57fd                	li	a5,-1
20011cce:	00f51863          	bne	a0,a5,20011cde <_lseek_r+0x2c>
20011cd2:	5ffef797          	auipc	a5,0x5ffef
20011cd6:	dfe7a783          	lw	a5,-514(a5) # 80000ad0 <errno>
20011cda:	c391                	beqz	a5,20011cde <_lseek_r+0x2c>
20011cdc:	c01c                	sw	a5,0(s0)
20011cde:	40b2                	lw	ra,12(sp)
20011ce0:	4422                	lw	s0,8(sp)
20011ce2:	0141                	addi	sp,sp,16
20011ce4:	8082                	ret

20011ce6 <__malloc_lock>:
__malloc_lock():
20011ce6:	8082                	ret

20011ce8 <__malloc_unlock>:
__malloc_unlock():
20011ce8:	8082                	ret

20011cea <_read_r>:
_read_r():
20011cea:	1141                	addi	sp,sp,-16
20011cec:	c422                	sw	s0,8(sp)
20011cee:	842a                	mv	s0,a0
20011cf0:	852e                	mv	a0,a1
20011cf2:	85b2                	mv	a1,a2
20011cf4:	8636                	mv	a2,a3
20011cf6:	5ffef797          	auipc	a5,0x5ffef
20011cfa:	dc07ad23          	sw	zero,-550(a5) # 80000ad0 <errno>
20011cfe:	c606                	sw	ra,12(sp)
20011d00:	257040ef          	jal	ra,20016756 <_read>
20011d04:	57fd                	li	a5,-1
20011d06:	00f51863          	bne	a0,a5,20011d16 <_read_r+0x2c>
20011d0a:	5ffef797          	auipc	a5,0x5ffef
20011d0e:	dc67a783          	lw	a5,-570(a5) # 80000ad0 <errno>
20011d12:	c391                	beqz	a5,20011d16 <_read_r+0x2c>
20011d14:	c01c                	sw	a5,0(s0)
20011d16:	40b2                	lw	ra,12(sp)
20011d18:	4422                	lw	s0,8(sp)
20011d1a:	0141                	addi	sp,sp,16
20011d1c:	8082                	ret

20011d1e <__metal_driver_sifive_clint0_control_base>:
__metal_driver_sifive_clint0_control_base():
/home/nicoladgg/wsFreedomStudio/sifive_hifive1_revb_HCSR04/bsp/build/debug/./metal/machine.h:233
20011d1e:	1101                	addi	sp,sp,-32
20011d20:	ce22                	sw	s0,28(sp)
20011d22:	1000                	addi	s0,sp,32
20011d24:	fea42623          	sw	a0,-20(s0)
/home/nicoladgg/wsFreedomStudio/sifive_hifive1_revb_HCSR04/bsp/build/debug/./metal/machine.h:234
20011d28:	fec42703          	lw	a4,-20(s0)
20011d2c:	800017b7          	lui	a5,0x80001
20011d30:	aa878793          	addi	a5,a5,-1368 # 80000aa8 <metal_segment_heap_target_end+0xfffff328>
20011d34:	00f71563          	bne	a4,a5,20011d3e <__metal_driver_sifive_clint0_control_base+0x20>
/home/nicoladgg/wsFreedomStudio/sifive_hifive1_revb_HCSR04/bsp/build/debug/./metal/machine.h:235
20011d38:	020007b7          	lui	a5,0x2000
20011d3c:	a011                	j	20011d40 <__metal_driver_sifive_clint0_control_base+0x22>
/home/nicoladgg/wsFreedomStudio/sifive_hifive1_revb_HCSR04/bsp/build/debug/./metal/machine.h:238
20011d3e:	4781                	li	a5,0
/home/nicoladgg/wsFreedomStudio/sifive_hifive1_revb_HCSR04/bsp/build/debug/./metal/machine.h:240
20011d40:	853e                	mv	a0,a5
20011d42:	4472                	lw	s0,28(sp)
20011d44:	6105                	addi	sp,sp,32
20011d46:	8082                	ret

20011d48 <__metal_driver_sifive_clint0_num_interrupts>:
__metal_driver_sifive_clint0_num_interrupts():
/home/nicoladgg/wsFreedomStudio/sifive_hifive1_revb_HCSR04/bsp/build/debug/./metal/machine.h:253
20011d48:	1101                	addi	sp,sp,-32
20011d4a:	ce22                	sw	s0,28(sp)
20011d4c:	1000                	addi	s0,sp,32
20011d4e:	fea42623          	sw	a0,-20(s0)
/home/nicoladgg/wsFreedomStudio/sifive_hifive1_revb_HCSR04/bsp/build/debug/./metal/machine.h:254
20011d52:	fec42703          	lw	a4,-20(s0)
20011d56:	800017b7          	lui	a5,0x80001
20011d5a:	aa878793          	addi	a5,a5,-1368 # 80000aa8 <metal_segment_heap_target_end+0xfffff328>
20011d5e:	00f71463          	bne	a4,a5,20011d66 <__metal_driver_sifive_clint0_num_interrupts+0x1e>
/home/nicoladgg/wsFreedomStudio/sifive_hifive1_revb_HCSR04/bsp/build/debug/./metal/machine.h:255
20011d62:	4789                	li	a5,2
20011d64:	a011                	j	20011d68 <__metal_driver_sifive_clint0_num_interrupts+0x20>
/home/nicoladgg/wsFreedomStudio/sifive_hifive1_revb_HCSR04/bsp/build/debug/./metal/machine.h:258
20011d66:	4781                	li	a5,0
/home/nicoladgg/wsFreedomStudio/sifive_hifive1_revb_HCSR04/bsp/build/debug/./metal/machine.h:260
20011d68:	853e                	mv	a0,a5
20011d6a:	4472                	lw	s0,28(sp)
20011d6c:	6105                	addi	sp,sp,32
20011d6e:	8082                	ret

20011d70 <__metal_driver_sifive_clint0_interrupt_parents>:
__metal_driver_sifive_clint0_interrupt_parents():
/home/nicoladgg/wsFreedomStudio/sifive_hifive1_revb_HCSR04/bsp/build/debug/./metal/machine.h:263
20011d70:	1101                	addi	sp,sp,-32
20011d72:	ce22                	sw	s0,28(sp)
20011d74:	1000                	addi	s0,sp,32
20011d76:	fea42623          	sw	a0,-20(s0)
20011d7a:	feb42423          	sw	a1,-24(s0)
/home/nicoladgg/wsFreedomStudio/sifive_hifive1_revb_HCSR04/bsp/build/debug/./metal/machine.h:264
20011d7e:	fe842783          	lw	a5,-24(s0)
20011d82:	e791                	bnez	a5,20011d8e <__metal_driver_sifive_clint0_interrupt_parents+0x1e>
/home/nicoladgg/wsFreedomStudio/sifive_hifive1_revb_HCSR04/bsp/build/debug/./metal/machine.h:265
20011d84:	800007b7          	lui	a5,0x80000
20011d88:	09078793          	addi	a5,a5,144 # 80000090 <metal_segment_heap_target_end+0xffffe910>
20011d8c:	a821                	j	20011da4 <__metal_driver_sifive_clint0_interrupt_parents+0x34>
/home/nicoladgg/wsFreedomStudio/sifive_hifive1_revb_HCSR04/bsp/build/debug/./metal/machine.h:267
20011d8e:	fe842703          	lw	a4,-24(s0)
20011d92:	4785                	li	a5,1
20011d94:	00f71763          	bne	a4,a5,20011da2 <__metal_driver_sifive_clint0_interrupt_parents+0x32>
/home/nicoladgg/wsFreedomStudio/sifive_hifive1_revb_HCSR04/bsp/build/debug/./metal/machine.h:268
20011d98:	800007b7          	lui	a5,0x80000
20011d9c:	09078793          	addi	a5,a5,144 # 80000090 <metal_segment_heap_target_end+0xffffe910>
20011da0:	a011                	j	20011da4 <__metal_driver_sifive_clint0_interrupt_parents+0x34>
/home/nicoladgg/wsFreedomStudio/sifive_hifive1_revb_HCSR04/bsp/build/debug/./metal/machine.h:271
20011da2:	4781                	li	a5,0
/home/nicoladgg/wsFreedomStudio/sifive_hifive1_revb_HCSR04/bsp/build/debug/./metal/machine.h:273
20011da4:	853e                	mv	a0,a5
20011da6:	4472                	lw	s0,28(sp)
20011da8:	6105                	addi	sp,sp,32
20011daa:	8082                	ret

20011dac <__metal_driver_sifive_clint0_interrupt_lines>:
__metal_driver_sifive_clint0_interrupt_lines():
/home/nicoladgg/wsFreedomStudio/sifive_hifive1_revb_HCSR04/bsp/build/debug/./metal/machine.h:276
20011dac:	1101                	addi	sp,sp,-32
20011dae:	ce22                	sw	s0,28(sp)
20011db0:	1000                	addi	s0,sp,32
20011db2:	fea42623          	sw	a0,-20(s0)
20011db6:	feb42423          	sw	a1,-24(s0)
/home/nicoladgg/wsFreedomStudio/sifive_hifive1_revb_HCSR04/bsp/build/debug/./metal/machine.h:277
20011dba:	fe842783          	lw	a5,-24(s0)
20011dbe:	e399                	bnez	a5,20011dc4 <__metal_driver_sifive_clint0_interrupt_lines+0x18>
/home/nicoladgg/wsFreedomStudio/sifive_hifive1_revb_HCSR04/bsp/build/debug/./metal/machine.h:278
20011dc0:	478d                	li	a5,3
20011dc2:	a809                	j	20011dd4 <__metal_driver_sifive_clint0_interrupt_lines+0x28>
/home/nicoladgg/wsFreedomStudio/sifive_hifive1_revb_HCSR04/bsp/build/debug/./metal/machine.h:280
20011dc4:	fe842703          	lw	a4,-24(s0)
20011dc8:	4785                	li	a5,1
20011dca:	00f71463          	bne	a4,a5,20011dd2 <__metal_driver_sifive_clint0_interrupt_lines+0x26>
/home/nicoladgg/wsFreedomStudio/sifive_hifive1_revb_HCSR04/bsp/build/debug/./metal/machine.h:281
20011dce:	479d                	li	a5,7
20011dd0:	a011                	j	20011dd4 <__metal_driver_sifive_clint0_interrupt_lines+0x28>
/home/nicoladgg/wsFreedomStudio/sifive_hifive1_revb_HCSR04/bsp/build/debug/./metal/machine.h:284
20011dd2:	4781                	li	a5,0
/home/nicoladgg/wsFreedomStudio/sifive_hifive1_revb_HCSR04/bsp/build/debug/./metal/machine.h:286
20011dd4:	853e                	mv	a0,a5
20011dd6:	4472                	lw	s0,28(sp)
20011dd8:	6105                	addi	sp,sp,32
20011dda:	8082                	ret

20011ddc <__metal_clint0_mtime_get>:
__metal_clint0_mtime_get():
/home/nicoladgg/wsFreedomStudio/sifive_hifive1_revb_HCSR04/freedom-metal/src/drivers/riscv_clint0.c:14
20011ddc:	715d                	addi	sp,sp,-80
20011dde:	c686                	sw	ra,76(sp)
20011de0:	c4a2                	sw	s0,72(sp)
20011de2:	c2ca                	sw	s2,68(sp)
20011de4:	c0ce                	sw	s3,64(sp)
20011de6:	de52                	sw	s4,60(sp)
20011de8:	dc56                	sw	s5,56(sp)
20011dea:	da5a                	sw	s6,52(sp)
20011dec:	d85e                	sw	s7,48(sp)
20011dee:	d662                	sw	s8,44(sp)
20011df0:	d466                	sw	s9,40(sp)
20011df2:	0880                	addi	s0,sp,80
20011df4:	faa42e23          	sw	a0,-68(s0)
/home/nicoladgg/wsFreedomStudio/sifive_hifive1_revb_HCSR04/freedom-metal/src/drivers/riscv_clint0.c:17
20011df8:	fbc42783          	lw	a5,-68(s0)
20011dfc:	853e                	mv	a0,a5
20011dfe:	3705                	jal	20011d1e <__metal_driver_sifive_clint0_control_base>
20011e00:	fca42623          	sw	a0,-52(s0)
/home/nicoladgg/wsFreedomStudio/sifive_hifive1_revb_HCSR04/freedom-metal/src/drivers/riscv_clint0.c:21 (discriminator 1)
20011e04:	fcc42703          	lw	a4,-52(s0)
20011e08:	67b1                	lui	a5,0xc
20011e0a:	17f1                	addi	a5,a5,-4
20011e0c:	97ba                	add	a5,a5,a4
20011e0e:	439c                	lw	a5,0(a5)
20011e10:	fcf42423          	sw	a5,-56(s0)
/home/nicoladgg/wsFreedomStudio/sifive_hifive1_revb_HCSR04/freedom-metal/src/drivers/riscv_clint0.c:23 (discriminator 1)
20011e14:	fcc42703          	lw	a4,-52(s0)
20011e18:	67b1                	lui	a5,0xc
20011e1a:	17e1                	addi	a5,a5,-8
20011e1c:	97ba                	add	a5,a5,a4
20011e1e:	439c                	lw	a5,0(a5)
20011e20:	fcf42223          	sw	a5,-60(s0)
/home/nicoladgg/wsFreedomStudio/sifive_hifive1_revb_HCSR04/freedom-metal/src/drivers/riscv_clint0.c:25 (discriminator 1)
20011e24:	fcc42703          	lw	a4,-52(s0)
20011e28:	67b1                	lui	a5,0xc
20011e2a:	17f1                	addi	a5,a5,-4
20011e2c:	97ba                	add	a5,a5,a4
20011e2e:	439c                	lw	a5,0(a5)
20011e30:	fc842703          	lw	a4,-56(s0)
20011e34:	fcf718e3          	bne	a4,a5,20011e04 <__metal_clint0_mtime_get+0x28>
/home/nicoladgg/wsFreedomStudio/sifive_hifive1_revb_HCSR04/freedom-metal/src/drivers/riscv_clint0.c:29
20011e38:	fc842783          	lw	a5,-56(s0)
20011e3c:	8c3e                	mv	s8,a5
20011e3e:	4c81                	li	s9,0
20011e40:	000c1993          	slli	s3,s8,0x0
20011e44:	4901                	li	s2,0
20011e46:	fc442783          	lw	a5,-60(s0)
20011e4a:	8a3e                	mv	s4,a5
20011e4c:	4a81                	li	s5,0
20011e4e:	01496b33          	or	s6,s2,s4
20011e52:	0159ebb3          	or	s7,s3,s5
20011e56:	875a                	mv	a4,s6
20011e58:	87de                	mv	a5,s7
/home/nicoladgg/wsFreedomStudio/sifive_hifive1_revb_HCSR04/freedom-metal/src/drivers/riscv_clint0.c:30
20011e5a:	853a                	mv	a0,a4
20011e5c:	85be                	mv	a1,a5
20011e5e:	40b6                	lw	ra,76(sp)
20011e60:	4426                	lw	s0,72(sp)
20011e62:	4916                	lw	s2,68(sp)
20011e64:	4986                	lw	s3,64(sp)
20011e66:	5a72                	lw	s4,60(sp)
20011e68:	5ae2                	lw	s5,56(sp)
20011e6a:	5b52                	lw	s6,52(sp)
20011e6c:	5bc2                	lw	s7,48(sp)
20011e6e:	5c32                	lw	s8,44(sp)
20011e70:	5ca2                	lw	s9,40(sp)
20011e72:	6161                	addi	sp,sp,80
20011e74:	8082                	ret

20011e76 <__metal_driver_riscv_clint0_mtimecmp_set>:
__metal_driver_riscv_clint0_mtimecmp_set():
/home/nicoladgg/wsFreedomStudio/sifive_hifive1_revb_HCSR04/freedom-metal/src/drivers/riscv_clint0.c:34
20011e76:	7179                	addi	sp,sp,-48
20011e78:	d606                	sw	ra,44(sp)
20011e7a:	d422                	sw	s0,40(sp)
20011e7c:	d24a                	sw	s2,36(sp)
20011e7e:	d04e                	sw	s3,32(sp)
20011e80:	1800                	addi	s0,sp,48
20011e82:	fca42e23          	sw	a0,-36(s0)
20011e86:	fcb42c23          	sw	a1,-40(s0)
20011e8a:	fcc42823          	sw	a2,-48(s0)
20011e8e:	fcd42a23          	sw	a3,-44(s0)
/home/nicoladgg/wsFreedomStudio/sifive_hifive1_revb_HCSR04/freedom-metal/src/drivers/riscv_clint0.c:35
20011e92:	fdc42783          	lw	a5,-36(s0)
20011e96:	fef42623          	sw	a5,-20(s0)
/home/nicoladgg/wsFreedomStudio/sifive_hifive1_revb_HCSR04/freedom-metal/src/drivers/riscv_clint0.c:38
20011e9a:	fec42783          	lw	a5,-20(s0)
20011e9e:	853e                	mv	a0,a5
20011ea0:	3dbd                	jal	20011d1e <__metal_driver_sifive_clint0_control_base>
20011ea2:	fea42423          	sw	a0,-24(s0)
/home/nicoladgg/wsFreedomStudio/sifive_hifive1_revb_HCSR04/freedom-metal/src/drivers/riscv_clint0.c:45
20011ea6:	fd842783          	lw	a5,-40(s0)
20011eaa:	078e                	slli	a5,a5,0x3
20011eac:	873e                	mv	a4,a5
20011eae:	fe842783          	lw	a5,-24(s0)
20011eb2:	973e                	add	a4,a4,a5
20011eb4:	6791                	lui	a5,0x4
20011eb6:	0791                	addi	a5,a5,4
20011eb8:	97ba                	add	a5,a5,a4
20011eba:	873e                	mv	a4,a5
/home/nicoladgg/wsFreedomStudio/sifive_hifive1_revb_HCSR04/freedom-metal/src/drivers/riscv_clint0.c:47
20011ebc:	57fd                	li	a5,-1
20011ebe:	c31c                	sw	a5,0(a4)
/home/nicoladgg/wsFreedomStudio/sifive_hifive1_revb_HCSR04/freedom-metal/src/drivers/riscv_clint0.c:48
20011ec0:	fd842783          	lw	a5,-40(s0)
20011ec4:	078e                	slli	a5,a5,0x3
20011ec6:	873e                	mv	a4,a5
20011ec8:	fe842783          	lw	a5,-24(s0)
20011ecc:	973e                	add	a4,a4,a5
20011ece:	6791                	lui	a5,0x4
20011ed0:	97ba                	add	a5,a5,a4
20011ed2:	873e                	mv	a4,a5
/home/nicoladgg/wsFreedomStudio/sifive_hifive1_revb_HCSR04/freedom-metal/src/drivers/riscv_clint0.c:50
20011ed4:	fd042783          	lw	a5,-48(s0)
/home/nicoladgg/wsFreedomStudio/sifive_hifive1_revb_HCSR04/freedom-metal/src/drivers/riscv_clint0.c:49
20011ed8:	c31c                	sw	a5,0(a4)
/home/nicoladgg/wsFreedomStudio/sifive_hifive1_revb_HCSR04/freedom-metal/src/drivers/riscv_clint0.c:53
20011eda:	fd442783          	lw	a5,-44(s0)
20011ede:	0007d913          	srli	s2,a5,0x0
20011ee2:	4981                	li	s3,0
/home/nicoladgg/wsFreedomStudio/sifive_hifive1_revb_HCSR04/freedom-metal/src/drivers/riscv_clint0.c:51
20011ee4:	fd842783          	lw	a5,-40(s0)
20011ee8:	078e                	slli	a5,a5,0x3
20011eea:	873e                	mv	a4,a5
20011eec:	fe842783          	lw	a5,-24(s0)
20011ef0:	973e                	add	a4,a4,a5
20011ef2:	6791                	lui	a5,0x4
20011ef4:	0791                	addi	a5,a5,4
20011ef6:	97ba                	add	a5,a5,a4
/home/nicoladgg/wsFreedomStudio/sifive_hifive1_revb_HCSR04/freedom-metal/src/drivers/riscv_clint0.c:53
20011ef8:	874a                	mv	a4,s2
20011efa:	c398                	sw	a4,0(a5)
/home/nicoladgg/wsFreedomStudio/sifive_hifive1_revb_HCSR04/freedom-metal/src/drivers/riscv_clint0.c:54
20011efc:	4781                	li	a5,0
/home/nicoladgg/wsFreedomStudio/sifive_hifive1_revb_HCSR04/freedom-metal/src/drivers/riscv_clint0.c:55
20011efe:	853e                	mv	a0,a5
20011f00:	50b2                	lw	ra,44(sp)
20011f02:	5422                	lw	s0,40(sp)
20011f04:	5912                	lw	s2,36(sp)
20011f06:	5982                	lw	s3,32(sp)
20011f08:	6145                	addi	sp,sp,48
20011f0a:	8082                	ret

20011f0c <_get_cpu_intc>:
_get_cpu_intc():
/home/nicoladgg/wsFreedomStudio/sifive_hifive1_revb_HCSR04/freedom-metal/src/drivers/riscv_clint0.c:57
20011f0c:	1101                	addi	sp,sp,-32
20011f0e:	ce06                	sw	ra,28(sp)
20011f10:	cc22                	sw	s0,24(sp)
20011f12:	1000                	addi	s0,sp,32
/home/nicoladgg/wsFreedomStudio/sifive_hifive1_revb_HCSR04/freedom-metal/src/drivers/riscv_clint0.c:58
20011f14:	fe042623          	sw	zero,-20(s0)
/home/nicoladgg/wsFreedomStudio/sifive_hifive1_revb_HCSR04/freedom-metal/src/drivers/riscv_clint0.c:59
20011f18:	f14027f3          	csrr	a5,mhartid
20011f1c:	fef42623          	sw	a5,-20(s0)
/home/nicoladgg/wsFreedomStudio/sifive_hifive1_revb_HCSR04/freedom-metal/src/drivers/riscv_clint0.c:62
20011f20:	fec42783          	lw	a5,-20(s0)
20011f24:	853e                	mv	a0,a5
20011f26:	4ba040ef          	jal	ra,200163e0 <metal_cpu_get>
20011f2a:	fea42423          	sw	a0,-24(s0)
/home/nicoladgg/wsFreedomStudio/sifive_hifive1_revb_HCSR04/freedom-metal/src/drivers/riscv_clint0.c:64
20011f2e:	fe842503          	lw	a0,-24(s0)
20011f32:	488040ef          	jal	ra,200163ba <metal_cpu_interrupt_controller>
20011f36:	87aa                	mv	a5,a0
/home/nicoladgg/wsFreedomStudio/sifive_hifive1_revb_HCSR04/freedom-metal/src/drivers/riscv_clint0.c:65
20011f38:	853e                	mv	a0,a5
20011f3a:	40f2                	lw	ra,28(sp)
20011f3c:	4462                	lw	s0,24(sp)
20011f3e:	6105                	addi	sp,sp,32
20011f40:	8082                	ret

20011f42 <__metal_driver_riscv_clint0_init>:
__metal_driver_riscv_clint0_init():
/home/nicoladgg/wsFreedomStudio/sifive_hifive1_revb_HCSR04/freedom-metal/src/drivers/riscv_clint0.c:67
20011f42:	7139                	addi	sp,sp,-64
20011f44:	de06                	sw	ra,60(sp)
20011f46:	dc22                	sw	s0,56(sp)
20011f48:	0080                	addi	s0,sp,64
20011f4a:	fca42623          	sw	a0,-52(s0)
/home/nicoladgg/wsFreedomStudio/sifive_hifive1_revb_HCSR04/freedom-metal/src/drivers/riscv_clint0.c:69
20011f4e:	fcc42503          	lw	a0,-52(s0)
20011f52:	3bdd                	jal	20011d48 <__metal_driver_sifive_clint0_num_interrupts>
20011f54:	fea42423          	sw	a0,-24(s0)
/home/nicoladgg/wsFreedomStudio/sifive_hifive1_revb_HCSR04/freedom-metal/src/drivers/riscv_clint0.c:70
20011f58:	fcc42783          	lw	a5,-52(s0)
20011f5c:	fef42223          	sw	a5,-28(s0)
/home/nicoladgg/wsFreedomStudio/sifive_hifive1_revb_HCSR04/freedom-metal/src/drivers/riscv_clint0.c:73
20011f60:	fe442783          	lw	a5,-28(s0)
20011f64:	43dc                	lw	a5,4(a5)
20011f66:	efa9                	bnez	a5,20011fc0 <__metal_driver_riscv_clint0_init+0x7e>
/home/nicoladgg/wsFreedomStudio/sifive_hifive1_revb_HCSR04/freedom-metal/src/drivers/riscv_clint0.c:76
20011f68:	fe042623          	sw	zero,-20(s0)
20011f6c:	a081                	j	20011fac <__metal_driver_riscv_clint0_init+0x6a>
/home/nicoladgg/wsFreedomStudio/sifive_hifive1_revb_HCSR04/freedom-metal/src/drivers/riscv_clint0.c:78 (discriminator 3)
20011f6e:	fec42583          	lw	a1,-20(s0)
20011f72:	fcc42503          	lw	a0,-52(s0)
20011f76:	3bed                	jal	20011d70 <__metal_driver_sifive_clint0_interrupt_parents>
20011f78:	fea42023          	sw	a0,-32(s0)
/home/nicoladgg/wsFreedomStudio/sifive_hifive1_revb_HCSR04/freedom-metal/src/drivers/riscv_clint0.c:80 (discriminator 3)
20011f7c:	fec42583          	lw	a1,-20(s0)
20011f80:	fcc42503          	lw	a0,-52(s0)
20011f84:	3525                	jal	20011dac <__metal_driver_sifive_clint0_interrupt_lines>
20011f86:	fca42e23          	sw	a0,-36(s0)
/home/nicoladgg/wsFreedomStudio/sifive_hifive1_revb_HCSR04/freedom-metal/src/drivers/riscv_clint0.c:81 (discriminator 3)
20011f8a:	fe042783          	lw	a5,-32(s0)
20011f8e:	439c                	lw	a5,0(a5)
20011f90:	4fdc                	lw	a5,28(a5)
20011f92:	fcc42683          	lw	a3,-52(s0)
20011f96:	4601                	li	a2,0
20011f98:	fdc42583          	lw	a1,-36(s0)
20011f9c:	fe042503          	lw	a0,-32(s0)
20011fa0:	9782                	jalr	a5
/home/nicoladgg/wsFreedomStudio/sifive_hifive1_revb_HCSR04/freedom-metal/src/drivers/riscv_clint0.c:76 (discriminator 3)
20011fa2:	fec42783          	lw	a5,-20(s0)
20011fa6:	0785                	addi	a5,a5,1
20011fa8:	fef42623          	sw	a5,-20(s0)
/home/nicoladgg/wsFreedomStudio/sifive_hifive1_revb_HCSR04/freedom-metal/src/drivers/riscv_clint0.c:76 (discriminator 1)
20011fac:	fec42703          	lw	a4,-20(s0)
20011fb0:	fe842783          	lw	a5,-24(s0)
20011fb4:	faf74de3          	blt	a4,a5,20011f6e <__metal_driver_riscv_clint0_init+0x2c>
/home/nicoladgg/wsFreedomStudio/sifive_hifive1_revb_HCSR04/freedom-metal/src/drivers/riscv_clint0.c:83
20011fb8:	fe442783          	lw	a5,-28(s0)
20011fbc:	4705                	li	a4,1
20011fbe:	c3d8                	sw	a4,4(a5)
/home/nicoladgg/wsFreedomStudio/sifive_hifive1_revb_HCSR04/freedom-metal/src/drivers/riscv_clint0.c:85
20011fc0:	0001                	nop
20011fc2:	50f2                	lw	ra,60(sp)
20011fc4:	5462                	lw	s0,56(sp)
20011fc6:	6121                	addi	sp,sp,64
20011fc8:	8082                	ret

20011fca <__metal_driver_riscv_clint0_register>:
__metal_driver_riscv_clint0_register():
/home/nicoladgg/wsFreedomStudio/sifive_hifive1_revb_HCSR04/freedom-metal/src/drivers/riscv_clint0.c:89
20011fca:	7139                	addi	sp,sp,-64
20011fcc:	de06                	sw	ra,60(sp)
20011fce:	dc22                	sw	s0,56(sp)
20011fd0:	0080                	addi	s0,sp,64
20011fd2:	fca42623          	sw	a0,-52(s0)
20011fd6:	fcb42423          	sw	a1,-56(s0)
20011fda:	fcc42223          	sw	a2,-60(s0)
20011fde:	fcd42023          	sw	a3,-64(s0)
/home/nicoladgg/wsFreedomStudio/sifive_hifive1_revb_HCSR04/freedom-metal/src/drivers/riscv_clint0.c:90
20011fe2:	57fd                	li	a5,-1
20011fe4:	fef42623          	sw	a5,-20(s0)
/home/nicoladgg/wsFreedomStudio/sifive_hifive1_revb_HCSR04/freedom-metal/src/drivers/riscv_clint0.c:91
20011fe8:	470010ef          	jal	ra,20013458 <__metal_controller_interrupt_vector_mode>
20011fec:	fea42023          	sw	a0,-32(s0)
/home/nicoladgg/wsFreedomStudio/sifive_hifive1_revb_HCSR04/freedom-metal/src/drivers/riscv_clint0.c:92
20011ff0:	fe042423          	sw	zero,-24(s0)
/home/nicoladgg/wsFreedomStudio/sifive_hifive1_revb_HCSR04/freedom-metal/src/drivers/riscv_clint0.c:93
20011ff4:	3f21                	jal	20011f0c <_get_cpu_intc>
20011ff6:	fca42e23          	sw	a0,-36(s0)
/home/nicoladgg/wsFreedomStudio/sifive_hifive1_revb_HCSR04/freedom-metal/src/drivers/riscv_clint0.c:95
20011ffa:	fcc42503          	lw	a0,-52(s0)
20011ffe:	33a9                	jal	20011d48 <__metal_driver_sifive_clint0_num_interrupts>
20012000:	fca42c23          	sw	a0,-40(s0)
/home/nicoladgg/wsFreedomStudio/sifive_hifive1_revb_HCSR04/freedom-metal/src/drivers/riscv_clint0.c:97
20012004:	fe042703          	lw	a4,-32(s0)
20012008:	4785                	li	a5,1
2001200a:	00f70863          	beq	a4,a5,2001201a <__metal_driver_riscv_clint0_register+0x50>
/home/nicoladgg/wsFreedomStudio/sifive_hifive1_revb_HCSR04/freedom-metal/src/drivers/riscv_clint0.c:97 (discriminator 1)
2001200e:	fe042783          	lw	a5,-32(s0)
20012012:	c781                	beqz	a5,2001201a <__metal_driver_riscv_clint0_register+0x50>
/home/nicoladgg/wsFreedomStudio/sifive_hifive1_revb_HCSR04/freedom-metal/src/drivers/riscv_clint0.c:98
20012014:	fec42783          	lw	a5,-20(s0)
20012018:	a049                	j	2001209a <__metal_driver_riscv_clint0_register+0xd0>
/home/nicoladgg/wsFreedomStudio/sifive_hifive1_revb_HCSR04/freedom-metal/src/drivers/riscv_clint0.c:101
2001201a:	fe042223          	sw	zero,-28(s0)
2001201e:	a091                	j	20012062 <__metal_driver_riscv_clint0_register+0x98>
/home/nicoladgg/wsFreedomStudio/sifive_hifive1_revb_HCSR04/freedom-metal/src/drivers/riscv_clint0.c:102
20012020:	fe442583          	lw	a1,-28(s0)
20012024:	fcc42503          	lw	a0,-52(s0)
20012028:	3351                	jal	20011dac <__metal_driver_sifive_clint0_interrupt_lines>
2001202a:	fca42a23          	sw	a0,-44(s0)
/home/nicoladgg/wsFreedomStudio/sifive_hifive1_revb_HCSR04/freedom-metal/src/drivers/riscv_clint0.c:103
2001202e:	fe442583          	lw	a1,-28(s0)
20012032:	fcc42503          	lw	a0,-52(s0)
20012036:	3b2d                	jal	20011d70 <__metal_driver_sifive_clint0_interrupt_parents>
20012038:	fea42423          	sw	a0,-24(s0)
/home/nicoladgg/wsFreedomStudio/sifive_hifive1_revb_HCSR04/freedom-metal/src/drivers/riscv_clint0.c:104
2001203c:	fdc42703          	lw	a4,-36(s0)
20012040:	fe842783          	lw	a5,-24(s0)
20012044:	00f71863          	bne	a4,a5,20012054 <__metal_driver_riscv_clint0_register+0x8a>
/home/nicoladgg/wsFreedomStudio/sifive_hifive1_revb_HCSR04/freedom-metal/src/drivers/riscv_clint0.c:104 (discriminator 1)
20012048:	fc842703          	lw	a4,-56(s0)
2001204c:	fd442783          	lw	a5,-44(s0)
20012050:	02f70063          	beq	a4,a5,20012070 <__metal_driver_riscv_clint0_register+0xa6>
/home/nicoladgg/wsFreedomStudio/sifive_hifive1_revb_HCSR04/freedom-metal/src/drivers/riscv_clint0.c:107 (discriminator 2)
20012054:	fe042423          	sw	zero,-24(s0)
/home/nicoladgg/wsFreedomStudio/sifive_hifive1_revb_HCSR04/freedom-metal/src/drivers/riscv_clint0.c:101 (discriminator 2)
20012058:	fe442783          	lw	a5,-28(s0)
2001205c:	0785                	addi	a5,a5,1
2001205e:	fef42223          	sw	a5,-28(s0)
/home/nicoladgg/wsFreedomStudio/sifive_hifive1_revb_HCSR04/freedom-metal/src/drivers/riscv_clint0.c:101 (discriminator 1)
20012062:	fe442703          	lw	a4,-28(s0)
20012066:	fd842783          	lw	a5,-40(s0)
2001206a:	faf74be3          	blt	a4,a5,20012020 <__metal_driver_riscv_clint0_register+0x56>
2001206e:	a011                	j	20012072 <__metal_driver_riscv_clint0_register+0xa8>
/home/nicoladgg/wsFreedomStudio/sifive_hifive1_revb_HCSR04/freedom-metal/src/drivers/riscv_clint0.c:105
20012070:	0001                	nop
/home/nicoladgg/wsFreedomStudio/sifive_hifive1_revb_HCSR04/freedom-metal/src/drivers/riscv_clint0.c:111
20012072:	fe842783          	lw	a5,-24(s0)
20012076:	c385                	beqz	a5,20012096 <__metal_driver_riscv_clint0_register+0xcc>
/home/nicoladgg/wsFreedomStudio/sifive_hifive1_revb_HCSR04/freedom-metal/src/drivers/riscv_clint0.c:112
20012078:	fe842783          	lw	a5,-24(s0)
2001207c:	439c                	lw	a5,0(a5)
2001207e:	4fdc                	lw	a5,28(a5)
20012080:	fc042683          	lw	a3,-64(s0)
20012084:	fc442603          	lw	a2,-60(s0)
20012088:	fc842583          	lw	a1,-56(s0)
2001208c:	fe842503          	lw	a0,-24(s0)
20012090:	9782                	jalr	a5
20012092:	fea42623          	sw	a0,-20(s0)
/home/nicoladgg/wsFreedomStudio/sifive_hifive1_revb_HCSR04/freedom-metal/src/drivers/riscv_clint0.c:114
20012096:	fec42783          	lw	a5,-20(s0)
/home/nicoladgg/wsFreedomStudio/sifive_hifive1_revb_HCSR04/freedom-metal/src/drivers/riscv_clint0.c:115
2001209a:	853e                	mv	a0,a5
2001209c:	50f2                	lw	ra,60(sp)
2001209e:	5462                	lw	s0,56(sp)
200120a0:	6121                	addi	sp,sp,64
200120a2:	8082                	ret

200120a4 <__metal_driver_riscv_clint0_vector_register>:
__metal_driver_riscv_clint0_vector_register():
/home/nicoladgg/wsFreedomStudio/sifive_hifive1_revb_HCSR04/freedom-metal/src/drivers/riscv_clint0.c:119
200120a4:	7179                	addi	sp,sp,-48
200120a6:	d622                	sw	s0,44(sp)
200120a8:	1800                	addi	s0,sp,48
200120aa:	fca42e23          	sw	a0,-36(s0)
200120ae:	fcb42c23          	sw	a1,-40(s0)
200120b2:	fcc42a23          	sw	a2,-44(s0)
200120b6:	fcd42823          	sw	a3,-48(s0)
/home/nicoladgg/wsFreedomStudio/sifive_hifive1_revb_HCSR04/freedom-metal/src/drivers/riscv_clint0.c:121
200120ba:	57fd                	li	a5,-1
200120bc:	fef42623          	sw	a5,-20(s0)
/home/nicoladgg/wsFreedomStudio/sifive_hifive1_revb_HCSR04/freedom-metal/src/drivers/riscv_clint0.c:122
200120c0:	fec42783          	lw	a5,-20(s0)
/home/nicoladgg/wsFreedomStudio/sifive_hifive1_revb_HCSR04/freedom-metal/src/drivers/riscv_clint0.c:123
200120c4:	853e                	mv	a0,a5
200120c6:	5432                	lw	s0,44(sp)
200120c8:	6145                	addi	sp,sp,48
200120ca:	8082                	ret

200120cc <__metal_driver_riscv_clint0_get_vector_mode>:
__metal_driver_riscv_clint0_get_vector_mode():
/home/nicoladgg/wsFreedomStudio/sifive_hifive1_revb_HCSR04/freedom-metal/src/drivers/riscv_clint0.c:126
200120cc:	1101                	addi	sp,sp,-32
200120ce:	ce06                	sw	ra,28(sp)
200120d0:	cc22                	sw	s0,24(sp)
200120d2:	1000                	addi	s0,sp,32
200120d4:	fea42623          	sw	a0,-20(s0)
/home/nicoladgg/wsFreedomStudio/sifive_hifive1_revb_HCSR04/freedom-metal/src/drivers/riscv_clint0.c:127
200120d8:	380010ef          	jal	ra,20013458 <__metal_controller_interrupt_vector_mode>
200120dc:	87aa                	mv	a5,a0
/home/nicoladgg/wsFreedomStudio/sifive_hifive1_revb_HCSR04/freedom-metal/src/drivers/riscv_clint0.c:128
200120de:	853e                	mv	a0,a5
200120e0:	40f2                	lw	ra,28(sp)
200120e2:	4462                	lw	s0,24(sp)
200120e4:	6105                	addi	sp,sp,32
200120e6:	8082                	ret

200120e8 <__metal_driver_riscv_clint0_set_vector_mode>:
__metal_driver_riscv_clint0_set_vector_mode():
/home/nicoladgg/wsFreedomStudio/sifive_hifive1_revb_HCSR04/freedom-metal/src/drivers/riscv_clint0.c:131
200120e8:	7179                	addi	sp,sp,-48
200120ea:	d606                	sw	ra,44(sp)
200120ec:	d422                	sw	s0,40(sp)
200120ee:	1800                	addi	s0,sp,48
200120f0:	fca42e23          	sw	a0,-36(s0)
200120f4:	fcb42c23          	sw	a1,-40(s0)
/home/nicoladgg/wsFreedomStudio/sifive_hifive1_revb_HCSR04/freedom-metal/src/drivers/riscv_clint0.c:132
200120f8:	57fd                	li	a5,-1
200120fa:	fef42623          	sw	a5,-20(s0)
/home/nicoladgg/wsFreedomStudio/sifive_hifive1_revb_HCSR04/freedom-metal/src/drivers/riscv_clint0.c:133
200120fe:	3539                	jal	20011f0c <_get_cpu_intc>
20012100:	fea42423          	sw	a0,-24(s0)
/home/nicoladgg/wsFreedomStudio/sifive_hifive1_revb_HCSR04/freedom-metal/src/drivers/riscv_clint0.c:135
20012104:	fe842783          	lw	a5,-24(s0)
20012108:	c395                	beqz	a5,2001212c <__metal_driver_riscv_clint0_set_vector_mode+0x44>
/home/nicoladgg/wsFreedomStudio/sifive_hifive1_revb_HCSR04/freedom-metal/src/drivers/riscv_clint0.c:138
2001210a:	fd842703          	lw	a4,-40(s0)
2001210e:	4785                	li	a5,1
20012110:	02e7e063          	bltu	a5,a4,20012130 <__metal_driver_riscv_clint0_set_vector_mode+0x48>
/home/nicoladgg/wsFreedomStudio/sifive_hifive1_revb_HCSR04/freedom-metal/src/drivers/riscv_clint0.c:141
20012114:	fe842783          	lw	a5,-24(s0)
20012118:	439c                	lw	a5,0(a5)
2001211a:	43dc                	lw	a5,4(a5)
2001211c:	fd842583          	lw	a1,-40(s0)
20012120:	fe842503          	lw	a0,-24(s0)
20012124:	9782                	jalr	a5
20012126:	fea42623          	sw	a0,-20(s0)
/home/nicoladgg/wsFreedomStudio/sifive_hifive1_revb_HCSR04/freedom-metal/src/drivers/riscv_clint0.c:142
2001212a:	a021                	j	20012132 <__metal_driver_riscv_clint0_set_vector_mode+0x4a>
/home/nicoladgg/wsFreedomStudio/sifive_hifive1_revb_HCSR04/freedom-metal/src/drivers/riscv_clint0.c:146
2001212c:	0001                	nop
2001212e:	a011                	j	20012132 <__metal_driver_riscv_clint0_set_vector_mode+0x4a>
/home/nicoladgg/wsFreedomStudio/sifive_hifive1_revb_HCSR04/freedom-metal/src/drivers/riscv_clint0.c:144
20012130:	0001                	nop
/home/nicoladgg/wsFreedomStudio/sifive_hifive1_revb_HCSR04/freedom-metal/src/drivers/riscv_clint0.c:147
20012132:	fec42783          	lw	a5,-20(s0)
/home/nicoladgg/wsFreedomStudio/sifive_hifive1_revb_HCSR04/freedom-metal/src/drivers/riscv_clint0.c:148
20012136:	853e                	mv	a0,a5
20012138:	50b2                	lw	ra,44(sp)
2001213a:	5422                	lw	s0,40(sp)
2001213c:	6145                	addi	sp,sp,48
2001213e:	8082                	ret

20012140 <__metal_driver_riscv_clint0_enable>:
__metal_driver_riscv_clint0_enable():
/home/nicoladgg/wsFreedomStudio/sifive_hifive1_revb_HCSR04/freedom-metal/src/drivers/riscv_clint0.c:151
20012140:	7139                	addi	sp,sp,-64
20012142:	de06                	sw	ra,60(sp)
20012144:	dc22                	sw	s0,56(sp)
20012146:	0080                	addi	s0,sp,64
20012148:	fca42623          	sw	a0,-52(s0)
2001214c:	fcb42423          	sw	a1,-56(s0)
/home/nicoladgg/wsFreedomStudio/sifive_hifive1_revb_HCSR04/freedom-metal/src/drivers/riscv_clint0.c:152
20012150:	57fd                	li	a5,-1
20012152:	fef42623          	sw	a5,-20(s0)
/home/nicoladgg/wsFreedomStudio/sifive_hifive1_revb_HCSR04/freedom-metal/src/drivers/riscv_clint0.c:154
20012156:	fc842783          	lw	a5,-56(s0)
2001215a:	c7c9                	beqz	a5,200121e4 <__metal_driver_riscv_clint0_enable+0xa4>
/home/nicoladgg/wsFreedomStudio/sifive_hifive1_revb_HCSR04/freedom-metal/src/drivers/riscv_clint0.c:155
2001215c:	fe042423          	sw	zero,-24(s0)
/home/nicoladgg/wsFreedomStudio/sifive_hifive1_revb_HCSR04/freedom-metal/src/drivers/riscv_clint0.c:156
20012160:	3375                	jal	20011f0c <_get_cpu_intc>
20012162:	fea42023          	sw	a0,-32(s0)
/home/nicoladgg/wsFreedomStudio/sifive_hifive1_revb_HCSR04/freedom-metal/src/drivers/riscv_clint0.c:158
20012166:	fcc42503          	lw	a0,-52(s0)
2001216a:	3ef9                	jal	20011d48 <__metal_driver_sifive_clint0_num_interrupts>
2001216c:	fca42e23          	sw	a0,-36(s0)
/home/nicoladgg/wsFreedomStudio/sifive_hifive1_revb_HCSR04/freedom-metal/src/drivers/riscv_clint0.c:160
20012170:	fe042223          	sw	zero,-28(s0)
20012174:	a091                	j	200121b8 <__metal_driver_riscv_clint0_enable+0x78>
/home/nicoladgg/wsFreedomStudio/sifive_hifive1_revb_HCSR04/freedom-metal/src/drivers/riscv_clint0.c:162
20012176:	fe442583          	lw	a1,-28(s0)
2001217a:	fcc42503          	lw	a0,-52(s0)
2001217e:	313d                	jal	20011dac <__metal_driver_sifive_clint0_interrupt_lines>
20012180:	fca42c23          	sw	a0,-40(s0)
/home/nicoladgg/wsFreedomStudio/sifive_hifive1_revb_HCSR04/freedom-metal/src/drivers/riscv_clint0.c:164
20012184:	fe442583          	lw	a1,-28(s0)
20012188:	fcc42503          	lw	a0,-52(s0)
2001218c:	36d5                	jal	20011d70 <__metal_driver_sifive_clint0_interrupt_parents>
2001218e:	fea42423          	sw	a0,-24(s0)
/home/nicoladgg/wsFreedomStudio/sifive_hifive1_revb_HCSR04/freedom-metal/src/drivers/riscv_clint0.c:165
20012192:	fe042703          	lw	a4,-32(s0)
20012196:	fe842783          	lw	a5,-24(s0)
2001219a:	00f71863          	bne	a4,a5,200121aa <__metal_driver_riscv_clint0_enable+0x6a>
/home/nicoladgg/wsFreedomStudio/sifive_hifive1_revb_HCSR04/freedom-metal/src/drivers/riscv_clint0.c:165 (discriminator 1)
2001219e:	fc842703          	lw	a4,-56(s0)
200121a2:	fd842783          	lw	a5,-40(s0)
200121a6:	02f70063          	beq	a4,a5,200121c6 <__metal_driver_riscv_clint0_enable+0x86>
/home/nicoladgg/wsFreedomStudio/sifive_hifive1_revb_HCSR04/freedom-metal/src/drivers/riscv_clint0.c:168 (discriminator 2)
200121aa:	fe042423          	sw	zero,-24(s0)
/home/nicoladgg/wsFreedomStudio/sifive_hifive1_revb_HCSR04/freedom-metal/src/drivers/riscv_clint0.c:160 (discriminator 2)
200121ae:	fe442783          	lw	a5,-28(s0)
200121b2:	0785                	addi	a5,a5,1
200121b4:	fef42223          	sw	a5,-28(s0)
/home/nicoladgg/wsFreedomStudio/sifive_hifive1_revb_HCSR04/freedom-metal/src/drivers/riscv_clint0.c:160 (discriminator 1)
200121b8:	fe442703          	lw	a4,-28(s0)
200121bc:	fdc42783          	lw	a5,-36(s0)
200121c0:	faf74be3          	blt	a4,a5,20012176 <__metal_driver_riscv_clint0_enable+0x36>
200121c4:	a011                	j	200121c8 <__metal_driver_riscv_clint0_enable+0x88>
/home/nicoladgg/wsFreedomStudio/sifive_hifive1_revb_HCSR04/freedom-metal/src/drivers/riscv_clint0.c:166
200121c6:	0001                	nop
/home/nicoladgg/wsFreedomStudio/sifive_hifive1_revb_HCSR04/freedom-metal/src/drivers/riscv_clint0.c:172
200121c8:	fe842783          	lw	a5,-24(s0)
200121cc:	cf81                	beqz	a5,200121e4 <__metal_driver_riscv_clint0_enable+0xa4>
/home/nicoladgg/wsFreedomStudio/sifive_hifive1_revb_HCSR04/freedom-metal/src/drivers/riscv_clint0.c:173
200121ce:	fe842783          	lw	a5,-24(s0)
200121d2:	439c                	lw	a5,0(a5)
200121d4:	53dc                	lw	a5,36(a5)
200121d6:	fc842583          	lw	a1,-56(s0)
200121da:	fe842503          	lw	a0,-24(s0)
200121de:	9782                	jalr	a5
200121e0:	fea42623          	sw	a0,-20(s0)
/home/nicoladgg/wsFreedomStudio/sifive_hifive1_revb_HCSR04/freedom-metal/src/drivers/riscv_clint0.c:177
200121e4:	fec42783          	lw	a5,-20(s0)
/home/nicoladgg/wsFreedomStudio/sifive_hifive1_revb_HCSR04/freedom-metal/src/drivers/riscv_clint0.c:178
200121e8:	853e                	mv	a0,a5
200121ea:	50f2                	lw	ra,60(sp)
200121ec:	5462                	lw	s0,56(sp)
200121ee:	6121                	addi	sp,sp,64
200121f0:	8082                	ret

200121f2 <__metal_driver_riscv_clint0_disable>:
__metal_driver_riscv_clint0_disable():
/home/nicoladgg/wsFreedomStudio/sifive_hifive1_revb_HCSR04/freedom-metal/src/drivers/riscv_clint0.c:181
200121f2:	7139                	addi	sp,sp,-64
200121f4:	de06                	sw	ra,60(sp)
200121f6:	dc22                	sw	s0,56(sp)
200121f8:	0080                	addi	s0,sp,64
200121fa:	fca42623          	sw	a0,-52(s0)
200121fe:	fcb42423          	sw	a1,-56(s0)
/home/nicoladgg/wsFreedomStudio/sifive_hifive1_revb_HCSR04/freedom-metal/src/drivers/riscv_clint0.c:182
20012202:	57fd                	li	a5,-1
20012204:	fef42623          	sw	a5,-20(s0)
/home/nicoladgg/wsFreedomStudio/sifive_hifive1_revb_HCSR04/freedom-metal/src/drivers/riscv_clint0.c:184
20012208:	fc842783          	lw	a5,-56(s0)
2001220c:	c7c9                	beqz	a5,20012296 <__metal_driver_riscv_clint0_disable+0xa4>
/home/nicoladgg/wsFreedomStudio/sifive_hifive1_revb_HCSR04/freedom-metal/src/drivers/riscv_clint0.c:185
2001220e:	fe042423          	sw	zero,-24(s0)
/home/nicoladgg/wsFreedomStudio/sifive_hifive1_revb_HCSR04/freedom-metal/src/drivers/riscv_clint0.c:186
20012212:	39ed                	jal	20011f0c <_get_cpu_intc>
20012214:	fea42023          	sw	a0,-32(s0)
/home/nicoladgg/wsFreedomStudio/sifive_hifive1_revb_HCSR04/freedom-metal/src/drivers/riscv_clint0.c:188
20012218:	fcc42503          	lw	a0,-52(s0)
2001221c:	3635                	jal	20011d48 <__metal_driver_sifive_clint0_num_interrupts>
2001221e:	fca42e23          	sw	a0,-36(s0)
/home/nicoladgg/wsFreedomStudio/sifive_hifive1_revb_HCSR04/freedom-metal/src/drivers/riscv_clint0.c:190
20012222:	fe042223          	sw	zero,-28(s0)
20012226:	a091                	j	2001226a <__metal_driver_riscv_clint0_disable+0x78>
/home/nicoladgg/wsFreedomStudio/sifive_hifive1_revb_HCSR04/freedom-metal/src/drivers/riscv_clint0.c:192
20012228:	fe442583          	lw	a1,-28(s0)
2001222c:	fcc42503          	lw	a0,-52(s0)
20012230:	3eb5                	jal	20011dac <__metal_driver_sifive_clint0_interrupt_lines>
20012232:	fca42c23          	sw	a0,-40(s0)
/home/nicoladgg/wsFreedomStudio/sifive_hifive1_revb_HCSR04/freedom-metal/src/drivers/riscv_clint0.c:194
20012236:	fe442583          	lw	a1,-28(s0)
2001223a:	fcc42503          	lw	a0,-52(s0)
2001223e:	3e0d                	jal	20011d70 <__metal_driver_sifive_clint0_interrupt_parents>
20012240:	fea42423          	sw	a0,-24(s0)
/home/nicoladgg/wsFreedomStudio/sifive_hifive1_revb_HCSR04/freedom-metal/src/drivers/riscv_clint0.c:195
20012244:	fe042703          	lw	a4,-32(s0)
20012248:	fe842783          	lw	a5,-24(s0)
2001224c:	00f71863          	bne	a4,a5,2001225c <__metal_driver_riscv_clint0_disable+0x6a>
/home/nicoladgg/wsFreedomStudio/sifive_hifive1_revb_HCSR04/freedom-metal/src/drivers/riscv_clint0.c:195 (discriminator 1)
20012250:	fc842703          	lw	a4,-56(s0)
20012254:	fd842783          	lw	a5,-40(s0)
20012258:	02f70063          	beq	a4,a5,20012278 <__metal_driver_riscv_clint0_disable+0x86>
/home/nicoladgg/wsFreedomStudio/sifive_hifive1_revb_HCSR04/freedom-metal/src/drivers/riscv_clint0.c:198 (discriminator 2)
2001225c:	fe042423          	sw	zero,-24(s0)
/home/nicoladgg/wsFreedomStudio/sifive_hifive1_revb_HCSR04/freedom-metal/src/drivers/riscv_clint0.c:190 (discriminator 2)
20012260:	fe442783          	lw	a5,-28(s0)
20012264:	0785                	addi	a5,a5,1
20012266:	fef42223          	sw	a5,-28(s0)
/home/nicoladgg/wsFreedomStudio/sifive_hifive1_revb_HCSR04/freedom-metal/src/drivers/riscv_clint0.c:190 (discriminator 1)
2001226a:	fe442703          	lw	a4,-28(s0)
2001226e:	fdc42783          	lw	a5,-36(s0)
20012272:	faf74be3          	blt	a4,a5,20012228 <__metal_driver_riscv_clint0_disable+0x36>
20012276:	a011                	j	2001227a <__metal_driver_riscv_clint0_disable+0x88>
/home/nicoladgg/wsFreedomStudio/sifive_hifive1_revb_HCSR04/freedom-metal/src/drivers/riscv_clint0.c:196
20012278:	0001                	nop
/home/nicoladgg/wsFreedomStudio/sifive_hifive1_revb_HCSR04/freedom-metal/src/drivers/riscv_clint0.c:202
2001227a:	fe842783          	lw	a5,-24(s0)
2001227e:	cf81                	beqz	a5,20012296 <__metal_driver_riscv_clint0_disable+0xa4>
/home/nicoladgg/wsFreedomStudio/sifive_hifive1_revb_HCSR04/freedom-metal/src/drivers/riscv_clint0.c:203
20012280:	fe842783          	lw	a5,-24(s0)
20012284:	439c                	lw	a5,0(a5)
20012286:	579c                	lw	a5,40(a5)
20012288:	fc842583          	lw	a1,-56(s0)
2001228c:	fe842503          	lw	a0,-24(s0)
20012290:	9782                	jalr	a5
20012292:	fea42623          	sw	a0,-20(s0)
/home/nicoladgg/wsFreedomStudio/sifive_hifive1_revb_HCSR04/freedom-metal/src/drivers/riscv_clint0.c:207
20012296:	fec42783          	lw	a5,-20(s0)
/home/nicoladgg/wsFreedomStudio/sifive_hifive1_revb_HCSR04/freedom-metal/src/drivers/riscv_clint0.c:208
2001229a:	853e                	mv	a0,a5
2001229c:	50f2                	lw	ra,60(sp)
2001229e:	5462                	lw	s0,56(sp)
200122a0:	6121                	addi	sp,sp,64
200122a2:	8082                	ret

200122a4 <__metal_driver_riscv_clint0_command_request>:
__metal_driver_riscv_clint0_command_request():
/home/nicoladgg/wsFreedomStudio/sifive_hifive1_revb_HCSR04/freedom-metal/src/drivers/riscv_clint0.c:211
200122a4:	7179                	addi	sp,sp,-48
200122a6:	d606                	sw	ra,44(sp)
200122a8:	d422                	sw	s0,40(sp)
200122aa:	1800                	addi	s0,sp,48
200122ac:	fca42e23          	sw	a0,-36(s0)
200122b0:	fcb42c23          	sw	a1,-40(s0)
200122b4:	fcc42a23          	sw	a2,-44(s0)
/home/nicoladgg/wsFreedomStudio/sifive_hifive1_revb_HCSR04/freedom-metal/src/drivers/riscv_clint0.c:213
200122b8:	57fd                	li	a5,-1
200122ba:	fef42623          	sw	a5,-20(s0)
/home/nicoladgg/wsFreedomStudio/sifive_hifive1_revb_HCSR04/freedom-metal/src/drivers/riscv_clint0.c:214
200122be:	fdc42783          	lw	a5,-36(s0)
200122c2:	fef42423          	sw	a5,-24(s0)
/home/nicoladgg/wsFreedomStudio/sifive_hifive1_revb_HCSR04/freedom-metal/src/drivers/riscv_clint0.c:217
200122c6:	fdc42503          	lw	a0,-36(s0)
200122ca:	a55ff0ef          	jal	ra,20011d1e <__metal_driver_sifive_clint0_control_base>
200122ce:	fea42223          	sw	a0,-28(s0)
/home/nicoladgg/wsFreedomStudio/sifive_hifive1_revb_HCSR04/freedom-metal/src/drivers/riscv_clint0.c:219
200122d2:	fd842703          	lw	a4,-40(s0)
200122d6:	4791                	li	a5,4
200122d8:	0cf70063          	beq	a4,a5,20012398 <__metal_driver_riscv_clint0_command_request+0xf4>
200122dc:	fd842703          	lw	a4,-40(s0)
200122e0:	4791                	li	a5,4
200122e2:	0ee7c063          	blt	a5,a4,200123c2 <__metal_driver_riscv_clint0_command_request+0x11e>
200122e6:	fd842703          	lw	a4,-40(s0)
200122ea:	478d                	li	a5,3
200122ec:	06f70563          	beq	a4,a5,20012356 <__metal_driver_riscv_clint0_command_request+0xb2>
200122f0:	fd842703          	lw	a4,-40(s0)
200122f4:	478d                	li	a5,3
200122f6:	0ce7c663          	blt	a5,a4,200123c2 <__metal_driver_riscv_clint0_command_request+0x11e>
200122fa:	fd842703          	lw	a4,-40(s0)
200122fe:	4785                	li	a5,1
20012300:	00f70863          	beq	a4,a5,20012310 <__metal_driver_riscv_clint0_command_request+0x6c>
20012304:	fd842703          	lw	a4,-40(s0)
20012308:	4789                	li	a5,2
2001230a:	02f70263          	beq	a4,a5,2001232e <__metal_driver_riscv_clint0_command_request+0x8a>
/home/nicoladgg/wsFreedomStudio/sifive_hifive1_revb_HCSR04/freedom-metal/src/drivers/riscv_clint0.c:263
2001230e:	a855                	j	200123c2 <__metal_driver_riscv_clint0_command_request+0x11e>
/home/nicoladgg/wsFreedomStudio/sifive_hifive1_revb_HCSR04/freedom-metal/src/drivers/riscv_clint0.c:221
20012310:	fd442783          	lw	a5,-44(s0)
20012314:	cbcd                	beqz	a5,200123c6 <__metal_driver_riscv_clint0_command_request+0x122>
/home/nicoladgg/wsFreedomStudio/sifive_hifive1_revb_HCSR04/freedom-metal/src/drivers/riscv_clint0.c:222
20012316:	fe842503          	lw	a0,-24(s0)
2001231a:	34c9                	jal	20011ddc <__metal_clint0_mtime_get>
2001231c:	872a                	mv	a4,a0
2001231e:	87ae                	mv	a5,a1
20012320:	fd442683          	lw	a3,-44(s0)
20012324:	c298                	sw	a4,0(a3)
20012326:	c2dc                	sw	a5,4(a3)
/home/nicoladgg/wsFreedomStudio/sifive_hifive1_revb_HCSR04/freedom-metal/src/drivers/riscv_clint0.c:223
20012328:	fe042623          	sw	zero,-20(s0)
/home/nicoladgg/wsFreedomStudio/sifive_hifive1_revb_HCSR04/freedom-metal/src/drivers/riscv_clint0.c:225
2001232c:	a869                	j	200123c6 <__metal_driver_riscv_clint0_command_request+0x122>
/home/nicoladgg/wsFreedomStudio/sifive_hifive1_revb_HCSR04/freedom-metal/src/drivers/riscv_clint0.c:227
2001232e:	fd442783          	lw	a5,-44(s0)
20012332:	cfc1                	beqz	a5,200123ca <__metal_driver_riscv_clint0_command_request+0x126>
/home/nicoladgg/wsFreedomStudio/sifive_hifive1_revb_HCSR04/freedom-metal/src/drivers/riscv_clint0.c:228
20012334:	fd442783          	lw	a5,-44(s0)
20012338:	439c                	lw	a5,0(a5)
2001233a:	fef42023          	sw	a5,-32(s0)
/home/nicoladgg/wsFreedomStudio/sifive_hifive1_revb_HCSR04/freedom-metal/src/drivers/riscv_clint0.c:229
2001233e:	fe042783          	lw	a5,-32(s0)
20012342:	078a                	slli	a5,a5,0x2
20012344:	873e                	mv	a4,a5
20012346:	fe442783          	lw	a5,-28(s0)
2001234a:	97ba                	add	a5,a5,a4
/home/nicoladgg/wsFreedomStudio/sifive_hifive1_revb_HCSR04/freedom-metal/src/drivers/riscv_clint0.c:230
2001234c:	0007a023          	sw	zero,0(a5) # 4000 <__heap_size+0x3800>
/home/nicoladgg/wsFreedomStudio/sifive_hifive1_revb_HCSR04/freedom-metal/src/drivers/riscv_clint0.c:231
20012350:	fe042623          	sw	zero,-20(s0)
/home/nicoladgg/wsFreedomStudio/sifive_hifive1_revb_HCSR04/freedom-metal/src/drivers/riscv_clint0.c:233
20012354:	a89d                	j	200123ca <__metal_driver_riscv_clint0_command_request+0x126>
/home/nicoladgg/wsFreedomStudio/sifive_hifive1_revb_HCSR04/freedom-metal/src/drivers/riscv_clint0.c:235
20012356:	fd442783          	lw	a5,-44(s0)
2001235a:	cbb5                	beqz	a5,200123ce <__metal_driver_riscv_clint0_command_request+0x12a>
/home/nicoladgg/wsFreedomStudio/sifive_hifive1_revb_HCSR04/freedom-metal/src/drivers/riscv_clint0.c:236
2001235c:	fd442783          	lw	a5,-44(s0)
20012360:	439c                	lw	a5,0(a5)
20012362:	fef42023          	sw	a5,-32(s0)
/home/nicoladgg/wsFreedomStudio/sifive_hifive1_revb_HCSR04/freedom-metal/src/drivers/riscv_clint0.c:237
20012366:	fe042783          	lw	a5,-32(s0)
2001236a:	078a                	slli	a5,a5,0x2
2001236c:	873e                	mv	a4,a5
2001236e:	fe442783          	lw	a5,-28(s0)
20012372:	97ba                	add	a5,a5,a4
20012374:	873e                	mv	a4,a5
/home/nicoladgg/wsFreedomStudio/sifive_hifive1_revb_HCSR04/freedom-metal/src/drivers/riscv_clint0.c:238
20012376:	4785                	li	a5,1
20012378:	c31c                	sw	a5,0(a4)
/home/nicoladgg/wsFreedomStudio/sifive_hifive1_revb_HCSR04/freedom-metal/src/drivers/riscv_clint0.c:248
2001237a:	0480000f          	fence	o,i
/home/nicoladgg/wsFreedomStudio/sifive_hifive1_revb_HCSR04/freedom-metal/src/drivers/riscv_clint0.c:249
2001237e:	fe042783          	lw	a5,-32(s0)
20012382:	078a                	slli	a5,a5,0x2
20012384:	873e                	mv	a4,a5
20012386:	fe442783          	lw	a5,-28(s0)
2001238a:	97ba                	add	a5,a5,a4
2001238c:	439c                	lw	a5,0(a5)
2001238e:	fef42623          	sw	a5,-20(s0)
/home/nicoladgg/wsFreedomStudio/sifive_hifive1_revb_HCSR04/freedom-metal/src/drivers/riscv_clint0.c:251
20012392:	fe042623          	sw	zero,-20(s0)
/home/nicoladgg/wsFreedomStudio/sifive_hifive1_revb_HCSR04/freedom-metal/src/drivers/riscv_clint0.c:253
20012396:	a825                	j	200123ce <__metal_driver_riscv_clint0_command_request+0x12a>
/home/nicoladgg/wsFreedomStudio/sifive_hifive1_revb_HCSR04/freedom-metal/src/drivers/riscv_clint0.c:255
20012398:	fe042623          	sw	zero,-20(s0)
/home/nicoladgg/wsFreedomStudio/sifive_hifive1_revb_HCSR04/freedom-metal/src/drivers/riscv_clint0.c:256
2001239c:	fd442783          	lw	a5,-44(s0)
200123a0:	cb8d                	beqz	a5,200123d2 <__metal_driver_riscv_clint0_command_request+0x12e>
/home/nicoladgg/wsFreedomStudio/sifive_hifive1_revb_HCSR04/freedom-metal/src/drivers/riscv_clint0.c:257
200123a2:	fd442783          	lw	a5,-44(s0)
200123a6:	439c                	lw	a5,0(a5)
200123a8:	fef42023          	sw	a5,-32(s0)
/home/nicoladgg/wsFreedomStudio/sifive_hifive1_revb_HCSR04/freedom-metal/src/drivers/riscv_clint0.c:258
200123ac:	fe042783          	lw	a5,-32(s0)
200123b0:	078a                	slli	a5,a5,0x2
200123b2:	873e                	mv	a4,a5
200123b4:	fe442783          	lw	a5,-28(s0)
200123b8:	97ba                	add	a5,a5,a4
200123ba:	439c                	lw	a5,0(a5)
200123bc:	fef42623          	sw	a5,-20(s0)
/home/nicoladgg/wsFreedomStudio/sifive_hifive1_revb_HCSR04/freedom-metal/src/drivers/riscv_clint0.c:261
200123c0:	a809                	j	200123d2 <__metal_driver_riscv_clint0_command_request+0x12e>
/home/nicoladgg/wsFreedomStudio/sifive_hifive1_revb_HCSR04/freedom-metal/src/drivers/riscv_clint0.c:263
200123c2:	0001                	nop
200123c4:	a801                	j	200123d4 <__metal_driver_riscv_clint0_command_request+0x130>
/home/nicoladgg/wsFreedomStudio/sifive_hifive1_revb_HCSR04/freedom-metal/src/drivers/riscv_clint0.c:225
200123c6:	0001                	nop
200123c8:	a031                	j	200123d4 <__metal_driver_riscv_clint0_command_request+0x130>
/home/nicoladgg/wsFreedomStudio/sifive_hifive1_revb_HCSR04/freedom-metal/src/drivers/riscv_clint0.c:233
200123ca:	0001                	nop
200123cc:	a021                	j	200123d4 <__metal_driver_riscv_clint0_command_request+0x130>
/home/nicoladgg/wsFreedomStudio/sifive_hifive1_revb_HCSR04/freedom-metal/src/drivers/riscv_clint0.c:253
200123ce:	0001                	nop
200123d0:	a011                	j	200123d4 <__metal_driver_riscv_clint0_command_request+0x130>
/home/nicoladgg/wsFreedomStudio/sifive_hifive1_revb_HCSR04/freedom-metal/src/drivers/riscv_clint0.c:261
200123d2:	0001                	nop
/home/nicoladgg/wsFreedomStudio/sifive_hifive1_revb_HCSR04/freedom-metal/src/drivers/riscv_clint0.c:266
200123d4:	fec42783          	lw	a5,-20(s0)
/home/nicoladgg/wsFreedomStudio/sifive_hifive1_revb_HCSR04/freedom-metal/src/drivers/riscv_clint0.c:267
200123d8:	853e                	mv	a0,a5
200123da:	50b2                	lw	ra,44(sp)
200123dc:	5422                	lw	s0,40(sp)
200123de:	6145                	addi	sp,sp,48
200123e0:	8082                	ret

200123e2 <__metal_driver_riscv_clint0_clear_interrupt>:
__metal_driver_riscv_clint0_clear_interrupt():
/home/nicoladgg/wsFreedomStudio/sifive_hifive1_revb_HCSR04/freedom-metal/src/drivers/riscv_clint0.c:270
200123e2:	7179                	addi	sp,sp,-48
200123e4:	d606                	sw	ra,44(sp)
200123e6:	d422                	sw	s0,40(sp)
200123e8:	1800                	addi	s0,sp,48
200123ea:	fca42e23          	sw	a0,-36(s0)
200123ee:	fcb42c23          	sw	a1,-40(s0)
/home/nicoladgg/wsFreedomStudio/sifive_hifive1_revb_HCSR04/freedom-metal/src/drivers/riscv_clint0.c:271
200123f2:	01c040ef          	jal	ra,2001640e <metal_cpu_get_current_hartid>
200123f6:	87aa                	mv	a5,a0
200123f8:	fef42623          	sw	a5,-20(s0)
/home/nicoladgg/wsFreedomStudio/sifive_hifive1_revb_HCSR04/freedom-metal/src/drivers/riscv_clint0.c:272
200123fc:	fec40793          	addi	a5,s0,-20
20012400:	863e                	mv	a2,a5
20012402:	4589                	li	a1,2
20012404:	fdc42503          	lw	a0,-36(s0)
20012408:	3d71                	jal	200122a4 <__metal_driver_riscv_clint0_command_request>
2001240a:	87aa                	mv	a5,a0
/home/nicoladgg/wsFreedomStudio/sifive_hifive1_revb_HCSR04/freedom-metal/src/drivers/riscv_clint0.c:274
2001240c:	853e                	mv	a0,a5
2001240e:	50b2                	lw	ra,44(sp)
20012410:	5422                	lw	s0,40(sp)
20012412:	6145                	addi	sp,sp,48
20012414:	8082                	ret

20012416 <__metal_driver_riscv_clint0_set_interrupt>:
__metal_driver_riscv_clint0_set_interrupt():
/home/nicoladgg/wsFreedomStudio/sifive_hifive1_revb_HCSR04/freedom-metal/src/drivers/riscv_clint0.c:277
20012416:	7179                	addi	sp,sp,-48
20012418:	d606                	sw	ra,44(sp)
2001241a:	d422                	sw	s0,40(sp)
2001241c:	1800                	addi	s0,sp,48
2001241e:	fca42e23          	sw	a0,-36(s0)
20012422:	fcb42c23          	sw	a1,-40(s0)
/home/nicoladgg/wsFreedomStudio/sifive_hifive1_revb_HCSR04/freedom-metal/src/drivers/riscv_clint0.c:278
20012426:	7e9030ef          	jal	ra,2001640e <metal_cpu_get_current_hartid>
2001242a:	87aa                	mv	a5,a0
2001242c:	fef42623          	sw	a5,-20(s0)
/home/nicoladgg/wsFreedomStudio/sifive_hifive1_revb_HCSR04/freedom-metal/src/drivers/riscv_clint0.c:279
20012430:	fec40793          	addi	a5,s0,-20
20012434:	863e                	mv	a2,a5
20012436:	458d                	li	a1,3
20012438:	fdc42503          	lw	a0,-36(s0)
2001243c:	35a5                	jal	200122a4 <__metal_driver_riscv_clint0_command_request>
2001243e:	87aa                	mv	a5,a0
/home/nicoladgg/wsFreedomStudio/sifive_hifive1_revb_HCSR04/freedom-metal/src/drivers/riscv_clint0.c:281
20012440:	853e                	mv	a0,a5
20012442:	50b2                	lw	ra,44(sp)
20012444:	5422                	lw	s0,40(sp)
20012446:	6145                	addi	sp,sp,48
20012448:	8082                	ret

2001244a <__metal_driver_cpu_hartid>:
__metal_driver_cpu_hartid():
/home/nicoladgg/wsFreedomStudio/sifive_hifive1_revb_HCSR04/bsp/build/debug/./metal/machine.h:292
2001244a:	1101                	addi	sp,sp,-32
2001244c:	ce22                	sw	s0,28(sp)
2001244e:	1000                	addi	s0,sp,32
20012450:	fea42623          	sw	a0,-20(s0)
/home/nicoladgg/wsFreedomStudio/sifive_hifive1_revb_HCSR04/bsp/build/debug/./metal/machine.h:293
20012454:	fec42703          	lw	a4,-20(s0)
20012458:	81018793          	addi	a5,gp,-2032 # 80000ab0 <__metal_dt_cpu_0>
2001245c:	00f71463          	bne	a4,a5,20012464 <__metal_driver_cpu_hartid+0x1a>
/home/nicoladgg/wsFreedomStudio/sifive_hifive1_revb_HCSR04/bsp/build/debug/./metal/machine.h:294
20012460:	4781                	li	a5,0
20012462:	a011                	j	20012466 <__metal_driver_cpu_hartid+0x1c>
/home/nicoladgg/wsFreedomStudio/sifive_hifive1_revb_HCSR04/bsp/build/debug/./metal/machine.h:297
20012464:	57fd                	li	a5,-1
/home/nicoladgg/wsFreedomStudio/sifive_hifive1_revb_HCSR04/bsp/build/debug/./metal/machine.h:299
20012466:	853e                	mv	a0,a5
20012468:	4472                	lw	s0,28(sp)
2001246a:	6105                	addi	sp,sp,32
2001246c:	8082                	ret

2001246e <__metal_driver_cpu_timebase>:
__metal_driver_cpu_timebase():
/home/nicoladgg/wsFreedomStudio/sifive_hifive1_revb_HCSR04/bsp/build/debug/./metal/machine.h:302
2001246e:	1101                	addi	sp,sp,-32
20012470:	ce22                	sw	s0,28(sp)
20012472:	1000                	addi	s0,sp,32
20012474:	fea42623          	sw	a0,-20(s0)
/home/nicoladgg/wsFreedomStudio/sifive_hifive1_revb_HCSR04/bsp/build/debug/./metal/machine.h:303
20012478:	fec42703          	lw	a4,-20(s0)
2001247c:	81018793          	addi	a5,gp,-2032 # 80000ab0 <__metal_dt_cpu_0>
20012480:	00f71763          	bne	a4,a5,2001248e <__metal_driver_cpu_timebase+0x20>
/home/nicoladgg/wsFreedomStudio/sifive_hifive1_revb_HCSR04/bsp/build/debug/./metal/machine.h:304
20012484:	00f427b7          	lui	a5,0xf42
20012488:	40078793          	addi	a5,a5,1024 # f42400 <__heap_size+0xf41c00>
2001248c:	a011                	j	20012490 <__metal_driver_cpu_timebase+0x22>
/home/nicoladgg/wsFreedomStudio/sifive_hifive1_revb_HCSR04/bsp/build/debug/./metal/machine.h:307
2001248e:	4781                	li	a5,0
/home/nicoladgg/wsFreedomStudio/sifive_hifive1_revb_HCSR04/bsp/build/debug/./metal/machine.h:309
20012490:	853e                	mv	a0,a5
20012492:	4472                	lw	s0,28(sp)
20012494:	6105                	addi	sp,sp,32
20012496:	8082                	ret

20012498 <__metal_driver_cpu_interrupt_controller>:
__metal_driver_cpu_interrupt_controller():
/home/nicoladgg/wsFreedomStudio/sifive_hifive1_revb_HCSR04/bsp/build/debug/./metal/machine.h:312
20012498:	1101                	addi	sp,sp,-32
2001249a:	ce22                	sw	s0,28(sp)
2001249c:	1000                	addi	s0,sp,32
2001249e:	fea42623          	sw	a0,-20(s0)
/home/nicoladgg/wsFreedomStudio/sifive_hifive1_revb_HCSR04/bsp/build/debug/./metal/machine.h:313
200124a2:	fec42703          	lw	a4,-20(s0)
200124a6:	81018793          	addi	a5,gp,-2032 # 80000ab0 <__metal_dt_cpu_0>
200124aa:	00f71763          	bne	a4,a5,200124b8 <__metal_driver_cpu_interrupt_controller+0x20>
/home/nicoladgg/wsFreedomStudio/sifive_hifive1_revb_HCSR04/bsp/build/debug/./metal/machine.h:314
200124ae:	800007b7          	lui	a5,0x80000
200124b2:	09078793          	addi	a5,a5,144 # 80000090 <metal_segment_heap_target_end+0xffffe910>
200124b6:	a011                	j	200124ba <__metal_driver_cpu_interrupt_controller+0x22>
/home/nicoladgg/wsFreedomStudio/sifive_hifive1_revb_HCSR04/bsp/build/debug/./metal/machine.h:317
200124b8:	4781                	li	a5,0
/home/nicoladgg/wsFreedomStudio/sifive_hifive1_revb_HCSR04/bsp/build/debug/./metal/machine.h:319
200124ba:	853e                	mv	a0,a5
200124bc:	4472                	lw	s0,28(sp)
200124be:	6105                	addi	sp,sp,32
200124c0:	8082                	ret

200124c2 <__metal_driver_cpu_buserror>:
__metal_driver_cpu_buserror():
/home/nicoladgg/wsFreedomStudio/sifive_hifive1_revb_HCSR04/bsp/build/debug/./metal/machine.h:332
200124c2:	1101                	addi	sp,sp,-32
200124c4:	ce22                	sw	s0,28(sp)
200124c6:	1000                	addi	s0,sp,32
200124c8:	fea42623          	sw	a0,-20(s0)
/home/nicoladgg/wsFreedomStudio/sifive_hifive1_revb_HCSR04/bsp/build/debug/./metal/machine.h:333
200124cc:	fec42703          	lw	a4,-20(s0)
200124d0:	81018793          	addi	a5,gp,-2032 # 80000ab0 <__metal_dt_cpu_0>
200124d4:	00f71463          	bne	a4,a5,200124dc <__metal_driver_cpu_buserror+0x1a>
/home/nicoladgg/wsFreedomStudio/sifive_hifive1_revb_HCSR04/bsp/build/debug/./metal/machine.h:334
200124d8:	4781                	li	a5,0
200124da:	a011                	j	200124de <__metal_driver_cpu_buserror+0x1c>
/home/nicoladgg/wsFreedomStudio/sifive_hifive1_revb_HCSR04/bsp/build/debug/./metal/machine.h:337
200124dc:	4781                	li	a5,0
/home/nicoladgg/wsFreedomStudio/sifive_hifive1_revb_HCSR04/bsp/build/debug/./metal/machine.h:339
200124de:	853e                	mv	a0,a5
200124e0:	4472                	lw	s0,28(sp)
200124e2:	6105                	addi	sp,sp,32
200124e4:	8082                	ret

200124e6 <__metal_driver_cpu_get>:
__metal_driver_cpu_get():
/home/nicoladgg/wsFreedomStudio/sifive_hifive1_revb_HCSR04/freedom-metal/src/drivers/riscv_cpu.c:25
200124e6:	1101                	addi	sp,sp,-32
200124e8:	ce22                	sw	s0,28(sp)
200124ea:	1000                	addi	s0,sp,32
200124ec:	fea42623          	sw	a0,-20(s0)
/home/nicoladgg/wsFreedomStudio/sifive_hifive1_revb_HCSR04/freedom-metal/src/drivers/riscv_cpu.c:26
200124f0:	fec42783          	lw	a5,-20(s0)
200124f4:	00f04c63          	bgtz	a5,2001250c <__metal_driver_cpu_get+0x26>
/home/nicoladgg/wsFreedomStudio/sifive_hifive1_revb_HCSR04/freedom-metal/src/drivers/riscv_cpu.c:27
200124f8:	800017b7          	lui	a5,0x80001
200124fc:	fec42703          	lw	a4,-20(s0)
20012500:	070a                	slli	a4,a4,0x2
20012502:	aa078793          	addi	a5,a5,-1376 # 80000aa0 <metal_segment_heap_target_end+0xfffff320>
20012506:	97ba                	add	a5,a5,a4
20012508:	439c                	lw	a5,0(a5)
2001250a:	a011                	j	2001250e <__metal_driver_cpu_get+0x28>
/home/nicoladgg/wsFreedomStudio/sifive_hifive1_revb_HCSR04/freedom-metal/src/drivers/riscv_cpu.c:29
2001250c:	4781                	li	a5,0
/home/nicoladgg/wsFreedomStudio/sifive_hifive1_revb_HCSR04/freedom-metal/src/drivers/riscv_cpu.c:30
2001250e:	853e                	mv	a0,a5
20012510:	4472                	lw	s0,28(sp)
20012512:	6105                	addi	sp,sp,32
20012514:	8082                	ret

20012516 <__metal_myhart_id>:
__metal_myhart_id():
/home/nicoladgg/wsFreedomStudio/sifive_hifive1_revb_HCSR04/freedom-metal/src/drivers/riscv_cpu.c:32
20012516:	1101                	addi	sp,sp,-32
20012518:	ce22                	sw	s0,28(sp)
2001251a:	1000                	addi	s0,sp,32
/home/nicoladgg/wsFreedomStudio/sifive_hifive1_revb_HCSR04/freedom-metal/src/drivers/riscv_cpu.c:34
2001251c:	f14027f3          	csrr	a5,mhartid
20012520:	fef42623          	sw	a5,-20(s0)
/home/nicoladgg/wsFreedomStudio/sifive_hifive1_revb_HCSR04/freedom-metal/src/drivers/riscv_cpu.c:35
20012524:	fec42783          	lw	a5,-20(s0)
/home/nicoladgg/wsFreedomStudio/sifive_hifive1_revb_HCSR04/freedom-metal/src/drivers/riscv_cpu.c:36
20012528:	853e                	mv	a0,a5
2001252a:	4472                	lw	s0,28(sp)
2001252c:	6105                	addi	sp,sp,32
2001252e:	8082                	ret

20012530 <__metal_interrupt_global_enable>:
__metal_interrupt_global_enable():
/home/nicoladgg/wsFreedomStudio/sifive_hifive1_revb_HCSR04/freedom-metal/src/drivers/riscv_cpu.c:45
20012530:	1101                	addi	sp,sp,-32
20012532:	ce22                	sw	s0,28(sp)
20012534:	1000                	addi	s0,sp,32
/home/nicoladgg/wsFreedomStudio/sifive_hifive1_revb_HCSR04/freedom-metal/src/drivers/riscv_cpu.c:47
20012536:	47a1                	li	a5,8
20012538:	3007a7f3          	csrrs	a5,mstatus,a5
2001253c:	fef42623          	sw	a5,-20(s0)
/home/nicoladgg/wsFreedomStudio/sifive_hifive1_revb_HCSR04/freedom-metal/src/drivers/riscv_cpu.c:50
20012540:	0001                	nop
20012542:	4472                	lw	s0,28(sp)
20012544:	6105                	addi	sp,sp,32
20012546:	8082                	ret

20012548 <__metal_interrupt_global_disable>:
__metal_interrupt_global_disable():
/home/nicoladgg/wsFreedomStudio/sifive_hifive1_revb_HCSR04/freedom-metal/src/drivers/riscv_cpu.c:52
20012548:	1101                	addi	sp,sp,-32
2001254a:	ce22                	sw	s0,28(sp)
2001254c:	1000                	addi	s0,sp,32
/home/nicoladgg/wsFreedomStudio/sifive_hifive1_revb_HCSR04/freedom-metal/src/drivers/riscv_cpu.c:54
2001254e:	47a1                	li	a5,8
20012550:	3007b7f3          	csrrc	a5,mstatus,a5
20012554:	fef42623          	sw	a5,-20(s0)
/home/nicoladgg/wsFreedomStudio/sifive_hifive1_revb_HCSR04/freedom-metal/src/drivers/riscv_cpu.c:57
20012558:	0001                	nop
2001255a:	4472                	lw	s0,28(sp)
2001255c:	6105                	addi	sp,sp,32
2001255e:	8082                	ret

20012560 <__metal_interrupt_software_enable>:
__metal_interrupt_software_enable():
/home/nicoladgg/wsFreedomStudio/sifive_hifive1_revb_HCSR04/freedom-metal/src/drivers/riscv_cpu.c:59
20012560:	1101                	addi	sp,sp,-32
20012562:	ce22                	sw	s0,28(sp)
20012564:	1000                	addi	s0,sp,32
/home/nicoladgg/wsFreedomStudio/sifive_hifive1_revb_HCSR04/freedom-metal/src/drivers/riscv_cpu.c:61
20012566:	47a1                	li	a5,8
20012568:	3047a7f3          	csrrs	a5,mie,a5
2001256c:	fef42623          	sw	a5,-20(s0)
/home/nicoladgg/wsFreedomStudio/sifive_hifive1_revb_HCSR04/freedom-metal/src/drivers/riscv_cpu.c:64
20012570:	0001                	nop
20012572:	4472                	lw	s0,28(sp)
20012574:	6105                	addi	sp,sp,32
20012576:	8082                	ret

20012578 <__metal_interrupt_software_disable>:
__metal_interrupt_software_disable():
/home/nicoladgg/wsFreedomStudio/sifive_hifive1_revb_HCSR04/freedom-metal/src/drivers/riscv_cpu.c:66
20012578:	1101                	addi	sp,sp,-32
2001257a:	ce22                	sw	s0,28(sp)
2001257c:	1000                	addi	s0,sp,32
/home/nicoladgg/wsFreedomStudio/sifive_hifive1_revb_HCSR04/freedom-metal/src/drivers/riscv_cpu.c:68
2001257e:	47a1                	li	a5,8
20012580:	3047b7f3          	csrrc	a5,mie,a5
20012584:	fef42623          	sw	a5,-20(s0)
/home/nicoladgg/wsFreedomStudio/sifive_hifive1_revb_HCSR04/freedom-metal/src/drivers/riscv_cpu.c:71
20012588:	0001                	nop
2001258a:	4472                	lw	s0,28(sp)
2001258c:	6105                	addi	sp,sp,32
2001258e:	8082                	ret

20012590 <__metal_interrupt_timer_enable>:
__metal_interrupt_timer_enable():
/home/nicoladgg/wsFreedomStudio/sifive_hifive1_revb_HCSR04/freedom-metal/src/drivers/riscv_cpu.c:73
20012590:	1101                	addi	sp,sp,-32
20012592:	ce22                	sw	s0,28(sp)
20012594:	1000                	addi	s0,sp,32
/home/nicoladgg/wsFreedomStudio/sifive_hifive1_revb_HCSR04/freedom-metal/src/drivers/riscv_cpu.c:75
20012596:	08000793          	li	a5,128
2001259a:	3047a7f3          	csrrs	a5,mie,a5
2001259e:	fef42623          	sw	a5,-20(s0)
/home/nicoladgg/wsFreedomStudio/sifive_hifive1_revb_HCSR04/freedom-metal/src/drivers/riscv_cpu.c:78
200125a2:	0001                	nop
200125a4:	4472                	lw	s0,28(sp)
200125a6:	6105                	addi	sp,sp,32
200125a8:	8082                	ret

200125aa <__metal_interrupt_timer_disable>:
__metal_interrupt_timer_disable():
/home/nicoladgg/wsFreedomStudio/sifive_hifive1_revb_HCSR04/freedom-metal/src/drivers/riscv_cpu.c:80
200125aa:	1101                	addi	sp,sp,-32
200125ac:	ce22                	sw	s0,28(sp)
200125ae:	1000                	addi	s0,sp,32
/home/nicoladgg/wsFreedomStudio/sifive_hifive1_revb_HCSR04/freedom-metal/src/drivers/riscv_cpu.c:82
200125b0:	08000793          	li	a5,128
200125b4:	3047b7f3          	csrrc	a5,mie,a5
200125b8:	fef42623          	sw	a5,-20(s0)
/home/nicoladgg/wsFreedomStudio/sifive_hifive1_revb_HCSR04/freedom-metal/src/drivers/riscv_cpu.c:85
200125bc:	0001                	nop
200125be:	4472                	lw	s0,28(sp)
200125c0:	6105                	addi	sp,sp,32
200125c2:	8082                	ret

200125c4 <__metal_interrupt_external_enable>:
__metal_interrupt_external_enable():
/home/nicoladgg/wsFreedomStudio/sifive_hifive1_revb_HCSR04/freedom-metal/src/drivers/riscv_cpu.c:87
200125c4:	1101                	addi	sp,sp,-32
200125c6:	ce22                	sw	s0,28(sp)
200125c8:	1000                	addi	s0,sp,32
/home/nicoladgg/wsFreedomStudio/sifive_hifive1_revb_HCSR04/freedom-metal/src/drivers/riscv_cpu.c:89
200125ca:	6785                	lui	a5,0x1
200125cc:	80078793          	addi	a5,a5,-2048 # 800 <__heap_size>
200125d0:	3047a7f3          	csrrs	a5,mie,a5
200125d4:	fef42623          	sw	a5,-20(s0)
/home/nicoladgg/wsFreedomStudio/sifive_hifive1_revb_HCSR04/freedom-metal/src/drivers/riscv_cpu.c:92
200125d8:	0001                	nop
200125da:	4472                	lw	s0,28(sp)
200125dc:	6105                	addi	sp,sp,32
200125de:	8082                	ret

200125e0 <__metal_interrupt_external_disable>:
__metal_interrupt_external_disable():
/home/nicoladgg/wsFreedomStudio/sifive_hifive1_revb_HCSR04/freedom-metal/src/drivers/riscv_cpu.c:94
200125e0:	1101                	addi	sp,sp,-32
200125e2:	ce22                	sw	s0,28(sp)
200125e4:	1000                	addi	s0,sp,32
/home/nicoladgg/wsFreedomStudio/sifive_hifive1_revb_HCSR04/freedom-metal/src/drivers/riscv_cpu.c:96
200125e6:	6785                	lui	a5,0x1
200125e8:	80078793          	addi	a5,a5,-2048 # 800 <__heap_size>
200125ec:	3047b7f3          	csrrc	a5,mie,a5
200125f0:	fef42623          	sw	a5,-20(s0)
/home/nicoladgg/wsFreedomStudio/sifive_hifive1_revb_HCSR04/freedom-metal/src/drivers/riscv_cpu.c:99
200125f4:	0001                	nop
200125f6:	4472                	lw	s0,28(sp)
200125f8:	6105                	addi	sp,sp,32
200125fa:	8082                	ret

200125fc <__metal_interrupt_local_enable>:
__metal_interrupt_local_enable():
/home/nicoladgg/wsFreedomStudio/sifive_hifive1_revb_HCSR04/freedom-metal/src/drivers/riscv_cpu.c:101
200125fc:	7179                	addi	sp,sp,-48
200125fe:	d622                	sw	s0,44(sp)
20012600:	1800                	addi	s0,sp,48
20012602:	fca42e23          	sw	a0,-36(s0)
/home/nicoladgg/wsFreedomStudio/sifive_hifive1_revb_HCSR04/freedom-metal/src/drivers/riscv_cpu.c:102
20012606:	fdc42783          	lw	a5,-36(s0)
2001260a:	4705                	li	a4,1
2001260c:	00f717b3          	sll	a5,a4,a5
20012610:	fef42623          	sw	a5,-20(s0)
/home/nicoladgg/wsFreedomStudio/sifive_hifive1_revb_HCSR04/freedom-metal/src/drivers/riscv_cpu.c:104
20012614:	fec42783          	lw	a5,-20(s0)
20012618:	3047a7f3          	csrrs	a5,mie,a5
2001261c:	fef42423          	sw	a5,-24(s0)
/home/nicoladgg/wsFreedomStudio/sifive_hifive1_revb_HCSR04/freedom-metal/src/drivers/riscv_cpu.c:105
20012620:	0001                	nop
20012622:	5432                	lw	s0,44(sp)
20012624:	6145                	addi	sp,sp,48
20012626:	8082                	ret

20012628 <__metal_interrupt_local_disable>:
__metal_interrupt_local_disable():
/home/nicoladgg/wsFreedomStudio/sifive_hifive1_revb_HCSR04/freedom-metal/src/drivers/riscv_cpu.c:107
20012628:	7179                	addi	sp,sp,-48
2001262a:	d622                	sw	s0,44(sp)
2001262c:	1800                	addi	s0,sp,48
2001262e:	fca42e23          	sw	a0,-36(s0)
/home/nicoladgg/wsFreedomStudio/sifive_hifive1_revb_HCSR04/freedom-metal/src/drivers/riscv_cpu.c:108
20012632:	fdc42783          	lw	a5,-36(s0)
20012636:	4705                	li	a4,1
20012638:	00f717b3          	sll	a5,a4,a5
2001263c:	fef42623          	sw	a5,-20(s0)
/home/nicoladgg/wsFreedomStudio/sifive_hifive1_revb_HCSR04/freedom-metal/src/drivers/riscv_cpu.c:110
20012640:	fec42783          	lw	a5,-20(s0)
20012644:	3047b7f3          	csrrc	a5,mie,a5
20012648:	fef42423          	sw	a5,-24(s0)
/home/nicoladgg/wsFreedomStudio/sifive_hifive1_revb_HCSR04/freedom-metal/src/drivers/riscv_cpu.c:111
2001264c:	0001                	nop
2001264e:	5432                	lw	s0,44(sp)
20012650:	6145                	addi	sp,sp,48
20012652:	8082                	ret

20012654 <__metal_default_exception_handler>:
__metal_default_exception_handler():
/home/nicoladgg/wsFreedomStudio/sifive_hifive1_revb_HCSR04/freedom-metal/src/drivers/riscv_cpu.c:113
20012654:	1101                	addi	sp,sp,-32
20012656:	ce06                	sw	ra,28(sp)
20012658:	cc22                	sw	s0,24(sp)
2001265a:	1000                	addi	s0,sp,32
2001265c:	fea42623          	sw	a0,-20(s0)
20012660:	feb42423          	sw	a1,-24(s0)
/home/nicoladgg/wsFreedomStudio/sifive_hifive1_revb_HCSR04/freedom-metal/src/drivers/riscv_cpu.c:114
20012664:	06400513          	li	a0,100
20012668:	67f030ef          	jal	ra,200164e6 <metal_shutdown>

2001266c <__metal_default_interrupt_handler>:
__metal_default_interrupt_handler():
/home/nicoladgg/wsFreedomStudio/sifive_hifive1_revb_HCSR04/freedom-metal/src/drivers/riscv_cpu.c:117
2001266c:	1101                	addi	sp,sp,-32
2001266e:	ce06                	sw	ra,28(sp)
20012670:	cc22                	sw	s0,24(sp)
20012672:	1000                	addi	s0,sp,32
20012674:	fea42623          	sw	a0,-20(s0)
20012678:	feb42423          	sw	a1,-24(s0)
/home/nicoladgg/wsFreedomStudio/sifive_hifive1_revb_HCSR04/freedom-metal/src/drivers/riscv_cpu.c:118
2001267c:	0c800513          	li	a0,200
20012680:	667030ef          	jal	ra,200164e6 <metal_shutdown>

20012684 <metal_interrupt_vector_handler>:
metal_interrupt_vector_handler():
/home/nicoladgg/wsFreedomStudio/sifive_hifive1_revb_HCSR04/freedom-metal/src/drivers/riscv_cpu.c:122
20012684:	715d                	addi	sp,sp,-80
20012686:	c686                	sw	ra,76(sp)
20012688:	c496                	sw	t0,72(sp)
2001268a:	c29a                	sw	t1,68(sp)
2001268c:	c09e                	sw	t2,64(sp)
2001268e:	de22                	sw	s0,60(sp)
20012690:	dc2a                	sw	a0,56(sp)
20012692:	da2e                	sw	a1,52(sp)
20012694:	d832                	sw	a2,48(sp)
20012696:	d636                	sw	a3,44(sp)
20012698:	d43a                	sw	a4,40(sp)
2001269a:	d23e                	sw	a5,36(sp)
2001269c:	d042                	sw	a6,32(sp)
2001269e:	ce46                	sw	a7,28(sp)
200126a0:	cc72                	sw	t3,24(sp)
200126a2:	ca76                	sw	t4,20(sp)
200126a4:	c87a                	sw	t5,16(sp)
200126a6:	c67e                	sw	t6,12(sp)
200126a8:	0880                	addi	s0,sp,80
/home/nicoladgg/wsFreedomStudio/sifive_hifive1_revb_HCSR04/freedom-metal/src/drivers/riscv_cpu.c:123
200126aa:	12c00513          	li	a0,300
200126ae:	639030ef          	jal	ra,200164e6 <metal_shutdown>

200126b2 <metal_software_interrupt_vector_handler>:
metal_software_interrupt_vector_handler():
/home/nicoladgg/wsFreedomStudio/sifive_hifive1_revb_HCSR04/freedom-metal/src/drivers/riscv_cpu.c:128
200126b2:	711d                	addi	sp,sp,-96
200126b4:	ce86                	sw	ra,92(sp)
200126b6:	cc96                	sw	t0,88(sp)
200126b8:	ca9a                	sw	t1,84(sp)
200126ba:	c89e                	sw	t2,80(sp)
200126bc:	c6a2                	sw	s0,76(sp)
200126be:	c4aa                	sw	a0,72(sp)
200126c0:	c2ae                	sw	a1,68(sp)
200126c2:	c0b2                	sw	a2,64(sp)
200126c4:	de36                	sw	a3,60(sp)
200126c6:	dc3a                	sw	a4,56(sp)
200126c8:	da3e                	sw	a5,52(sp)
200126ca:	d842                	sw	a6,48(sp)
200126cc:	d646                	sw	a7,44(sp)
200126ce:	d472                	sw	t3,40(sp)
200126d0:	d276                	sw	t4,36(sp)
200126d2:	d07a                	sw	t5,32(sp)
200126d4:	ce7e                	sw	t6,28(sp)
200126d6:	1080                	addi	s0,sp,96
/home/nicoladgg/wsFreedomStudio/sifive_hifive1_revb_HCSR04/freedom-metal/src/drivers/riscv_cpu.c:129
200126d8:	3d3d                	jal	20012516 <__metal_myhart_id>
200126da:	872a                	mv	a4,a0
200126dc:	800017b7          	lui	a5,0x80001
200126e0:	070a                	slli	a4,a4,0x2
200126e2:	aa078793          	addi	a5,a5,-1376 # 80000aa0 <metal_segment_heap_target_end+0xfffff320>
200126e6:	97ba                	add	a5,a5,a4
200126e8:	439c                	lw	a5,0(a5)
200126ea:	faf42623          	sw	a5,-84(s0)
200126ee:	fac42783          	lw	a5,-84(s0)
200126f2:	c785                	beqz	a5,2001271a <metal_software_interrupt_vector_handler+0x68>
/home/nicoladgg/wsFreedomStudio/sifive_hifive1_revb_HCSR04/freedom-metal/src/drivers/riscv_cpu.c:129 (discriminator 1)
200126f4:	fac42503          	lw	a0,-84(s0)
200126f8:	3345                	jal	20012498 <__metal_driver_cpu_interrupt_controller>
200126fa:	faa42423          	sw	a0,-88(s0)
200126fe:	fa842783          	lw	a5,-88(s0)
20012702:	0e07a783          	lw	a5,224(a5)
20012706:	faf42223          	sw	a5,-92(s0)
2001270a:	fa842783          	lw	a5,-88(s0)
2001270e:	0d87a783          	lw	a5,216(a5)
20012712:	fa442583          	lw	a1,-92(s0)
20012716:	450d                	li	a0,3
20012718:	9782                	jalr	a5
/home/nicoladgg/wsFreedomStudio/sifive_hifive1_revb_HCSR04/freedom-metal/src/drivers/riscv_cpu.c:130
2001271a:	0001                	nop
2001271c:	40f6                	lw	ra,92(sp)
2001271e:	42e6                	lw	t0,88(sp)
20012720:	4356                	lw	t1,84(sp)
20012722:	43c6                	lw	t2,80(sp)
20012724:	4436                	lw	s0,76(sp)
20012726:	4526                	lw	a0,72(sp)
20012728:	4596                	lw	a1,68(sp)
2001272a:	4606                	lw	a2,64(sp)
2001272c:	56f2                	lw	a3,60(sp)
2001272e:	5762                	lw	a4,56(sp)
20012730:	57d2                	lw	a5,52(sp)
20012732:	5842                	lw	a6,48(sp)
20012734:	58b2                	lw	a7,44(sp)
20012736:	5e22                	lw	t3,40(sp)
20012738:	5e92                	lw	t4,36(sp)
2001273a:	5f02                	lw	t5,32(sp)
2001273c:	4ff2                	lw	t6,28(sp)
2001273e:	6125                	addi	sp,sp,96
20012740:	30200073          	mret

20012744 <__metal_default_sw_handler>:
__metal_default_sw_handler():
/home/nicoladgg/wsFreedomStudio/sifive_hifive1_revb_HCSR04/freedom-metal/src/drivers/riscv_cpu.c:132
20012744:	7179                	addi	sp,sp,-48
20012746:	d606                	sw	ra,44(sp)
20012748:	d422                	sw	s0,40(sp)
2001274a:	1800                	addi	s0,sp,48
2001274c:	fca42e23          	sw	a0,-36(s0)
20012750:	fcb42c23          	sw	a1,-40(s0)
/home/nicoladgg/wsFreedomStudio/sifive_hifive1_revb_HCSR04/freedom-metal/src/drivers/riscv_cpu.c:135
20012754:	33c9                	jal	20012516 <__metal_myhart_id>
20012756:	872a                	mv	a4,a0
20012758:	800017b7          	lui	a5,0x80001
2001275c:	070a                	slli	a4,a4,0x2
2001275e:	aa078793          	addi	a5,a5,-1376 # 80000aa0 <metal_segment_heap_target_end+0xfffff320>
20012762:	97ba                	add	a5,a5,a4
20012764:	439c                	lw	a5,0(a5)
20012766:	fef42623          	sw	a5,-20(s0)
/home/nicoladgg/wsFreedomStudio/sifive_hifive1_revb_HCSR04/freedom-metal/src/drivers/riscv_cpu.c:137
2001276a:	342027f3          	csrr	a5,mcause
2001276e:	fef42423          	sw	a5,-24(s0)
/home/nicoladgg/wsFreedomStudio/sifive_hifive1_revb_HCSR04/freedom-metal/src/drivers/riscv_cpu.c:138
20012772:	fec42783          	lw	a5,-20(s0)
20012776:	c795                	beqz	a5,200127a2 <__metal_default_sw_handler+0x5e>
/home/nicoladgg/wsFreedomStudio/sifive_hifive1_revb_HCSR04/freedom-metal/src/drivers/riscv_cpu.c:140
20012778:	fec42503          	lw	a0,-20(s0)
2001277c:	3b31                	jal	20012498 <__metal_driver_cpu_interrupt_controller>
2001277e:	fea42223          	sw	a0,-28(s0)
/home/nicoladgg/wsFreedomStudio/sifive_hifive1_revb_HCSR04/freedom-metal/src/drivers/riscv_cpu.c:141
20012782:	fe842783          	lw	a5,-24(s0)
20012786:	3ff7f793          	andi	a5,a5,1023
2001278a:	fe442703          	lw	a4,-28(s0)
2001278e:	0e878793          	addi	a5,a5,232
20012792:	078a                	slli	a5,a5,0x2
20012794:	97ba                	add	a5,a5,a4
20012796:	439c                	lw	a5,0(a5)
20012798:	fdc42583          	lw	a1,-36(s0)
2001279c:	fec42503          	lw	a0,-20(s0)
200127a0:	9782                	jalr	a5
/home/nicoladgg/wsFreedomStudio/sifive_hifive1_revb_HCSR04/freedom-metal/src/drivers/riscv_cpu.c:144
200127a2:	0001                	nop
200127a4:	50b2                	lw	ra,44(sp)
200127a6:	5422                	lw	s0,40(sp)
200127a8:	6145                	addi	sp,sp,48
200127aa:	8082                	ret

200127ac <metal_timer_interrupt_vector_handler>:
metal_timer_interrupt_vector_handler():
/home/nicoladgg/wsFreedomStudio/sifive_hifive1_revb_HCSR04/freedom-metal/src/drivers/riscv_cpu.c:148
200127ac:	711d                	addi	sp,sp,-96
200127ae:	ce86                	sw	ra,92(sp)
200127b0:	cc96                	sw	t0,88(sp)
200127b2:	ca9a                	sw	t1,84(sp)
200127b4:	c89e                	sw	t2,80(sp)
200127b6:	c6a2                	sw	s0,76(sp)
200127b8:	c4aa                	sw	a0,72(sp)
200127ba:	c2ae                	sw	a1,68(sp)
200127bc:	c0b2                	sw	a2,64(sp)
200127be:	de36                	sw	a3,60(sp)
200127c0:	dc3a                	sw	a4,56(sp)
200127c2:	da3e                	sw	a5,52(sp)
200127c4:	d842                	sw	a6,48(sp)
200127c6:	d646                	sw	a7,44(sp)
200127c8:	d472                	sw	t3,40(sp)
200127ca:	d276                	sw	t4,36(sp)
200127cc:	d07a                	sw	t5,32(sp)
200127ce:	ce7e                	sw	t6,28(sp)
200127d0:	1080                	addi	s0,sp,96
/home/nicoladgg/wsFreedomStudio/sifive_hifive1_revb_HCSR04/freedom-metal/src/drivers/riscv_cpu.c:149
200127d2:	3391                	jal	20012516 <__metal_myhart_id>
200127d4:	872a                	mv	a4,a0
200127d6:	800017b7          	lui	a5,0x80001
200127da:	070a                	slli	a4,a4,0x2
200127dc:	aa078793          	addi	a5,a5,-1376 # 80000aa0 <metal_segment_heap_target_end+0xfffff320>
200127e0:	97ba                	add	a5,a5,a4
200127e2:	439c                	lw	a5,0(a5)
200127e4:	faf42623          	sw	a5,-84(s0)
200127e8:	fac42783          	lw	a5,-84(s0)
200127ec:	c785                	beqz	a5,20012814 <metal_timer_interrupt_vector_handler+0x68>
/home/nicoladgg/wsFreedomStudio/sifive_hifive1_revb_HCSR04/freedom-metal/src/drivers/riscv_cpu.c:149 (discriminator 1)
200127ee:	fac42503          	lw	a0,-84(s0)
200127f2:	315d                	jal	20012498 <__metal_driver_cpu_interrupt_controller>
200127f4:	faa42423          	sw	a0,-88(s0)
200127f8:	fa842783          	lw	a5,-88(s0)
200127fc:	1407a783          	lw	a5,320(a5)
20012800:	faf42223          	sw	a5,-92(s0)
20012804:	fa842783          	lw	a5,-88(s0)
20012808:	1387a783          	lw	a5,312(a5)
2001280c:	fa442583          	lw	a1,-92(s0)
20012810:	451d                	li	a0,7
20012812:	9782                	jalr	a5
/home/nicoladgg/wsFreedomStudio/sifive_hifive1_revb_HCSR04/freedom-metal/src/drivers/riscv_cpu.c:150
20012814:	0001                	nop
20012816:	40f6                	lw	ra,92(sp)
20012818:	42e6                	lw	t0,88(sp)
2001281a:	4356                	lw	t1,84(sp)
2001281c:	43c6                	lw	t2,80(sp)
2001281e:	4436                	lw	s0,76(sp)
20012820:	4526                	lw	a0,72(sp)
20012822:	4596                	lw	a1,68(sp)
20012824:	4606                	lw	a2,64(sp)
20012826:	56f2                	lw	a3,60(sp)
20012828:	5762                	lw	a4,56(sp)
2001282a:	57d2                	lw	a5,52(sp)
2001282c:	5842                	lw	a6,48(sp)
2001282e:	58b2                	lw	a7,44(sp)
20012830:	5e22                	lw	t3,40(sp)
20012832:	5e92                	lw	t4,36(sp)
20012834:	5f02                	lw	t5,32(sp)
20012836:	4ff2                	lw	t6,28(sp)
20012838:	6125                	addi	sp,sp,96
2001283a:	30200073          	mret

2001283e <__metal_default_beu_handler>:
__metal_default_beu_handler():
/home/nicoladgg/wsFreedomStudio/sifive_hifive1_revb_HCSR04/freedom-metal/src/drivers/riscv_cpu.c:152
2001283e:	1101                	addi	sp,sp,-32
20012840:	ce22                	sw	s0,28(sp)
20012842:	1000                	addi	s0,sp,32
20012844:	fea42623          	sw	a0,-20(s0)
20012848:	feb42423          	sw	a1,-24(s0)
2001284c:	0001                	nop
2001284e:	4472                	lw	s0,28(sp)
20012850:	6105                	addi	sp,sp,32
20012852:	8082                	ret

20012854 <__metal_default_timer_handler>:
__metal_default_timer_handler():
/home/nicoladgg/wsFreedomStudio/sifive_hifive1_revb_HCSR04/freedom-metal/src/drivers/riscv_cpu.c:154
20012854:	7179                	addi	sp,sp,-48
20012856:	d606                	sw	ra,44(sp)
20012858:	d422                	sw	s0,40(sp)
2001285a:	1800                	addi	s0,sp,48
2001285c:	fca42e23          	sw	a0,-36(s0)
20012860:	fcb42c23          	sw	a1,-40(s0)
/home/nicoladgg/wsFreedomStudio/sifive_hifive1_revb_HCSR04/freedom-metal/src/drivers/riscv_cpu.c:155
20012864:	394d                	jal	20012516 <__metal_myhart_id>
20012866:	87aa                	mv	a5,a0
20012868:	853e                	mv	a0,a5
2001286a:	39b5                	jal	200124e6 <__metal_driver_cpu_get>
2001286c:	fea42623          	sw	a0,-20(s0)
/home/nicoladgg/wsFreedomStudio/sifive_hifive1_revb_HCSR04/freedom-metal/src/drivers/riscv_cpu.c:156
20012870:	fec42503          	lw	a0,-20(s0)
20012874:	2a8010ef          	jal	ra,20013b1c <__metal_driver_cpu_mtime_get>
20012878:	fea42023          	sw	a0,-32(s0)
2001287c:	feb42223          	sw	a1,-28(s0)
/home/nicoladgg/wsFreedomStudio/sifive_hifive1_revb_HCSR04/freedom-metal/src/drivers/riscv_cpu.c:159
20012880:	fe042703          	lw	a4,-32(s0)
20012884:	fe442783          	lw	a5,-28(s0)
20012888:	4529                	li	a0,10
2001288a:	4581                	li	a1,0
2001288c:	00a70633          	add	a2,a4,a0
20012890:	8832                	mv	a6,a2
20012892:	00e83833          	sltu	a6,a6,a4
20012896:	00b786b3          	add	a3,a5,a1
2001289a:	00d807b3          	add	a5,a6,a3
2001289e:	86be                	mv	a3,a5
200128a0:	8732                	mv	a4,a2
200128a2:	87b6                	mv	a5,a3
200128a4:	85ba                	mv	a1,a4
200128a6:	863e                	mv	a2,a5
200128a8:	fec42503          	lw	a0,-20(s0)
200128ac:	2d6010ef          	jal	ra,20013b82 <__metal_driver_cpu_mtimecmp_set>
/home/nicoladgg/wsFreedomStudio/sifive_hifive1_revb_HCSR04/freedom-metal/src/drivers/riscv_cpu.c:160
200128b0:	0001                	nop
200128b2:	50b2                	lw	ra,44(sp)
200128b4:	5422                	lw	s0,40(sp)
200128b6:	6145                	addi	sp,sp,48
200128b8:	8082                	ret
	...

20012900 <__metal_exception_handler>:
__metal_exception_handler():
/home/nicoladgg/wsFreedomStudio/sifive_hifive1_revb_HCSR04/freedom-metal/src/drivers/riscv_cpu.c:169
20012900:	7119                	addi	sp,sp,-128
20012902:	de86                	sw	ra,124(sp)
20012904:	dc96                	sw	t0,120(sp)
20012906:	da9a                	sw	t1,116(sp)
20012908:	d89e                	sw	t2,112(sp)
2001290a:	d6a2                	sw	s0,108(sp)
2001290c:	d4aa                	sw	a0,104(sp)
2001290e:	d2ae                	sw	a1,100(sp)
20012910:	d0b2                	sw	a2,96(sp)
20012912:	ceb6                	sw	a3,92(sp)
20012914:	ccba                	sw	a4,88(sp)
20012916:	cabe                	sw	a5,84(sp)
20012918:	c8c2                	sw	a6,80(sp)
2001291a:	c6c6                	sw	a7,76(sp)
2001291c:	c4f2                	sw	t3,72(sp)
2001291e:	c2f6                	sw	t4,68(sp)
20012920:	c0fa                	sw	t5,64(sp)
20012922:	de7e                	sw	t6,60(sp)
20012924:	0100                	addi	s0,sp,128
/home/nicoladgg/wsFreedomStudio/sifive_hifive1_revb_HCSR04/freedom-metal/src/drivers/riscv_cpu.c:174
20012926:	3ec5                	jal	20012516 <__metal_myhart_id>
20012928:	872a                	mv	a4,a0
2001292a:	800017b7          	lui	a5,0x80001
2001292e:	070a                	slli	a4,a4,0x2
20012930:	aa078793          	addi	a5,a5,-1376 # 80000aa0 <metal_segment_heap_target_end+0xfffff320>
20012934:	97ba                	add	a5,a5,a4
20012936:	439c                	lw	a5,0(a5)
20012938:	faf42623          	sw	a5,-84(s0)
/home/nicoladgg/wsFreedomStudio/sifive_hifive1_revb_HCSR04/freedom-metal/src/drivers/riscv_cpu.c:176
2001293c:	342027f3          	csrr	a5,mcause
20012940:	faf42423          	sw	a5,-88(s0)
/home/nicoladgg/wsFreedomStudio/sifive_hifive1_revb_HCSR04/freedom-metal/src/drivers/riscv_cpu.c:177
20012944:	341027f3          	csrr	a5,mepc
20012948:	faf42223          	sw	a5,-92(s0)
/home/nicoladgg/wsFreedomStudio/sifive_hifive1_revb_HCSR04/freedom-metal/src/drivers/riscv_cpu.c:178
2001294c:	343027f3          	csrr	a5,mtval
20012950:	faf42023          	sw	a5,-96(s0)
/home/nicoladgg/wsFreedomStudio/sifive_hifive1_revb_HCSR04/freedom-metal/src/drivers/riscv_cpu.c:179
20012954:	305027f3          	csrr	a5,mtvec
20012958:	f8f42e23          	sw	a5,-100(s0)
/home/nicoladgg/wsFreedomStudio/sifive_hifive1_revb_HCSR04/freedom-metal/src/drivers/riscv_cpu.c:181
2001295c:	fac42783          	lw	a5,-84(s0)
20012960:	cbfd                	beqz	a5,20012a56 <__metal_exception_handler+0x156>
/home/nicoladgg/wsFreedomStudio/sifive_hifive1_revb_HCSR04/freedom-metal/src/drivers/riscv_cpu.c:183
20012962:	fac42503          	lw	a0,-84(s0)
20012966:	b33ff0ef          	jal	ra,20012498 <__metal_driver_cpu_interrupt_controller>
2001296a:	f8a42c23          	sw	a0,-104(s0)
/home/nicoladgg/wsFreedomStudio/sifive_hifive1_revb_HCSR04/freedom-metal/src/drivers/riscv_cpu.c:184
2001296e:	fa842783          	lw	a5,-88(s0)
20012972:	3ff7f793          	andi	a5,a5,1023
20012976:	f8f42a23          	sw	a5,-108(s0)
/home/nicoladgg/wsFreedomStudio/sifive_hifive1_revb_HCSR04/freedom-metal/src/drivers/riscv_cpu.c:185
2001297a:	fa842783          	lw	a5,-88(s0)
2001297e:	0a07de63          	bgez	a5,20012a3a <__metal_exception_handler+0x13a>
/home/nicoladgg/wsFreedomStudio/sifive_hifive1_revb_HCSR04/freedom-metal/src/drivers/riscv_cpu.c:186
20012982:	f9442703          	lw	a4,-108(s0)
20012986:	08000793          	li	a5,128
2001298a:	02f71263          	bne	a4,a5,200129ae <__metal_exception_handler+0xae>
/home/nicoladgg/wsFreedomStudio/sifive_hifive1_revb_HCSR04/freedom-metal/src/drivers/riscv_cpu.c:187
2001298e:	f9842783          	lw	a5,-104(s0)
20012992:	3987a783          	lw	a5,920(a5)
20012996:	f8f42623          	sw	a5,-116(s0)
/home/nicoladgg/wsFreedomStudio/sifive_hifive1_revb_HCSR04/freedom-metal/src/drivers/riscv_cpu.c:188
2001299a:	f9842783          	lw	a5,-104(s0)
2001299e:	3907a783          	lw	a5,912(a5)
200129a2:	f8c42583          	lw	a1,-116(s0)
200129a6:	f9442503          	lw	a0,-108(s0)
200129aa:	9782                	jalr	a5
/home/nicoladgg/wsFreedomStudio/sifive_hifive1_revb_HCSR04/freedom-metal/src/drivers/riscv_cpu.c:189
200129ac:	a06d                	j	20012a56 <__metal_exception_handler+0x156>
/home/nicoladgg/wsFreedomStudio/sifive_hifive1_revb_HCSR04/freedom-metal/src/drivers/riscv_cpu.c:191
200129ae:	f9442703          	lw	a4,-108(s0)
200129b2:	47ad                	li	a5,11
200129b4:	00e7d763          	bge	a5,a4,200129c2 <__metal_exception_handler+0xc2>
/home/nicoladgg/wsFreedomStudio/sifive_hifive1_revb_HCSR04/freedom-metal/src/drivers/riscv_cpu.c:192 (discriminator 1)
200129b8:	f9c42783          	lw	a5,-100(s0)
200129bc:	03f7f793          	andi	a5,a5,63
/home/nicoladgg/wsFreedomStudio/sifive_hifive1_revb_HCSR04/freedom-metal/src/drivers/riscv_cpu.c:191 (discriminator 1)
200129c0:	ef9d                	bnez	a5,200129fe <__metal_exception_handler+0xfe>
/home/nicoladgg/wsFreedomStudio/sifive_hifive1_revb_HCSR04/freedom-metal/src/drivers/riscv_cpu.c:193
200129c2:	f9842683          	lw	a3,-104(s0)
200129c6:	f9442703          	lw	a4,-108(s0)
200129ca:	87ba                	mv	a5,a4
200129cc:	0786                	slli	a5,a5,0x1
200129ce:	97ba                	add	a5,a5,a4
200129d0:	078e                	slli	a5,a5,0x3
200129d2:	97b6                	add	a5,a5,a3
200129d4:	0987a783          	lw	a5,152(a5)
200129d8:	f8f42623          	sw	a5,-116(s0)
/home/nicoladgg/wsFreedomStudio/sifive_hifive1_revb_HCSR04/freedom-metal/src/drivers/riscv_cpu.c:194
200129dc:	f9842683          	lw	a3,-104(s0)
200129e0:	f9442703          	lw	a4,-108(s0)
200129e4:	87ba                	mv	a5,a4
200129e6:	0786                	slli	a5,a5,0x1
200129e8:	97ba                	add	a5,a5,a4
200129ea:	078e                	slli	a5,a5,0x3
200129ec:	97b6                	add	a5,a5,a3
200129ee:	0907a783          	lw	a5,144(a5)
200129f2:	f8c42583          	lw	a1,-116(s0)
200129f6:	f9442503          	lw	a0,-108(s0)
200129fa:	9782                	jalr	a5
/home/nicoladgg/wsFreedomStudio/sifive_hifive1_revb_HCSR04/freedom-metal/src/drivers/riscv_cpu.c:195
200129fc:	a8a9                	j	20012a56 <__metal_exception_handler+0x156>
/home/nicoladgg/wsFreedomStudio/sifive_hifive1_revb_HCSR04/freedom-metal/src/drivers/riscv_cpu.c:197
200129fe:	f9c42783          	lw	a5,-100(s0)
20012a02:	03f7f713          	andi	a4,a5,63
20012a06:	4789                	li	a5,2
20012a08:	04f71763          	bne	a4,a5,20012a56 <__metal_exception_handler+0x156>
/home/nicoladgg/wsFreedomStudio/sifive_hifive1_revb_HCSR04/freedom-metal/src/drivers/riscv_cpu.c:201
20012a0c:	307027f3          	csrr	a5,mtvt
20012a10:	f8f42823          	sw	a5,-112(s0)
/home/nicoladgg/wsFreedomStudio/sifive_hifive1_revb_HCSR04/freedom-metal/src/drivers/riscv_cpu.c:202
20012a14:	f9842783          	lw	a5,-104(s0)
20012a18:	0dc7a783          	lw	a5,220(a5)
20012a1c:	f8f42623          	sw	a5,-116(s0)
/home/nicoladgg/wsFreedomStudio/sifive_hifive1_revb_HCSR04/freedom-metal/src/drivers/riscv_cpu.c:203
20012a20:	f9042783          	lw	a5,-112(s0)
20012a24:	439c                	lw	a5,0(a5)
20012a26:	f8f42423          	sw	a5,-120(s0)
/home/nicoladgg/wsFreedomStudio/sifive_hifive1_revb_HCSR04/freedom-metal/src/drivers/riscv_cpu.c:204
20012a2a:	f8842783          	lw	a5,-120(s0)
20012a2e:	f8c42583          	lw	a1,-116(s0)
20012a32:	f9442503          	lw	a0,-108(s0)
20012a36:	9782                	jalr	a5
/home/nicoladgg/wsFreedomStudio/sifive_hifive1_revb_HCSR04/freedom-metal/src/drivers/riscv_cpu.c:205
20012a38:	a839                	j	20012a56 <__metal_exception_handler+0x156>
/home/nicoladgg/wsFreedomStudio/sifive_hifive1_revb_HCSR04/freedom-metal/src/drivers/riscv_cpu.c:208
20012a3a:	f9842703          	lw	a4,-104(s0)
20012a3e:	f9442783          	lw	a5,-108(s0)
20012a42:	0e878793          	addi	a5,a5,232
20012a46:	078a                	slli	a5,a5,0x2
20012a48:	97ba                	add	a5,a5,a4
20012a4a:	439c                	lw	a5,0(a5)
20012a4c:	f9442583          	lw	a1,-108(s0)
20012a50:	fac42503          	lw	a0,-84(s0)
20012a54:	9782                	jalr	a5
/home/nicoladgg/wsFreedomStudio/sifive_hifive1_revb_HCSR04/freedom-metal/src/drivers/riscv_cpu.c:211
20012a56:	50f6                	lw	ra,124(sp)
20012a58:	52e6                	lw	t0,120(sp)
20012a5a:	5356                	lw	t1,116(sp)
20012a5c:	53c6                	lw	t2,112(sp)
20012a5e:	5436                	lw	s0,108(sp)
20012a60:	5526                	lw	a0,104(sp)
20012a62:	5596                	lw	a1,100(sp)
20012a64:	5606                	lw	a2,96(sp)
20012a66:	46f6                	lw	a3,92(sp)
20012a68:	4766                	lw	a4,88(sp)
20012a6a:	47d6                	lw	a5,84(sp)
20012a6c:	4846                	lw	a6,80(sp)
20012a6e:	48b6                	lw	a7,76(sp)
20012a70:	4e26                	lw	t3,72(sp)
20012a72:	4e96                	lw	t4,68(sp)
20012a74:	4f06                	lw	t5,64(sp)
20012a76:	5ff2                	lw	t6,60(sp)
20012a78:	6109                	addi	sp,sp,128
20012a7a:	30200073          	mret
	...

20012af8 <metal_lc0_interrupt_vector_handler>:
metal_lc0_interrupt_vector_handler():
/home/nicoladgg/wsFreedomStudio/sifive_hifive1_revb_HCSR04/freedom-metal/src/drivers/riscv_cpu.c:214
20012af8:	711d                	addi	sp,sp,-96
20012afa:	ce86                	sw	ra,92(sp)
20012afc:	cc96                	sw	t0,88(sp)
20012afe:	ca9a                	sw	t1,84(sp)
20012b00:	c89e                	sw	t2,80(sp)
20012b02:	c6a2                	sw	s0,76(sp)
20012b04:	c4aa                	sw	a0,72(sp)
20012b06:	c2ae                	sw	a1,68(sp)
20012b08:	c0b2                	sw	a2,64(sp)
20012b0a:	de36                	sw	a3,60(sp)
20012b0c:	dc3a                	sw	a4,56(sp)
20012b0e:	da3e                	sw	a5,52(sp)
20012b10:	d842                	sw	a6,48(sp)
20012b12:	d646                	sw	a7,44(sp)
20012b14:	d472                	sw	t3,40(sp)
20012b16:	d276                	sw	t4,36(sp)
20012b18:	d07a                	sw	t5,32(sp)
20012b1a:	ce7e                	sw	t6,28(sp)
20012b1c:	1080                	addi	s0,sp,96
/home/nicoladgg/wsFreedomStudio/sifive_hifive1_revb_HCSR04/freedom-metal/src/drivers/riscv_cpu.c:215
20012b1e:	9f9ff0ef          	jal	ra,20012516 <__metal_myhart_id>
20012b22:	872a                	mv	a4,a0
20012b24:	800017b7          	lui	a5,0x80001
20012b28:	070a                	slli	a4,a4,0x2
20012b2a:	aa078793          	addi	a5,a5,-1376 # 80000aa0 <metal_segment_heap_target_end+0xfffff320>
20012b2e:	97ba                	add	a5,a5,a4
20012b30:	439c                	lw	a5,0(a5)
20012b32:	faf42623          	sw	a5,-84(s0)
20012b36:	fac42783          	lw	a5,-84(s0)
20012b3a:	c78d                	beqz	a5,20012b64 <metal_lc0_interrupt_vector_handler+0x6c>
/home/nicoladgg/wsFreedomStudio/sifive_hifive1_revb_HCSR04/freedom-metal/src/drivers/riscv_cpu.c:215 (discriminator 1)
20012b3c:	fac42503          	lw	a0,-84(s0)
20012b40:	959ff0ef          	jal	ra,20012498 <__metal_driver_cpu_interrupt_controller>
20012b44:	faa42423          	sw	a0,-88(s0)
20012b48:	fa842783          	lw	a5,-88(s0)
20012b4c:	2187a783          	lw	a5,536(a5)
20012b50:	faf42223          	sw	a5,-92(s0)
20012b54:	fa842783          	lw	a5,-88(s0)
20012b58:	2107a783          	lw	a5,528(a5)
20012b5c:	fa442583          	lw	a1,-92(s0)
20012b60:	4541                	li	a0,16
20012b62:	9782                	jalr	a5
/home/nicoladgg/wsFreedomStudio/sifive_hifive1_revb_HCSR04/freedom-metal/src/drivers/riscv_cpu.c:216
20012b64:	0001                	nop
20012b66:	40f6                	lw	ra,92(sp)
20012b68:	42e6                	lw	t0,88(sp)
20012b6a:	4356                	lw	t1,84(sp)
20012b6c:	43c6                	lw	t2,80(sp)
20012b6e:	4436                	lw	s0,76(sp)
20012b70:	4526                	lw	a0,72(sp)
20012b72:	4596                	lw	a1,68(sp)
20012b74:	4606                	lw	a2,64(sp)
20012b76:	56f2                	lw	a3,60(sp)
20012b78:	5762                	lw	a4,56(sp)
20012b7a:	57d2                	lw	a5,52(sp)
20012b7c:	5842                	lw	a6,48(sp)
20012b7e:	58b2                	lw	a7,44(sp)
20012b80:	5e22                	lw	t3,40(sp)
20012b82:	5e92                	lw	t4,36(sp)
20012b84:	5f02                	lw	t5,32(sp)
20012b86:	4ff2                	lw	t6,28(sp)
20012b88:	6125                	addi	sp,sp,96
20012b8a:	30200073          	mret

20012b8e <metal_lc1_interrupt_vector_handler>:
metal_lc1_interrupt_vector_handler():
/home/nicoladgg/wsFreedomStudio/sifive_hifive1_revb_HCSR04/freedom-metal/src/drivers/riscv_cpu.c:219
20012b8e:	711d                	addi	sp,sp,-96
20012b90:	ce86                	sw	ra,92(sp)
20012b92:	cc96                	sw	t0,88(sp)
20012b94:	ca9a                	sw	t1,84(sp)
20012b96:	c89e                	sw	t2,80(sp)
20012b98:	c6a2                	sw	s0,76(sp)
20012b9a:	c4aa                	sw	a0,72(sp)
20012b9c:	c2ae                	sw	a1,68(sp)
20012b9e:	c0b2                	sw	a2,64(sp)
20012ba0:	de36                	sw	a3,60(sp)
20012ba2:	dc3a                	sw	a4,56(sp)
20012ba4:	da3e                	sw	a5,52(sp)
20012ba6:	d842                	sw	a6,48(sp)
20012ba8:	d646                	sw	a7,44(sp)
20012baa:	d472                	sw	t3,40(sp)
20012bac:	d276                	sw	t4,36(sp)
20012bae:	d07a                	sw	t5,32(sp)
20012bb0:	ce7e                	sw	t6,28(sp)
20012bb2:	1080                	addi	s0,sp,96
/home/nicoladgg/wsFreedomStudio/sifive_hifive1_revb_HCSR04/freedom-metal/src/drivers/riscv_cpu.c:220
20012bb4:	963ff0ef          	jal	ra,20012516 <__metal_myhart_id>
20012bb8:	872a                	mv	a4,a0
20012bba:	800017b7          	lui	a5,0x80001
20012bbe:	070a                	slli	a4,a4,0x2
20012bc0:	aa078793          	addi	a5,a5,-1376 # 80000aa0 <metal_segment_heap_target_end+0xfffff320>
20012bc4:	97ba                	add	a5,a5,a4
20012bc6:	439c                	lw	a5,0(a5)
20012bc8:	faf42623          	sw	a5,-84(s0)
20012bcc:	fac42783          	lw	a5,-84(s0)
20012bd0:	c78d                	beqz	a5,20012bfa <metal_lc1_interrupt_vector_handler+0x6c>
/home/nicoladgg/wsFreedomStudio/sifive_hifive1_revb_HCSR04/freedom-metal/src/drivers/riscv_cpu.c:220 (discriminator 1)
20012bd2:	fac42503          	lw	a0,-84(s0)
20012bd6:	8c3ff0ef          	jal	ra,20012498 <__metal_driver_cpu_interrupt_controller>
20012bda:	faa42423          	sw	a0,-88(s0)
20012bde:	fa842783          	lw	a5,-88(s0)
20012be2:	2307a783          	lw	a5,560(a5)
20012be6:	faf42223          	sw	a5,-92(s0)
20012bea:	fa842783          	lw	a5,-88(s0)
20012bee:	2287a783          	lw	a5,552(a5)
20012bf2:	fa442583          	lw	a1,-92(s0)
20012bf6:	4545                	li	a0,17
20012bf8:	9782                	jalr	a5
/home/nicoladgg/wsFreedomStudio/sifive_hifive1_revb_HCSR04/freedom-metal/src/drivers/riscv_cpu.c:221
20012bfa:	0001                	nop
20012bfc:	40f6                	lw	ra,92(sp)
20012bfe:	42e6                	lw	t0,88(sp)
20012c00:	4356                	lw	t1,84(sp)
20012c02:	43c6                	lw	t2,80(sp)
20012c04:	4436                	lw	s0,76(sp)
20012c06:	4526                	lw	a0,72(sp)
20012c08:	4596                	lw	a1,68(sp)
20012c0a:	4606                	lw	a2,64(sp)
20012c0c:	56f2                	lw	a3,60(sp)
20012c0e:	5762                	lw	a4,56(sp)
20012c10:	57d2                	lw	a5,52(sp)
20012c12:	5842                	lw	a6,48(sp)
20012c14:	58b2                	lw	a7,44(sp)
20012c16:	5e22                	lw	t3,40(sp)
20012c18:	5e92                	lw	t4,36(sp)
20012c1a:	5f02                	lw	t5,32(sp)
20012c1c:	4ff2                	lw	t6,28(sp)
20012c1e:	6125                	addi	sp,sp,96
20012c20:	30200073          	mret

20012c24 <metal_lc2_interrupt_vector_handler>:
metal_lc2_interrupt_vector_handler():
/home/nicoladgg/wsFreedomStudio/sifive_hifive1_revb_HCSR04/freedom-metal/src/drivers/riscv_cpu.c:224
20012c24:	711d                	addi	sp,sp,-96
20012c26:	ce86                	sw	ra,92(sp)
20012c28:	cc96                	sw	t0,88(sp)
20012c2a:	ca9a                	sw	t1,84(sp)
20012c2c:	c89e                	sw	t2,80(sp)
20012c2e:	c6a2                	sw	s0,76(sp)
20012c30:	c4aa                	sw	a0,72(sp)
20012c32:	c2ae                	sw	a1,68(sp)
20012c34:	c0b2                	sw	a2,64(sp)
20012c36:	de36                	sw	a3,60(sp)
20012c38:	dc3a                	sw	a4,56(sp)
20012c3a:	da3e                	sw	a5,52(sp)
20012c3c:	d842                	sw	a6,48(sp)
20012c3e:	d646                	sw	a7,44(sp)
20012c40:	d472                	sw	t3,40(sp)
20012c42:	d276                	sw	t4,36(sp)
20012c44:	d07a                	sw	t5,32(sp)
20012c46:	ce7e                	sw	t6,28(sp)
20012c48:	1080                	addi	s0,sp,96
/home/nicoladgg/wsFreedomStudio/sifive_hifive1_revb_HCSR04/freedom-metal/src/drivers/riscv_cpu.c:225
20012c4a:	8cdff0ef          	jal	ra,20012516 <__metal_myhart_id>
20012c4e:	872a                	mv	a4,a0
20012c50:	800017b7          	lui	a5,0x80001
20012c54:	070a                	slli	a4,a4,0x2
20012c56:	aa078793          	addi	a5,a5,-1376 # 80000aa0 <metal_segment_heap_target_end+0xfffff320>
20012c5a:	97ba                	add	a5,a5,a4
20012c5c:	439c                	lw	a5,0(a5)
20012c5e:	faf42623          	sw	a5,-84(s0)
20012c62:	fac42783          	lw	a5,-84(s0)
20012c66:	c78d                	beqz	a5,20012c90 <metal_lc2_interrupt_vector_handler+0x6c>
/home/nicoladgg/wsFreedomStudio/sifive_hifive1_revb_HCSR04/freedom-metal/src/drivers/riscv_cpu.c:225 (discriminator 1)
20012c68:	fac42503          	lw	a0,-84(s0)
20012c6c:	82dff0ef          	jal	ra,20012498 <__metal_driver_cpu_interrupt_controller>
20012c70:	faa42423          	sw	a0,-88(s0)
20012c74:	fa842783          	lw	a5,-88(s0)
20012c78:	2487a783          	lw	a5,584(a5)
20012c7c:	faf42223          	sw	a5,-92(s0)
20012c80:	fa842783          	lw	a5,-88(s0)
20012c84:	2407a783          	lw	a5,576(a5)
20012c88:	fa442583          	lw	a1,-92(s0)
20012c8c:	4549                	li	a0,18
20012c8e:	9782                	jalr	a5
/home/nicoladgg/wsFreedomStudio/sifive_hifive1_revb_HCSR04/freedom-metal/src/drivers/riscv_cpu.c:226
20012c90:	0001                	nop
20012c92:	40f6                	lw	ra,92(sp)
20012c94:	42e6                	lw	t0,88(sp)
20012c96:	4356                	lw	t1,84(sp)
20012c98:	43c6                	lw	t2,80(sp)
20012c9a:	4436                	lw	s0,76(sp)
20012c9c:	4526                	lw	a0,72(sp)
20012c9e:	4596                	lw	a1,68(sp)
20012ca0:	4606                	lw	a2,64(sp)
20012ca2:	56f2                	lw	a3,60(sp)
20012ca4:	5762                	lw	a4,56(sp)
20012ca6:	57d2                	lw	a5,52(sp)
20012ca8:	5842                	lw	a6,48(sp)
20012caa:	58b2                	lw	a7,44(sp)
20012cac:	5e22                	lw	t3,40(sp)
20012cae:	5e92                	lw	t4,36(sp)
20012cb0:	5f02                	lw	t5,32(sp)
20012cb2:	4ff2                	lw	t6,28(sp)
20012cb4:	6125                	addi	sp,sp,96
20012cb6:	30200073          	mret

20012cba <metal_lc3_interrupt_vector_handler>:
metal_lc3_interrupt_vector_handler():
/home/nicoladgg/wsFreedomStudio/sifive_hifive1_revb_HCSR04/freedom-metal/src/drivers/riscv_cpu.c:229
20012cba:	711d                	addi	sp,sp,-96
20012cbc:	ce86                	sw	ra,92(sp)
20012cbe:	cc96                	sw	t0,88(sp)
20012cc0:	ca9a                	sw	t1,84(sp)
20012cc2:	c89e                	sw	t2,80(sp)
20012cc4:	c6a2                	sw	s0,76(sp)
20012cc6:	c4aa                	sw	a0,72(sp)
20012cc8:	c2ae                	sw	a1,68(sp)
20012cca:	c0b2                	sw	a2,64(sp)
20012ccc:	de36                	sw	a3,60(sp)
20012cce:	dc3a                	sw	a4,56(sp)
20012cd0:	da3e                	sw	a5,52(sp)
20012cd2:	d842                	sw	a6,48(sp)
20012cd4:	d646                	sw	a7,44(sp)
20012cd6:	d472                	sw	t3,40(sp)
20012cd8:	d276                	sw	t4,36(sp)
20012cda:	d07a                	sw	t5,32(sp)
20012cdc:	ce7e                	sw	t6,28(sp)
20012cde:	1080                	addi	s0,sp,96
/home/nicoladgg/wsFreedomStudio/sifive_hifive1_revb_HCSR04/freedom-metal/src/drivers/riscv_cpu.c:230
20012ce0:	837ff0ef          	jal	ra,20012516 <__metal_myhart_id>
20012ce4:	872a                	mv	a4,a0
20012ce6:	800017b7          	lui	a5,0x80001
20012cea:	070a                	slli	a4,a4,0x2
20012cec:	aa078793          	addi	a5,a5,-1376 # 80000aa0 <metal_segment_heap_target_end+0xfffff320>
20012cf0:	97ba                	add	a5,a5,a4
20012cf2:	439c                	lw	a5,0(a5)
20012cf4:	faf42623          	sw	a5,-84(s0)
20012cf8:	fac42783          	lw	a5,-84(s0)
20012cfc:	c78d                	beqz	a5,20012d26 <metal_lc3_interrupt_vector_handler+0x6c>
/home/nicoladgg/wsFreedomStudio/sifive_hifive1_revb_HCSR04/freedom-metal/src/drivers/riscv_cpu.c:230 (discriminator 1)
20012cfe:	fac42503          	lw	a0,-84(s0)
20012d02:	f96ff0ef          	jal	ra,20012498 <__metal_driver_cpu_interrupt_controller>
20012d06:	faa42423          	sw	a0,-88(s0)
20012d0a:	fa842783          	lw	a5,-88(s0)
20012d0e:	2607a783          	lw	a5,608(a5)
20012d12:	faf42223          	sw	a5,-92(s0)
20012d16:	fa842783          	lw	a5,-88(s0)
20012d1a:	2587a783          	lw	a5,600(a5)
20012d1e:	fa442583          	lw	a1,-92(s0)
20012d22:	454d                	li	a0,19
20012d24:	9782                	jalr	a5
/home/nicoladgg/wsFreedomStudio/sifive_hifive1_revb_HCSR04/freedom-metal/src/drivers/riscv_cpu.c:231
20012d26:	0001                	nop
20012d28:	40f6                	lw	ra,92(sp)
20012d2a:	42e6                	lw	t0,88(sp)
20012d2c:	4356                	lw	t1,84(sp)
20012d2e:	43c6                	lw	t2,80(sp)
20012d30:	4436                	lw	s0,76(sp)
20012d32:	4526                	lw	a0,72(sp)
20012d34:	4596                	lw	a1,68(sp)
20012d36:	4606                	lw	a2,64(sp)
20012d38:	56f2                	lw	a3,60(sp)
20012d3a:	5762                	lw	a4,56(sp)
20012d3c:	57d2                	lw	a5,52(sp)
20012d3e:	5842                	lw	a6,48(sp)
20012d40:	58b2                	lw	a7,44(sp)
20012d42:	5e22                	lw	t3,40(sp)
20012d44:	5e92                	lw	t4,36(sp)
20012d46:	5f02                	lw	t5,32(sp)
20012d48:	4ff2                	lw	t6,28(sp)
20012d4a:	6125                	addi	sp,sp,96
20012d4c:	30200073          	mret

20012d50 <metal_lc4_interrupt_vector_handler>:
metal_lc4_interrupt_vector_handler():
/home/nicoladgg/wsFreedomStudio/sifive_hifive1_revb_HCSR04/freedom-metal/src/drivers/riscv_cpu.c:234
20012d50:	711d                	addi	sp,sp,-96
20012d52:	ce86                	sw	ra,92(sp)
20012d54:	cc96                	sw	t0,88(sp)
20012d56:	ca9a                	sw	t1,84(sp)
20012d58:	c89e                	sw	t2,80(sp)
20012d5a:	c6a2                	sw	s0,76(sp)
20012d5c:	c4aa                	sw	a0,72(sp)
20012d5e:	c2ae                	sw	a1,68(sp)
20012d60:	c0b2                	sw	a2,64(sp)
20012d62:	de36                	sw	a3,60(sp)
20012d64:	dc3a                	sw	a4,56(sp)
20012d66:	da3e                	sw	a5,52(sp)
20012d68:	d842                	sw	a6,48(sp)
20012d6a:	d646                	sw	a7,44(sp)
20012d6c:	d472                	sw	t3,40(sp)
20012d6e:	d276                	sw	t4,36(sp)
20012d70:	d07a                	sw	t5,32(sp)
20012d72:	ce7e                	sw	t6,28(sp)
20012d74:	1080                	addi	s0,sp,96
/home/nicoladgg/wsFreedomStudio/sifive_hifive1_revb_HCSR04/freedom-metal/src/drivers/riscv_cpu.c:235
20012d76:	fa0ff0ef          	jal	ra,20012516 <__metal_myhart_id>
20012d7a:	872a                	mv	a4,a0
20012d7c:	800017b7          	lui	a5,0x80001
20012d80:	070a                	slli	a4,a4,0x2
20012d82:	aa078793          	addi	a5,a5,-1376 # 80000aa0 <metal_segment_heap_target_end+0xfffff320>
20012d86:	97ba                	add	a5,a5,a4
20012d88:	439c                	lw	a5,0(a5)
20012d8a:	faf42623          	sw	a5,-84(s0)
20012d8e:	fac42783          	lw	a5,-84(s0)
20012d92:	c78d                	beqz	a5,20012dbc <metal_lc4_interrupt_vector_handler+0x6c>
/home/nicoladgg/wsFreedomStudio/sifive_hifive1_revb_HCSR04/freedom-metal/src/drivers/riscv_cpu.c:235 (discriminator 1)
20012d94:	fac42503          	lw	a0,-84(s0)
20012d98:	f00ff0ef          	jal	ra,20012498 <__metal_driver_cpu_interrupt_controller>
20012d9c:	faa42423          	sw	a0,-88(s0)
20012da0:	fa842783          	lw	a5,-88(s0)
20012da4:	2787a783          	lw	a5,632(a5)
20012da8:	faf42223          	sw	a5,-92(s0)
20012dac:	fa842783          	lw	a5,-88(s0)
20012db0:	2707a783          	lw	a5,624(a5)
20012db4:	fa442583          	lw	a1,-92(s0)
20012db8:	4551                	li	a0,20
20012dba:	9782                	jalr	a5
/home/nicoladgg/wsFreedomStudio/sifive_hifive1_revb_HCSR04/freedom-metal/src/drivers/riscv_cpu.c:236
20012dbc:	0001                	nop
20012dbe:	40f6                	lw	ra,92(sp)
20012dc0:	42e6                	lw	t0,88(sp)
20012dc2:	4356                	lw	t1,84(sp)
20012dc4:	43c6                	lw	t2,80(sp)
20012dc6:	4436                	lw	s0,76(sp)
20012dc8:	4526                	lw	a0,72(sp)
20012dca:	4596                	lw	a1,68(sp)
20012dcc:	4606                	lw	a2,64(sp)
20012dce:	56f2                	lw	a3,60(sp)
20012dd0:	5762                	lw	a4,56(sp)
20012dd2:	57d2                	lw	a5,52(sp)
20012dd4:	5842                	lw	a6,48(sp)
20012dd6:	58b2                	lw	a7,44(sp)
20012dd8:	5e22                	lw	t3,40(sp)
20012dda:	5e92                	lw	t4,36(sp)
20012ddc:	5f02                	lw	t5,32(sp)
20012dde:	4ff2                	lw	t6,28(sp)
20012de0:	6125                	addi	sp,sp,96
20012de2:	30200073          	mret

20012de6 <metal_lc5_interrupt_vector_handler>:
metal_lc5_interrupt_vector_handler():
/home/nicoladgg/wsFreedomStudio/sifive_hifive1_revb_HCSR04/freedom-metal/src/drivers/riscv_cpu.c:239
20012de6:	711d                	addi	sp,sp,-96
20012de8:	ce86                	sw	ra,92(sp)
20012dea:	cc96                	sw	t0,88(sp)
20012dec:	ca9a                	sw	t1,84(sp)
20012dee:	c89e                	sw	t2,80(sp)
20012df0:	c6a2                	sw	s0,76(sp)
20012df2:	c4aa                	sw	a0,72(sp)
20012df4:	c2ae                	sw	a1,68(sp)
20012df6:	c0b2                	sw	a2,64(sp)
20012df8:	de36                	sw	a3,60(sp)
20012dfa:	dc3a                	sw	a4,56(sp)
20012dfc:	da3e                	sw	a5,52(sp)
20012dfe:	d842                	sw	a6,48(sp)
20012e00:	d646                	sw	a7,44(sp)
20012e02:	d472                	sw	t3,40(sp)
20012e04:	d276                	sw	t4,36(sp)
20012e06:	d07a                	sw	t5,32(sp)
20012e08:	ce7e                	sw	t6,28(sp)
20012e0a:	1080                	addi	s0,sp,96
/home/nicoladgg/wsFreedomStudio/sifive_hifive1_revb_HCSR04/freedom-metal/src/drivers/riscv_cpu.c:240
20012e0c:	f0aff0ef          	jal	ra,20012516 <__metal_myhart_id>
20012e10:	872a                	mv	a4,a0
20012e12:	800017b7          	lui	a5,0x80001
20012e16:	070a                	slli	a4,a4,0x2
20012e18:	aa078793          	addi	a5,a5,-1376 # 80000aa0 <metal_segment_heap_target_end+0xfffff320>
20012e1c:	97ba                	add	a5,a5,a4
20012e1e:	439c                	lw	a5,0(a5)
20012e20:	faf42623          	sw	a5,-84(s0)
20012e24:	fac42783          	lw	a5,-84(s0)
20012e28:	c78d                	beqz	a5,20012e52 <metal_lc5_interrupt_vector_handler+0x6c>
/home/nicoladgg/wsFreedomStudio/sifive_hifive1_revb_HCSR04/freedom-metal/src/drivers/riscv_cpu.c:240 (discriminator 1)
20012e2a:	fac42503          	lw	a0,-84(s0)
20012e2e:	e6aff0ef          	jal	ra,20012498 <__metal_driver_cpu_interrupt_controller>
20012e32:	faa42423          	sw	a0,-88(s0)
20012e36:	fa842783          	lw	a5,-88(s0)
20012e3a:	2907a783          	lw	a5,656(a5)
20012e3e:	faf42223          	sw	a5,-92(s0)
20012e42:	fa842783          	lw	a5,-88(s0)
20012e46:	2887a783          	lw	a5,648(a5)
20012e4a:	fa442583          	lw	a1,-92(s0)
20012e4e:	4555                	li	a0,21
20012e50:	9782                	jalr	a5
/home/nicoladgg/wsFreedomStudio/sifive_hifive1_revb_HCSR04/freedom-metal/src/drivers/riscv_cpu.c:241
20012e52:	0001                	nop
20012e54:	40f6                	lw	ra,92(sp)
20012e56:	42e6                	lw	t0,88(sp)
20012e58:	4356                	lw	t1,84(sp)
20012e5a:	43c6                	lw	t2,80(sp)
20012e5c:	4436                	lw	s0,76(sp)
20012e5e:	4526                	lw	a0,72(sp)
20012e60:	4596                	lw	a1,68(sp)
20012e62:	4606                	lw	a2,64(sp)
20012e64:	56f2                	lw	a3,60(sp)
20012e66:	5762                	lw	a4,56(sp)
20012e68:	57d2                	lw	a5,52(sp)
20012e6a:	5842                	lw	a6,48(sp)
20012e6c:	58b2                	lw	a7,44(sp)
20012e6e:	5e22                	lw	t3,40(sp)
20012e70:	5e92                	lw	t4,36(sp)
20012e72:	5f02                	lw	t5,32(sp)
20012e74:	4ff2                	lw	t6,28(sp)
20012e76:	6125                	addi	sp,sp,96
20012e78:	30200073          	mret

20012e7c <metal_lc6_interrupt_vector_handler>:
metal_lc6_interrupt_vector_handler():
/home/nicoladgg/wsFreedomStudio/sifive_hifive1_revb_HCSR04/freedom-metal/src/drivers/riscv_cpu.c:244
20012e7c:	711d                	addi	sp,sp,-96
20012e7e:	ce86                	sw	ra,92(sp)
20012e80:	cc96                	sw	t0,88(sp)
20012e82:	ca9a                	sw	t1,84(sp)
20012e84:	c89e                	sw	t2,80(sp)
20012e86:	c6a2                	sw	s0,76(sp)
20012e88:	c4aa                	sw	a0,72(sp)
20012e8a:	c2ae                	sw	a1,68(sp)
20012e8c:	c0b2                	sw	a2,64(sp)
20012e8e:	de36                	sw	a3,60(sp)
20012e90:	dc3a                	sw	a4,56(sp)
20012e92:	da3e                	sw	a5,52(sp)
20012e94:	d842                	sw	a6,48(sp)
20012e96:	d646                	sw	a7,44(sp)
20012e98:	d472                	sw	t3,40(sp)
20012e9a:	d276                	sw	t4,36(sp)
20012e9c:	d07a                	sw	t5,32(sp)
20012e9e:	ce7e                	sw	t6,28(sp)
20012ea0:	1080                	addi	s0,sp,96
/home/nicoladgg/wsFreedomStudio/sifive_hifive1_revb_HCSR04/freedom-metal/src/drivers/riscv_cpu.c:245
20012ea2:	e74ff0ef          	jal	ra,20012516 <__metal_myhart_id>
20012ea6:	872a                	mv	a4,a0
20012ea8:	800017b7          	lui	a5,0x80001
20012eac:	070a                	slli	a4,a4,0x2
20012eae:	aa078793          	addi	a5,a5,-1376 # 80000aa0 <metal_segment_heap_target_end+0xfffff320>
20012eb2:	97ba                	add	a5,a5,a4
20012eb4:	439c                	lw	a5,0(a5)
20012eb6:	faf42623          	sw	a5,-84(s0)
20012eba:	fac42783          	lw	a5,-84(s0)
20012ebe:	c78d                	beqz	a5,20012ee8 <metal_lc6_interrupt_vector_handler+0x6c>
/home/nicoladgg/wsFreedomStudio/sifive_hifive1_revb_HCSR04/freedom-metal/src/drivers/riscv_cpu.c:245 (discriminator 1)
20012ec0:	fac42503          	lw	a0,-84(s0)
20012ec4:	dd4ff0ef          	jal	ra,20012498 <__metal_driver_cpu_interrupt_controller>
20012ec8:	faa42423          	sw	a0,-88(s0)
20012ecc:	fa842783          	lw	a5,-88(s0)
20012ed0:	2a87a783          	lw	a5,680(a5)
20012ed4:	faf42223          	sw	a5,-92(s0)
20012ed8:	fa842783          	lw	a5,-88(s0)
20012edc:	2a07a783          	lw	a5,672(a5)
20012ee0:	fa442583          	lw	a1,-92(s0)
20012ee4:	4559                	li	a0,22
20012ee6:	9782                	jalr	a5
/home/nicoladgg/wsFreedomStudio/sifive_hifive1_revb_HCSR04/freedom-metal/src/drivers/riscv_cpu.c:246
20012ee8:	0001                	nop
20012eea:	40f6                	lw	ra,92(sp)
20012eec:	42e6                	lw	t0,88(sp)
20012eee:	4356                	lw	t1,84(sp)
20012ef0:	43c6                	lw	t2,80(sp)
20012ef2:	4436                	lw	s0,76(sp)
20012ef4:	4526                	lw	a0,72(sp)
20012ef6:	4596                	lw	a1,68(sp)
20012ef8:	4606                	lw	a2,64(sp)
20012efa:	56f2                	lw	a3,60(sp)
20012efc:	5762                	lw	a4,56(sp)
20012efe:	57d2                	lw	a5,52(sp)
20012f00:	5842                	lw	a6,48(sp)
20012f02:	58b2                	lw	a7,44(sp)
20012f04:	5e22                	lw	t3,40(sp)
20012f06:	5e92                	lw	t4,36(sp)
20012f08:	5f02                	lw	t5,32(sp)
20012f0a:	4ff2                	lw	t6,28(sp)
20012f0c:	6125                	addi	sp,sp,96
20012f0e:	30200073          	mret

20012f12 <metal_lc7_interrupt_vector_handler>:
metal_lc7_interrupt_vector_handler():
/home/nicoladgg/wsFreedomStudio/sifive_hifive1_revb_HCSR04/freedom-metal/src/drivers/riscv_cpu.c:249
20012f12:	711d                	addi	sp,sp,-96
20012f14:	ce86                	sw	ra,92(sp)
20012f16:	cc96                	sw	t0,88(sp)
20012f18:	ca9a                	sw	t1,84(sp)
20012f1a:	c89e                	sw	t2,80(sp)
20012f1c:	c6a2                	sw	s0,76(sp)
20012f1e:	c4aa                	sw	a0,72(sp)
20012f20:	c2ae                	sw	a1,68(sp)
20012f22:	c0b2                	sw	a2,64(sp)
20012f24:	de36                	sw	a3,60(sp)
20012f26:	dc3a                	sw	a4,56(sp)
20012f28:	da3e                	sw	a5,52(sp)
20012f2a:	d842                	sw	a6,48(sp)
20012f2c:	d646                	sw	a7,44(sp)
20012f2e:	d472                	sw	t3,40(sp)
20012f30:	d276                	sw	t4,36(sp)
20012f32:	d07a                	sw	t5,32(sp)
20012f34:	ce7e                	sw	t6,28(sp)
20012f36:	1080                	addi	s0,sp,96
/home/nicoladgg/wsFreedomStudio/sifive_hifive1_revb_HCSR04/freedom-metal/src/drivers/riscv_cpu.c:250
20012f38:	ddeff0ef          	jal	ra,20012516 <__metal_myhart_id>
20012f3c:	872a                	mv	a4,a0
20012f3e:	800017b7          	lui	a5,0x80001
20012f42:	070a                	slli	a4,a4,0x2
20012f44:	aa078793          	addi	a5,a5,-1376 # 80000aa0 <metal_segment_heap_target_end+0xfffff320>
20012f48:	97ba                	add	a5,a5,a4
20012f4a:	439c                	lw	a5,0(a5)
20012f4c:	faf42623          	sw	a5,-84(s0)
20012f50:	fac42783          	lw	a5,-84(s0)
20012f54:	c78d                	beqz	a5,20012f7e <metal_lc7_interrupt_vector_handler+0x6c>
/home/nicoladgg/wsFreedomStudio/sifive_hifive1_revb_HCSR04/freedom-metal/src/drivers/riscv_cpu.c:250 (discriminator 1)
20012f56:	fac42503          	lw	a0,-84(s0)
20012f5a:	d3eff0ef          	jal	ra,20012498 <__metal_driver_cpu_interrupt_controller>
20012f5e:	faa42423          	sw	a0,-88(s0)
20012f62:	fa842783          	lw	a5,-88(s0)
20012f66:	2c07a783          	lw	a5,704(a5)
20012f6a:	faf42223          	sw	a5,-92(s0)
20012f6e:	fa842783          	lw	a5,-88(s0)
20012f72:	2b87a783          	lw	a5,696(a5)
20012f76:	fa442583          	lw	a1,-92(s0)
20012f7a:	455d                	li	a0,23
20012f7c:	9782                	jalr	a5
/home/nicoladgg/wsFreedomStudio/sifive_hifive1_revb_HCSR04/freedom-metal/src/drivers/riscv_cpu.c:251
20012f7e:	0001                	nop
20012f80:	40f6                	lw	ra,92(sp)
20012f82:	42e6                	lw	t0,88(sp)
20012f84:	4356                	lw	t1,84(sp)
20012f86:	43c6                	lw	t2,80(sp)
20012f88:	4436                	lw	s0,76(sp)
20012f8a:	4526                	lw	a0,72(sp)
20012f8c:	4596                	lw	a1,68(sp)
20012f8e:	4606                	lw	a2,64(sp)
20012f90:	56f2                	lw	a3,60(sp)
20012f92:	5762                	lw	a4,56(sp)
20012f94:	57d2                	lw	a5,52(sp)
20012f96:	5842                	lw	a6,48(sp)
20012f98:	58b2                	lw	a7,44(sp)
20012f9a:	5e22                	lw	t3,40(sp)
20012f9c:	5e92                	lw	t4,36(sp)
20012f9e:	5f02                	lw	t5,32(sp)
20012fa0:	4ff2                	lw	t6,28(sp)
20012fa2:	6125                	addi	sp,sp,96
20012fa4:	30200073          	mret

20012fa8 <metal_lc8_interrupt_vector_handler>:
metal_lc8_interrupt_vector_handler():
/home/nicoladgg/wsFreedomStudio/sifive_hifive1_revb_HCSR04/freedom-metal/src/drivers/riscv_cpu.c:254
20012fa8:	711d                	addi	sp,sp,-96
20012faa:	ce86                	sw	ra,92(sp)
20012fac:	cc96                	sw	t0,88(sp)
20012fae:	ca9a                	sw	t1,84(sp)
20012fb0:	c89e                	sw	t2,80(sp)
20012fb2:	c6a2                	sw	s0,76(sp)
20012fb4:	c4aa                	sw	a0,72(sp)
20012fb6:	c2ae                	sw	a1,68(sp)
20012fb8:	c0b2                	sw	a2,64(sp)
20012fba:	de36                	sw	a3,60(sp)
20012fbc:	dc3a                	sw	a4,56(sp)
20012fbe:	da3e                	sw	a5,52(sp)
20012fc0:	d842                	sw	a6,48(sp)
20012fc2:	d646                	sw	a7,44(sp)
20012fc4:	d472                	sw	t3,40(sp)
20012fc6:	d276                	sw	t4,36(sp)
20012fc8:	d07a                	sw	t5,32(sp)
20012fca:	ce7e                	sw	t6,28(sp)
20012fcc:	1080                	addi	s0,sp,96
/home/nicoladgg/wsFreedomStudio/sifive_hifive1_revb_HCSR04/freedom-metal/src/drivers/riscv_cpu.c:255
20012fce:	d48ff0ef          	jal	ra,20012516 <__metal_myhart_id>
20012fd2:	872a                	mv	a4,a0
20012fd4:	800017b7          	lui	a5,0x80001
20012fd8:	070a                	slli	a4,a4,0x2
20012fda:	aa078793          	addi	a5,a5,-1376 # 80000aa0 <metal_segment_heap_target_end+0xfffff320>
20012fde:	97ba                	add	a5,a5,a4
20012fe0:	439c                	lw	a5,0(a5)
20012fe2:	faf42623          	sw	a5,-84(s0)
20012fe6:	fac42783          	lw	a5,-84(s0)
20012fea:	c78d                	beqz	a5,20013014 <metal_lc8_interrupt_vector_handler+0x6c>
/home/nicoladgg/wsFreedomStudio/sifive_hifive1_revb_HCSR04/freedom-metal/src/drivers/riscv_cpu.c:255 (discriminator 1)
20012fec:	fac42503          	lw	a0,-84(s0)
20012ff0:	ca8ff0ef          	jal	ra,20012498 <__metal_driver_cpu_interrupt_controller>
20012ff4:	faa42423          	sw	a0,-88(s0)
20012ff8:	fa842783          	lw	a5,-88(s0)
20012ffc:	2d87a783          	lw	a5,728(a5)
20013000:	faf42223          	sw	a5,-92(s0)
20013004:	fa842783          	lw	a5,-88(s0)
20013008:	2d07a783          	lw	a5,720(a5)
2001300c:	fa442583          	lw	a1,-92(s0)
20013010:	4561                	li	a0,24
20013012:	9782                	jalr	a5
/home/nicoladgg/wsFreedomStudio/sifive_hifive1_revb_HCSR04/freedom-metal/src/drivers/riscv_cpu.c:256
20013014:	0001                	nop
20013016:	40f6                	lw	ra,92(sp)
20013018:	42e6                	lw	t0,88(sp)
2001301a:	4356                	lw	t1,84(sp)
2001301c:	43c6                	lw	t2,80(sp)
2001301e:	4436                	lw	s0,76(sp)
20013020:	4526                	lw	a0,72(sp)
20013022:	4596                	lw	a1,68(sp)
20013024:	4606                	lw	a2,64(sp)
20013026:	56f2                	lw	a3,60(sp)
20013028:	5762                	lw	a4,56(sp)
2001302a:	57d2                	lw	a5,52(sp)
2001302c:	5842                	lw	a6,48(sp)
2001302e:	58b2                	lw	a7,44(sp)
20013030:	5e22                	lw	t3,40(sp)
20013032:	5e92                	lw	t4,36(sp)
20013034:	5f02                	lw	t5,32(sp)
20013036:	4ff2                	lw	t6,28(sp)
20013038:	6125                	addi	sp,sp,96
2001303a:	30200073          	mret

2001303e <metal_lc9_interrupt_vector_handler>:
metal_lc9_interrupt_vector_handler():
/home/nicoladgg/wsFreedomStudio/sifive_hifive1_revb_HCSR04/freedom-metal/src/drivers/riscv_cpu.c:259
2001303e:	711d                	addi	sp,sp,-96
20013040:	ce86                	sw	ra,92(sp)
20013042:	cc96                	sw	t0,88(sp)
20013044:	ca9a                	sw	t1,84(sp)
20013046:	c89e                	sw	t2,80(sp)
20013048:	c6a2                	sw	s0,76(sp)
2001304a:	c4aa                	sw	a0,72(sp)
2001304c:	c2ae                	sw	a1,68(sp)
2001304e:	c0b2                	sw	a2,64(sp)
20013050:	de36                	sw	a3,60(sp)
20013052:	dc3a                	sw	a4,56(sp)
20013054:	da3e                	sw	a5,52(sp)
20013056:	d842                	sw	a6,48(sp)
20013058:	d646                	sw	a7,44(sp)
2001305a:	d472                	sw	t3,40(sp)
2001305c:	d276                	sw	t4,36(sp)
2001305e:	d07a                	sw	t5,32(sp)
20013060:	ce7e                	sw	t6,28(sp)
20013062:	1080                	addi	s0,sp,96
/home/nicoladgg/wsFreedomStudio/sifive_hifive1_revb_HCSR04/freedom-metal/src/drivers/riscv_cpu.c:260
20013064:	cb2ff0ef          	jal	ra,20012516 <__metal_myhart_id>
20013068:	872a                	mv	a4,a0
2001306a:	800017b7          	lui	a5,0x80001
2001306e:	070a                	slli	a4,a4,0x2
20013070:	aa078793          	addi	a5,a5,-1376 # 80000aa0 <metal_segment_heap_target_end+0xfffff320>
20013074:	97ba                	add	a5,a5,a4
20013076:	439c                	lw	a5,0(a5)
20013078:	faf42623          	sw	a5,-84(s0)
2001307c:	fac42783          	lw	a5,-84(s0)
20013080:	c78d                	beqz	a5,200130aa <metal_lc9_interrupt_vector_handler+0x6c>
/home/nicoladgg/wsFreedomStudio/sifive_hifive1_revb_HCSR04/freedom-metal/src/drivers/riscv_cpu.c:260 (discriminator 1)
20013082:	fac42503          	lw	a0,-84(s0)
20013086:	c12ff0ef          	jal	ra,20012498 <__metal_driver_cpu_interrupt_controller>
2001308a:	faa42423          	sw	a0,-88(s0)
2001308e:	fa842783          	lw	a5,-88(s0)
20013092:	2f07a783          	lw	a5,752(a5)
20013096:	faf42223          	sw	a5,-92(s0)
2001309a:	fa842783          	lw	a5,-88(s0)
2001309e:	2e87a783          	lw	a5,744(a5)
200130a2:	fa442583          	lw	a1,-92(s0)
200130a6:	4565                	li	a0,25
200130a8:	9782                	jalr	a5
/home/nicoladgg/wsFreedomStudio/sifive_hifive1_revb_HCSR04/freedom-metal/src/drivers/riscv_cpu.c:261
200130aa:	0001                	nop
200130ac:	40f6                	lw	ra,92(sp)
200130ae:	42e6                	lw	t0,88(sp)
200130b0:	4356                	lw	t1,84(sp)
200130b2:	43c6                	lw	t2,80(sp)
200130b4:	4436                	lw	s0,76(sp)
200130b6:	4526                	lw	a0,72(sp)
200130b8:	4596                	lw	a1,68(sp)
200130ba:	4606                	lw	a2,64(sp)
200130bc:	56f2                	lw	a3,60(sp)
200130be:	5762                	lw	a4,56(sp)
200130c0:	57d2                	lw	a5,52(sp)
200130c2:	5842                	lw	a6,48(sp)
200130c4:	58b2                	lw	a7,44(sp)
200130c6:	5e22                	lw	t3,40(sp)
200130c8:	5e92                	lw	t4,36(sp)
200130ca:	5f02                	lw	t5,32(sp)
200130cc:	4ff2                	lw	t6,28(sp)
200130ce:	6125                	addi	sp,sp,96
200130d0:	30200073          	mret

200130d4 <metal_lc10_interrupt_vector_handler>:
metal_lc10_interrupt_vector_handler():
/home/nicoladgg/wsFreedomStudio/sifive_hifive1_revb_HCSR04/freedom-metal/src/drivers/riscv_cpu.c:265
200130d4:	711d                	addi	sp,sp,-96
200130d6:	ce86                	sw	ra,92(sp)
200130d8:	cc96                	sw	t0,88(sp)
200130da:	ca9a                	sw	t1,84(sp)
200130dc:	c89e                	sw	t2,80(sp)
200130de:	c6a2                	sw	s0,76(sp)
200130e0:	c4aa                	sw	a0,72(sp)
200130e2:	c2ae                	sw	a1,68(sp)
200130e4:	c0b2                	sw	a2,64(sp)
200130e6:	de36                	sw	a3,60(sp)
200130e8:	dc3a                	sw	a4,56(sp)
200130ea:	da3e                	sw	a5,52(sp)
200130ec:	d842                	sw	a6,48(sp)
200130ee:	d646                	sw	a7,44(sp)
200130f0:	d472                	sw	t3,40(sp)
200130f2:	d276                	sw	t4,36(sp)
200130f4:	d07a                	sw	t5,32(sp)
200130f6:	ce7e                	sw	t6,28(sp)
200130f8:	1080                	addi	s0,sp,96
/home/nicoladgg/wsFreedomStudio/sifive_hifive1_revb_HCSR04/freedom-metal/src/drivers/riscv_cpu.c:266
200130fa:	c1cff0ef          	jal	ra,20012516 <__metal_myhart_id>
200130fe:	872a                	mv	a4,a0
20013100:	800017b7          	lui	a5,0x80001
20013104:	070a                	slli	a4,a4,0x2
20013106:	aa078793          	addi	a5,a5,-1376 # 80000aa0 <metal_segment_heap_target_end+0xfffff320>
2001310a:	97ba                	add	a5,a5,a4
2001310c:	439c                	lw	a5,0(a5)
2001310e:	faf42623          	sw	a5,-84(s0)
20013112:	fac42783          	lw	a5,-84(s0)
20013116:	c78d                	beqz	a5,20013140 <metal_lc10_interrupt_vector_handler+0x6c>
/home/nicoladgg/wsFreedomStudio/sifive_hifive1_revb_HCSR04/freedom-metal/src/drivers/riscv_cpu.c:266 (discriminator 1)
20013118:	fac42503          	lw	a0,-84(s0)
2001311c:	b7cff0ef          	jal	ra,20012498 <__metal_driver_cpu_interrupt_controller>
20013120:	faa42423          	sw	a0,-88(s0)
20013124:	fa842783          	lw	a5,-88(s0)
20013128:	3087a783          	lw	a5,776(a5)
2001312c:	faf42223          	sw	a5,-92(s0)
20013130:	fa842783          	lw	a5,-88(s0)
20013134:	3007a783          	lw	a5,768(a5)
20013138:	fa442583          	lw	a1,-92(s0)
2001313c:	4569                	li	a0,26
2001313e:	9782                	jalr	a5
/home/nicoladgg/wsFreedomStudio/sifive_hifive1_revb_HCSR04/freedom-metal/src/drivers/riscv_cpu.c:267
20013140:	0001                	nop
20013142:	40f6                	lw	ra,92(sp)
20013144:	42e6                	lw	t0,88(sp)
20013146:	4356                	lw	t1,84(sp)
20013148:	43c6                	lw	t2,80(sp)
2001314a:	4436                	lw	s0,76(sp)
2001314c:	4526                	lw	a0,72(sp)
2001314e:	4596                	lw	a1,68(sp)
20013150:	4606                	lw	a2,64(sp)
20013152:	56f2                	lw	a3,60(sp)
20013154:	5762                	lw	a4,56(sp)
20013156:	57d2                	lw	a5,52(sp)
20013158:	5842                	lw	a6,48(sp)
2001315a:	58b2                	lw	a7,44(sp)
2001315c:	5e22                	lw	t3,40(sp)
2001315e:	5e92                	lw	t4,36(sp)
20013160:	5f02                	lw	t5,32(sp)
20013162:	4ff2                	lw	t6,28(sp)
20013164:	6125                	addi	sp,sp,96
20013166:	30200073          	mret

2001316a <metal_lc11_interrupt_vector_handler>:
metal_lc11_interrupt_vector_handler():
/home/nicoladgg/wsFreedomStudio/sifive_hifive1_revb_HCSR04/freedom-metal/src/drivers/riscv_cpu.c:271
2001316a:	711d                	addi	sp,sp,-96
2001316c:	ce86                	sw	ra,92(sp)
2001316e:	cc96                	sw	t0,88(sp)
20013170:	ca9a                	sw	t1,84(sp)
20013172:	c89e                	sw	t2,80(sp)
20013174:	c6a2                	sw	s0,76(sp)
20013176:	c4aa                	sw	a0,72(sp)
20013178:	c2ae                	sw	a1,68(sp)
2001317a:	c0b2                	sw	a2,64(sp)
2001317c:	de36                	sw	a3,60(sp)
2001317e:	dc3a                	sw	a4,56(sp)
20013180:	da3e                	sw	a5,52(sp)
20013182:	d842                	sw	a6,48(sp)
20013184:	d646                	sw	a7,44(sp)
20013186:	d472                	sw	t3,40(sp)
20013188:	d276                	sw	t4,36(sp)
2001318a:	d07a                	sw	t5,32(sp)
2001318c:	ce7e                	sw	t6,28(sp)
2001318e:	1080                	addi	s0,sp,96
/home/nicoladgg/wsFreedomStudio/sifive_hifive1_revb_HCSR04/freedom-metal/src/drivers/riscv_cpu.c:272
20013190:	b86ff0ef          	jal	ra,20012516 <__metal_myhart_id>
20013194:	872a                	mv	a4,a0
20013196:	800017b7          	lui	a5,0x80001
2001319a:	070a                	slli	a4,a4,0x2
2001319c:	aa078793          	addi	a5,a5,-1376 # 80000aa0 <metal_segment_heap_target_end+0xfffff320>
200131a0:	97ba                	add	a5,a5,a4
200131a2:	439c                	lw	a5,0(a5)
200131a4:	faf42623          	sw	a5,-84(s0)
200131a8:	fac42783          	lw	a5,-84(s0)
200131ac:	c78d                	beqz	a5,200131d6 <metal_lc11_interrupt_vector_handler+0x6c>
/home/nicoladgg/wsFreedomStudio/sifive_hifive1_revb_HCSR04/freedom-metal/src/drivers/riscv_cpu.c:272 (discriminator 1)
200131ae:	fac42503          	lw	a0,-84(s0)
200131b2:	ae6ff0ef          	jal	ra,20012498 <__metal_driver_cpu_interrupt_controller>
200131b6:	faa42423          	sw	a0,-88(s0)
200131ba:	fa842783          	lw	a5,-88(s0)
200131be:	3207a783          	lw	a5,800(a5)
200131c2:	faf42223          	sw	a5,-92(s0)
200131c6:	fa842783          	lw	a5,-88(s0)
200131ca:	3187a783          	lw	a5,792(a5)
200131ce:	fa442583          	lw	a1,-92(s0)
200131d2:	456d                	li	a0,27
200131d4:	9782                	jalr	a5
/home/nicoladgg/wsFreedomStudio/sifive_hifive1_revb_HCSR04/freedom-metal/src/drivers/riscv_cpu.c:273
200131d6:	0001                	nop
200131d8:	40f6                	lw	ra,92(sp)
200131da:	42e6                	lw	t0,88(sp)
200131dc:	4356                	lw	t1,84(sp)
200131de:	43c6                	lw	t2,80(sp)
200131e0:	4436                	lw	s0,76(sp)
200131e2:	4526                	lw	a0,72(sp)
200131e4:	4596                	lw	a1,68(sp)
200131e6:	4606                	lw	a2,64(sp)
200131e8:	56f2                	lw	a3,60(sp)
200131ea:	5762                	lw	a4,56(sp)
200131ec:	57d2                	lw	a5,52(sp)
200131ee:	5842                	lw	a6,48(sp)
200131f0:	58b2                	lw	a7,44(sp)
200131f2:	5e22                	lw	t3,40(sp)
200131f4:	5e92                	lw	t4,36(sp)
200131f6:	5f02                	lw	t5,32(sp)
200131f8:	4ff2                	lw	t6,28(sp)
200131fa:	6125                	addi	sp,sp,96
200131fc:	30200073          	mret

20013200 <metal_lc12_interrupt_vector_handler>:
metal_lc12_interrupt_vector_handler():
/home/nicoladgg/wsFreedomStudio/sifive_hifive1_revb_HCSR04/freedom-metal/src/drivers/riscv_cpu.c:277
20013200:	711d                	addi	sp,sp,-96
20013202:	ce86                	sw	ra,92(sp)
20013204:	cc96                	sw	t0,88(sp)
20013206:	ca9a                	sw	t1,84(sp)
20013208:	c89e                	sw	t2,80(sp)
2001320a:	c6a2                	sw	s0,76(sp)
2001320c:	c4aa                	sw	a0,72(sp)
2001320e:	c2ae                	sw	a1,68(sp)
20013210:	c0b2                	sw	a2,64(sp)
20013212:	de36                	sw	a3,60(sp)
20013214:	dc3a                	sw	a4,56(sp)
20013216:	da3e                	sw	a5,52(sp)
20013218:	d842                	sw	a6,48(sp)
2001321a:	d646                	sw	a7,44(sp)
2001321c:	d472                	sw	t3,40(sp)
2001321e:	d276                	sw	t4,36(sp)
20013220:	d07a                	sw	t5,32(sp)
20013222:	ce7e                	sw	t6,28(sp)
20013224:	1080                	addi	s0,sp,96
/home/nicoladgg/wsFreedomStudio/sifive_hifive1_revb_HCSR04/freedom-metal/src/drivers/riscv_cpu.c:278
20013226:	af0ff0ef          	jal	ra,20012516 <__metal_myhart_id>
2001322a:	872a                	mv	a4,a0
2001322c:	800017b7          	lui	a5,0x80001
20013230:	070a                	slli	a4,a4,0x2
20013232:	aa078793          	addi	a5,a5,-1376 # 80000aa0 <metal_segment_heap_target_end+0xfffff320>
20013236:	97ba                	add	a5,a5,a4
20013238:	439c                	lw	a5,0(a5)
2001323a:	faf42623          	sw	a5,-84(s0)
2001323e:	fac42783          	lw	a5,-84(s0)
20013242:	c78d                	beqz	a5,2001326c <metal_lc12_interrupt_vector_handler+0x6c>
/home/nicoladgg/wsFreedomStudio/sifive_hifive1_revb_HCSR04/freedom-metal/src/drivers/riscv_cpu.c:278 (discriminator 1)
20013244:	fac42503          	lw	a0,-84(s0)
20013248:	a50ff0ef          	jal	ra,20012498 <__metal_driver_cpu_interrupt_controller>
2001324c:	faa42423          	sw	a0,-88(s0)
20013250:	fa842783          	lw	a5,-88(s0)
20013254:	3387a783          	lw	a5,824(a5)
20013258:	faf42223          	sw	a5,-92(s0)
2001325c:	fa842783          	lw	a5,-88(s0)
20013260:	3307a783          	lw	a5,816(a5)
20013264:	fa442583          	lw	a1,-92(s0)
20013268:	4571                	li	a0,28
2001326a:	9782                	jalr	a5
/home/nicoladgg/wsFreedomStudio/sifive_hifive1_revb_HCSR04/freedom-metal/src/drivers/riscv_cpu.c:279
2001326c:	0001                	nop
2001326e:	40f6                	lw	ra,92(sp)
20013270:	42e6                	lw	t0,88(sp)
20013272:	4356                	lw	t1,84(sp)
20013274:	43c6                	lw	t2,80(sp)
20013276:	4436                	lw	s0,76(sp)
20013278:	4526                	lw	a0,72(sp)
2001327a:	4596                	lw	a1,68(sp)
2001327c:	4606                	lw	a2,64(sp)
2001327e:	56f2                	lw	a3,60(sp)
20013280:	5762                	lw	a4,56(sp)
20013282:	57d2                	lw	a5,52(sp)
20013284:	5842                	lw	a6,48(sp)
20013286:	58b2                	lw	a7,44(sp)
20013288:	5e22                	lw	t3,40(sp)
2001328a:	5e92                	lw	t4,36(sp)
2001328c:	5f02                	lw	t5,32(sp)
2001328e:	4ff2                	lw	t6,28(sp)
20013290:	6125                	addi	sp,sp,96
20013292:	30200073          	mret

20013296 <metal_lc13_interrupt_vector_handler>:
metal_lc13_interrupt_vector_handler():
/home/nicoladgg/wsFreedomStudio/sifive_hifive1_revb_HCSR04/freedom-metal/src/drivers/riscv_cpu.c:283
20013296:	711d                	addi	sp,sp,-96
20013298:	ce86                	sw	ra,92(sp)
2001329a:	cc96                	sw	t0,88(sp)
2001329c:	ca9a                	sw	t1,84(sp)
2001329e:	c89e                	sw	t2,80(sp)
200132a0:	c6a2                	sw	s0,76(sp)
200132a2:	c4aa                	sw	a0,72(sp)
200132a4:	c2ae                	sw	a1,68(sp)
200132a6:	c0b2                	sw	a2,64(sp)
200132a8:	de36                	sw	a3,60(sp)
200132aa:	dc3a                	sw	a4,56(sp)
200132ac:	da3e                	sw	a5,52(sp)
200132ae:	d842                	sw	a6,48(sp)
200132b0:	d646                	sw	a7,44(sp)
200132b2:	d472                	sw	t3,40(sp)
200132b4:	d276                	sw	t4,36(sp)
200132b6:	d07a                	sw	t5,32(sp)
200132b8:	ce7e                	sw	t6,28(sp)
200132ba:	1080                	addi	s0,sp,96
/home/nicoladgg/wsFreedomStudio/sifive_hifive1_revb_HCSR04/freedom-metal/src/drivers/riscv_cpu.c:284
200132bc:	a5aff0ef          	jal	ra,20012516 <__metal_myhart_id>
200132c0:	872a                	mv	a4,a0
200132c2:	800017b7          	lui	a5,0x80001
200132c6:	070a                	slli	a4,a4,0x2
200132c8:	aa078793          	addi	a5,a5,-1376 # 80000aa0 <metal_segment_heap_target_end+0xfffff320>
200132cc:	97ba                	add	a5,a5,a4
200132ce:	439c                	lw	a5,0(a5)
200132d0:	faf42623          	sw	a5,-84(s0)
200132d4:	fac42783          	lw	a5,-84(s0)
200132d8:	c78d                	beqz	a5,20013302 <metal_lc13_interrupt_vector_handler+0x6c>
/home/nicoladgg/wsFreedomStudio/sifive_hifive1_revb_HCSR04/freedom-metal/src/drivers/riscv_cpu.c:284 (discriminator 1)
200132da:	fac42503          	lw	a0,-84(s0)
200132de:	9baff0ef          	jal	ra,20012498 <__metal_driver_cpu_interrupt_controller>
200132e2:	faa42423          	sw	a0,-88(s0)
200132e6:	fa842783          	lw	a5,-88(s0)
200132ea:	3507a783          	lw	a5,848(a5)
200132ee:	faf42223          	sw	a5,-92(s0)
200132f2:	fa842783          	lw	a5,-88(s0)
200132f6:	3487a783          	lw	a5,840(a5)
200132fa:	fa442583          	lw	a1,-92(s0)
200132fe:	4575                	li	a0,29
20013300:	9782                	jalr	a5
/home/nicoladgg/wsFreedomStudio/sifive_hifive1_revb_HCSR04/freedom-metal/src/drivers/riscv_cpu.c:285
20013302:	0001                	nop
20013304:	40f6                	lw	ra,92(sp)
20013306:	42e6                	lw	t0,88(sp)
20013308:	4356                	lw	t1,84(sp)
2001330a:	43c6                	lw	t2,80(sp)
2001330c:	4436                	lw	s0,76(sp)
2001330e:	4526                	lw	a0,72(sp)
20013310:	4596                	lw	a1,68(sp)
20013312:	4606                	lw	a2,64(sp)
20013314:	56f2                	lw	a3,60(sp)
20013316:	5762                	lw	a4,56(sp)
20013318:	57d2                	lw	a5,52(sp)
2001331a:	5842                	lw	a6,48(sp)
2001331c:	58b2                	lw	a7,44(sp)
2001331e:	5e22                	lw	t3,40(sp)
20013320:	5e92                	lw	t4,36(sp)
20013322:	5f02                	lw	t5,32(sp)
20013324:	4ff2                	lw	t6,28(sp)
20013326:	6125                	addi	sp,sp,96
20013328:	30200073          	mret

2001332c <metal_lc14_interrupt_vector_handler>:
metal_lc14_interrupt_vector_handler():
/home/nicoladgg/wsFreedomStudio/sifive_hifive1_revb_HCSR04/freedom-metal/src/drivers/riscv_cpu.c:289
2001332c:	711d                	addi	sp,sp,-96
2001332e:	ce86                	sw	ra,92(sp)
20013330:	cc96                	sw	t0,88(sp)
20013332:	ca9a                	sw	t1,84(sp)
20013334:	c89e                	sw	t2,80(sp)
20013336:	c6a2                	sw	s0,76(sp)
20013338:	c4aa                	sw	a0,72(sp)
2001333a:	c2ae                	sw	a1,68(sp)
2001333c:	c0b2                	sw	a2,64(sp)
2001333e:	de36                	sw	a3,60(sp)
20013340:	dc3a                	sw	a4,56(sp)
20013342:	da3e                	sw	a5,52(sp)
20013344:	d842                	sw	a6,48(sp)
20013346:	d646                	sw	a7,44(sp)
20013348:	d472                	sw	t3,40(sp)
2001334a:	d276                	sw	t4,36(sp)
2001334c:	d07a                	sw	t5,32(sp)
2001334e:	ce7e                	sw	t6,28(sp)
20013350:	1080                	addi	s0,sp,96
/home/nicoladgg/wsFreedomStudio/sifive_hifive1_revb_HCSR04/freedom-metal/src/drivers/riscv_cpu.c:290
20013352:	9c4ff0ef          	jal	ra,20012516 <__metal_myhart_id>
20013356:	872a                	mv	a4,a0
20013358:	800017b7          	lui	a5,0x80001
2001335c:	070a                	slli	a4,a4,0x2
2001335e:	aa078793          	addi	a5,a5,-1376 # 80000aa0 <metal_segment_heap_target_end+0xfffff320>
20013362:	97ba                	add	a5,a5,a4
20013364:	439c                	lw	a5,0(a5)
20013366:	faf42623          	sw	a5,-84(s0)
2001336a:	fac42783          	lw	a5,-84(s0)
2001336e:	c78d                	beqz	a5,20013398 <metal_lc14_interrupt_vector_handler+0x6c>
/home/nicoladgg/wsFreedomStudio/sifive_hifive1_revb_HCSR04/freedom-metal/src/drivers/riscv_cpu.c:290 (discriminator 1)
20013370:	fac42503          	lw	a0,-84(s0)
20013374:	924ff0ef          	jal	ra,20012498 <__metal_driver_cpu_interrupt_controller>
20013378:	faa42423          	sw	a0,-88(s0)
2001337c:	fa842783          	lw	a5,-88(s0)
20013380:	3687a783          	lw	a5,872(a5)
20013384:	faf42223          	sw	a5,-92(s0)
20013388:	fa842783          	lw	a5,-88(s0)
2001338c:	3607a783          	lw	a5,864(a5)
20013390:	fa442583          	lw	a1,-92(s0)
20013394:	4579                	li	a0,30
20013396:	9782                	jalr	a5
/home/nicoladgg/wsFreedomStudio/sifive_hifive1_revb_HCSR04/freedom-metal/src/drivers/riscv_cpu.c:291
20013398:	0001                	nop
2001339a:	40f6                	lw	ra,92(sp)
2001339c:	42e6                	lw	t0,88(sp)
2001339e:	4356                	lw	t1,84(sp)
200133a0:	43c6                	lw	t2,80(sp)
200133a2:	4436                	lw	s0,76(sp)
200133a4:	4526                	lw	a0,72(sp)
200133a6:	4596                	lw	a1,68(sp)
200133a8:	4606                	lw	a2,64(sp)
200133aa:	56f2                	lw	a3,60(sp)
200133ac:	5762                	lw	a4,56(sp)
200133ae:	57d2                	lw	a5,52(sp)
200133b0:	5842                	lw	a6,48(sp)
200133b2:	58b2                	lw	a7,44(sp)
200133b4:	5e22                	lw	t3,40(sp)
200133b6:	5e92                	lw	t4,36(sp)
200133b8:	5f02                	lw	t5,32(sp)
200133ba:	4ff2                	lw	t6,28(sp)
200133bc:	6125                	addi	sp,sp,96
200133be:	30200073          	mret

200133c2 <metal_lc15_interrupt_vector_handler>:
metal_lc15_interrupt_vector_handler():
/home/nicoladgg/wsFreedomStudio/sifive_hifive1_revb_HCSR04/freedom-metal/src/drivers/riscv_cpu.c:295
200133c2:	711d                	addi	sp,sp,-96
200133c4:	ce86                	sw	ra,92(sp)
200133c6:	cc96                	sw	t0,88(sp)
200133c8:	ca9a                	sw	t1,84(sp)
200133ca:	c89e                	sw	t2,80(sp)
200133cc:	c6a2                	sw	s0,76(sp)
200133ce:	c4aa                	sw	a0,72(sp)
200133d0:	c2ae                	sw	a1,68(sp)
200133d2:	c0b2                	sw	a2,64(sp)
200133d4:	de36                	sw	a3,60(sp)
200133d6:	dc3a                	sw	a4,56(sp)
200133d8:	da3e                	sw	a5,52(sp)
200133da:	d842                	sw	a6,48(sp)
200133dc:	d646                	sw	a7,44(sp)
200133de:	d472                	sw	t3,40(sp)
200133e0:	d276                	sw	t4,36(sp)
200133e2:	d07a                	sw	t5,32(sp)
200133e4:	ce7e                	sw	t6,28(sp)
200133e6:	1080                	addi	s0,sp,96
/home/nicoladgg/wsFreedomStudio/sifive_hifive1_revb_HCSR04/freedom-metal/src/drivers/riscv_cpu.c:296
200133e8:	92eff0ef          	jal	ra,20012516 <__metal_myhart_id>
200133ec:	872a                	mv	a4,a0
200133ee:	800017b7          	lui	a5,0x80001
200133f2:	070a                	slli	a4,a4,0x2
200133f4:	aa078793          	addi	a5,a5,-1376 # 80000aa0 <metal_segment_heap_target_end+0xfffff320>
200133f8:	97ba                	add	a5,a5,a4
200133fa:	439c                	lw	a5,0(a5)
200133fc:	faf42623          	sw	a5,-84(s0)
20013400:	fac42783          	lw	a5,-84(s0)
20013404:	c78d                	beqz	a5,2001342e <metal_lc15_interrupt_vector_handler+0x6c>
/home/nicoladgg/wsFreedomStudio/sifive_hifive1_revb_HCSR04/freedom-metal/src/drivers/riscv_cpu.c:296 (discriminator 1)
20013406:	fac42503          	lw	a0,-84(s0)
2001340a:	88eff0ef          	jal	ra,20012498 <__metal_driver_cpu_interrupt_controller>
2001340e:	faa42423          	sw	a0,-88(s0)
20013412:	fa842783          	lw	a5,-88(s0)
20013416:	3807a783          	lw	a5,896(a5)
2001341a:	faf42223          	sw	a5,-92(s0)
2001341e:	fa842783          	lw	a5,-88(s0)
20013422:	3787a783          	lw	a5,888(a5)
20013426:	fa442583          	lw	a1,-92(s0)
2001342a:	457d                	li	a0,31
2001342c:	9782                	jalr	a5
/home/nicoladgg/wsFreedomStudio/sifive_hifive1_revb_HCSR04/freedom-metal/src/drivers/riscv_cpu.c:297
2001342e:	0001                	nop
20013430:	40f6                	lw	ra,92(sp)
20013432:	42e6                	lw	t0,88(sp)
20013434:	4356                	lw	t1,84(sp)
20013436:	43c6                	lw	t2,80(sp)
20013438:	4436                	lw	s0,76(sp)
2001343a:	4526                	lw	a0,72(sp)
2001343c:	4596                	lw	a1,68(sp)
2001343e:	4606                	lw	a2,64(sp)
20013440:	56f2                	lw	a3,60(sp)
20013442:	5762                	lw	a4,56(sp)
20013444:	57d2                	lw	a5,52(sp)
20013446:	5842                	lw	a6,48(sp)
20013448:	58b2                	lw	a7,44(sp)
2001344a:	5e22                	lw	t3,40(sp)
2001344c:	5e92                	lw	t4,36(sp)
2001344e:	5f02                	lw	t5,32(sp)
20013450:	4ff2                	lw	t6,28(sp)
20013452:	6125                	addi	sp,sp,96
20013454:	30200073          	mret

20013458 <__metal_controller_interrupt_vector_mode>:
__metal_controller_interrupt_vector_mode():
/home/nicoladgg/wsFreedomStudio/sifive_hifive1_revb_HCSR04/freedom-metal/src/drivers/riscv_cpu.c:299
20013458:	1101                	addi	sp,sp,-32
2001345a:	ce22                	sw	s0,28(sp)
2001345c:	1000                	addi	s0,sp,32
/home/nicoladgg/wsFreedomStudio/sifive_hifive1_revb_HCSR04/freedom-metal/src/drivers/riscv_cpu.c:302
2001345e:	305027f3          	csrr	a5,mtvec
20013462:	fef42623          	sw	a5,-20(s0)
/home/nicoladgg/wsFreedomStudio/sifive_hifive1_revb_HCSR04/freedom-metal/src/drivers/riscv_cpu.c:303
20013466:	fec42783          	lw	a5,-20(s0)
2001346a:	03f7f793          	andi	a5,a5,63
2001346e:	fef42623          	sw	a5,-20(s0)
/home/nicoladgg/wsFreedomStudio/sifive_hifive1_revb_HCSR04/freedom-metal/src/drivers/riscv_cpu.c:305
20013472:	fec42703          	lw	a4,-20(s0)
20013476:	478d                	li	a5,3
20013478:	02f70363          	beq	a4,a5,2001349e <__metal_controller_interrupt_vector_mode+0x46>
2001347c:	fec42703          	lw	a4,-20(s0)
20013480:	478d                	li	a5,3
20013482:	02e7e263          	bltu	a5,a4,200134a6 <__metal_controller_interrupt_vector_mode+0x4e>
20013486:	fec42703          	lw	a4,-20(s0)
2001348a:	4785                	li	a5,1
2001348c:	00f70b63          	beq	a4,a5,200134a2 <__metal_controller_interrupt_vector_mode+0x4a>
20013490:	fec42703          	lw	a4,-20(s0)
20013494:	4789                	li	a5,2
20013496:	00f71863          	bne	a4,a5,200134a6 <__metal_controller_interrupt_vector_mode+0x4e>
/home/nicoladgg/wsFreedomStudio/sifive_hifive1_revb_HCSR04/freedom-metal/src/drivers/riscv_cpu.c:307
2001349a:	478d                	li	a5,3
2001349c:	a031                	j	200134a8 <__metal_controller_interrupt_vector_mode+0x50>
/home/nicoladgg/wsFreedomStudio/sifive_hifive1_revb_HCSR04/freedom-metal/src/drivers/riscv_cpu.c:309
2001349e:	4791                	li	a5,4
200134a0:	a021                	j	200134a8 <__metal_controller_interrupt_vector_mode+0x50>
/home/nicoladgg/wsFreedomStudio/sifive_hifive1_revb_HCSR04/freedom-metal/src/drivers/riscv_cpu.c:311
200134a2:	4785                	li	a5,1
200134a4:	a011                	j	200134a8 <__metal_controller_interrupt_vector_mode+0x50>
/home/nicoladgg/wsFreedomStudio/sifive_hifive1_revb_HCSR04/freedom-metal/src/drivers/riscv_cpu.c:313
200134a6:	4781                	li	a5,0
/home/nicoladgg/wsFreedomStudio/sifive_hifive1_revb_HCSR04/freedom-metal/src/drivers/riscv_cpu.c:314
200134a8:	853e                	mv	a0,a5
200134aa:	4472                	lw	s0,28(sp)
200134ac:	6105                	addi	sp,sp,32
200134ae:	8082                	ret

200134b0 <__metal_controller_interrupt_vector>:
__metal_controller_interrupt_vector():
/home/nicoladgg/wsFreedomStudio/sifive_hifive1_revb_HCSR04/freedom-metal/src/drivers/riscv_cpu.c:317
200134b0:	7179                	addi	sp,sp,-48
200134b2:	d622                	sw	s0,44(sp)
200134b4:	1800                	addi	s0,sp,48
200134b6:	fca42e23          	sw	a0,-36(s0)
200134ba:	fcb42c23          	sw	a1,-40(s0)
/home/nicoladgg/wsFreedomStudio/sifive_hifive1_revb_HCSR04/freedom-metal/src/drivers/riscv_cpu.c:320
200134be:	305027f3          	csrr	a5,mtvec
200134c2:	fef42623          	sw	a5,-20(s0)
/home/nicoladgg/wsFreedomStudio/sifive_hifive1_revb_HCSR04/freedom-metal/src/drivers/riscv_cpu.c:321
200134c6:	fec42783          	lw	a5,-20(s0)
200134ca:	fc07f793          	andi	a5,a5,-64
200134ce:	fef42623          	sw	a5,-20(s0)
/home/nicoladgg/wsFreedomStudio/sifive_hifive1_revb_HCSR04/freedom-metal/src/drivers/riscv_cpu.c:322
200134d2:	fd842783          	lw	a5,-40(s0)
200134d6:	fef42423          	sw	a5,-24(s0)
/home/nicoladgg/wsFreedomStudio/sifive_hifive1_revb_HCSR04/freedom-metal/src/drivers/riscv_cpu.c:324
200134da:	fdc42703          	lw	a4,-36(s0)
200134de:	4791                	li	a5,4
200134e0:	04f70563          	beq	a4,a5,2001352a <__metal_controller_interrupt_vector+0x7a>
200134e4:	fdc42703          	lw	a4,-36(s0)
200134e8:	4791                	li	a5,4
200134ea:	06e7e863          	bltu	a5,a4,2001355a <__metal_controller_interrupt_vector+0xaa>
200134ee:	fdc42703          	lw	a4,-36(s0)
200134f2:	478d                	li	a5,3
200134f4:	06e7e363          	bltu	a5,a4,2001355a <__metal_controller_interrupt_vector+0xaa>
200134f8:	fdc42703          	lw	a4,-36(s0)
200134fc:	4789                	li	a5,2
200134fe:	00f77b63          	bgeu	a4,a5,20013514 <__metal_controller_interrupt_vector+0x64>
20013502:	fdc42783          	lw	a5,-36(s0)
20013506:	c7a1                	beqz	a5,2001354e <__metal_controller_interrupt_vector+0x9e>
20013508:	fdc42703          	lw	a4,-36(s0)
2001350c:	4785                	li	a5,1
2001350e:	02f70963          	beq	a4,a5,20013540 <__metal_controller_interrupt_vector+0x90>
/home/nicoladgg/wsFreedomStudio/sifive_hifive1_revb_HCSR04/freedom-metal/src/drivers/riscv_cpu.c:344
20013512:	a0a1                	j	2001355a <__metal_controller_interrupt_vector+0xaa>
/home/nicoladgg/wsFreedomStudio/sifive_hifive1_revb_HCSR04/freedom-metal/src/drivers/riscv_cpu.c:327
20013514:	fe842783          	lw	a5,-24(s0)
20013518:	30779073          	csrw	mtvt,a5
/home/nicoladgg/wsFreedomStudio/sifive_hifive1_revb_HCSR04/freedom-metal/src/drivers/riscv_cpu.c:328
2001351c:	fec42783          	lw	a5,-20(s0)
20013520:	0027e793          	ori	a5,a5,2
20013524:	30579073          	csrw	mtvec,a5
/home/nicoladgg/wsFreedomStudio/sifive_hifive1_revb_HCSR04/freedom-metal/src/drivers/riscv_cpu.c:329
20013528:	a80d                	j	2001355a <__metal_controller_interrupt_vector+0xaa>
/home/nicoladgg/wsFreedomStudio/sifive_hifive1_revb_HCSR04/freedom-metal/src/drivers/riscv_cpu.c:331
2001352a:	fe842783          	lw	a5,-24(s0)
2001352e:	30779073          	csrw	mtvt,a5
/home/nicoladgg/wsFreedomStudio/sifive_hifive1_revb_HCSR04/freedom-metal/src/drivers/riscv_cpu.c:333
20013532:	fec42783          	lw	a5,-20(s0)
20013536:	0037e793          	ori	a5,a5,3
/home/nicoladgg/wsFreedomStudio/sifive_hifive1_revb_HCSR04/freedom-metal/src/drivers/riscv_cpu.c:332
2001353a:	30579073          	csrw	mtvec,a5
/home/nicoladgg/wsFreedomStudio/sifive_hifive1_revb_HCSR04/freedom-metal/src/drivers/riscv_cpu.c:334
2001353e:	a831                	j	2001355a <__metal_controller_interrupt_vector+0xaa>
/home/nicoladgg/wsFreedomStudio/sifive_hifive1_revb_HCSR04/freedom-metal/src/drivers/riscv_cpu.c:337
20013540:	fe842783          	lw	a5,-24(s0)
20013544:	0017e793          	ori	a5,a5,1
/home/nicoladgg/wsFreedomStudio/sifive_hifive1_revb_HCSR04/freedom-metal/src/drivers/riscv_cpu.c:336
20013548:	30579073          	csrw	mtvec,a5
/home/nicoladgg/wsFreedomStudio/sifive_hifive1_revb_HCSR04/freedom-metal/src/drivers/riscv_cpu.c:338
2001354c:	a039                	j	2001355a <__metal_controller_interrupt_vector+0xaa>
/home/nicoladgg/wsFreedomStudio/sifive_hifive1_revb_HCSR04/freedom-metal/src/drivers/riscv_cpu.c:341
2001354e:	fe842783          	lw	a5,-24(s0)
20013552:	9bf1                	andi	a5,a5,-4
/home/nicoladgg/wsFreedomStudio/sifive_hifive1_revb_HCSR04/freedom-metal/src/drivers/riscv_cpu.c:340
20013554:	30579073          	csrw	mtvec,a5
/home/nicoladgg/wsFreedomStudio/sifive_hifive1_revb_HCSR04/freedom-metal/src/drivers/riscv_cpu.c:342
20013558:	0001                	nop
/home/nicoladgg/wsFreedomStudio/sifive_hifive1_revb_HCSR04/freedom-metal/src/drivers/riscv_cpu.c:344
2001355a:	0001                	nop
2001355c:	5432                	lw	s0,44(sp)
2001355e:	6145                	addi	sp,sp,48
20013560:	8082                	ret

20013562 <__metal_valid_interrupt_id>:
__metal_valid_interrupt_id():
/home/nicoladgg/wsFreedomStudio/sifive_hifive1_revb_HCSR04/freedom-metal/src/drivers/riscv_cpu.c:346
20013562:	1101                	addi	sp,sp,-32
20013564:	ce22                	sw	s0,28(sp)
20013566:	1000                	addi	s0,sp,32
20013568:	fea42623          	sw	a0,-20(s0)
/home/nicoladgg/wsFreedomStudio/sifive_hifive1_revb_HCSR04/freedom-metal/src/drivers/riscv_cpu.c:347
2001356c:	fec42703          	lw	a4,-20(s0)
20013570:	47fd                	li	a5,31
20013572:	02e7c663          	blt	a5,a4,2001359e <__metal_valid_interrupt_id+0x3c>
20013576:	fec42703          	lw	a4,-20(s0)
2001357a:	478d                	li	a5,3
2001357c:	02f74963          	blt	a4,a5,200135ae <__metal_valid_interrupt_id+0x4c>
20013580:	fec42783          	lw	a5,-20(s0)
20013584:	4705                	li	a4,1
20013586:	00f71733          	sll	a4,a4,a5
2001358a:	77c5                	lui	a5,0xffff1
2001358c:	88878793          	addi	a5,a5,-1912 # ffff0888 <metal_segment_heap_target_end+0x7ffef108>
20013590:	8ff9                	and	a5,a5,a4
20013592:	00f037b3          	snez	a5,a5
20013596:	0ff7f793          	zext.b	a5,a5
2001359a:	eb81                	bnez	a5,200135aa <__metal_valid_interrupt_id+0x48>
/home/nicoladgg/wsFreedomStudio/sifive_hifive1_revb_HCSR04/freedom-metal/src/drivers/riscv_cpu.c:370
2001359c:	a809                	j	200135ae <__metal_valid_interrupt_id+0x4c>
/home/nicoladgg/wsFreedomStudio/sifive_hifive1_revb_HCSR04/freedom-metal/src/drivers/riscv_cpu.c:347
2001359e:	fec42703          	lw	a4,-20(s0)
200135a2:	08000793          	li	a5,128
200135a6:	00f71463          	bne	a4,a5,200135ae <__metal_valid_interrupt_id+0x4c>
/home/nicoladgg/wsFreedomStudio/sifive_hifive1_revb_HCSR04/freedom-metal/src/drivers/riscv_cpu.c:368
200135aa:	4785                	li	a5,1
200135ac:	a019                	j	200135b2 <__metal_valid_interrupt_id+0x50>
/home/nicoladgg/wsFreedomStudio/sifive_hifive1_revb_HCSR04/freedom-metal/src/drivers/riscv_cpu.c:370
200135ae:	0001                	nop
/home/nicoladgg/wsFreedomStudio/sifive_hifive1_revb_HCSR04/freedom-metal/src/drivers/riscv_cpu.c:373
200135b0:	4781                	li	a5,0
/home/nicoladgg/wsFreedomStudio/sifive_hifive1_revb_HCSR04/freedom-metal/src/drivers/riscv_cpu.c:374
200135b2:	853e                	mv	a0,a5
200135b4:	4472                	lw	s0,28(sp)
200135b6:	6105                	addi	sp,sp,32
200135b8:	8082                	ret

200135ba <__metal_local_interrupt_enable>:
__metal_local_interrupt_enable():
/home/nicoladgg/wsFreedomStudio/sifive_hifive1_revb_HCSR04/freedom-metal/src/drivers/riscv_cpu.c:377
200135ba:	7179                	addi	sp,sp,-48
200135bc:	d606                	sw	ra,44(sp)
200135be:	d422                	sw	s0,40(sp)
200135c0:	1800                	addi	s0,sp,48
200135c2:	fca42e23          	sw	a0,-36(s0)
200135c6:	fcb42c23          	sw	a1,-40(s0)
200135ca:	fcc42a23          	sw	a2,-44(s0)
/home/nicoladgg/wsFreedomStudio/sifive_hifive1_revb_HCSR04/freedom-metal/src/drivers/riscv_cpu.c:378
200135ce:	fe042623          	sw	zero,-20(s0)
/home/nicoladgg/wsFreedomStudio/sifive_hifive1_revb_HCSR04/freedom-metal/src/drivers/riscv_cpu.c:380
200135d2:	fdc42783          	lw	a5,-36(s0)
200135d6:	e399                	bnez	a5,200135dc <__metal_local_interrupt_enable+0x22>
/home/nicoladgg/wsFreedomStudio/sifive_hifive1_revb_HCSR04/freedom-metal/src/drivers/riscv_cpu.c:381
200135d8:	57fd                	li	a5,-1
200135da:	a849                	j	2001366c <__metal_local_interrupt_enable+0xb2>
200135dc:	fd842703          	lw	a4,-40(s0)
200135e0:	47fd                	li	a5,31
200135e2:	08e7e063          	bltu	a5,a4,20013662 <__metal_local_interrupt_enable+0xa8>
200135e6:	fd842783          	lw	a5,-40(s0)
200135ea:	00279713          	slli	a4,a5,0x2
200135ee:	200107b7          	lui	a5,0x20010
200135f2:	4e478793          	addi	a5,a5,1252 # 200104e4 <__metal_driver_vtable_riscv_clint0+0x64>
200135f6:	97ba                	add	a5,a5,a4
200135f8:	439c                	lw	a5,0(a5)
200135fa:	8782                	jr	a5
/home/nicoladgg/wsFreedomStudio/sifive_hifive1_revb_HCSR04/freedom-metal/src/drivers/riscv_cpu.c:386
200135fc:	fd442783          	lw	a5,-44(s0)
20013600:	c781                	beqz	a5,20013608 <__metal_local_interrupt_enable+0x4e>
/home/nicoladgg/wsFreedomStudio/sifive_hifive1_revb_HCSR04/freedom-metal/src/drivers/riscv_cpu.c:387
20013602:	f2ffe0ef          	jal	ra,20012530 <__metal_interrupt_global_enable>
/home/nicoladgg/wsFreedomStudio/sifive_hifive1_revb_HCSR04/freedom-metal/src/drivers/riscv_cpu.c:391
20013606:	a08d                	j	20013668 <__metal_local_interrupt_enable+0xae>
/home/nicoladgg/wsFreedomStudio/sifive_hifive1_revb_HCSR04/freedom-metal/src/drivers/riscv_cpu.c:389
20013608:	f41fe0ef          	jal	ra,20012548 <__metal_interrupt_global_disable>
/home/nicoladgg/wsFreedomStudio/sifive_hifive1_revb_HCSR04/freedom-metal/src/drivers/riscv_cpu.c:391
2001360c:	a8b1                	j	20013668 <__metal_local_interrupt_enable+0xae>
/home/nicoladgg/wsFreedomStudio/sifive_hifive1_revb_HCSR04/freedom-metal/src/drivers/riscv_cpu.c:393
2001360e:	fd442783          	lw	a5,-44(s0)
20013612:	c781                	beqz	a5,2001361a <__metal_local_interrupt_enable+0x60>
/home/nicoladgg/wsFreedomStudio/sifive_hifive1_revb_HCSR04/freedom-metal/src/drivers/riscv_cpu.c:394
20013614:	f4dfe0ef          	jal	ra,20012560 <__metal_interrupt_software_enable>
/home/nicoladgg/wsFreedomStudio/sifive_hifive1_revb_HCSR04/freedom-metal/src/drivers/riscv_cpu.c:398
20013618:	a881                	j	20013668 <__metal_local_interrupt_enable+0xae>
/home/nicoladgg/wsFreedomStudio/sifive_hifive1_revb_HCSR04/freedom-metal/src/drivers/riscv_cpu.c:396
2001361a:	f5ffe0ef          	jal	ra,20012578 <__metal_interrupt_software_disable>
/home/nicoladgg/wsFreedomStudio/sifive_hifive1_revb_HCSR04/freedom-metal/src/drivers/riscv_cpu.c:398
2001361e:	a0a9                	j	20013668 <__metal_local_interrupt_enable+0xae>
/home/nicoladgg/wsFreedomStudio/sifive_hifive1_revb_HCSR04/freedom-metal/src/drivers/riscv_cpu.c:400
20013620:	fd442783          	lw	a5,-44(s0)
20013624:	c781                	beqz	a5,2001362c <__metal_local_interrupt_enable+0x72>
/home/nicoladgg/wsFreedomStudio/sifive_hifive1_revb_HCSR04/freedom-metal/src/drivers/riscv_cpu.c:401
20013626:	f6bfe0ef          	jal	ra,20012590 <__metal_interrupt_timer_enable>
/home/nicoladgg/wsFreedomStudio/sifive_hifive1_revb_HCSR04/freedom-metal/src/drivers/riscv_cpu.c:405
2001362a:	a83d                	j	20013668 <__metal_local_interrupt_enable+0xae>
/home/nicoladgg/wsFreedomStudio/sifive_hifive1_revb_HCSR04/freedom-metal/src/drivers/riscv_cpu.c:403
2001362c:	f7ffe0ef          	jal	ra,200125aa <__metal_interrupt_timer_disable>
/home/nicoladgg/wsFreedomStudio/sifive_hifive1_revb_HCSR04/freedom-metal/src/drivers/riscv_cpu.c:405
20013630:	a825                	j	20013668 <__metal_local_interrupt_enable+0xae>
/home/nicoladgg/wsFreedomStudio/sifive_hifive1_revb_HCSR04/freedom-metal/src/drivers/riscv_cpu.c:407
20013632:	fd442783          	lw	a5,-44(s0)
20013636:	c781                	beqz	a5,2001363e <__metal_local_interrupt_enable+0x84>
/home/nicoladgg/wsFreedomStudio/sifive_hifive1_revb_HCSR04/freedom-metal/src/drivers/riscv_cpu.c:408
20013638:	f8dfe0ef          	jal	ra,200125c4 <__metal_interrupt_external_enable>
/home/nicoladgg/wsFreedomStudio/sifive_hifive1_revb_HCSR04/freedom-metal/src/drivers/riscv_cpu.c:412
2001363c:	a035                	j	20013668 <__metal_local_interrupt_enable+0xae>
/home/nicoladgg/wsFreedomStudio/sifive_hifive1_revb_HCSR04/freedom-metal/src/drivers/riscv_cpu.c:410
2001363e:	fa3fe0ef          	jal	ra,200125e0 <__metal_interrupt_external_disable>
/home/nicoladgg/wsFreedomStudio/sifive_hifive1_revb_HCSR04/freedom-metal/src/drivers/riscv_cpu.c:412
20013642:	a01d                	j	20013668 <__metal_local_interrupt_enable+0xae>
/home/nicoladgg/wsFreedomStudio/sifive_hifive1_revb_HCSR04/freedom-metal/src/drivers/riscv_cpu.c:429
20013644:	fd442783          	lw	a5,-44(s0)
20013648:	c799                	beqz	a5,20013656 <__metal_local_interrupt_enable+0x9c>
/home/nicoladgg/wsFreedomStudio/sifive_hifive1_revb_HCSR04/freedom-metal/src/drivers/riscv_cpu.c:430
2001364a:	fd842783          	lw	a5,-40(s0)
2001364e:	853e                	mv	a0,a5
20013650:	fadfe0ef          	jal	ra,200125fc <__metal_interrupt_local_enable>
/home/nicoladgg/wsFreedomStudio/sifive_hifive1_revb_HCSR04/freedom-metal/src/drivers/riscv_cpu.c:434
20013654:	a811                	j	20013668 <__metal_local_interrupt_enable+0xae>
/home/nicoladgg/wsFreedomStudio/sifive_hifive1_revb_HCSR04/freedom-metal/src/drivers/riscv_cpu.c:432
20013656:	fd842783          	lw	a5,-40(s0)
2001365a:	853e                	mv	a0,a5
2001365c:	fcdfe0ef          	jal	ra,20012628 <__metal_interrupt_local_disable>
/home/nicoladgg/wsFreedomStudio/sifive_hifive1_revb_HCSR04/freedom-metal/src/drivers/riscv_cpu.c:434
20013660:	a021                	j	20013668 <__metal_local_interrupt_enable+0xae>
/home/nicoladgg/wsFreedomStudio/sifive_hifive1_revb_HCSR04/freedom-metal/src/drivers/riscv_cpu.c:436
20013662:	57fd                	li	a5,-1
20013664:	fef42623          	sw	a5,-20(s0)
/home/nicoladgg/wsFreedomStudio/sifive_hifive1_revb_HCSR04/freedom-metal/src/drivers/riscv_cpu.c:438
20013668:	fec42783          	lw	a5,-20(s0)
/home/nicoladgg/wsFreedomStudio/sifive_hifive1_revb_HCSR04/freedom-metal/src/drivers/riscv_cpu.c:439
2001366c:	853e                	mv	a0,a5
2001366e:	50b2                	lw	ra,44(sp)
20013670:	5422                	lw	s0,40(sp)
20013672:	6145                	addi	sp,sp,48
20013674:	8082                	ret

20013676 <__metal_exception_register>:
__metal_exception_register():
/home/nicoladgg/wsFreedomStudio/sifive_hifive1_revb_HCSR04/freedom-metal/src/drivers/riscv_cpu.c:442
20013676:	7179                	addi	sp,sp,-48
20013678:	d622                	sw	s0,44(sp)
2001367a:	1800                	addi	s0,sp,48
2001367c:	fca42e23          	sw	a0,-36(s0)
20013680:	fcb42c23          	sw	a1,-40(s0)
20013684:	fcc42a23          	sw	a2,-44(s0)
/home/nicoladgg/wsFreedomStudio/sifive_hifive1_revb_HCSR04/freedom-metal/src/drivers/riscv_cpu.c:443
20013688:	fdc42783          	lw	a5,-36(s0)
2001368c:	fef42623          	sw	a5,-20(s0)
/home/nicoladgg/wsFreedomStudio/sifive_hifive1_revb_HCSR04/freedom-metal/src/drivers/riscv_cpu.c:445
20013690:	fd842703          	lw	a4,-40(s0)
20013694:	47ad                	li	a5,11
20013696:	02e7c263          	blt	a5,a4,200136ba <__metal_exception_register+0x44>
/home/nicoladgg/wsFreedomStudio/sifive_hifive1_revb_HCSR04/freedom-metal/src/drivers/riscv_cpu.c:445 (discriminator 1)
2001369a:	fd442783          	lw	a5,-44(s0)
2001369e:	cf91                	beqz	a5,200136ba <__metal_exception_register+0x44>
/home/nicoladgg/wsFreedomStudio/sifive_hifive1_revb_HCSR04/freedom-metal/src/drivers/riscv_cpu.c:446
200136a0:	fec42703          	lw	a4,-20(s0)
200136a4:	fd842783          	lw	a5,-40(s0)
200136a8:	0e878793          	addi	a5,a5,232
200136ac:	078a                	slli	a5,a5,0x2
200136ae:	97ba                	add	a5,a5,a4
200136b0:	fd442703          	lw	a4,-44(s0)
200136b4:	c398                	sw	a4,0(a5)
/home/nicoladgg/wsFreedomStudio/sifive_hifive1_revb_HCSR04/freedom-metal/src/drivers/riscv_cpu.c:447
200136b6:	4781                	li	a5,0
200136b8:	a011                	j	200136bc <__metal_exception_register+0x46>
/home/nicoladgg/wsFreedomStudio/sifive_hifive1_revb_HCSR04/freedom-metal/src/drivers/riscv_cpu.c:449
200136ba:	57fd                	li	a5,-1
/home/nicoladgg/wsFreedomStudio/sifive_hifive1_revb_HCSR04/freedom-metal/src/drivers/riscv_cpu.c:450
200136bc:	853e                	mv	a0,a5
200136be:	5432                	lw	s0,44(sp)
200136c0:	6145                	addi	sp,sp,48
200136c2:	8082                	ret

200136c4 <__metal_driver_riscv_cpu_controller_interrupt_init>:
__metal_driver_riscv_cpu_controller_interrupt_init():
/home/nicoladgg/wsFreedomStudio/sifive_hifive1_revb_HCSR04/freedom-metal/src/drivers/riscv_cpu.c:454
200136c4:	7179                	addi	sp,sp,-48
200136c6:	d606                	sw	ra,44(sp)
200136c8:	d422                	sw	s0,40(sp)
200136ca:	1800                	addi	s0,sp,48
200136cc:	fca42e23          	sw	a0,-36(s0)
/home/nicoladgg/wsFreedomStudio/sifive_hifive1_revb_HCSR04/freedom-metal/src/drivers/riscv_cpu.c:455
200136d0:	fdc42783          	lw	a5,-36(s0)
200136d4:	fef42223          	sw	a5,-28(s0)
/home/nicoladgg/wsFreedomStudio/sifive_hifive1_revb_HCSR04/freedom-metal/src/drivers/riscv_cpu.c:457
200136d8:	fe442783          	lw	a5,-28(s0)
200136dc:	43dc                	lw	a5,4(a5)
200136de:	efdd                	bnez	a5,2001379c <__metal_driver_riscv_cpu_controller_interrupt_init+0xd8>
/home/nicoladgg/wsFreedomStudio/sifive_hifive1_revb_HCSR04/freedom-metal/src/drivers/riscv_cpu.c:459
200136e0:	fe042623          	sw	zero,-20(s0)
200136e4:	a0b9                	j	20013732 <__metal_driver_riscv_cpu_controller_interrupt_init+0x6e>
/home/nicoladgg/wsFreedomStudio/sifive_hifive1_revb_HCSR04/freedom-metal/src/drivers/riscv_cpu.c:460 (discriminator 3)
200136e6:	fe442683          	lw	a3,-28(s0)
200136ea:	fec42703          	lw	a4,-20(s0)
200136ee:	87ba                	mv	a5,a4
200136f0:	0786                	slli	a5,a5,0x1
200136f2:	97ba                	add	a5,a5,a4
200136f4:	078e                	slli	a5,a5,0x3
200136f6:	97b6                	add	a5,a5,a3
200136f8:	0807a823          	sw	zero,144(a5)
/home/nicoladgg/wsFreedomStudio/sifive_hifive1_revb_HCSR04/freedom-metal/src/drivers/riscv_cpu.c:461 (discriminator 3)
200136fc:	fe442683          	lw	a3,-28(s0)
20013700:	fec42703          	lw	a4,-20(s0)
20013704:	87ba                	mv	a5,a4
20013706:	0786                	slli	a5,a5,0x1
20013708:	97ba                	add	a5,a5,a4
2001370a:	078e                	slli	a5,a5,0x3
2001370c:	97b6                	add	a5,a5,a3
2001370e:	0807aa23          	sw	zero,148(a5)
/home/nicoladgg/wsFreedomStudio/sifive_hifive1_revb_HCSR04/freedom-metal/src/drivers/riscv_cpu.c:462 (discriminator 3)
20013712:	fe442683          	lw	a3,-28(s0)
20013716:	fec42703          	lw	a4,-20(s0)
2001371a:	87ba                	mv	a5,a4
2001371c:	0786                	slli	a5,a5,0x1
2001371e:	97ba                	add	a5,a5,a4
20013720:	078e                	slli	a5,a5,0x3
20013722:	97b6                	add	a5,a5,a3
20013724:	0807ac23          	sw	zero,152(a5)
/home/nicoladgg/wsFreedomStudio/sifive_hifive1_revb_HCSR04/freedom-metal/src/drivers/riscv_cpu.c:459 (discriminator 3)
20013728:	fec42783          	lw	a5,-20(s0)
2001372c:	0785                	addi	a5,a5,1
2001372e:	fef42623          	sw	a5,-20(s0)
/home/nicoladgg/wsFreedomStudio/sifive_hifive1_revb_HCSR04/freedom-metal/src/drivers/riscv_cpu.c:459 (discriminator 1)
20013732:	fec42703          	lw	a4,-20(s0)
20013736:	47fd                	li	a5,31
20013738:	fae7d7e3          	bge	a5,a4,200136e6 <__metal_driver_riscv_cpu_controller_interrupt_init+0x22>
/home/nicoladgg/wsFreedomStudio/sifive_hifive1_revb_HCSR04/freedom-metal/src/drivers/riscv_cpu.c:465
2001373c:	fe042423          	sw	zero,-24(s0)
20013740:	a01d                	j	20013766 <__metal_driver_riscv_cpu_controller_interrupt_init+0xa2>
/home/nicoladgg/wsFreedomStudio/sifive_hifive1_revb_HCSR04/freedom-metal/src/drivers/riscv_cpu.c:466 (discriminator 3)
20013742:	fe442703          	lw	a4,-28(s0)
20013746:	fe842783          	lw	a5,-24(s0)
2001374a:	0e878793          	addi	a5,a5,232
2001374e:	078a                	slli	a5,a5,0x2
20013750:	97ba                	add	a5,a5,a4
20013752:	20012737          	lui	a4,0x20012
20013756:	65470713          	addi	a4,a4,1620 # 20012654 <__metal_default_exception_handler>
2001375a:	c398                	sw	a4,0(a5)
/home/nicoladgg/wsFreedomStudio/sifive_hifive1_revb_HCSR04/freedom-metal/src/drivers/riscv_cpu.c:465 (discriminator 3)
2001375c:	fe842783          	lw	a5,-24(s0)
20013760:	0785                	addi	a5,a5,1
20013762:	fef42423          	sw	a5,-24(s0)
/home/nicoladgg/wsFreedomStudio/sifive_hifive1_revb_HCSR04/freedom-metal/src/drivers/riscv_cpu.c:465 (discriminator 1)
20013766:	fe842703          	lw	a4,-24(s0)
2001376a:	47ad                	li	a5,11
2001376c:	fce7dbe3          	bge	a5,a4,20013742 <__metal_driver_riscv_cpu_controller_interrupt_init+0x7e>
/home/nicoladgg/wsFreedomStudio/sifive_hifive1_revb_HCSR04/freedom-metal/src/drivers/riscv_cpu.c:475
20013770:	305027f3          	csrr	a5,mtvec
20013774:	fef42023          	sw	a5,-32(s0)
/home/nicoladgg/wsFreedomStudio/sifive_hifive1_revb_HCSR04/freedom-metal/src/drivers/riscv_cpu.c:476
20013778:	200107b7          	lui	a5,0x20010
2001377c:	13478793          	addi	a5,a5,308 # 20010134 <early_trap_vector>
20013780:	fe042703          	lw	a4,-32(s0)
20013784:	00f71863          	bne	a4,a5,20013794 <__metal_driver_riscv_cpu_controller_interrupt_init+0xd0>
/home/nicoladgg/wsFreedomStudio/sifive_hifive1_revb_HCSR04/freedom-metal/src/drivers/riscv_cpu.c:477
20013788:	200137b7          	lui	a5,0x20013
2001378c:	90078593          	addi	a1,a5,-1792 # 20012900 <__metal_exception_handler>
20013790:	4501                	li	a0,0
20013792:	3b39                	jal	200134b0 <__metal_controller_interrupt_vector>
/home/nicoladgg/wsFreedomStudio/sifive_hifive1_revb_HCSR04/freedom-metal/src/drivers/riscv_cpu.c:481
20013794:	fe442783          	lw	a5,-28(s0)
20013798:	4705                	li	a4,1
2001379a:	c3d8                	sw	a4,4(a5)
/home/nicoladgg/wsFreedomStudio/sifive_hifive1_revb_HCSR04/freedom-metal/src/drivers/riscv_cpu.c:483
2001379c:	0001                	nop
2001379e:	50b2                	lw	ra,44(sp)
200137a0:	5422                	lw	s0,40(sp)
200137a2:	6145                	addi	sp,sp,48
200137a4:	8082                	ret

200137a6 <__metal_driver_riscv_cpu_controller_interrupt_register>:
__metal_driver_riscv_cpu_controller_interrupt_register():
/home/nicoladgg/wsFreedomStudio/sifive_hifive1_revb_HCSR04/freedom-metal/src/drivers/riscv_cpu.c:487
200137a6:	7179                	addi	sp,sp,-48
200137a8:	d606                	sw	ra,44(sp)
200137aa:	d422                	sw	s0,40(sp)
200137ac:	1800                	addi	s0,sp,48
200137ae:	fca42e23          	sw	a0,-36(s0)
200137b2:	fcb42c23          	sw	a1,-40(s0)
200137b6:	fcc42a23          	sw	a2,-44(s0)
200137ba:	fcd42823          	sw	a3,-48(s0)
/home/nicoladgg/wsFreedomStudio/sifive_hifive1_revb_HCSR04/freedom-metal/src/drivers/riscv_cpu.c:488
200137be:	fe042623          	sw	zero,-20(s0)
/home/nicoladgg/wsFreedomStudio/sifive_hifive1_revb_HCSR04/freedom-metal/src/drivers/riscv_cpu.c:489
200137c2:	fdc42783          	lw	a5,-36(s0)
200137c6:	fef42423          	sw	a5,-24(s0)
/home/nicoladgg/wsFreedomStudio/sifive_hifive1_revb_HCSR04/freedom-metal/src/drivers/riscv_cpu.c:491
200137ca:	fd842503          	lw	a0,-40(s0)
200137ce:	3b51                	jal	20013562 <__metal_valid_interrupt_id>
200137d0:	87aa                	mv	a5,a0
200137d2:	e399                	bnez	a5,200137d8 <__metal_driver_riscv_cpu_controller_interrupt_register+0x32>
/home/nicoladgg/wsFreedomStudio/sifive_hifive1_revb_HCSR04/freedom-metal/src/drivers/riscv_cpu.c:492
200137d4:	57d5                	li	a5,-11
200137d6:	a25d                	j	2001397c <__metal_driver_riscv_cpu_controller_interrupt_register+0x1d6>
/home/nicoladgg/wsFreedomStudio/sifive_hifive1_revb_HCSR04/freedom-metal/src/drivers/riscv_cpu.c:494
200137d8:	fd842703          	lw	a4,-40(s0)
200137dc:	08000793          	li	a5,128
200137e0:	00f71763          	bne	a4,a5,200137ee <__metal_driver_riscv_cpu_controller_interrupt_register+0x48>
/home/nicoladgg/wsFreedomStudio/sifive_hifive1_revb_HCSR04/freedom-metal/src/drivers/riscv_cpu.c:495 (discriminator 1)
200137e4:	3995                	jal	20013458 <__metal_controller_interrupt_vector_mode>
200137e6:	87aa                	mv	a5,a0
/home/nicoladgg/wsFreedomStudio/sifive_hifive1_revb_HCSR04/freedom-metal/src/drivers/riscv_cpu.c:494 (discriminator 1)
200137e8:	c399                	beqz	a5,200137ee <__metal_driver_riscv_cpu_controller_interrupt_register+0x48>
/home/nicoladgg/wsFreedomStudio/sifive_hifive1_revb_HCSR04/freedom-metal/src/drivers/riscv_cpu.c:498
200137ea:	57cd                	li	a5,-13
200137ec:	aa41                	j	2001397c <__metal_driver_riscv_cpu_controller_interrupt_register+0x1d6>
/home/nicoladgg/wsFreedomStudio/sifive_hifive1_revb_HCSR04/freedom-metal/src/drivers/riscv_cpu.c:501
200137ee:	fd442783          	lw	a5,-44(s0)
200137f2:	cfb9                	beqz	a5,20013850 <__metal_driver_riscv_cpu_controller_interrupt_register+0xaa>
/home/nicoladgg/wsFreedomStudio/sifive_hifive1_revb_HCSR04/freedom-metal/src/drivers/riscv_cpu.c:502
200137f4:	fd842703          	lw	a4,-40(s0)
200137f8:	08000793          	li	a5,128
200137fc:	00f71f63          	bne	a4,a5,2001381a <__metal_driver_riscv_cpu_controller_interrupt_register+0x74>
/home/nicoladgg/wsFreedomStudio/sifive_hifive1_revb_HCSR04/freedom-metal/src/drivers/riscv_cpu.c:503
20013800:	fe842783          	lw	a5,-24(s0)
20013804:	fd442703          	lw	a4,-44(s0)
20013808:	38e7a823          	sw	a4,912(a5)
/home/nicoladgg/wsFreedomStudio/sifive_hifive1_revb_HCSR04/freedom-metal/src/drivers/riscv_cpu.c:504
2001380c:	fe842783          	lw	a5,-24(s0)
20013810:	fd042703          	lw	a4,-48(s0)
20013814:	38e7ac23          	sw	a4,920(a5)
20013818:	a285                	j	20013978 <__metal_driver_riscv_cpu_controller_interrupt_register+0x1d2>
/home/nicoladgg/wsFreedomStudio/sifive_hifive1_revb_HCSR04/freedom-metal/src/drivers/riscv_cpu.c:506
2001381a:	fe842683          	lw	a3,-24(s0)
2001381e:	fd842703          	lw	a4,-40(s0)
20013822:	87ba                	mv	a5,a4
20013824:	0786                	slli	a5,a5,0x1
20013826:	97ba                	add	a5,a5,a4
20013828:	078e                	slli	a5,a5,0x3
2001382a:	97b6                	add	a5,a5,a3
2001382c:	fd442703          	lw	a4,-44(s0)
20013830:	08e7a823          	sw	a4,144(a5)
/home/nicoladgg/wsFreedomStudio/sifive_hifive1_revb_HCSR04/freedom-metal/src/drivers/riscv_cpu.c:507
20013834:	fe842683          	lw	a3,-24(s0)
20013838:	fd842703          	lw	a4,-40(s0)
2001383c:	87ba                	mv	a5,a4
2001383e:	0786                	slli	a5,a5,0x1
20013840:	97ba                	add	a5,a5,a4
20013842:	078e                	slli	a5,a5,0x3
20013844:	97b6                	add	a5,a5,a3
20013846:	fd042703          	lw	a4,-48(s0)
2001384a:	08e7ac23          	sw	a4,152(a5)
2001384e:	a22d                	j	20013978 <__metal_driver_riscv_cpu_controller_interrupt_register+0x1d2>
/home/nicoladgg/wsFreedomStudio/sifive_hifive1_revb_HCSR04/freedom-metal/src/drivers/riscv_cpu.c:510
20013850:	fd842703          	lw	a4,-40(s0)
20013854:	08000793          	li	a5,128
20013858:	0cf70163          	beq	a4,a5,2001391a <__metal_driver_riscv_cpu_controller_interrupt_register+0x174>
2001385c:	fd842703          	lw	a4,-40(s0)
20013860:	08000793          	li	a5,128
20013864:	10e7c763          	blt	a5,a4,20013972 <__metal_driver_riscv_cpu_controller_interrupt_register+0x1cc>
20013868:	fd842703          	lw	a4,-40(s0)
2001386c:	47fd                	li	a5,31
2001386e:	10e7c263          	blt	a5,a4,20013972 <__metal_driver_riscv_cpu_controller_interrupt_register+0x1cc>
20013872:	fd842703          	lw	a4,-40(s0)
20013876:	47c1                	li	a5,16
20013878:	0cf75063          	bge	a4,a5,20013938 <__metal_driver_riscv_cpu_controller_interrupt_register+0x192>
2001387c:	fd842703          	lw	a4,-40(s0)
20013880:	47ad                	li	a5,11
20013882:	0af70b63          	beq	a4,a5,20013938 <__metal_driver_riscv_cpu_controller_interrupt_register+0x192>
20013886:	fd842703          	lw	a4,-40(s0)
2001388a:	47ad                	li	a5,11
2001388c:	0ee7c363          	blt	a5,a4,20013972 <__metal_driver_riscv_cpu_controller_interrupt_register+0x1cc>
20013890:	fd842703          	lw	a4,-40(s0)
20013894:	478d                	li	a5,3
20013896:	00f70863          	beq	a4,a5,200138a6 <__metal_driver_riscv_cpu_controller_interrupt_register+0x100>
2001389a:	fd842703          	lw	a4,-40(s0)
2001389e:	479d                	li	a5,7
200138a0:	04f70063          	beq	a4,a5,200138e0 <__metal_driver_riscv_cpu_controller_interrupt_register+0x13a>
200138a4:	a0f9                	j	20013972 <__metal_driver_riscv_cpu_controller_interrupt_register+0x1cc>
/home/nicoladgg/wsFreedomStudio/sifive_hifive1_revb_HCSR04/freedom-metal/src/drivers/riscv_cpu.c:512
200138a6:	fe842683          	lw	a3,-24(s0)
200138aa:	fd842703          	lw	a4,-40(s0)
200138ae:	87ba                	mv	a5,a4
200138b0:	0786                	slli	a5,a5,0x1
200138b2:	97ba                	add	a5,a5,a4
200138b4:	078e                	slli	a5,a5,0x3
200138b6:	97b6                	add	a5,a5,a3
200138b8:	20012737          	lui	a4,0x20012
200138bc:	74470713          	addi	a4,a4,1860 # 20012744 <__metal_default_sw_handler>
200138c0:	08e7a823          	sw	a4,144(a5)
/home/nicoladgg/wsFreedomStudio/sifive_hifive1_revb_HCSR04/freedom-metal/src/drivers/riscv_cpu.c:513
200138c4:	fe842683          	lw	a3,-24(s0)
200138c8:	fd842703          	lw	a4,-40(s0)
200138cc:	87ba                	mv	a5,a4
200138ce:	0786                	slli	a5,a5,0x1
200138d0:	97ba                	add	a5,a5,a4
200138d2:	078e                	slli	a5,a5,0x3
200138d4:	97b6                	add	a5,a5,a3
200138d6:	fd042703          	lw	a4,-48(s0)
200138da:	08e7aa23          	sw	a4,148(a5)
/home/nicoladgg/wsFreedomStudio/sifive_hifive1_revb_HCSR04/freedom-metal/src/drivers/riscv_cpu.c:514
200138de:	a869                	j	20013978 <__metal_driver_riscv_cpu_controller_interrupt_register+0x1d2>
/home/nicoladgg/wsFreedomStudio/sifive_hifive1_revb_HCSR04/freedom-metal/src/drivers/riscv_cpu.c:516
200138e0:	fe842683          	lw	a3,-24(s0)
200138e4:	fd842703          	lw	a4,-40(s0)
200138e8:	87ba                	mv	a5,a4
200138ea:	0786                	slli	a5,a5,0x1
200138ec:	97ba                	add	a5,a5,a4
200138ee:	078e                	slli	a5,a5,0x3
200138f0:	97b6                	add	a5,a5,a3
200138f2:	20013737          	lui	a4,0x20013
200138f6:	85470713          	addi	a4,a4,-1964 # 20012854 <__metal_default_timer_handler>
200138fa:	08e7a823          	sw	a4,144(a5)
/home/nicoladgg/wsFreedomStudio/sifive_hifive1_revb_HCSR04/freedom-metal/src/drivers/riscv_cpu.c:517
200138fe:	fe842683          	lw	a3,-24(s0)
20013902:	fd842703          	lw	a4,-40(s0)
20013906:	87ba                	mv	a5,a4
20013908:	0786                	slli	a5,a5,0x1
2001390a:	97ba                	add	a5,a5,a4
2001390c:	078e                	slli	a5,a5,0x3
2001390e:	97b6                	add	a5,a5,a3
20013910:	fd042703          	lw	a4,-48(s0)
20013914:	08e7aa23          	sw	a4,148(a5)
/home/nicoladgg/wsFreedomStudio/sifive_hifive1_revb_HCSR04/freedom-metal/src/drivers/riscv_cpu.c:518
20013918:	a085                	j	20013978 <__metal_driver_riscv_cpu_controller_interrupt_register+0x1d2>
/home/nicoladgg/wsFreedomStudio/sifive_hifive1_revb_HCSR04/freedom-metal/src/drivers/riscv_cpu.c:520
2001391a:	fe842783          	lw	a5,-24(s0)
2001391e:	20013737          	lui	a4,0x20013
20013922:	83e70713          	addi	a4,a4,-1986 # 2001283e <__metal_default_beu_handler>
20013926:	38e7a823          	sw	a4,912(a5)
/home/nicoladgg/wsFreedomStudio/sifive_hifive1_revb_HCSR04/freedom-metal/src/drivers/riscv_cpu.c:521
2001392a:	fe842783          	lw	a5,-24(s0)
2001392e:	fd042703          	lw	a4,-48(s0)
20013932:	38e7ac23          	sw	a4,920(a5)
/home/nicoladgg/wsFreedomStudio/sifive_hifive1_revb_HCSR04/freedom-metal/src/drivers/riscv_cpu.c:522
20013936:	a089                	j	20013978 <__metal_driver_riscv_cpu_controller_interrupt_register+0x1d2>
/home/nicoladgg/wsFreedomStudio/sifive_hifive1_revb_HCSR04/freedom-metal/src/drivers/riscv_cpu.c:540
20013938:	fe842683          	lw	a3,-24(s0)
2001393c:	fd842703          	lw	a4,-40(s0)
20013940:	87ba                	mv	a5,a4
20013942:	0786                	slli	a5,a5,0x1
20013944:	97ba                	add	a5,a5,a4
20013946:	078e                	slli	a5,a5,0x3
20013948:	97b6                	add	a5,a5,a3
2001394a:	20012737          	lui	a4,0x20012
2001394e:	66c70713          	addi	a4,a4,1644 # 2001266c <__metal_default_interrupt_handler>
20013952:	08e7a823          	sw	a4,144(a5)
/home/nicoladgg/wsFreedomStudio/sifive_hifive1_revb_HCSR04/freedom-metal/src/drivers/riscv_cpu.c:542
20013956:	fe842683          	lw	a3,-24(s0)
2001395a:	fd842703          	lw	a4,-40(s0)
2001395e:	87ba                	mv	a5,a4
20013960:	0786                	slli	a5,a5,0x1
20013962:	97ba                	add	a5,a5,a4
20013964:	078e                	slli	a5,a5,0x3
20013966:	97b6                	add	a5,a5,a3
20013968:	fd042703          	lw	a4,-48(s0)
2001396c:	08e7aa23          	sw	a4,148(a5)
/home/nicoladgg/wsFreedomStudio/sifive_hifive1_revb_HCSR04/freedom-metal/src/drivers/riscv_cpu.c:543
20013970:	a021                	j	20013978 <__metal_driver_riscv_cpu_controller_interrupt_register+0x1d2>
/home/nicoladgg/wsFreedomStudio/sifive_hifive1_revb_HCSR04/freedom-metal/src/drivers/riscv_cpu.c:545
20013972:	57d1                	li	a5,-12
20013974:	fef42623          	sw	a5,-20(s0)
/home/nicoladgg/wsFreedomStudio/sifive_hifive1_revb_HCSR04/freedom-metal/src/drivers/riscv_cpu.c:548
20013978:	fec42783          	lw	a5,-20(s0)
/home/nicoladgg/wsFreedomStudio/sifive_hifive1_revb_HCSR04/freedom-metal/src/drivers/riscv_cpu.c:549
2001397c:	853e                	mv	a0,a5
2001397e:	50b2                	lw	ra,44(sp)
20013980:	5422                	lw	s0,40(sp)
20013982:	6145                	addi	sp,sp,48
20013984:	8082                	ret

20013986 <__metal_driver_riscv_cpu_controller_interrupt_enable>:
__metal_driver_riscv_cpu_controller_interrupt_enable():
/home/nicoladgg/wsFreedomStudio/sifive_hifive1_revb_HCSR04/freedom-metal/src/drivers/riscv_cpu.c:552
20013986:	1101                	addi	sp,sp,-32
20013988:	ce06                	sw	ra,28(sp)
2001398a:	cc22                	sw	s0,24(sp)
2001398c:	1000                	addi	s0,sp,32
2001398e:	fea42623          	sw	a0,-20(s0)
20013992:	feb42423          	sw	a1,-24(s0)
/home/nicoladgg/wsFreedomStudio/sifive_hifive1_revb_HCSR04/freedom-metal/src/drivers/riscv_cpu.c:553
20013996:	fe842783          	lw	a5,-24(s0)
2001399a:	4605                	li	a2,1
2001399c:	85be                	mv	a1,a5
2001399e:	fec42503          	lw	a0,-20(s0)
200139a2:	3921                	jal	200135ba <__metal_local_interrupt_enable>
200139a4:	87aa                	mv	a5,a0
/home/nicoladgg/wsFreedomStudio/sifive_hifive1_revb_HCSR04/freedom-metal/src/drivers/riscv_cpu.c:554
200139a6:	853e                	mv	a0,a5
200139a8:	40f2                	lw	ra,28(sp)
200139aa:	4462                	lw	s0,24(sp)
200139ac:	6105                	addi	sp,sp,32
200139ae:	8082                	ret

200139b0 <__metal_driver_riscv_cpu_controller_interrupt_disable>:
__metal_driver_riscv_cpu_controller_interrupt_disable():
/home/nicoladgg/wsFreedomStudio/sifive_hifive1_revb_HCSR04/freedom-metal/src/drivers/riscv_cpu.c:557
200139b0:	1101                	addi	sp,sp,-32
200139b2:	ce06                	sw	ra,28(sp)
200139b4:	cc22                	sw	s0,24(sp)
200139b6:	1000                	addi	s0,sp,32
200139b8:	fea42623          	sw	a0,-20(s0)
200139bc:	feb42423          	sw	a1,-24(s0)
/home/nicoladgg/wsFreedomStudio/sifive_hifive1_revb_HCSR04/freedom-metal/src/drivers/riscv_cpu.c:558
200139c0:	fe842783          	lw	a5,-24(s0)
200139c4:	4601                	li	a2,0
200139c6:	85be                	mv	a1,a5
200139c8:	fec42503          	lw	a0,-20(s0)
200139cc:	36fd                	jal	200135ba <__metal_local_interrupt_enable>
200139ce:	87aa                	mv	a5,a0
/home/nicoladgg/wsFreedomStudio/sifive_hifive1_revb_HCSR04/freedom-metal/src/drivers/riscv_cpu.c:559
200139d0:	853e                	mv	a0,a5
200139d2:	40f2                	lw	ra,28(sp)
200139d4:	4462                	lw	s0,24(sp)
200139d6:	6105                	addi	sp,sp,32
200139d8:	8082                	ret

200139da <__metal_driver_riscv_cpu_controller_get_vector_mode>:
__metal_driver_riscv_cpu_controller_get_vector_mode():
/home/nicoladgg/wsFreedomStudio/sifive_hifive1_revb_HCSR04/freedom-metal/src/drivers/riscv_cpu.c:591
200139da:	1101                	addi	sp,sp,-32
200139dc:	ce06                	sw	ra,28(sp)
200139de:	cc22                	sw	s0,24(sp)
200139e0:	1000                	addi	s0,sp,32
200139e2:	fea42623          	sw	a0,-20(s0)
/home/nicoladgg/wsFreedomStudio/sifive_hifive1_revb_HCSR04/freedom-metal/src/drivers/riscv_cpu.c:592
200139e6:	a73ff0ef          	jal	ra,20013458 <__metal_controller_interrupt_vector_mode>
200139ea:	87aa                	mv	a5,a0
/home/nicoladgg/wsFreedomStudio/sifive_hifive1_revb_HCSR04/freedom-metal/src/drivers/riscv_cpu.c:593
200139ec:	853e                	mv	a0,a5
200139ee:	40f2                	lw	ra,28(sp)
200139f0:	4462                	lw	s0,24(sp)
200139f2:	6105                	addi	sp,sp,32
200139f4:	8082                	ret

200139f6 <__metal_driver_riscv_cpu_controller_set_vector_mode>:
__metal_driver_riscv_cpu_controller_set_vector_mode():
/home/nicoladgg/wsFreedomStudio/sifive_hifive1_revb_HCSR04/freedom-metal/src/drivers/riscv_cpu.c:596
200139f6:	1101                	addi	sp,sp,-32
200139f8:	ce06                	sw	ra,28(sp)
200139fa:	cc22                	sw	s0,24(sp)
200139fc:	1000                	addi	s0,sp,32
200139fe:	fea42623          	sw	a0,-20(s0)
20013a02:	feb42423          	sw	a1,-24(s0)
/home/nicoladgg/wsFreedomStudio/sifive_hifive1_revb_HCSR04/freedom-metal/src/drivers/riscv_cpu.c:598
20013a06:	fe842783          	lw	a5,-24(s0)
20013a0a:	eb99                	bnez	a5,20013a20 <__metal_driver_riscv_cpu_controller_set_vector_mode+0x2a>
/home/nicoladgg/wsFreedomStudio/sifive_hifive1_revb_HCSR04/freedom-metal/src/drivers/riscv_cpu.c:599
20013a0c:	200137b7          	lui	a5,0x20013
20013a10:	90078593          	addi	a1,a5,-1792 # 20012900 <__metal_exception_handler>
20013a14:	fe842503          	lw	a0,-24(s0)
20013a18:	a99ff0ef          	jal	ra,200134b0 <__metal_controller_interrupt_vector>
/home/nicoladgg/wsFreedomStudio/sifive_hifive1_revb_HCSR04/freedom-metal/src/drivers/riscv_cpu.c:601
20013a1c:	4781                	li	a5,0
20013a1e:	a00d                	j	20013a40 <__metal_driver_riscv_cpu_controller_set_vector_mode+0x4a>
/home/nicoladgg/wsFreedomStudio/sifive_hifive1_revb_HCSR04/freedom-metal/src/drivers/riscv_cpu.c:603
20013a20:	fe842703          	lw	a4,-24(s0)
20013a24:	4785                	li	a5,1
20013a26:	00f71c63          	bne	a4,a5,20013a3e <__metal_driver_riscv_cpu_controller_set_vector_mode+0x48>
/home/nicoladgg/wsFreedomStudio/sifive_hifive1_revb_HCSR04/freedom-metal/src/drivers/riscv_cpu.c:604
20013a2a:	200167b7          	lui	a5,0x20016
20013a2e:	58078593          	addi	a1,a5,1408 # 20016580 <__metal_vector_table>
20013a32:	fe842503          	lw	a0,-24(s0)
20013a36:	a7bff0ef          	jal	ra,200134b0 <__metal_controller_interrupt_vector>
/home/nicoladgg/wsFreedomStudio/sifive_hifive1_revb_HCSR04/freedom-metal/src/drivers/riscv_cpu.c:606
20013a3a:	4781                	li	a5,0
20013a3c:	a011                	j	20013a40 <__metal_driver_riscv_cpu_controller_set_vector_mode+0x4a>
/home/nicoladgg/wsFreedomStudio/sifive_hifive1_revb_HCSR04/freedom-metal/src/drivers/riscv_cpu.c:608
20013a3e:	57fd                	li	a5,-1
/home/nicoladgg/wsFreedomStudio/sifive_hifive1_revb_HCSR04/freedom-metal/src/drivers/riscv_cpu.c:609
20013a40:	853e                	mv	a0,a5
20013a42:	40f2                	lw	ra,28(sp)
20013a44:	4462                	lw	s0,24(sp)
20013a46:	6105                	addi	sp,sp,32
20013a48:	8082                	ret

20013a4a <__metal_driver_riscv_cpu_controller_command_request>:
__metal_driver_riscv_cpu_controller_command_request():
/home/nicoladgg/wsFreedomStudio/sifive_hifive1_revb_HCSR04/freedom-metal/src/drivers/riscv_cpu.c:612
20013a4a:	1101                	addi	sp,sp,-32
20013a4c:	ce22                	sw	s0,28(sp)
20013a4e:	1000                	addi	s0,sp,32
20013a50:	fea42623          	sw	a0,-20(s0)
20013a54:	feb42423          	sw	a1,-24(s0)
20013a58:	fec42223          	sw	a2,-28(s0)
/home/nicoladgg/wsFreedomStudio/sifive_hifive1_revb_HCSR04/freedom-metal/src/drivers/riscv_cpu.c:615
20013a5c:	4781                	li	a5,0
/home/nicoladgg/wsFreedomStudio/sifive_hifive1_revb_HCSR04/freedom-metal/src/drivers/riscv_cpu.c:616
20013a5e:	853e                	mv	a0,a5
20013a60:	4472                	lw	s0,28(sp)
20013a62:	6105                	addi	sp,sp,32
20013a64:	8082                	ret

20013a66 <__metal_driver_cpu_mcycle_get>:
__metal_driver_cpu_mcycle_get():
/home/nicoladgg/wsFreedomStudio/sifive_hifive1_revb_HCSR04/freedom-metal/src/drivers/riscv_cpu.c:620
20013a66:	7139                	addi	sp,sp,-64
20013a68:	de22                	sw	s0,60(sp)
20013a6a:	0080                	addi	s0,sp,64
20013a6c:	fca42623          	sw	a0,-52(s0)
/home/nicoladgg/wsFreedomStudio/sifive_hifive1_revb_HCSR04/freedom-metal/src/drivers/riscv_cpu.c:621
20013a70:	4501                	li	a0,0
20013a72:	4581                	li	a1,0
20013a74:	fea42423          	sw	a0,-24(s0)
20013a78:	feb42623          	sw	a1,-20(s0)
/home/nicoladgg/wsFreedomStudio/sifive_hifive1_revb_HCSR04/freedom-metal/src/drivers/riscv_cpu.c:627 (discriminator 1)
20013a7c:	b80025f3          	csrr	a1,mcycleh
20013a80:	feb42223          	sw	a1,-28(s0)
/home/nicoladgg/wsFreedomStudio/sifive_hifive1_revb_HCSR04/freedom-metal/src/drivers/riscv_cpu.c:628 (discriminator 1)
20013a84:	b00025f3          	csrr	a1,mcycle
20013a88:	feb42023          	sw	a1,-32(s0)
/home/nicoladgg/wsFreedomStudio/sifive_hifive1_revb_HCSR04/freedom-metal/src/drivers/riscv_cpu.c:629 (discriminator 1)
20013a8c:	b80025f3          	csrr	a1,mcycleh
20013a90:	fcb42e23          	sw	a1,-36(s0)
/home/nicoladgg/wsFreedomStudio/sifive_hifive1_revb_HCSR04/freedom-metal/src/drivers/riscv_cpu.c:632 (discriminator 1)
20013a94:	fe442503          	lw	a0,-28(s0)
20013a98:	fdc42583          	lw	a1,-36(s0)
20013a9c:	feb510e3          	bne	a0,a1,20013a7c <__metal_driver_cpu_mcycle_get+0x16>
/home/nicoladgg/wsFreedomStudio/sifive_hifive1_revb_HCSR04/freedom-metal/src/drivers/riscv_cpu.c:634
20013aa0:	fe442583          	lw	a1,-28(s0)
20013aa4:	882e                	mv	a6,a1
20013aa6:	4881                	li	a7,0
20013aa8:	00081793          	slli	a5,a6,0x0
20013aac:	4701                	li	a4,0
20013aae:	fe042583          	lw	a1,-32(s0)
20013ab2:	862e                	mv	a2,a1
20013ab4:	4681                	li	a3,0
20013ab6:	00c765b3          	or	a1,a4,a2
20013aba:	feb42423          	sw	a1,-24(s0)
20013abe:	8fd5                	or	a5,a5,a3
20013ac0:	fef42623          	sw	a5,-20(s0)
/home/nicoladgg/wsFreedomStudio/sifive_hifive1_revb_HCSR04/freedom-metal/src/drivers/riscv_cpu.c:639
20013ac4:	fe842703          	lw	a4,-24(s0)
20013ac8:	fec42783          	lw	a5,-20(s0)
/home/nicoladgg/wsFreedomStudio/sifive_hifive1_revb_HCSR04/freedom-metal/src/drivers/riscv_cpu.c:640
20013acc:	853a                	mv	a0,a4
20013ace:	85be                	mv	a1,a5
20013ad0:	5472                	lw	s0,60(sp)
20013ad2:	6121                	addi	sp,sp,64
20013ad4:	8082                	ret

20013ad6 <__metal_driver_cpu_timebase_get>:
__metal_driver_cpu_timebase_get():
/home/nicoladgg/wsFreedomStudio/sifive_hifive1_revb_HCSR04/freedom-metal/src/drivers/riscv_cpu.c:642
20013ad6:	7179                	addi	sp,sp,-48
20013ad8:	d606                	sw	ra,44(sp)
20013ada:	d422                	sw	s0,40(sp)
20013adc:	d24a                	sw	s2,36(sp)
20013ade:	d04e                	sw	s3,32(sp)
20013ae0:	1800                	addi	s0,sp,48
20013ae2:	fca42e23          	sw	a0,-36(s0)
/home/nicoladgg/wsFreedomStudio/sifive_hifive1_revb_HCSR04/freedom-metal/src/drivers/riscv_cpu.c:644
20013ae6:	fdc42783          	lw	a5,-36(s0)
20013aea:	e781                	bnez	a5,20013af2 <__metal_driver_cpu_timebase_get+0x1c>
/home/nicoladgg/wsFreedomStudio/sifive_hifive1_revb_HCSR04/freedom-metal/src/drivers/riscv_cpu.c:645
20013aec:	4901                	li	s2,0
20013aee:	4981                	li	s3,0
20013af0:	a821                	j	20013b08 <__metal_driver_cpu_timebase_get+0x32>
/home/nicoladgg/wsFreedomStudio/sifive_hifive1_revb_HCSR04/freedom-metal/src/drivers/riscv_cpu.c:648
20013af2:	fdc42503          	lw	a0,-36(s0)
20013af6:	979fe0ef          	jal	ra,2001246e <__metal_driver_cpu_timebase>
20013afa:	fea42623          	sw	a0,-20(s0)
/home/nicoladgg/wsFreedomStudio/sifive_hifive1_revb_HCSR04/freedom-metal/src/drivers/riscv_cpu.c:649
20013afe:	fec42783          	lw	a5,-20(s0)
20013b02:	893e                	mv	s2,a5
20013b04:	87fd                	srai	a5,a5,0x1f
20013b06:	89be                	mv	s3,a5
/home/nicoladgg/wsFreedomStudio/sifive_hifive1_revb_HCSR04/freedom-metal/src/drivers/riscv_cpu.c:650
20013b08:	874a                	mv	a4,s2
20013b0a:	87ce                	mv	a5,s3
20013b0c:	853a                	mv	a0,a4
20013b0e:	85be                	mv	a1,a5
20013b10:	50b2                	lw	ra,44(sp)
20013b12:	5422                	lw	s0,40(sp)
20013b14:	5912                	lw	s2,36(sp)
20013b16:	5982                	lw	s3,32(sp)
20013b18:	6145                	addi	sp,sp,48
20013b1a:	8082                	ret

20013b1c <__metal_driver_cpu_mtime_get>:
__metal_driver_cpu_mtime_get():
/home/nicoladgg/wsFreedomStudio/sifive_hifive1_revb_HCSR04/freedom-metal/src/drivers/riscv_cpu.c:652
20013b1c:	7179                	addi	sp,sp,-48
20013b1e:	d606                	sw	ra,44(sp)
20013b20:	d422                	sw	s0,40(sp)
20013b22:	1800                	addi	s0,sp,48
20013b24:	fca42e23          	sw	a0,-36(s0)
/home/nicoladgg/wsFreedomStudio/sifive_hifive1_revb_HCSR04/freedom-metal/src/drivers/riscv_cpu.c:653
20013b28:	4781                	li	a5,0
20013b2a:	4801                	li	a6,0
20013b2c:	fef42023          	sw	a5,-32(s0)
20013b30:	ff042223          	sw	a6,-28(s0)
/home/nicoladgg/wsFreedomStudio/sifive_hifive1_revb_HCSR04/freedom-metal/src/drivers/riscv_cpu.c:657
20013b34:	fdc42503          	lw	a0,-36(s0)
20013b38:	961fe0ef          	jal	ra,20012498 <__metal_driver_cpu_interrupt_controller>
20013b3c:	fea42623          	sw	a0,-20(s0)
/home/nicoladgg/wsFreedomStudio/sifive_hifive1_revb_HCSR04/freedom-metal/src/drivers/riscv_cpu.c:659
20013b40:	fec42783          	lw	a5,-20(s0)
20013b44:	c78d                	beqz	a5,20013b6e <__metal_driver_cpu_mtime_get+0x52>
/home/nicoladgg/wsFreedomStudio/sifive_hifive1_revb_HCSR04/freedom-metal/src/drivers/riscv_cpu.c:660
20013b46:	fec42783          	lw	a5,-20(s0)
20013b4a:	13c7a783          	lw	a5,316(a5)
20013b4e:	fef42423          	sw	a5,-24(s0)
/home/nicoladgg/wsFreedomStudio/sifive_hifive1_revb_HCSR04/freedom-metal/src/drivers/riscv_cpu.c:661
20013b52:	fe842783          	lw	a5,-24(s0)
20013b56:	cf81                	beqz	a5,20013b6e <__metal_driver_cpu_mtime_get+0x52>
/home/nicoladgg/wsFreedomStudio/sifive_hifive1_revb_HCSR04/freedom-metal/src/drivers/riscv_cpu.c:662
20013b58:	fe842783          	lw	a5,-24(s0)
20013b5c:	439c                	lw	a5,0(a5)
20013b5e:	47f8                	lw	a4,76(a5)
20013b60:	fe040793          	addi	a5,s0,-32
20013b64:	863e                	mv	a2,a5
20013b66:	4585                	li	a1,1
20013b68:	fe842503          	lw	a0,-24(s0)
20013b6c:	9702                	jalr	a4
/home/nicoladgg/wsFreedomStudio/sifive_hifive1_revb_HCSR04/freedom-metal/src/drivers/riscv_cpu.c:666
20013b6e:	fe042703          	lw	a4,-32(s0)
20013b72:	fe442783          	lw	a5,-28(s0)
/home/nicoladgg/wsFreedomStudio/sifive_hifive1_revb_HCSR04/freedom-metal/src/drivers/riscv_cpu.c:667
20013b76:	853a                	mv	a0,a4
20013b78:	85be                	mv	a1,a5
20013b7a:	50b2                	lw	ra,44(sp)
20013b7c:	5422                	lw	s0,40(sp)
20013b7e:	6145                	addi	sp,sp,48
20013b80:	8082                	ret

20013b82 <__metal_driver_cpu_mtimecmp_set>:
__metal_driver_cpu_mtimecmp_set():
/home/nicoladgg/wsFreedomStudio/sifive_hifive1_revb_HCSR04/freedom-metal/src/drivers/riscv_cpu.c:670
20013b82:	7179                	addi	sp,sp,-48
20013b84:	d606                	sw	ra,44(sp)
20013b86:	d422                	sw	s0,40(sp)
20013b88:	d226                	sw	s1,36(sp)
20013b8a:	1800                	addi	s0,sp,48
20013b8c:	fca42e23          	sw	a0,-36(s0)
20013b90:	fcb42823          	sw	a1,-48(s0)
20013b94:	fcc42a23          	sw	a2,-44(s0)
/home/nicoladgg/wsFreedomStudio/sifive_hifive1_revb_HCSR04/freedom-metal/src/drivers/riscv_cpu.c:671
20013b98:	57fd                	li	a5,-1
20013b9a:	fef42623          	sw	a5,-20(s0)
/home/nicoladgg/wsFreedomStudio/sifive_hifive1_revb_HCSR04/freedom-metal/src/drivers/riscv_cpu.c:675
20013b9e:	fdc42503          	lw	a0,-36(s0)
20013ba2:	8f7fe0ef          	jal	ra,20012498 <__metal_driver_cpu_interrupt_controller>
20013ba6:	fea42423          	sw	a0,-24(s0)
/home/nicoladgg/wsFreedomStudio/sifive_hifive1_revb_HCSR04/freedom-metal/src/drivers/riscv_cpu.c:677
20013baa:	fe842783          	lw	a5,-24(s0)
20013bae:	cf8d                	beqz	a5,20013be8 <__metal_driver_cpu_mtimecmp_set+0x66>
/home/nicoladgg/wsFreedomStudio/sifive_hifive1_revb_HCSR04/freedom-metal/src/drivers/riscv_cpu.c:678
20013bb0:	fe842783          	lw	a5,-24(s0)
20013bb4:	13c7a783          	lw	a5,316(a5)
20013bb8:	fef42223          	sw	a5,-28(s0)
/home/nicoladgg/wsFreedomStudio/sifive_hifive1_revb_HCSR04/freedom-metal/src/drivers/riscv_cpu.c:679
20013bbc:	fe442783          	lw	a5,-28(s0)
20013bc0:	c785                	beqz	a5,20013be8 <__metal_driver_cpu_mtimecmp_set+0x66>
/home/nicoladgg/wsFreedomStudio/sifive_hifive1_revb_HCSR04/freedom-metal/src/drivers/riscv_cpu.c:680
20013bc2:	fe442783          	lw	a5,-28(s0)
20013bc6:	439c                	lw	a5,0(a5)
20013bc8:	4ba4                	lw	s1,80(a5)
20013bca:	fdc42503          	lw	a0,-36(s0)
20013bce:	87dfe0ef          	jal	ra,2001244a <__metal_driver_cpu_hartid>
20013bd2:	87aa                	mv	a5,a0
20013bd4:	fd042603          	lw	a2,-48(s0)
20013bd8:	fd442683          	lw	a3,-44(s0)
20013bdc:	85be                	mv	a1,a5
20013bde:	fe442503          	lw	a0,-28(s0)
20013be2:	9482                	jalr	s1
20013be4:	fea42623          	sw	a0,-20(s0)
/home/nicoladgg/wsFreedomStudio/sifive_hifive1_revb_HCSR04/freedom-metal/src/drivers/riscv_cpu.c:684
20013be8:	fec42783          	lw	a5,-20(s0)
/home/nicoladgg/wsFreedomStudio/sifive_hifive1_revb_HCSR04/freedom-metal/src/drivers/riscv_cpu.c:685
20013bec:	853e                	mv	a0,a5
20013bee:	50b2                	lw	ra,44(sp)
20013bf0:	5422                	lw	s0,40(sp)
20013bf2:	5492                	lw	s1,36(sp)
20013bf4:	6145                	addi	sp,sp,48
20013bf6:	8082                	ret

20013bf8 <__metal_driver_cpu_timer_controller_interrupt>:
__metal_driver_cpu_timer_controller_interrupt():
/home/nicoladgg/wsFreedomStudio/sifive_hifive1_revb_HCSR04/freedom-metal/src/drivers/riscv_cpu.c:688
20013bf8:	1101                	addi	sp,sp,-32
20013bfa:	ce22                	sw	s0,28(sp)
20013bfc:	1000                	addi	s0,sp,32
20013bfe:	fea42623          	sw	a0,-20(s0)
/home/nicoladgg/wsFreedomStudio/sifive_hifive1_revb_HCSR04/freedom-metal/src/drivers/riscv_cpu.c:690
20013c02:	800017b7          	lui	a5,0x80001
20013c06:	aa878793          	addi	a5,a5,-1368 # 80000aa8 <metal_segment_heap_target_end+0xfffff328>
/home/nicoladgg/wsFreedomStudio/sifive_hifive1_revb_HCSR04/freedom-metal/src/drivers/riscv_cpu.c:699
20013c0a:	853e                	mv	a0,a5
20013c0c:	4472                	lw	s0,28(sp)
20013c0e:	6105                	addi	sp,sp,32
20013c10:	8082                	ret

20013c12 <__metal_driver_cpu_get_timer_interrupt_id>:
__metal_driver_cpu_get_timer_interrupt_id():
/home/nicoladgg/wsFreedomStudio/sifive_hifive1_revb_HCSR04/freedom-metal/src/drivers/riscv_cpu.c:701
20013c12:	1101                	addi	sp,sp,-32
20013c14:	ce22                	sw	s0,28(sp)
20013c16:	1000                	addi	s0,sp,32
20013c18:	fea42623          	sw	a0,-20(s0)
/home/nicoladgg/wsFreedomStudio/sifive_hifive1_revb_HCSR04/freedom-metal/src/drivers/riscv_cpu.c:702
20013c1c:	479d                	li	a5,7
/home/nicoladgg/wsFreedomStudio/sifive_hifive1_revb_HCSR04/freedom-metal/src/drivers/riscv_cpu.c:703
20013c1e:	853e                	mv	a0,a5
20013c20:	4472                	lw	s0,28(sp)
20013c22:	6105                	addi	sp,sp,32
20013c24:	8082                	ret

20013c26 <__metal_driver_cpu_sw_controller_interrupt>:
__metal_driver_cpu_sw_controller_interrupt():
/home/nicoladgg/wsFreedomStudio/sifive_hifive1_revb_HCSR04/freedom-metal/src/drivers/riscv_cpu.c:706
20013c26:	1101                	addi	sp,sp,-32
20013c28:	ce22                	sw	s0,28(sp)
20013c2a:	1000                	addi	s0,sp,32
20013c2c:	fea42623          	sw	a0,-20(s0)
/home/nicoladgg/wsFreedomStudio/sifive_hifive1_revb_HCSR04/freedom-metal/src/drivers/riscv_cpu.c:708
20013c30:	800017b7          	lui	a5,0x80001
20013c34:	aa878793          	addi	a5,a5,-1368 # 80000aa8 <metal_segment_heap_target_end+0xfffff328>
/home/nicoladgg/wsFreedomStudio/sifive_hifive1_revb_HCSR04/freedom-metal/src/drivers/riscv_cpu.c:717
20013c38:	853e                	mv	a0,a5
20013c3a:	4472                	lw	s0,28(sp)
20013c3c:	6105                	addi	sp,sp,32
20013c3e:	8082                	ret

20013c40 <__metal_driver_cpu_get_sw_interrupt_id>:
__metal_driver_cpu_get_sw_interrupt_id():
/home/nicoladgg/wsFreedomStudio/sifive_hifive1_revb_HCSR04/freedom-metal/src/drivers/riscv_cpu.c:719
20013c40:	1101                	addi	sp,sp,-32
20013c42:	ce22                	sw	s0,28(sp)
20013c44:	1000                	addi	s0,sp,32
20013c46:	fea42623          	sw	a0,-20(s0)
/home/nicoladgg/wsFreedomStudio/sifive_hifive1_revb_HCSR04/freedom-metal/src/drivers/riscv_cpu.c:720
20013c4a:	478d                	li	a5,3
/home/nicoladgg/wsFreedomStudio/sifive_hifive1_revb_HCSR04/freedom-metal/src/drivers/riscv_cpu.c:721
20013c4c:	853e                	mv	a0,a5
20013c4e:	4472                	lw	s0,28(sp)
20013c50:	6105                	addi	sp,sp,32
20013c52:	8082                	ret

20013c54 <__metal_driver_cpu_set_sw_ipi>:
__metal_driver_cpu_set_sw_ipi():
/home/nicoladgg/wsFreedomStudio/sifive_hifive1_revb_HCSR04/freedom-metal/src/drivers/riscv_cpu.c:723
20013c54:	7179                	addi	sp,sp,-48
20013c56:	d606                	sw	ra,44(sp)
20013c58:	d422                	sw	s0,40(sp)
20013c5a:	1800                	addi	s0,sp,48
20013c5c:	fca42e23          	sw	a0,-36(s0)
20013c60:	fcb42c23          	sw	a1,-40(s0)
/home/nicoladgg/wsFreedomStudio/sifive_hifive1_revb_HCSR04/freedom-metal/src/drivers/riscv_cpu.c:724
20013c64:	57fd                	li	a5,-1
20013c66:	fef42623          	sw	a5,-20(s0)
/home/nicoladgg/wsFreedomStudio/sifive_hifive1_revb_HCSR04/freedom-metal/src/drivers/riscv_cpu.c:728
20013c6a:	fdc42503          	lw	a0,-36(s0)
20013c6e:	82bfe0ef          	jal	ra,20012498 <__metal_driver_cpu_interrupt_controller>
20013c72:	fea42423          	sw	a0,-24(s0)
/home/nicoladgg/wsFreedomStudio/sifive_hifive1_revb_HCSR04/freedom-metal/src/drivers/riscv_cpu.c:730
20013c76:	fe842783          	lw	a5,-24(s0)
20013c7a:	c79d                	beqz	a5,20013ca8 <__metal_driver_cpu_set_sw_ipi+0x54>
/home/nicoladgg/wsFreedomStudio/sifive_hifive1_revb_HCSR04/freedom-metal/src/drivers/riscv_cpu.c:731
20013c7c:	fe842783          	lw	a5,-24(s0)
20013c80:	0dc7a783          	lw	a5,220(a5)
20013c84:	fef42223          	sw	a5,-28(s0)
/home/nicoladgg/wsFreedomStudio/sifive_hifive1_revb_HCSR04/freedom-metal/src/drivers/riscv_cpu.c:732
20013c88:	fe442783          	lw	a5,-28(s0)
20013c8c:	cf91                	beqz	a5,20013ca8 <__metal_driver_cpu_set_sw_ipi+0x54>
/home/nicoladgg/wsFreedomStudio/sifive_hifive1_revb_HCSR04/freedom-metal/src/drivers/riscv_cpu.c:733
20013c8e:	fe442783          	lw	a5,-28(s0)
20013c92:	439c                	lw	a5,0(a5)
20013c94:	47f8                	lw	a4,76(a5)
20013c96:	fd840793          	addi	a5,s0,-40
20013c9a:	863e                	mv	a2,a5
20013c9c:	458d                	li	a1,3
20013c9e:	fe442503          	lw	a0,-28(s0)
20013ca2:	9702                	jalr	a4
20013ca4:	fea42623          	sw	a0,-20(s0)
/home/nicoladgg/wsFreedomStudio/sifive_hifive1_revb_HCSR04/freedom-metal/src/drivers/riscv_cpu.c:737
20013ca8:	fec42783          	lw	a5,-20(s0)
/home/nicoladgg/wsFreedomStudio/sifive_hifive1_revb_HCSR04/freedom-metal/src/drivers/riscv_cpu.c:738
20013cac:	853e                	mv	a0,a5
20013cae:	50b2                	lw	ra,44(sp)
20013cb0:	5422                	lw	s0,40(sp)
20013cb2:	6145                	addi	sp,sp,48
20013cb4:	8082                	ret

20013cb6 <__metal_driver_cpu_clear_sw_ipi>:
__metal_driver_cpu_clear_sw_ipi():
/home/nicoladgg/wsFreedomStudio/sifive_hifive1_revb_HCSR04/freedom-metal/src/drivers/riscv_cpu.c:740
20013cb6:	7179                	addi	sp,sp,-48
20013cb8:	d606                	sw	ra,44(sp)
20013cba:	d422                	sw	s0,40(sp)
20013cbc:	1800                	addi	s0,sp,48
20013cbe:	fca42e23          	sw	a0,-36(s0)
20013cc2:	fcb42c23          	sw	a1,-40(s0)
/home/nicoladgg/wsFreedomStudio/sifive_hifive1_revb_HCSR04/freedom-metal/src/drivers/riscv_cpu.c:741
20013cc6:	57fd                	li	a5,-1
20013cc8:	fef42623          	sw	a5,-20(s0)
/home/nicoladgg/wsFreedomStudio/sifive_hifive1_revb_HCSR04/freedom-metal/src/drivers/riscv_cpu.c:745
20013ccc:	fdc42503          	lw	a0,-36(s0)
20013cd0:	fc8fe0ef          	jal	ra,20012498 <__metal_driver_cpu_interrupt_controller>
20013cd4:	fea42423          	sw	a0,-24(s0)
/home/nicoladgg/wsFreedomStudio/sifive_hifive1_revb_HCSR04/freedom-metal/src/drivers/riscv_cpu.c:747
20013cd8:	fe842783          	lw	a5,-24(s0)
20013cdc:	c79d                	beqz	a5,20013d0a <__metal_driver_cpu_clear_sw_ipi+0x54>
/home/nicoladgg/wsFreedomStudio/sifive_hifive1_revb_HCSR04/freedom-metal/src/drivers/riscv_cpu.c:748
20013cde:	fe842783          	lw	a5,-24(s0)
20013ce2:	0dc7a783          	lw	a5,220(a5)
20013ce6:	fef42223          	sw	a5,-28(s0)
/home/nicoladgg/wsFreedomStudio/sifive_hifive1_revb_HCSR04/freedom-metal/src/drivers/riscv_cpu.c:749
20013cea:	fe442783          	lw	a5,-28(s0)
20013cee:	cf91                	beqz	a5,20013d0a <__metal_driver_cpu_clear_sw_ipi+0x54>
/home/nicoladgg/wsFreedomStudio/sifive_hifive1_revb_HCSR04/freedom-metal/src/drivers/riscv_cpu.c:750
20013cf0:	fe442783          	lw	a5,-28(s0)
20013cf4:	439c                	lw	a5,0(a5)
20013cf6:	47f8                	lw	a4,76(a5)
20013cf8:	fd840793          	addi	a5,s0,-40
20013cfc:	863e                	mv	a2,a5
20013cfe:	4589                	li	a1,2
20013d00:	fe442503          	lw	a0,-28(s0)
20013d04:	9702                	jalr	a4
20013d06:	fea42623          	sw	a0,-20(s0)
/home/nicoladgg/wsFreedomStudio/sifive_hifive1_revb_HCSR04/freedom-metal/src/drivers/riscv_cpu.c:754
20013d0a:	fec42783          	lw	a5,-20(s0)
/home/nicoladgg/wsFreedomStudio/sifive_hifive1_revb_HCSR04/freedom-metal/src/drivers/riscv_cpu.c:755
20013d0e:	853e                	mv	a0,a5
20013d10:	50b2                	lw	ra,44(sp)
20013d12:	5422                	lw	s0,40(sp)
20013d14:	6145                	addi	sp,sp,48
20013d16:	8082                	ret

20013d18 <__metal_driver_cpu_get_msip>:
__metal_driver_cpu_get_msip():
/home/nicoladgg/wsFreedomStudio/sifive_hifive1_revb_HCSR04/freedom-metal/src/drivers/riscv_cpu.c:757
20013d18:	7179                	addi	sp,sp,-48
20013d1a:	d606                	sw	ra,44(sp)
20013d1c:	d422                	sw	s0,40(sp)
20013d1e:	1800                	addi	s0,sp,48
20013d20:	fca42e23          	sw	a0,-36(s0)
20013d24:	fcb42c23          	sw	a1,-40(s0)
/home/nicoladgg/wsFreedomStudio/sifive_hifive1_revb_HCSR04/freedom-metal/src/drivers/riscv_cpu.c:758
20013d28:	fe042623          	sw	zero,-20(s0)
/home/nicoladgg/wsFreedomStudio/sifive_hifive1_revb_HCSR04/freedom-metal/src/drivers/riscv_cpu.c:762
20013d2c:	fdc42503          	lw	a0,-36(s0)
20013d30:	f68fe0ef          	jal	ra,20012498 <__metal_driver_cpu_interrupt_controller>
20013d34:	fea42423          	sw	a0,-24(s0)
/home/nicoladgg/wsFreedomStudio/sifive_hifive1_revb_HCSR04/freedom-metal/src/drivers/riscv_cpu.c:764
20013d38:	fe842783          	lw	a5,-24(s0)
20013d3c:	c79d                	beqz	a5,20013d6a <__metal_driver_cpu_get_msip+0x52>
/home/nicoladgg/wsFreedomStudio/sifive_hifive1_revb_HCSR04/freedom-metal/src/drivers/riscv_cpu.c:765
20013d3e:	fe842783          	lw	a5,-24(s0)
20013d42:	0dc7a783          	lw	a5,220(a5)
20013d46:	fef42223          	sw	a5,-28(s0)
/home/nicoladgg/wsFreedomStudio/sifive_hifive1_revb_HCSR04/freedom-metal/src/drivers/riscv_cpu.c:766
20013d4a:	fe442783          	lw	a5,-28(s0)
20013d4e:	cf91                	beqz	a5,20013d6a <__metal_driver_cpu_get_msip+0x52>
/home/nicoladgg/wsFreedomStudio/sifive_hifive1_revb_HCSR04/freedom-metal/src/drivers/riscv_cpu.c:767
20013d50:	fe442783          	lw	a5,-28(s0)
20013d54:	439c                	lw	a5,0(a5)
20013d56:	47f8                	lw	a4,76(a5)
20013d58:	fd840793          	addi	a5,s0,-40
20013d5c:	863e                	mv	a2,a5
20013d5e:	4591                	li	a1,4
20013d60:	fe442503          	lw	a0,-28(s0)
20013d64:	9702                	jalr	a4
20013d66:	fea42623          	sw	a0,-20(s0)
/home/nicoladgg/wsFreedomStudio/sifive_hifive1_revb_HCSR04/freedom-metal/src/drivers/riscv_cpu.c:771
20013d6a:	fec42783          	lw	a5,-20(s0)
/home/nicoladgg/wsFreedomStudio/sifive_hifive1_revb_HCSR04/freedom-metal/src/drivers/riscv_cpu.c:772
20013d6e:	853e                	mv	a0,a5
20013d70:	50b2                	lw	ra,44(sp)
20013d72:	5422                	lw	s0,40(sp)
20013d74:	6145                	addi	sp,sp,48
20013d76:	8082                	ret

20013d78 <__metal_driver_cpu_controller_interrupt>:
__metal_driver_cpu_controller_interrupt():
/home/nicoladgg/wsFreedomStudio/sifive_hifive1_revb_HCSR04/freedom-metal/src/drivers/riscv_cpu.c:775
20013d78:	1101                	addi	sp,sp,-32
20013d7a:	ce06                	sw	ra,28(sp)
20013d7c:	cc22                	sw	s0,24(sp)
20013d7e:	1000                	addi	s0,sp,32
20013d80:	fea42623          	sw	a0,-20(s0)
/home/nicoladgg/wsFreedomStudio/sifive_hifive1_revb_HCSR04/freedom-metal/src/drivers/riscv_cpu.c:776
20013d84:	fec42503          	lw	a0,-20(s0)
20013d88:	f10fe0ef          	jal	ra,20012498 <__metal_driver_cpu_interrupt_controller>
20013d8c:	87aa                	mv	a5,a0
/home/nicoladgg/wsFreedomStudio/sifive_hifive1_revb_HCSR04/freedom-metal/src/drivers/riscv_cpu.c:777
20013d8e:	853e                	mv	a0,a5
20013d90:	40f2                	lw	ra,28(sp)
20013d92:	4462                	lw	s0,24(sp)
20013d94:	6105                	addi	sp,sp,32
20013d96:	8082                	ret

20013d98 <__metal_driver_cpu_exception_register>:
__metal_driver_cpu_exception_register():
/home/nicoladgg/wsFreedomStudio/sifive_hifive1_revb_HCSR04/freedom-metal/src/drivers/riscv_cpu.c:798
20013d98:	7179                	addi	sp,sp,-48
20013d9a:	d606                	sw	ra,44(sp)
20013d9c:	d422                	sw	s0,40(sp)
20013d9e:	1800                	addi	s0,sp,48
20013da0:	fca42e23          	sw	a0,-36(s0)
20013da4:	fcb42c23          	sw	a1,-40(s0)
20013da8:	fcc42a23          	sw	a2,-44(s0)
/home/nicoladgg/wsFreedomStudio/sifive_hifive1_revb_HCSR04/freedom-metal/src/drivers/riscv_cpu.c:801
20013dac:	fdc42503          	lw	a0,-36(s0)
20013db0:	ee8fe0ef          	jal	ra,20012498 <__metal_driver_cpu_interrupt_controller>
20013db4:	fea42623          	sw	a0,-20(s0)
/home/nicoladgg/wsFreedomStudio/sifive_hifive1_revb_HCSR04/freedom-metal/src/drivers/riscv_cpu.c:803
20013db8:	fec42783          	lw	a5,-20(s0)
20013dbc:	cb99                	beqz	a5,20013dd2 <__metal_driver_cpu_exception_register+0x3a>
/home/nicoladgg/wsFreedomStudio/sifive_hifive1_revb_HCSR04/freedom-metal/src/drivers/riscv_cpu.c:804
20013dbe:	fd442603          	lw	a2,-44(s0)
20013dc2:	fd842583          	lw	a1,-40(s0)
20013dc6:	fec42503          	lw	a0,-20(s0)
20013dca:	8adff0ef          	jal	ra,20013676 <__metal_exception_register>
20013dce:	87aa                	mv	a5,a0
20013dd0:	a011                	j	20013dd4 <__metal_driver_cpu_exception_register+0x3c>
/home/nicoladgg/wsFreedomStudio/sifive_hifive1_revb_HCSR04/freedom-metal/src/drivers/riscv_cpu.c:807
20013dd2:	57fd                	li	a5,-1
/home/nicoladgg/wsFreedomStudio/sifive_hifive1_revb_HCSR04/freedom-metal/src/drivers/riscv_cpu.c:808
20013dd4:	853e                	mv	a0,a5
20013dd6:	50b2                	lw	ra,44(sp)
20013dd8:	5422                	lw	s0,40(sp)
20013dda:	6145                	addi	sp,sp,48
20013ddc:	8082                	ret

20013dde <__metal_driver_cpu_get_instruction_length>:
__metal_driver_cpu_get_instruction_length():
/home/nicoladgg/wsFreedomStudio/sifive_hifive1_revb_HCSR04/freedom-metal/src/drivers/riscv_cpu.c:811
20013dde:	1101                	addi	sp,sp,-32
20013de0:	ce22                	sw	s0,28(sp)
20013de2:	1000                	addi	s0,sp,32
20013de4:	fea42623          	sw	a0,-20(s0)
20013de8:	feb42423          	sw	a1,-24(s0)
/home/nicoladgg/wsFreedomStudio/sifive_hifive1_revb_HCSR04/freedom-metal/src/drivers/riscv_cpu.c:817
20013dec:	fe842783          	lw	a5,-24(s0)
20013df0:	0007d783          	lhu	a5,0(a5)
20013df4:	0037f713          	andi	a4,a5,3
/home/nicoladgg/wsFreedomStudio/sifive_hifive1_revb_HCSR04/freedom-metal/src/drivers/riscv_cpu.c:820
20013df8:	478d                	li	a5,3
20013dfa:	00f71463          	bne	a4,a5,20013e02 <__metal_driver_cpu_get_instruction_length+0x24>
/home/nicoladgg/wsFreedomStudio/sifive_hifive1_revb_HCSR04/freedom-metal/src/drivers/riscv_cpu.c:820 (discriminator 1)
20013dfe:	4791                	li	a5,4
20013e00:	a011                	j	20013e04 <__metal_driver_cpu_get_instruction_length+0x26>
/home/nicoladgg/wsFreedomStudio/sifive_hifive1_revb_HCSR04/freedom-metal/src/drivers/riscv_cpu.c:820 (discriminator 2)
20013e02:	4789                	li	a5,2
/home/nicoladgg/wsFreedomStudio/sifive_hifive1_revb_HCSR04/freedom-metal/src/drivers/riscv_cpu.c:821 (discriminator 5)
20013e04:	853e                	mv	a0,a5
20013e06:	4472                	lw	s0,28(sp)
20013e08:	6105                	addi	sp,sp,32
20013e0a:	8082                	ret

20013e0c <__metal_driver_cpu_get_exception_pc>:
__metal_driver_cpu_get_exception_pc():
/home/nicoladgg/wsFreedomStudio/sifive_hifive1_revb_HCSR04/freedom-metal/src/drivers/riscv_cpu.c:823
20013e0c:	7179                	addi	sp,sp,-48
20013e0e:	d622                	sw	s0,44(sp)
20013e10:	1800                	addi	s0,sp,48
20013e12:	fca42e23          	sw	a0,-36(s0)
/home/nicoladgg/wsFreedomStudio/sifive_hifive1_revb_HCSR04/freedom-metal/src/drivers/riscv_cpu.c:825
20013e16:	341027f3          	csrr	a5,mepc
20013e1a:	fef42623          	sw	a5,-20(s0)
/home/nicoladgg/wsFreedomStudio/sifive_hifive1_revb_HCSR04/freedom-metal/src/drivers/riscv_cpu.c:826
20013e1e:	fec42783          	lw	a5,-20(s0)
/home/nicoladgg/wsFreedomStudio/sifive_hifive1_revb_HCSR04/freedom-metal/src/drivers/riscv_cpu.c:827
20013e22:	853e                	mv	a0,a5
20013e24:	5432                	lw	s0,44(sp)
20013e26:	6145                	addi	sp,sp,48
20013e28:	8082                	ret

20013e2a <__metal_driver_cpu_set_exception_pc>:
__metal_driver_cpu_set_exception_pc():
/home/nicoladgg/wsFreedomStudio/sifive_hifive1_revb_HCSR04/freedom-metal/src/drivers/riscv_cpu.c:829
20013e2a:	1101                	addi	sp,sp,-32
20013e2c:	ce22                	sw	s0,28(sp)
20013e2e:	1000                	addi	s0,sp,32
20013e30:	fea42623          	sw	a0,-20(s0)
20013e34:	feb42423          	sw	a1,-24(s0)
/home/nicoladgg/wsFreedomStudio/sifive_hifive1_revb_HCSR04/freedom-metal/src/drivers/riscv_cpu.c:830
20013e38:	fe842783          	lw	a5,-24(s0)
20013e3c:	34179073          	csrw	mepc,a5
/home/nicoladgg/wsFreedomStudio/sifive_hifive1_revb_HCSR04/freedom-metal/src/drivers/riscv_cpu.c:831
20013e40:	4781                	li	a5,0
/home/nicoladgg/wsFreedomStudio/sifive_hifive1_revb_HCSR04/freedom-metal/src/drivers/riscv_cpu.c:832
20013e42:	853e                	mv	a0,a5
20013e44:	4472                	lw	s0,28(sp)
20013e46:	6105                	addi	sp,sp,32
20013e48:	8082                	ret

20013e4a <__metal_driver_cpu_get_buserror>:
__metal_driver_cpu_get_buserror():
/home/nicoladgg/wsFreedomStudio/sifive_hifive1_revb_HCSR04/freedom-metal/src/drivers/riscv_cpu.c:834
20013e4a:	1101                	addi	sp,sp,-32
20013e4c:	ce06                	sw	ra,28(sp)
20013e4e:	cc22                	sw	s0,24(sp)
20013e50:	1000                	addi	s0,sp,32
20013e52:	fea42623          	sw	a0,-20(s0)
/home/nicoladgg/wsFreedomStudio/sifive_hifive1_revb_HCSR04/freedom-metal/src/drivers/riscv_cpu.c:835
20013e56:	fec42503          	lw	a0,-20(s0)
20013e5a:	e68fe0ef          	jal	ra,200124c2 <__metal_driver_cpu_buserror>
20013e5e:	87aa                	mv	a5,a0
/home/nicoladgg/wsFreedomStudio/sifive_hifive1_revb_HCSR04/freedom-metal/src/drivers/riscv_cpu.c:836
20013e60:	853e                	mv	a0,a5
20013e62:	40f2                	lw	ra,28(sp)
20013e64:	4462                	lw	s0,24(sp)
20013e66:	6105                	addi	sp,sp,32
20013e68:	8082                	ret

20013e6a <__metal_driver_sifive_plic0_control_base>:
__metal_driver_sifive_plic0_control_base():
/home/nicoladgg/wsFreedomStudio/sifive_hifive1_revb_HCSR04/bsp/build/debug/./metal/machine.h:345
20013e6a:	1101                	addi	sp,sp,-32
20013e6c:	ce22                	sw	s0,28(sp)
20013e6e:	1000                	addi	s0,sp,32
20013e70:	fea42623          	sw	a0,-20(s0)
/home/nicoladgg/wsFreedomStudio/sifive_hifive1_revb_HCSR04/bsp/build/debug/./metal/machine.h:346
20013e74:	fec42703          	lw	a4,-20(s0)
20013e78:	800007b7          	lui	a5,0x80000
20013e7c:	46078793          	addi	a5,a5,1120 # 80000460 <metal_segment_heap_target_end+0xffffece0>
20013e80:	00f71563          	bne	a4,a5,20013e8a <__metal_driver_sifive_plic0_control_base+0x20>
/home/nicoladgg/wsFreedomStudio/sifive_hifive1_revb_HCSR04/bsp/build/debug/./metal/machine.h:347
20013e84:	0c0007b7          	lui	a5,0xc000
20013e88:	a011                	j	20013e8c <__metal_driver_sifive_plic0_control_base+0x22>
/home/nicoladgg/wsFreedomStudio/sifive_hifive1_revb_HCSR04/bsp/build/debug/./metal/machine.h:350
20013e8a:	4781                	li	a5,0
/home/nicoladgg/wsFreedomStudio/sifive_hifive1_revb_HCSR04/bsp/build/debug/./metal/machine.h:352
20013e8c:	853e                	mv	a0,a5
20013e8e:	4472                	lw	s0,28(sp)
20013e90:	6105                	addi	sp,sp,32
20013e92:	8082                	ret

20013e94 <__metal_driver_sifive_plic0_num_interrupts>:
__metal_driver_sifive_plic0_num_interrupts():
/home/nicoladgg/wsFreedomStudio/sifive_hifive1_revb_HCSR04/bsp/build/debug/./metal/machine.h:365
20013e94:	1101                	addi	sp,sp,-32
20013e96:	ce22                	sw	s0,28(sp)
20013e98:	1000                	addi	s0,sp,32
20013e9a:	fea42623          	sw	a0,-20(s0)
/home/nicoladgg/wsFreedomStudio/sifive_hifive1_revb_HCSR04/bsp/build/debug/./metal/machine.h:366
20013e9e:	fec42703          	lw	a4,-20(s0)
20013ea2:	800007b7          	lui	a5,0x80000
20013ea6:	46078793          	addi	a5,a5,1120 # 80000460 <metal_segment_heap_target_end+0xffffece0>
20013eaa:	00f71563          	bne	a4,a5,20013eb4 <__metal_driver_sifive_plic0_num_interrupts+0x20>
/home/nicoladgg/wsFreedomStudio/sifive_hifive1_revb_HCSR04/bsp/build/debug/./metal/machine.h:367
20013eae:	03500793          	li	a5,53
20013eb2:	a011                	j	20013eb6 <__metal_driver_sifive_plic0_num_interrupts+0x22>
/home/nicoladgg/wsFreedomStudio/sifive_hifive1_revb_HCSR04/bsp/build/debug/./metal/machine.h:370
20013eb4:	4781                	li	a5,0
/home/nicoladgg/wsFreedomStudio/sifive_hifive1_revb_HCSR04/bsp/build/debug/./metal/machine.h:372
20013eb6:	853e                	mv	a0,a5
20013eb8:	4472                	lw	s0,28(sp)
20013eba:	6105                	addi	sp,sp,32
20013ebc:	8082                	ret

20013ebe <__metal_driver_sifive_plic0_max_priority>:
__metal_driver_sifive_plic0_max_priority():
/home/nicoladgg/wsFreedomStudio/sifive_hifive1_revb_HCSR04/bsp/build/debug/./metal/machine.h:375
20013ebe:	1101                	addi	sp,sp,-32
20013ec0:	ce22                	sw	s0,28(sp)
20013ec2:	1000                	addi	s0,sp,32
20013ec4:	fea42623          	sw	a0,-20(s0)
/home/nicoladgg/wsFreedomStudio/sifive_hifive1_revb_HCSR04/bsp/build/debug/./metal/machine.h:376
20013ec8:	fec42703          	lw	a4,-20(s0)
20013ecc:	800007b7          	lui	a5,0x80000
20013ed0:	46078793          	addi	a5,a5,1120 # 80000460 <metal_segment_heap_target_end+0xffffece0>
20013ed4:	00f71463          	bne	a4,a5,20013edc <__metal_driver_sifive_plic0_max_priority+0x1e>
/home/nicoladgg/wsFreedomStudio/sifive_hifive1_revb_HCSR04/bsp/build/debug/./metal/machine.h:377
20013ed8:	479d                	li	a5,7
20013eda:	a011                	j	20013ede <__metal_driver_sifive_plic0_max_priority+0x20>
/home/nicoladgg/wsFreedomStudio/sifive_hifive1_revb_HCSR04/bsp/build/debug/./metal/machine.h:380
20013edc:	4781                	li	a5,0
/home/nicoladgg/wsFreedomStudio/sifive_hifive1_revb_HCSR04/bsp/build/debug/./metal/machine.h:382
20013ede:	853e                	mv	a0,a5
20013ee0:	4472                	lw	s0,28(sp)
20013ee2:	6105                	addi	sp,sp,32
20013ee4:	8082                	ret

20013ee6 <__metal_driver_sifive_plic0_interrupt_parents>:
__metal_driver_sifive_plic0_interrupt_parents():
/home/nicoladgg/wsFreedomStudio/sifive_hifive1_revb_HCSR04/bsp/build/debug/./metal/machine.h:385
20013ee6:	1101                	addi	sp,sp,-32
20013ee8:	ce22                	sw	s0,28(sp)
20013eea:	1000                	addi	s0,sp,32
20013eec:	fea42623          	sw	a0,-20(s0)
20013ef0:	feb42423          	sw	a1,-24(s0)
/home/nicoladgg/wsFreedomStudio/sifive_hifive1_revb_HCSR04/bsp/build/debug/./metal/machine.h:386
20013ef4:	fe842783          	lw	a5,-24(s0)
20013ef8:	e791                	bnez	a5,20013f04 <__metal_driver_sifive_plic0_interrupt_parents+0x1e>
/home/nicoladgg/wsFreedomStudio/sifive_hifive1_revb_HCSR04/bsp/build/debug/./metal/machine.h:387
20013efa:	800007b7          	lui	a5,0x80000
20013efe:	09078793          	addi	a5,a5,144 # 80000090 <metal_segment_heap_target_end+0xffffe910>
20013f02:	a011                	j	20013f06 <__metal_driver_sifive_plic0_interrupt_parents+0x20>
/home/nicoladgg/wsFreedomStudio/sifive_hifive1_revb_HCSR04/bsp/build/debug/./metal/machine.h:390
20013f04:	4781                	li	a5,0
/home/nicoladgg/wsFreedomStudio/sifive_hifive1_revb_HCSR04/bsp/build/debug/./metal/machine.h:392
20013f06:	853e                	mv	a0,a5
20013f08:	4472                	lw	s0,28(sp)
20013f0a:	6105                	addi	sp,sp,32
20013f0c:	8082                	ret

20013f0e <__metal_driver_sifive_plic0_interrupt_lines>:
__metal_driver_sifive_plic0_interrupt_lines():
/home/nicoladgg/wsFreedomStudio/sifive_hifive1_revb_HCSR04/bsp/build/debug/./metal/machine.h:395
20013f0e:	1101                	addi	sp,sp,-32
20013f10:	ce22                	sw	s0,28(sp)
20013f12:	1000                	addi	s0,sp,32
20013f14:	fea42623          	sw	a0,-20(s0)
20013f18:	feb42423          	sw	a1,-24(s0)
/home/nicoladgg/wsFreedomStudio/sifive_hifive1_revb_HCSR04/bsp/build/debug/./metal/machine.h:396
20013f1c:	fe842783          	lw	a5,-24(s0)
20013f20:	e399                	bnez	a5,20013f26 <__metal_driver_sifive_plic0_interrupt_lines+0x18>
/home/nicoladgg/wsFreedomStudio/sifive_hifive1_revb_HCSR04/bsp/build/debug/./metal/machine.h:397
20013f22:	47ad                	li	a5,11
20013f24:	a011                	j	20013f28 <__metal_driver_sifive_plic0_interrupt_lines+0x1a>
/home/nicoladgg/wsFreedomStudio/sifive_hifive1_revb_HCSR04/bsp/build/debug/./metal/machine.h:400
20013f26:	4781                	li	a5,0
/home/nicoladgg/wsFreedomStudio/sifive_hifive1_revb_HCSR04/bsp/build/debug/./metal/machine.h:402
20013f28:	853e                	mv	a0,a5
20013f2a:	4472                	lw	s0,28(sp)
20013f2c:	6105                	addi	sp,sp,32
20013f2e:	8082                	ret

20013f30 <__metal_driver_sifive_plic0_context_ids>:
__metal_driver_sifive_plic0_context_ids():
/home/nicoladgg/wsFreedomStudio/sifive_hifive1_revb_HCSR04/bsp/build/debug/./metal/machine.h:405
20013f30:	1101                	addi	sp,sp,-32
20013f32:	ce22                	sw	s0,28(sp)
20013f34:	1000                	addi	s0,sp,32
20013f36:	fea42623          	sw	a0,-20(s0)
/home/nicoladgg/wsFreedomStudio/sifive_hifive1_revb_HCSR04/bsp/build/debug/./metal/machine.h:406
20013f3a:	fec42783          	lw	a5,-20(s0)
20013f3e:	e399                	bnez	a5,20013f44 <__metal_driver_sifive_plic0_context_ids+0x14>
/home/nicoladgg/wsFreedomStudio/sifive_hifive1_revb_HCSR04/bsp/build/debug/./metal/machine.h:407
20013f40:	4781                	li	a5,0
20013f42:	a011                	j	20013f46 <__metal_driver_sifive_plic0_context_ids+0x16>
/home/nicoladgg/wsFreedomStudio/sifive_hifive1_revb_HCSR04/bsp/build/debug/./metal/machine.h:410
20013f44:	57fd                	li	a5,-1
/home/nicoladgg/wsFreedomStudio/sifive_hifive1_revb_HCSR04/bsp/build/debug/./metal/machine.h:412
20013f46:	853e                	mv	a0,a5
20013f48:	4472                	lw	s0,28(sp)
20013f4a:	6105                	addi	sp,sp,32
20013f4c:	8082                	ret

20013f4e <__metal_plic0_claim_interrupt>:
__metal_plic0_claim_interrupt():
/home/nicoladgg/wsFreedomStudio/sifive_hifive1_revb_HCSR04/freedom-metal/src/drivers/riscv_plic0.c:18
20013f4e:	7179                	addi	sp,sp,-48
20013f50:	d606                	sw	ra,44(sp)
20013f52:	d422                	sw	s0,40(sp)
20013f54:	1800                	addi	s0,sp,48
20013f56:	fca42e23          	sw	a0,-36(s0)
20013f5a:	fcb42c23          	sw	a1,-40(s0)
/home/nicoladgg/wsFreedomStudio/sifive_hifive1_revb_HCSR04/freedom-metal/src/drivers/riscv_plic0.c:19
20013f5e:	fdc42503          	lw	a0,-36(s0)
20013f62:	3721                	jal	20013e6a <__metal_driver_sifive_plic0_control_base>
20013f64:	fea42623          	sw	a0,-20(s0)
/home/nicoladgg/wsFreedomStudio/sifive_hifive1_revb_HCSR04/freedom-metal/src/drivers/riscv_plic0.c:21
20013f68:	fd842783          	lw	a5,-40(s0)
20013f6c:	00c79713          	slli	a4,a5,0xc
20013f70:	fec42783          	lw	a5,-20(s0)
20013f74:	973e                	add	a4,a4,a5
20013f76:	002007b7          	lui	a5,0x200
20013f7a:	0791                	addi	a5,a5,4
20013f7c:	97ba                	add	a5,a5,a4
20013f7e:	439c                	lw	a5,0(a5)
/home/nicoladgg/wsFreedomStudio/sifive_hifive1_revb_HCSR04/freedom-metal/src/drivers/riscv_plic0.c:25
20013f80:	853e                	mv	a0,a5
20013f82:	50b2                	lw	ra,44(sp)
20013f84:	5422                	lw	s0,40(sp)
20013f86:	6145                	addi	sp,sp,48
20013f88:	8082                	ret

20013f8a <__metal_plic0_complete_interrupt>:
__metal_plic0_complete_interrupt():
/home/nicoladgg/wsFreedomStudio/sifive_hifive1_revb_HCSR04/freedom-metal/src/drivers/riscv_plic0.c:28
20013f8a:	7179                	addi	sp,sp,-48
20013f8c:	d606                	sw	ra,44(sp)
20013f8e:	d422                	sw	s0,40(sp)
20013f90:	1800                	addi	s0,sp,48
20013f92:	fca42e23          	sw	a0,-36(s0)
20013f96:	fcb42c23          	sw	a1,-40(s0)
20013f9a:	fcc42a23          	sw	a2,-44(s0)
/home/nicoladgg/wsFreedomStudio/sifive_hifive1_revb_HCSR04/freedom-metal/src/drivers/riscv_plic0.c:29
20013f9e:	fdc42503          	lw	a0,-36(s0)
20013fa2:	35e1                	jal	20013e6a <__metal_driver_sifive_plic0_control_base>
20013fa4:	fea42623          	sw	a0,-20(s0)
/home/nicoladgg/wsFreedomStudio/sifive_hifive1_revb_HCSR04/freedom-metal/src/drivers/riscv_plic0.c:31
20013fa8:	fd842783          	lw	a5,-40(s0)
20013fac:	00c79713          	slli	a4,a5,0xc
20013fb0:	fec42783          	lw	a5,-20(s0)
20013fb4:	973e                	add	a4,a4,a5
20013fb6:	002007b7          	lui	a5,0x200
20013fba:	0791                	addi	a5,a5,4
20013fbc:	97ba                	add	a5,a5,a4
20013fbe:	873e                	mv	a4,a5
/home/nicoladgg/wsFreedomStudio/sifive_hifive1_revb_HCSR04/freedom-metal/src/drivers/riscv_plic0.c:34
20013fc0:	fd442783          	lw	a5,-44(s0)
20013fc4:	c31c                	sw	a5,0(a4)
/home/nicoladgg/wsFreedomStudio/sifive_hifive1_revb_HCSR04/freedom-metal/src/drivers/riscv_plic0.c:35
20013fc6:	0001                	nop
20013fc8:	50b2                	lw	ra,44(sp)
20013fca:	5422                	lw	s0,40(sp)
20013fcc:	6145                	addi	sp,sp,48
20013fce:	8082                	ret

20013fd0 <__metal_plic0_set_threshold>:
__metal_plic0_set_threshold():
/home/nicoladgg/wsFreedomStudio/sifive_hifive1_revb_HCSR04/freedom-metal/src/drivers/riscv_plic0.c:38
20013fd0:	7179                	addi	sp,sp,-48
20013fd2:	d606                	sw	ra,44(sp)
20013fd4:	d422                	sw	s0,40(sp)
20013fd6:	1800                	addi	s0,sp,48
20013fd8:	fca42e23          	sw	a0,-36(s0)
20013fdc:	fcb42c23          	sw	a1,-40(s0)
20013fe0:	fcc42a23          	sw	a2,-44(s0)
/home/nicoladgg/wsFreedomStudio/sifive_hifive1_revb_HCSR04/freedom-metal/src/drivers/riscv_plic0.c:40
20013fe4:	fdc42503          	lw	a0,-36(s0)
20013fe8:	3549                	jal	20013e6a <__metal_driver_sifive_plic0_control_base>
20013fea:	fea42623          	sw	a0,-20(s0)
/home/nicoladgg/wsFreedomStudio/sifive_hifive1_revb_HCSR04/freedom-metal/src/drivers/riscv_plic0.c:41
20013fee:	fd842783          	lw	a5,-40(s0)
20013ff2:	00c79713          	slli	a4,a5,0xc
20013ff6:	fec42783          	lw	a5,-20(s0)
20013ffa:	973e                	add	a4,a4,a5
20013ffc:	002007b7          	lui	a5,0x200
20014000:	97ba                	add	a5,a5,a4
20014002:	873e                	mv	a4,a5
/home/nicoladgg/wsFreedomStudio/sifive_hifive1_revb_HCSR04/freedom-metal/src/drivers/riscv_plic0.c:44
20014004:	fd442783          	lw	a5,-44(s0)
20014008:	c31c                	sw	a5,0(a4)
/home/nicoladgg/wsFreedomStudio/sifive_hifive1_revb_HCSR04/freedom-metal/src/drivers/riscv_plic0.c:45
2001400a:	4781                	li	a5,0
/home/nicoladgg/wsFreedomStudio/sifive_hifive1_revb_HCSR04/freedom-metal/src/drivers/riscv_plic0.c:46
2001400c:	853e                	mv	a0,a5
2001400e:	50b2                	lw	ra,44(sp)
20014010:	5422                	lw	s0,40(sp)
20014012:	6145                	addi	sp,sp,48
20014014:	8082                	ret

20014016 <__metal_plic0_get_threshold>:
__metal_plic0_get_threshold():
/home/nicoladgg/wsFreedomStudio/sifive_hifive1_revb_HCSR04/freedom-metal/src/drivers/riscv_plic0.c:49
20014016:	7179                	addi	sp,sp,-48
20014018:	d606                	sw	ra,44(sp)
2001401a:	d422                	sw	s0,40(sp)
2001401c:	1800                	addi	s0,sp,48
2001401e:	fca42e23          	sw	a0,-36(s0)
20014022:	fcb42c23          	sw	a1,-40(s0)
/home/nicoladgg/wsFreedomStudio/sifive_hifive1_revb_HCSR04/freedom-metal/src/drivers/riscv_plic0.c:51
20014026:	fdc42503          	lw	a0,-36(s0)
2001402a:	3581                	jal	20013e6a <__metal_driver_sifive_plic0_control_base>
2001402c:	fea42623          	sw	a0,-20(s0)
/home/nicoladgg/wsFreedomStudio/sifive_hifive1_revb_HCSR04/freedom-metal/src/drivers/riscv_plic0.c:52
20014030:	fd842783          	lw	a5,-40(s0)
20014034:	00c79713          	slli	a4,a5,0xc
20014038:	fec42783          	lw	a5,-20(s0)
2001403c:	973e                	add	a4,a4,a5
2001403e:	002007b7          	lui	a5,0x200
20014042:	97ba                	add	a5,a5,a4
20014044:	439c                	lw	a5,0(a5)
/home/nicoladgg/wsFreedomStudio/sifive_hifive1_revb_HCSR04/freedom-metal/src/drivers/riscv_plic0.c:56
20014046:	853e                	mv	a0,a5
20014048:	50b2                	lw	ra,44(sp)
2001404a:	5422                	lw	s0,40(sp)
2001404c:	6145                	addi	sp,sp,48
2001404e:	8082                	ret

20014050 <__metal_driver_riscv_plic0_set_priority>:
__metal_driver_riscv_plic0_set_priority():
/home/nicoladgg/wsFreedomStudio/sifive_hifive1_revb_HCSR04/freedom-metal/src/drivers/riscv_plic0.c:59
20014050:	7179                	addi	sp,sp,-48
20014052:	d606                	sw	ra,44(sp)
20014054:	d422                	sw	s0,40(sp)
20014056:	1800                	addi	s0,sp,48
20014058:	fca42e23          	sw	a0,-36(s0)
2001405c:	fcb42c23          	sw	a1,-40(s0)
20014060:	fcc42a23          	sw	a2,-44(s0)
/home/nicoladgg/wsFreedomStudio/sifive_hifive1_revb_HCSR04/freedom-metal/src/drivers/riscv_plic0.c:60
20014064:	fdc42503          	lw	a0,-36(s0)
20014068:	3509                	jal	20013e6a <__metal_driver_sifive_plic0_control_base>
2001406a:	fea42623          	sw	a0,-20(s0)
/home/nicoladgg/wsFreedomStudio/sifive_hifive1_revb_HCSR04/freedom-metal/src/drivers/riscv_plic0.c:62
2001406e:	fdc42503          	lw	a0,-36(s0)
20014072:	35b1                	jal	20013ebe <__metal_driver_sifive_plic0_max_priority>
20014074:	87aa                	mv	a5,a0
20014076:	fef42423          	sw	a5,-24(s0)
/home/nicoladgg/wsFreedomStudio/sifive_hifive1_revb_HCSR04/freedom-metal/src/drivers/riscv_plic0.c:64
2001407a:	fe842783          	lw	a5,-24(s0)
2001407e:	c785                	beqz	a5,200140a6 <__metal_driver_riscv_plic0_set_priority+0x56>
/home/nicoladgg/wsFreedomStudio/sifive_hifive1_revb_HCSR04/freedom-metal/src/drivers/riscv_plic0.c:64 (discriminator 1)
20014080:	fd442703          	lw	a4,-44(s0)
20014084:	fe842783          	lw	a5,-24(s0)
20014088:	00f77f63          	bgeu	a4,a5,200140a6 <__metal_driver_riscv_plic0_set_priority+0x56>
/home/nicoladgg/wsFreedomStudio/sifive_hifive1_revb_HCSR04/freedom-metal/src/drivers/riscv_plic0.c:65
2001408c:	fd842783          	lw	a5,-40(s0)
20014090:	078a                	slli	a5,a5,0x2
20014092:	873e                	mv	a4,a5
20014094:	fec42783          	lw	a5,-20(s0)
20014098:	97ba                	add	a5,a5,a4
2001409a:	873e                	mv	a4,a5
/home/nicoladgg/wsFreedomStudio/sifive_hifive1_revb_HCSR04/freedom-metal/src/drivers/riscv_plic0.c:67
2001409c:	fd442783          	lw	a5,-44(s0)
200140a0:	c31c                	sw	a5,0(a4)
/home/nicoladgg/wsFreedomStudio/sifive_hifive1_revb_HCSR04/freedom-metal/src/drivers/riscv_plic0.c:69
200140a2:	4781                	li	a5,0
200140a4:	a011                	j	200140a8 <__metal_driver_riscv_plic0_set_priority+0x58>
/home/nicoladgg/wsFreedomStudio/sifive_hifive1_revb_HCSR04/freedom-metal/src/drivers/riscv_plic0.c:71
200140a6:	57fd                	li	a5,-1
/home/nicoladgg/wsFreedomStudio/sifive_hifive1_revb_HCSR04/freedom-metal/src/drivers/riscv_plic0.c:72
200140a8:	853e                	mv	a0,a5
200140aa:	50b2                	lw	ra,44(sp)
200140ac:	5422                	lw	s0,40(sp)
200140ae:	6145                	addi	sp,sp,48
200140b0:	8082                	ret

200140b2 <__metal_driver_riscv_plic0_get_priority>:
__metal_driver_riscv_plic0_get_priority():
/home/nicoladgg/wsFreedomStudio/sifive_hifive1_revb_HCSR04/freedom-metal/src/drivers/riscv_plic0.c:76
200140b2:	7179                	addi	sp,sp,-48
200140b4:	d606                	sw	ra,44(sp)
200140b6:	d422                	sw	s0,40(sp)
200140b8:	1800                	addi	s0,sp,48
200140ba:	fca42e23          	sw	a0,-36(s0)
200140be:	fcb42c23          	sw	a1,-40(s0)
/home/nicoladgg/wsFreedomStudio/sifive_hifive1_revb_HCSR04/freedom-metal/src/drivers/riscv_plic0.c:78
200140c2:	fdc42503          	lw	a0,-36(s0)
200140c6:	3355                	jal	20013e6a <__metal_driver_sifive_plic0_control_base>
200140c8:	fea42623          	sw	a0,-20(s0)
/home/nicoladgg/wsFreedomStudio/sifive_hifive1_revb_HCSR04/freedom-metal/src/drivers/riscv_plic0.c:80
200140cc:	fd842783          	lw	a5,-40(s0)
200140d0:	078a                	slli	a5,a5,0x2
200140d2:	873e                	mv	a4,a5
200140d4:	fec42783          	lw	a5,-20(s0)
200140d8:	97ba                	add	a5,a5,a4
200140da:	439c                	lw	a5,0(a5)
/home/nicoladgg/wsFreedomStudio/sifive_hifive1_revb_HCSR04/freedom-metal/src/drivers/riscv_plic0.c:83
200140dc:	853e                	mv	a0,a5
200140de:	50b2                	lw	ra,44(sp)
200140e0:	5422                	lw	s0,40(sp)
200140e2:	6145                	addi	sp,sp,48
200140e4:	8082                	ret

200140e6 <__metal_plic0_enable>:
__metal_plic0_enable():
/home/nicoladgg/wsFreedomStudio/sifive_hifive1_revb_HCSR04/freedom-metal/src/drivers/riscv_plic0.c:86
200140e6:	7179                	addi	sp,sp,-48
200140e8:	d606                	sw	ra,44(sp)
200140ea:	d422                	sw	s0,40(sp)
200140ec:	1800                	addi	s0,sp,48
200140ee:	fca42e23          	sw	a0,-36(s0)
200140f2:	fcb42c23          	sw	a1,-40(s0)
200140f6:	fcc42a23          	sw	a2,-44(s0)
200140fa:	fcd42823          	sw	a3,-48(s0)
/home/nicoladgg/wsFreedomStudio/sifive_hifive1_revb_HCSR04/freedom-metal/src/drivers/riscv_plic0.c:88
200140fe:	fdc42503          	lw	a0,-36(s0)
20014102:	33a5                	jal	20013e6a <__metal_driver_sifive_plic0_control_base>
20014104:	fea42623          	sw	a0,-20(s0)
/home/nicoladgg/wsFreedomStudio/sifive_hifive1_revb_HCSR04/freedom-metal/src/drivers/riscv_plic0.c:91
20014108:	fd842783          	lw	a5,-40(s0)
2001410c:	00779713          	slli	a4,a5,0x7
20014110:	fec42783          	lw	a5,-20(s0)
20014114:	97ba                	add	a5,a5,a4
20014116:	fd442703          	lw	a4,-44(s0)
2001411a:	8715                	srai	a4,a4,0x5
2001411c:	070a                	slli	a4,a4,0x2
2001411e:	973e                	add	a4,a4,a5
20014120:	6789                	lui	a5,0x2
20014122:	97ba                	add	a5,a5,a4
20014124:	439c                	lw	a5,0(a5)
20014126:	fef42423          	sw	a5,-24(s0)
/home/nicoladgg/wsFreedomStudio/sifive_hifive1_revb_HCSR04/freedom-metal/src/drivers/riscv_plic0.c:100
2001412a:	fd042783          	lw	a5,-48(s0)
2001412e:	cf81                	beqz	a5,20014146 <__metal_plic0_enable+0x60>
/home/nicoladgg/wsFreedomStudio/sifive_hifive1_revb_HCSR04/freedom-metal/src/drivers/riscv_plic0.c:99 (discriminator 1)
20014130:	fd442783          	lw	a5,-44(s0)
20014134:	8bfd                	andi	a5,a5,31
20014136:	4705                	li	a4,1
20014138:	00f717b3          	sll	a5,a4,a5
2001413c:	873e                	mv	a4,a5
/home/nicoladgg/wsFreedomStudio/sifive_hifive1_revb_HCSR04/freedom-metal/src/drivers/riscv_plic0.c:100 (discriminator 1)
2001413e:	fe842783          	lw	a5,-24(s0)
20014142:	8fd9                	or	a5,a5,a4
20014144:	a829                	j	2001415e <__metal_plic0_enable+0x78>
/home/nicoladgg/wsFreedomStudio/sifive_hifive1_revb_HCSR04/freedom-metal/src/drivers/riscv_plic0.c:100 (discriminator 2)
20014146:	fd442783          	lw	a5,-44(s0)
2001414a:	8bfd                	andi	a5,a5,31
2001414c:	4705                	li	a4,1
2001414e:	00f717b3          	sll	a5,a4,a5
20014152:	fff7c793          	not	a5,a5
20014156:	873e                	mv	a4,a5
20014158:	fe842783          	lw	a5,-24(s0)
2001415c:	8ff9                	and	a5,a5,a4
/home/nicoladgg/wsFreedomStudio/sifive_hifive1_revb_HCSR04/freedom-metal/src/drivers/riscv_plic0.c:95
2001415e:	fd842703          	lw	a4,-40(s0)
20014162:	00771693          	slli	a3,a4,0x7
20014166:	fec42703          	lw	a4,-20(s0)
2001416a:	9736                	add	a4,a4,a3
2001416c:	fd442683          	lw	a3,-44(s0)
20014170:	8695                	srai	a3,a3,0x5
20014172:	068a                	slli	a3,a3,0x2
20014174:	96ba                	add	a3,a3,a4
20014176:	6709                	lui	a4,0x2
20014178:	9736                	add	a4,a4,a3
/home/nicoladgg/wsFreedomStudio/sifive_hifive1_revb_HCSR04/freedom-metal/src/drivers/riscv_plic0.c:98
2001417a:	c31c                	sw	a5,0(a4)
/home/nicoladgg/wsFreedomStudio/sifive_hifive1_revb_HCSR04/freedom-metal/src/drivers/riscv_plic0.c:102
2001417c:	4781                	li	a5,0
/home/nicoladgg/wsFreedomStudio/sifive_hifive1_revb_HCSR04/freedom-metal/src/drivers/riscv_plic0.c:103
2001417e:	853e                	mv	a0,a5
20014180:	50b2                	lw	ra,44(sp)
20014182:	5422                	lw	s0,40(sp)
20014184:	6145                	addi	sp,sp,48
20014186:	8082                	ret

20014188 <__metal_plic0_default_handler>:
__metal_plic0_default_handler():
/home/nicoladgg/wsFreedomStudio/sifive_hifive1_revb_HCSR04/freedom-metal/src/drivers/riscv_plic0.c:105
20014188:	1101                	addi	sp,sp,-32
2001418a:	ce06                	sw	ra,28(sp)
2001418c:	cc22                	sw	s0,24(sp)
2001418e:	1000                	addi	s0,sp,32
20014190:	fea42623          	sw	a0,-20(s0)
20014194:	feb42423          	sw	a1,-24(s0)
20014198:	12c00513          	li	a0,300
2001419c:	34a020ef          	jal	ra,200164e6 <metal_shutdown>

200141a0 <__metal_plic0_handler>:
__metal_plic0_handler():
/home/nicoladgg/wsFreedomStudio/sifive_hifive1_revb_HCSR04/freedom-metal/src/drivers/riscv_plic0.c:107
200141a0:	7179                	addi	sp,sp,-48
200141a2:	d606                	sw	ra,44(sp)
200141a4:	d422                	sw	s0,40(sp)
200141a6:	1800                	addi	s0,sp,48
200141a8:	fca42e23          	sw	a0,-36(s0)
200141ac:	fcb42c23          	sw	a1,-40(s0)
/home/nicoladgg/wsFreedomStudio/sifive_hifive1_revb_HCSR04/freedom-metal/src/drivers/riscv_plic0.c:108
200141b0:	fd842783          	lw	a5,-40(s0)
200141b4:	fef42623          	sw	a5,-20(s0)
/home/nicoladgg/wsFreedomStudio/sifive_hifive1_revb_HCSR04/freedom-metal/src/drivers/riscv_plic0.c:110
200141b8:	b5efe0ef          	jal	ra,20012516 <__metal_myhart_id>
200141bc:	87aa                	mv	a5,a0
200141be:	853e                	mv	a0,a5
200141c0:	3b85                	jal	20013f30 <__metal_driver_sifive_plic0_context_ids>
200141c2:	fea42423          	sw	a0,-24(s0)
/home/nicoladgg/wsFreedomStudio/sifive_hifive1_revb_HCSR04/freedom-metal/src/drivers/riscv_plic0.c:111
200141c6:	fe842583          	lw	a1,-24(s0)
200141ca:	fec42503          	lw	a0,-20(s0)
200141ce:	3341                	jal	20013f4e <__metal_plic0_claim_interrupt>
200141d0:	fea42223          	sw	a0,-28(s0)
/home/nicoladgg/wsFreedomStudio/sifive_hifive1_revb_HCSR04/freedom-metal/src/drivers/riscv_plic0.c:112
200141d4:	fec42503          	lw	a0,-20(s0)
200141d8:	3975                	jal	20013e94 <__metal_driver_sifive_plic0_num_interrupts>
200141da:	87aa                	mv	a5,a0
200141dc:	fef42023          	sw	a5,-32(s0)
/home/nicoladgg/wsFreedomStudio/sifive_hifive1_revb_HCSR04/freedom-metal/src/drivers/riscv_plic0.c:115
200141e0:	fe442703          	lw	a4,-28(s0)
200141e4:	fe042783          	lw	a5,-32(s0)
200141e8:	04f77263          	bgeu	a4,a5,2001422c <__metal_plic0_handler+0x8c>
/home/nicoladgg/wsFreedomStudio/sifive_hifive1_revb_HCSR04/freedom-metal/src/drivers/riscv_plic0.c:115 (discriminator 1)
200141ec:	fec42703          	lw	a4,-20(s0)
200141f0:	fe442783          	lw	a5,-28(s0)
200141f4:	078a                	slli	a5,a5,0x2
200141f6:	97ba                	add	a5,a5,a4
200141f8:	479c                	lw	a5,8(a5)
200141fa:	cb8d                	beqz	a5,2001422c <__metal_plic0_handler+0x8c>
/home/nicoladgg/wsFreedomStudio/sifive_hifive1_revb_HCSR04/freedom-metal/src/drivers/riscv_plic0.c:116
200141fc:	fec42703          	lw	a4,-20(s0)
20014200:	fe442783          	lw	a5,-28(s0)
20014204:	078a                	slli	a5,a5,0x2
20014206:	97ba                	add	a5,a5,a4
20014208:	0087a803          	lw	a6,8(a5) # 2008 <__heap_size+0x1808>
2001420c:	fe442603          	lw	a2,-28(s0)
20014210:	fec42683          	lw	a3,-20(s0)
20014214:	fe442703          	lw	a4,-28(s0)
20014218:	87ba                	mv	a5,a4
2001421a:	0786                	slli	a5,a5,0x1
2001421c:	97ba                	add	a5,a5,a4
2001421e:	078e                	slli	a5,a5,0x3
20014220:	97b6                	add	a5,a5,a3
20014222:	0f07a783          	lw	a5,240(a5)
20014226:	85be                	mv	a1,a5
20014228:	8532                	mv	a0,a2
2001422a:	9802                	jalr	a6
/home/nicoladgg/wsFreedomStudio/sifive_hifive1_revb_HCSR04/freedom-metal/src/drivers/riscv_plic0.c:120
2001422c:	fe442603          	lw	a2,-28(s0)
20014230:	fe842583          	lw	a1,-24(s0)
20014234:	fec42503          	lw	a0,-20(s0)
20014238:	3b89                	jal	20013f8a <__metal_plic0_complete_interrupt>
/home/nicoladgg/wsFreedomStudio/sifive_hifive1_revb_HCSR04/freedom-metal/src/drivers/riscv_plic0.c:121
2001423a:	0001                	nop
2001423c:	50b2                	lw	ra,44(sp)
2001423e:	5422                	lw	s0,40(sp)
20014240:	6145                	addi	sp,sp,48
20014242:	8082                	ret

20014244 <__metal_driver_riscv_plic0_init>:
__metal_driver_riscv_plic0_init():
/home/nicoladgg/wsFreedomStudio/sifive_hifive1_revb_HCSR04/freedom-metal/src/drivers/riscv_plic0.c:123
20014244:	7139                	addi	sp,sp,-64
20014246:	de06                	sw	ra,60(sp)
20014248:	dc22                	sw	s0,56(sp)
2001424a:	0080                	addi	s0,sp,64
2001424c:	fca42623          	sw	a0,-52(s0)
/home/nicoladgg/wsFreedomStudio/sifive_hifive1_revb_HCSR04/freedom-metal/src/drivers/riscv_plic0.c:124
20014250:	fcc42783          	lw	a5,-52(s0)
20014254:	fef42223          	sw	a5,-28(s0)
/home/nicoladgg/wsFreedomStudio/sifive_hifive1_revb_HCSR04/freedom-metal/src/drivers/riscv_plic0.c:126
20014258:	fe442783          	lw	a5,-28(s0)
2001425c:	43dc                	lw	a5,4(a5)
2001425e:	12079763          	bnez	a5,2001438c <__metal_driver_riscv_plic0_init+0x148>
/home/nicoladgg/wsFreedomStudio/sifive_hifive1_revb_HCSR04/freedom-metal/src/drivers/riscv_plic0.c:130
20014262:	fe042623          	sw	zero,-20(s0)
20014266:	aa19                	j	2001437c <__metal_driver_riscv_plic0_init+0x138>
/home/nicoladgg/wsFreedomStudio/sifive_hifive1_revb_HCSR04/freedom-metal/src/drivers/riscv_plic0.c:132
20014268:	fcc42503          	lw	a0,-52(s0)
2001426c:	c29ff0ef          	jal	ra,20013e94 <__metal_driver_sifive_plic0_num_interrupts>
20014270:	fea42023          	sw	a0,-32(s0)
/home/nicoladgg/wsFreedomStudio/sifive_hifive1_revb_HCSR04/freedom-metal/src/drivers/riscv_plic0.c:133
20014274:	fec42583          	lw	a1,-20(s0)
20014278:	fcc42503          	lw	a0,-52(s0)
2001427c:	31ad                	jal	20013ee6 <__metal_driver_sifive_plic0_interrupt_parents>
2001427e:	fca42e23          	sw	a0,-36(s0)
/home/nicoladgg/wsFreedomStudio/sifive_hifive1_revb_HCSR04/freedom-metal/src/drivers/riscv_plic0.c:136
20014282:	fec42583          	lw	a1,-20(s0)
20014286:	fcc42503          	lw	a0,-52(s0)
2001428a:	3151                	jal	20013f0e <__metal_driver_sifive_plic0_interrupt_lines>
2001428c:	fca42c23          	sw	a0,-40(s0)
/home/nicoladgg/wsFreedomStudio/sifive_hifive1_revb_HCSR04/freedom-metal/src/drivers/riscv_plic0.c:139
20014290:	fdc42783          	lw	a5,-36(s0)
20014294:	439c                	lw	a5,0(a5)
20014296:	439c                	lw	a5,0(a5)
20014298:	fdc42503          	lw	a0,-36(s0)
2001429c:	9782                	jalr	a5
/home/nicoladgg/wsFreedomStudio/sifive_hifive1_revb_HCSR04/freedom-metal/src/drivers/riscv_plic0.c:141
2001429e:	fe042423          	sw	zero,-24(s0)
200142a2:	a885                	j	20014312 <__metal_driver_riscv_plic0_init+0xce>
/home/nicoladgg/wsFreedomStudio/sifive_hifive1_revb_HCSR04/freedom-metal/src/drivers/riscv_plic0.c:142
200142a4:	4681                	li	a3,0
200142a6:	fe842603          	lw	a2,-24(s0)
200142aa:	fec42583          	lw	a1,-20(s0)
200142ae:	fe442503          	lw	a0,-28(s0)
200142b2:	3d15                	jal	200140e6 <__metal_plic0_enable>
/home/nicoladgg/wsFreedomStudio/sifive_hifive1_revb_HCSR04/freedom-metal/src/drivers/riscv_plic0.c:143
200142b4:	fe842703          	lw	a4,-24(s0)
200142b8:	fe042783          	lw	a5,-32(s0)
200142bc:	04f75663          	bge	a4,a5,20014308 <__metal_driver_riscv_plic0_init+0xc4>
/home/nicoladgg/wsFreedomStudio/sifive_hifive1_revb_HCSR04/freedom-metal/src/drivers/riscv_plic0.c:144
200142c0:	4601                	li	a2,0
200142c2:	fe842583          	lw	a1,-24(s0)
200142c6:	fcc42503          	lw	a0,-52(s0)
200142ca:	3359                	jal	20014050 <__metal_driver_riscv_plic0_set_priority>
/home/nicoladgg/wsFreedomStudio/sifive_hifive1_revb_HCSR04/freedom-metal/src/drivers/riscv_plic0.c:145
200142cc:	fe442703          	lw	a4,-28(s0)
200142d0:	fe842783          	lw	a5,-24(s0)
200142d4:	078a                	slli	a5,a5,0x2
200142d6:	97ba                	add	a5,a5,a4
200142d8:	0007a423          	sw	zero,8(a5)
/home/nicoladgg/wsFreedomStudio/sifive_hifive1_revb_HCSR04/freedom-metal/src/drivers/riscv_plic0.c:146
200142dc:	fe442683          	lw	a3,-28(s0)
200142e0:	fe842703          	lw	a4,-24(s0)
200142e4:	87ba                	mv	a5,a4
200142e6:	0786                	slli	a5,a5,0x1
200142e8:	97ba                	add	a5,a5,a4
200142ea:	078e                	slli	a5,a5,0x3
200142ec:	97b6                	add	a5,a5,a3
200142ee:	0e07a623          	sw	zero,236(a5)
/home/nicoladgg/wsFreedomStudio/sifive_hifive1_revb_HCSR04/freedom-metal/src/drivers/riscv_plic0.c:147
200142f2:	fe442683          	lw	a3,-28(s0)
200142f6:	fe842703          	lw	a4,-24(s0)
200142fa:	87ba                	mv	a5,a4
200142fc:	0786                	slli	a5,a5,0x1
200142fe:	97ba                	add	a5,a5,a4
20014300:	078e                	slli	a5,a5,0x3
20014302:	97b6                	add	a5,a5,a3
20014304:	0e07a823          	sw	zero,240(a5)
/home/nicoladgg/wsFreedomStudio/sifive_hifive1_revb_HCSR04/freedom-metal/src/drivers/riscv_plic0.c:141 (discriminator 2)
20014308:	fe842783          	lw	a5,-24(s0)
2001430c:	0785                	addi	a5,a5,1
2001430e:	fef42423          	sw	a5,-24(s0)
/home/nicoladgg/wsFreedomStudio/sifive_hifive1_revb_HCSR04/freedom-metal/src/drivers/riscv_plic0.c:141 (discriminator 1)
20014312:	fe842703          	lw	a4,-24(s0)
20014316:	3ff00793          	li	a5,1023
2001431a:	f8e7d5e3          	bge	a5,a4,200142a4 <__metal_driver_riscv_plic0_init+0x60>
/home/nicoladgg/wsFreedomStudio/sifive_hifive1_revb_HCSR04/freedom-metal/src/drivers/riscv_plic0.c:151 (discriminator 2)
2001431e:	4601                	li	a2,0
20014320:	fec42583          	lw	a1,-20(s0)
20014324:	fcc42503          	lw	a0,-52(s0)
20014328:	3165                	jal	20013fd0 <__metal_plic0_set_threshold>
/home/nicoladgg/wsFreedomStudio/sifive_hifive1_revb_HCSR04/freedom-metal/src/drivers/riscv_plic0.c:154 (discriminator 2)
2001432a:	fdc42783          	lw	a5,-36(s0)
2001432e:	439c                	lw	a5,0(a5)
20014330:	4fdc                	lw	a5,28(a5)
20014332:	fe442683          	lw	a3,-28(s0)
20014336:	4601                	li	a2,0
20014338:	fd842583          	lw	a1,-40(s0)
2001433c:	fdc42503          	lw	a0,-36(s0)
20014340:	9782                	jalr	a5
/home/nicoladgg/wsFreedomStudio/sifive_hifive1_revb_HCSR04/freedom-metal/src/drivers/riscv_plic0.c:156 (discriminator 2)
20014342:	fdc42783          	lw	a5,-36(s0)
20014346:	439c                	lw	a5,0(a5)
20014348:	4fd8                	lw	a4,28(a5)
2001434a:	fe442683          	lw	a3,-28(s0)
2001434e:	200147b7          	lui	a5,0x20014
20014352:	1a078613          	addi	a2,a5,416 # 200141a0 <__metal_plic0_handler>
20014356:	fd842583          	lw	a1,-40(s0)
2001435a:	fdc42503          	lw	a0,-36(s0)
2001435e:	9702                	jalr	a4
/home/nicoladgg/wsFreedomStudio/sifive_hifive1_revb_HCSR04/freedom-metal/src/drivers/riscv_plic0.c:159 (discriminator 2)
20014360:	fdc42783          	lw	a5,-36(s0)
20014364:	439c                	lw	a5,0(a5)
20014366:	53dc                	lw	a5,36(a5)
20014368:	fd842583          	lw	a1,-40(s0)
2001436c:	fdc42503          	lw	a0,-36(s0)
20014370:	9782                	jalr	a5
/home/nicoladgg/wsFreedomStudio/sifive_hifive1_revb_HCSR04/freedom-metal/src/drivers/riscv_plic0.c:130 (discriminator 2)
20014372:	fec42783          	lw	a5,-20(s0)
20014376:	0785                	addi	a5,a5,1
20014378:	fef42623          	sw	a5,-20(s0)
/home/nicoladgg/wsFreedomStudio/sifive_hifive1_revb_HCSR04/freedom-metal/src/drivers/riscv_plic0.c:130 (discriminator 1)
2001437c:	fec42783          	lw	a5,-20(s0)
20014380:	eef054e3          	blez	a5,20014268 <__metal_driver_riscv_plic0_init+0x24>
/home/nicoladgg/wsFreedomStudio/sifive_hifive1_revb_HCSR04/freedom-metal/src/drivers/riscv_plic0.c:161
20014384:	fe442783          	lw	a5,-28(s0)
20014388:	4705                	li	a4,1
2001438a:	c3d8                	sw	a4,4(a5)
/home/nicoladgg/wsFreedomStudio/sifive_hifive1_revb_HCSR04/freedom-metal/src/drivers/riscv_plic0.c:163
2001438c:	0001                	nop
2001438e:	50f2                	lw	ra,60(sp)
20014390:	5462                	lw	s0,56(sp)
20014392:	6121                	addi	sp,sp,64
20014394:	8082                	ret

20014396 <__metal_driver_riscv_plic0_register>:
__metal_driver_riscv_plic0_register():
/home/nicoladgg/wsFreedomStudio/sifive_hifive1_revb_HCSR04/freedom-metal/src/drivers/riscv_plic0.c:167
20014396:	7179                	addi	sp,sp,-48
20014398:	d606                	sw	ra,44(sp)
2001439a:	d422                	sw	s0,40(sp)
2001439c:	1800                	addi	s0,sp,48
2001439e:	fca42e23          	sw	a0,-36(s0)
200143a2:	fcb42c23          	sw	a1,-40(s0)
200143a6:	fcc42a23          	sw	a2,-44(s0)
200143aa:	fcd42823          	sw	a3,-48(s0)
/home/nicoladgg/wsFreedomStudio/sifive_hifive1_revb_HCSR04/freedom-metal/src/drivers/riscv_plic0.c:168
200143ae:	fdc42783          	lw	a5,-36(s0)
200143b2:	fef42623          	sw	a5,-20(s0)
/home/nicoladgg/wsFreedomStudio/sifive_hifive1_revb_HCSR04/freedom-metal/src/drivers/riscv_plic0.c:170
200143b6:	fdc42503          	lw	a0,-36(s0)
200143ba:	adbff0ef          	jal	ra,20013e94 <__metal_driver_sifive_plic0_num_interrupts>
200143be:	872a                	mv	a4,a0
200143c0:	fd842783          	lw	a5,-40(s0)
200143c4:	00e7c463          	blt	a5,a4,200143cc <__metal_driver_riscv_plic0_register+0x36>
/home/nicoladgg/wsFreedomStudio/sifive_hifive1_revb_HCSR04/freedom-metal/src/drivers/riscv_plic0.c:171
200143c8:	57fd                	li	a5,-1
200143ca:	a051                	j	2001444e <__metal_driver_riscv_plic0_register+0xb8>
/home/nicoladgg/wsFreedomStudio/sifive_hifive1_revb_HCSR04/freedom-metal/src/drivers/riscv_plic0.c:174
200143cc:	fd442783          	lw	a5,-44(s0)
200143d0:	cf9d                	beqz	a5,2001440e <__metal_driver_riscv_plic0_register+0x78>
/home/nicoladgg/wsFreedomStudio/sifive_hifive1_revb_HCSR04/freedom-metal/src/drivers/riscv_plic0.c:175
200143d2:	4609                	li	a2,2
200143d4:	fd842583          	lw	a1,-40(s0)
200143d8:	fdc42503          	lw	a0,-36(s0)
200143dc:	c75ff0ef          	jal	ra,20014050 <__metal_driver_riscv_plic0_set_priority>
/home/nicoladgg/wsFreedomStudio/sifive_hifive1_revb_HCSR04/freedom-metal/src/drivers/riscv_plic0.c:176
200143e0:	fec42703          	lw	a4,-20(s0)
200143e4:	fd842783          	lw	a5,-40(s0)
200143e8:	078a                	slli	a5,a5,0x2
200143ea:	97ba                	add	a5,a5,a4
200143ec:	fd442703          	lw	a4,-44(s0)
200143f0:	c798                	sw	a4,8(a5)
/home/nicoladgg/wsFreedomStudio/sifive_hifive1_revb_HCSR04/freedom-metal/src/drivers/riscv_plic0.c:177
200143f2:	fec42683          	lw	a3,-20(s0)
200143f6:	fd842703          	lw	a4,-40(s0)
200143fa:	87ba                	mv	a5,a4
200143fc:	0786                	slli	a5,a5,0x1
200143fe:	97ba                	add	a5,a5,a4
20014400:	078e                	slli	a5,a5,0x3
20014402:	97b6                	add	a5,a5,a3
20014404:	fd042703          	lw	a4,-48(s0)
20014408:	0ee7a823          	sw	a4,240(a5)
2001440c:	a081                	j	2001444c <__metal_driver_riscv_plic0_register+0xb6>
/home/nicoladgg/wsFreedomStudio/sifive_hifive1_revb_HCSR04/freedom-metal/src/drivers/riscv_plic0.c:179
2001440e:	4605                	li	a2,1
20014410:	fd842583          	lw	a1,-40(s0)
20014414:	fdc42503          	lw	a0,-36(s0)
20014418:	c39ff0ef          	jal	ra,20014050 <__metal_driver_riscv_plic0_set_priority>
/home/nicoladgg/wsFreedomStudio/sifive_hifive1_revb_HCSR04/freedom-metal/src/drivers/riscv_plic0.c:180
2001441c:	fec42703          	lw	a4,-20(s0)
20014420:	fd842783          	lw	a5,-40(s0)
20014424:	078a                	slli	a5,a5,0x2
20014426:	97ba                	add	a5,a5,a4
20014428:	20014737          	lui	a4,0x20014
2001442c:	18870713          	addi	a4,a4,392 # 20014188 <__metal_plic0_default_handler>
20014430:	c798                	sw	a4,8(a5)
/home/nicoladgg/wsFreedomStudio/sifive_hifive1_revb_HCSR04/freedom-metal/src/drivers/riscv_plic0.c:181
20014432:	fec42683          	lw	a3,-20(s0)
20014436:	fd842703          	lw	a4,-40(s0)
2001443a:	87ba                	mv	a5,a4
2001443c:	0786                	slli	a5,a5,0x1
2001443e:	97ba                	add	a5,a5,a4
20014440:	078e                	slli	a5,a5,0x3
20014442:	97b6                	add	a5,a5,a3
20014444:	fd042703          	lw	a4,-48(s0)
20014448:	0ee7a623          	sw	a4,236(a5)
/home/nicoladgg/wsFreedomStudio/sifive_hifive1_revb_HCSR04/freedom-metal/src/drivers/riscv_plic0.c:184
2001444c:	4781                	li	a5,0
/home/nicoladgg/wsFreedomStudio/sifive_hifive1_revb_HCSR04/freedom-metal/src/drivers/riscv_plic0.c:185
2001444e:	853e                	mv	a0,a5
20014450:	50b2                	lw	ra,44(sp)
20014452:	5422                	lw	s0,40(sp)
20014454:	6145                	addi	sp,sp,48
20014456:	8082                	ret

20014458 <__metal_driver_riscv_plic0_enable>:
__metal_driver_riscv_plic0_enable():
/home/nicoladgg/wsFreedomStudio/sifive_hifive1_revb_HCSR04/freedom-metal/src/drivers/riscv_plic0.c:188
20014458:	7179                	addi	sp,sp,-48
2001445a:	d606                	sw	ra,44(sp)
2001445c:	d422                	sw	s0,40(sp)
2001445e:	1800                	addi	s0,sp,48
20014460:	fca42e23          	sw	a0,-36(s0)
20014464:	fcb42c23          	sw	a1,-40(s0)
/home/nicoladgg/wsFreedomStudio/sifive_hifive1_revb_HCSR04/freedom-metal/src/drivers/riscv_plic0.c:189
20014468:	fdc42783          	lw	a5,-36(s0)
2001446c:	fef42623          	sw	a5,-20(s0)
/home/nicoladgg/wsFreedomStudio/sifive_hifive1_revb_HCSR04/freedom-metal/src/drivers/riscv_plic0.c:191
20014470:	fdc42503          	lw	a0,-36(s0)
20014474:	a21ff0ef          	jal	ra,20013e94 <__metal_driver_sifive_plic0_num_interrupts>
20014478:	872a                	mv	a4,a0
2001447a:	fd842783          	lw	a5,-40(s0)
2001447e:	00e7c463          	blt	a5,a4,20014486 <__metal_driver_riscv_plic0_enable+0x2e>
/home/nicoladgg/wsFreedomStudio/sifive_hifive1_revb_HCSR04/freedom-metal/src/drivers/riscv_plic0.c:192
20014482:	57fd                	li	a5,-1
20014484:	a829                	j	2001449e <__metal_driver_riscv_plic0_enable+0x46>
/home/nicoladgg/wsFreedomStudio/sifive_hifive1_revb_HCSR04/freedom-metal/src/drivers/riscv_plic0.c:195
20014486:	890fe0ef          	jal	ra,20012516 <__metal_myhart_id>
2001448a:	87aa                	mv	a5,a0
2001448c:	4685                	li	a3,1
2001448e:	fd842603          	lw	a2,-40(s0)
20014492:	85be                	mv	a1,a5
20014494:	fec42503          	lw	a0,-20(s0)
20014498:	c4fff0ef          	jal	ra,200140e6 <__metal_plic0_enable>
/home/nicoladgg/wsFreedomStudio/sifive_hifive1_revb_HCSR04/freedom-metal/src/drivers/riscv_plic0.c:196
2001449c:	4781                	li	a5,0
/home/nicoladgg/wsFreedomStudio/sifive_hifive1_revb_HCSR04/freedom-metal/src/drivers/riscv_plic0.c:197
2001449e:	853e                	mv	a0,a5
200144a0:	50b2                	lw	ra,44(sp)
200144a2:	5422                	lw	s0,40(sp)
200144a4:	6145                	addi	sp,sp,48
200144a6:	8082                	ret

200144a8 <__metal_driver_riscv_plic0_disable>:
__metal_driver_riscv_plic0_disable():
/home/nicoladgg/wsFreedomStudio/sifive_hifive1_revb_HCSR04/freedom-metal/src/drivers/riscv_plic0.c:200
200144a8:	7179                	addi	sp,sp,-48
200144aa:	d606                	sw	ra,44(sp)
200144ac:	d422                	sw	s0,40(sp)
200144ae:	1800                	addi	s0,sp,48
200144b0:	fca42e23          	sw	a0,-36(s0)
200144b4:	fcb42c23          	sw	a1,-40(s0)
/home/nicoladgg/wsFreedomStudio/sifive_hifive1_revb_HCSR04/freedom-metal/src/drivers/riscv_plic0.c:201
200144b8:	fdc42783          	lw	a5,-36(s0)
200144bc:	fef42623          	sw	a5,-20(s0)
/home/nicoladgg/wsFreedomStudio/sifive_hifive1_revb_HCSR04/freedom-metal/src/drivers/riscv_plic0.c:203
200144c0:	fdc42503          	lw	a0,-36(s0)
200144c4:	9d1ff0ef          	jal	ra,20013e94 <__metal_driver_sifive_plic0_num_interrupts>
200144c8:	872a                	mv	a4,a0
200144ca:	fd842783          	lw	a5,-40(s0)
200144ce:	00e7c463          	blt	a5,a4,200144d6 <__metal_driver_riscv_plic0_disable+0x2e>
/home/nicoladgg/wsFreedomStudio/sifive_hifive1_revb_HCSR04/freedom-metal/src/drivers/riscv_plic0.c:204
200144d2:	57fd                	li	a5,-1
200144d4:	a829                	j	200144ee <__metal_driver_riscv_plic0_disable+0x46>
/home/nicoladgg/wsFreedomStudio/sifive_hifive1_revb_HCSR04/freedom-metal/src/drivers/riscv_plic0.c:206
200144d6:	840fe0ef          	jal	ra,20012516 <__metal_myhart_id>
200144da:	87aa                	mv	a5,a0
200144dc:	4681                	li	a3,0
200144de:	fd842603          	lw	a2,-40(s0)
200144e2:	85be                	mv	a1,a5
200144e4:	fec42503          	lw	a0,-20(s0)
200144e8:	bffff0ef          	jal	ra,200140e6 <__metal_plic0_enable>
/home/nicoladgg/wsFreedomStudio/sifive_hifive1_revb_HCSR04/freedom-metal/src/drivers/riscv_plic0.c:207
200144ec:	4781                	li	a5,0
/home/nicoladgg/wsFreedomStudio/sifive_hifive1_revb_HCSR04/freedom-metal/src/drivers/riscv_plic0.c:208
200144ee:	853e                	mv	a0,a5
200144f0:	50b2                	lw	ra,44(sp)
200144f2:	5422                	lw	s0,40(sp)
200144f4:	6145                	addi	sp,sp,48
200144f6:	8082                	ret

200144f8 <__metal_driver_riscv_plic0_set_threshold>:
__metal_driver_riscv_plic0_set_threshold():
/home/nicoladgg/wsFreedomStudio/sifive_hifive1_revb_HCSR04/freedom-metal/src/drivers/riscv_plic0.c:211
200144f8:	1101                	addi	sp,sp,-32
200144fa:	ce06                	sw	ra,28(sp)
200144fc:	cc22                	sw	s0,24(sp)
200144fe:	1000                	addi	s0,sp,32
20014500:	fea42623          	sw	a0,-20(s0)
20014504:	feb42423          	sw	a1,-24(s0)
/home/nicoladgg/wsFreedomStudio/sifive_hifive1_revb_HCSR04/freedom-metal/src/drivers/riscv_plic0.c:212
20014508:	80efe0ef          	jal	ra,20012516 <__metal_myhart_id>
2001450c:	87aa                	mv	a5,a0
2001450e:	fe842603          	lw	a2,-24(s0)
20014512:	85be                	mv	a1,a5
20014514:	fec42503          	lw	a0,-20(s0)
20014518:	ab9ff0ef          	jal	ra,20013fd0 <__metal_plic0_set_threshold>
2001451c:	87aa                	mv	a5,a0
/home/nicoladgg/wsFreedomStudio/sifive_hifive1_revb_HCSR04/freedom-metal/src/drivers/riscv_plic0.c:214
2001451e:	853e                	mv	a0,a5
20014520:	40f2                	lw	ra,28(sp)
20014522:	4462                	lw	s0,24(sp)
20014524:	6105                	addi	sp,sp,32
20014526:	8082                	ret

20014528 <__metal_driver_riscv_plic0_get_threshold>:
__metal_driver_riscv_plic0_get_threshold():
/home/nicoladgg/wsFreedomStudio/sifive_hifive1_revb_HCSR04/freedom-metal/src/drivers/riscv_plic0.c:217
20014528:	1101                	addi	sp,sp,-32
2001452a:	ce06                	sw	ra,28(sp)
2001452c:	cc22                	sw	s0,24(sp)
2001452e:	1000                	addi	s0,sp,32
20014530:	fea42623          	sw	a0,-20(s0)
/home/nicoladgg/wsFreedomStudio/sifive_hifive1_revb_HCSR04/freedom-metal/src/drivers/riscv_plic0.c:218
20014534:	fe3fd0ef          	jal	ra,20012516 <__metal_myhart_id>
20014538:	87aa                	mv	a5,a0
2001453a:	85be                	mv	a1,a5
2001453c:	fec42503          	lw	a0,-20(s0)
20014540:	ad7ff0ef          	jal	ra,20014016 <__metal_plic0_get_threshold>
20014544:	87aa                	mv	a5,a0
/home/nicoladgg/wsFreedomStudio/sifive_hifive1_revb_HCSR04/freedom-metal/src/drivers/riscv_plic0.c:219
20014546:	853e                	mv	a0,a5
20014548:	40f2                	lw	ra,28(sp)
2001454a:	4462                	lw	s0,24(sp)
2001454c:	6105                	addi	sp,sp,32
2001454e:	8082                	ret

20014550 <__metal_driver_riscv_plic0_affinity_enable>:
__metal_driver_riscv_plic0_affinity_enable():
/home/nicoladgg/wsFreedomStudio/sifive_hifive1_revb_HCSR04/freedom-metal/src/drivers/riscv_plic0.c:223
20014550:	7179                	addi	sp,sp,-48
20014552:	d606                	sw	ra,44(sp)
20014554:	d422                	sw	s0,40(sp)
20014556:	1800                	addi	s0,sp,48
20014558:	fca42e23          	sw	a0,-36(s0)
2001455c:	fcb42c23          	sw	a1,-40(s0)
20014560:	fcc42a23          	sw	a2,-44(s0)
/home/nicoladgg/wsFreedomStudio/sifive_hifive1_revb_HCSR04/freedom-metal/src/drivers/riscv_plic0.c:224
20014564:	fe042223          	sw	zero,-28(s0)
/home/nicoladgg/wsFreedomStudio/sifive_hifive1_revb_HCSR04/freedom-metal/src/drivers/riscv_plic0.c:227
20014568:	fdc42783          	lw	a5,-36(s0)
2001456c:	fef42423          	sw	a5,-24(s0)
/home/nicoladgg/wsFreedomStudio/sifive_hifive1_revb_HCSR04/freedom-metal/src/drivers/riscv_plic0.c:229
20014570:	fdc42503          	lw	a0,-36(s0)
20014574:	921ff0ef          	jal	ra,20013e94 <__metal_driver_sifive_plic0_num_interrupts>
20014578:	872a                	mv	a4,a0
2001457a:	fd442783          	lw	a5,-44(s0)
2001457e:	00e7c863          	blt	a5,a4,2001458e <__metal_driver_riscv_plic0_affinity_enable+0x3e>
/home/nicoladgg/wsFreedomStudio/sifive_hifive1_revb_HCSR04/freedom-metal/src/drivers/riscv_plic0.c:230
20014582:	57fd                	li	a5,-1
20014584:	fef42223          	sw	a5,-28(s0)
/home/nicoladgg/wsFreedomStudio/sifive_hifive1_revb_HCSR04/freedom-metal/src/drivers/riscv_plic0.c:231
20014588:	fe442783          	lw	a5,-28(s0)
2001458c:	a899                	j	200145e2 <__metal_driver_riscv_plic0_affinity_enable+0x92>
/home/nicoladgg/wsFreedomStudio/sifive_hifive1_revb_HCSR04/freedom-metal/src/drivers/riscv_plic0.c:234
2001458e:	fe042623          	sw	zero,-20(s0)
20014592:	a099                	j	200145d8 <__metal_driver_riscv_plic0_affinity_enable+0x88>
/home/nicoladgg/wsFreedomStudio/sifive_hifive1_revb_HCSR04/freedom-metal/src/drivers/riscv_plic0.c:235
20014594:	fec42783          	lw	a5,-20(s0)
20014598:	c795                	beqz	a5,200145c4 <__metal_driver_riscv_plic0_affinity_enable+0x74>
/home/nicoladgg/wsFreedomStudio/sifive_hifive1_revb_HCSR04/freedom-metal/src/drivers/riscv_plic0.c:236
2001459a:	4685                	li	a3,1
2001459c:	fd442603          	lw	a2,-44(s0)
200145a0:	fec42583          	lw	a1,-20(s0)
200145a4:	fe842503          	lw	a0,-24(s0)
200145a8:	b3fff0ef          	jal	ra,200140e6 <__metal_plic0_enable>
200145ac:	87aa                	mv	a5,a0
200145ae:	0017f713          	andi	a4,a5,1
200145b2:	fec42783          	lw	a5,-20(s0)
200145b6:	00f71733          	sll	a4,a4,a5
200145ba:	fe442783          	lw	a5,-28(s0)
200145be:	8fd9                	or	a5,a5,a4
200145c0:	fef42223          	sw	a5,-28(s0)
/home/nicoladgg/wsFreedomStudio/sifive_hifive1_revb_HCSR04/freedom-metal/src/drivers/riscv_plic0.c:234 (discriminator 2)
200145c4:	fec42783          	lw	a5,-20(s0)
200145c8:	0785                	addi	a5,a5,1
200145ca:	fef42623          	sw	a5,-20(s0)
200145ce:	fd842783          	lw	a5,-40(s0)
200145d2:	8385                	srli	a5,a5,0x1
200145d4:	fcf42c23          	sw	a5,-40(s0)
/home/nicoladgg/wsFreedomStudio/sifive_hifive1_revb_HCSR04/freedom-metal/src/drivers/riscv_plic0.c:234 (discriminator 1)
200145d8:	fd842783          	lw	a5,-40(s0)
200145dc:	ffc5                	bnez	a5,20014594 <__metal_driver_riscv_plic0_affinity_enable+0x44>
/home/nicoladgg/wsFreedomStudio/sifive_hifive1_revb_HCSR04/freedom-metal/src/drivers/riscv_plic0.c:241
200145de:	fe442783          	lw	a5,-28(s0)
/home/nicoladgg/wsFreedomStudio/sifive_hifive1_revb_HCSR04/freedom-metal/src/drivers/riscv_plic0.c:242 (discriminator 1)
200145e2:	853e                	mv	a0,a5
200145e4:	50b2                	lw	ra,44(sp)
200145e6:	5422                	lw	s0,40(sp)
200145e8:	6145                	addi	sp,sp,48
200145ea:	8082                	ret

200145ec <__metal_driver_riscv_plic0_affinity_disable>:
__metal_driver_riscv_plic0_affinity_disable():
/home/nicoladgg/wsFreedomStudio/sifive_hifive1_revb_HCSR04/freedom-metal/src/drivers/riscv_plic0.c:246
200145ec:	7179                	addi	sp,sp,-48
200145ee:	d606                	sw	ra,44(sp)
200145f0:	d422                	sw	s0,40(sp)
200145f2:	1800                	addi	s0,sp,48
200145f4:	fca42e23          	sw	a0,-36(s0)
200145f8:	fcb42c23          	sw	a1,-40(s0)
200145fc:	fcc42a23          	sw	a2,-44(s0)
/home/nicoladgg/wsFreedomStudio/sifive_hifive1_revb_HCSR04/freedom-metal/src/drivers/riscv_plic0.c:247
20014600:	fe042223          	sw	zero,-28(s0)
/home/nicoladgg/wsFreedomStudio/sifive_hifive1_revb_HCSR04/freedom-metal/src/drivers/riscv_plic0.c:250
20014604:	fdc42783          	lw	a5,-36(s0)
20014608:	fef42423          	sw	a5,-24(s0)
/home/nicoladgg/wsFreedomStudio/sifive_hifive1_revb_HCSR04/freedom-metal/src/drivers/riscv_plic0.c:252
2001460c:	fdc42503          	lw	a0,-36(s0)
20014610:	885ff0ef          	jal	ra,20013e94 <__metal_driver_sifive_plic0_num_interrupts>
20014614:	872a                	mv	a4,a0
20014616:	fd442783          	lw	a5,-44(s0)
2001461a:	00e7c863          	blt	a5,a4,2001462a <__metal_driver_riscv_plic0_affinity_disable+0x3e>
/home/nicoladgg/wsFreedomStudio/sifive_hifive1_revb_HCSR04/freedom-metal/src/drivers/riscv_plic0.c:253
2001461e:	57fd                	li	a5,-1
20014620:	fef42223          	sw	a5,-28(s0)
/home/nicoladgg/wsFreedomStudio/sifive_hifive1_revb_HCSR04/freedom-metal/src/drivers/riscv_plic0.c:254
20014624:	fe442783          	lw	a5,-28(s0)
20014628:	a899                	j	2001467e <__metal_driver_riscv_plic0_affinity_disable+0x92>
/home/nicoladgg/wsFreedomStudio/sifive_hifive1_revb_HCSR04/freedom-metal/src/drivers/riscv_plic0.c:257
2001462a:	fe042623          	sw	zero,-20(s0)
2001462e:	a099                	j	20014674 <__metal_driver_riscv_plic0_affinity_disable+0x88>
/home/nicoladgg/wsFreedomStudio/sifive_hifive1_revb_HCSR04/freedom-metal/src/drivers/riscv_plic0.c:258
20014630:	fec42783          	lw	a5,-20(s0)
20014634:	c795                	beqz	a5,20014660 <__metal_driver_riscv_plic0_affinity_disable+0x74>
/home/nicoladgg/wsFreedomStudio/sifive_hifive1_revb_HCSR04/freedom-metal/src/drivers/riscv_plic0.c:259
20014636:	4681                	li	a3,0
20014638:	fd442603          	lw	a2,-44(s0)
2001463c:	fec42583          	lw	a1,-20(s0)
20014640:	fe842503          	lw	a0,-24(s0)
20014644:	aa3ff0ef          	jal	ra,200140e6 <__metal_plic0_enable>
20014648:	87aa                	mv	a5,a0
2001464a:	0017f713          	andi	a4,a5,1
2001464e:	fec42783          	lw	a5,-20(s0)
20014652:	00f71733          	sll	a4,a4,a5
20014656:	fe442783          	lw	a5,-28(s0)
2001465a:	8fd9                	or	a5,a5,a4
2001465c:	fef42223          	sw	a5,-28(s0)
/home/nicoladgg/wsFreedomStudio/sifive_hifive1_revb_HCSR04/freedom-metal/src/drivers/riscv_plic0.c:257 (discriminator 2)
20014660:	fec42783          	lw	a5,-20(s0)
20014664:	0785                	addi	a5,a5,1
20014666:	fef42623          	sw	a5,-20(s0)
2001466a:	fd842783          	lw	a5,-40(s0)
2001466e:	8385                	srli	a5,a5,0x1
20014670:	fcf42c23          	sw	a5,-40(s0)
/home/nicoladgg/wsFreedomStudio/sifive_hifive1_revb_HCSR04/freedom-metal/src/drivers/riscv_plic0.c:257 (discriminator 1)
20014674:	fd842783          	lw	a5,-40(s0)
20014678:	ffc5                	bnez	a5,20014630 <__metal_driver_riscv_plic0_affinity_disable+0x44>
/home/nicoladgg/wsFreedomStudio/sifive_hifive1_revb_HCSR04/freedom-metal/src/drivers/riscv_plic0.c:264
2001467a:	fe442783          	lw	a5,-28(s0)
/home/nicoladgg/wsFreedomStudio/sifive_hifive1_revb_HCSR04/freedom-metal/src/drivers/riscv_plic0.c:265 (discriminator 1)
2001467e:	853e                	mv	a0,a5
20014680:	50b2                	lw	ra,44(sp)
20014682:	5422                	lw	s0,40(sp)
20014684:	6145                	addi	sp,sp,48
20014686:	8082                	ret

20014688 <__metal_driver_riscv_plic0_affinity_set_threshold>:
__metal_driver_riscv_plic0_affinity_set_threshold():
/home/nicoladgg/wsFreedomStudio/sifive_hifive1_revb_HCSR04/freedom-metal/src/drivers/riscv_plic0.c:269
20014688:	7179                	addi	sp,sp,-48
2001468a:	d606                	sw	ra,44(sp)
2001468c:	d422                	sw	s0,40(sp)
2001468e:	1800                	addi	s0,sp,48
20014690:	fca42e23          	sw	a0,-36(s0)
20014694:	fcb42c23          	sw	a1,-40(s0)
20014698:	fcc42a23          	sw	a2,-44(s0)
/home/nicoladgg/wsFreedomStudio/sifive_hifive1_revb_HCSR04/freedom-metal/src/drivers/riscv_plic0.c:270
2001469c:	fe042423          	sw	zero,-24(s0)
/home/nicoladgg/wsFreedomStudio/sifive_hifive1_revb_HCSR04/freedom-metal/src/drivers/riscv_plic0.c:273
200146a0:	fe042623          	sw	zero,-20(s0)
200146a4:	a091                	j	200146e8 <__metal_driver_riscv_plic0_affinity_set_threshold+0x60>
/home/nicoladgg/wsFreedomStudio/sifive_hifive1_revb_HCSR04/freedom-metal/src/drivers/riscv_plic0.c:274
200146a6:	fec42783          	lw	a5,-20(s0)
200146aa:	c78d                	beqz	a5,200146d4 <__metal_driver_riscv_plic0_affinity_set_threshold+0x4c>
/home/nicoladgg/wsFreedomStudio/sifive_hifive1_revb_HCSR04/freedom-metal/src/drivers/riscv_plic0.c:275
200146ac:	fd442603          	lw	a2,-44(s0)
200146b0:	fec42583          	lw	a1,-20(s0)
200146b4:	fdc42503          	lw	a0,-36(s0)
200146b8:	919ff0ef          	jal	ra,20013fd0 <__metal_plic0_set_threshold>
200146bc:	87aa                	mv	a5,a0
200146be:	0017f713          	andi	a4,a5,1
200146c2:	fec42783          	lw	a5,-20(s0)
200146c6:	00f71733          	sll	a4,a4,a5
200146ca:	fe842783          	lw	a5,-24(s0)
200146ce:	8fd9                	or	a5,a5,a4
200146d0:	fef42423          	sw	a5,-24(s0)
/home/nicoladgg/wsFreedomStudio/sifive_hifive1_revb_HCSR04/freedom-metal/src/drivers/riscv_plic0.c:273 (discriminator 2)
200146d4:	fec42783          	lw	a5,-20(s0)
200146d8:	0785                	addi	a5,a5,1
200146da:	fef42623          	sw	a5,-20(s0)
200146de:	fd842783          	lw	a5,-40(s0)
200146e2:	8385                	srli	a5,a5,0x1
200146e4:	fcf42c23          	sw	a5,-40(s0)
/home/nicoladgg/wsFreedomStudio/sifive_hifive1_revb_HCSR04/freedom-metal/src/drivers/riscv_plic0.c:273 (discriminator 1)
200146e8:	fd842783          	lw	a5,-40(s0)
200146ec:	ffcd                	bnez	a5,200146a6 <__metal_driver_riscv_plic0_affinity_set_threshold+0x1e>
/home/nicoladgg/wsFreedomStudio/sifive_hifive1_revb_HCSR04/freedom-metal/src/drivers/riscv_plic0.c:280
200146ee:	fe842783          	lw	a5,-24(s0)
/home/nicoladgg/wsFreedomStudio/sifive_hifive1_revb_HCSR04/freedom-metal/src/drivers/riscv_plic0.c:281
200146f2:	853e                	mv	a0,a5
200146f4:	50b2                	lw	ra,44(sp)
200146f6:	5422                	lw	s0,40(sp)
200146f8:	6145                	addi	sp,sp,48
200146fa:	8082                	ret

200146fc <__metal_driver_riscv_plic0_affinity_get_threshold>:
__metal_driver_riscv_plic0_affinity_get_threshold():
/home/nicoladgg/wsFreedomStudio/sifive_hifive1_revb_HCSR04/freedom-metal/src/drivers/riscv_plic0.c:284
200146fc:	1101                	addi	sp,sp,-32
200146fe:	ce06                	sw	ra,28(sp)
20014700:	cc22                	sw	s0,24(sp)
20014702:	1000                	addi	s0,sp,32
20014704:	fea42623          	sw	a0,-20(s0)
20014708:	feb42423          	sw	a1,-24(s0)
/home/nicoladgg/wsFreedomStudio/sifive_hifive1_revb_HCSR04/freedom-metal/src/drivers/riscv_plic0.c:285
2001470c:	fe842583          	lw	a1,-24(s0)
20014710:	fec42503          	lw	a0,-20(s0)
20014714:	903ff0ef          	jal	ra,20014016 <__metal_plic0_get_threshold>
/home/nicoladgg/wsFreedomStudio/sifive_hifive1_revb_HCSR04/freedom-metal/src/drivers/riscv_plic0.c:286
20014718:	4781                	li	a5,0
/home/nicoladgg/wsFreedomStudio/sifive_hifive1_revb_HCSR04/freedom-metal/src/drivers/riscv_plic0.c:287
2001471a:	853e                	mv	a0,a5
2001471c:	40f2                	lw	ra,28(sp)
2001471e:	4462                	lw	s0,24(sp)
20014720:	6105                	addi	sp,sp,32
20014722:	8082                	ret

20014724 <__metal_driver_sifive_fe310_g000_hfrosc_ref>:
__metal_driver_sifive_fe310_g000_hfrosc_ref():
/home/nicoladgg/wsFreedomStudio/sifive_hifive1_revb_HCSR04/bsp/build/debug/./metal/machine.h:1242
20014724:	1101                	addi	sp,sp,-32
20014726:	ce22                	sw	s0,28(sp)
20014728:	1000                	addi	s0,sp,32
2001472a:	fea42623          	sw	a0,-20(s0)
/home/nicoladgg/wsFreedomStudio/sifive_hifive1_revb_HCSR04/bsp/build/debug/./metal/machine.h:1243
2001472e:	800007b7          	lui	a5,0x80000
20014732:	06c78793          	addi	a5,a5,108 # 8000006c <metal_segment_heap_target_end+0xffffe8ec>
/home/nicoladgg/wsFreedomStudio/sifive_hifive1_revb_HCSR04/bsp/build/debug/./metal/machine.h:1244
20014736:	853e                	mv	a0,a5
20014738:	4472                	lw	s0,28(sp)
2001473a:	6105                	addi	sp,sp,32
2001473c:	8082                	ret

2001473e <__metal_driver_sifive_fe310_g000_hfrosc_config_base>:
__metal_driver_sifive_fe310_g000_hfrosc_config_base():
/home/nicoladgg/wsFreedomStudio/sifive_hifive1_revb_HCSR04/bsp/build/debug/./metal/machine.h:1247
2001473e:	1101                	addi	sp,sp,-32
20014740:	ce22                	sw	s0,28(sp)
20014742:	1000                	addi	s0,sp,32
20014744:	fea42623          	sw	a0,-20(s0)
/home/nicoladgg/wsFreedomStudio/sifive_hifive1_revb_HCSR04/bsp/build/debug/./metal/machine.h:1248
20014748:	81c18793          	addi	a5,gp,-2020 # 80000abc <__metal_dt_prci_10008000>
/home/nicoladgg/wsFreedomStudio/sifive_hifive1_revb_HCSR04/bsp/build/debug/./metal/machine.h:1249
2001474c:	853e                	mv	a0,a5
2001474e:	4472                	lw	s0,28(sp)
20014750:	6105                	addi	sp,sp,32
20014752:	8082                	ret

20014754 <__metal_driver_sifive_fe310_g000_hfrosc_config_offset>:
__metal_driver_sifive_fe310_g000_hfrosc_config_offset():
/home/nicoladgg/wsFreedomStudio/sifive_hifive1_revb_HCSR04/bsp/build/debug/./metal/machine.h:1257
20014754:	1101                	addi	sp,sp,-32
20014756:	ce22                	sw	s0,28(sp)
20014758:	1000                	addi	s0,sp,32
2001475a:	fea42623          	sw	a0,-20(s0)
/home/nicoladgg/wsFreedomStudio/sifive_hifive1_revb_HCSR04/bsp/build/debug/./metal/machine.h:1258
2001475e:	4781                	li	a5,0
/home/nicoladgg/wsFreedomStudio/sifive_hifive1_revb_HCSR04/bsp/build/debug/./metal/machine.h:1259
20014760:	853e                	mv	a0,a5
20014762:	4472                	lw	s0,28(sp)
20014764:	6105                	addi	sp,sp,32
20014766:	8082                	ret

20014768 <__metal_driver_sifive_fe310_g000_prci_vtable>:
__metal_driver_sifive_fe310_g000_prci_vtable():
/home/nicoladgg/wsFreedomStudio/sifive_hifive1_revb_HCSR04/bsp/build/debug/./metal/machine.h:1374
20014768:	1141                	addi	sp,sp,-16
2001476a:	c622                	sw	s0,12(sp)
2001476c:	0800                	addi	s0,sp,16
/home/nicoladgg/wsFreedomStudio/sifive_hifive1_revb_HCSR04/bsp/build/debug/./metal/machine.h:1375
2001476e:	200117b7          	lui	a5,0x20011
20014772:	fe478793          	addi	a5,a5,-28 # 20010fe4 <__metal_driver_vtable_sifive_fe310_g000_prci>
/home/nicoladgg/wsFreedomStudio/sifive_hifive1_revb_HCSR04/bsp/build/debug/./metal/machine.h:1376
20014776:	853e                	mv	a0,a5
20014778:	4432                	lw	s0,12(sp)
2001477a:	0141                	addi	sp,sp,16
2001477c:	8082                	ret

2001477e <__metal_driver_sifive_fe310_g000_hfrosc_get_rate_hz>:
__metal_driver_sifive_fe310_g000_hfrosc_get_rate_hz():
/home/nicoladgg/wsFreedomStudio/sifive_hifive1_revb_HCSR04/freedom-metal/src/drivers/sifive_fe310-g000_hfrosc.c:17
2001477e:	7139                	addi	sp,sp,-64
20014780:	de06                	sw	ra,60(sp)
20014782:	dc22                	sw	s0,56(sp)
20014784:	0080                	addi	s0,sp,64
20014786:	fca42623          	sw	a0,-52(s0)
/home/nicoladgg/wsFreedomStudio/sifive_hifive1_revb_HCSR04/freedom-metal/src/drivers/sifive_fe310-g000_hfrosc.c:19
2001478a:	fcc42503          	lw	a0,-52(s0)
2001478e:	3f59                	jal	20014724 <__metal_driver_sifive_fe310_g000_hfrosc_ref>
20014790:	fea42623          	sw	a0,-20(s0)
/home/nicoladgg/wsFreedomStudio/sifive_hifive1_revb_HCSR04/freedom-metal/src/drivers/sifive_fe310-g000_hfrosc.c:21
20014794:	fcc42503          	lw	a0,-52(s0)
20014798:	3f75                	jal	20014754 <__metal_driver_sifive_fe310_g000_hfrosc_config_offset>
2001479a:	fea42423          	sw	a0,-24(s0)
/home/nicoladgg/wsFreedomStudio/sifive_hifive1_revb_HCSR04/freedom-metal/src/drivers/sifive_fe310-g000_hfrosc.c:23
2001479e:	fcc42503          	lw	a0,-52(s0)
200147a2:	3f71                	jal	2001473e <__metal_driver_sifive_fe310_g000_hfrosc_config_base>
200147a4:	fea42223          	sw	a0,-28(s0)
/home/nicoladgg/wsFreedomStudio/sifive_hifive1_revb_HCSR04/freedom-metal/src/drivers/sifive_fe310-g000_hfrosc.c:25
200147a8:	37c1                	jal	20014768 <__metal_driver_sifive_fe310_g000_prci_vtable>
200147aa:	fea42023          	sw	a0,-32(s0)
/home/nicoladgg/wsFreedomStudio/sifive_hifive1_revb_HCSR04/freedom-metal/src/drivers/sifive_fe310-g000_hfrosc.c:26
200147ae:	fe042783          	lw	a5,-32(s0)
200147b2:	439c                	lw	a5,0(a5)
200147b4:	fe842583          	lw	a1,-24(s0)
200147b8:	fe442503          	lw	a0,-28(s0)
200147bc:	9782                	jalr	a5
200147be:	fca42e23          	sw	a0,-36(s0)
/home/nicoladgg/wsFreedomStudio/sifive_hifive1_revb_HCSR04/freedom-metal/src/drivers/sifive_fe310-g000_hfrosc.c:28
200147c2:	fdc42703          	lw	a4,-36(s0)
200147c6:	400007b7          	lui	a5,0x40000
200147ca:	8ff9                	and	a5,a5,a4
200147cc:	e399                	bnez	a5,200147d2 <__metal_driver_sifive_fe310_g000_hfrosc_get_rate_hz+0x54>
/home/nicoladgg/wsFreedomStudio/sifive_hifive1_revb_HCSR04/freedom-metal/src/drivers/sifive_fe310-g000_hfrosc.c:29
200147ce:	57fd                	li	a5,-1
200147d0:	a025                	j	200147f8 <__metal_driver_sifive_fe310_g000_hfrosc_get_rate_hz+0x7a>
/home/nicoladgg/wsFreedomStudio/sifive_hifive1_revb_HCSR04/freedom-metal/src/drivers/sifive_fe310-g000_hfrosc.c:30
200147d2:	fdc42783          	lw	a5,-36(s0)
200147d6:	0007c463          	bltz	a5,200147de <__metal_driver_sifive_fe310_g000_hfrosc_get_rate_hz+0x60>
/home/nicoladgg/wsFreedomStudio/sifive_hifive1_revb_HCSR04/freedom-metal/src/drivers/sifive_fe310-g000_hfrosc.c:31
200147da:	57fd                	li	a5,-1
200147dc:	a831                	j	200147f8 <__metal_driver_sifive_fe310_g000_hfrosc_get_rate_hz+0x7a>
/home/nicoladgg/wsFreedomStudio/sifive_hifive1_revb_HCSR04/freedom-metal/src/drivers/sifive_fe310-g000_hfrosc.c:32
200147de:	fec42503          	lw	a0,-20(s0)
200147e2:	2bd010ef          	jal	ra,2001629e <metal_clock_get_rate_hz>
200147e6:	87aa                	mv	a5,a0
200147e8:	873e                	mv	a4,a5
200147ea:	fdc42783          	lw	a5,-36(s0)
200147ee:	03f7f793          	andi	a5,a5,63
200147f2:	0785                	addi	a5,a5,1
200147f4:	02f757b3          	divu	a5,a4,a5
/home/nicoladgg/wsFreedomStudio/sifive_hifive1_revb_HCSR04/freedom-metal/src/drivers/sifive_fe310-g000_hfrosc.c:33
200147f8:	853e                	mv	a0,a5
200147fa:	50f2                	lw	ra,60(sp)
200147fc:	5462                	lw	s0,56(sp)
200147fe:	6121                	addi	sp,sp,64
20014800:	8082                	ret

20014802 <__metal_driver_sifive_fe310_g000_hfrosc_set_rate_hz>:
__metal_driver_sifive_fe310_g000_hfrosc_set_rate_hz():
/home/nicoladgg/wsFreedomStudio/sifive_hifive1_revb_HCSR04/freedom-metal/src/drivers/sifive_fe310-g000_hfrosc.c:36
20014802:	1101                	addi	sp,sp,-32
20014804:	ce06                	sw	ra,28(sp)
20014806:	cc22                	sw	s0,24(sp)
20014808:	1000                	addi	s0,sp,32
2001480a:	fea42623          	sw	a0,-20(s0)
2001480e:	feb42423          	sw	a1,-24(s0)
/home/nicoladgg/wsFreedomStudio/sifive_hifive1_revb_HCSR04/freedom-metal/src/drivers/sifive_fe310-g000_hfrosc.c:37
20014812:	fec42503          	lw	a0,-20(s0)
20014816:	37a5                	jal	2001477e <__metal_driver_sifive_fe310_g000_hfrosc_get_rate_hz>
20014818:	87aa                	mv	a5,a0
/home/nicoladgg/wsFreedomStudio/sifive_hifive1_revb_HCSR04/freedom-metal/src/drivers/sifive_fe310-g000_hfrosc.c:38
2001481a:	853e                	mv	a0,a5
2001481c:	40f2                	lw	ra,28(sp)
2001481e:	4462                	lw	s0,24(sp)
20014820:	6105                	addi	sp,sp,32
20014822:	8082                	ret

20014824 <__metal_driver_sifive_fe310_g000_hfxosc_ref>:
__metal_driver_sifive_fe310_g000_hfxosc_ref():
/home/nicoladgg/wsFreedomStudio/sifive_hifive1_revb_HCSR04/bsp/build/debug/./metal/machine.h:1265
20014824:	1101                	addi	sp,sp,-32
20014826:	ce22                	sw	s0,28(sp)
20014828:	1000                	addi	s0,sp,32
2001482a:	fea42623          	sw	a0,-20(s0)
/home/nicoladgg/wsFreedomStudio/sifive_hifive1_revb_HCSR04/bsp/build/debug/./metal/machine.h:1266
2001482e:	800007b7          	lui	a5,0x80000
20014832:	06078793          	addi	a5,a5,96 # 80000060 <metal_segment_heap_target_end+0xffffe8e0>
/home/nicoladgg/wsFreedomStudio/sifive_hifive1_revb_HCSR04/bsp/build/debug/./metal/machine.h:1267
20014836:	853e                	mv	a0,a5
20014838:	4472                	lw	s0,28(sp)
2001483a:	6105                	addi	sp,sp,32
2001483c:	8082                	ret

2001483e <__metal_driver_sifive_fe310_g000_hfxosc_config_base>:
__metal_driver_sifive_fe310_g000_hfxosc_config_base():
/home/nicoladgg/wsFreedomStudio/sifive_hifive1_revb_HCSR04/bsp/build/debug/./metal/machine.h:1270
2001483e:	1101                	addi	sp,sp,-32
20014840:	ce22                	sw	s0,28(sp)
20014842:	1000                	addi	s0,sp,32
20014844:	fea42623          	sw	a0,-20(s0)
/home/nicoladgg/wsFreedomStudio/sifive_hifive1_revb_HCSR04/bsp/build/debug/./metal/machine.h:1271
20014848:	81c18793          	addi	a5,gp,-2020 # 80000abc <__metal_dt_prci_10008000>
/home/nicoladgg/wsFreedomStudio/sifive_hifive1_revb_HCSR04/bsp/build/debug/./metal/machine.h:1272
2001484c:	853e                	mv	a0,a5
2001484e:	4472                	lw	s0,28(sp)
20014850:	6105                	addi	sp,sp,32
20014852:	8082                	ret

20014854 <__metal_driver_sifive_fe310_g000_hfxosc_config_offset>:
__metal_driver_sifive_fe310_g000_hfxosc_config_offset():
/home/nicoladgg/wsFreedomStudio/sifive_hifive1_revb_HCSR04/bsp/build/debug/./metal/machine.h:1275
20014854:	1101                	addi	sp,sp,-32
20014856:	ce22                	sw	s0,28(sp)
20014858:	1000                	addi	s0,sp,32
2001485a:	fea42623          	sw	a0,-20(s0)
/home/nicoladgg/wsFreedomStudio/sifive_hifive1_revb_HCSR04/bsp/build/debug/./metal/machine.h:1276
2001485e:	4791                	li	a5,4
/home/nicoladgg/wsFreedomStudio/sifive_hifive1_revb_HCSR04/bsp/build/debug/./metal/machine.h:1277
20014860:	853e                	mv	a0,a5
20014862:	4472                	lw	s0,28(sp)
20014864:	6105                	addi	sp,sp,32
20014866:	8082                	ret

20014868 <__metal_driver_sifive_fe310_g000_prci_vtable>:
__metal_driver_sifive_fe310_g000_prci_vtable():
/home/nicoladgg/wsFreedomStudio/sifive_hifive1_revb_HCSR04/bsp/build/debug/./metal/machine.h:1374
20014868:	1141                	addi	sp,sp,-16
2001486a:	c622                	sw	s0,12(sp)
2001486c:	0800                	addi	s0,sp,16
/home/nicoladgg/wsFreedomStudio/sifive_hifive1_revb_HCSR04/bsp/build/debug/./metal/machine.h:1375
2001486e:	200117b7          	lui	a5,0x20011
20014872:	fe478793          	addi	a5,a5,-28 # 20010fe4 <__metal_driver_vtable_sifive_fe310_g000_prci>
/home/nicoladgg/wsFreedomStudio/sifive_hifive1_revb_HCSR04/bsp/build/debug/./metal/machine.h:1376
20014876:	853e                	mv	a0,a5
20014878:	4432                	lw	s0,12(sp)
2001487a:	0141                	addi	sp,sp,16
2001487c:	8082                	ret

2001487e <__metal_driver_sifive_fe310_g000_hfxosc_get_rate_hz>:
__metal_driver_sifive_fe310_g000_hfxosc_get_rate_hz():
/home/nicoladgg/wsFreedomStudio/sifive_hifive1_revb_HCSR04/freedom-metal/src/drivers/sifive_fe310-g000_hfxosc.c:15
2001487e:	7139                	addi	sp,sp,-64
20014880:	de06                	sw	ra,60(sp)
20014882:	dc22                	sw	s0,56(sp)
20014884:	0080                	addi	s0,sp,64
20014886:	fca42623          	sw	a0,-52(s0)
/home/nicoladgg/wsFreedomStudio/sifive_hifive1_revb_HCSR04/freedom-metal/src/drivers/sifive_fe310-g000_hfxosc.c:17
2001488a:	fcc42503          	lw	a0,-52(s0)
2001488e:	3f59                	jal	20014824 <__metal_driver_sifive_fe310_g000_hfxosc_ref>
20014890:	fea42623          	sw	a0,-20(s0)
/home/nicoladgg/wsFreedomStudio/sifive_hifive1_revb_HCSR04/freedom-metal/src/drivers/sifive_fe310-g000_hfxosc.c:19
20014894:	fcc42503          	lw	a0,-52(s0)
20014898:	3f75                	jal	20014854 <__metal_driver_sifive_fe310_g000_hfxosc_config_offset>
2001489a:	fea42423          	sw	a0,-24(s0)
/home/nicoladgg/wsFreedomStudio/sifive_hifive1_revb_HCSR04/freedom-metal/src/drivers/sifive_fe310-g000_hfxosc.c:21
2001489e:	fcc42503          	lw	a0,-52(s0)
200148a2:	3f71                	jal	2001483e <__metal_driver_sifive_fe310_g000_hfxosc_config_base>
200148a4:	fea42223          	sw	a0,-28(s0)
/home/nicoladgg/wsFreedomStudio/sifive_hifive1_revb_HCSR04/freedom-metal/src/drivers/sifive_fe310-g000_hfxosc.c:23
200148a8:	37c1                	jal	20014868 <__metal_driver_sifive_fe310_g000_prci_vtable>
200148aa:	fea42023          	sw	a0,-32(s0)
/home/nicoladgg/wsFreedomStudio/sifive_hifive1_revb_HCSR04/freedom-metal/src/drivers/sifive_fe310-g000_hfxosc.c:24
200148ae:	fe042783          	lw	a5,-32(s0)
200148b2:	439c                	lw	a5,0(a5)
200148b4:	fe842583          	lw	a1,-24(s0)
200148b8:	fe442503          	lw	a0,-28(s0)
200148bc:	9782                	jalr	a5
200148be:	fca42e23          	sw	a0,-36(s0)
/home/nicoladgg/wsFreedomStudio/sifive_hifive1_revb_HCSR04/freedom-metal/src/drivers/sifive_fe310-g000_hfxosc.c:26
200148c2:	fdc42703          	lw	a4,-36(s0)
200148c6:	400007b7          	lui	a5,0x40000
200148ca:	8ff9                	and	a5,a5,a4
200148cc:	e399                	bnez	a5,200148d2 <__metal_driver_sifive_fe310_g000_hfxosc_get_rate_hz+0x54>
/home/nicoladgg/wsFreedomStudio/sifive_hifive1_revb_HCSR04/freedom-metal/src/drivers/sifive_fe310-g000_hfxosc.c:27
200148ce:	57fd                	li	a5,-1
200148d0:	a821                	j	200148e8 <__metal_driver_sifive_fe310_g000_hfxosc_get_rate_hz+0x6a>
/home/nicoladgg/wsFreedomStudio/sifive_hifive1_revb_HCSR04/freedom-metal/src/drivers/sifive_fe310-g000_hfxosc.c:28
200148d2:	fdc42783          	lw	a5,-36(s0)
200148d6:	0007c463          	bltz	a5,200148de <__metal_driver_sifive_fe310_g000_hfxosc_get_rate_hz+0x60>
/home/nicoladgg/wsFreedomStudio/sifive_hifive1_revb_HCSR04/freedom-metal/src/drivers/sifive_fe310-g000_hfxosc.c:29
200148da:	57fd                	li	a5,-1
200148dc:	a031                	j	200148e8 <__metal_driver_sifive_fe310_g000_hfxosc_get_rate_hz+0x6a>
/home/nicoladgg/wsFreedomStudio/sifive_hifive1_revb_HCSR04/freedom-metal/src/drivers/sifive_fe310-g000_hfxosc.c:30
200148de:	fec42503          	lw	a0,-20(s0)
200148e2:	1bd010ef          	jal	ra,2001629e <metal_clock_get_rate_hz>
200148e6:	87aa                	mv	a5,a0
/home/nicoladgg/wsFreedomStudio/sifive_hifive1_revb_HCSR04/freedom-metal/src/drivers/sifive_fe310-g000_hfxosc.c:31
200148e8:	853e                	mv	a0,a5
200148ea:	50f2                	lw	ra,60(sp)
200148ec:	5462                	lw	s0,56(sp)
200148ee:	6121                	addi	sp,sp,64
200148f0:	8082                	ret

200148f2 <__metal_driver_sifive_fe310_g000_hfxosc_set_rate_hz>:
__metal_driver_sifive_fe310_g000_hfxosc_set_rate_hz():
/home/nicoladgg/wsFreedomStudio/sifive_hifive1_revb_HCSR04/freedom-metal/src/drivers/sifive_fe310-g000_hfxosc.c:34
200148f2:	1101                	addi	sp,sp,-32
200148f4:	ce06                	sw	ra,28(sp)
200148f6:	cc22                	sw	s0,24(sp)
200148f8:	1000                	addi	s0,sp,32
200148fa:	fea42623          	sw	a0,-20(s0)
200148fe:	feb42423          	sw	a1,-24(s0)
/home/nicoladgg/wsFreedomStudio/sifive_hifive1_revb_HCSR04/freedom-metal/src/drivers/sifive_fe310-g000_hfxosc.c:35
20014902:	fec42503          	lw	a0,-20(s0)
20014906:	3fa5                	jal	2001487e <__metal_driver_sifive_fe310_g000_hfxosc_get_rate_hz>
20014908:	87aa                	mv	a5,a0
/home/nicoladgg/wsFreedomStudio/sifive_hifive1_revb_HCSR04/freedom-metal/src/drivers/sifive_fe310-g000_hfxosc.c:36
2001490a:	853e                	mv	a0,a5
2001490c:	40f2                	lw	ra,28(sp)
2001490e:	4462                	lw	s0,24(sp)
20014910:	6105                	addi	sp,sp,32
20014912:	8082                	ret

20014914 <__metal_driver_sifive_fe310_g000_pll_pllsel0>:
__metal_driver_sifive_fe310_g000_pll_pllsel0():
/home/nicoladgg/wsFreedomStudio/sifive_hifive1_revb_HCSR04/bsp/build/debug/./metal/machine.h:1326
20014914:	1101                	addi	sp,sp,-32
20014916:	ce22                	sw	s0,28(sp)
20014918:	1000                	addi	s0,sp,32
2001491a:	fea42623          	sw	a0,-20(s0)
/home/nicoladgg/wsFreedomStudio/sifive_hifive1_revb_HCSR04/bsp/build/debug/./metal/machine.h:1327
2001491e:	800017b7          	lui	a5,0x80001
20014922:	a7878793          	addi	a5,a5,-1416 # 80000a78 <metal_segment_heap_target_end+0xfffff2f8>
/home/nicoladgg/wsFreedomStudio/sifive_hifive1_revb_HCSR04/bsp/build/debug/./metal/machine.h:1328
20014926:	853e                	mv	a0,a5
20014928:	4472                	lw	s0,28(sp)
2001492a:	6105                	addi	sp,sp,32
2001492c:	8082                	ret

2001492e <__metal_driver_sifive_fe310_g000_pll_pllref>:
__metal_driver_sifive_fe310_g000_pll_pllref():
/home/nicoladgg/wsFreedomStudio/sifive_hifive1_revb_HCSR04/bsp/build/debug/./metal/machine.h:1331
2001492e:	1101                	addi	sp,sp,-32
20014930:	ce22                	sw	s0,28(sp)
20014932:	1000                	addi	s0,sp,32
20014934:	fea42623          	sw	a0,-20(s0)
/home/nicoladgg/wsFreedomStudio/sifive_hifive1_revb_HCSR04/bsp/build/debug/./metal/machine.h:1332
20014938:	800017b7          	lui	a5,0x80001
2001493c:	a8478793          	addi	a5,a5,-1404 # 80000a84 <metal_segment_heap_target_end+0xfffff304>
/home/nicoladgg/wsFreedomStudio/sifive_hifive1_revb_HCSR04/bsp/build/debug/./metal/machine.h:1333
20014940:	853e                	mv	a0,a5
20014942:	4472                	lw	s0,28(sp)
20014944:	6105                	addi	sp,sp,32
20014946:	8082                	ret

20014948 <__metal_driver_sifive_fe310_g000_pll_divider_base>:
__metal_driver_sifive_fe310_g000_pll_divider_base():
/home/nicoladgg/wsFreedomStudio/sifive_hifive1_revb_HCSR04/bsp/build/debug/./metal/machine.h:1336
20014948:	1101                	addi	sp,sp,-32
2001494a:	ce22                	sw	s0,28(sp)
2001494c:	1000                	addi	s0,sp,32
2001494e:	fea42623          	sw	a0,-20(s0)
/home/nicoladgg/wsFreedomStudio/sifive_hifive1_revb_HCSR04/bsp/build/debug/./metal/machine.h:1337
20014952:	81c18793          	addi	a5,gp,-2020 # 80000abc <__metal_dt_prci_10008000>
/home/nicoladgg/wsFreedomStudio/sifive_hifive1_revb_HCSR04/bsp/build/debug/./metal/machine.h:1338
20014956:	853e                	mv	a0,a5
20014958:	4472                	lw	s0,28(sp)
2001495a:	6105                	addi	sp,sp,32
2001495c:	8082                	ret

2001495e <__metal_driver_sifive_fe310_g000_pll_divider_offset>:
__metal_driver_sifive_fe310_g000_pll_divider_offset():
/home/nicoladgg/wsFreedomStudio/sifive_hifive1_revb_HCSR04/bsp/build/debug/./metal/machine.h:1341
2001495e:	1101                	addi	sp,sp,-32
20014960:	ce22                	sw	s0,28(sp)
20014962:	1000                	addi	s0,sp,32
20014964:	fea42623          	sw	a0,-20(s0)
/home/nicoladgg/wsFreedomStudio/sifive_hifive1_revb_HCSR04/bsp/build/debug/./metal/machine.h:1342
20014968:	47b1                	li	a5,12
/home/nicoladgg/wsFreedomStudio/sifive_hifive1_revb_HCSR04/bsp/build/debug/./metal/machine.h:1343
2001496a:	853e                	mv	a0,a5
2001496c:	4472                	lw	s0,28(sp)
2001496e:	6105                	addi	sp,sp,32
20014970:	8082                	ret

20014972 <__metal_driver_sifive_fe310_g000_pll_config_base>:
__metal_driver_sifive_fe310_g000_pll_config_base():
/home/nicoladgg/wsFreedomStudio/sifive_hifive1_revb_HCSR04/bsp/build/debug/./metal/machine.h:1346
20014972:	1141                	addi	sp,sp,-16
20014974:	c622                	sw	s0,12(sp)
20014976:	0800                	addi	s0,sp,16
/home/nicoladgg/wsFreedomStudio/sifive_hifive1_revb_HCSR04/bsp/build/debug/./metal/machine.h:1347
20014978:	81c18793          	addi	a5,gp,-2020 # 80000abc <__metal_dt_prci_10008000>
/home/nicoladgg/wsFreedomStudio/sifive_hifive1_revb_HCSR04/bsp/build/debug/./metal/machine.h:1348
2001497c:	853e                	mv	a0,a5
2001497e:	4432                	lw	s0,12(sp)
20014980:	0141                	addi	sp,sp,16
20014982:	8082                	ret

20014984 <__metal_driver_sifive_fe310_g000_pll_config_offset>:
__metal_driver_sifive_fe310_g000_pll_config_offset():
/home/nicoladgg/wsFreedomStudio/sifive_hifive1_revb_HCSR04/bsp/build/debug/./metal/machine.h:1351
20014984:	1141                	addi	sp,sp,-16
20014986:	c622                	sw	s0,12(sp)
20014988:	0800                	addi	s0,sp,16
/home/nicoladgg/wsFreedomStudio/sifive_hifive1_revb_HCSR04/bsp/build/debug/./metal/machine.h:1352
2001498a:	47a1                	li	a5,8
/home/nicoladgg/wsFreedomStudio/sifive_hifive1_revb_HCSR04/bsp/build/debug/./metal/machine.h:1353
2001498c:	853e                	mv	a0,a5
2001498e:	4432                	lw	s0,12(sp)
20014990:	0141                	addi	sp,sp,16
20014992:	8082                	ret

20014994 <__metal_driver_sifive_fe310_g000_pll_init_rate>:
__metal_driver_sifive_fe310_g000_pll_init_rate():
/home/nicoladgg/wsFreedomStudio/sifive_hifive1_revb_HCSR04/bsp/build/debug/./metal/machine.h:1356
20014994:	1141                	addi	sp,sp,-16
20014996:	c622                	sw	s0,12(sp)
20014998:	0800                	addi	s0,sp,16
/home/nicoladgg/wsFreedomStudio/sifive_hifive1_revb_HCSR04/bsp/build/debug/./metal/machine.h:1357
2001499a:	00f427b7          	lui	a5,0xf42
2001499e:	40078793          	addi	a5,a5,1024 # f42400 <__heap_size+0xf41c00>
/home/nicoladgg/wsFreedomStudio/sifive_hifive1_revb_HCSR04/bsp/build/debug/./metal/machine.h:1358
200149a2:	853e                	mv	a0,a5
200149a4:	4432                	lw	s0,12(sp)
200149a6:	0141                	addi	sp,sp,16
200149a8:	8082                	ret

200149aa <__metal_driver_sifive_fe310_g000_prci_base>:
__metal_driver_sifive_fe310_g000_prci_base():
/home/nicoladgg/wsFreedomStudio/sifive_hifive1_revb_HCSR04/bsp/build/debug/./metal/machine.h:1364
200149aa:	1141                	addi	sp,sp,-16
200149ac:	c622                	sw	s0,12(sp)
200149ae:	0800                	addi	s0,sp,16
/home/nicoladgg/wsFreedomStudio/sifive_hifive1_revb_HCSR04/bsp/build/debug/./metal/machine.h:1365
200149b0:	100087b7          	lui	a5,0x10008
/home/nicoladgg/wsFreedomStudio/sifive_hifive1_revb_HCSR04/bsp/build/debug/./metal/machine.h:1366
200149b4:	853e                	mv	a0,a5
200149b6:	4432                	lw	s0,12(sp)
200149b8:	0141                	addi	sp,sp,16
200149ba:	8082                	ret

200149bc <__metal_driver_sifive_fe310_g000_prci_vtable>:
__metal_driver_sifive_fe310_g000_prci_vtable():
/home/nicoladgg/wsFreedomStudio/sifive_hifive1_revb_HCSR04/bsp/build/debug/./metal/machine.h:1374
200149bc:	1141                	addi	sp,sp,-16
200149be:	c622                	sw	s0,12(sp)
200149c0:	0800                	addi	s0,sp,16
/home/nicoladgg/wsFreedomStudio/sifive_hifive1_revb_HCSR04/bsp/build/debug/./metal/machine.h:1375
200149c2:	200117b7          	lui	a5,0x20011
200149c6:	fe478793          	addi	a5,a5,-28 # 20010fe4 <__metal_driver_vtable_sifive_fe310_g000_prci>
/home/nicoladgg/wsFreedomStudio/sifive_hifive1_revb_HCSR04/bsp/build/debug/./metal/machine.h:1376
200149ca:	853e                	mv	a0,a5
200149cc:	4432                	lw	s0,12(sp)
200149ce:	0141                	addi	sp,sp,16
200149d0:	8082                	ret

200149d2 <get_pll_config_freq>:
get_pll_config_freq():
/home/nicoladgg/wsFreedomStudio/sifive_hifive1_revb_HCSR04/freedom-metal/src/drivers/sifive_fe310-g000_pll.c:141
200149d2:	1101                	addi	sp,sp,-32
200149d4:	ce22                	sw	s0,28(sp)
200149d6:	1000                	addi	s0,sp,32
200149d8:	fea42623          	sw	a0,-20(s0)
200149dc:	feb42423          	sw	a1,-24(s0)
/home/nicoladgg/wsFreedomStudio/sifive_hifive1_revb_HCSR04/freedom-metal/src/drivers/sifive_fe310-g000_pll.c:142
200149e0:	fe842783          	lw	a5,-24(s0)
200149e4:	479c                	lw	a5,8(a5)
200149e6:	fec42703          	lw	a4,-20(s0)
200149ea:	00f76963          	bltu	a4,a5,200149fc <get_pll_config_freq+0x2a>
/home/nicoladgg/wsFreedomStudio/sifive_hifive1_revb_HCSR04/freedom-metal/src/drivers/sifive_fe310-g000_pll.c:143 (discriminator 1)
200149ee:	fe842783          	lw	a5,-24(s0)
200149f2:	47dc                	lw	a5,12(a5)
/home/nicoladgg/wsFreedomStudio/sifive_hifive1_revb_HCSR04/freedom-metal/src/drivers/sifive_fe310-g000_pll.c:142 (discriminator 1)
200149f4:	fec42703          	lw	a4,-20(s0)
200149f8:	00e7f463          	bgeu	a5,a4,20014a00 <get_pll_config_freq+0x2e>
/home/nicoladgg/wsFreedomStudio/sifive_hifive1_revb_HCSR04/freedom-metal/src/drivers/sifive_fe310-g000_pll.c:144
200149fc:	57fd                	li	a5,-1
200149fe:	a829                	j	20014a18 <get_pll_config_freq+0x46>
/home/nicoladgg/wsFreedomStudio/sifive_hifive1_revb_HCSR04/freedom-metal/src/drivers/sifive_fe310-g000_pll.c:146
20014a00:	fe842783          	lw	a5,-24(s0)
20014a04:	4398                	lw	a4,0(a5)
20014a06:	fec42783          	lw	a5,-20(s0)
20014a0a:	02f70733          	mul	a4,a4,a5
20014a0e:	fe842783          	lw	a5,-24(s0)
20014a12:	43dc                	lw	a5,4(a5)
20014a14:	02f757b3          	divu	a5,a4,a5
/home/nicoladgg/wsFreedomStudio/sifive_hifive1_revb_HCSR04/freedom-metal/src/drivers/sifive_fe310-g000_pll.c:147
20014a18:	853e                	mv	a0,a5
20014a1a:	4472                	lw	s0,28(sp)
20014a1c:	6105                	addi	sp,sp,32
20014a1e:	8082                	ret

20014a20 <__metal_driver_sifive_fe310_g000_pll_init>:
__metal_driver_sifive_fe310_g000_pll_init():
/home/nicoladgg/wsFreedomStudio/sifive_hifive1_revb_HCSR04/freedom-metal/src/drivers/sifive_fe310-g000_pll.c:162
20014a20:	7139                	addi	sp,sp,-64
20014a22:	de06                	sw	ra,60(sp)
20014a24:	dc22                	sw	s0,56(sp)
20014a26:	0080                	addi	s0,sp,64
20014a28:	fca42623          	sw	a0,-52(s0)
/home/nicoladgg/wsFreedomStudio/sifive_hifive1_revb_HCSR04/freedom-metal/src/drivers/sifive_fe310-g000_pll.c:164
20014a2c:	fcc42783          	lw	a5,-52(s0)
20014a30:	853e                	mv	a0,a5
20014a32:	3df5                	jal	2001492e <__metal_driver_sifive_fe310_g000_pll_pllref>
20014a34:	fea42623          	sw	a0,-20(s0)
/home/nicoladgg/wsFreedomStudio/sifive_hifive1_revb_HCSR04/freedom-metal/src/drivers/sifive_fe310-g000_pll.c:165
20014a38:	3fb1                	jal	20014994 <__metal_driver_sifive_fe310_g000_pll_init_rate>
20014a3a:	fea42423          	sw	a0,-24(s0)
/home/nicoladgg/wsFreedomStudio/sifive_hifive1_revb_HCSR04/freedom-metal/src/drivers/sifive_fe310-g000_pll.c:166
20014a3e:	3799                	jal	20014984 <__metal_driver_sifive_fe310_g000_pll_config_offset>
20014a40:	fea42223          	sw	a0,-28(s0)
/home/nicoladgg/wsFreedomStudio/sifive_hifive1_revb_HCSR04/freedom-metal/src/drivers/sifive_fe310-g000_pll.c:167
20014a44:	379d                	jal	200149aa <__metal_driver_sifive_fe310_g000_prci_base>
20014a46:	fea42023          	sw	a0,-32(s0)
/home/nicoladgg/wsFreedomStudio/sifive_hifive1_revb_HCSR04/freedom-metal/src/drivers/sifive_fe310-g000_pll.c:169
20014a4a:	fe042703          	lw	a4,-32(s0)
20014a4e:	fe442783          	lw	a5,-28(s0)
20014a52:	97ba                	add	a5,a5,a4
20014a54:	fcf42e23          	sw	a5,-36(s0)
/home/nicoladgg/wsFreedomStudio/sifive_hifive1_revb_HCSR04/freedom-metal/src/drivers/sifive_fe310-g000_pll.c:173
20014a58:	fcc42783          	lw	a5,-52(s0)
20014a5c:	43dc                	lw	a5,4(a5)
20014a5e:	853e                	mv	a0,a5
20014a60:	7a8010ef          	jal	ra,20016208 <_metal_clock_call_all_callbacks>
/home/nicoladgg/wsFreedomStudio/sifive_hifive1_revb_HCSR04/freedom-metal/src/drivers/sifive_fe310-g000_pll.c:177
20014a64:	fdc42783          	lw	a5,-36(s0)
20014a68:	4398                	lw	a4,0(a5)
20014a6a:	67c1                	lui	a5,0x10
20014a6c:	8ff9                	and	a5,a5,a4
20014a6e:	cb91                	beqz	a5,20014a82 <__metal_driver_sifive_fe310_g000_pll_init+0x62>
/home/nicoladgg/wsFreedomStudio/sifive_hifive1_revb_HCSR04/freedom-metal/src/drivers/sifive_fe310-g000_pll.c:178
20014a70:	fdc42783          	lw	a5,-36(s0)
20014a74:	4398                	lw	a4,0(a5)
20014a76:	77c1                	lui	a5,0xffff0
20014a78:	17fd                	addi	a5,a5,-1
20014a7a:	8f7d                	and	a4,a4,a5
20014a7c:	fdc42783          	lw	a5,-36(s0)
20014a80:	c398                	sw	a4,0(a5)
/home/nicoladgg/wsFreedomStudio/sifive_hifive1_revb_HCSR04/freedom-metal/src/drivers/sifive_fe310-g000_pll.c:181
20014a82:	fec42783          	lw	a5,-20(s0)
20014a86:	cb91                	beqz	a5,20014a9a <__metal_driver_sifive_fe310_g000_pll_init+0x7a>
/home/nicoladgg/wsFreedomStudio/sifive_hifive1_revb_HCSR04/freedom-metal/src/drivers/sifive_fe310-g000_pll.c:182
20014a88:	fdc42783          	lw	a5,-36(s0)
20014a8c:	4398                	lw	a4,0(a5)
20014a8e:	000207b7          	lui	a5,0x20
20014a92:	8f5d                	or	a4,a4,a5
20014a94:	fdc42783          	lw	a5,-36(s0)
20014a98:	c398                	sw	a4,0(a5)
/home/nicoladgg/wsFreedomStudio/sifive_hifive1_revb_HCSR04/freedom-metal/src/drivers/sifive_fe310-g000_pll.c:187
20014a9a:	fcc42783          	lw	a5,-52(s0)
20014a9e:	439c                	lw	a5,0(a5)
20014aa0:	43d8                	lw	a4,4(a5)
20014aa2:	fcc42783          	lw	a5,-52(s0)
20014aa6:	fe842583          	lw	a1,-24(s0)
20014aaa:	853e                	mv	a0,a5
20014aac:	9702                	jalr	a4
/home/nicoladgg/wsFreedomStudio/sifive_hifive1_revb_HCSR04/freedom-metal/src/drivers/sifive_fe310-g000_pll.c:190
20014aae:	fcc42783          	lw	a5,-52(s0)
20014ab2:	479c                	lw	a5,8(a5)
20014ab4:	853e                	mv	a0,a5
20014ab6:	752010ef          	jal	ra,20016208 <_metal_clock_call_all_callbacks>
/home/nicoladgg/wsFreedomStudio/sifive_hifive1_revb_HCSR04/freedom-metal/src/drivers/sifive_fe310-g000_pll.c:191
20014aba:	0001                	nop
20014abc:	50f2                	lw	ra,60(sp)
20014abe:	5462                	lw	s0,56(sp)
20014ac0:	6121                	addi	sp,sp,64
20014ac2:	8082                	ret

20014ac4 <__metal_driver_sifive_fe310_g000_pll_get_rate_hz>:
__metal_driver_sifive_fe310_g000_pll_get_rate_hz():
/home/nicoladgg/wsFreedomStudio/sifive_hifive1_revb_HCSR04/freedom-metal/src/drivers/sifive_fe310-g000_pll.c:194
20014ac4:	711d                	addi	sp,sp,-96
20014ac6:	ce86                	sw	ra,92(sp)
20014ac8:	cca2                	sw	s0,88(sp)
20014aca:	1080                	addi	s0,sp,96
20014acc:	faa42623          	sw	a0,-84(s0)
/home/nicoladgg/wsFreedomStudio/sifive_hifive1_revb_HCSR04/freedom-metal/src/drivers/sifive_fe310-g000_pll.c:196
20014ad0:	fac42503          	lw	a0,-84(s0)
20014ad4:	3da9                	jal	2001492e <__metal_driver_sifive_fe310_g000_pll_pllref>
20014ad6:	fea42623          	sw	a0,-20(s0)
/home/nicoladgg/wsFreedomStudio/sifive_hifive1_revb_HCSR04/freedom-metal/src/drivers/sifive_fe310-g000_pll.c:198
20014ada:	fac42503          	lw	a0,-84(s0)
20014ade:	3d1d                	jal	20014914 <__metal_driver_sifive_fe310_g000_pll_pllsel0>
20014ae0:	fea42423          	sw	a0,-24(s0)
/home/nicoladgg/wsFreedomStudio/sifive_hifive1_revb_HCSR04/freedom-metal/src/drivers/sifive_fe310-g000_pll.c:200
20014ae4:	fac42503          	lw	a0,-84(s0)
20014ae8:	3d71                	jal	20014984 <__metal_driver_sifive_fe310_g000_pll_config_offset>
20014aea:	fea42223          	sw	a0,-28(s0)
/home/nicoladgg/wsFreedomStudio/sifive_hifive1_revb_HCSR04/freedom-metal/src/drivers/sifive_fe310-g000_pll.c:202
20014aee:	fac42503          	lw	a0,-84(s0)
20014af2:	3541                	jal	20014972 <__metal_driver_sifive_fe310_g000_pll_config_base>
20014af4:	fea42023          	sw	a0,-32(s0)
/home/nicoladgg/wsFreedomStudio/sifive_hifive1_revb_HCSR04/freedom-metal/src/drivers/sifive_fe310-g000_pll.c:204
20014af8:	fac42503          	lw	a0,-84(s0)
20014afc:	358d                	jal	2001495e <__metal_driver_sifive_fe310_g000_pll_divider_offset>
20014afe:	fca42e23          	sw	a0,-36(s0)
/home/nicoladgg/wsFreedomStudio/sifive_hifive1_revb_HCSR04/freedom-metal/src/drivers/sifive_fe310-g000_pll.c:206
20014b02:	fac42503          	lw	a0,-84(s0)
20014b06:	3589                	jal	20014948 <__metal_driver_sifive_fe310_g000_pll_divider_base>
20014b08:	fca42c23          	sw	a0,-40(s0)
/home/nicoladgg/wsFreedomStudio/sifive_hifive1_revb_HCSR04/freedom-metal/src/drivers/sifive_fe310-g000_pll.c:208
20014b0c:	3d45                	jal	200149bc <__metal_driver_sifive_fe310_g000_prci_vtable>
20014b0e:	fca42a23          	sw	a0,-44(s0)
/home/nicoladgg/wsFreedomStudio/sifive_hifive1_revb_HCSR04/freedom-metal/src/drivers/sifive_fe310-g000_pll.c:210
20014b12:	fd442783          	lw	a5,-44(s0)
20014b16:	439c                	lw	a5,0(a5)
20014b18:	fe442583          	lw	a1,-28(s0)
20014b1c:	fe042503          	lw	a0,-32(s0)
20014b20:	9782                	jalr	a5
20014b22:	fca42823          	sw	a0,-48(s0)
/home/nicoladgg/wsFreedomStudio/sifive_hifive1_revb_HCSR04/freedom-metal/src/drivers/sifive_fe310-g000_pll.c:211
20014b26:	fd442783          	lw	a5,-44(s0)
20014b2a:	439c                	lw	a5,0(a5)
20014b2c:	fdc42583          	lw	a1,-36(s0)
20014b30:	fd842503          	lw	a0,-40(s0)
20014b34:	9782                	jalr	a5
20014b36:	fca42623          	sw	a0,-52(s0)
/home/nicoladgg/wsFreedomStudio/sifive_hifive1_revb_HCSR04/freedom-metal/src/drivers/sifive_fe310-g000_pll.c:215
20014b3a:	fd042703          	lw	a4,-48(s0)
20014b3e:	67c1                	lui	a5,0x10
20014b40:	8f7d                	and	a4,a4,a5
20014b42:	67c1                	lui	a5,0x10
20014b44:	00f77863          	bgeu	a4,a5,20014b54 <__metal_driver_sifive_fe310_g000_pll_get_rate_hz+0x90>
/home/nicoladgg/wsFreedomStudio/sifive_hifive1_revb_HCSR04/freedom-metal/src/drivers/sifive_fe310-g000_pll.c:216
20014b48:	fe842503          	lw	a0,-24(s0)
20014b4c:	752010ef          	jal	ra,2001629e <metal_clock_get_rate_hz>
20014b50:	87aa                	mv	a5,a0
20014b52:	a8e1                	j	20014c2a <__metal_driver_sifive_fe310_g000_pll_get_rate_hz+0x166>
/home/nicoladgg/wsFreedomStudio/sifive_hifive1_revb_HCSR04/freedom-metal/src/drivers/sifive_fe310-g000_pll.c:221
20014b54:	fd042703          	lw	a4,-48(s0)
20014b58:	000207b7          	lui	a5,0x20
20014b5c:	8f7d                	and	a4,a4,a5
/home/nicoladgg/wsFreedomStudio/sifive_hifive1_revb_HCSR04/freedom-metal/src/drivers/sifive_fe310-g000_pll.c:220
20014b5e:	000207b7          	lui	a5,0x20
20014b62:	00f76563          	bltu	a4,a5,20014b6c <__metal_driver_sifive_fe310_g000_pll_get_rate_hz+0xa8>
/home/nicoladgg/wsFreedomStudio/sifive_hifive1_revb_HCSR04/freedom-metal/src/drivers/sifive_fe310-g000_pll.c:220 (discriminator 1)
20014b66:	fec42783          	lw	a5,-20(s0)
20014b6a:	a019                	j	20014b70 <__metal_driver_sifive_fe310_g000_pll_get_rate_hz+0xac>
/home/nicoladgg/wsFreedomStudio/sifive_hifive1_revb_HCSR04/freedom-metal/src/drivers/sifive_fe310-g000_pll.c:220 (discriminator 2)
20014b6c:	fe842783          	lw	a5,-24(s0)
/home/nicoladgg/wsFreedomStudio/sifive_hifive1_revb_HCSR04/freedom-metal/src/drivers/sifive_fe310-g000_pll.c:220 (discriminator 4)
20014b70:	853e                	mv	a0,a5
20014b72:	72c010ef          	jal	ra,2001629e <metal_clock_get_rate_hz>
20014b76:	fca42423          	sw	a0,-56(s0)
/home/nicoladgg/wsFreedomStudio/sifive_hifive1_revb_HCSR04/freedom-metal/src/drivers/sifive_fe310-g000_pll.c:225 (discriminator 4)
20014b7a:	fd042703          	lw	a4,-48(s0)
20014b7e:	000407b7          	lui	a5,0x40
20014b82:	8f7d                	and	a4,a4,a5
20014b84:	000407b7          	lui	a5,0x40
20014b88:	00f76563          	bltu	a4,a5,20014b92 <__metal_driver_sifive_fe310_g000_pll_get_rate_hz+0xce>
/home/nicoladgg/wsFreedomStudio/sifive_hifive1_revb_HCSR04/freedom-metal/src/drivers/sifive_fe310-g000_pll.c:226
20014b8c:	fc842783          	lw	a5,-56(s0)
20014b90:	a869                	j	20014c2a <__metal_driver_sifive_fe310_g000_pll_get_rate_hz+0x166>
/home/nicoladgg/wsFreedomStudio/sifive_hifive1_revb_HCSR04/freedom-metal/src/drivers/sifive_fe310-g000_pll.c:229
20014b92:	fd042783          	lw	a5,-48(s0)
20014b96:	8b9d                	andi	a5,a5,7
20014b98:	0785                	addi	a5,a5,1
20014b9a:	fcf42223          	sw	a5,-60(s0)
/home/nicoladgg/wsFreedomStudio/sifive_hifive1_revb_HCSR04/freedom-metal/src/drivers/sifive_fe310-g000_pll.c:230
20014b9e:	fd042783          	lw	a5,-48(s0)
20014ba2:	3f07f793          	andi	a5,a5,1008
20014ba6:	8391                	srli	a5,a5,0x4
20014ba8:	0785                	addi	a5,a5,1
20014baa:	0786                	slli	a5,a5,0x1
20014bac:	fcf42023          	sw	a5,-64(s0)
/home/nicoladgg/wsFreedomStudio/sifive_hifive1_revb_HCSR04/freedom-metal/src/drivers/sifive_fe310-g000_pll.c:231
20014bb0:	fd042703          	lw	a4,-48(s0)
20014bb4:	6785                	lui	a5,0x1
20014bb6:	c0078793          	addi	a5,a5,-1024 # c00 <__heap_size+0x400>
20014bba:	8f7d                	and	a4,a4,a5
20014bbc:	3ff00793          	li	a5,1023
20014bc0:	00e7e463          	bltu	a5,a4,20014bc8 <__metal_driver_sifive_fe310_g000_pll_get_rate_hz+0x104>
/home/nicoladgg/wsFreedomStudio/sifive_hifive1_revb_HCSR04/freedom-metal/src/drivers/sifive_fe310-g000_pll.c:232
20014bc4:	57fd                	li	a5,-1
20014bc6:	a095                	j	20014c2a <__metal_driver_sifive_fe310_g000_pll_get_rate_hz+0x166>
/home/nicoladgg/wsFreedomStudio/sifive_hifive1_revb_HCSR04/freedom-metal/src/drivers/sifive_fe310-g000_pll.c:233
20014bc8:	fd042703          	lw	a4,-48(s0)
20014bcc:	6785                	lui	a5,0x1
20014bce:	c0078793          	addi	a5,a5,-1024 # c00 <__heap_size+0x400>
20014bd2:	8ff9                	and	a5,a5,a4
20014bd4:	83a9                	srli	a5,a5,0xa
20014bd6:	4705                	li	a4,1
20014bd8:	00f717b3          	sll	a5,a4,a5
20014bdc:	faf42e23          	sw	a5,-68(s0)
/home/nicoladgg/wsFreedomStudio/sifive_hifive1_revb_HCSR04/freedom-metal/src/drivers/sifive_fe310-g000_pll.c:238
20014be0:	fc842703          	lw	a4,-56(s0)
20014be4:	fc442783          	lw	a5,-60(s0)
20014be8:	02f74733          	div	a4,a4,a5
20014bec:	fc042783          	lw	a5,-64(s0)
20014bf0:	02f70733          	mul	a4,a4,a5
20014bf4:	fbc42783          	lw	a5,-68(s0)
20014bf8:	02f747b3          	div	a5,a4,a5
20014bfc:	faf42c23          	sw	a5,-72(s0)
/home/nicoladgg/wsFreedomStudio/sifive_hifive1_revb_HCSR04/freedom-metal/src/drivers/sifive_fe310-g000_pll.c:239
20014c00:	fcc42783          	lw	a5,-52(s0)
20014c04:	1007f713          	andi	a4,a5,256
20014c08:	0ff00793          	li	a5,255
20014c0c:	00e7f563          	bgeu	a5,a4,20014c16 <__metal_driver_sifive_fe310_g000_pll_get_rate_hz+0x152>
/home/nicoladgg/wsFreedomStudio/sifive_hifive1_revb_HCSR04/freedom-metal/src/drivers/sifive_fe310-g000_pll.c:240
20014c10:	fb842783          	lw	a5,-72(s0)
20014c14:	a819                	j	20014c2a <__metal_driver_sifive_fe310_g000_pll_get_rate_hz+0x166>
/home/nicoladgg/wsFreedomStudio/sifive_hifive1_revb_HCSR04/freedom-metal/src/drivers/sifive_fe310-g000_pll.c:242
20014c16:	fb842703          	lw	a4,-72(s0)
20014c1a:	fcc42783          	lw	a5,-52(s0)
20014c1e:	03f7f793          	andi	a5,a5,63
20014c22:	0785                	addi	a5,a5,1
20014c24:	0786                	slli	a5,a5,0x1
20014c26:	02f757b3          	divu	a5,a4,a5
/home/nicoladgg/wsFreedomStudio/sifive_hifive1_revb_HCSR04/freedom-metal/src/drivers/sifive_fe310-g000_pll.c:243
20014c2a:	853e                	mv	a0,a5
20014c2c:	40f6                	lw	ra,92(sp)
20014c2e:	4466                	lw	s0,88(sp)
20014c30:	6125                	addi	sp,sp,96
20014c32:	8082                	ret

20014c34 <find_closest_config>:
find_closest_config():
/home/nicoladgg/wsFreedomStudio/sifive_hifive1_revb_HCSR04/freedom-metal/src/drivers/sifive_fe310-g000_pll.c:253
20014c34:	7139                	addi	sp,sp,-64
20014c36:	de06                	sw	ra,60(sp)
20014c38:	dc22                	sw	s0,56(sp)
20014c3a:	0080                	addi	s0,sp,64
20014c3c:	fca42623          	sw	a0,-52(s0)
20014c40:	fcb42423          	sw	a1,-56(s0)
/home/nicoladgg/wsFreedomStudio/sifive_hifive1_revb_HCSR04/freedom-metal/src/drivers/sifive_fe310-g000_pll.c:254
20014c44:	57fd                	li	a5,-1
20014c46:	fef42623          	sw	a5,-20(s0)
/home/nicoladgg/wsFreedomStudio/sifive_hifive1_revb_HCSR04/freedom-metal/src/drivers/sifive_fe310-g000_pll.c:255
20014c4a:	800007b7          	lui	a5,0x80000
20014c4e:	fff7c793          	not	a5,a5
20014c52:	fef42423          	sw	a5,-24(s0)
/home/nicoladgg/wsFreedomStudio/sifive_hifive1_revb_HCSR04/freedom-metal/src/drivers/sifive_fe310-g000_pll.c:259
20014c56:	04300793          	li	a5,67
20014c5a:	fef42223          	sw	a5,-28(s0)
20014c5e:	a0b5                	j	20014cca <find_closest_config+0x96>
/home/nicoladgg/wsFreedomStudio/sifive_hifive1_revb_HCSR04/freedom-metal/src/drivers/sifive_fe310-g000_pll.c:261
20014c60:	fcc42683          	lw	a3,-52(s0)
20014c64:	fe442783          	lw	a5,-28(s0)
20014c68:	00579713          	slli	a4,a5,0x5
20014c6c:	200107b7          	lui	a5,0x20010
20014c70:	67078793          	addi	a5,a5,1648 # 20010670 <pll_configs>
20014c74:	97ba                	add	a5,a5,a4
20014c76:	85be                	mv	a1,a5
20014c78:	8536                	mv	a0,a3
20014c7a:	d59ff0ef          	jal	ra,200149d2 <get_pll_config_freq>
20014c7e:	fea42023          	sw	a0,-32(s0)
/home/nicoladgg/wsFreedomStudio/sifive_hifive1_revb_HCSR04/freedom-metal/src/drivers/sifive_fe310-g000_pll.c:262
20014c82:	fe042703          	lw	a4,-32(s0)
20014c86:	57fd                	li	a5,-1
20014c88:	02f70c63          	beq	a4,a5,20014cc0 <find_closest_config+0x8c>
/home/nicoladgg/wsFreedomStudio/sifive_hifive1_revb_HCSR04/freedom-metal/src/drivers/sifive_fe310-g000_pll.c:263
20014c8c:	fe042703          	lw	a4,-32(s0)
20014c90:	fc842783          	lw	a5,-56(s0)
20014c94:	8f1d                	sub	a4,a4,a5
20014c96:	41f75793          	srai	a5,a4,0x1f
20014c9a:	8f3d                	xor	a4,a4,a5
20014c9c:	40f707b3          	sub	a5,a4,a5
20014ca0:	fcf42e23          	sw	a5,-36(s0)
/home/nicoladgg/wsFreedomStudio/sifive_hifive1_revb_HCSR04/freedom-metal/src/drivers/sifive_fe310-g000_pll.c:265
20014ca4:	fdc42703          	lw	a4,-36(s0)
20014ca8:	fe842783          	lw	a5,-24(s0)
20014cac:	00f75a63          	bge	a4,a5,20014cc0 <find_closest_config+0x8c>
/home/nicoladgg/wsFreedomStudio/sifive_hifive1_revb_HCSR04/freedom-metal/src/drivers/sifive_fe310-g000_pll.c:266
20014cb0:	fe442783          	lw	a5,-28(s0)
20014cb4:	fef42623          	sw	a5,-20(s0)
/home/nicoladgg/wsFreedomStudio/sifive_hifive1_revb_HCSR04/freedom-metal/src/drivers/sifive_fe310-g000_pll.c:267
20014cb8:	fdc42783          	lw	a5,-36(s0)
20014cbc:	fef42423          	sw	a5,-24(s0)
/home/nicoladgg/wsFreedomStudio/sifive_hifive1_revb_HCSR04/freedom-metal/src/drivers/sifive_fe310-g000_pll.c:260
20014cc0:	fe442783          	lw	a5,-28(s0)
20014cc4:	17fd                	addi	a5,a5,-1
20014cc6:	fef42223          	sw	a5,-28(s0)
/home/nicoladgg/wsFreedomStudio/sifive_hifive1_revb_HCSR04/freedom-metal/src/drivers/sifive_fe310-g000_pll.c:259 (discriminator 1)
20014cca:	fe442783          	lw	a5,-28(s0)
20014cce:	f807d9e3          	bgez	a5,20014c60 <find_closest_config+0x2c>
/home/nicoladgg/wsFreedomStudio/sifive_hifive1_revb_HCSR04/freedom-metal/src/drivers/sifive_fe310-g000_pll.c:272
20014cd2:	fec42783          	lw	a5,-20(s0)
/home/nicoladgg/wsFreedomStudio/sifive_hifive1_revb_HCSR04/freedom-metal/src/drivers/sifive_fe310-g000_pll.c:273
20014cd6:	853e                	mv	a0,a5
20014cd8:	50f2                	lw	ra,60(sp)
20014cda:	5462                	lw	s0,56(sp)
20014cdc:	6121                	addi	sp,sp,64
20014cde:	8082                	ret

20014ce0 <configure_pll>:
configure_pll():
/home/nicoladgg/wsFreedomStudio/sifive_hifive1_revb_HCSR04/freedom-metal/src/drivers/sifive_fe310-g000_pll.c:290
20014ce0:	7179                	addi	sp,sp,-48
20014ce2:	d606                	sw	ra,44(sp)
20014ce4:	d422                	sw	s0,40(sp)
20014ce6:	1800                	addi	s0,sp,48
20014ce8:	fca42e23          	sw	a0,-36(s0)
20014cec:	fcb42c23          	sw	a1,-40(s0)
20014cf0:	fcc42a23          	sw	a2,-44(s0)
/home/nicoladgg/wsFreedomStudio/sifive_hifive1_revb_HCSR04/freedom-metal/src/drivers/sifive_fe310-g000_pll.c:291
20014cf4:	fdc42783          	lw	a5,-36(s0)
20014cf8:	439c                	lw	a5,0(a5)
20014cfa:	ff87f713          	andi	a4,a5,-8
20014cfe:	fdc42783          	lw	a5,-36(s0)
20014d02:	c398                	sw	a4,0(a5)
/home/nicoladgg/wsFreedomStudio/sifive_hifive1_revb_HCSR04/freedom-metal/src/drivers/sifive_fe310-g000_pll.c:292
20014d04:	fdc42783          	lw	a5,-36(s0)
20014d08:	4398                	lw	a4,0(a5)
20014d0a:	fd442783          	lw	a5,-44(s0)
20014d0e:	4b9c                	lw	a5,16(a5)
20014d10:	8b9d                	andi	a5,a5,7
20014d12:	8f5d                	or	a4,a4,a5
20014d14:	fdc42783          	lw	a5,-36(s0)
20014d18:	c398                	sw	a4,0(a5)
/home/nicoladgg/wsFreedomStudio/sifive_hifive1_revb_HCSR04/freedom-metal/src/drivers/sifive_fe310-g000_pll.c:294
20014d1a:	fdc42783          	lw	a5,-36(s0)
20014d1e:	439c                	lw	a5,0(a5)
20014d20:	c0f7f713          	andi	a4,a5,-1009
20014d24:	fdc42783          	lw	a5,-36(s0)
20014d28:	c398                	sw	a4,0(a5)
/home/nicoladgg/wsFreedomStudio/sifive_hifive1_revb_HCSR04/freedom-metal/src/drivers/sifive_fe310-g000_pll.c:295
20014d2a:	fdc42783          	lw	a5,-36(s0)
20014d2e:	4398                	lw	a4,0(a5)
20014d30:	fd442783          	lw	a5,-44(s0)
20014d34:	4bdc                	lw	a5,20(a5)
20014d36:	0792                	slli	a5,a5,0x4
20014d38:	3f07f793          	andi	a5,a5,1008
20014d3c:	8f5d                	or	a4,a4,a5
20014d3e:	fdc42783          	lw	a5,-36(s0)
20014d42:	c398                	sw	a4,0(a5)
/home/nicoladgg/wsFreedomStudio/sifive_hifive1_revb_HCSR04/freedom-metal/src/drivers/sifive_fe310-g000_pll.c:297
20014d44:	fdc42783          	lw	a5,-36(s0)
20014d48:	4398                	lw	a4,0(a5)
20014d4a:	77fd                	lui	a5,0xfffff
20014d4c:	3ff78793          	addi	a5,a5,1023 # fffff3ff <metal_segment_heap_target_end+0x7fffdc7f>
20014d50:	8f7d                	and	a4,a4,a5
20014d52:	fdc42783          	lw	a5,-36(s0)
20014d56:	c398                	sw	a4,0(a5)
/home/nicoladgg/wsFreedomStudio/sifive_hifive1_revb_HCSR04/freedom-metal/src/drivers/sifive_fe310-g000_pll.c:298
20014d58:	fdc42783          	lw	a5,-36(s0)
20014d5c:	4398                	lw	a4,0(a5)
20014d5e:	fd442783          	lw	a5,-44(s0)
20014d62:	4f9c                	lw	a5,24(a5)
20014d64:	00a79693          	slli	a3,a5,0xa
20014d68:	6785                	lui	a5,0x1
20014d6a:	c0078793          	addi	a5,a5,-1024 # c00 <__heap_size+0x400>
20014d6e:	8ff5                	and	a5,a5,a3
20014d70:	8f5d                	or	a4,a4,a5
20014d72:	fdc42783          	lw	a5,-36(s0)
20014d76:	c398                	sw	a4,0(a5)
/home/nicoladgg/wsFreedomStudio/sifive_hifive1_revb_HCSR04/freedom-metal/src/drivers/sifive_fe310-g000_pll.c:300
20014d78:	fd442783          	lw	a5,-44(s0)
20014d7c:	4fdc                	lw	a5,28(a5)
20014d7e:	0207db63          	bgez	a5,20014db4 <configure_pll+0xd4>
/home/nicoladgg/wsFreedomStudio/sifive_hifive1_revb_HCSR04/freedom-metal/src/drivers/sifive_fe310-g000_pll.c:302
20014d82:	fd842783          	lw	a5,-40(s0)
20014d86:	439c                	lw	a5,0(a5)
20014d88:	1007e713          	ori	a4,a5,256
20014d8c:	fd842783          	lw	a5,-40(s0)
20014d90:	c398                	sw	a4,0(a5)
/home/nicoladgg/wsFreedomStudio/sifive_hifive1_revb_HCSR04/freedom-metal/src/drivers/sifive_fe310-g000_pll.c:304
20014d92:	fd842783          	lw	a5,-40(s0)
20014d96:	439c                	lw	a5,0(a5)
20014d98:	fc07f713          	andi	a4,a5,-64
20014d9c:	fd842783          	lw	a5,-40(s0)
20014da0:	c398                	sw	a4,0(a5)
/home/nicoladgg/wsFreedomStudio/sifive_hifive1_revb_HCSR04/freedom-metal/src/drivers/sifive_fe310-g000_pll.c:305
20014da2:	fd842783          	lw	a5,-40(s0)
20014da6:	439c                	lw	a5,0(a5)
20014da8:	0017e713          	ori	a4,a5,1
20014dac:	fd842783          	lw	a5,-40(s0)
20014db0:	c398                	sw	a4,0(a5)
20014db2:	a82d                	j	20014dec <configure_pll+0x10c>
/home/nicoladgg/wsFreedomStudio/sifive_hifive1_revb_HCSR04/freedom-metal/src/drivers/sifive_fe310-g000_pll.c:307
20014db4:	fd842783          	lw	a5,-40(s0)
20014db8:	439c                	lw	a5,0(a5)
20014dba:	eff7f713          	andi	a4,a5,-257
20014dbe:	fd842783          	lw	a5,-40(s0)
20014dc2:	c398                	sw	a4,0(a5)
/home/nicoladgg/wsFreedomStudio/sifive_hifive1_revb_HCSR04/freedom-metal/src/drivers/sifive_fe310-g000_pll.c:309
20014dc4:	fd842783          	lw	a5,-40(s0)
20014dc8:	439c                	lw	a5,0(a5)
20014dca:	fc07f713          	andi	a4,a5,-64
20014dce:	fd842783          	lw	a5,-40(s0)
20014dd2:	c398                	sw	a4,0(a5)
/home/nicoladgg/wsFreedomStudio/sifive_hifive1_revb_HCSR04/freedom-metal/src/drivers/sifive_fe310-g000_pll.c:310
20014dd4:	fd842783          	lw	a5,-40(s0)
20014dd8:	4398                	lw	a4,0(a5)
20014dda:	fd442783          	lw	a5,-44(s0)
20014dde:	4fdc                	lw	a5,28(a5)
20014de0:	03f7f793          	andi	a5,a5,63
20014de4:	8f5d                	or	a4,a4,a5
20014de6:	fd842783          	lw	a5,-40(s0)
20014dea:	c398                	sw	a4,0(a5)
/home/nicoladgg/wsFreedomStudio/sifive_hifive1_revb_HCSR04/freedom-metal/src/drivers/sifive_fe310-g000_pll.c:313
20014dec:	fdc42783          	lw	a5,-36(s0)
20014df0:	4398                	lw	a4,0(a5)
20014df2:	fffc07b7          	lui	a5,0xfffc0
20014df6:	17fd                	addi	a5,a5,-1
20014df8:	8f7d                	and	a4,a4,a5
20014dfa:	fdc42783          	lw	a5,-36(s0)
20014dfe:	c398                	sw	a4,0(a5)
/home/nicoladgg/wsFreedomStudio/sifive_hifive1_revb_HCSR04/freedom-metal/src/drivers/sifive_fe310-g000_pll.c:318
20014e00:	fe040793          	addi	a5,s0,-32
20014e04:	863e                	mv	a2,a5
20014e06:	4585                	li	a1,1
20014e08:	800017b7          	lui	a5,0x80001
20014e0c:	aa878513          	addi	a0,a5,-1368 # 80000aa8 <metal_segment_heap_target_end+0xfffff328>
20014e10:	c94fd0ef          	jal	ra,200122a4 <__metal_driver_riscv_clint0_command_request>
/home/nicoladgg/wsFreedomStudio/sifive_hifive1_revb_HCSR04/freedom-metal/src/drivers/sifive_fe310-g000_pll.c:320
20014e14:	fe042603          	lw	a2,-32(s0)
20014e18:	fe442683          	lw	a3,-28(s0)
20014e1c:	4511                	li	a0,4
20014e1e:	4581                	li	a1,0
20014e20:	00a60733          	add	a4,a2,a0
20014e24:	883a                	mv	a6,a4
20014e26:	00c83833          	sltu	a6,a6,a2
20014e2a:	00b687b3          	add	a5,a3,a1
20014e2e:	00f806b3          	add	a3,a6,a5
20014e32:	87b6                	mv	a5,a3
20014e34:	fee42423          	sw	a4,-24(s0)
20014e38:	fef42623          	sw	a5,-20(s0)
/home/nicoladgg/wsFreedomStudio/sifive_hifive1_revb_HCSR04/freedom-metal/src/drivers/sifive_fe310-g000_pll.c:321
20014e3c:	a819                	j	20014e52 <configure_pll+0x172>
/home/nicoladgg/wsFreedomStudio/sifive_hifive1_revb_HCSR04/freedom-metal/src/drivers/sifive_fe310-g000_pll.c:322
20014e3e:	fe040793          	addi	a5,s0,-32
20014e42:	863e                	mv	a2,a5
20014e44:	4585                	li	a1,1
20014e46:	800017b7          	lui	a5,0x80001
20014e4a:	aa878513          	addi	a0,a5,-1368 # 80000aa8 <metal_segment_heap_target_end+0xfffff328>
20014e4e:	c56fd0ef          	jal	ra,200122a4 <__metal_driver_riscv_clint0_command_request>
/home/nicoladgg/wsFreedomStudio/sifive_hifive1_revb_HCSR04/freedom-metal/src/drivers/sifive_fe310-g000_pll.c:321
20014e52:	fe042703          	lw	a4,-32(s0)
20014e56:	fe442783          	lw	a5,-28(s0)
20014e5a:	fec42683          	lw	a3,-20(s0)
20014e5e:	863e                	mv	a2,a5
20014e60:	00c6ec63          	bltu	a3,a2,20014e78 <configure_pll+0x198>
20014e64:	fec42683          	lw	a3,-20(s0)
20014e68:	863e                	mv	a2,a5
20014e6a:	fcc69ae3          	bne	a3,a2,20014e3e <configure_pll+0x15e>
20014e6e:	fe842683          	lw	a3,-24(s0)
20014e72:	87ba                	mv	a5,a4
20014e74:	fcf6f5e3          	bgeu	a3,a5,20014e3e <configure_pll+0x15e>
/home/nicoladgg/wsFreedomStudio/sifive_hifive1_revb_HCSR04/freedom-metal/src/drivers/sifive_fe310-g000_pll.c:340
20014e78:	0001                	nop
/home/nicoladgg/wsFreedomStudio/sifive_hifive1_revb_HCSR04/freedom-metal/src/drivers/sifive_fe310-g000_pll.c:340 (discriminator 1)
20014e7a:	fdc42783          	lw	a5,-36(s0)
20014e7e:	439c                	lw	a5,0(a5)
20014e80:	fe07dde3          	bgez	a5,20014e7a <configure_pll+0x19a>
/home/nicoladgg/wsFreedomStudio/sifive_hifive1_revb_HCSR04/freedom-metal/src/drivers/sifive_fe310-g000_pll.c:342
20014e84:	0001                	nop
20014e86:	0001                	nop
20014e88:	50b2                	lw	ra,44(sp)
20014e8a:	5422                	lw	s0,40(sp)
20014e8c:	6145                	addi	sp,sp,48
20014e8e:	8082                	ret

20014e90 <__metal_driver_sifive_fe310_g000_pll_set_rate_hz>:
__metal_driver_sifive_fe310_g000_pll_set_rate_hz():
/home/nicoladgg/wsFreedomStudio/sifive_hifive1_revb_HCSR04/freedom-metal/src/drivers/sifive_fe310-g000_pll.c:345
20014e90:	715d                	addi	sp,sp,-80
20014e92:	c686                	sw	ra,76(sp)
20014e94:	c4a2                	sw	s0,72(sp)
20014e96:	0880                	addi	s0,sp,80
20014e98:	faa42e23          	sw	a0,-68(s0)
20014e9c:	fab42c23          	sw	a1,-72(s0)
/home/nicoladgg/wsFreedomStudio/sifive_hifive1_revb_HCSR04/freedom-metal/src/drivers/sifive_fe310-g000_pll.c:347
20014ea0:	fbc42503          	lw	a0,-68(s0)
20014ea4:	a8bff0ef          	jal	ra,2001492e <__metal_driver_sifive_fe310_g000_pll_pllref>
20014ea8:	fea42623          	sw	a0,-20(s0)
/home/nicoladgg/wsFreedomStudio/sifive_hifive1_revb_HCSR04/freedom-metal/src/drivers/sifive_fe310-g000_pll.c:349
20014eac:	fbc42503          	lw	a0,-68(s0)
20014eb0:	a65ff0ef          	jal	ra,20014914 <__metal_driver_sifive_fe310_g000_pll_pllsel0>
20014eb4:	fea42423          	sw	a0,-24(s0)
/home/nicoladgg/wsFreedomStudio/sifive_hifive1_revb_HCSR04/freedom-metal/src/drivers/sifive_fe310-g000_pll.c:351
20014eb8:	fbc42503          	lw	a0,-68(s0)
20014ebc:	ac9ff0ef          	jal	ra,20014984 <__metal_driver_sifive_fe310_g000_pll_config_offset>
20014ec0:	fea42223          	sw	a0,-28(s0)
/home/nicoladgg/wsFreedomStudio/sifive_hifive1_revb_HCSR04/freedom-metal/src/drivers/sifive_fe310-g000_pll.c:353
20014ec4:	fbc42503          	lw	a0,-68(s0)
20014ec8:	a97ff0ef          	jal	ra,2001495e <__metal_driver_sifive_fe310_g000_pll_divider_offset>
20014ecc:	fea42023          	sw	a0,-32(s0)
/home/nicoladgg/wsFreedomStudio/sifive_hifive1_revb_HCSR04/freedom-metal/src/drivers/sifive_fe310-g000_pll.c:354
20014ed0:	adbff0ef          	jal	ra,200149aa <__metal_driver_sifive_fe310_g000_prci_base>
20014ed4:	fca42e23          	sw	a0,-36(s0)
/home/nicoladgg/wsFreedomStudio/sifive_hifive1_revb_HCSR04/freedom-metal/src/drivers/sifive_fe310-g000_pll.c:356
20014ed8:	fdc42703          	lw	a4,-36(s0)
20014edc:	fe442783          	lw	a5,-28(s0)
20014ee0:	97ba                	add	a5,a5,a4
20014ee2:	fcf42c23          	sw	a5,-40(s0)
/home/nicoladgg/wsFreedomStudio/sifive_hifive1_revb_HCSR04/freedom-metal/src/drivers/sifive_fe310-g000_pll.c:357
20014ee6:	fdc42703          	lw	a4,-36(s0)
20014eea:	fe042783          	lw	a5,-32(s0)
20014eee:	97ba                	add	a5,a5,a4
20014ef0:	fcf42a23          	sw	a5,-44(s0)
/home/nicoladgg/wsFreedomStudio/sifive_hifive1_revb_HCSR04/freedom-metal/src/drivers/sifive_fe310-g000_pll.c:360
20014ef4:	fd842783          	lw	a5,-40(s0)
20014ef8:	4398                	lw	a4,0(a5)
20014efa:	67c1                	lui	a5,0x10
20014efc:	8ff9                	and	a5,a5,a4
20014efe:	cb91                	beqz	a5,20014f12 <__metal_driver_sifive_fe310_g000_pll_set_rate_hz+0x82>
/home/nicoladgg/wsFreedomStudio/sifive_hifive1_revb_HCSR04/freedom-metal/src/drivers/sifive_fe310-g000_pll.c:361
20014f00:	fd842783          	lw	a5,-40(s0)
20014f04:	4398                	lw	a4,0(a5)
20014f06:	77c1                	lui	a5,0xffff0
20014f08:	17fd                	addi	a5,a5,-1
20014f0a:	8f7d                	and	a4,a4,a5
20014f0c:	fd842783          	lw	a5,-40(s0)
20014f10:	c398                	sw	a4,0(a5)
/home/nicoladgg/wsFreedomStudio/sifive_hifive1_revb_HCSR04/freedom-metal/src/drivers/sifive_fe310-g000_pll.c:366
20014f12:	fd842783          	lw	a5,-40(s0)
20014f16:	4398                	lw	a4,0(a5)
20014f18:	000207b7          	lui	a5,0x20
20014f1c:	8ff9                	and	a5,a5,a4
/home/nicoladgg/wsFreedomStudio/sifive_hifive1_revb_HCSR04/freedom-metal/src/drivers/sifive_fe310-g000_pll.c:365
20014f1e:	c781                	beqz	a5,20014f26 <__metal_driver_sifive_fe310_g000_pll_set_rate_hz+0x96>
/home/nicoladgg/wsFreedomStudio/sifive_hifive1_revb_HCSR04/freedom-metal/src/drivers/sifive_fe310-g000_pll.c:365 (discriminator 1)
20014f20:	fec42783          	lw	a5,-20(s0)
20014f24:	a019                	j	20014f2a <__metal_driver_sifive_fe310_g000_pll_set_rate_hz+0x9a>
/home/nicoladgg/wsFreedomStudio/sifive_hifive1_revb_HCSR04/freedom-metal/src/drivers/sifive_fe310-g000_pll.c:365 (discriminator 2)
20014f26:	fe842783          	lw	a5,-24(s0)
/home/nicoladgg/wsFreedomStudio/sifive_hifive1_revb_HCSR04/freedom-metal/src/drivers/sifive_fe310-g000_pll.c:365 (discriminator 4)
20014f2a:	853e                	mv	a0,a5
20014f2c:	372010ef          	jal	ra,2001629e <metal_clock_get_rate_hz>
20014f30:	fca42823          	sw	a0,-48(s0)
/home/nicoladgg/wsFreedomStudio/sifive_hifive1_revb_HCSR04/freedom-metal/src/drivers/sifive_fe310-g000_pll.c:370 (discriminator 4)
20014f34:	fd042703          	lw	a4,-48(s0)
20014f38:	87ba                	mv	a5,a4
20014f3a:	0786                	slli	a5,a5,0x1
20014f3c:	97ba                	add	a5,a5,a4
20014f3e:	41f7d713          	srai	a4,a5,0x1f
20014f42:	8b0d                	andi	a4,a4,3
20014f44:	97ba                	add	a5,a5,a4
20014f46:	8789                	srai	a5,a5,0x2
20014f48:	873e                	mv	a4,a5
20014f4a:	fb842783          	lw	a5,-72(s0)
20014f4e:	02e7cb63          	blt	a5,a4,20014f84 <__metal_driver_sifive_fe310_g000_pll_set_rate_hz+0xf4>
/home/nicoladgg/wsFreedomStudio/sifive_hifive1_revb_HCSR04/freedom-metal/src/drivers/sifive_fe310-g000_pll.c:370 (discriminator 1)
20014f52:	fd042703          	lw	a4,-48(s0)
20014f56:	87ba                	mv	a5,a4
20014f58:	078a                	slli	a5,a5,0x2
20014f5a:	97ba                	add	a5,a5,a4
20014f5c:	41f7d713          	srai	a4,a5,0x1f
20014f60:	8b0d                	andi	a4,a4,3
20014f62:	97ba                	add	a5,a5,a4
20014f64:	8789                	srai	a5,a5,0x2
20014f66:	873e                	mv	a4,a5
20014f68:	fb842783          	lw	a5,-72(s0)
20014f6c:	00f74c63          	blt	a4,a5,20014f84 <__metal_driver_sifive_fe310_g000_pll_set_rate_hz+0xf4>
/home/nicoladgg/wsFreedomStudio/sifive_hifive1_revb_HCSR04/freedom-metal/src/drivers/sifive_fe310-g000_pll.c:371
20014f70:	fd842783          	lw	a5,-40(s0)
20014f74:	4398                	lw	a4,0(a5)
20014f76:	000407b7          	lui	a5,0x40
20014f7a:	8f5d                	or	a4,a4,a5
20014f7c:	fd842783          	lw	a5,-40(s0)
20014f80:	c398                	sw	a4,0(a5)
20014f82:	a881                	j	20014fd2 <__metal_driver_sifive_fe310_g000_pll_set_rate_hz+0x142>
/home/nicoladgg/wsFreedomStudio/sifive_hifive1_revb_HCSR04/freedom-metal/src/drivers/sifive_fe310-g000_pll.c:373
20014f84:	fb842583          	lw	a1,-72(s0)
20014f88:	fd042503          	lw	a0,-48(s0)
20014f8c:	ca9ff0ef          	jal	ra,20014c34 <find_closest_config>
20014f90:	fca42623          	sw	a0,-52(s0)
/home/nicoladgg/wsFreedomStudio/sifive_hifive1_revb_HCSR04/freedom-metal/src/drivers/sifive_fe310-g000_pll.c:374
20014f94:	fcc42703          	lw	a4,-52(s0)
20014f98:	57fd                	li	a5,-1
20014f9a:	02f70363          	beq	a4,a5,20014fc0 <__metal_driver_sifive_fe310_g000_pll_set_rate_hz+0x130>
/home/nicoladgg/wsFreedomStudio/sifive_hifive1_revb_HCSR04/freedom-metal/src/drivers/sifive_fe310-g000_pll.c:375
20014f9e:	fcc42783          	lw	a5,-52(s0)
20014fa2:	00579713          	slli	a4,a5,0x5
20014fa6:	200107b7          	lui	a5,0x20010
20014faa:	67078793          	addi	a5,a5,1648 # 20010670 <pll_configs>
20014fae:	97ba                	add	a5,a5,a4
20014fb0:	863e                	mv	a2,a5
20014fb2:	fd442583          	lw	a1,-44(s0)
20014fb6:	fd842503          	lw	a0,-40(s0)
20014fba:	d27ff0ef          	jal	ra,20014ce0 <configure_pll>
20014fbe:	a811                	j	20014fd2 <__metal_driver_sifive_fe310_g000_pll_set_rate_hz+0x142>
/home/nicoladgg/wsFreedomStudio/sifive_hifive1_revb_HCSR04/freedom-metal/src/drivers/sifive_fe310-g000_pll.c:378
20014fc0:	fd842783          	lw	a5,-40(s0)
20014fc4:	4398                	lw	a4,0(a5)
20014fc6:	000407b7          	lui	a5,0x40
20014fca:	8f5d                	or	a4,a4,a5
20014fcc:	fd842783          	lw	a5,-40(s0)
20014fd0:	c398                	sw	a4,0(a5)
/home/nicoladgg/wsFreedomStudio/sifive_hifive1_revb_HCSR04/freedom-metal/src/drivers/sifive_fe310-g000_pll.c:383
20014fd2:	fd842783          	lw	a5,-40(s0)
20014fd6:	4398                	lw	a4,0(a5)
20014fd8:	67c1                	lui	a5,0x10
20014fda:	8f5d                	or	a4,a4,a5
20014fdc:	fd842783          	lw	a5,-40(s0)
20014fe0:	c398                	sw	a4,0(a5)
/home/nicoladgg/wsFreedomStudio/sifive_hifive1_revb_HCSR04/freedom-metal/src/drivers/sifive_fe310-g000_pll.c:385
20014fe2:	fbc42503          	lw	a0,-68(s0)
20014fe6:	adfff0ef          	jal	ra,20014ac4 <__metal_driver_sifive_fe310_g000_pll_get_rate_hz>
20014fea:	87aa                	mv	a5,a0
/home/nicoladgg/wsFreedomStudio/sifive_hifive1_revb_HCSR04/freedom-metal/src/drivers/sifive_fe310-g000_pll.c:386
20014fec:	853e                	mv	a0,a5
20014fee:	40b6                	lw	ra,76(sp)
20014ff0:	4426                	lw	s0,72(sp)
20014ff2:	6161                	addi	sp,sp,80
20014ff4:	8082                	ret

20014ff6 <__metal_driver_sifive_fe310_g000_prci_base>:
__metal_driver_sifive_fe310_g000_prci_base():
/home/nicoladgg/wsFreedomStudio/sifive_hifive1_revb_HCSR04/bsp/build/debug/./metal/machine.h:1364
20014ff6:	1141                	addi	sp,sp,-16
20014ff8:	c622                	sw	s0,12(sp)
20014ffa:	0800                	addi	s0,sp,16
/home/nicoladgg/wsFreedomStudio/sifive_hifive1_revb_HCSR04/bsp/build/debug/./metal/machine.h:1365
20014ffc:	100087b7          	lui	a5,0x10008
/home/nicoladgg/wsFreedomStudio/sifive_hifive1_revb_HCSR04/bsp/build/debug/./metal/machine.h:1366
20015000:	853e                	mv	a0,a5
20015002:	4432                	lw	s0,12(sp)
20015004:	0141                	addi	sp,sp,16
20015006:	8082                	ret

20015008 <__metal_driver_sifive_fe310_g000_prci_get_reg>:
__metal_driver_sifive_fe310_g000_prci_get_reg():
/home/nicoladgg/wsFreedomStudio/sifive_hifive1_revb_HCSR04/freedom-metal/src/drivers/sifive_fe310-g000_prci.c:12
20015008:	7179                	addi	sp,sp,-48
2001500a:	d606                	sw	ra,44(sp)
2001500c:	d422                	sw	s0,40(sp)
2001500e:	1800                	addi	s0,sp,48
20015010:	fca42e23          	sw	a0,-36(s0)
20015014:	fcb42c23          	sw	a1,-40(s0)
/home/nicoladgg/wsFreedomStudio/sifive_hifive1_revb_HCSR04/freedom-metal/src/drivers/sifive_fe310-g000_prci.c:13
20015018:	3ff9                	jal	20014ff6 <__metal_driver_sifive_fe310_g000_prci_base>
2001501a:	87aa                	mv	a5,a0
2001501c:	fef42623          	sw	a5,-20(s0)
/home/nicoladgg/wsFreedomStudio/sifive_hifive1_revb_HCSR04/freedom-metal/src/drivers/sifive_fe310-g000_prci.c:14
20015020:	fd842703          	lw	a4,-40(s0)
20015024:	fec42783          	lw	a5,-20(s0)
20015028:	97ba                	add	a5,a5,a4
2001502a:	439c                	lw	a5,0(a5)
/home/nicoladgg/wsFreedomStudio/sifive_hifive1_revb_HCSR04/freedom-metal/src/drivers/sifive_fe310-g000_prci.c:15
2001502c:	853e                	mv	a0,a5
2001502e:	50b2                	lw	ra,44(sp)
20015030:	5422                	lw	s0,40(sp)
20015032:	6145                	addi	sp,sp,48
20015034:	8082                	ret

20015036 <__metal_driver_sifive_fe310_g000_prci_set_reg>:
__metal_driver_sifive_fe310_g000_prci_set_reg():
/home/nicoladgg/wsFreedomStudio/sifive_hifive1_revb_HCSR04/freedom-metal/src/drivers/sifive_fe310-g000_prci.c:19
20015036:	7179                	addi	sp,sp,-48
20015038:	d606                	sw	ra,44(sp)
2001503a:	d422                	sw	s0,40(sp)
2001503c:	1800                	addi	s0,sp,48
2001503e:	fca42e23          	sw	a0,-36(s0)
20015042:	fcb42c23          	sw	a1,-40(s0)
20015046:	fcc42a23          	sw	a2,-44(s0)
/home/nicoladgg/wsFreedomStudio/sifive_hifive1_revb_HCSR04/freedom-metal/src/drivers/sifive_fe310-g000_prci.c:20
2001504a:	3775                	jal	20014ff6 <__metal_driver_sifive_fe310_g000_prci_base>
2001504c:	87aa                	mv	a5,a0
2001504e:	fef42623          	sw	a5,-20(s0)
/home/nicoladgg/wsFreedomStudio/sifive_hifive1_revb_HCSR04/freedom-metal/src/drivers/sifive_fe310-g000_prci.c:21
20015052:	fd842703          	lw	a4,-40(s0)
20015056:	fec42783          	lw	a5,-20(s0)
2001505a:	97ba                	add	a5,a5,a4
2001505c:	873e                	mv	a4,a5
2001505e:	fd442783          	lw	a5,-44(s0)
20015062:	c31c                	sw	a5,0(a4)
/home/nicoladgg/wsFreedomStudio/sifive_hifive1_revb_HCSR04/freedom-metal/src/drivers/sifive_fe310-g000_prci.c:22
20015064:	853e                	mv	a0,a5
20015066:	50b2                	lw	ra,44(sp)
20015068:	5422                	lw	s0,40(sp)
2001506a:	6145                	addi	sp,sp,48
2001506c:	8082                	ret

2001506e <__metal_driver_sifive_gpio0_base>:
__metal_driver_sifive_gpio0_base():
/home/nicoladgg/wsFreedomStudio/sifive_hifive1_revb_HCSR04/bsp/build/debug/./metal/machine.h:430
2001506e:	1101                	addi	sp,sp,-32
20015070:	ce22                	sw	s0,28(sp)
20015072:	1000                	addi	s0,sp,32
20015074:	fea42623          	sw	a0,-20(s0)
/home/nicoladgg/wsFreedomStudio/sifive_hifive1_revb_HCSR04/bsp/build/debug/./metal/machine.h:431
20015078:	fec42703          	lw	a4,-20(s0)
2001507c:	81818793          	addi	a5,gp,-2024 # 80000ab8 <__metal_dt_gpio_10012000>
20015080:	00f71563          	bne	a4,a5,2001508a <__metal_driver_sifive_gpio0_base+0x1c>
/home/nicoladgg/wsFreedomStudio/sifive_hifive1_revb_HCSR04/bsp/build/debug/./metal/machine.h:432
20015084:	100127b7          	lui	a5,0x10012
20015088:	a011                	j	2001508c <__metal_driver_sifive_gpio0_base+0x1e>
/home/nicoladgg/wsFreedomStudio/sifive_hifive1_revb_HCSR04/bsp/build/debug/./metal/machine.h:435
2001508a:	4781                	li	a5,0
/home/nicoladgg/wsFreedomStudio/sifive_hifive1_revb_HCSR04/bsp/build/debug/./metal/machine.h:437
2001508c:	853e                	mv	a0,a5
2001508e:	4472                	lw	s0,28(sp)
20015090:	6105                	addi	sp,sp,32
20015092:	8082                	ret

20015094 <__metal_driver_sifive_gpio0_interrupt_parent>:
__metal_driver_sifive_gpio0_interrupt_parent():
/home/nicoladgg/wsFreedomStudio/sifive_hifive1_revb_HCSR04/bsp/build/debug/./metal/machine.h:460
20015094:	1101                	addi	sp,sp,-32
20015096:	ce22                	sw	s0,28(sp)
20015098:	1000                	addi	s0,sp,32
2001509a:	fea42623          	sw	a0,-20(s0)
/home/nicoladgg/wsFreedomStudio/sifive_hifive1_revb_HCSR04/bsp/build/debug/./metal/machine.h:461
2001509e:	fec42703          	lw	a4,-20(s0)
200150a2:	81818793          	addi	a5,gp,-2024 # 80000ab8 <__metal_dt_gpio_10012000>
200150a6:	00f71763          	bne	a4,a5,200150b4 <__metal_driver_sifive_gpio0_interrupt_parent+0x20>
/home/nicoladgg/wsFreedomStudio/sifive_hifive1_revb_HCSR04/bsp/build/debug/./metal/machine.h:462
200150aa:	800007b7          	lui	a5,0x80000
200150ae:	46078793          	addi	a5,a5,1120 # 80000460 <metal_segment_heap_target_end+0xffffece0>
200150b2:	a011                	j	200150b6 <__metal_driver_sifive_gpio0_interrupt_parent+0x22>
/home/nicoladgg/wsFreedomStudio/sifive_hifive1_revb_HCSR04/bsp/build/debug/./metal/machine.h:465
200150b4:	4781                	li	a5,0
/home/nicoladgg/wsFreedomStudio/sifive_hifive1_revb_HCSR04/bsp/build/debug/./metal/machine.h:467
200150b6:	853e                	mv	a0,a5
200150b8:	4472                	lw	s0,28(sp)
200150ba:	6105                	addi	sp,sp,32
200150bc:	8082                	ret

200150be <__metal_driver_sifive_gpio0_interrupt_lines>:
__metal_driver_sifive_gpio0_interrupt_lines():
/home/nicoladgg/wsFreedomStudio/sifive_hifive1_revb_HCSR04/bsp/build/debug/./metal/machine.h:470
200150be:	1101                	addi	sp,sp,-32
200150c0:	ce22                	sw	s0,28(sp)
200150c2:	1000                	addi	s0,sp,32
200150c4:	fea42623          	sw	a0,-20(s0)
200150c8:	feb42423          	sw	a1,-24(s0)
/home/nicoladgg/wsFreedomStudio/sifive_hifive1_revb_HCSR04/bsp/build/debug/./metal/machine.h:471
200150cc:	fec42703          	lw	a4,-20(s0)
200150d0:	81818793          	addi	a5,gp,-2024 # 80000ab8 <__metal_dt_gpio_10012000>
200150d4:	00f71763          	bne	a4,a5,200150e2 <__metal_driver_sifive_gpio0_interrupt_lines+0x24>
/home/nicoladgg/wsFreedomStudio/sifive_hifive1_revb_HCSR04/bsp/build/debug/./metal/machine.h:471 (discriminator 1)
200150d8:	fe842783          	lw	a5,-24(s0)
200150dc:	e399                	bnez	a5,200150e2 <__metal_driver_sifive_gpio0_interrupt_lines+0x24>
/home/nicoladgg/wsFreedomStudio/sifive_hifive1_revb_HCSR04/bsp/build/debug/./metal/machine.h:472
200150de:	47a1                	li	a5,8
200150e0:	ae15                	j	20015414 <__metal_driver_sifive_gpio0_interrupt_lines+0x356>
/home/nicoladgg/wsFreedomStudio/sifive_hifive1_revb_HCSR04/bsp/build/debug/./metal/machine.h:474
200150e2:	fec42703          	lw	a4,-20(s0)
200150e6:	81818793          	addi	a5,gp,-2024 # 80000ab8 <__metal_dt_gpio_10012000>
200150ea:	00f71963          	bne	a4,a5,200150fc <__metal_driver_sifive_gpio0_interrupt_lines+0x3e>
/home/nicoladgg/wsFreedomStudio/sifive_hifive1_revb_HCSR04/bsp/build/debug/./metal/machine.h:474 (discriminator 1)
200150ee:	fe842703          	lw	a4,-24(s0)
200150f2:	4785                	li	a5,1
200150f4:	00f71463          	bne	a4,a5,200150fc <__metal_driver_sifive_gpio0_interrupt_lines+0x3e>
/home/nicoladgg/wsFreedomStudio/sifive_hifive1_revb_HCSR04/bsp/build/debug/./metal/machine.h:475
200150f8:	47a5                	li	a5,9
200150fa:	ae29                	j	20015414 <__metal_driver_sifive_gpio0_interrupt_lines+0x356>
/home/nicoladgg/wsFreedomStudio/sifive_hifive1_revb_HCSR04/bsp/build/debug/./metal/machine.h:477
200150fc:	fec42703          	lw	a4,-20(s0)
20015100:	81818793          	addi	a5,gp,-2024 # 80000ab8 <__metal_dt_gpio_10012000>
20015104:	00f71963          	bne	a4,a5,20015116 <__metal_driver_sifive_gpio0_interrupt_lines+0x58>
/home/nicoladgg/wsFreedomStudio/sifive_hifive1_revb_HCSR04/bsp/build/debug/./metal/machine.h:477 (discriminator 1)
20015108:	fe842703          	lw	a4,-24(s0)
2001510c:	4789                	li	a5,2
2001510e:	00f71463          	bne	a4,a5,20015116 <__metal_driver_sifive_gpio0_interrupt_lines+0x58>
/home/nicoladgg/wsFreedomStudio/sifive_hifive1_revb_HCSR04/bsp/build/debug/./metal/machine.h:478
20015112:	47a9                	li	a5,10
20015114:	a601                	j	20015414 <__metal_driver_sifive_gpio0_interrupt_lines+0x356>
/home/nicoladgg/wsFreedomStudio/sifive_hifive1_revb_HCSR04/bsp/build/debug/./metal/machine.h:480
20015116:	fec42703          	lw	a4,-20(s0)
2001511a:	81818793          	addi	a5,gp,-2024 # 80000ab8 <__metal_dt_gpio_10012000>
2001511e:	00f71963          	bne	a4,a5,20015130 <__metal_driver_sifive_gpio0_interrupt_lines+0x72>
/home/nicoladgg/wsFreedomStudio/sifive_hifive1_revb_HCSR04/bsp/build/debug/./metal/machine.h:480 (discriminator 1)
20015122:	fe842703          	lw	a4,-24(s0)
20015126:	478d                	li	a5,3
20015128:	00f71463          	bne	a4,a5,20015130 <__metal_driver_sifive_gpio0_interrupt_lines+0x72>
/home/nicoladgg/wsFreedomStudio/sifive_hifive1_revb_HCSR04/bsp/build/debug/./metal/machine.h:481
2001512c:	47ad                	li	a5,11
2001512e:	a4dd                	j	20015414 <__metal_driver_sifive_gpio0_interrupt_lines+0x356>
/home/nicoladgg/wsFreedomStudio/sifive_hifive1_revb_HCSR04/bsp/build/debug/./metal/machine.h:483
20015130:	fec42703          	lw	a4,-20(s0)
20015134:	81818793          	addi	a5,gp,-2024 # 80000ab8 <__metal_dt_gpio_10012000>
20015138:	00f71963          	bne	a4,a5,2001514a <__metal_driver_sifive_gpio0_interrupt_lines+0x8c>
/home/nicoladgg/wsFreedomStudio/sifive_hifive1_revb_HCSR04/bsp/build/debug/./metal/machine.h:483 (discriminator 1)
2001513c:	fe842703          	lw	a4,-24(s0)
20015140:	4791                	li	a5,4
20015142:	00f71463          	bne	a4,a5,2001514a <__metal_driver_sifive_gpio0_interrupt_lines+0x8c>
/home/nicoladgg/wsFreedomStudio/sifive_hifive1_revb_HCSR04/bsp/build/debug/./metal/machine.h:484
20015146:	47b1                	li	a5,12
20015148:	a4f1                	j	20015414 <__metal_driver_sifive_gpio0_interrupt_lines+0x356>
/home/nicoladgg/wsFreedomStudio/sifive_hifive1_revb_HCSR04/bsp/build/debug/./metal/machine.h:486
2001514a:	fec42703          	lw	a4,-20(s0)
2001514e:	81818793          	addi	a5,gp,-2024 # 80000ab8 <__metal_dt_gpio_10012000>
20015152:	00f71963          	bne	a4,a5,20015164 <__metal_driver_sifive_gpio0_interrupt_lines+0xa6>
/home/nicoladgg/wsFreedomStudio/sifive_hifive1_revb_HCSR04/bsp/build/debug/./metal/machine.h:486 (discriminator 1)
20015156:	fe842703          	lw	a4,-24(s0)
2001515a:	4795                	li	a5,5
2001515c:	00f71463          	bne	a4,a5,20015164 <__metal_driver_sifive_gpio0_interrupt_lines+0xa6>
/home/nicoladgg/wsFreedomStudio/sifive_hifive1_revb_HCSR04/bsp/build/debug/./metal/machine.h:487
20015160:	47b5                	li	a5,13
20015162:	ac4d                	j	20015414 <__metal_driver_sifive_gpio0_interrupt_lines+0x356>
/home/nicoladgg/wsFreedomStudio/sifive_hifive1_revb_HCSR04/bsp/build/debug/./metal/machine.h:489
20015164:	fec42703          	lw	a4,-20(s0)
20015168:	81818793          	addi	a5,gp,-2024 # 80000ab8 <__metal_dt_gpio_10012000>
2001516c:	00f71963          	bne	a4,a5,2001517e <__metal_driver_sifive_gpio0_interrupt_lines+0xc0>
/home/nicoladgg/wsFreedomStudio/sifive_hifive1_revb_HCSR04/bsp/build/debug/./metal/machine.h:489 (discriminator 1)
20015170:	fe842703          	lw	a4,-24(s0)
20015174:	4799                	li	a5,6
20015176:	00f71463          	bne	a4,a5,2001517e <__metal_driver_sifive_gpio0_interrupt_lines+0xc0>
/home/nicoladgg/wsFreedomStudio/sifive_hifive1_revb_HCSR04/bsp/build/debug/./metal/machine.h:490
2001517a:	47b9                	li	a5,14
2001517c:	ac61                	j	20015414 <__metal_driver_sifive_gpio0_interrupt_lines+0x356>
/home/nicoladgg/wsFreedomStudio/sifive_hifive1_revb_HCSR04/bsp/build/debug/./metal/machine.h:492
2001517e:	fec42703          	lw	a4,-20(s0)
20015182:	81818793          	addi	a5,gp,-2024 # 80000ab8 <__metal_dt_gpio_10012000>
20015186:	00f71963          	bne	a4,a5,20015198 <__metal_driver_sifive_gpio0_interrupt_lines+0xda>
/home/nicoladgg/wsFreedomStudio/sifive_hifive1_revb_HCSR04/bsp/build/debug/./metal/machine.h:492 (discriminator 1)
2001518a:	fe842703          	lw	a4,-24(s0)
2001518e:	479d                	li	a5,7
20015190:	00f71463          	bne	a4,a5,20015198 <__metal_driver_sifive_gpio0_interrupt_lines+0xda>
/home/nicoladgg/wsFreedomStudio/sifive_hifive1_revb_HCSR04/bsp/build/debug/./metal/machine.h:493
20015194:	47bd                	li	a5,15
20015196:	acbd                	j	20015414 <__metal_driver_sifive_gpio0_interrupt_lines+0x356>
/home/nicoladgg/wsFreedomStudio/sifive_hifive1_revb_HCSR04/bsp/build/debug/./metal/machine.h:495
20015198:	fec42703          	lw	a4,-20(s0)
2001519c:	81818793          	addi	a5,gp,-2024 # 80000ab8 <__metal_dt_gpio_10012000>
200151a0:	00f71963          	bne	a4,a5,200151b2 <__metal_driver_sifive_gpio0_interrupt_lines+0xf4>
/home/nicoladgg/wsFreedomStudio/sifive_hifive1_revb_HCSR04/bsp/build/debug/./metal/machine.h:495 (discriminator 1)
200151a4:	fe842703          	lw	a4,-24(s0)
200151a8:	47a1                	li	a5,8
200151aa:	00f71463          	bne	a4,a5,200151b2 <__metal_driver_sifive_gpio0_interrupt_lines+0xf4>
/home/nicoladgg/wsFreedomStudio/sifive_hifive1_revb_HCSR04/bsp/build/debug/./metal/machine.h:496
200151ae:	47c1                	li	a5,16
200151b0:	a495                	j	20015414 <__metal_driver_sifive_gpio0_interrupt_lines+0x356>
/home/nicoladgg/wsFreedomStudio/sifive_hifive1_revb_HCSR04/bsp/build/debug/./metal/machine.h:498
200151b2:	fec42703          	lw	a4,-20(s0)
200151b6:	81818793          	addi	a5,gp,-2024 # 80000ab8 <__metal_dt_gpio_10012000>
200151ba:	00f71963          	bne	a4,a5,200151cc <__metal_driver_sifive_gpio0_interrupt_lines+0x10e>
/home/nicoladgg/wsFreedomStudio/sifive_hifive1_revb_HCSR04/bsp/build/debug/./metal/machine.h:498 (discriminator 1)
200151be:	fe842703          	lw	a4,-24(s0)
200151c2:	47a5                	li	a5,9
200151c4:	00f71463          	bne	a4,a5,200151cc <__metal_driver_sifive_gpio0_interrupt_lines+0x10e>
/home/nicoladgg/wsFreedomStudio/sifive_hifive1_revb_HCSR04/bsp/build/debug/./metal/machine.h:499
200151c8:	47c5                	li	a5,17
200151ca:	a4a9                	j	20015414 <__metal_driver_sifive_gpio0_interrupt_lines+0x356>
/home/nicoladgg/wsFreedomStudio/sifive_hifive1_revb_HCSR04/bsp/build/debug/./metal/machine.h:501
200151cc:	fec42703          	lw	a4,-20(s0)
200151d0:	81818793          	addi	a5,gp,-2024 # 80000ab8 <__metal_dt_gpio_10012000>
200151d4:	00f71963          	bne	a4,a5,200151e6 <__metal_driver_sifive_gpio0_interrupt_lines+0x128>
/home/nicoladgg/wsFreedomStudio/sifive_hifive1_revb_HCSR04/bsp/build/debug/./metal/machine.h:501 (discriminator 1)
200151d8:	fe842703          	lw	a4,-24(s0)
200151dc:	47a9                	li	a5,10
200151de:	00f71463          	bne	a4,a5,200151e6 <__metal_driver_sifive_gpio0_interrupt_lines+0x128>
/home/nicoladgg/wsFreedomStudio/sifive_hifive1_revb_HCSR04/bsp/build/debug/./metal/machine.h:502
200151e2:	47c9                	li	a5,18
200151e4:	ac05                	j	20015414 <__metal_driver_sifive_gpio0_interrupt_lines+0x356>
/home/nicoladgg/wsFreedomStudio/sifive_hifive1_revb_HCSR04/bsp/build/debug/./metal/machine.h:504
200151e6:	fec42703          	lw	a4,-20(s0)
200151ea:	81818793          	addi	a5,gp,-2024 # 80000ab8 <__metal_dt_gpio_10012000>
200151ee:	00f71963          	bne	a4,a5,20015200 <__metal_driver_sifive_gpio0_interrupt_lines+0x142>
/home/nicoladgg/wsFreedomStudio/sifive_hifive1_revb_HCSR04/bsp/build/debug/./metal/machine.h:504 (discriminator 1)
200151f2:	fe842703          	lw	a4,-24(s0)
200151f6:	47ad                	li	a5,11
200151f8:	00f71463          	bne	a4,a5,20015200 <__metal_driver_sifive_gpio0_interrupt_lines+0x142>
/home/nicoladgg/wsFreedomStudio/sifive_hifive1_revb_HCSR04/bsp/build/debug/./metal/machine.h:505
200151fc:	47cd                	li	a5,19
200151fe:	ac19                	j	20015414 <__metal_driver_sifive_gpio0_interrupt_lines+0x356>
/home/nicoladgg/wsFreedomStudio/sifive_hifive1_revb_HCSR04/bsp/build/debug/./metal/machine.h:507
20015200:	fec42703          	lw	a4,-20(s0)
20015204:	81818793          	addi	a5,gp,-2024 # 80000ab8 <__metal_dt_gpio_10012000>
20015208:	00f71963          	bne	a4,a5,2001521a <__metal_driver_sifive_gpio0_interrupt_lines+0x15c>
/home/nicoladgg/wsFreedomStudio/sifive_hifive1_revb_HCSR04/bsp/build/debug/./metal/machine.h:507 (discriminator 1)
2001520c:	fe842703          	lw	a4,-24(s0)
20015210:	47b1                	li	a5,12
20015212:	00f71463          	bne	a4,a5,2001521a <__metal_driver_sifive_gpio0_interrupt_lines+0x15c>
/home/nicoladgg/wsFreedomStudio/sifive_hifive1_revb_HCSR04/bsp/build/debug/./metal/machine.h:508
20015216:	47d1                	li	a5,20
20015218:	aaf5                	j	20015414 <__metal_driver_sifive_gpio0_interrupt_lines+0x356>
/home/nicoladgg/wsFreedomStudio/sifive_hifive1_revb_HCSR04/bsp/build/debug/./metal/machine.h:510
2001521a:	fec42703          	lw	a4,-20(s0)
2001521e:	81818793          	addi	a5,gp,-2024 # 80000ab8 <__metal_dt_gpio_10012000>
20015222:	00f71963          	bne	a4,a5,20015234 <__metal_driver_sifive_gpio0_interrupt_lines+0x176>
/home/nicoladgg/wsFreedomStudio/sifive_hifive1_revb_HCSR04/bsp/build/debug/./metal/machine.h:510 (discriminator 1)
20015226:	fe842703          	lw	a4,-24(s0)
2001522a:	47b5                	li	a5,13
2001522c:	00f71463          	bne	a4,a5,20015234 <__metal_driver_sifive_gpio0_interrupt_lines+0x176>
/home/nicoladgg/wsFreedomStudio/sifive_hifive1_revb_HCSR04/bsp/build/debug/./metal/machine.h:511
20015230:	47d5                	li	a5,21
20015232:	a2cd                	j	20015414 <__metal_driver_sifive_gpio0_interrupt_lines+0x356>
/home/nicoladgg/wsFreedomStudio/sifive_hifive1_revb_HCSR04/bsp/build/debug/./metal/machine.h:513
20015234:	fec42703          	lw	a4,-20(s0)
20015238:	81818793          	addi	a5,gp,-2024 # 80000ab8 <__metal_dt_gpio_10012000>
2001523c:	00f71963          	bne	a4,a5,2001524e <__metal_driver_sifive_gpio0_interrupt_lines+0x190>
/home/nicoladgg/wsFreedomStudio/sifive_hifive1_revb_HCSR04/bsp/build/debug/./metal/machine.h:513 (discriminator 1)
20015240:	fe842703          	lw	a4,-24(s0)
20015244:	47b9                	li	a5,14
20015246:	00f71463          	bne	a4,a5,2001524e <__metal_driver_sifive_gpio0_interrupt_lines+0x190>
/home/nicoladgg/wsFreedomStudio/sifive_hifive1_revb_HCSR04/bsp/build/debug/./metal/machine.h:514
2001524a:	47d9                	li	a5,22
2001524c:	a2e1                	j	20015414 <__metal_driver_sifive_gpio0_interrupt_lines+0x356>
/home/nicoladgg/wsFreedomStudio/sifive_hifive1_revb_HCSR04/bsp/build/debug/./metal/machine.h:516
2001524e:	fec42703          	lw	a4,-20(s0)
20015252:	81818793          	addi	a5,gp,-2024 # 80000ab8 <__metal_dt_gpio_10012000>
20015256:	00f71963          	bne	a4,a5,20015268 <__metal_driver_sifive_gpio0_interrupt_lines+0x1aa>
/home/nicoladgg/wsFreedomStudio/sifive_hifive1_revb_HCSR04/bsp/build/debug/./metal/machine.h:516 (discriminator 1)
2001525a:	fe842703          	lw	a4,-24(s0)
2001525e:	47bd                	li	a5,15
20015260:	00f71463          	bne	a4,a5,20015268 <__metal_driver_sifive_gpio0_interrupt_lines+0x1aa>
/home/nicoladgg/wsFreedomStudio/sifive_hifive1_revb_HCSR04/bsp/build/debug/./metal/machine.h:517
20015264:	47dd                	li	a5,23
20015266:	a27d                	j	20015414 <__metal_driver_sifive_gpio0_interrupt_lines+0x356>
/home/nicoladgg/wsFreedomStudio/sifive_hifive1_revb_HCSR04/bsp/build/debug/./metal/machine.h:519
20015268:	fec42703          	lw	a4,-20(s0)
2001526c:	81818793          	addi	a5,gp,-2024 # 80000ab8 <__metal_dt_gpio_10012000>
20015270:	00f71963          	bne	a4,a5,20015282 <__metal_driver_sifive_gpio0_interrupt_lines+0x1c4>
/home/nicoladgg/wsFreedomStudio/sifive_hifive1_revb_HCSR04/bsp/build/debug/./metal/machine.h:519 (discriminator 1)
20015274:	fe842703          	lw	a4,-24(s0)
20015278:	47c1                	li	a5,16
2001527a:	00f71463          	bne	a4,a5,20015282 <__metal_driver_sifive_gpio0_interrupt_lines+0x1c4>
/home/nicoladgg/wsFreedomStudio/sifive_hifive1_revb_HCSR04/bsp/build/debug/./metal/machine.h:520
2001527e:	47e1                	li	a5,24
20015280:	aa51                	j	20015414 <__metal_driver_sifive_gpio0_interrupt_lines+0x356>
/home/nicoladgg/wsFreedomStudio/sifive_hifive1_revb_HCSR04/bsp/build/debug/./metal/machine.h:522
20015282:	fec42703          	lw	a4,-20(s0)
20015286:	81818793          	addi	a5,gp,-2024 # 80000ab8 <__metal_dt_gpio_10012000>
2001528a:	00f71963          	bne	a4,a5,2001529c <__metal_driver_sifive_gpio0_interrupt_lines+0x1de>
/home/nicoladgg/wsFreedomStudio/sifive_hifive1_revb_HCSR04/bsp/build/debug/./metal/machine.h:522 (discriminator 1)
2001528e:	fe842703          	lw	a4,-24(s0)
20015292:	47c5                	li	a5,17
20015294:	00f71463          	bne	a4,a5,2001529c <__metal_driver_sifive_gpio0_interrupt_lines+0x1de>
/home/nicoladgg/wsFreedomStudio/sifive_hifive1_revb_HCSR04/bsp/build/debug/./metal/machine.h:523
20015298:	47e5                	li	a5,25
2001529a:	aaad                	j	20015414 <__metal_driver_sifive_gpio0_interrupt_lines+0x356>
/home/nicoladgg/wsFreedomStudio/sifive_hifive1_revb_HCSR04/bsp/build/debug/./metal/machine.h:525
2001529c:	fec42703          	lw	a4,-20(s0)
200152a0:	81818793          	addi	a5,gp,-2024 # 80000ab8 <__metal_dt_gpio_10012000>
200152a4:	00f71963          	bne	a4,a5,200152b6 <__metal_driver_sifive_gpio0_interrupt_lines+0x1f8>
/home/nicoladgg/wsFreedomStudio/sifive_hifive1_revb_HCSR04/bsp/build/debug/./metal/machine.h:525 (discriminator 1)
200152a8:	fe842703          	lw	a4,-24(s0)
200152ac:	47c9                	li	a5,18
200152ae:	00f71463          	bne	a4,a5,200152b6 <__metal_driver_sifive_gpio0_interrupt_lines+0x1f8>
/home/nicoladgg/wsFreedomStudio/sifive_hifive1_revb_HCSR04/bsp/build/debug/./metal/machine.h:526
200152b2:	47e9                	li	a5,26
200152b4:	a285                	j	20015414 <__metal_driver_sifive_gpio0_interrupt_lines+0x356>
/home/nicoladgg/wsFreedomStudio/sifive_hifive1_revb_HCSR04/bsp/build/debug/./metal/machine.h:528
200152b6:	fec42703          	lw	a4,-20(s0)
200152ba:	81818793          	addi	a5,gp,-2024 # 80000ab8 <__metal_dt_gpio_10012000>
200152be:	00f71963          	bne	a4,a5,200152d0 <__metal_driver_sifive_gpio0_interrupt_lines+0x212>
/home/nicoladgg/wsFreedomStudio/sifive_hifive1_revb_HCSR04/bsp/build/debug/./metal/machine.h:528 (discriminator 1)
200152c2:	fe842703          	lw	a4,-24(s0)
200152c6:	47cd                	li	a5,19
200152c8:	00f71463          	bne	a4,a5,200152d0 <__metal_driver_sifive_gpio0_interrupt_lines+0x212>
/home/nicoladgg/wsFreedomStudio/sifive_hifive1_revb_HCSR04/bsp/build/debug/./metal/machine.h:529
200152cc:	47ed                	li	a5,27
200152ce:	a299                	j	20015414 <__metal_driver_sifive_gpio0_interrupt_lines+0x356>
/home/nicoladgg/wsFreedomStudio/sifive_hifive1_revb_HCSR04/bsp/build/debug/./metal/machine.h:531
200152d0:	fec42703          	lw	a4,-20(s0)
200152d4:	81818793          	addi	a5,gp,-2024 # 80000ab8 <__metal_dt_gpio_10012000>
200152d8:	00f71963          	bne	a4,a5,200152ea <__metal_driver_sifive_gpio0_interrupt_lines+0x22c>
/home/nicoladgg/wsFreedomStudio/sifive_hifive1_revb_HCSR04/bsp/build/debug/./metal/machine.h:531 (discriminator 1)
200152dc:	fe842703          	lw	a4,-24(s0)
200152e0:	47d1                	li	a5,20
200152e2:	00f71463          	bne	a4,a5,200152ea <__metal_driver_sifive_gpio0_interrupt_lines+0x22c>
/home/nicoladgg/wsFreedomStudio/sifive_hifive1_revb_HCSR04/bsp/build/debug/./metal/machine.h:532
200152e6:	47f1                	li	a5,28
200152e8:	a235                	j	20015414 <__metal_driver_sifive_gpio0_interrupt_lines+0x356>
/home/nicoladgg/wsFreedomStudio/sifive_hifive1_revb_HCSR04/bsp/build/debug/./metal/machine.h:534
200152ea:	fec42703          	lw	a4,-20(s0)
200152ee:	81818793          	addi	a5,gp,-2024 # 80000ab8 <__metal_dt_gpio_10012000>
200152f2:	00f71963          	bne	a4,a5,20015304 <__metal_driver_sifive_gpio0_interrupt_lines+0x246>
/home/nicoladgg/wsFreedomStudio/sifive_hifive1_revb_HCSR04/bsp/build/debug/./metal/machine.h:534 (discriminator 1)
200152f6:	fe842703          	lw	a4,-24(s0)
200152fa:	47d5                	li	a5,21
200152fc:	00f71463          	bne	a4,a5,20015304 <__metal_driver_sifive_gpio0_interrupt_lines+0x246>
/home/nicoladgg/wsFreedomStudio/sifive_hifive1_revb_HCSR04/bsp/build/debug/./metal/machine.h:535
20015300:	47f5                	li	a5,29
20015302:	aa09                	j	20015414 <__metal_driver_sifive_gpio0_interrupt_lines+0x356>
/home/nicoladgg/wsFreedomStudio/sifive_hifive1_revb_HCSR04/bsp/build/debug/./metal/machine.h:537
20015304:	fec42703          	lw	a4,-20(s0)
20015308:	81818793          	addi	a5,gp,-2024 # 80000ab8 <__metal_dt_gpio_10012000>
2001530c:	00f71963          	bne	a4,a5,2001531e <__metal_driver_sifive_gpio0_interrupt_lines+0x260>
/home/nicoladgg/wsFreedomStudio/sifive_hifive1_revb_HCSR04/bsp/build/debug/./metal/machine.h:537 (discriminator 1)
20015310:	fe842703          	lw	a4,-24(s0)
20015314:	47d9                	li	a5,22
20015316:	00f71463          	bne	a4,a5,2001531e <__metal_driver_sifive_gpio0_interrupt_lines+0x260>
/home/nicoladgg/wsFreedomStudio/sifive_hifive1_revb_HCSR04/bsp/build/debug/./metal/machine.h:538
2001531a:	47f9                	li	a5,30
2001531c:	a8e5                	j	20015414 <__metal_driver_sifive_gpio0_interrupt_lines+0x356>
/home/nicoladgg/wsFreedomStudio/sifive_hifive1_revb_HCSR04/bsp/build/debug/./metal/machine.h:540
2001531e:	fec42703          	lw	a4,-20(s0)
20015322:	81818793          	addi	a5,gp,-2024 # 80000ab8 <__metal_dt_gpio_10012000>
20015326:	00f71963          	bne	a4,a5,20015338 <__metal_driver_sifive_gpio0_interrupt_lines+0x27a>
/home/nicoladgg/wsFreedomStudio/sifive_hifive1_revb_HCSR04/bsp/build/debug/./metal/machine.h:540 (discriminator 1)
2001532a:	fe842703          	lw	a4,-24(s0)
2001532e:	47dd                	li	a5,23
20015330:	00f71463          	bne	a4,a5,20015338 <__metal_driver_sifive_gpio0_interrupt_lines+0x27a>
/home/nicoladgg/wsFreedomStudio/sifive_hifive1_revb_HCSR04/bsp/build/debug/./metal/machine.h:541
20015334:	47fd                	li	a5,31
20015336:	a8f9                	j	20015414 <__metal_driver_sifive_gpio0_interrupt_lines+0x356>
/home/nicoladgg/wsFreedomStudio/sifive_hifive1_revb_HCSR04/bsp/build/debug/./metal/machine.h:543
20015338:	fec42703          	lw	a4,-20(s0)
2001533c:	81818793          	addi	a5,gp,-2024 # 80000ab8 <__metal_dt_gpio_10012000>
20015340:	00f71a63          	bne	a4,a5,20015354 <__metal_driver_sifive_gpio0_interrupt_lines+0x296>
/home/nicoladgg/wsFreedomStudio/sifive_hifive1_revb_HCSR04/bsp/build/debug/./metal/machine.h:543 (discriminator 1)
20015344:	fe842703          	lw	a4,-24(s0)
20015348:	47e1                	li	a5,24
2001534a:	00f71563          	bne	a4,a5,20015354 <__metal_driver_sifive_gpio0_interrupt_lines+0x296>
/home/nicoladgg/wsFreedomStudio/sifive_hifive1_revb_HCSR04/bsp/build/debug/./metal/machine.h:544
2001534e:	02000793          	li	a5,32
20015352:	a0c9                	j	20015414 <__metal_driver_sifive_gpio0_interrupt_lines+0x356>
/home/nicoladgg/wsFreedomStudio/sifive_hifive1_revb_HCSR04/bsp/build/debug/./metal/machine.h:546
20015354:	fec42703          	lw	a4,-20(s0)
20015358:	81818793          	addi	a5,gp,-2024 # 80000ab8 <__metal_dt_gpio_10012000>
2001535c:	00f71a63          	bne	a4,a5,20015370 <__metal_driver_sifive_gpio0_interrupt_lines+0x2b2>
/home/nicoladgg/wsFreedomStudio/sifive_hifive1_revb_HCSR04/bsp/build/debug/./metal/machine.h:546 (discriminator 1)
20015360:	fe842703          	lw	a4,-24(s0)
20015364:	47e5                	li	a5,25
20015366:	00f71563          	bne	a4,a5,20015370 <__metal_driver_sifive_gpio0_interrupt_lines+0x2b2>
/home/nicoladgg/wsFreedomStudio/sifive_hifive1_revb_HCSR04/bsp/build/debug/./metal/machine.h:547
2001536a:	02100793          	li	a5,33
2001536e:	a05d                	j	20015414 <__metal_driver_sifive_gpio0_interrupt_lines+0x356>
/home/nicoladgg/wsFreedomStudio/sifive_hifive1_revb_HCSR04/bsp/build/debug/./metal/machine.h:549
20015370:	fec42703          	lw	a4,-20(s0)
20015374:	81818793          	addi	a5,gp,-2024 # 80000ab8 <__metal_dt_gpio_10012000>
20015378:	00f71a63          	bne	a4,a5,2001538c <__metal_driver_sifive_gpio0_interrupt_lines+0x2ce>
/home/nicoladgg/wsFreedomStudio/sifive_hifive1_revb_HCSR04/bsp/build/debug/./metal/machine.h:549 (discriminator 1)
2001537c:	fe842703          	lw	a4,-24(s0)
20015380:	47e9                	li	a5,26
20015382:	00f71563          	bne	a4,a5,2001538c <__metal_driver_sifive_gpio0_interrupt_lines+0x2ce>
/home/nicoladgg/wsFreedomStudio/sifive_hifive1_revb_HCSR04/bsp/build/debug/./metal/machine.h:550
20015386:	02200793          	li	a5,34
2001538a:	a069                	j	20015414 <__metal_driver_sifive_gpio0_interrupt_lines+0x356>
/home/nicoladgg/wsFreedomStudio/sifive_hifive1_revb_HCSR04/bsp/build/debug/./metal/machine.h:552
2001538c:	fec42703          	lw	a4,-20(s0)
20015390:	81818793          	addi	a5,gp,-2024 # 80000ab8 <__metal_dt_gpio_10012000>
20015394:	00f71a63          	bne	a4,a5,200153a8 <__metal_driver_sifive_gpio0_interrupt_lines+0x2ea>
/home/nicoladgg/wsFreedomStudio/sifive_hifive1_revb_HCSR04/bsp/build/debug/./metal/machine.h:552 (discriminator 1)
20015398:	fe842703          	lw	a4,-24(s0)
2001539c:	47ed                	li	a5,27
2001539e:	00f71563          	bne	a4,a5,200153a8 <__metal_driver_sifive_gpio0_interrupt_lines+0x2ea>
/home/nicoladgg/wsFreedomStudio/sifive_hifive1_revb_HCSR04/bsp/build/debug/./metal/machine.h:553
200153a2:	02300793          	li	a5,35
200153a6:	a0bd                	j	20015414 <__metal_driver_sifive_gpio0_interrupt_lines+0x356>
/home/nicoladgg/wsFreedomStudio/sifive_hifive1_revb_HCSR04/bsp/build/debug/./metal/machine.h:555
200153a8:	fec42703          	lw	a4,-20(s0)
200153ac:	81818793          	addi	a5,gp,-2024 # 80000ab8 <__metal_dt_gpio_10012000>
200153b0:	00f71a63          	bne	a4,a5,200153c4 <__metal_driver_sifive_gpio0_interrupt_lines+0x306>
/home/nicoladgg/wsFreedomStudio/sifive_hifive1_revb_HCSR04/bsp/build/debug/./metal/machine.h:555 (discriminator 1)
200153b4:	fe842703          	lw	a4,-24(s0)
200153b8:	47f1                	li	a5,28
200153ba:	00f71563          	bne	a4,a5,200153c4 <__metal_driver_sifive_gpio0_interrupt_lines+0x306>
/home/nicoladgg/wsFreedomStudio/sifive_hifive1_revb_HCSR04/bsp/build/debug/./metal/machine.h:556
200153be:	02400793          	li	a5,36
200153c2:	a889                	j	20015414 <__metal_driver_sifive_gpio0_interrupt_lines+0x356>
/home/nicoladgg/wsFreedomStudio/sifive_hifive1_revb_HCSR04/bsp/build/debug/./metal/machine.h:558
200153c4:	fec42703          	lw	a4,-20(s0)
200153c8:	81818793          	addi	a5,gp,-2024 # 80000ab8 <__metal_dt_gpio_10012000>
200153cc:	00f71963          	bne	a4,a5,200153de <__metal_driver_sifive_gpio0_interrupt_lines+0x320>
/home/nicoladgg/wsFreedomStudio/sifive_hifive1_revb_HCSR04/bsp/build/debug/./metal/machine.h:558 (discriminator 1)
200153d0:	fe842703          	lw	a4,-24(s0)
200153d4:	47f5                	li	a5,29
200153d6:	00f71463          	bne	a4,a5,200153de <__metal_driver_sifive_gpio0_interrupt_lines+0x320>
/home/nicoladgg/wsFreedomStudio/sifive_hifive1_revb_HCSR04/bsp/build/debug/./metal/machine.h:559
200153da:	47ed                	li	a5,27
200153dc:	a825                	j	20015414 <__metal_driver_sifive_gpio0_interrupt_lines+0x356>
/home/nicoladgg/wsFreedomStudio/sifive_hifive1_revb_HCSR04/bsp/build/debug/./metal/machine.h:561
200153de:	fec42703          	lw	a4,-20(s0)
200153e2:	81818793          	addi	a5,gp,-2024 # 80000ab8 <__metal_dt_gpio_10012000>
200153e6:	00f71963          	bne	a4,a5,200153f8 <__metal_driver_sifive_gpio0_interrupt_lines+0x33a>
/home/nicoladgg/wsFreedomStudio/sifive_hifive1_revb_HCSR04/bsp/build/debug/./metal/machine.h:561 (discriminator 1)
200153ea:	fe842703          	lw	a4,-24(s0)
200153ee:	47f9                	li	a5,30
200153f0:	00f71463          	bne	a4,a5,200153f8 <__metal_driver_sifive_gpio0_interrupt_lines+0x33a>
/home/nicoladgg/wsFreedomStudio/sifive_hifive1_revb_HCSR04/bsp/build/debug/./metal/machine.h:562
200153f4:	47f1                	li	a5,28
200153f6:	a839                	j	20015414 <__metal_driver_sifive_gpio0_interrupt_lines+0x356>
/home/nicoladgg/wsFreedomStudio/sifive_hifive1_revb_HCSR04/bsp/build/debug/./metal/machine.h:564
200153f8:	fec42703          	lw	a4,-20(s0)
200153fc:	81818793          	addi	a5,gp,-2024 # 80000ab8 <__metal_dt_gpio_10012000>
20015400:	00f71963          	bne	a4,a5,20015412 <__metal_driver_sifive_gpio0_interrupt_lines+0x354>
/home/nicoladgg/wsFreedomStudio/sifive_hifive1_revb_HCSR04/bsp/build/debug/./metal/machine.h:564 (discriminator 1)
20015404:	fe842703          	lw	a4,-24(s0)
20015408:	47fd                	li	a5,31
2001540a:	00f71463          	bne	a4,a5,20015412 <__metal_driver_sifive_gpio0_interrupt_lines+0x354>
/home/nicoladgg/wsFreedomStudio/sifive_hifive1_revb_HCSR04/bsp/build/debug/./metal/machine.h:565
2001540e:	47f5                	li	a5,29
20015410:	a011                	j	20015414 <__metal_driver_sifive_gpio0_interrupt_lines+0x356>
/home/nicoladgg/wsFreedomStudio/sifive_hifive1_revb_HCSR04/bsp/build/debug/./metal/machine.h:568
20015412:	4781                	li	a5,0
/home/nicoladgg/wsFreedomStudio/sifive_hifive1_revb_HCSR04/bsp/build/debug/./metal/machine.h:570
20015414:	853e                	mv	a0,a5
20015416:	4472                	lw	s0,28(sp)
20015418:	6105                	addi	sp,sp,32
2001541a:	8082                	ret

2001541c <__metal_driver_sifive_gpio0_enable_input>:
__metal_driver_sifive_gpio0_enable_input():
/home/nicoladgg/wsFreedomStudio/sifive_hifive1_revb_HCSR04/freedom-metal/src/drivers/sifive_gpio0.c:13
2001541c:	7179                	addi	sp,sp,-48
2001541e:	d606                	sw	ra,44(sp)
20015420:	d422                	sw	s0,40(sp)
20015422:	1800                	addi	s0,sp,48
20015424:	fca42e23          	sw	a0,-36(s0)
20015428:	fcb42c23          	sw	a1,-40(s0)
/home/nicoladgg/wsFreedomStudio/sifive_hifive1_revb_HCSR04/freedom-metal/src/drivers/sifive_gpio0.c:14
2001542c:	fdc42503          	lw	a0,-36(s0)
20015430:	c3fff0ef          	jal	ra,2001506e <__metal_driver_sifive_gpio0_base>
20015434:	87aa                	mv	a5,a0
20015436:	fef42623          	sw	a5,-20(s0)
/home/nicoladgg/wsFreedomStudio/sifive_hifive1_revb_HCSR04/freedom-metal/src/drivers/sifive_gpio0.c:17
2001543a:	fec42783          	lw	a5,-20(s0)
2001543e:	0791                	addi	a5,a5,4
20015440:	4398                	lw	a4,0(a5)
20015442:	fd842783          	lw	a5,-40(s0)
20015446:	fec42683          	lw	a3,-20(s0)
2001544a:	0691                	addi	a3,a3,4
2001544c:	8fd9                	or	a5,a5,a4
2001544e:	c29c                	sw	a5,0(a3)
/home/nicoladgg/wsFreedomStudio/sifive_hifive1_revb_HCSR04/freedom-metal/src/drivers/sifive_gpio0.c:19
20015450:	4781                	li	a5,0
/home/nicoladgg/wsFreedomStudio/sifive_hifive1_revb_HCSR04/freedom-metal/src/drivers/sifive_gpio0.c:20
20015452:	853e                	mv	a0,a5
20015454:	50b2                	lw	ra,44(sp)
20015456:	5422                	lw	s0,40(sp)
20015458:	6145                	addi	sp,sp,48
2001545a:	8082                	ret

2001545c <__metal_driver_sifive_gpio0_disable_input>:
__metal_driver_sifive_gpio0_disable_input():
/home/nicoladgg/wsFreedomStudio/sifive_hifive1_revb_HCSR04/freedom-metal/src/drivers/sifive_gpio0.c:23
2001545c:	7179                	addi	sp,sp,-48
2001545e:	d606                	sw	ra,44(sp)
20015460:	d422                	sw	s0,40(sp)
20015462:	1800                	addi	s0,sp,48
20015464:	fca42e23          	sw	a0,-36(s0)
20015468:	fcb42c23          	sw	a1,-40(s0)
/home/nicoladgg/wsFreedomStudio/sifive_hifive1_revb_HCSR04/freedom-metal/src/drivers/sifive_gpio0.c:24
2001546c:	fdc42503          	lw	a0,-36(s0)
20015470:	bffff0ef          	jal	ra,2001506e <__metal_driver_sifive_gpio0_base>
20015474:	87aa                	mv	a5,a0
20015476:	fef42623          	sw	a5,-20(s0)
/home/nicoladgg/wsFreedomStudio/sifive_hifive1_revb_HCSR04/freedom-metal/src/drivers/sifive_gpio0.c:27
2001547a:	fec42783          	lw	a5,-20(s0)
2001547e:	0791                	addi	a5,a5,4
20015480:	439c                	lw	a5,0(a5)
20015482:	fd842703          	lw	a4,-40(s0)
20015486:	fff74713          	not	a4,a4
2001548a:	86ba                	mv	a3,a4
2001548c:	fec42703          	lw	a4,-20(s0)
20015490:	0711                	addi	a4,a4,4
20015492:	8ff5                	and	a5,a5,a3
20015494:	c31c                	sw	a5,0(a4)
/home/nicoladgg/wsFreedomStudio/sifive_hifive1_revb_HCSR04/freedom-metal/src/drivers/sifive_gpio0.c:29
20015496:	4781                	li	a5,0
/home/nicoladgg/wsFreedomStudio/sifive_hifive1_revb_HCSR04/freedom-metal/src/drivers/sifive_gpio0.c:30
20015498:	853e                	mv	a0,a5
2001549a:	50b2                	lw	ra,44(sp)
2001549c:	5422                	lw	s0,40(sp)
2001549e:	6145                	addi	sp,sp,48
200154a0:	8082                	ret

200154a2 <__metal_driver_sifive_gpio0_input>:
__metal_driver_sifive_gpio0_input():
/home/nicoladgg/wsFreedomStudio/sifive_hifive1_revb_HCSR04/freedom-metal/src/drivers/sifive_gpio0.c:32
200154a2:	7179                	addi	sp,sp,-48
200154a4:	d606                	sw	ra,44(sp)
200154a6:	d422                	sw	s0,40(sp)
200154a8:	1800                	addi	s0,sp,48
200154aa:	fca42e23          	sw	a0,-36(s0)
/home/nicoladgg/wsFreedomStudio/sifive_hifive1_revb_HCSR04/freedom-metal/src/drivers/sifive_gpio0.c:33
200154ae:	fdc42503          	lw	a0,-36(s0)
200154b2:	bbdff0ef          	jal	ra,2001506e <__metal_driver_sifive_gpio0_base>
200154b6:	87aa                	mv	a5,a0
200154b8:	fef42623          	sw	a5,-20(s0)
/home/nicoladgg/wsFreedomStudio/sifive_hifive1_revb_HCSR04/freedom-metal/src/drivers/sifive_gpio0.c:35
200154bc:	fec42783          	lw	a5,-20(s0)
200154c0:	439c                	lw	a5,0(a5)
/home/nicoladgg/wsFreedomStudio/sifive_hifive1_revb_HCSR04/freedom-metal/src/drivers/sifive_gpio0.c:37
200154c2:	853e                	mv	a0,a5
200154c4:	50b2                	lw	ra,44(sp)
200154c6:	5422                	lw	s0,40(sp)
200154c8:	6145                	addi	sp,sp,48
200154ca:	8082                	ret

200154cc <__metal_driver_sifive_gpio0_output>:
__metal_driver_sifive_gpio0_output():
/home/nicoladgg/wsFreedomStudio/sifive_hifive1_revb_HCSR04/freedom-metal/src/drivers/sifive_gpio0.c:39
200154cc:	7179                	addi	sp,sp,-48
200154ce:	d606                	sw	ra,44(sp)
200154d0:	d422                	sw	s0,40(sp)
200154d2:	1800                	addi	s0,sp,48
200154d4:	fca42e23          	sw	a0,-36(s0)
/home/nicoladgg/wsFreedomStudio/sifive_hifive1_revb_HCSR04/freedom-metal/src/drivers/sifive_gpio0.c:40
200154d8:	fdc42503          	lw	a0,-36(s0)
200154dc:	b93ff0ef          	jal	ra,2001506e <__metal_driver_sifive_gpio0_base>
200154e0:	87aa                	mv	a5,a0
200154e2:	fef42623          	sw	a5,-20(s0)
/home/nicoladgg/wsFreedomStudio/sifive_hifive1_revb_HCSR04/freedom-metal/src/drivers/sifive_gpio0.c:42
200154e6:	fec42783          	lw	a5,-20(s0)
200154ea:	07b1                	addi	a5,a5,12
200154ec:	439c                	lw	a5,0(a5)
/home/nicoladgg/wsFreedomStudio/sifive_hifive1_revb_HCSR04/freedom-metal/src/drivers/sifive_gpio0.c:44
200154ee:	853e                	mv	a0,a5
200154f0:	50b2                	lw	ra,44(sp)
200154f2:	5422                	lw	s0,40(sp)
200154f4:	6145                	addi	sp,sp,48
200154f6:	8082                	ret

200154f8 <__metal_driver_sifive_gpio0_disable_output>:
__metal_driver_sifive_gpio0_disable_output():
/home/nicoladgg/wsFreedomStudio/sifive_hifive1_revb_HCSR04/freedom-metal/src/drivers/sifive_gpio0.c:47
200154f8:	7179                	addi	sp,sp,-48
200154fa:	d606                	sw	ra,44(sp)
200154fc:	d422                	sw	s0,40(sp)
200154fe:	1800                	addi	s0,sp,48
20015500:	fca42e23          	sw	a0,-36(s0)
20015504:	fcb42c23          	sw	a1,-40(s0)
/home/nicoladgg/wsFreedomStudio/sifive_hifive1_revb_HCSR04/freedom-metal/src/drivers/sifive_gpio0.c:48
20015508:	fdc42503          	lw	a0,-36(s0)
2001550c:	b63ff0ef          	jal	ra,2001506e <__metal_driver_sifive_gpio0_base>
20015510:	87aa                	mv	a5,a0
20015512:	fef42623          	sw	a5,-20(s0)
/home/nicoladgg/wsFreedomStudio/sifive_hifive1_revb_HCSR04/freedom-metal/src/drivers/sifive_gpio0.c:51
20015516:	fec42783          	lw	a5,-20(s0)
2001551a:	07a1                	addi	a5,a5,8
2001551c:	439c                	lw	a5,0(a5)
2001551e:	fd842703          	lw	a4,-40(s0)
20015522:	fff74713          	not	a4,a4
20015526:	86ba                	mv	a3,a4
20015528:	fec42703          	lw	a4,-20(s0)
2001552c:	0721                	addi	a4,a4,8
2001552e:	8ff5                	and	a5,a5,a3
20015530:	c31c                	sw	a5,0(a4)
/home/nicoladgg/wsFreedomStudio/sifive_hifive1_revb_HCSR04/freedom-metal/src/drivers/sifive_gpio0.c:53
20015532:	4781                	li	a5,0
/home/nicoladgg/wsFreedomStudio/sifive_hifive1_revb_HCSR04/freedom-metal/src/drivers/sifive_gpio0.c:54
20015534:	853e                	mv	a0,a5
20015536:	50b2                	lw	ra,44(sp)
20015538:	5422                	lw	s0,40(sp)
2001553a:	6145                	addi	sp,sp,48
2001553c:	8082                	ret

2001553e <__metal_driver_sifive_gpio0_enable_output>:
__metal_driver_sifive_gpio0_enable_output():
/home/nicoladgg/wsFreedomStudio/sifive_hifive1_revb_HCSR04/freedom-metal/src/drivers/sifive_gpio0.c:57
2001553e:	7179                	addi	sp,sp,-48
20015540:	d606                	sw	ra,44(sp)
20015542:	d422                	sw	s0,40(sp)
20015544:	1800                	addi	s0,sp,48
20015546:	fca42e23          	sw	a0,-36(s0)
2001554a:	fcb42c23          	sw	a1,-40(s0)
/home/nicoladgg/wsFreedomStudio/sifive_hifive1_revb_HCSR04/freedom-metal/src/drivers/sifive_gpio0.c:58
2001554e:	fdc42503          	lw	a0,-36(s0)
20015552:	b1dff0ef          	jal	ra,2001506e <__metal_driver_sifive_gpio0_base>
20015556:	87aa                	mv	a5,a0
20015558:	fef42623          	sw	a5,-20(s0)
/home/nicoladgg/wsFreedomStudio/sifive_hifive1_revb_HCSR04/freedom-metal/src/drivers/sifive_gpio0.c:61
2001555c:	fec42783          	lw	a5,-20(s0)
20015560:	07a1                	addi	a5,a5,8
20015562:	4398                	lw	a4,0(a5)
20015564:	fd842783          	lw	a5,-40(s0)
20015568:	fec42683          	lw	a3,-20(s0)
2001556c:	06a1                	addi	a3,a3,8
2001556e:	8fd9                	or	a5,a5,a4
20015570:	c29c                	sw	a5,0(a3)
/home/nicoladgg/wsFreedomStudio/sifive_hifive1_revb_HCSR04/freedom-metal/src/drivers/sifive_gpio0.c:63
20015572:	4781                	li	a5,0
/home/nicoladgg/wsFreedomStudio/sifive_hifive1_revb_HCSR04/freedom-metal/src/drivers/sifive_gpio0.c:64
20015574:	853e                	mv	a0,a5
20015576:	50b2                	lw	ra,44(sp)
20015578:	5422                	lw	s0,40(sp)
2001557a:	6145                	addi	sp,sp,48
2001557c:	8082                	ret

2001557e <__metal_driver_sifive_gpio0_output_set>:
__metal_driver_sifive_gpio0_output_set():
/home/nicoladgg/wsFreedomStudio/sifive_hifive1_revb_HCSR04/freedom-metal/src/drivers/sifive_gpio0.c:67
2001557e:	7179                	addi	sp,sp,-48
20015580:	d606                	sw	ra,44(sp)
20015582:	d422                	sw	s0,40(sp)
20015584:	1800                	addi	s0,sp,48
20015586:	fca42e23          	sw	a0,-36(s0)
2001558a:	fcb42c23          	sw	a1,-40(s0)
/home/nicoladgg/wsFreedomStudio/sifive_hifive1_revb_HCSR04/freedom-metal/src/drivers/sifive_gpio0.c:68
2001558e:	fdc42503          	lw	a0,-36(s0)
20015592:	addff0ef          	jal	ra,2001506e <__metal_driver_sifive_gpio0_base>
20015596:	87aa                	mv	a5,a0
20015598:	fef42623          	sw	a5,-20(s0)
/home/nicoladgg/wsFreedomStudio/sifive_hifive1_revb_HCSR04/freedom-metal/src/drivers/sifive_gpio0.c:70
2001559c:	fec42783          	lw	a5,-20(s0)
200155a0:	07b1                	addi	a5,a5,12
200155a2:	4398                	lw	a4,0(a5)
200155a4:	fd842783          	lw	a5,-40(s0)
200155a8:	fec42683          	lw	a3,-20(s0)
200155ac:	06b1                	addi	a3,a3,12
200155ae:	8fd9                	or	a5,a5,a4
200155b0:	c29c                	sw	a5,0(a3)
/home/nicoladgg/wsFreedomStudio/sifive_hifive1_revb_HCSR04/freedom-metal/src/drivers/sifive_gpio0.c:73
200155b2:	4781                	li	a5,0
/home/nicoladgg/wsFreedomStudio/sifive_hifive1_revb_HCSR04/freedom-metal/src/drivers/sifive_gpio0.c:74
200155b4:	853e                	mv	a0,a5
200155b6:	50b2                	lw	ra,44(sp)
200155b8:	5422                	lw	s0,40(sp)
200155ba:	6145                	addi	sp,sp,48
200155bc:	8082                	ret

200155be <__metal_driver_sifive_gpio0_output_clear>:
__metal_driver_sifive_gpio0_output_clear():
/home/nicoladgg/wsFreedomStudio/sifive_hifive1_revb_HCSR04/freedom-metal/src/drivers/sifive_gpio0.c:77
200155be:	7179                	addi	sp,sp,-48
200155c0:	d606                	sw	ra,44(sp)
200155c2:	d422                	sw	s0,40(sp)
200155c4:	1800                	addi	s0,sp,48
200155c6:	fca42e23          	sw	a0,-36(s0)
200155ca:	fcb42c23          	sw	a1,-40(s0)
/home/nicoladgg/wsFreedomStudio/sifive_hifive1_revb_HCSR04/freedom-metal/src/drivers/sifive_gpio0.c:78
200155ce:	fdc42503          	lw	a0,-36(s0)
200155d2:	a9dff0ef          	jal	ra,2001506e <__metal_driver_sifive_gpio0_base>
200155d6:	87aa                	mv	a5,a0
200155d8:	fef42623          	sw	a5,-20(s0)
/home/nicoladgg/wsFreedomStudio/sifive_hifive1_revb_HCSR04/freedom-metal/src/drivers/sifive_gpio0.c:80
200155dc:	fec42783          	lw	a5,-20(s0)
200155e0:	07b1                	addi	a5,a5,12
200155e2:	439c                	lw	a5,0(a5)
/home/nicoladgg/wsFreedomStudio/sifive_hifive1_revb_HCSR04/freedom-metal/src/drivers/sifive_gpio0.c:81
200155e4:	fd842703          	lw	a4,-40(s0)
200155e8:	fff74713          	not	a4,a4
200155ec:	86ba                	mv	a3,a4
/home/nicoladgg/wsFreedomStudio/sifive_hifive1_revb_HCSR04/freedom-metal/src/drivers/sifive_gpio0.c:80
200155ee:	fec42703          	lw	a4,-20(s0)
200155f2:	0731                	addi	a4,a4,12
200155f4:	8ff5                	and	a5,a5,a3
200155f6:	c31c                	sw	a5,0(a4)
/home/nicoladgg/wsFreedomStudio/sifive_hifive1_revb_HCSR04/freedom-metal/src/drivers/sifive_gpio0.c:83
200155f8:	4781                	li	a5,0
/home/nicoladgg/wsFreedomStudio/sifive_hifive1_revb_HCSR04/freedom-metal/src/drivers/sifive_gpio0.c:84
200155fa:	853e                	mv	a0,a5
200155fc:	50b2                	lw	ra,44(sp)
200155fe:	5422                	lw	s0,40(sp)
20015600:	6145                	addi	sp,sp,48
20015602:	8082                	ret

20015604 <__metal_driver_sifive_gpio0_output_toggle>:
__metal_driver_sifive_gpio0_output_toggle():
/home/nicoladgg/wsFreedomStudio/sifive_hifive1_revb_HCSR04/freedom-metal/src/drivers/sifive_gpio0.c:87
20015604:	7179                	addi	sp,sp,-48
20015606:	d606                	sw	ra,44(sp)
20015608:	d422                	sw	s0,40(sp)
2001560a:	1800                	addi	s0,sp,48
2001560c:	fca42e23          	sw	a0,-36(s0)
20015610:	fcb42c23          	sw	a1,-40(s0)
/home/nicoladgg/wsFreedomStudio/sifive_hifive1_revb_HCSR04/freedom-metal/src/drivers/sifive_gpio0.c:88
20015614:	fdc42503          	lw	a0,-36(s0)
20015618:	a57ff0ef          	jal	ra,2001506e <__metal_driver_sifive_gpio0_base>
2001561c:	87aa                	mv	a5,a0
2001561e:	fef42623          	sw	a5,-20(s0)
/home/nicoladgg/wsFreedomStudio/sifive_hifive1_revb_HCSR04/freedom-metal/src/drivers/sifive_gpio0.c:91
20015622:	fec42783          	lw	a5,-20(s0)
20015626:	07b1                	addi	a5,a5,12
20015628:	4398                	lw	a4,0(a5)
/home/nicoladgg/wsFreedomStudio/sifive_hifive1_revb_HCSR04/freedom-metal/src/drivers/sifive_gpio0.c:92
2001562a:	fd842783          	lw	a5,-40(s0)
/home/nicoladgg/wsFreedomStudio/sifive_hifive1_revb_HCSR04/freedom-metal/src/drivers/sifive_gpio0.c:90
2001562e:	fec42683          	lw	a3,-20(s0)
20015632:	06b1                	addi	a3,a3,12
/home/nicoladgg/wsFreedomStudio/sifive_hifive1_revb_HCSR04/freedom-metal/src/drivers/sifive_gpio0.c:92
20015634:	8fb9                	xor	a5,a5,a4
/home/nicoladgg/wsFreedomStudio/sifive_hifive1_revb_HCSR04/freedom-metal/src/drivers/sifive_gpio0.c:90
20015636:	c29c                	sw	a5,0(a3)
/home/nicoladgg/wsFreedomStudio/sifive_hifive1_revb_HCSR04/freedom-metal/src/drivers/sifive_gpio0.c:95
20015638:	4781                	li	a5,0
/home/nicoladgg/wsFreedomStudio/sifive_hifive1_revb_HCSR04/freedom-metal/src/drivers/sifive_gpio0.c:96
2001563a:	853e                	mv	a0,a5
2001563c:	50b2                	lw	ra,44(sp)
2001563e:	5422                	lw	s0,40(sp)
20015640:	6145                	addi	sp,sp,48
20015642:	8082                	ret

20015644 <__metal_driver_sifive_gpio0_enable_io>:
__metal_driver_sifive_gpio0_enable_io():
/home/nicoladgg/wsFreedomStudio/sifive_hifive1_revb_HCSR04/freedom-metal/src/drivers/sifive_gpio0.c:99
20015644:	7179                	addi	sp,sp,-48
20015646:	d606                	sw	ra,44(sp)
20015648:	d422                	sw	s0,40(sp)
2001564a:	1800                	addi	s0,sp,48
2001564c:	fca42e23          	sw	a0,-36(s0)
20015650:	fcb42c23          	sw	a1,-40(s0)
20015654:	fcc42a23          	sw	a2,-44(s0)
/home/nicoladgg/wsFreedomStudio/sifive_hifive1_revb_HCSR04/freedom-metal/src/drivers/sifive_gpio0.c:100
20015658:	fdc42503          	lw	a0,-36(s0)
2001565c:	a13ff0ef          	jal	ra,2001506e <__metal_driver_sifive_gpio0_base>
20015660:	87aa                	mv	a5,a0
20015662:	fef42623          	sw	a5,-20(s0)
/home/nicoladgg/wsFreedomStudio/sifive_hifive1_revb_HCSR04/freedom-metal/src/drivers/sifive_gpio0.c:103
20015666:	fec42783          	lw	a5,-20(s0)
2001566a:	03c78793          	addi	a5,a5,60
2001566e:	4398                	lw	a4,0(a5)
20015670:	fd842783          	lw	a5,-40(s0)
20015674:	fec42683          	lw	a3,-20(s0)
20015678:	03c68693          	addi	a3,a3,60
2001567c:	8fd9                	or	a5,a5,a4
2001567e:	c29c                	sw	a5,0(a3)
/home/nicoladgg/wsFreedomStudio/sifive_hifive1_revb_HCSR04/freedom-metal/src/drivers/sifive_gpio0.c:104
20015680:	fec42783          	lw	a5,-20(s0)
20015684:	03878793          	addi	a5,a5,56
20015688:	4398                	lw	a4,0(a5)
2001568a:	fd442783          	lw	a5,-44(s0)
2001568e:	fec42683          	lw	a3,-20(s0)
20015692:	03868693          	addi	a3,a3,56
20015696:	8fd9                	or	a5,a5,a4
20015698:	c29c                	sw	a5,0(a3)
/home/nicoladgg/wsFreedomStudio/sifive_hifive1_revb_HCSR04/freedom-metal/src/drivers/sifive_gpio0.c:107
2001569a:	4781                	li	a5,0
/home/nicoladgg/wsFreedomStudio/sifive_hifive1_revb_HCSR04/freedom-metal/src/drivers/sifive_gpio0.c:108
2001569c:	853e                	mv	a0,a5
2001569e:	50b2                	lw	ra,44(sp)
200156a0:	5422                	lw	s0,40(sp)
200156a2:	6145                	addi	sp,sp,48
200156a4:	8082                	ret

200156a6 <__metal_driver_sifive_gpio0_disable_io>:
__metal_driver_sifive_gpio0_disable_io():
/home/nicoladgg/wsFreedomStudio/sifive_hifive1_revb_HCSR04/freedom-metal/src/drivers/sifive_gpio0.c:111
200156a6:	7179                	addi	sp,sp,-48
200156a8:	d606                	sw	ra,44(sp)
200156aa:	d422                	sw	s0,40(sp)
200156ac:	1800                	addi	s0,sp,48
200156ae:	fca42e23          	sw	a0,-36(s0)
200156b2:	fcb42c23          	sw	a1,-40(s0)
/home/nicoladgg/wsFreedomStudio/sifive_hifive1_revb_HCSR04/freedom-metal/src/drivers/sifive_gpio0.c:112
200156b6:	fdc42503          	lw	a0,-36(s0)
200156ba:	9b5ff0ef          	jal	ra,2001506e <__metal_driver_sifive_gpio0_base>
200156be:	87aa                	mv	a5,a0
200156c0:	fef42623          	sw	a5,-20(s0)
/home/nicoladgg/wsFreedomStudio/sifive_hifive1_revb_HCSR04/freedom-metal/src/drivers/sifive_gpio0.c:114
200156c4:	fec42783          	lw	a5,-20(s0)
200156c8:	03878793          	addi	a5,a5,56
200156cc:	439c                	lw	a5,0(a5)
/home/nicoladgg/wsFreedomStudio/sifive_hifive1_revb_HCSR04/freedom-metal/src/drivers/sifive_gpio0.c:115
200156ce:	fd842703          	lw	a4,-40(s0)
200156d2:	fff74713          	not	a4,a4
200156d6:	86ba                	mv	a3,a4
/home/nicoladgg/wsFreedomStudio/sifive_hifive1_revb_HCSR04/freedom-metal/src/drivers/sifive_gpio0.c:114
200156d8:	fec42703          	lw	a4,-20(s0)
200156dc:	03870713          	addi	a4,a4,56
200156e0:	8ff5                	and	a5,a5,a3
200156e2:	c31c                	sw	a5,0(a4)
/home/nicoladgg/wsFreedomStudio/sifive_hifive1_revb_HCSR04/freedom-metal/src/drivers/sifive_gpio0.c:117
200156e4:	4781                	li	a5,0
/home/nicoladgg/wsFreedomStudio/sifive_hifive1_revb_HCSR04/freedom-metal/src/drivers/sifive_gpio0.c:118
200156e6:	853e                	mv	a0,a5
200156e8:	50b2                	lw	ra,44(sp)
200156ea:	5422                	lw	s0,40(sp)
200156ec:	6145                	addi	sp,sp,48
200156ee:	8082                	ret

200156f0 <__metal_driver_sifive_gpio0_config_int>:
__metal_driver_sifive_gpio0_config_int():
/home/nicoladgg/wsFreedomStudio/sifive_hifive1_revb_HCSR04/freedom-metal/src/drivers/sifive_gpio0.c:121
200156f0:	7179                	addi	sp,sp,-48
200156f2:	d606                	sw	ra,44(sp)
200156f4:	d422                	sw	s0,40(sp)
200156f6:	1800                	addi	s0,sp,48
200156f8:	fca42e23          	sw	a0,-36(s0)
200156fc:	fcb42c23          	sw	a1,-40(s0)
20015700:	fcc42a23          	sw	a2,-44(s0)
/home/nicoladgg/wsFreedomStudio/sifive_hifive1_revb_HCSR04/freedom-metal/src/drivers/sifive_gpio0.c:122
20015704:	fdc42503          	lw	a0,-36(s0)
20015708:	967ff0ef          	jal	ra,2001506e <__metal_driver_sifive_gpio0_base>
2001570c:	87aa                	mv	a5,a0
2001570e:	fef42623          	sw	a5,-20(s0)
20015712:	fd442703          	lw	a4,-44(s0)
20015716:	479d                	li	a5,7
20015718:	1ce7e963          	bltu	a5,a4,200158ea <__metal_driver_sifive_gpio0_config_int+0x1fa>
2001571c:	fd442783          	lw	a5,-44(s0)
20015720:	00279713          	slli	a4,a5,0x2
20015724:	200117b7          	lui	a5,0x20011
20015728:	efc78793          	addi	a5,a5,-260 # 20010efc <__metal_driver_vtable_sifive_fe310_g000_pll+0xc>
2001572c:	97ba                	add	a5,a5,a4
2001572e:	439c                	lw	a5,0(a5)
20015730:	8782                	jr	a5
/home/nicoladgg/wsFreedomStudio/sifive_hifive1_revb_HCSR04/freedom-metal/src/drivers/sifive_gpio0.c:127
20015732:	fec42783          	lw	a5,-20(s0)
20015736:	07e1                	addi	a5,a5,24
20015738:	439c                	lw	a5,0(a5)
2001573a:	fd842703          	lw	a4,-40(s0)
2001573e:	fff74713          	not	a4,a4
20015742:	86ba                	mv	a3,a4
20015744:	fec42703          	lw	a4,-20(s0)
20015748:	0761                	addi	a4,a4,24
2001574a:	8ff5                	and	a5,a5,a3
2001574c:	c31c                	sw	a5,0(a4)
/home/nicoladgg/wsFreedomStudio/sifive_hifive1_revb_HCSR04/freedom-metal/src/drivers/sifive_gpio0.c:129
2001574e:	fec42783          	lw	a5,-20(s0)
20015752:	02078793          	addi	a5,a5,32
20015756:	439c                	lw	a5,0(a5)
20015758:	fd842703          	lw	a4,-40(s0)
2001575c:	fff74713          	not	a4,a4
20015760:	86ba                	mv	a3,a4
20015762:	fec42703          	lw	a4,-20(s0)
20015766:	02070713          	addi	a4,a4,32
2001576a:	8ff5                	and	a5,a5,a3
2001576c:	c31c                	sw	a5,0(a4)
/home/nicoladgg/wsFreedomStudio/sifive_hifive1_revb_HCSR04/freedom-metal/src/drivers/sifive_gpio0.c:131
2001576e:	fec42783          	lw	a5,-20(s0)
20015772:	02878793          	addi	a5,a5,40
20015776:	439c                	lw	a5,0(a5)
20015778:	fd842703          	lw	a4,-40(s0)
2001577c:	fff74713          	not	a4,a4
20015780:	86ba                	mv	a3,a4
20015782:	fec42703          	lw	a4,-20(s0)
20015786:	02870713          	addi	a4,a4,40
2001578a:	8ff5                	and	a5,a5,a3
2001578c:	c31c                	sw	a5,0(a4)
/home/nicoladgg/wsFreedomStudio/sifive_hifive1_revb_HCSR04/freedom-metal/src/drivers/sifive_gpio0.c:133
2001578e:	fec42783          	lw	a5,-20(s0)
20015792:	03078793          	addi	a5,a5,48
20015796:	439c                	lw	a5,0(a5)
20015798:	fd842703          	lw	a4,-40(s0)
2001579c:	fff74713          	not	a4,a4
200157a0:	86ba                	mv	a3,a4
200157a2:	fec42703          	lw	a4,-20(s0)
200157a6:	03070713          	addi	a4,a4,48
200157aa:	8ff5                	and	a5,a5,a3
200157ac:	c31c                	sw	a5,0(a4)
/home/nicoladgg/wsFreedomStudio/sifive_hifive1_revb_HCSR04/freedom-metal/src/drivers/sifive_gpio0.c:134
200157ae:	aa35                	j	200158ea <__metal_driver_sifive_gpio0_config_int+0x1fa>
/home/nicoladgg/wsFreedomStudio/sifive_hifive1_revb_HCSR04/freedom-metal/src/drivers/sifive_gpio0.c:137
200157b0:	fec42783          	lw	a5,-20(s0)
200157b4:	07e1                	addi	a5,a5,24
200157b6:	4398                	lw	a4,0(a5)
200157b8:	fd842783          	lw	a5,-40(s0)
200157bc:	fec42683          	lw	a3,-20(s0)
200157c0:	06e1                	addi	a3,a3,24
200157c2:	8fd9                	or	a5,a5,a4
200157c4:	c29c                	sw	a5,0(a3)
/home/nicoladgg/wsFreedomStudio/sifive_hifive1_revb_HCSR04/freedom-metal/src/drivers/sifive_gpio0.c:138
200157c6:	a215                	j	200158ea <__metal_driver_sifive_gpio0_config_int+0x1fa>
/home/nicoladgg/wsFreedomStudio/sifive_hifive1_revb_HCSR04/freedom-metal/src/drivers/sifive_gpio0.c:141
200157c8:	fec42783          	lw	a5,-20(s0)
200157cc:	02078793          	addi	a5,a5,32
200157d0:	4398                	lw	a4,0(a5)
200157d2:	fd842783          	lw	a5,-40(s0)
200157d6:	fec42683          	lw	a3,-20(s0)
200157da:	02068693          	addi	a3,a3,32
200157de:	8fd9                	or	a5,a5,a4
200157e0:	c29c                	sw	a5,0(a3)
/home/nicoladgg/wsFreedomStudio/sifive_hifive1_revb_HCSR04/freedom-metal/src/drivers/sifive_gpio0.c:142
200157e2:	a221                	j	200158ea <__metal_driver_sifive_gpio0_config_int+0x1fa>
/home/nicoladgg/wsFreedomStudio/sifive_hifive1_revb_HCSR04/freedom-metal/src/drivers/sifive_gpio0.c:145
200157e4:	fec42783          	lw	a5,-20(s0)
200157e8:	07e1                	addi	a5,a5,24
200157ea:	4398                	lw	a4,0(a5)
200157ec:	fd842783          	lw	a5,-40(s0)
200157f0:	fec42683          	lw	a3,-20(s0)
200157f4:	06e1                	addi	a3,a3,24
200157f6:	8fd9                	or	a5,a5,a4
200157f8:	c29c                	sw	a5,0(a3)
/home/nicoladgg/wsFreedomStudio/sifive_hifive1_revb_HCSR04/freedom-metal/src/drivers/sifive_gpio0.c:147
200157fa:	fec42783          	lw	a5,-20(s0)
200157fe:	02078793          	addi	a5,a5,32
20015802:	4398                	lw	a4,0(a5)
20015804:	fd842783          	lw	a5,-40(s0)
20015808:	fec42683          	lw	a3,-20(s0)
2001580c:	02068693          	addi	a3,a3,32
20015810:	8fd9                	or	a5,a5,a4
20015812:	c29c                	sw	a5,0(a3)
/home/nicoladgg/wsFreedomStudio/sifive_hifive1_revb_HCSR04/freedom-metal/src/drivers/sifive_gpio0.c:148
20015814:	a8d9                	j	200158ea <__metal_driver_sifive_gpio0_config_int+0x1fa>
/home/nicoladgg/wsFreedomStudio/sifive_hifive1_revb_HCSR04/freedom-metal/src/drivers/sifive_gpio0.c:151
20015816:	fec42783          	lw	a5,-20(s0)
2001581a:	02878793          	addi	a5,a5,40
2001581e:	4398                	lw	a4,0(a5)
20015820:	fd842783          	lw	a5,-40(s0)
20015824:	fec42683          	lw	a3,-20(s0)
20015828:	02868693          	addi	a3,a3,40
2001582c:	8fd9                	or	a5,a5,a4
2001582e:	c29c                	sw	a5,0(a3)
/home/nicoladgg/wsFreedomStudio/sifive_hifive1_revb_HCSR04/freedom-metal/src/drivers/sifive_gpio0.c:152
20015830:	a86d                	j	200158ea <__metal_driver_sifive_gpio0_config_int+0x1fa>
/home/nicoladgg/wsFreedomStudio/sifive_hifive1_revb_HCSR04/freedom-metal/src/drivers/sifive_gpio0.c:155
20015832:	fec42783          	lw	a5,-20(s0)
20015836:	03078793          	addi	a5,a5,48
2001583a:	4398                	lw	a4,0(a5)
2001583c:	fd842783          	lw	a5,-40(s0)
20015840:	fec42683          	lw	a3,-20(s0)
20015844:	03068693          	addi	a3,a3,48
20015848:	8fd9                	or	a5,a5,a4
2001584a:	c29c                	sw	a5,0(a3)
/home/nicoladgg/wsFreedomStudio/sifive_hifive1_revb_HCSR04/freedom-metal/src/drivers/sifive_gpio0.c:156
2001584c:	a879                	j	200158ea <__metal_driver_sifive_gpio0_config_int+0x1fa>
/home/nicoladgg/wsFreedomStudio/sifive_hifive1_revb_HCSR04/freedom-metal/src/drivers/sifive_gpio0.c:159
2001584e:	fec42783          	lw	a5,-20(s0)
20015852:	02878793          	addi	a5,a5,40
20015856:	4398                	lw	a4,0(a5)
20015858:	fd842783          	lw	a5,-40(s0)
2001585c:	fec42683          	lw	a3,-20(s0)
20015860:	02868693          	addi	a3,a3,40
20015864:	8fd9                	or	a5,a5,a4
20015866:	c29c                	sw	a5,0(a3)
/home/nicoladgg/wsFreedomStudio/sifive_hifive1_revb_HCSR04/freedom-metal/src/drivers/sifive_gpio0.c:161
20015868:	fec42783          	lw	a5,-20(s0)
2001586c:	03078793          	addi	a5,a5,48
20015870:	4398                	lw	a4,0(a5)
20015872:	fd842783          	lw	a5,-40(s0)
20015876:	fec42683          	lw	a3,-20(s0)
2001587a:	03068693          	addi	a3,a3,48
2001587e:	8fd9                	or	a5,a5,a4
20015880:	c29c                	sw	a5,0(a3)
/home/nicoladgg/wsFreedomStudio/sifive_hifive1_revb_HCSR04/freedom-metal/src/drivers/sifive_gpio0.c:162
20015882:	a0a5                	j	200158ea <__metal_driver_sifive_gpio0_config_int+0x1fa>
/home/nicoladgg/wsFreedomStudio/sifive_hifive1_revb_HCSR04/freedom-metal/src/drivers/sifive_gpio0.c:165
20015884:	fec42783          	lw	a5,-20(s0)
20015888:	07e1                	addi	a5,a5,24
2001588a:	4398                	lw	a4,0(a5)
2001588c:	fd842783          	lw	a5,-40(s0)
20015890:	fec42683          	lw	a3,-20(s0)
20015894:	06e1                	addi	a3,a3,24
20015896:	8fd9                	or	a5,a5,a4
20015898:	c29c                	sw	a5,0(a3)
/home/nicoladgg/wsFreedomStudio/sifive_hifive1_revb_HCSR04/freedom-metal/src/drivers/sifive_gpio0.c:167
2001589a:	fec42783          	lw	a5,-20(s0)
2001589e:	02078793          	addi	a5,a5,32
200158a2:	4398                	lw	a4,0(a5)
200158a4:	fd842783          	lw	a5,-40(s0)
200158a8:	fec42683          	lw	a3,-20(s0)
200158ac:	02068693          	addi	a3,a3,32
200158b0:	8fd9                	or	a5,a5,a4
200158b2:	c29c                	sw	a5,0(a3)
/home/nicoladgg/wsFreedomStudio/sifive_hifive1_revb_HCSR04/freedom-metal/src/drivers/sifive_gpio0.c:169
200158b4:	fec42783          	lw	a5,-20(s0)
200158b8:	02878793          	addi	a5,a5,40
200158bc:	4398                	lw	a4,0(a5)
200158be:	fd842783          	lw	a5,-40(s0)
200158c2:	fec42683          	lw	a3,-20(s0)
200158c6:	02868693          	addi	a3,a3,40
200158ca:	8fd9                	or	a5,a5,a4
200158cc:	c29c                	sw	a5,0(a3)
/home/nicoladgg/wsFreedomStudio/sifive_hifive1_revb_HCSR04/freedom-metal/src/drivers/sifive_gpio0.c:171
200158ce:	fec42783          	lw	a5,-20(s0)
200158d2:	03078793          	addi	a5,a5,48
200158d6:	4398                	lw	a4,0(a5)
200158d8:	fd842783          	lw	a5,-40(s0)
200158dc:	fec42683          	lw	a3,-20(s0)
200158e0:	03068693          	addi	a3,a3,48
200158e4:	8fd9                	or	a5,a5,a4
200158e6:	c29c                	sw	a5,0(a3)
/home/nicoladgg/wsFreedomStudio/sifive_hifive1_revb_HCSR04/freedom-metal/src/drivers/sifive_gpio0.c:172
200158e8:	0001                	nop
/home/nicoladgg/wsFreedomStudio/sifive_hifive1_revb_HCSR04/freedom-metal/src/drivers/sifive_gpio0.c:174
200158ea:	4781                	li	a5,0
/home/nicoladgg/wsFreedomStudio/sifive_hifive1_revb_HCSR04/freedom-metal/src/drivers/sifive_gpio0.c:175
200158ec:	853e                	mv	a0,a5
200158ee:	50b2                	lw	ra,44(sp)
200158f0:	5422                	lw	s0,40(sp)
200158f2:	6145                	addi	sp,sp,48
200158f4:	8082                	ret

200158f6 <__metal_driver_sifive_gpio0_clear_int>:
__metal_driver_sifive_gpio0_clear_int():
/home/nicoladgg/wsFreedomStudio/sifive_hifive1_revb_HCSR04/freedom-metal/src/drivers/sifive_gpio0.c:178
200158f6:	7179                	addi	sp,sp,-48
200158f8:	d606                	sw	ra,44(sp)
200158fa:	d422                	sw	s0,40(sp)
200158fc:	1800                	addi	s0,sp,48
200158fe:	fca42e23          	sw	a0,-36(s0)
20015902:	fcb42c23          	sw	a1,-40(s0)
20015906:	fcc42a23          	sw	a2,-44(s0)
/home/nicoladgg/wsFreedomStudio/sifive_hifive1_revb_HCSR04/freedom-metal/src/drivers/sifive_gpio0.c:179
2001590a:	fdc42503          	lw	a0,-36(s0)
2001590e:	f60ff0ef          	jal	ra,2001506e <__metal_driver_sifive_gpio0_base>
20015912:	87aa                	mv	a5,a0
20015914:	fef42623          	sw	a5,-20(s0)
20015918:	fd442703          	lw	a4,-44(s0)
2001591c:	479d                	li	a5,7
2001591e:	14e7ea63          	bltu	a5,a4,20015a72 <__metal_driver_sifive_gpio0_clear_int+0x17c>
20015922:	fd442783          	lw	a5,-44(s0)
20015926:	00279713          	slli	a4,a5,0x2
2001592a:	200117b7          	lui	a5,0x20011
2001592e:	f1c78793          	addi	a5,a5,-228 # 20010f1c <__metal_driver_vtable_sifive_fe310_g000_pll+0x2c>
20015932:	97ba                	add	a5,a5,a4
20015934:	439c                	lw	a5,0(a5)
20015936:	8782                	jr	a5
/home/nicoladgg/wsFreedomStudio/sifive_hifive1_revb_HCSR04/freedom-metal/src/drivers/sifive_gpio0.c:184
20015938:	fec42783          	lw	a5,-20(s0)
2001593c:	07f1                	addi	a5,a5,28
2001593e:	4398                	lw	a4,0(a5)
20015940:	fd842783          	lw	a5,-40(s0)
20015944:	fec42683          	lw	a3,-20(s0)
20015948:	06f1                	addi	a3,a3,28
2001594a:	8fd9                	or	a5,a5,a4
2001594c:	c29c                	sw	a5,0(a3)
/home/nicoladgg/wsFreedomStudio/sifive_hifive1_revb_HCSR04/freedom-metal/src/drivers/sifive_gpio0.c:185
2001594e:	a215                	j	20015a72 <__metal_driver_sifive_gpio0_clear_int+0x17c>
/home/nicoladgg/wsFreedomStudio/sifive_hifive1_revb_HCSR04/freedom-metal/src/drivers/sifive_gpio0.c:188
20015950:	fec42783          	lw	a5,-20(s0)
20015954:	02478793          	addi	a5,a5,36
20015958:	4398                	lw	a4,0(a5)
2001595a:	fd842783          	lw	a5,-40(s0)
2001595e:	fec42683          	lw	a3,-20(s0)
20015962:	02468693          	addi	a3,a3,36
20015966:	8fd9                	or	a5,a5,a4
20015968:	c29c                	sw	a5,0(a3)
/home/nicoladgg/wsFreedomStudio/sifive_hifive1_revb_HCSR04/freedom-metal/src/drivers/sifive_gpio0.c:189
2001596a:	a221                	j	20015a72 <__metal_driver_sifive_gpio0_clear_int+0x17c>
/home/nicoladgg/wsFreedomStudio/sifive_hifive1_revb_HCSR04/freedom-metal/src/drivers/sifive_gpio0.c:192
2001596c:	fec42783          	lw	a5,-20(s0)
20015970:	07f1                	addi	a5,a5,28
20015972:	4398                	lw	a4,0(a5)
20015974:	fd842783          	lw	a5,-40(s0)
20015978:	fec42683          	lw	a3,-20(s0)
2001597c:	06f1                	addi	a3,a3,28
2001597e:	8fd9                	or	a5,a5,a4
20015980:	c29c                	sw	a5,0(a3)
/home/nicoladgg/wsFreedomStudio/sifive_hifive1_revb_HCSR04/freedom-metal/src/drivers/sifive_gpio0.c:194
20015982:	fec42783          	lw	a5,-20(s0)
20015986:	02478793          	addi	a5,a5,36
2001598a:	4398                	lw	a4,0(a5)
2001598c:	fd842783          	lw	a5,-40(s0)
20015990:	fec42683          	lw	a3,-20(s0)
20015994:	02468693          	addi	a3,a3,36
20015998:	8fd9                	or	a5,a5,a4
2001599a:	c29c                	sw	a5,0(a3)
/home/nicoladgg/wsFreedomStudio/sifive_hifive1_revb_HCSR04/freedom-metal/src/drivers/sifive_gpio0.c:195
2001599c:	a8d9                	j	20015a72 <__metal_driver_sifive_gpio0_clear_int+0x17c>
/home/nicoladgg/wsFreedomStudio/sifive_hifive1_revb_HCSR04/freedom-metal/src/drivers/sifive_gpio0.c:198
2001599e:	fec42783          	lw	a5,-20(s0)
200159a2:	02c78793          	addi	a5,a5,44
200159a6:	4398                	lw	a4,0(a5)
200159a8:	fd842783          	lw	a5,-40(s0)
200159ac:	fec42683          	lw	a3,-20(s0)
200159b0:	02c68693          	addi	a3,a3,44
200159b4:	8fd9                	or	a5,a5,a4
200159b6:	c29c                	sw	a5,0(a3)
/home/nicoladgg/wsFreedomStudio/sifive_hifive1_revb_HCSR04/freedom-metal/src/drivers/sifive_gpio0.c:199
200159b8:	a86d                	j	20015a72 <__metal_driver_sifive_gpio0_clear_int+0x17c>
/home/nicoladgg/wsFreedomStudio/sifive_hifive1_revb_HCSR04/freedom-metal/src/drivers/sifive_gpio0.c:202
200159ba:	fec42783          	lw	a5,-20(s0)
200159be:	03478793          	addi	a5,a5,52
200159c2:	4398                	lw	a4,0(a5)
200159c4:	fd842783          	lw	a5,-40(s0)
200159c8:	fec42683          	lw	a3,-20(s0)
200159cc:	03468693          	addi	a3,a3,52
200159d0:	8fd9                	or	a5,a5,a4
200159d2:	c29c                	sw	a5,0(a3)
/home/nicoladgg/wsFreedomStudio/sifive_hifive1_revb_HCSR04/freedom-metal/src/drivers/sifive_gpio0.c:203
200159d4:	a879                	j	20015a72 <__metal_driver_sifive_gpio0_clear_int+0x17c>
/home/nicoladgg/wsFreedomStudio/sifive_hifive1_revb_HCSR04/freedom-metal/src/drivers/sifive_gpio0.c:206
200159d6:	fec42783          	lw	a5,-20(s0)
200159da:	02c78793          	addi	a5,a5,44
200159de:	4398                	lw	a4,0(a5)
200159e0:	fd842783          	lw	a5,-40(s0)
200159e4:	fec42683          	lw	a3,-20(s0)
200159e8:	02c68693          	addi	a3,a3,44
200159ec:	8fd9                	or	a5,a5,a4
200159ee:	c29c                	sw	a5,0(a3)
/home/nicoladgg/wsFreedomStudio/sifive_hifive1_revb_HCSR04/freedom-metal/src/drivers/sifive_gpio0.c:208
200159f0:	fec42783          	lw	a5,-20(s0)
200159f4:	03478793          	addi	a5,a5,52
200159f8:	4398                	lw	a4,0(a5)
200159fa:	fd842783          	lw	a5,-40(s0)
200159fe:	fec42683          	lw	a3,-20(s0)
20015a02:	03468693          	addi	a3,a3,52
20015a06:	8fd9                	or	a5,a5,a4
20015a08:	c29c                	sw	a5,0(a3)
/home/nicoladgg/wsFreedomStudio/sifive_hifive1_revb_HCSR04/freedom-metal/src/drivers/sifive_gpio0.c:209
20015a0a:	a0a5                	j	20015a72 <__metal_driver_sifive_gpio0_clear_int+0x17c>
/home/nicoladgg/wsFreedomStudio/sifive_hifive1_revb_HCSR04/freedom-metal/src/drivers/sifive_gpio0.c:212
20015a0c:	fec42783          	lw	a5,-20(s0)
20015a10:	07f1                	addi	a5,a5,28
20015a12:	4398                	lw	a4,0(a5)
20015a14:	fd842783          	lw	a5,-40(s0)
20015a18:	fec42683          	lw	a3,-20(s0)
20015a1c:	06f1                	addi	a3,a3,28
20015a1e:	8fd9                	or	a5,a5,a4
20015a20:	c29c                	sw	a5,0(a3)
/home/nicoladgg/wsFreedomStudio/sifive_hifive1_revb_HCSR04/freedom-metal/src/drivers/sifive_gpio0.c:214
20015a22:	fec42783          	lw	a5,-20(s0)
20015a26:	02478793          	addi	a5,a5,36
20015a2a:	4398                	lw	a4,0(a5)
20015a2c:	fd842783          	lw	a5,-40(s0)
20015a30:	fec42683          	lw	a3,-20(s0)
20015a34:	02468693          	addi	a3,a3,36
20015a38:	8fd9                	or	a5,a5,a4
20015a3a:	c29c                	sw	a5,0(a3)
/home/nicoladgg/wsFreedomStudio/sifive_hifive1_revb_HCSR04/freedom-metal/src/drivers/sifive_gpio0.c:216
20015a3c:	fec42783          	lw	a5,-20(s0)
20015a40:	02c78793          	addi	a5,a5,44
20015a44:	4398                	lw	a4,0(a5)
20015a46:	fd842783          	lw	a5,-40(s0)
20015a4a:	fec42683          	lw	a3,-20(s0)
20015a4e:	02c68693          	addi	a3,a3,44
20015a52:	8fd9                	or	a5,a5,a4
20015a54:	c29c                	sw	a5,0(a3)
/home/nicoladgg/wsFreedomStudio/sifive_hifive1_revb_HCSR04/freedom-metal/src/drivers/sifive_gpio0.c:218
20015a56:	fec42783          	lw	a5,-20(s0)
20015a5a:	03478793          	addi	a5,a5,52
20015a5e:	4398                	lw	a4,0(a5)
20015a60:	fd842783          	lw	a5,-40(s0)
20015a64:	fec42683          	lw	a3,-20(s0)
20015a68:	03468693          	addi	a3,a3,52
20015a6c:	8fd9                	or	a5,a5,a4
20015a6e:	c29c                	sw	a5,0(a3)
/home/nicoladgg/wsFreedomStudio/sifive_hifive1_revb_HCSR04/freedom-metal/src/drivers/sifive_gpio0.c:219
20015a70:	0001                	nop
/home/nicoladgg/wsFreedomStudio/sifive_hifive1_revb_HCSR04/freedom-metal/src/drivers/sifive_gpio0.c:221
20015a72:	4781                	li	a5,0
/home/nicoladgg/wsFreedomStudio/sifive_hifive1_revb_HCSR04/freedom-metal/src/drivers/sifive_gpio0.c:222
20015a74:	853e                	mv	a0,a5
20015a76:	50b2                	lw	ra,44(sp)
20015a78:	5422                	lw	s0,40(sp)
20015a7a:	6145                	addi	sp,sp,48
20015a7c:	8082                	ret

20015a7e <__metal_driver_gpio_interrupt_controller>:
__metal_driver_gpio_interrupt_controller():
/home/nicoladgg/wsFreedomStudio/sifive_hifive1_revb_HCSR04/freedom-metal/src/drivers/sifive_gpio0.c:225
20015a7e:	1101                	addi	sp,sp,-32
20015a80:	ce06                	sw	ra,28(sp)
20015a82:	cc22                	sw	s0,24(sp)
20015a84:	1000                	addi	s0,sp,32
20015a86:	fea42623          	sw	a0,-20(s0)
/home/nicoladgg/wsFreedomStudio/sifive_hifive1_revb_HCSR04/freedom-metal/src/drivers/sifive_gpio0.c:226
20015a8a:	fec42503          	lw	a0,-20(s0)
20015a8e:	e06ff0ef          	jal	ra,20015094 <__metal_driver_sifive_gpio0_interrupt_parent>
20015a92:	87aa                	mv	a5,a0
/home/nicoladgg/wsFreedomStudio/sifive_hifive1_revb_HCSR04/freedom-metal/src/drivers/sifive_gpio0.c:227
20015a94:	853e                	mv	a0,a5
20015a96:	40f2                	lw	ra,28(sp)
20015a98:	4462                	lw	s0,24(sp)
20015a9a:	6105                	addi	sp,sp,32
20015a9c:	8082                	ret

20015a9e <__metal_driver_gpio_get_interrupt_id>:
__metal_driver_gpio_get_interrupt_id():
/home/nicoladgg/wsFreedomStudio/sifive_hifive1_revb_HCSR04/freedom-metal/src/drivers/sifive_gpio0.c:229
20015a9e:	7179                	addi	sp,sp,-48
20015aa0:	d606                	sw	ra,44(sp)
20015aa2:	d422                	sw	s0,40(sp)
20015aa4:	1800                	addi	s0,sp,48
20015aa6:	fca42e23          	sw	a0,-36(s0)
20015aaa:	fcb42c23          	sw	a1,-40(s0)
/home/nicoladgg/wsFreedomStudio/sifive_hifive1_revb_HCSR04/freedom-metal/src/drivers/sifive_gpio0.c:231
20015aae:	fd842583          	lw	a1,-40(s0)
20015ab2:	fdc42503          	lw	a0,-36(s0)
20015ab6:	e08ff0ef          	jal	ra,200150be <__metal_driver_sifive_gpio0_interrupt_lines>
20015aba:	fea42623          	sw	a0,-20(s0)
/home/nicoladgg/wsFreedomStudio/sifive_hifive1_revb_HCSR04/freedom-metal/src/drivers/sifive_gpio0.c:232
20015abe:	fec42783          	lw	a5,-20(s0)
/home/nicoladgg/wsFreedomStudio/sifive_hifive1_revb_HCSR04/freedom-metal/src/drivers/sifive_gpio0.c:233
20015ac2:	853e                	mv	a0,a5
20015ac4:	50b2                	lw	ra,44(sp)
20015ac6:	5422                	lw	s0,40(sp)
20015ac8:	6145                	addi	sp,sp,48
20015aca:	8082                	ret

20015acc <__metal_driver_sifive_uart0_control_base>:
__metal_driver_sifive_uart0_control_base():
/home/nicoladgg/wsFreedomStudio/sifive_hifive1_revb_HCSR04/bsp/build/debug/./metal/machine.h:1066
20015acc:	1101                	addi	sp,sp,-32
20015ace:	ce22                	sw	s0,28(sp)
20015ad0:	1000                	addi	s0,sp,32
20015ad2:	fea42623          	sw	a0,-20(s0)
/home/nicoladgg/wsFreedomStudio/sifive_hifive1_revb_HCSR04/bsp/build/debug/./metal/machine.h:1067
20015ad6:	fec42703          	lw	a4,-20(s0)
20015ada:	800017b7          	lui	a5,0x80001
20015ade:	a3878793          	addi	a5,a5,-1480 # 80000a38 <metal_segment_heap_target_end+0xfffff2b8>
20015ae2:	00f71563          	bne	a4,a5,20015aec <__metal_driver_sifive_uart0_control_base+0x20>
/home/nicoladgg/wsFreedomStudio/sifive_hifive1_revb_HCSR04/bsp/build/debug/./metal/machine.h:1068
20015ae6:	100137b7          	lui	a5,0x10013
20015aea:	a829                	j	20015b04 <__metal_driver_sifive_uart0_control_base+0x38>
/home/nicoladgg/wsFreedomStudio/sifive_hifive1_revb_HCSR04/bsp/build/debug/./metal/machine.h:1070
20015aec:	fec42703          	lw	a4,-20(s0)
20015af0:	800017b7          	lui	a5,0x80001
20015af4:	a5878793          	addi	a5,a5,-1448 # 80000a58 <metal_segment_heap_target_end+0xfffff2d8>
20015af8:	00f71563          	bne	a4,a5,20015b02 <__metal_driver_sifive_uart0_control_base+0x36>
/home/nicoladgg/wsFreedomStudio/sifive_hifive1_revb_HCSR04/bsp/build/debug/./metal/machine.h:1071
20015afc:	100237b7          	lui	a5,0x10023
20015b00:	a011                	j	20015b04 <__metal_driver_sifive_uart0_control_base+0x38>
/home/nicoladgg/wsFreedomStudio/sifive_hifive1_revb_HCSR04/bsp/build/debug/./metal/machine.h:1074
20015b02:	4781                	li	a5,0
/home/nicoladgg/wsFreedomStudio/sifive_hifive1_revb_HCSR04/bsp/build/debug/./metal/machine.h:1076
20015b04:	853e                	mv	a0,a5
20015b06:	4472                	lw	s0,28(sp)
20015b08:	6105                	addi	sp,sp,32
20015b0a:	8082                	ret

20015b0c <__metal_driver_sifive_uart0_interrupt_parent>:
__metal_driver_sifive_uart0_interrupt_parent():
/home/nicoladgg/wsFreedomStudio/sifive_hifive1_revb_HCSR04/bsp/build/debug/./metal/machine.h:1105
20015b0c:	1101                	addi	sp,sp,-32
20015b0e:	ce22                	sw	s0,28(sp)
20015b10:	1000                	addi	s0,sp,32
20015b12:	fea42623          	sw	a0,-20(s0)
/home/nicoladgg/wsFreedomStudio/sifive_hifive1_revb_HCSR04/bsp/build/debug/./metal/machine.h:1106
20015b16:	fec42703          	lw	a4,-20(s0)
20015b1a:	800017b7          	lui	a5,0x80001
20015b1e:	a3878793          	addi	a5,a5,-1480 # 80000a38 <metal_segment_heap_target_end+0xfffff2b8>
20015b22:	00f71763          	bne	a4,a5,20015b30 <__metal_driver_sifive_uart0_interrupt_parent+0x24>
/home/nicoladgg/wsFreedomStudio/sifive_hifive1_revb_HCSR04/bsp/build/debug/./metal/machine.h:1107
20015b26:	800007b7          	lui	a5,0x80000
20015b2a:	46078793          	addi	a5,a5,1120 # 80000460 <metal_segment_heap_target_end+0xffffece0>
20015b2e:	a839                	j	20015b4c <__metal_driver_sifive_uart0_interrupt_parent+0x40>
/home/nicoladgg/wsFreedomStudio/sifive_hifive1_revb_HCSR04/bsp/build/debug/./metal/machine.h:1109
20015b30:	fec42703          	lw	a4,-20(s0)
20015b34:	800017b7          	lui	a5,0x80001
20015b38:	a5878793          	addi	a5,a5,-1448 # 80000a58 <metal_segment_heap_target_end+0xfffff2d8>
20015b3c:	00f71763          	bne	a4,a5,20015b4a <__metal_driver_sifive_uart0_interrupt_parent+0x3e>
/home/nicoladgg/wsFreedomStudio/sifive_hifive1_revb_HCSR04/bsp/build/debug/./metal/machine.h:1110
20015b40:	800007b7          	lui	a5,0x80000
20015b44:	46078793          	addi	a5,a5,1120 # 80000460 <metal_segment_heap_target_end+0xffffece0>
20015b48:	a011                	j	20015b4c <__metal_driver_sifive_uart0_interrupt_parent+0x40>
/home/nicoladgg/wsFreedomStudio/sifive_hifive1_revb_HCSR04/bsp/build/debug/./metal/machine.h:1113
20015b4a:	4781                	li	a5,0
/home/nicoladgg/wsFreedomStudio/sifive_hifive1_revb_HCSR04/bsp/build/debug/./metal/machine.h:1115
20015b4c:	853e                	mv	a0,a5
20015b4e:	4472                	lw	s0,28(sp)
20015b50:	6105                	addi	sp,sp,32
20015b52:	8082                	ret

20015b54 <__metal_driver_sifive_uart0_interrupt_line>:
__metal_driver_sifive_uart0_interrupt_line():
/home/nicoladgg/wsFreedomStudio/sifive_hifive1_revb_HCSR04/bsp/build/debug/./metal/machine.h:1118
20015b54:	1101                	addi	sp,sp,-32
20015b56:	ce22                	sw	s0,28(sp)
20015b58:	1000                	addi	s0,sp,32
20015b5a:	fea42623          	sw	a0,-20(s0)
/home/nicoladgg/wsFreedomStudio/sifive_hifive1_revb_HCSR04/bsp/build/debug/./metal/machine.h:1119
20015b5e:	fec42703          	lw	a4,-20(s0)
20015b62:	800017b7          	lui	a5,0x80001
20015b66:	a3878793          	addi	a5,a5,-1480 # 80000a38 <metal_segment_heap_target_end+0xfffff2b8>
20015b6a:	00f71463          	bne	a4,a5,20015b72 <__metal_driver_sifive_uart0_interrupt_line+0x1e>
/home/nicoladgg/wsFreedomStudio/sifive_hifive1_revb_HCSR04/bsp/build/debug/./metal/machine.h:1120
20015b6e:	478d                	li	a5,3
20015b70:	a821                	j	20015b88 <__metal_driver_sifive_uart0_interrupt_line+0x34>
/home/nicoladgg/wsFreedomStudio/sifive_hifive1_revb_HCSR04/bsp/build/debug/./metal/machine.h:1122
20015b72:	fec42703          	lw	a4,-20(s0)
20015b76:	800017b7          	lui	a5,0x80001
20015b7a:	a5878793          	addi	a5,a5,-1448 # 80000a58 <metal_segment_heap_target_end+0xfffff2d8>
20015b7e:	00f71463          	bne	a4,a5,20015b86 <__metal_driver_sifive_uart0_interrupt_line+0x32>
/home/nicoladgg/wsFreedomStudio/sifive_hifive1_revb_HCSR04/bsp/build/debug/./metal/machine.h:1123
20015b82:	4791                	li	a5,4
20015b84:	a011                	j	20015b88 <__metal_driver_sifive_uart0_interrupt_line+0x34>
/home/nicoladgg/wsFreedomStudio/sifive_hifive1_revb_HCSR04/bsp/build/debug/./metal/machine.h:1126
20015b86:	4781                	li	a5,0
/home/nicoladgg/wsFreedomStudio/sifive_hifive1_revb_HCSR04/bsp/build/debug/./metal/machine.h:1128
20015b88:	853e                	mv	a0,a5
20015b8a:	4472                	lw	s0,28(sp)
20015b8c:	6105                	addi	sp,sp,32
20015b8e:	8082                	ret

20015b90 <__metal_driver_sifive_uart0_clock>:
__metal_driver_sifive_uart0_clock():
/home/nicoladgg/wsFreedomStudio/sifive_hifive1_revb_HCSR04/bsp/build/debug/./metal/machine.h:1131
20015b90:	1101                	addi	sp,sp,-32
20015b92:	ce22                	sw	s0,28(sp)
20015b94:	1000                	addi	s0,sp,32
20015b96:	fea42623          	sw	a0,-20(s0)
/home/nicoladgg/wsFreedomStudio/sifive_hifive1_revb_HCSR04/bsp/build/debug/./metal/machine.h:1132
20015b9a:	fec42703          	lw	a4,-20(s0)
20015b9e:	800017b7          	lui	a5,0x80001
20015ba2:	a3878793          	addi	a5,a5,-1480 # 80000a38 <metal_segment_heap_target_end+0xfffff2b8>
20015ba6:	00f71763          	bne	a4,a5,20015bb4 <__metal_driver_sifive_uart0_clock+0x24>
/home/nicoladgg/wsFreedomStudio/sifive_hifive1_revb_HCSR04/bsp/build/debug/./metal/machine.h:1133
20015baa:	800017b7          	lui	a5,0x80001
20015bae:	a9078793          	addi	a5,a5,-1392 # 80000a90 <metal_segment_heap_target_end+0xfffff310>
20015bb2:	a839                	j	20015bd0 <__metal_driver_sifive_uart0_clock+0x40>
/home/nicoladgg/wsFreedomStudio/sifive_hifive1_revb_HCSR04/bsp/build/debug/./metal/machine.h:1135
20015bb4:	fec42703          	lw	a4,-20(s0)
20015bb8:	800017b7          	lui	a5,0x80001
20015bbc:	a5878793          	addi	a5,a5,-1448 # 80000a58 <metal_segment_heap_target_end+0xfffff2d8>
20015bc0:	00f71763          	bne	a4,a5,20015bce <__metal_driver_sifive_uart0_clock+0x3e>
/home/nicoladgg/wsFreedomStudio/sifive_hifive1_revb_HCSR04/bsp/build/debug/./metal/machine.h:1136
20015bc4:	800017b7          	lui	a5,0x80001
20015bc8:	a9078793          	addi	a5,a5,-1392 # 80000a90 <metal_segment_heap_target_end+0xfffff310>
20015bcc:	a011                	j	20015bd0 <__metal_driver_sifive_uart0_clock+0x40>
/home/nicoladgg/wsFreedomStudio/sifive_hifive1_revb_HCSR04/bsp/build/debug/./metal/machine.h:1139
20015bce:	4781                	li	a5,0
/home/nicoladgg/wsFreedomStudio/sifive_hifive1_revb_HCSR04/bsp/build/debug/./metal/machine.h:1141
20015bd0:	853e                	mv	a0,a5
20015bd2:	4472                	lw	s0,28(sp)
20015bd4:	6105                	addi	sp,sp,32
20015bd6:	8082                	ret

20015bd8 <__metal_driver_sifive_uart0_pinmux>:
__metal_driver_sifive_uart0_pinmux():
/home/nicoladgg/wsFreedomStudio/sifive_hifive1_revb_HCSR04/bsp/build/debug/./metal/machine.h:1144
20015bd8:	1101                	addi	sp,sp,-32
20015bda:	ce22                	sw	s0,28(sp)
20015bdc:	1000                	addi	s0,sp,32
20015bde:	fea42623          	sw	a0,-20(s0)
/home/nicoladgg/wsFreedomStudio/sifive_hifive1_revb_HCSR04/bsp/build/debug/./metal/machine.h:1145
20015be2:	fec42703          	lw	a4,-20(s0)
20015be6:	800017b7          	lui	a5,0x80001
20015bea:	a3878793          	addi	a5,a5,-1480 # 80000a38 <metal_segment_heap_target_end+0xfffff2b8>
20015bee:	00f71563          	bne	a4,a5,20015bf8 <__metal_driver_sifive_uart0_pinmux+0x20>
/home/nicoladgg/wsFreedomStudio/sifive_hifive1_revb_HCSR04/bsp/build/debug/./metal/machine.h:1146
20015bf2:	81818793          	addi	a5,gp,-2024 # 80000ab8 <__metal_dt_gpio_10012000>
20015bf6:	a829                	j	20015c10 <__metal_driver_sifive_uart0_pinmux+0x38>
/home/nicoladgg/wsFreedomStudio/sifive_hifive1_revb_HCSR04/bsp/build/debug/./metal/machine.h:1148
20015bf8:	fec42703          	lw	a4,-20(s0)
20015bfc:	800017b7          	lui	a5,0x80001
20015c00:	a5878793          	addi	a5,a5,-1448 # 80000a58 <metal_segment_heap_target_end+0xfffff2d8>
20015c04:	00f71563          	bne	a4,a5,20015c0e <__metal_driver_sifive_uart0_pinmux+0x36>
/home/nicoladgg/wsFreedomStudio/sifive_hifive1_revb_HCSR04/bsp/build/debug/./metal/machine.h:1149
20015c08:	81818793          	addi	a5,gp,-2024 # 80000ab8 <__metal_dt_gpio_10012000>
20015c0c:	a011                	j	20015c10 <__metal_driver_sifive_uart0_pinmux+0x38>
/home/nicoladgg/wsFreedomStudio/sifive_hifive1_revb_HCSR04/bsp/build/debug/./metal/machine.h:1152
20015c0e:	4781                	li	a5,0
/home/nicoladgg/wsFreedomStudio/sifive_hifive1_revb_HCSR04/bsp/build/debug/./metal/machine.h:1154
20015c10:	853e                	mv	a0,a5
20015c12:	4472                	lw	s0,28(sp)
20015c14:	6105                	addi	sp,sp,32
20015c16:	8082                	ret

20015c18 <__metal_driver_sifive_uart0_pinmux_output_selector>:
__metal_driver_sifive_uart0_pinmux_output_selector():
/home/nicoladgg/wsFreedomStudio/sifive_hifive1_revb_HCSR04/bsp/build/debug/./metal/machine.h:1157
20015c18:	1101                	addi	sp,sp,-32
20015c1a:	ce22                	sw	s0,28(sp)
20015c1c:	1000                	addi	s0,sp,32
20015c1e:	fea42623          	sw	a0,-20(s0)
/home/nicoladgg/wsFreedomStudio/sifive_hifive1_revb_HCSR04/bsp/build/debug/./metal/machine.h:1158
20015c22:	fec42703          	lw	a4,-20(s0)
20015c26:	800017b7          	lui	a5,0x80001
20015c2a:	a3878793          	addi	a5,a5,-1480 # 80000a38 <metal_segment_heap_target_end+0xfffff2b8>
20015c2e:	00f71463          	bne	a4,a5,20015c36 <__metal_driver_sifive_uart0_pinmux_output_selector+0x1e>
/home/nicoladgg/wsFreedomStudio/sifive_hifive1_revb_HCSR04/bsp/build/debug/./metal/machine.h:1159
20015c32:	4781                	li	a5,0
20015c34:	a821                	j	20015c4c <__metal_driver_sifive_uart0_pinmux_output_selector+0x34>
/home/nicoladgg/wsFreedomStudio/sifive_hifive1_revb_HCSR04/bsp/build/debug/./metal/machine.h:1161
20015c36:	fec42703          	lw	a4,-20(s0)
20015c3a:	800017b7          	lui	a5,0x80001
20015c3e:	a5878793          	addi	a5,a5,-1448 # 80000a58 <metal_segment_heap_target_end+0xfffff2d8>
20015c42:	00f71463          	bne	a4,a5,20015c4a <__metal_driver_sifive_uart0_pinmux_output_selector+0x32>
/home/nicoladgg/wsFreedomStudio/sifive_hifive1_revb_HCSR04/bsp/build/debug/./metal/machine.h:1162
20015c46:	4781                	li	a5,0
20015c48:	a011                	j	20015c4c <__metal_driver_sifive_uart0_pinmux_output_selector+0x34>
/home/nicoladgg/wsFreedomStudio/sifive_hifive1_revb_HCSR04/bsp/build/debug/./metal/machine.h:1165
20015c4a:	4781                	li	a5,0
/home/nicoladgg/wsFreedomStudio/sifive_hifive1_revb_HCSR04/bsp/build/debug/./metal/machine.h:1167
20015c4c:	853e                	mv	a0,a5
20015c4e:	4472                	lw	s0,28(sp)
20015c50:	6105                	addi	sp,sp,32
20015c52:	8082                	ret

20015c54 <__metal_driver_sifive_uart0_pinmux_source_selector>:
__metal_driver_sifive_uart0_pinmux_source_selector():
/home/nicoladgg/wsFreedomStudio/sifive_hifive1_revb_HCSR04/bsp/build/debug/./metal/machine.h:1170
20015c54:	1101                	addi	sp,sp,-32
20015c56:	ce22                	sw	s0,28(sp)
20015c58:	1000                	addi	s0,sp,32
20015c5a:	fea42623          	sw	a0,-20(s0)
/home/nicoladgg/wsFreedomStudio/sifive_hifive1_revb_HCSR04/bsp/build/debug/./metal/machine.h:1171
20015c5e:	fec42703          	lw	a4,-20(s0)
20015c62:	800017b7          	lui	a5,0x80001
20015c66:	a3878793          	addi	a5,a5,-1480 # 80000a38 <metal_segment_heap_target_end+0xfffff2b8>
20015c6a:	00f71563          	bne	a4,a5,20015c74 <__metal_driver_sifive_uart0_pinmux_source_selector+0x20>
/home/nicoladgg/wsFreedomStudio/sifive_hifive1_revb_HCSR04/bsp/build/debug/./metal/machine.h:1172
20015c6e:	000307b7          	lui	a5,0x30
20015c72:	a829                	j	20015c8c <__metal_driver_sifive_uart0_pinmux_source_selector+0x38>
/home/nicoladgg/wsFreedomStudio/sifive_hifive1_revb_HCSR04/bsp/build/debug/./metal/machine.h:1174
20015c74:	fec42703          	lw	a4,-20(s0)
20015c78:	800017b7          	lui	a5,0x80001
20015c7c:	a5878793          	addi	a5,a5,-1448 # 80000a58 <metal_segment_heap_target_end+0xfffff2d8>
20015c80:	00f71563          	bne	a4,a5,20015c8a <__metal_driver_sifive_uart0_pinmux_source_selector+0x36>
/home/nicoladgg/wsFreedomStudio/sifive_hifive1_revb_HCSR04/bsp/build/debug/./metal/machine.h:1175
20015c84:	008407b7          	lui	a5,0x840
20015c88:	a011                	j	20015c8c <__metal_driver_sifive_uart0_pinmux_source_selector+0x38>
/home/nicoladgg/wsFreedomStudio/sifive_hifive1_revb_HCSR04/bsp/build/debug/./metal/machine.h:1178
20015c8a:	4781                	li	a5,0
/home/nicoladgg/wsFreedomStudio/sifive_hifive1_revb_HCSR04/bsp/build/debug/./metal/machine.h:1180
20015c8c:	853e                	mv	a0,a5
20015c8e:	4472                	lw	s0,28(sp)
20015c90:	6105                	addi	sp,sp,32
20015c92:	8082                	ret

20015c94 <__metal_driver_sifive_uart0_interrupt_controller>:
__metal_driver_sifive_uart0_interrupt_controller():
/home/nicoladgg/wsFreedomStudio/sifive_hifive1_revb_HCSR04/freedom-metal/src/drivers/sifive_uart0.c:37
20015c94:	1101                	addi	sp,sp,-32
20015c96:	ce06                	sw	ra,28(sp)
20015c98:	cc22                	sw	s0,24(sp)
20015c9a:	1000                	addi	s0,sp,32
20015c9c:	fea42623          	sw	a0,-20(s0)
/home/nicoladgg/wsFreedomStudio/sifive_hifive1_revb_HCSR04/freedom-metal/src/drivers/sifive_uart0.c:38
20015ca0:	fec42503          	lw	a0,-20(s0)
20015ca4:	e69ff0ef          	jal	ra,20015b0c <__metal_driver_sifive_uart0_interrupt_parent>
20015ca8:	87aa                	mv	a5,a0
/home/nicoladgg/wsFreedomStudio/sifive_hifive1_revb_HCSR04/freedom-metal/src/drivers/sifive_uart0.c:39
20015caa:	853e                	mv	a0,a5
20015cac:	40f2                	lw	ra,28(sp)
20015cae:	4462                	lw	s0,24(sp)
20015cb0:	6105                	addi	sp,sp,32
20015cb2:	8082                	ret

20015cb4 <__metal_driver_sifive_uart0_get_interrupt_id>:
__metal_driver_sifive_uart0_get_interrupt_id():
/home/nicoladgg/wsFreedomStudio/sifive_hifive1_revb_HCSR04/freedom-metal/src/drivers/sifive_uart0.c:41
20015cb4:	1101                	addi	sp,sp,-32
20015cb6:	ce06                	sw	ra,28(sp)
20015cb8:	cc22                	sw	s0,24(sp)
20015cba:	1000                	addi	s0,sp,32
20015cbc:	fea42623          	sw	a0,-20(s0)
/home/nicoladgg/wsFreedomStudio/sifive_hifive1_revb_HCSR04/freedom-metal/src/drivers/sifive_uart0.c:42
20015cc0:	fec42503          	lw	a0,-20(s0)
20015cc4:	3d41                	jal	20015b54 <__metal_driver_sifive_uart0_interrupt_line>
20015cc6:	87aa                	mv	a5,a0
/home/nicoladgg/wsFreedomStudio/sifive_hifive1_revb_HCSR04/freedom-metal/src/drivers/sifive_uart0.c:43
20015cc8:	853e                	mv	a0,a5
20015cca:	40f2                	lw	ra,28(sp)
20015ccc:	4462                	lw	s0,24(sp)
20015cce:	6105                	addi	sp,sp,32
20015cd0:	8082                	ret

20015cd2 <__metal_driver_sifive_uart0_tx_interrupt_enable>:
__metal_driver_sifive_uart0_tx_interrupt_enable():
/home/nicoladgg/wsFreedomStudio/sifive_hifive1_revb_HCSR04/freedom-metal/src/drivers/sifive_uart0.c:45
20015cd2:	7179                	addi	sp,sp,-48
20015cd4:	d606                	sw	ra,44(sp)
20015cd6:	d422                	sw	s0,40(sp)
20015cd8:	1800                	addi	s0,sp,48
20015cda:	fca42e23          	sw	a0,-36(s0)
/home/nicoladgg/wsFreedomStudio/sifive_hifive1_revb_HCSR04/freedom-metal/src/drivers/sifive_uart0.c:46
20015cde:	fdc42503          	lw	a0,-36(s0)
20015ce2:	debff0ef          	jal	ra,20015acc <__metal_driver_sifive_uart0_control_base>
20015ce6:	87aa                	mv	a5,a0
20015ce8:	fef42623          	sw	a5,-20(s0)
/home/nicoladgg/wsFreedomStudio/sifive_hifive1_revb_HCSR04/freedom-metal/src/drivers/sifive_uart0.c:48
20015cec:	fec42783          	lw	a5,-20(s0)
20015cf0:	07c1                	addi	a5,a5,16
20015cf2:	439c                	lw	a5,0(a5)
20015cf4:	fec42703          	lw	a4,-20(s0)
20015cf8:	0741                	addi	a4,a4,16
20015cfa:	0017e793          	ori	a5,a5,1
20015cfe:	c31c                	sw	a5,0(a4)
/home/nicoladgg/wsFreedomStudio/sifive_hifive1_revb_HCSR04/freedom-metal/src/drivers/sifive_uart0.c:49
20015d00:	4781                	li	a5,0
/home/nicoladgg/wsFreedomStudio/sifive_hifive1_revb_HCSR04/freedom-metal/src/drivers/sifive_uart0.c:50
20015d02:	853e                	mv	a0,a5
20015d04:	50b2                	lw	ra,44(sp)
20015d06:	5422                	lw	s0,40(sp)
20015d08:	6145                	addi	sp,sp,48
20015d0a:	8082                	ret

20015d0c <__metal_driver_sifive_uart0_tx_interrupt_disable>:
__metal_driver_sifive_uart0_tx_interrupt_disable():
/home/nicoladgg/wsFreedomStudio/sifive_hifive1_revb_HCSR04/freedom-metal/src/drivers/sifive_uart0.c:52
20015d0c:	7179                	addi	sp,sp,-48
20015d0e:	d606                	sw	ra,44(sp)
20015d10:	d422                	sw	s0,40(sp)
20015d12:	1800                	addi	s0,sp,48
20015d14:	fca42e23          	sw	a0,-36(s0)
/home/nicoladgg/wsFreedomStudio/sifive_hifive1_revb_HCSR04/freedom-metal/src/drivers/sifive_uart0.c:53
20015d18:	fdc42503          	lw	a0,-36(s0)
20015d1c:	db1ff0ef          	jal	ra,20015acc <__metal_driver_sifive_uart0_control_base>
20015d20:	87aa                	mv	a5,a0
20015d22:	fef42623          	sw	a5,-20(s0)
/home/nicoladgg/wsFreedomStudio/sifive_hifive1_revb_HCSR04/freedom-metal/src/drivers/sifive_uart0.c:55
20015d26:	fec42783          	lw	a5,-20(s0)
20015d2a:	07c1                	addi	a5,a5,16
20015d2c:	439c                	lw	a5,0(a5)
20015d2e:	fec42703          	lw	a4,-20(s0)
20015d32:	0741                	addi	a4,a4,16
20015d34:	9bf9                	andi	a5,a5,-2
20015d36:	c31c                	sw	a5,0(a4)
/home/nicoladgg/wsFreedomStudio/sifive_hifive1_revb_HCSR04/freedom-metal/src/drivers/sifive_uart0.c:56
20015d38:	4781                	li	a5,0
/home/nicoladgg/wsFreedomStudio/sifive_hifive1_revb_HCSR04/freedom-metal/src/drivers/sifive_uart0.c:57
20015d3a:	853e                	mv	a0,a5
20015d3c:	50b2                	lw	ra,44(sp)
20015d3e:	5422                	lw	s0,40(sp)
20015d40:	6145                	addi	sp,sp,48
20015d42:	8082                	ret

20015d44 <__metal_driver_sifive_uart0_rx_interrupt_enable>:
__metal_driver_sifive_uart0_rx_interrupt_enable():
/home/nicoladgg/wsFreedomStudio/sifive_hifive1_revb_HCSR04/freedom-metal/src/drivers/sifive_uart0.c:59
20015d44:	7179                	addi	sp,sp,-48
20015d46:	d606                	sw	ra,44(sp)
20015d48:	d422                	sw	s0,40(sp)
20015d4a:	1800                	addi	s0,sp,48
20015d4c:	fca42e23          	sw	a0,-36(s0)
/home/nicoladgg/wsFreedomStudio/sifive_hifive1_revb_HCSR04/freedom-metal/src/drivers/sifive_uart0.c:60
20015d50:	fdc42503          	lw	a0,-36(s0)
20015d54:	d79ff0ef          	jal	ra,20015acc <__metal_driver_sifive_uart0_control_base>
20015d58:	87aa                	mv	a5,a0
20015d5a:	fef42623          	sw	a5,-20(s0)
/home/nicoladgg/wsFreedomStudio/sifive_hifive1_revb_HCSR04/freedom-metal/src/drivers/sifive_uart0.c:62
20015d5e:	fec42783          	lw	a5,-20(s0)
20015d62:	07c1                	addi	a5,a5,16
20015d64:	439c                	lw	a5,0(a5)
20015d66:	fec42703          	lw	a4,-20(s0)
20015d6a:	0741                	addi	a4,a4,16
20015d6c:	0027e793          	ori	a5,a5,2
20015d70:	c31c                	sw	a5,0(a4)
/home/nicoladgg/wsFreedomStudio/sifive_hifive1_revb_HCSR04/freedom-metal/src/drivers/sifive_uart0.c:63
20015d72:	4781                	li	a5,0
/home/nicoladgg/wsFreedomStudio/sifive_hifive1_revb_HCSR04/freedom-metal/src/drivers/sifive_uart0.c:64
20015d74:	853e                	mv	a0,a5
20015d76:	50b2                	lw	ra,44(sp)
20015d78:	5422                	lw	s0,40(sp)
20015d7a:	6145                	addi	sp,sp,48
20015d7c:	8082                	ret

20015d7e <__metal_driver_sifive_uart0_rx_interrupt_disable>:
__metal_driver_sifive_uart0_rx_interrupt_disable():
/home/nicoladgg/wsFreedomStudio/sifive_hifive1_revb_HCSR04/freedom-metal/src/drivers/sifive_uart0.c:66
20015d7e:	7179                	addi	sp,sp,-48
20015d80:	d606                	sw	ra,44(sp)
20015d82:	d422                	sw	s0,40(sp)
20015d84:	1800                	addi	s0,sp,48
20015d86:	fca42e23          	sw	a0,-36(s0)
/home/nicoladgg/wsFreedomStudio/sifive_hifive1_revb_HCSR04/freedom-metal/src/drivers/sifive_uart0.c:67
20015d8a:	fdc42503          	lw	a0,-36(s0)
20015d8e:	d3fff0ef          	jal	ra,20015acc <__metal_driver_sifive_uart0_control_base>
20015d92:	87aa                	mv	a5,a0
20015d94:	fef42623          	sw	a5,-20(s0)
/home/nicoladgg/wsFreedomStudio/sifive_hifive1_revb_HCSR04/freedom-metal/src/drivers/sifive_uart0.c:69
20015d98:	fec42783          	lw	a5,-20(s0)
20015d9c:	07c1                	addi	a5,a5,16
20015d9e:	439c                	lw	a5,0(a5)
20015da0:	fec42703          	lw	a4,-20(s0)
20015da4:	0741                	addi	a4,a4,16
20015da6:	9bf5                	andi	a5,a5,-3
20015da8:	c31c                	sw	a5,0(a4)
/home/nicoladgg/wsFreedomStudio/sifive_hifive1_revb_HCSR04/freedom-metal/src/drivers/sifive_uart0.c:70
20015daa:	4781                	li	a5,0
/home/nicoladgg/wsFreedomStudio/sifive_hifive1_revb_HCSR04/freedom-metal/src/drivers/sifive_uart0.c:71
20015dac:	853e                	mv	a0,a5
20015dae:	50b2                	lw	ra,44(sp)
20015db0:	5422                	lw	s0,40(sp)
20015db2:	6145                	addi	sp,sp,48
20015db4:	8082                	ret

20015db6 <__metal_driver_sifive_uart0_txready>:
__metal_driver_sifive_uart0_txready():
/home/nicoladgg/wsFreedomStudio/sifive_hifive1_revb_HCSR04/freedom-metal/src/drivers/sifive_uart0.c:73
20015db6:	7179                	addi	sp,sp,-48
20015db8:	d606                	sw	ra,44(sp)
20015dba:	d422                	sw	s0,40(sp)
20015dbc:	1800                	addi	s0,sp,48
20015dbe:	fca42e23          	sw	a0,-36(s0)
/home/nicoladgg/wsFreedomStudio/sifive_hifive1_revb_HCSR04/freedom-metal/src/drivers/sifive_uart0.c:74
20015dc2:	fdc42503          	lw	a0,-36(s0)
20015dc6:	d07ff0ef          	jal	ra,20015acc <__metal_driver_sifive_uart0_control_base>
20015dca:	87aa                	mv	a5,a0
20015dcc:	fef42623          	sw	a5,-20(s0)
/home/nicoladgg/wsFreedomStudio/sifive_hifive1_revb_HCSR04/freedom-metal/src/drivers/sifive_uart0.c:76
20015dd0:	fec42783          	lw	a5,-20(s0)
20015dd4:	439c                	lw	a5,0(a5)
20015dd6:	83fd                	srli	a5,a5,0x1f
20015dd8:	0ff7f793          	zext.b	a5,a5
/home/nicoladgg/wsFreedomStudio/sifive_hifive1_revb_HCSR04/freedom-metal/src/drivers/sifive_uart0.c:77
20015ddc:	853e                	mv	a0,a5
20015dde:	50b2                	lw	ra,44(sp)
20015de0:	5422                	lw	s0,40(sp)
20015de2:	6145                	addi	sp,sp,48
20015de4:	8082                	ret

20015de6 <__metal_driver_sifive_uart0_set_tx_watermark>:
__metal_driver_sifive_uart0_set_tx_watermark():
/home/nicoladgg/wsFreedomStudio/sifive_hifive1_revb_HCSR04/freedom-metal/src/drivers/sifive_uart0.c:80
20015de6:	7179                	addi	sp,sp,-48
20015de8:	d606                	sw	ra,44(sp)
20015dea:	d422                	sw	s0,40(sp)
20015dec:	1800                	addi	s0,sp,48
20015dee:	fca42e23          	sw	a0,-36(s0)
20015df2:	fcb42c23          	sw	a1,-40(s0)
/home/nicoladgg/wsFreedomStudio/sifive_hifive1_revb_HCSR04/freedom-metal/src/drivers/sifive_uart0.c:81
20015df6:	fdc42503          	lw	a0,-36(s0)
20015dfa:	cd3ff0ef          	jal	ra,20015acc <__metal_driver_sifive_uart0_control_base>
20015dfe:	87aa                	mv	a5,a0
20015e00:	fef42623          	sw	a5,-20(s0)
/home/nicoladgg/wsFreedomStudio/sifive_hifive1_revb_HCSR04/freedom-metal/src/drivers/sifive_uart0.c:83
20015e04:	fec42783          	lw	a5,-20(s0)
20015e08:	07a1                	addi	a5,a5,8
20015e0a:	4398                	lw	a4,0(a5)
20015e0c:	fd842783          	lw	a5,-40(s0)
20015e10:	01079693          	slli	a3,a5,0x10
20015e14:	000707b7          	lui	a5,0x70
20015e18:	8ff5                	and	a5,a5,a3
20015e1a:	fec42683          	lw	a3,-20(s0)
20015e1e:	06a1                	addi	a3,a3,8
20015e20:	8fd9                	or	a5,a5,a4
20015e22:	c29c                	sw	a5,0(a3)
/home/nicoladgg/wsFreedomStudio/sifive_hifive1_revb_HCSR04/freedom-metal/src/drivers/sifive_uart0.c:84
20015e24:	4781                	li	a5,0
/home/nicoladgg/wsFreedomStudio/sifive_hifive1_revb_HCSR04/freedom-metal/src/drivers/sifive_uart0.c:85
20015e26:	853e                	mv	a0,a5
20015e28:	50b2                	lw	ra,44(sp)
20015e2a:	5422                	lw	s0,40(sp)
20015e2c:	6145                	addi	sp,sp,48
20015e2e:	8082                	ret

20015e30 <__metal_driver_sifive_uart0_get_tx_watermark>:
__metal_driver_sifive_uart0_get_tx_watermark():
/home/nicoladgg/wsFreedomStudio/sifive_hifive1_revb_HCSR04/freedom-metal/src/drivers/sifive_uart0.c:87
20015e30:	7179                	addi	sp,sp,-48
20015e32:	d606                	sw	ra,44(sp)
20015e34:	d422                	sw	s0,40(sp)
20015e36:	1800                	addi	s0,sp,48
20015e38:	fca42e23          	sw	a0,-36(s0)
/home/nicoladgg/wsFreedomStudio/sifive_hifive1_revb_HCSR04/freedom-metal/src/drivers/sifive_uart0.c:88
20015e3c:	fdc42503          	lw	a0,-36(s0)
20015e40:	c8dff0ef          	jal	ra,20015acc <__metal_driver_sifive_uart0_control_base>
20015e44:	87aa                	mv	a5,a0
20015e46:	fef42623          	sw	a5,-20(s0)
/home/nicoladgg/wsFreedomStudio/sifive_hifive1_revb_HCSR04/freedom-metal/src/drivers/sifive_uart0.c:90
20015e4a:	fec42783          	lw	a5,-20(s0)
20015e4e:	07a1                	addi	a5,a5,8
20015e50:	439c                	lw	a5,0(a5)
20015e52:	83c1                	srli	a5,a5,0x10
20015e54:	8b9d                	andi	a5,a5,7
/home/nicoladgg/wsFreedomStudio/sifive_hifive1_revb_HCSR04/freedom-metal/src/drivers/sifive_uart0.c:91
20015e56:	853e                	mv	a0,a5
20015e58:	50b2                	lw	ra,44(sp)
20015e5a:	5422                	lw	s0,40(sp)
20015e5c:	6145                	addi	sp,sp,48
20015e5e:	8082                	ret

20015e60 <__metal_driver_sifive_uart0_set_rx_watermark>:
__metal_driver_sifive_uart0_set_rx_watermark():
/home/nicoladgg/wsFreedomStudio/sifive_hifive1_revb_HCSR04/freedom-metal/src/drivers/sifive_uart0.c:94
20015e60:	7179                	addi	sp,sp,-48
20015e62:	d606                	sw	ra,44(sp)
20015e64:	d422                	sw	s0,40(sp)
20015e66:	1800                	addi	s0,sp,48
20015e68:	fca42e23          	sw	a0,-36(s0)
20015e6c:	fcb42c23          	sw	a1,-40(s0)
/home/nicoladgg/wsFreedomStudio/sifive_hifive1_revb_HCSR04/freedom-metal/src/drivers/sifive_uart0.c:95
20015e70:	fdc42503          	lw	a0,-36(s0)
20015e74:	c59ff0ef          	jal	ra,20015acc <__metal_driver_sifive_uart0_control_base>
20015e78:	87aa                	mv	a5,a0
20015e7a:	fef42623          	sw	a5,-20(s0)
/home/nicoladgg/wsFreedomStudio/sifive_hifive1_revb_HCSR04/freedom-metal/src/drivers/sifive_uart0.c:97
20015e7e:	fec42783          	lw	a5,-20(s0)
20015e82:	07b1                	addi	a5,a5,12
20015e84:	4398                	lw	a4,0(a5)
20015e86:	fd842783          	lw	a5,-40(s0)
20015e8a:	01079693          	slli	a3,a5,0x10
20015e8e:	000707b7          	lui	a5,0x70
20015e92:	8ff5                	and	a5,a5,a3
20015e94:	fec42683          	lw	a3,-20(s0)
20015e98:	06b1                	addi	a3,a3,12
20015e9a:	8fd9                	or	a5,a5,a4
20015e9c:	c29c                	sw	a5,0(a3)
/home/nicoladgg/wsFreedomStudio/sifive_hifive1_revb_HCSR04/freedom-metal/src/drivers/sifive_uart0.c:98
20015e9e:	4781                	li	a5,0
/home/nicoladgg/wsFreedomStudio/sifive_hifive1_revb_HCSR04/freedom-metal/src/drivers/sifive_uart0.c:99
20015ea0:	853e                	mv	a0,a5
20015ea2:	50b2                	lw	ra,44(sp)
20015ea4:	5422                	lw	s0,40(sp)
20015ea6:	6145                	addi	sp,sp,48
20015ea8:	8082                	ret

20015eaa <__metal_driver_sifive_uart0_get_rx_watermark>:
__metal_driver_sifive_uart0_get_rx_watermark():
/home/nicoladgg/wsFreedomStudio/sifive_hifive1_revb_HCSR04/freedom-metal/src/drivers/sifive_uart0.c:101
20015eaa:	7179                	addi	sp,sp,-48
20015eac:	d606                	sw	ra,44(sp)
20015eae:	d422                	sw	s0,40(sp)
20015eb0:	1800                	addi	s0,sp,48
20015eb2:	fca42e23          	sw	a0,-36(s0)
/home/nicoladgg/wsFreedomStudio/sifive_hifive1_revb_HCSR04/freedom-metal/src/drivers/sifive_uart0.c:102
20015eb6:	fdc42503          	lw	a0,-36(s0)
20015eba:	c13ff0ef          	jal	ra,20015acc <__metal_driver_sifive_uart0_control_base>
20015ebe:	87aa                	mv	a5,a0
20015ec0:	fef42623          	sw	a5,-20(s0)
/home/nicoladgg/wsFreedomStudio/sifive_hifive1_revb_HCSR04/freedom-metal/src/drivers/sifive_uart0.c:104
20015ec4:	fec42783          	lw	a5,-20(s0)
20015ec8:	07b1                	addi	a5,a5,12
20015eca:	439c                	lw	a5,0(a5)
20015ecc:	83c1                	srli	a5,a5,0x10
20015ece:	8b9d                	andi	a5,a5,7
/home/nicoladgg/wsFreedomStudio/sifive_hifive1_revb_HCSR04/freedom-metal/src/drivers/sifive_uart0.c:105
20015ed0:	853e                	mv	a0,a5
20015ed2:	50b2                	lw	ra,44(sp)
20015ed4:	5422                	lw	s0,40(sp)
20015ed6:	6145                	addi	sp,sp,48
20015ed8:	8082                	ret

20015eda <__metal_driver_sifive_uart0_putc>:
__metal_driver_sifive_uart0_putc():
/home/nicoladgg/wsFreedomStudio/sifive_hifive1_revb_HCSR04/freedom-metal/src/drivers/sifive_uart0.c:107
20015eda:	7179                	addi	sp,sp,-48
20015edc:	d606                	sw	ra,44(sp)
20015ede:	d422                	sw	s0,40(sp)
20015ee0:	1800                	addi	s0,sp,48
20015ee2:	fca42e23          	sw	a0,-36(s0)
20015ee6:	fcb42c23          	sw	a1,-40(s0)
/home/nicoladgg/wsFreedomStudio/sifive_hifive1_revb_HCSR04/freedom-metal/src/drivers/sifive_uart0.c:108
20015eea:	fdc42503          	lw	a0,-36(s0)
20015eee:	bdfff0ef          	jal	ra,20015acc <__metal_driver_sifive_uart0_control_base>
20015ef2:	87aa                	mv	a5,a0
20015ef4:	fef42623          	sw	a5,-20(s0)
/home/nicoladgg/wsFreedomStudio/sifive_hifive1_revb_HCSR04/freedom-metal/src/drivers/sifive_uart0.c:110
20015ef8:	0001                	nop
/home/nicoladgg/wsFreedomStudio/sifive_hifive1_revb_HCSR04/freedom-metal/src/drivers/sifive_uart0.c:110 (discriminator 1)
20015efa:	fdc42503          	lw	a0,-36(s0)
20015efe:	3d65                	jal	20015db6 <__metal_driver_sifive_uart0_txready>
20015f00:	87aa                	mv	a5,a0
20015f02:	ffe5                	bnez	a5,20015efa <__metal_driver_sifive_uart0_putc+0x20>
/home/nicoladgg/wsFreedomStudio/sifive_hifive1_revb_HCSR04/freedom-metal/src/drivers/sifive_uart0.c:113
20015f04:	fec42783          	lw	a5,-20(s0)
20015f08:	fd842703          	lw	a4,-40(s0)
20015f0c:	c398                	sw	a4,0(a5)
/home/nicoladgg/wsFreedomStudio/sifive_hifive1_revb_HCSR04/freedom-metal/src/drivers/sifive_uart0.c:114
20015f0e:	4781                	li	a5,0
/home/nicoladgg/wsFreedomStudio/sifive_hifive1_revb_HCSR04/freedom-metal/src/drivers/sifive_uart0.c:115
20015f10:	853e                	mv	a0,a5
20015f12:	50b2                	lw	ra,44(sp)
20015f14:	5422                	lw	s0,40(sp)
20015f16:	6145                	addi	sp,sp,48
20015f18:	8082                	ret

20015f1a <__metal_driver_sifive_uart0_getc>:
__metal_driver_sifive_uart0_getc():
/home/nicoladgg/wsFreedomStudio/sifive_hifive1_revb_HCSR04/freedom-metal/src/drivers/sifive_uart0.c:117
20015f1a:	7179                	addi	sp,sp,-48
20015f1c:	d606                	sw	ra,44(sp)
20015f1e:	d422                	sw	s0,40(sp)
20015f20:	1800                	addi	s0,sp,48
20015f22:	fca42e23          	sw	a0,-36(s0)
20015f26:	fcb42c23          	sw	a1,-40(s0)
/home/nicoladgg/wsFreedomStudio/sifive_hifive1_revb_HCSR04/freedom-metal/src/drivers/sifive_uart0.c:119
20015f2a:	fdc42503          	lw	a0,-36(s0)
20015f2e:	b9fff0ef          	jal	ra,20015acc <__metal_driver_sifive_uart0_control_base>
20015f32:	87aa                	mv	a5,a0
20015f34:	fef42623          	sw	a5,-20(s0)
/home/nicoladgg/wsFreedomStudio/sifive_hifive1_revb_HCSR04/freedom-metal/src/drivers/sifive_uart0.c:121
20015f38:	fec42783          	lw	a5,-20(s0)
20015f3c:	0791                	addi	a5,a5,4
20015f3e:	439c                	lw	a5,0(a5)
20015f40:	fef42423          	sw	a5,-24(s0)
/home/nicoladgg/wsFreedomStudio/sifive_hifive1_revb_HCSR04/freedom-metal/src/drivers/sifive_uart0.c:123
20015f44:	fe842783          	lw	a5,-24(s0)
20015f48:	0007d763          	bgez	a5,20015f56 <__metal_driver_sifive_uart0_getc+0x3c>
/home/nicoladgg/wsFreedomStudio/sifive_hifive1_revb_HCSR04/freedom-metal/src/drivers/sifive_uart0.c:124
20015f4c:	fd842783          	lw	a5,-40(s0)
20015f50:	577d                	li	a4,-1
20015f52:	c398                	sw	a4,0(a5)
20015f54:	a801                	j	20015f64 <__metal_driver_sifive_uart0_getc+0x4a>
/home/nicoladgg/wsFreedomStudio/sifive_hifive1_revb_HCSR04/freedom-metal/src/drivers/sifive_uart0.c:126
20015f56:	fe842783          	lw	a5,-24(s0)
20015f5a:	0ff7f713          	zext.b	a4,a5
20015f5e:	fd842783          	lw	a5,-40(s0)
20015f62:	c398                	sw	a4,0(a5)
/home/nicoladgg/wsFreedomStudio/sifive_hifive1_revb_HCSR04/freedom-metal/src/drivers/sifive_uart0.c:128
20015f64:	4781                	li	a5,0
/home/nicoladgg/wsFreedomStudio/sifive_hifive1_revb_HCSR04/freedom-metal/src/drivers/sifive_uart0.c:129
20015f66:	853e                	mv	a0,a5
20015f68:	50b2                	lw	ra,44(sp)
20015f6a:	5422                	lw	s0,40(sp)
20015f6c:	6145                	addi	sp,sp,48
20015f6e:	8082                	ret

20015f70 <__metal_driver_sifive_uart0_get_baud_rate>:
__metal_driver_sifive_uart0_get_baud_rate():
/home/nicoladgg/wsFreedomStudio/sifive_hifive1_revb_HCSR04/freedom-metal/src/drivers/sifive_uart0.c:131
20015f70:	7179                	addi	sp,sp,-48
20015f72:	d622                	sw	s0,44(sp)
20015f74:	1800                	addi	s0,sp,48
20015f76:	fca42e23          	sw	a0,-36(s0)
/home/nicoladgg/wsFreedomStudio/sifive_hifive1_revb_HCSR04/freedom-metal/src/drivers/sifive_uart0.c:132
20015f7a:	fdc42783          	lw	a5,-36(s0)
20015f7e:	fef42623          	sw	a5,-20(s0)
/home/nicoladgg/wsFreedomStudio/sifive_hifive1_revb_HCSR04/freedom-metal/src/drivers/sifive_uart0.c:133
20015f82:	fec42783          	lw	a5,-20(s0)
20015f86:	43dc                	lw	a5,4(a5)
/home/nicoladgg/wsFreedomStudio/sifive_hifive1_revb_HCSR04/freedom-metal/src/drivers/sifive_uart0.c:134
20015f88:	853e                	mv	a0,a5
20015f8a:	5432                	lw	s0,44(sp)
20015f8c:	6145                	addi	sp,sp,48
20015f8e:	8082                	ret

20015f90 <__metal_driver_sifive_uart0_set_baud_rate>:
__metal_driver_sifive_uart0_set_baud_rate():
/home/nicoladgg/wsFreedomStudio/sifive_hifive1_revb_HCSR04/freedom-metal/src/drivers/sifive_uart0.c:137
20015f90:	7179                	addi	sp,sp,-48
20015f92:	d606                	sw	ra,44(sp)
20015f94:	d422                	sw	s0,40(sp)
20015f96:	1800                	addi	s0,sp,48
20015f98:	fca42e23          	sw	a0,-36(s0)
20015f9c:	fcb42c23          	sw	a1,-40(s0)
/home/nicoladgg/wsFreedomStudio/sifive_hifive1_revb_HCSR04/freedom-metal/src/drivers/sifive_uart0.c:138
20015fa0:	fdc42783          	lw	a5,-36(s0)
20015fa4:	fef42623          	sw	a5,-20(s0)
/home/nicoladgg/wsFreedomStudio/sifive_hifive1_revb_HCSR04/freedom-metal/src/drivers/sifive_uart0.c:139
20015fa8:	fdc42503          	lw	a0,-36(s0)
20015fac:	b21ff0ef          	jal	ra,20015acc <__metal_driver_sifive_uart0_control_base>
20015fb0:	87aa                	mv	a5,a0
20015fb2:	fef42423          	sw	a5,-24(s0)
/home/nicoladgg/wsFreedomStudio/sifive_hifive1_revb_HCSR04/freedom-metal/src/drivers/sifive_uart0.c:140
20015fb6:	fdc42503          	lw	a0,-36(s0)
20015fba:	bd7ff0ef          	jal	ra,20015b90 <__metal_driver_sifive_uart0_clock>
20015fbe:	fea42223          	sw	a0,-28(s0)
/home/nicoladgg/wsFreedomStudio/sifive_hifive1_revb_HCSR04/freedom-metal/src/drivers/sifive_uart0.c:142
20015fc2:	fd842703          	lw	a4,-40(s0)
20015fc6:	fec42783          	lw	a5,-20(s0)
20015fca:	c3d8                	sw	a4,4(a5)
/home/nicoladgg/wsFreedomStudio/sifive_hifive1_revb_HCSR04/freedom-metal/src/drivers/sifive_uart0.c:144
20015fcc:	fe442783          	lw	a5,-28(s0)
20015fd0:	cbb1                	beqz	a5,20016024 <__metal_driver_sifive_uart0_set_baud_rate+0x94>
/home/nicoladgg/wsFreedomStudio/sifive_hifive1_revb_HCSR04/freedom-metal/src/drivers/sifive_uart0.c:145
20015fd2:	fe442783          	lw	a5,-28(s0)
20015fd6:	439c                	lw	a5,0(a5)
20015fd8:	439c                	lw	a5,0(a5)
20015fda:	fe442503          	lw	a0,-28(s0)
20015fde:	9782                	jalr	a5
20015fe0:	fea42023          	sw	a0,-32(s0)
/home/nicoladgg/wsFreedomStudio/sifive_hifive1_revb_HCSR04/freedom-metal/src/drivers/sifive_uart0.c:146
20015fe4:	fe042703          	lw	a4,-32(s0)
20015fe8:	fd842783          	lw	a5,-40(s0)
20015fec:	02f747b3          	div	a5,a4,a5
20015ff0:	fff78713          	addi	a4,a5,-1 # 6ffff <__heap_size+0x6f7ff>
20015ff4:	fe842783          	lw	a5,-24(s0)
20015ff8:	07e1                	addi	a5,a5,24
20015ffa:	c398                	sw	a4,0(a5)
/home/nicoladgg/wsFreedomStudio/sifive_hifive1_revb_HCSR04/freedom-metal/src/drivers/sifive_uart0.c:147
20015ffc:	fe842783          	lw	a5,-24(s0)
20016000:	07a1                	addi	a5,a5,8
20016002:	439c                	lw	a5,0(a5)
20016004:	fe842703          	lw	a4,-24(s0)
20016008:	0721                	addi	a4,a4,8
2001600a:	0017e793          	ori	a5,a5,1
2001600e:	c31c                	sw	a5,0(a4)
/home/nicoladgg/wsFreedomStudio/sifive_hifive1_revb_HCSR04/freedom-metal/src/drivers/sifive_uart0.c:148
20016010:	fe842783          	lw	a5,-24(s0)
20016014:	07b1                	addi	a5,a5,12
20016016:	439c                	lw	a5,0(a5)
20016018:	fe842703          	lw	a4,-24(s0)
2001601c:	0731                	addi	a4,a4,12
2001601e:	0017e793          	ori	a5,a5,1
20016022:	c31c                	sw	a5,0(a4)
/home/nicoladgg/wsFreedomStudio/sifive_hifive1_revb_HCSR04/freedom-metal/src/drivers/sifive_uart0.c:150
20016024:	4781                	li	a5,0
/home/nicoladgg/wsFreedomStudio/sifive_hifive1_revb_HCSR04/freedom-metal/src/drivers/sifive_uart0.c:151
20016026:	853e                	mv	a0,a5
20016028:	50b2                	lw	ra,44(sp)
2001602a:	5422                	lw	s0,40(sp)
2001602c:	6145                	addi	sp,sp,48
2001602e:	8082                	ret

20016030 <pre_rate_change_callback_func>:
pre_rate_change_callback_func():
/home/nicoladgg/wsFreedomStudio/sifive_hifive1_revb_HCSR04/freedom-metal/src/drivers/sifive_uart0.c:153
20016030:	7139                	addi	sp,sp,-64
20016032:	de06                	sw	ra,60(sp)
20016034:	dc22                	sw	s0,56(sp)
20016036:	0080                	addi	s0,sp,64
20016038:	fca42623          	sw	a0,-52(s0)
/home/nicoladgg/wsFreedomStudio/sifive_hifive1_revb_HCSR04/freedom-metal/src/drivers/sifive_uart0.c:154
2001603c:	fcc42783          	lw	a5,-52(s0)
20016040:	fef42623          	sw	a5,-20(s0)
/home/nicoladgg/wsFreedomStudio/sifive_hifive1_revb_HCSR04/freedom-metal/src/drivers/sifive_uart0.c:156
20016044:	fcc42503          	lw	a0,-52(s0)
20016048:	a85ff0ef          	jal	ra,20015acc <__metal_driver_sifive_uart0_control_base>
2001604c:	87aa                	mv	a5,a0
/home/nicoladgg/wsFreedomStudio/sifive_hifive1_revb_HCSR04/freedom-metal/src/drivers/sifive_uart0.c:155
2001604e:	fef42423          	sw	a5,-24(s0)
/home/nicoladgg/wsFreedomStudio/sifive_hifive1_revb_HCSR04/freedom-metal/src/drivers/sifive_uart0.c:158
20016052:	fcc42503          	lw	a0,-52(s0)
20016056:	b3bff0ef          	jal	ra,20015b90 <__metal_driver_sifive_uart0_clock>
2001605a:	fea42223          	sw	a0,-28(s0)
/home/nicoladgg/wsFreedomStudio/sifive_hifive1_revb_HCSR04/freedom-metal/src/drivers/sifive_uart0.c:163
2001605e:	fe842783          	lw	a5,-24(s0)
20016062:	07a1                	addi	a5,a5,8
20016064:	4398                	lw	a4,0(a5)
20016066:	fe842783          	lw	a5,-24(s0)
2001606a:	07a1                	addi	a5,a5,8
2001606c:	86be                	mv	a3,a5
2001606e:	fff907b7          	lui	a5,0xfff90
20016072:	17fd                	addi	a5,a5,-1
20016074:	8ff9                	and	a5,a5,a4
20016076:	c29c                	sw	a5,0(a3)
/home/nicoladgg/wsFreedomStudio/sifive_hifive1_revb_HCSR04/freedom-metal/src/drivers/sifive_uart0.c:164
20016078:	fe842783          	lw	a5,-24(s0)
2001607c:	07a1                	addi	a5,a5,8
2001607e:	4398                	lw	a4,0(a5)
20016080:	fe842783          	lw	a5,-24(s0)
20016084:	07a1                	addi	a5,a5,8
20016086:	86be                	mv	a3,a5
20016088:	67c1                	lui	a5,0x10
2001608a:	8fd9                	or	a5,a5,a4
2001608c:	c29c                	sw	a5,0(a3)
/home/nicoladgg/wsFreedomStudio/sifive_hifive1_revb_HCSR04/freedom-metal/src/drivers/sifive_uart0.c:166
2001608e:	0001                	nop
/home/nicoladgg/wsFreedomStudio/sifive_hifive1_revb_HCSR04/freedom-metal/src/drivers/sifive_uart0.c:166 (discriminator 1)
20016090:	fe842783          	lw	a5,-24(s0)
20016094:	07d1                	addi	a5,a5,20
20016096:	439c                	lw	a5,0(a5)
20016098:	8b85                	andi	a5,a5,1
2001609a:	dbfd                	beqz	a5,20016090 <pre_rate_change_callback_func+0x60>
/home/nicoladgg/wsFreedomStudio/sifive_hifive1_revb_HCSR04/freedom-metal/src/drivers/sifive_uart0.c:174
2001609c:	fe842783          	lw	a5,-24(s0)
200160a0:	07a1                	addi	a5,a5,8
200160a2:	439c                	lw	a5,0(a5)
200160a4:	8b89                	andi	a5,a5,2
200160a6:	c399                	beqz	a5,200160ac <pre_rate_change_callback_func+0x7c>
/home/nicoladgg/wsFreedomStudio/sifive_hifive1_revb_HCSR04/freedom-metal/src/drivers/sifive_uart0.c:174 (discriminator 1)
200160a8:	47a5                	li	a5,9
200160aa:	a011                	j	200160ae <pre_rate_change_callback_func+0x7e>
/home/nicoladgg/wsFreedomStudio/sifive_hifive1_revb_HCSR04/freedom-metal/src/drivers/sifive_uart0.c:174 (discriminator 2)
200160ac:	47a9                	li	a5,10
/home/nicoladgg/wsFreedomStudio/sifive_hifive1_revb_HCSR04/freedom-metal/src/drivers/sifive_uart0.c:173
200160ae:	fef42023          	sw	a5,-32(s0)
/home/nicoladgg/wsFreedomStudio/sifive_hifive1_revb_HCSR04/freedom-metal/src/drivers/sifive_uart0.c:175
200160b2:	fe442783          	lw	a5,-28(s0)
200160b6:	439c                	lw	a5,0(a5)
200160b8:	439c                	lw	a5,0(a5)
200160ba:	fe442503          	lw	a0,-28(s0)
200160be:	9782                	jalr	a5
200160c0:	fca42e23          	sw	a0,-36(s0)
/home/nicoladgg/wsFreedomStudio/sifive_hifive1_revb_HCSR04/freedom-metal/src/drivers/sifive_uart0.c:176
200160c4:	fe042703          	lw	a4,-32(s0)
200160c8:	fdc42783          	lw	a5,-36(s0)
200160cc:	02f707b3          	mul	a5,a4,a5
200160d0:	873e                	mv	a4,a5
200160d2:	fec42783          	lw	a5,-20(s0)
200160d6:	43dc                	lw	a5,4(a5)
200160d8:	02f757b3          	divu	a5,a4,a5
200160dc:	fcf42c23          	sw	a5,-40(s0)
/home/nicoladgg/wsFreedomStudio/sifive_hifive1_revb_HCSR04/freedom-metal/src/drivers/sifive_uart0.c:178
200160e0:	fc042a23          	sw	zero,-44(s0)
200160e4:	a039                	j	200160f2 <pre_rate_change_callback_func+0xc2>
/home/nicoladgg/wsFreedomStudio/sifive_hifive1_revb_HCSR04/freedom-metal/src/drivers/sifive_uart0.c:179 (discriminator 3)
200160e6:	0001                	nop
/home/nicoladgg/wsFreedomStudio/sifive_hifive1_revb_HCSR04/freedom-metal/src/drivers/sifive_uart0.c:178 (discriminator 3)
200160e8:	fd442783          	lw	a5,-44(s0)
200160ec:	0785                	addi	a5,a5,1
200160ee:	fcf42a23          	sw	a5,-44(s0)
/home/nicoladgg/wsFreedomStudio/sifive_hifive1_revb_HCSR04/freedom-metal/src/drivers/sifive_uart0.c:178 (discriminator 1)
200160f2:	fd442783          	lw	a5,-44(s0)
200160f6:	fd842703          	lw	a4,-40(s0)
200160fa:	fee7c6e3          	blt	a5,a4,200160e6 <pre_rate_change_callback_func+0xb6>
/home/nicoladgg/wsFreedomStudio/sifive_hifive1_revb_HCSR04/freedom-metal/src/drivers/sifive_uart0.c:180
200160fe:	0001                	nop
20016100:	0001                	nop
20016102:	50f2                	lw	ra,60(sp)
20016104:	5462                	lw	s0,56(sp)
20016106:	6121                	addi	sp,sp,64
20016108:	8082                	ret

2001610a <post_rate_change_callback_func>:
post_rate_change_callback_func():
/home/nicoladgg/wsFreedomStudio/sifive_hifive1_revb_HCSR04/freedom-metal/src/drivers/sifive_uart0.c:182
2001610a:	7179                	addi	sp,sp,-48
2001610c:	d606                	sw	ra,44(sp)
2001610e:	d422                	sw	s0,40(sp)
20016110:	1800                	addi	s0,sp,48
20016112:	fca42e23          	sw	a0,-36(s0)
/home/nicoladgg/wsFreedomStudio/sifive_hifive1_revb_HCSR04/freedom-metal/src/drivers/sifive_uart0.c:183
20016116:	fdc42783          	lw	a5,-36(s0)
2001611a:	fef42623          	sw	a5,-20(s0)
/home/nicoladgg/wsFreedomStudio/sifive_hifive1_revb_HCSR04/freedom-metal/src/drivers/sifive_uart0.c:184
2001611e:	fec42703          	lw	a4,-20(s0)
20016122:	fec42783          	lw	a5,-20(s0)
20016126:	43dc                	lw	a5,4(a5)
20016128:	85be                	mv	a1,a5
2001612a:	853a                	mv	a0,a4
2001612c:	210d                	jal	2001654e <metal_uart_set_baud_rate>
/home/nicoladgg/wsFreedomStudio/sifive_hifive1_revb_HCSR04/freedom-metal/src/drivers/sifive_uart0.c:185
2001612e:	0001                	nop
20016130:	50b2                	lw	ra,44(sp)
20016132:	5422                	lw	s0,40(sp)
20016134:	6145                	addi	sp,sp,48
20016136:	8082                	ret

20016138 <__metal_driver_sifive_uart0_init>:
__metal_driver_sifive_uart0_init():
/home/nicoladgg/wsFreedomStudio/sifive_hifive1_revb_HCSR04/freedom-metal/src/drivers/sifive_uart0.c:187
20016138:	7139                	addi	sp,sp,-64
2001613a:	de06                	sw	ra,60(sp)
2001613c:	dc22                	sw	s0,56(sp)
2001613e:	0080                	addi	s0,sp,64
20016140:	fca42623          	sw	a0,-52(s0)
20016144:	fcb42423          	sw	a1,-56(s0)
/home/nicoladgg/wsFreedomStudio/sifive_hifive1_revb_HCSR04/freedom-metal/src/drivers/sifive_uart0.c:188
20016148:	fcc42783          	lw	a5,-52(s0)
2001614c:	fef42623          	sw	a5,-20(s0)
/home/nicoladgg/wsFreedomStudio/sifive_hifive1_revb_HCSR04/freedom-metal/src/drivers/sifive_uart0.c:189
20016150:	fcc42503          	lw	a0,-52(s0)
20016154:	a3dff0ef          	jal	ra,20015b90 <__metal_driver_sifive_uart0_clock>
20016158:	fea42423          	sw	a0,-24(s0)
/home/nicoladgg/wsFreedomStudio/sifive_hifive1_revb_HCSR04/freedom-metal/src/drivers/sifive_uart0.c:191
2001615c:	fcc42503          	lw	a0,-52(s0)
20016160:	a79ff0ef          	jal	ra,20015bd8 <__metal_driver_sifive_uart0_pinmux>
20016164:	fea42223          	sw	a0,-28(s0)
/home/nicoladgg/wsFreedomStudio/sifive_hifive1_revb_HCSR04/freedom-metal/src/drivers/sifive_uart0.c:193
20016168:	fe842783          	lw	a5,-24(s0)
2001616c:	c7b9                	beqz	a5,200161ba <__metal_driver_sifive_uart0_init+0x82>
/home/nicoladgg/wsFreedomStudio/sifive_hifive1_revb_HCSR04/freedom-metal/src/drivers/sifive_uart0.c:194
2001616e:	fec42783          	lw	a5,-20(s0)
20016172:	20016737          	lui	a4,0x20016
20016176:	03070713          	addi	a4,a4,48 # 20016030 <pre_rate_change_callback_func>
2001617a:	c798                	sw	a4,8(a5)
/home/nicoladgg/wsFreedomStudio/sifive_hifive1_revb_HCSR04/freedom-metal/src/drivers/sifive_uart0.c:196
2001617c:	fec42783          	lw	a5,-20(s0)
20016180:	fcc42703          	lw	a4,-52(s0)
20016184:	c7d8                	sw	a4,12(a5)
/home/nicoladgg/wsFreedomStudio/sifive_hifive1_revb_HCSR04/freedom-metal/src/drivers/sifive_uart0.c:197
20016186:	fec42783          	lw	a5,-20(s0)
2001618a:	07a1                	addi	a5,a5,8
2001618c:	85be                	mv	a1,a5
2001618e:	fe842503          	lw	a0,-24(s0)
20016192:	2aad                	jal	2001630c <metal_clock_register_pre_rate_change_callback>
/home/nicoladgg/wsFreedomStudio/sifive_hifive1_revb_HCSR04/freedom-metal/src/drivers/sifive_uart0.c:200
20016194:	fec42783          	lw	a5,-20(s0)
20016198:	20016737          	lui	a4,0x20016
2001619c:	10a70713          	addi	a4,a4,266 # 2001610a <post_rate_change_callback_func>
200161a0:	cbd8                	sw	a4,20(a5)
/home/nicoladgg/wsFreedomStudio/sifive_hifive1_revb_HCSR04/freedom-metal/src/drivers/sifive_uart0.c:202
200161a2:	fec42783          	lw	a5,-20(s0)
200161a6:	fcc42703          	lw	a4,-52(s0)
200161aa:	cf98                	sw	a4,24(a5)
/home/nicoladgg/wsFreedomStudio/sifive_hifive1_revb_HCSR04/freedom-metal/src/drivers/sifive_uart0.c:203
200161ac:	fec42783          	lw	a5,-20(s0)
200161b0:	07d1                	addi	a5,a5,20
200161b2:	85be                	mv	a1,a5
200161b4:	fe842503          	lw	a0,-24(s0)
200161b8:	2251                	jal	2001633c <metal_clock_register_post_rate_change_callback>
/home/nicoladgg/wsFreedomStudio/sifive_hifive1_revb_HCSR04/freedom-metal/src/drivers/sifive_uart0.c:207
200161ba:	fec42783          	lw	a5,-20(s0)
200161be:	fc842583          	lw	a1,-56(s0)
200161c2:	853e                	mv	a0,a5
200161c4:	2669                	jal	2001654e <metal_uart_set_baud_rate>
/home/nicoladgg/wsFreedomStudio/sifive_hifive1_revb_HCSR04/freedom-metal/src/drivers/sifive_uart0.c:209
200161c6:	fe442783          	lw	a5,-28(s0)
200161ca:	cb95                	beqz	a5,200161fe <__metal_driver_sifive_uart0_init+0xc6>
/home/nicoladgg/wsFreedomStudio/sifive_hifive1_revb_HCSR04/freedom-metal/src/drivers/sifive_uart0.c:211
200161cc:	fcc42503          	lw	a0,-52(s0)
200161d0:	a49ff0ef          	jal	ra,20015c18 <__metal_driver_sifive_uart0_pinmux_output_selector>
200161d4:	87aa                	mv	a5,a0
/home/nicoladgg/wsFreedomStudio/sifive_hifive1_revb_HCSR04/freedom-metal/src/drivers/sifive_uart0.c:210
200161d6:	fef42023          	sw	a5,-32(s0)
/home/nicoladgg/wsFreedomStudio/sifive_hifive1_revb_HCSR04/freedom-metal/src/drivers/sifive_uart0.c:213
200161da:	fcc42503          	lw	a0,-52(s0)
200161de:	a77ff0ef          	jal	ra,20015c54 <__metal_driver_sifive_uart0_pinmux_source_selector>
200161e2:	87aa                	mv	a5,a0
/home/nicoladgg/wsFreedomStudio/sifive_hifive1_revb_HCSR04/freedom-metal/src/drivers/sifive_uart0.c:212
200161e4:	fcf42e23          	sw	a5,-36(s0)
/home/nicoladgg/wsFreedomStudio/sifive_hifive1_revb_HCSR04/freedom-metal/src/drivers/sifive_uart0.c:214
200161e8:	fe442783          	lw	a5,-28(s0)
200161ec:	439c                	lw	a5,0(a5)
200161ee:	53dc                	lw	a5,36(a5)
200161f0:	fdc42603          	lw	a2,-36(s0)
200161f4:	fe042583          	lw	a1,-32(s0)
200161f8:	fe442503          	lw	a0,-28(s0)
200161fc:	9782                	jalr	a5
/home/nicoladgg/wsFreedomStudio/sifive_hifive1_revb_HCSR04/freedom-metal/src/drivers/sifive_uart0.c:218
200161fe:	0001                	nop
20016200:	50f2                	lw	ra,60(sp)
20016202:	5462                	lw	s0,56(sp)
20016204:	6121                	addi	sp,sp,64
20016206:	8082                	ret

20016208 <_metal_clock_call_all_callbacks>:
_metal_clock_call_all_callbacks():
/home/nicoladgg/wsFreedomStudio/sifive_hifive1_revb_HCSR04/freedom-metal/metal/clock.h:50
20016208:	7179                	addi	sp,sp,-48
2001620a:	d606                	sw	ra,44(sp)
2001620c:	d422                	sw	s0,40(sp)
2001620e:	1800                	addi	s0,sp,48
20016210:	fca42e23          	sw	a0,-36(s0)
/home/nicoladgg/wsFreedomStudio/sifive_hifive1_revb_HCSR04/freedom-metal/metal/clock.h:51
20016214:	fdc42783          	lw	a5,-36(s0)
20016218:	fef42623          	sw	a5,-20(s0)
/home/nicoladgg/wsFreedomStudio/sifive_hifive1_revb_HCSR04/freedom-metal/metal/clock.h:52
2001621c:	a831                	j	20016238 <_metal_clock_call_all_callbacks+0x30>
/home/nicoladgg/wsFreedomStudio/sifive_hifive1_revb_HCSR04/freedom-metal/metal/clock.h:53
2001621e:	fec42783          	lw	a5,-20(s0)
20016222:	4398                	lw	a4,0(a5)
20016224:	fec42783          	lw	a5,-20(s0)
20016228:	43dc                	lw	a5,4(a5)
2001622a:	853e                	mv	a0,a5
2001622c:	9702                	jalr	a4
/home/nicoladgg/wsFreedomStudio/sifive_hifive1_revb_HCSR04/freedom-metal/metal/clock.h:54
2001622e:	fec42783          	lw	a5,-20(s0)
20016232:	479c                	lw	a5,8(a5)
20016234:	fef42623          	sw	a5,-20(s0)
/home/nicoladgg/wsFreedomStudio/sifive_hifive1_revb_HCSR04/freedom-metal/metal/clock.h:52
20016238:	fec42783          	lw	a5,-20(s0)
2001623c:	f3ed                	bnez	a5,2001621e <_metal_clock_call_all_callbacks+0x16>
/home/nicoladgg/wsFreedomStudio/sifive_hifive1_revb_HCSR04/freedom-metal/metal/clock.h:56
2001623e:	0001                	nop
20016240:	0001                	nop
20016242:	50b2                	lw	ra,44(sp)
20016244:	5422                	lw	s0,40(sp)
20016246:	6145                	addi	sp,sp,48
20016248:	8082                	ret

2001624a <_metal_clock_append_to_callbacks>:
_metal_clock_append_to_callbacks():
/home/nicoladgg/wsFreedomStudio/sifive_hifive1_revb_HCSR04/freedom-metal/metal/clock.h:63
2001624a:	7179                	addi	sp,sp,-48
2001624c:	d622                	sw	s0,44(sp)
2001624e:	1800                	addi	s0,sp,48
20016250:	fca42e23          	sw	a0,-36(s0)
20016254:	fcb42c23          	sw	a1,-40(s0)
/home/nicoladgg/wsFreedomStudio/sifive_hifive1_revb_HCSR04/freedom-metal/metal/clock.h:64
20016258:	fd842783          	lw	a5,-40(s0)
2001625c:	0007a423          	sw	zero,8(a5) # 10008 <__heap_size+0xf808>
/home/nicoladgg/wsFreedomStudio/sifive_hifive1_revb_HCSR04/freedom-metal/metal/clock.h:66
20016260:	fdc42783          	lw	a5,-36(s0)
20016264:	e781                	bnez	a5,2001626c <_metal_clock_append_to_callbacks+0x22>
/home/nicoladgg/wsFreedomStudio/sifive_hifive1_revb_HCSR04/freedom-metal/metal/clock.h:67
20016266:	fd842783          	lw	a5,-40(s0)
2001626a:	a035                	j	20016296 <_metal_clock_append_to_callbacks+0x4c>
/home/nicoladgg/wsFreedomStudio/sifive_hifive1_revb_HCSR04/freedom-metal/metal/clock.h:70
2001626c:	fdc42783          	lw	a5,-36(s0)
20016270:	fef42623          	sw	a5,-20(s0)
/home/nicoladgg/wsFreedomStudio/sifive_hifive1_revb_HCSR04/freedom-metal/metal/clock.h:72
20016274:	a031                	j	20016280 <_metal_clock_append_to_callbacks+0x36>
/home/nicoladgg/wsFreedomStudio/sifive_hifive1_revb_HCSR04/freedom-metal/metal/clock.h:73
20016276:	fec42783          	lw	a5,-20(s0)
2001627a:	479c                	lw	a5,8(a5)
2001627c:	fef42623          	sw	a5,-20(s0)
/home/nicoladgg/wsFreedomStudio/sifive_hifive1_revb_HCSR04/freedom-metal/metal/clock.h:72
20016280:	fec42783          	lw	a5,-20(s0)
20016284:	479c                	lw	a5,8(a5)
20016286:	fbe5                	bnez	a5,20016276 <_metal_clock_append_to_callbacks+0x2c>
/home/nicoladgg/wsFreedomStudio/sifive_hifive1_revb_HCSR04/freedom-metal/metal/clock.h:76
20016288:	fec42783          	lw	a5,-20(s0)
2001628c:	fd842703          	lw	a4,-40(s0)
20016290:	c798                	sw	a4,8(a5)
/home/nicoladgg/wsFreedomStudio/sifive_hifive1_revb_HCSR04/freedom-metal/metal/clock.h:78
20016292:	fdc42783          	lw	a5,-36(s0)
/home/nicoladgg/wsFreedomStudio/sifive_hifive1_revb_HCSR04/freedom-metal/metal/clock.h:79
20016296:	853e                	mv	a0,a5
20016298:	5432                	lw	s0,44(sp)
2001629a:	6145                	addi	sp,sp,48
2001629c:	8082                	ret

2001629e <metal_clock_get_rate_hz>:
metal_clock_get_rate_hz():
/home/nicoladgg/wsFreedomStudio/sifive_hifive1_revb_HCSR04/freedom-metal/metal/clock.h:110
2001629e:	1101                	addi	sp,sp,-32
200162a0:	ce06                	sw	ra,28(sp)
200162a2:	cc22                	sw	s0,24(sp)
200162a4:	1000                	addi	s0,sp,32
200162a6:	fea42623          	sw	a0,-20(s0)
/home/nicoladgg/wsFreedomStudio/sifive_hifive1_revb_HCSR04/freedom-metal/metal/clock.h:111
200162aa:	fec42783          	lw	a5,-20(s0)
200162ae:	439c                	lw	a5,0(a5)
200162b0:	439c                	lw	a5,0(a5)
200162b2:	fec42503          	lw	a0,-20(s0)
200162b6:	9782                	jalr	a5
200162b8:	87aa                	mv	a5,a0
/home/nicoladgg/wsFreedomStudio/sifive_hifive1_revb_HCSR04/freedom-metal/metal/clock.h:112
200162ba:	853e                	mv	a0,a5
200162bc:	40f2                	lw	ra,28(sp)
200162be:	4462                	lw	s0,24(sp)
200162c0:	6105                	addi	sp,sp,32
200162c2:	8082                	ret

200162c4 <metal_clock_set_rate_hz>:
metal_clock_set_rate_hz():
/home/nicoladgg/wsFreedomStudio/sifive_hifive1_revb_HCSR04/freedom-metal/metal/clock.h:128
200162c4:	7179                	addi	sp,sp,-48
200162c6:	d606                	sw	ra,44(sp)
200162c8:	d422                	sw	s0,40(sp)
200162ca:	1800                	addi	s0,sp,48
200162cc:	fca42e23          	sw	a0,-36(s0)
200162d0:	fcb42c23          	sw	a1,-40(s0)
/home/nicoladgg/wsFreedomStudio/sifive_hifive1_revb_HCSR04/freedom-metal/metal/clock.h:129
200162d4:	fdc42783          	lw	a5,-36(s0)
200162d8:	43dc                	lw	a5,4(a5)
200162da:	853e                	mv	a0,a5
200162dc:	3735                	jal	20016208 <_metal_clock_call_all_callbacks>
/home/nicoladgg/wsFreedomStudio/sifive_hifive1_revb_HCSR04/freedom-metal/metal/clock.h:131
200162de:	fdc42783          	lw	a5,-36(s0)
200162e2:	439c                	lw	a5,0(a5)
200162e4:	43dc                	lw	a5,4(a5)
200162e6:	fd842583          	lw	a1,-40(s0)
200162ea:	fdc42503          	lw	a0,-36(s0)
200162ee:	9782                	jalr	a5
200162f0:	fea42623          	sw	a0,-20(s0)
/home/nicoladgg/wsFreedomStudio/sifive_hifive1_revb_HCSR04/freedom-metal/metal/clock.h:133
200162f4:	fdc42783          	lw	a5,-36(s0)
200162f8:	479c                	lw	a5,8(a5)
200162fa:	853e                	mv	a0,a5
200162fc:	3731                	jal	20016208 <_metal_clock_call_all_callbacks>
/home/nicoladgg/wsFreedomStudio/sifive_hifive1_revb_HCSR04/freedom-metal/metal/clock.h:135
200162fe:	fec42783          	lw	a5,-20(s0)
/home/nicoladgg/wsFreedomStudio/sifive_hifive1_revb_HCSR04/freedom-metal/metal/clock.h:136
20016302:	853e                	mv	a0,a5
20016304:	50b2                	lw	ra,44(sp)
20016306:	5422                	lw	s0,40(sp)
20016308:	6145                	addi	sp,sp,48
2001630a:	8082                	ret

2001630c <metal_clock_register_pre_rate_change_callback>:
metal_clock_register_pre_rate_change_callback():
/home/nicoladgg/wsFreedomStudio/sifive_hifive1_revb_HCSR04/freedom-metal/metal/clock.h:146
2001630c:	1101                	addi	sp,sp,-32
2001630e:	ce06                	sw	ra,28(sp)
20016310:	cc22                	sw	s0,24(sp)
20016312:	1000                	addi	s0,sp,32
20016314:	fea42623          	sw	a0,-20(s0)
20016318:	feb42423          	sw	a1,-24(s0)
/home/nicoladgg/wsFreedomStudio/sifive_hifive1_revb_HCSR04/freedom-metal/metal/clock.h:148
2001631c:	fec42783          	lw	a5,-20(s0)
20016320:	43dc                	lw	a5,4(a5)
20016322:	fe842583          	lw	a1,-24(s0)
20016326:	853e                	mv	a0,a5
20016328:	370d                	jal	2001624a <_metal_clock_append_to_callbacks>
2001632a:	872a                	mv	a4,a0
/home/nicoladgg/wsFreedomStudio/sifive_hifive1_revb_HCSR04/freedom-metal/metal/clock.h:147
2001632c:	fec42783          	lw	a5,-20(s0)
20016330:	c3d8                	sw	a4,4(a5)
/home/nicoladgg/wsFreedomStudio/sifive_hifive1_revb_HCSR04/freedom-metal/metal/clock.h:149
20016332:	0001                	nop
20016334:	40f2                	lw	ra,28(sp)
20016336:	4462                	lw	s0,24(sp)
20016338:	6105                	addi	sp,sp,32
2001633a:	8082                	ret

2001633c <metal_clock_register_post_rate_change_callback>:
metal_clock_register_post_rate_change_callback():
/home/nicoladgg/wsFreedomStudio/sifive_hifive1_revb_HCSR04/freedom-metal/metal/clock.h:159
2001633c:	1101                	addi	sp,sp,-32
2001633e:	ce06                	sw	ra,28(sp)
20016340:	cc22                	sw	s0,24(sp)
20016342:	1000                	addi	s0,sp,32
20016344:	fea42623          	sw	a0,-20(s0)
20016348:	feb42423          	sw	a1,-24(s0)
/home/nicoladgg/wsFreedomStudio/sifive_hifive1_revb_HCSR04/freedom-metal/metal/clock.h:161
2001634c:	fec42783          	lw	a5,-20(s0)
20016350:	479c                	lw	a5,8(a5)
20016352:	fe842583          	lw	a1,-24(s0)
20016356:	853e                	mv	a0,a5
20016358:	ef3ff0ef          	jal	ra,2001624a <_metal_clock_append_to_callbacks>
2001635c:	872a                	mv	a4,a0
/home/nicoladgg/wsFreedomStudio/sifive_hifive1_revb_HCSR04/freedom-metal/metal/clock.h:160
2001635e:	fec42783          	lw	a5,-20(s0)
20016362:	c798                	sw	a4,8(a5)
/home/nicoladgg/wsFreedomStudio/sifive_hifive1_revb_HCSR04/freedom-metal/metal/clock.h:162
20016364:	0001                	nop
20016366:	40f2                	lw	ra,28(sp)
20016368:	4462                	lw	s0,24(sp)
2001636a:	6105                	addi	sp,sp,32
2001636c:	8082                	ret

2001636e <metal_cpu_timer_interrupt_controller>:
metal_cpu_timer_interrupt_controller():
/home/nicoladgg/wsFreedomStudio/sifive_hifive1_revb_HCSR04/freedom-metal/metal/cpu.h:126
2001636e:	1101                	addi	sp,sp,-32
20016370:	ce06                	sw	ra,28(sp)
20016372:	cc22                	sw	s0,24(sp)
20016374:	1000                	addi	s0,sp,32
20016376:	fea42623          	sw	a0,-20(s0)
/home/nicoladgg/wsFreedomStudio/sifive_hifive1_revb_HCSR04/freedom-metal/metal/cpu.h:127
2001637a:	fec42783          	lw	a5,-20(s0)
2001637e:	439c                	lw	a5,0(a5)
20016380:	4b9c                	lw	a5,16(a5)
20016382:	fec42503          	lw	a0,-20(s0)
20016386:	9782                	jalr	a5
20016388:	87aa                	mv	a5,a0
/home/nicoladgg/wsFreedomStudio/sifive_hifive1_revb_HCSR04/freedom-metal/metal/cpu.h:128
2001638a:	853e                	mv	a0,a5
2001638c:	40f2                	lw	ra,28(sp)
2001638e:	4462                	lw	s0,24(sp)
20016390:	6105                	addi	sp,sp,32
20016392:	8082                	ret

20016394 <metal_cpu_timer_get_interrupt_id>:
metal_cpu_timer_get_interrupt_id():
/home/nicoladgg/wsFreedomStudio/sifive_hifive1_revb_HCSR04/freedom-metal/metal/cpu.h:137
20016394:	1101                	addi	sp,sp,-32
20016396:	ce06                	sw	ra,28(sp)
20016398:	cc22                	sw	s0,24(sp)
2001639a:	1000                	addi	s0,sp,32
2001639c:	fea42623          	sw	a0,-20(s0)
/home/nicoladgg/wsFreedomStudio/sifive_hifive1_revb_HCSR04/freedom-metal/metal/cpu.h:138
200163a0:	fec42783          	lw	a5,-20(s0)
200163a4:	439c                	lw	a5,0(a5)
200163a6:	4bdc                	lw	a5,20(a5)
200163a8:	fec42503          	lw	a0,-20(s0)
200163ac:	9782                	jalr	a5
200163ae:	87aa                	mv	a5,a0
/home/nicoladgg/wsFreedomStudio/sifive_hifive1_revb_HCSR04/freedom-metal/metal/cpu.h:139
200163b0:	853e                	mv	a0,a5
200163b2:	40f2                	lw	ra,28(sp)
200163b4:	4462                	lw	s0,24(sp)
200163b6:	6105                	addi	sp,sp,32
200163b8:	8082                	ret

200163ba <metal_cpu_interrupt_controller>:
metal_cpu_interrupt_controller():
/home/nicoladgg/wsFreedomStudio/sifive_hifive1_revb_HCSR04/freedom-metal/metal/cpu.h:224
200163ba:	1101                	addi	sp,sp,-32
200163bc:	ce06                	sw	ra,28(sp)
200163be:	cc22                	sw	s0,24(sp)
200163c0:	1000                	addi	s0,sp,32
200163c2:	fea42623          	sw	a0,-20(s0)
/home/nicoladgg/wsFreedomStudio/sifive_hifive1_revb_HCSR04/freedom-metal/metal/cpu.h:225
200163c6:	fec42783          	lw	a5,-20(s0)
200163ca:	439c                	lw	a5,0(a5)
200163cc:	57dc                	lw	a5,44(a5)
200163ce:	fec42503          	lw	a0,-20(s0)
200163d2:	9782                	jalr	a5
200163d4:	87aa                	mv	a5,a0
/home/nicoladgg/wsFreedomStudio/sifive_hifive1_revb_HCSR04/freedom-metal/metal/cpu.h:226
200163d6:	853e                	mv	a0,a5
200163d8:	40f2                	lw	ra,28(sp)
200163da:	4462                	lw	s0,24(sp)
200163dc:	6105                	addi	sp,sp,32
200163de:	8082                	ret

200163e0 <metal_cpu_get>:
metal_cpu_get():
/home/nicoladgg/wsFreedomStudio/sifive_hifive1_revb_HCSR04/freedom-metal/src/cpu.c:7
200163e0:	1101                	addi	sp,sp,-32
200163e2:	ce22                	sw	s0,28(sp)
200163e4:	1000                	addi	s0,sp,32
200163e6:	fea42623          	sw	a0,-20(s0)
/home/nicoladgg/wsFreedomStudio/sifive_hifive1_revb_HCSR04/freedom-metal/src/cpu.c:8
200163ea:	fec42783          	lw	a5,-20(s0)
200163ee:	eb99                	bnez	a5,20016404 <metal_cpu_get+0x24>
/home/nicoladgg/wsFreedomStudio/sifive_hifive1_revb_HCSR04/freedom-metal/src/cpu.c:9
200163f0:	800017b7          	lui	a5,0x80001
200163f4:	fec42703          	lw	a4,-20(s0)
200163f8:	070a                	slli	a4,a4,0x2
200163fa:	aa078793          	addi	a5,a5,-1376 # 80000aa0 <metal_segment_heap_target_end+0xfffff320>
200163fe:	97ba                	add	a5,a5,a4
20016400:	439c                	lw	a5,0(a5)
20016402:	a011                	j	20016406 <metal_cpu_get+0x26>
/home/nicoladgg/wsFreedomStudio/sifive_hifive1_revb_HCSR04/freedom-metal/src/cpu.c:11
20016404:	4781                	li	a5,0
/home/nicoladgg/wsFreedomStudio/sifive_hifive1_revb_HCSR04/freedom-metal/src/cpu.c:12
20016406:	853e                	mv	a0,a5
20016408:	4472                	lw	s0,28(sp)
2001640a:	6105                	addi	sp,sp,32
2001640c:	8082                	ret

2001640e <metal_cpu_get_current_hartid>:
metal_cpu_get_current_hartid():
/home/nicoladgg/wsFreedomStudio/sifive_hifive1_revb_HCSR04/freedom-metal/src/cpu.c:14
2001640e:	1101                	addi	sp,sp,-32
20016410:	ce22                	sw	s0,28(sp)
20016412:	1000                	addi	s0,sp,32
/home/nicoladgg/wsFreedomStudio/sifive_hifive1_revb_HCSR04/freedom-metal/src/cpu.c:17
20016414:	f14027f3          	csrr	a5,mhartid
20016418:	fef42623          	sw	a5,-20(s0)
/home/nicoladgg/wsFreedomStudio/sifive_hifive1_revb_HCSR04/freedom-metal/src/cpu.c:18
2001641c:	fec42783          	lw	a5,-20(s0)
/home/nicoladgg/wsFreedomStudio/sifive_hifive1_revb_HCSR04/freedom-metal/src/cpu.c:20
20016420:	853e                	mv	a0,a5
20016422:	4472                	lw	s0,28(sp)
20016424:	6105                	addi	sp,sp,32
20016426:	8082                	ret

20016428 <metal_interrupt_init>:
metal_interrupt_init():
/home/nicoladgg/wsFreedomStudio/sifive_hifive1_revb_HCSR04/freedom-metal/metal/interrupt.h:130
20016428:	1101                	addi	sp,sp,-32
2001642a:	ce06                	sw	ra,28(sp)
2001642c:	cc22                	sw	s0,24(sp)
2001642e:	1000                	addi	s0,sp,32
20016430:	fea42623          	sw	a0,-20(s0)
/home/nicoladgg/wsFreedomStudio/sifive_hifive1_revb_HCSR04/freedom-metal/metal/interrupt.h:131
20016434:	fec42783          	lw	a5,-20(s0)
20016438:	439c                	lw	a5,0(a5)
2001643a:	439c                	lw	a5,0(a5)
2001643c:	fec42503          	lw	a0,-20(s0)
20016440:	9782                	jalr	a5
/home/nicoladgg/wsFreedomStudio/sifive_hifive1_revb_HCSR04/freedom-metal/metal/interrupt.h:132
20016442:	0001                	nop
20016444:	40f2                	lw	ra,28(sp)
20016446:	4462                	lw	s0,24(sp)
20016448:	6105                	addi	sp,sp,32
2001644a:	8082                	ret

2001644c <metal_interrupt_register_handler>:
metal_interrupt_register_handler():
/home/nicoladgg/wsFreedomStudio/sifive_hifive1_revb_HCSR04/freedom-metal/metal/interrupt.h:240
2001644c:	1101                	addi	sp,sp,-32
2001644e:	ce06                	sw	ra,28(sp)
20016450:	cc22                	sw	s0,24(sp)
20016452:	1000                	addi	s0,sp,32
20016454:	fea42623          	sw	a0,-20(s0)
20016458:	feb42423          	sw	a1,-24(s0)
2001645c:	fec42223          	sw	a2,-28(s0)
20016460:	fed42023          	sw	a3,-32(s0)
/home/nicoladgg/wsFreedomStudio/sifive_hifive1_revb_HCSR04/freedom-metal/metal/interrupt.h:241
20016464:	fec42783          	lw	a5,-20(s0)
20016468:	439c                	lw	a5,0(a5)
2001646a:	4fdc                	lw	a5,28(a5)
2001646c:	fe042683          	lw	a3,-32(s0)
20016470:	fe442603          	lw	a2,-28(s0)
20016474:	fe842583          	lw	a1,-24(s0)
20016478:	fec42503          	lw	a0,-20(s0)
2001647c:	9782                	jalr	a5
2001647e:	87aa                	mv	a5,a0
/home/nicoladgg/wsFreedomStudio/sifive_hifive1_revb_HCSR04/freedom-metal/metal/interrupt.h:243
20016480:	853e                	mv	a0,a5
20016482:	40f2                	lw	ra,28(sp)
20016484:	4462                	lw	s0,24(sp)
20016486:	6105                	addi	sp,sp,32
20016488:	8082                	ret

2001648a <metal_interrupt_enable>:
metal_interrupt_enable():
/home/nicoladgg/wsFreedomStudio/sifive_hifive1_revb_HCSR04/freedom-metal/metal/interrupt.h:267
2001648a:	1101                	addi	sp,sp,-32
2001648c:	ce06                	sw	ra,28(sp)
2001648e:	cc22                	sw	s0,24(sp)
20016490:	1000                	addi	s0,sp,32
20016492:	fea42623          	sw	a0,-20(s0)
20016496:	feb42423          	sw	a1,-24(s0)
/home/nicoladgg/wsFreedomStudio/sifive_hifive1_revb_HCSR04/freedom-metal/metal/interrupt.h:268
2001649a:	fec42783          	lw	a5,-20(s0)
2001649e:	439c                	lw	a5,0(a5)
200164a0:	53dc                	lw	a5,36(a5)
200164a2:	fe842583          	lw	a1,-24(s0)
200164a6:	fec42503          	lw	a0,-20(s0)
200164aa:	9782                	jalr	a5
200164ac:	87aa                	mv	a5,a0
/home/nicoladgg/wsFreedomStudio/sifive_hifive1_revb_HCSR04/freedom-metal/metal/interrupt.h:269
200164ae:	853e                	mv	a0,a5
200164b0:	40f2                	lw	ra,28(sp)
200164b2:	4462                	lw	s0,24(sp)
200164b4:	6105                	addi	sp,sp,32
200164b6:	8082                	ret

200164b8 <metal_interrupt_disable>:
metal_interrupt_disable():
/home/nicoladgg/wsFreedomStudio/sifive_hifive1_revb_HCSR04/freedom-metal/metal/interrupt.h:278
200164b8:	1101                	addi	sp,sp,-32
200164ba:	ce06                	sw	ra,28(sp)
200164bc:	cc22                	sw	s0,24(sp)
200164be:	1000                	addi	s0,sp,32
200164c0:	fea42623          	sw	a0,-20(s0)
200164c4:	feb42423          	sw	a1,-24(s0)
/home/nicoladgg/wsFreedomStudio/sifive_hifive1_revb_HCSR04/freedom-metal/metal/interrupt.h:279
200164c8:	fec42783          	lw	a5,-20(s0)
200164cc:	439c                	lw	a5,0(a5)
200164ce:	579c                	lw	a5,40(a5)
200164d0:	fe842583          	lw	a1,-24(s0)
200164d4:	fec42503          	lw	a0,-20(s0)
200164d8:	9782                	jalr	a5
200164da:	87aa                	mv	a5,a0
/home/nicoladgg/wsFreedomStudio/sifive_hifive1_revb_HCSR04/freedom-metal/metal/interrupt.h:280
200164dc:	853e                	mv	a0,a5
200164de:	40f2                	lw	ra,28(sp)
200164e0:	4462                	lw	s0,24(sp)
200164e2:	6105                	addi	sp,sp,32
200164e4:	8082                	ret

200164e6 <metal_shutdown>:
metal_shutdown():
/home/nicoladgg/wsFreedomStudio/sifive_hifive1_revb_HCSR04/freedom-metal/src/shutdown.c:17
200164e6:	1101                	addi	sp,sp,-32
200164e8:	ce22                	sw	s0,28(sp)
200164ea:	1000                	addi	s0,sp,32
200164ec:	fea42623          	sw	a0,-20(s0)
/home/nicoladgg/wsFreedomStudio/sifive_hifive1_revb_HCSR04/freedom-metal/src/shutdown.c:19 (discriminator 1)
200164f0:	0001                	nop
200164f2:	bffd                	j	200164f0 <metal_shutdown+0xa>

200164f4 <metal_uart_init>:
metal_uart_init():
/home/nicoladgg/wsFreedomStudio/sifive_hifive1_revb_HCSR04/freedom-metal/metal/uart.h:59
200164f4:	1101                	addi	sp,sp,-32
200164f6:	ce06                	sw	ra,28(sp)
200164f8:	cc22                	sw	s0,24(sp)
200164fa:	1000                	addi	s0,sp,32
200164fc:	fea42623          	sw	a0,-20(s0)
20016500:	feb42423          	sw	a1,-24(s0)
/home/nicoladgg/wsFreedomStudio/sifive_hifive1_revb_HCSR04/freedom-metal/metal/uart.h:60
20016504:	fec42783          	lw	a5,-20(s0)
20016508:	439c                	lw	a5,0(a5)
2001650a:	439c                	lw	a5,0(a5)
2001650c:	fe842583          	lw	a1,-24(s0)
20016510:	fec42503          	lw	a0,-20(s0)
20016514:	9782                	jalr	a5
/home/nicoladgg/wsFreedomStudio/sifive_hifive1_revb_HCSR04/freedom-metal/metal/uart.h:61
20016516:	0001                	nop
20016518:	40f2                	lw	ra,28(sp)
2001651a:	4462                	lw	s0,24(sp)
2001651c:	6105                	addi	sp,sp,32
2001651e:	8082                	ret

20016520 <metal_uart_putc>:
metal_uart_putc():
/home/nicoladgg/wsFreedomStudio/sifive_hifive1_revb_HCSR04/freedom-metal/metal/uart.h:69
20016520:	1101                	addi	sp,sp,-32
20016522:	ce06                	sw	ra,28(sp)
20016524:	cc22                	sw	s0,24(sp)
20016526:	1000                	addi	s0,sp,32
20016528:	fea42623          	sw	a0,-20(s0)
2001652c:	feb42423          	sw	a1,-24(s0)
/home/nicoladgg/wsFreedomStudio/sifive_hifive1_revb_HCSR04/freedom-metal/metal/uart.h:70
20016530:	fec42783          	lw	a5,-20(s0)
20016534:	439c                	lw	a5,0(a5)
20016536:	43dc                	lw	a5,4(a5)
20016538:	fe842583          	lw	a1,-24(s0)
2001653c:	fec42503          	lw	a0,-20(s0)
20016540:	9782                	jalr	a5
20016542:	87aa                	mv	a5,a0
/home/nicoladgg/wsFreedomStudio/sifive_hifive1_revb_HCSR04/freedom-metal/metal/uart.h:71
20016544:	853e                	mv	a0,a5
20016546:	40f2                	lw	ra,28(sp)
20016548:	4462                	lw	s0,24(sp)
2001654a:	6105                	addi	sp,sp,32
2001654c:	8082                	ret

2001654e <metal_uart_set_baud_rate>:
metal_uart_set_baud_rate():
/home/nicoladgg/wsFreedomStudio/sifive_hifive1_revb_HCSR04/freedom-metal/metal/uart.h:111
2001654e:	1101                	addi	sp,sp,-32
20016550:	ce06                	sw	ra,28(sp)
20016552:	cc22                	sw	s0,24(sp)
20016554:	1000                	addi	s0,sp,32
20016556:	fea42623          	sw	a0,-20(s0)
2001655a:	feb42423          	sw	a1,-24(s0)
/home/nicoladgg/wsFreedomStudio/sifive_hifive1_revb_HCSR04/freedom-metal/metal/uart.h:112
2001655e:	fec42783          	lw	a5,-20(s0)
20016562:	439c                	lw	a5,0(a5)
20016564:	4bdc                	lw	a5,20(a5)
20016566:	fe842583          	lw	a1,-24(s0)
2001656a:	fec42503          	lw	a0,-20(s0)
2001656e:	9782                	jalr	a5
20016570:	87aa                	mv	a5,a0
/home/nicoladgg/wsFreedomStudio/sifive_hifive1_revb_HCSR04/freedom-metal/metal/uart.h:113
20016572:	853e                	mv	a0,a5
20016574:	40f2                	lw	ra,28(sp)
20016576:	4462                	lw	s0,24(sp)
20016578:	6105                	addi	sp,sp,32
2001657a:	8082                	ret
2001657c:	0000                	unimp
	...

20016580 <__metal_vector_table>:
IRQ_0():
/home/nicoladgg/wsFreedomStudio/sifive_hifive1_revb_HCSR04/freedom-metal/src/vector.S:96
20016580:	904fc06f          	j	20012684 <metal_interrupt_vector_handler>

20016584 <IRQ_1>:
IRQ_1():
/home/nicoladgg/wsFreedomStudio/sifive_hifive1_revb_HCSR04/freedom-metal/src/vector.S:98
20016584:	900fc06f          	j	20012684 <metal_interrupt_vector_handler>

20016588 <IRQ_2>:
IRQ_2():
/home/nicoladgg/wsFreedomStudio/sifive_hifive1_revb_HCSR04/freedom-metal/src/vector.S:100
20016588:	8fcfc06f          	j	20012684 <metal_interrupt_vector_handler>

2001658c <IRQ_3>:
IRQ_3():
/home/nicoladgg/wsFreedomStudio/sifive_hifive1_revb_HCSR04/freedom-metal/src/vector.S:102
2001658c:	926fc06f          	j	200126b2 <metal_software_interrupt_vector_handler>

20016590 <IRQ_4>:
IRQ_4():
/home/nicoladgg/wsFreedomStudio/sifive_hifive1_revb_HCSR04/freedom-metal/src/vector.S:104
20016590:	8f4fc06f          	j	20012684 <metal_interrupt_vector_handler>

20016594 <IRQ_5>:
IRQ_5():
/home/nicoladgg/wsFreedomStudio/sifive_hifive1_revb_HCSR04/freedom-metal/src/vector.S:106
20016594:	8f0fc06f          	j	20012684 <metal_interrupt_vector_handler>

20016598 <IRQ_6>:
IRQ_6():
/home/nicoladgg/wsFreedomStudio/sifive_hifive1_revb_HCSR04/freedom-metal/src/vector.S:108
20016598:	8ecfc06f          	j	20012684 <metal_interrupt_vector_handler>

2001659c <IRQ_7>:
IRQ_7():
/home/nicoladgg/wsFreedomStudio/sifive_hifive1_revb_HCSR04/freedom-metal/src/vector.S:110
2001659c:	a10fc06f          	j	200127ac <metal_timer_interrupt_vector_handler>

200165a0 <IRQ_8>:
IRQ_8():
/home/nicoladgg/wsFreedomStudio/sifive_hifive1_revb_HCSR04/freedom-metal/src/vector.S:112
200165a0:	8e4fc06f          	j	20012684 <metal_interrupt_vector_handler>

200165a4 <IRQ_9>:
IRQ_9():
/home/nicoladgg/wsFreedomStudio/sifive_hifive1_revb_HCSR04/freedom-metal/src/vector.S:114
200165a4:	8e0fc06f          	j	20012684 <metal_interrupt_vector_handler>

200165a8 <IRQ_10>:
IRQ_10():
/home/nicoladgg/wsFreedomStudio/sifive_hifive1_revb_HCSR04/freedom-metal/src/vector.S:116
200165a8:	8dcfc06f          	j	20012684 <metal_interrupt_vector_handler>

200165ac <IRQ_11>:
IRQ_11():
/home/nicoladgg/wsFreedomStudio/sifive_hifive1_revb_HCSR04/freedom-metal/src/vector.S:118
200165ac:	8d8fc06f          	j	20012684 <metal_interrupt_vector_handler>

200165b0 <IRQ_12>:
IRQ_12():
/home/nicoladgg/wsFreedomStudio/sifive_hifive1_revb_HCSR04/freedom-metal/src/vector.S:120
200165b0:	8d4fc06f          	j	20012684 <metal_interrupt_vector_handler>

200165b4 <IRQ_13>:
IRQ_13():
/home/nicoladgg/wsFreedomStudio/sifive_hifive1_revb_HCSR04/freedom-metal/src/vector.S:122
200165b4:	8d0fc06f          	j	20012684 <metal_interrupt_vector_handler>

200165b8 <IRQ_14>:
IRQ_14():
/home/nicoladgg/wsFreedomStudio/sifive_hifive1_revb_HCSR04/freedom-metal/src/vector.S:124
200165b8:	8ccfc06f          	j	20012684 <metal_interrupt_vector_handler>

200165bc <IRQ_15>:
IRQ_15():
/home/nicoladgg/wsFreedomStudio/sifive_hifive1_revb_HCSR04/freedom-metal/src/vector.S:126
200165bc:	8c8fc06f          	j	20012684 <metal_interrupt_vector_handler>

200165c0 <IRQ_LC0>:
IRQ_LC0():
/home/nicoladgg/wsFreedomStudio/sifive_hifive1_revb_HCSR04/freedom-metal/src/vector.S:128
200165c0:	d38fc06f          	j	20012af8 <metal_lc0_interrupt_vector_handler>

200165c4 <IRQ_LC1>:
IRQ_LC1():
/home/nicoladgg/wsFreedomStudio/sifive_hifive1_revb_HCSR04/freedom-metal/src/vector.S:130
200165c4:	dcafc06f          	j	20012b8e <metal_lc1_interrupt_vector_handler>

200165c8 <IRQ_LC2>:
IRQ_LC2():
/home/nicoladgg/wsFreedomStudio/sifive_hifive1_revb_HCSR04/freedom-metal/src/vector.S:132
200165c8:	e5cfc06f          	j	20012c24 <metal_lc2_interrupt_vector_handler>

200165cc <IRQ_LC3>:
IRQ_LC3():
/home/nicoladgg/wsFreedomStudio/sifive_hifive1_revb_HCSR04/freedom-metal/src/vector.S:134
200165cc:	eeefc06f          	j	20012cba <metal_lc3_interrupt_vector_handler>

200165d0 <IRQ_LC4>:
IRQ_LC4():
/home/nicoladgg/wsFreedomStudio/sifive_hifive1_revb_HCSR04/freedom-metal/src/vector.S:136
200165d0:	f80fc06f          	j	20012d50 <metal_lc4_interrupt_vector_handler>

200165d4 <IRQ_LC5>:
IRQ_LC5():
/home/nicoladgg/wsFreedomStudio/sifive_hifive1_revb_HCSR04/freedom-metal/src/vector.S:138
200165d4:	813fc06f          	j	20012de6 <metal_lc5_interrupt_vector_handler>

200165d8 <IRQ_LC6>:
IRQ_LC6():
/home/nicoladgg/wsFreedomStudio/sifive_hifive1_revb_HCSR04/freedom-metal/src/vector.S:140
200165d8:	8a5fc06f          	j	20012e7c <metal_lc6_interrupt_vector_handler>

200165dc <IRQ_LC7>:
IRQ_LC7():
/home/nicoladgg/wsFreedomStudio/sifive_hifive1_revb_HCSR04/freedom-metal/src/vector.S:142
200165dc:	937fc06f          	j	20012f12 <metal_lc7_interrupt_vector_handler>

200165e0 <IRQ_LC8>:
IRQ_LC8():
/home/nicoladgg/wsFreedomStudio/sifive_hifive1_revb_HCSR04/freedom-metal/src/vector.S:144
200165e0:	9c9fc06f          	j	20012fa8 <metal_lc8_interrupt_vector_handler>

200165e4 <IRQ_LC9>:
IRQ_LC9():
/home/nicoladgg/wsFreedomStudio/sifive_hifive1_revb_HCSR04/freedom-metal/src/vector.S:146
200165e4:	a5bfc06f          	j	2001303e <metal_lc9_interrupt_vector_handler>

200165e8 <IRQ_LC10>:
IRQ_LC10():
/home/nicoladgg/wsFreedomStudio/sifive_hifive1_revb_HCSR04/freedom-metal/src/vector.S:148
200165e8:	aedfc06f          	j	200130d4 <metal_lc10_interrupt_vector_handler>

200165ec <IRQ_LC11>:
IRQ_LC11():
/home/nicoladgg/wsFreedomStudio/sifive_hifive1_revb_HCSR04/freedom-metal/src/vector.S:150
200165ec:	b7ffc06f          	j	2001316a <metal_lc11_interrupt_vector_handler>

200165f0 <IRQ_LC12>:
IRQ_LC12():
/home/nicoladgg/wsFreedomStudio/sifive_hifive1_revb_HCSR04/freedom-metal/src/vector.S:152
200165f0:	c11fc06f          	j	20013200 <metal_lc12_interrupt_vector_handler>

200165f4 <IRQ_LC13>:
IRQ_LC13():
/home/nicoladgg/wsFreedomStudio/sifive_hifive1_revb_HCSR04/freedom-metal/src/vector.S:154
200165f4:	ca3fc06f          	j	20013296 <metal_lc13_interrupt_vector_handler>

200165f8 <IRQ_LC14>:
IRQ_LC14():
/home/nicoladgg/wsFreedomStudio/sifive_hifive1_revb_HCSR04/freedom-metal/src/vector.S:156
200165f8:	d35fc06f          	j	2001332c <metal_lc14_interrupt_vector_handler>

200165fc <IRQ_LC15>:
IRQ_LC15():
/home/nicoladgg/wsFreedomStudio/sifive_hifive1_revb_HCSR04/freedom-metal/src/vector.S:158
200165fc:	dc7fc06f          	j	200133c2 <metal_lc15_interrupt_vector_handler>

20016600 <__metal_driver_fixed_clock_rate>:
__metal_driver_fixed_clock_rate():
/home/nicoladgg/wsFreedomStudio/sifive_hifive1_revb_HCSR04/bsp/build/debug/./metal/machine.h:208
20016600:	1101                	addi	sp,sp,-32
20016602:	ce22                	sw	s0,28(sp)
20016604:	1000                	addi	s0,sp,32
20016606:	fea42623          	sw	a0,-20(s0)
/home/nicoladgg/wsFreedomStudio/sifive_hifive1_revb_HCSR04/bsp/build/debug/./metal/machine.h:209
2001660a:	fec42703          	lw	a4,-20(s0)
2001660e:	800007b7          	lui	a5,0x80000
20016612:	06078793          	addi	a5,a5,96 # 80000060 <metal_segment_heap_target_end+0xffffe8e0>
20016616:	00f71763          	bne	a4,a5,20016624 <__metal_driver_fixed_clock_rate+0x24>
/home/nicoladgg/wsFreedomStudio/sifive_hifive1_revb_HCSR04/bsp/build/debug/./metal/machine.h:210
2001661a:	00f427b7          	lui	a5,0xf42
2001661e:	40078793          	addi	a5,a5,1024 # f42400 <__heap_size+0xf41c00>
20016622:	a099                	j	20016668 <__metal_driver_fixed_clock_rate+0x68>
/home/nicoladgg/wsFreedomStudio/sifive_hifive1_revb_HCSR04/bsp/build/debug/./metal/machine.h:212
20016624:	fec42703          	lw	a4,-20(s0)
20016628:	800007b7          	lui	a5,0x80000
2001662c:	06c78793          	addi	a5,a5,108 # 8000006c <metal_segment_heap_target_end+0xffffe8ec>
20016630:	00f71763          	bne	a4,a5,2001663e <__metal_driver_fixed_clock_rate+0x3e>
/home/nicoladgg/wsFreedomStudio/sifive_hifive1_revb_HCSR04/bsp/build/debug/./metal/machine.h:213
20016634:	044aa7b7          	lui	a5,0x44aa
20016638:	20078793          	addi	a5,a5,512 # 44aa200 <__heap_size+0x44a9a00>
2001663c:	a035                	j	20016668 <__metal_driver_fixed_clock_rate+0x68>
/home/nicoladgg/wsFreedomStudio/sifive_hifive1_revb_HCSR04/bsp/build/debug/./metal/machine.h:215
2001663e:	fec42703          	lw	a4,-20(s0)
20016642:	800007b7          	lui	a5,0x80000
20016646:	07878793          	addi	a5,a5,120 # 80000078 <metal_segment_heap_target_end+0xffffe8f8>
2001664a:	00f71463          	bne	a4,a5,20016652 <__metal_driver_fixed_clock_rate+0x52>
/home/nicoladgg/wsFreedomStudio/sifive_hifive1_revb_HCSR04/bsp/build/debug/./metal/machine.h:216
2001664e:	67a1                	lui	a5,0x8
20016650:	a821                	j	20016668 <__metal_driver_fixed_clock_rate+0x68>
/home/nicoladgg/wsFreedomStudio/sifive_hifive1_revb_HCSR04/bsp/build/debug/./metal/machine.h:218
20016652:	fec42703          	lw	a4,-20(s0)
20016656:	800007b7          	lui	a5,0x80000
2001665a:	08478793          	addi	a5,a5,132 # 80000084 <metal_segment_heap_target_end+0xffffe904>
2001665e:	00f71463          	bne	a4,a5,20016666 <__metal_driver_fixed_clock_rate+0x66>
/home/nicoladgg/wsFreedomStudio/sifive_hifive1_revb_HCSR04/bsp/build/debug/./metal/machine.h:219
20016662:	67a1                	lui	a5,0x8
20016664:	a011                	j	20016668 <__metal_driver_fixed_clock_rate+0x68>
/home/nicoladgg/wsFreedomStudio/sifive_hifive1_revb_HCSR04/bsp/build/debug/./metal/machine.h:222
20016666:	4781                	li	a5,0
/home/nicoladgg/wsFreedomStudio/sifive_hifive1_revb_HCSR04/bsp/build/debug/./metal/machine.h:224
20016668:	853e                	mv	a0,a5
2001666a:	4472                	lw	s0,28(sp)
2001666c:	6105                	addi	sp,sp,32
2001666e:	8082                	ret

20016670 <__metal_driver_fixed_clock_get_rate_hz>:
__metal_driver_fixed_clock_get_rate_hz():
/home/nicoladgg/wsFreedomStudio/sifive_hifive1_revb_HCSR04/freedom-metal/src/drivers/fixed-clock.c:12
20016670:	1101                	addi	sp,sp,-32
20016672:	ce06                	sw	ra,28(sp)
20016674:	cc22                	sw	s0,24(sp)
20016676:	1000                	addi	s0,sp,32
20016678:	fea42623          	sw	a0,-20(s0)
/home/nicoladgg/wsFreedomStudio/sifive_hifive1_revb_HCSR04/freedom-metal/src/drivers/fixed-clock.c:13
2001667c:	fec42503          	lw	a0,-20(s0)
20016680:	3741                	jal	20016600 <__metal_driver_fixed_clock_rate>
20016682:	87aa                	mv	a5,a0
/home/nicoladgg/wsFreedomStudio/sifive_hifive1_revb_HCSR04/freedom-metal/src/drivers/fixed-clock.c:14
20016684:	853e                	mv	a0,a5
20016686:	40f2                	lw	ra,28(sp)
20016688:	4462                	lw	s0,24(sp)
2001668a:	6105                	addi	sp,sp,32
2001668c:	8082                	ret

2001668e <__metal_driver_fixed_clock_set_rate_hz>:
__metal_driver_fixed_clock_set_rate_hz():
/home/nicoladgg/wsFreedomStudio/sifive_hifive1_revb_HCSR04/freedom-metal/src/drivers/fixed-clock.c:17
2001668e:	1101                	addi	sp,sp,-32
20016690:	ce06                	sw	ra,28(sp)
20016692:	cc22                	sw	s0,24(sp)
20016694:	1000                	addi	s0,sp,32
20016696:	fea42623          	sw	a0,-20(s0)
2001669a:	feb42423          	sw	a1,-24(s0)
/home/nicoladgg/wsFreedomStudio/sifive_hifive1_revb_HCSR04/freedom-metal/src/drivers/fixed-clock.c:18
2001669e:	fec42503          	lw	a0,-20(s0)
200166a2:	37f9                	jal	20016670 <__metal_driver_fixed_clock_get_rate_hz>
200166a4:	87aa                	mv	a5,a0
/home/nicoladgg/wsFreedomStudio/sifive_hifive1_revb_HCSR04/freedom-metal/src/drivers/fixed-clock.c:19
200166a6:	853e                	mv	a0,a5
200166a8:	40f2                	lw	ra,28(sp)
200166aa:	4462                	lw	s0,24(sp)
200166ac:	6105                	addi	sp,sp,32
200166ae:	8082                	ret

200166b0 <_close>:
_close():
/home/nicoladgg/wsFreedomStudio/sifive_hifive1_revb_HCSR04/freedom-metal/gloss/sys_close.c:3
200166b0:	1101                	addi	sp,sp,-32
200166b2:	ce06                	sw	ra,28(sp)
200166b4:	cc22                	sw	s0,24(sp)
200166b6:	1000                	addi	s0,sp,32
200166b8:	fea42623          	sw	a0,-20(s0)
/home/nicoladgg/wsFreedomStudio/sifive_hifive1_revb_HCSR04/freedom-metal/gloss/sys_close.c:4
200166bc:	225d                	jal	20016862 <__errno>
200166be:	872a                	mv	a4,a0
200166c0:	05800793          	li	a5,88
200166c4:	c31c                	sw	a5,0(a4)
/home/nicoladgg/wsFreedomStudio/sifive_hifive1_revb_HCSR04/freedom-metal/gloss/sys_close.c:5
200166c6:	57fd                	li	a5,-1
/home/nicoladgg/wsFreedomStudio/sifive_hifive1_revb_HCSR04/freedom-metal/gloss/sys_close.c:6
200166c8:	853e                	mv	a0,a5
200166ca:	40f2                	lw	ra,28(sp)
200166cc:	4462                	lw	s0,24(sp)
200166ce:	6105                	addi	sp,sp,32
200166d0:	8082                	ret

200166d2 <_exit>:
_exit():
/home/nicoladgg/wsFreedomStudio/sifive_hifive1_revb_HCSR04/freedom-metal/gloss/sys_exit.c:3
200166d2:	1101                	addi	sp,sp,-32
200166d4:	ce06                	sw	ra,28(sp)
200166d6:	cc22                	sw	s0,24(sp)
200166d8:	1000                	addi	s0,sp,32
200166da:	fea42623          	sw	a0,-20(s0)
/home/nicoladgg/wsFreedomStudio/sifive_hifive1_revb_HCSR04/freedom-metal/gloss/sys_exit.c:4
200166de:	fec42503          	lw	a0,-20(s0)
200166e2:	e05ff0ef          	jal	ra,200164e6 <metal_shutdown>

200166e6 <_fstat>:
_fstat():
/home/nicoladgg/wsFreedomStudio/sifive_hifive1_revb_HCSR04/freedom-metal/gloss/sys_fstat.c:4
200166e6:	1101                	addi	sp,sp,-32
200166e8:	ce06                	sw	ra,28(sp)
200166ea:	cc22                	sw	s0,24(sp)
200166ec:	1000                	addi	s0,sp,32
200166ee:	fea42623          	sw	a0,-20(s0)
200166f2:	feb42423          	sw	a1,-24(s0)
/home/nicoladgg/wsFreedomStudio/sifive_hifive1_revb_HCSR04/freedom-metal/gloss/sys_fstat.c:5
200166f6:	22b5                	jal	20016862 <__errno>
200166f8:	872a                	mv	a4,a0
200166fa:	fa800793          	li	a5,-88
200166fe:	c31c                	sw	a5,0(a4)
/home/nicoladgg/wsFreedomStudio/sifive_hifive1_revb_HCSR04/freedom-metal/gloss/sys_fstat.c:6
20016700:	57fd                	li	a5,-1
/home/nicoladgg/wsFreedomStudio/sifive_hifive1_revb_HCSR04/freedom-metal/gloss/sys_fstat.c:7
20016702:	853e                	mv	a0,a5
20016704:	40f2                	lw	ra,28(sp)
20016706:	4462                	lw	s0,24(sp)
20016708:	6105                	addi	sp,sp,32
2001670a:	8082                	ret

2001670c <_isatty>:
_isatty():
/home/nicoladgg/wsFreedomStudio/sifive_hifive1_revb_HCSR04/freedom-metal/gloss/sys_isatty.c:3
2001670c:	1101                	addi	sp,sp,-32
2001670e:	ce22                	sw	s0,28(sp)
20016710:	1000                	addi	s0,sp,32
20016712:	fea42623          	sw	a0,-20(s0)
20016716:	fec42783          	lw	a5,-20(s0)
2001671a:	17fd                	addi	a5,a5,-1
2001671c:	0017b793          	seqz	a5,a5
20016720:	0ff7f793          	zext.b	a5,a5
20016724:	853e                	mv	a0,a5
20016726:	4472                	lw	s0,28(sp)
20016728:	6105                	addi	sp,sp,32
2001672a:	8082                	ret

2001672c <_lseek>:
_lseek():
/home/nicoladgg/wsFreedomStudio/sifive_hifive1_revb_HCSR04/freedom-metal/gloss/sys_lseek.c:4
2001672c:	1101                	addi	sp,sp,-32
2001672e:	ce06                	sw	ra,28(sp)
20016730:	cc22                	sw	s0,24(sp)
20016732:	1000                	addi	s0,sp,32
20016734:	fea42623          	sw	a0,-20(s0)
20016738:	feb42423          	sw	a1,-24(s0)
2001673c:	fec42223          	sw	a2,-28(s0)
/home/nicoladgg/wsFreedomStudio/sifive_hifive1_revb_HCSR04/freedom-metal/gloss/sys_lseek.c:5
20016740:	220d                	jal	20016862 <__errno>
20016742:	872a                	mv	a4,a0
20016744:	05800793          	li	a5,88
20016748:	c31c                	sw	a5,0(a4)
/home/nicoladgg/wsFreedomStudio/sifive_hifive1_revb_HCSR04/freedom-metal/gloss/sys_lseek.c:6
2001674a:	57fd                	li	a5,-1
/home/nicoladgg/wsFreedomStudio/sifive_hifive1_revb_HCSR04/freedom-metal/gloss/sys_lseek.c:7
2001674c:	853e                	mv	a0,a5
2001674e:	40f2                	lw	ra,28(sp)
20016750:	4462                	lw	s0,24(sp)
20016752:	6105                	addi	sp,sp,32
20016754:	8082                	ret

20016756 <_read>:
_read():
/home/nicoladgg/wsFreedomStudio/sifive_hifive1_revb_HCSR04/freedom-metal/gloss/sys_read.c:4
20016756:	1101                	addi	sp,sp,-32
20016758:	ce06                	sw	ra,28(sp)
2001675a:	cc22                	sw	s0,24(sp)
2001675c:	1000                	addi	s0,sp,32
2001675e:	fea42623          	sw	a0,-20(s0)
20016762:	feb42423          	sw	a1,-24(s0)
20016766:	fec42223          	sw	a2,-28(s0)
/home/nicoladgg/wsFreedomStudio/sifive_hifive1_revb_HCSR04/freedom-metal/gloss/sys_read.c:5
2001676a:	28e5                	jal	20016862 <__errno>
2001676c:	872a                	mv	a4,a0
2001676e:	05800793          	li	a5,88
20016772:	c31c                	sw	a5,0(a4)
/home/nicoladgg/wsFreedomStudio/sifive_hifive1_revb_HCSR04/freedom-metal/gloss/sys_read.c:6
20016774:	57fd                	li	a5,-1
/home/nicoladgg/wsFreedomStudio/sifive_hifive1_revb_HCSR04/freedom-metal/gloss/sys_read.c:7
20016776:	853e                	mv	a0,a5
20016778:	40f2                	lw	ra,28(sp)
2001677a:	4462                	lw	s0,24(sp)
2001677c:	6105                	addi	sp,sp,32
2001677e:	8082                	ret

20016780 <_sbrk>:
_sbrk():
/home/nicoladgg/wsFreedomStudio/sifive_hifive1_revb_HCSR04/freedom-metal/gloss/sys_sbrk.c:24
20016780:	7179                	addi	sp,sp,-48
20016782:	d606                	sw	ra,44(sp)
20016784:	d422                	sw	s0,40(sp)
20016786:	1800                	addi	s0,sp,48
20016788:	fca42e23          	sw	a0,-36(s0)
/home/nicoladgg/wsFreedomStudio/sifive_hifive1_revb_HCSR04/freedom-metal/gloss/sys_sbrk.c:25
2001678c:	8201a783          	lw	a5,-2016(gp) # 80000ac0 <__brk>
20016790:	fef42623          	sw	a5,-20(s0)
/home/nicoladgg/wsFreedomStudio/sifive_hifive1_revb_HCSR04/freedom-metal/gloss/sys_sbrk.c:28
20016794:	ce018713          	addi	a4,gp,-800 # 80000f80 <_sp>
20016798:	4e018793          	addi	a5,gp,1248 # 80001780 <metal_segment_heap_target_end>
2001679c:	00f71463          	bne	a4,a5,200167a4 <_sbrk+0x24>
/home/nicoladgg/wsFreedomStudio/sifive_hifive1_revb_HCSR04/freedom-metal/gloss/sys_sbrk.c:29
200167a0:	57fd                	li	a5,-1
200167a2:	a83d                	j	200167e0 <_sbrk+0x60>
/home/nicoladgg/wsFreedomStudio/sifive_hifive1_revb_HCSR04/freedom-metal/gloss/sys_sbrk.c:33
200167a4:	8201a703          	lw	a4,-2016(gp) # 80000ac0 <__brk>
200167a8:	fdc42783          	lw	a5,-36(s0)
200167ac:	973e                	add	a4,a4,a5
200167ae:	4e018793          	addi	a5,gp,1248 # 80001780 <metal_segment_heap_target_end>
200167b2:	02f77263          	bgeu	a4,a5,200167d6 <_sbrk+0x56>
/home/nicoladgg/wsFreedomStudio/sifive_hifive1_revb_HCSR04/freedom-metal/gloss/sys_sbrk.c:34
200167b6:	8201a703          	lw	a4,-2016(gp) # 80000ac0 <__brk>
200167ba:	fdc42783          	lw	a5,-36(s0)
200167be:	973e                	add	a4,a4,a5
200167c0:	82e1a023          	sw	a4,-2016(gp) # 80000ac0 <__brk>
/home/nicoladgg/wsFreedomStudio/sifive_hifive1_revb_HCSR04/freedom-metal/gloss/sys_sbrk.c:40
200167c4:	fdc42583          	lw	a1,-36(s0)
200167c8:	fec42503          	lw	a0,-20(s0)
200167cc:	8bff90ef          	jal	ra,2001008a <metal_mem_scrub>
/home/nicoladgg/wsFreedomStudio/sifive_hifive1_revb_HCSR04/freedom-metal/gloss/sys_sbrk.c:42
200167d0:	fec42783          	lw	a5,-20(s0)
200167d4:	a031                	j	200167e0 <_sbrk+0x60>
/home/nicoladgg/wsFreedomStudio/sifive_hifive1_revb_HCSR04/freedom-metal/gloss/sys_sbrk.c:36
200167d6:	4e018713          	addi	a4,gp,1248 # 80001780 <metal_segment_heap_target_end>
200167da:	82e1a023          	sw	a4,-2016(gp) # 80000ac0 <__brk>
/home/nicoladgg/wsFreedomStudio/sifive_hifive1_revb_HCSR04/freedom-metal/gloss/sys_sbrk.c:37
200167de:	57fd                	li	a5,-1
/home/nicoladgg/wsFreedomStudio/sifive_hifive1_revb_HCSR04/freedom-metal/gloss/sys_sbrk.c:43
200167e0:	853e                	mv	a0,a5
200167e2:	50b2                	lw	ra,44(sp)
200167e4:	5422                	lw	s0,40(sp)
200167e6:	6145                	addi	sp,sp,48
200167e8:	8082                	ret

200167ea <_write>:
_write():
/home/nicoladgg/wsFreedomStudio/sifive_hifive1_revb_HCSR04/freedom-metal/gloss/sys_write.c:7
200167ea:	7179                	addi	sp,sp,-48
200167ec:	d606                	sw	ra,44(sp)
200167ee:	d422                	sw	s0,40(sp)
200167f0:	1800                	addi	s0,sp,48
200167f2:	fca42e23          	sw	a0,-36(s0)
200167f6:	fcb42c23          	sw	a1,-40(s0)
200167fa:	fcc42a23          	sw	a2,-44(s0)
/home/nicoladgg/wsFreedomStudio/sifive_hifive1_revb_HCSR04/freedom-metal/gloss/sys_write.c:8
200167fe:	fdc42703          	lw	a4,-36(s0)
20016802:	4785                	li	a5,1
20016804:	00f70963          	beq	a4,a5,20016816 <_write+0x2c>
/home/nicoladgg/wsFreedomStudio/sifive_hifive1_revb_HCSR04/freedom-metal/gloss/sys_write.c:9
20016808:	28a9                	jal	20016862 <__errno>
2001680a:	872a                	mv	a4,a0
2001680c:	05800793          	li	a5,88
20016810:	c31c                	sw	a5,0(a4)
/home/nicoladgg/wsFreedomStudio/sifive_hifive1_revb_HCSR04/freedom-metal/gloss/sys_write.c:10
20016812:	57fd                	li	a5,-1
20016814:	a82d                	j	2001684e <_write+0x64>
/home/nicoladgg/wsFreedomStudio/sifive_hifive1_revb_HCSR04/freedom-metal/gloss/sys_write.c:13
20016816:	fd842783          	lw	a5,-40(s0)
2001681a:	fef42423          	sw	a5,-24(s0)
/home/nicoladgg/wsFreedomStudio/sifive_hifive1_revb_HCSR04/freedom-metal/gloss/sys_write.c:14
2001681e:	fe042623          	sw	zero,-20(s0)
20016822:	a839                	j	20016840 <_write+0x56>
/home/nicoladgg/wsFreedomStudio/sifive_hifive1_revb_HCSR04/freedom-metal/gloss/sys_write.c:15 (discriminator 3)
20016824:	fe842703          	lw	a4,-24(s0)
20016828:	fec42783          	lw	a5,-20(s0)
2001682c:	97ba                	add	a5,a5,a4
2001682e:	0007c783          	lbu	a5,0(a5) # 8000 <__heap_size+0x7800>
20016832:	853e                	mv	a0,a5
20016834:	2e99                	jal	20016b8a <metal_tty_putc>
/home/nicoladgg/wsFreedomStudio/sifive_hifive1_revb_HCSR04/freedom-metal/gloss/sys_write.c:14 (discriminator 3)
20016836:	fec42783          	lw	a5,-20(s0)
2001683a:	0785                	addi	a5,a5,1
2001683c:	fef42623          	sw	a5,-20(s0)
/home/nicoladgg/wsFreedomStudio/sifive_hifive1_revb_HCSR04/freedom-metal/gloss/sys_write.c:14 (discriminator 1)
20016840:	fec42703          	lw	a4,-20(s0)
20016844:	fd442783          	lw	a5,-44(s0)
20016848:	fcf76ee3          	bltu	a4,a5,20016824 <_write+0x3a>
/home/nicoladgg/wsFreedomStudio/sifive_hifive1_revb_HCSR04/freedom-metal/gloss/sys_write.c:16
2001684c:	4781                	li	a5,0
/home/nicoladgg/wsFreedomStudio/sifive_hifive1_revb_HCSR04/freedom-metal/gloss/sys_write.c:17
2001684e:	853e                	mv	a0,a5
20016850:	50b2                	lw	ra,44(sp)
20016852:	5422                	lw	s0,40(sp)
20016854:	6145                	addi	sp,sp,48
20016856:	8082                	ret

20016858 <atexit>:
atexit():
20016858:	85aa                	mv	a1,a0
2001685a:	4681                	li	a3,0
2001685c:	4601                	li	a2,0
2001685e:	4501                	li	a0,0
20016860:	a0e9                	j	2001692a <__register_exitproc>

20016862 <__errno>:
__errno():
20016862:	5ffea517          	auipc	a0,0x5ffea
20016866:	24252503          	lw	a0,578(a0) # 80000aa4 <_impure_ptr>
2001686a:	8082                	ret

2001686c <exit>:
exit():
2001686c:	1141                	addi	sp,sp,-16
2001686e:	c422                	sw	s0,8(sp)
20016870:	c606                	sw	ra,12(sp)
20016872:	00000797          	auipc	a5,0x0
20016876:	13478793          	addi	a5,a5,308 # 200169a6 <__call_exitprocs>
2001687a:	842a                	mv	s0,a0
2001687c:	c399                	beqz	a5,20016882 <exit+0x16>
2001687e:	4581                	li	a1,0
20016880:	221d                	jal	200169a6 <__call_exitprocs>
20016882:	ffffa517          	auipc	a0,0xffffa
20016886:	74e52503          	lw	a0,1870(a0) # 20010fd0 <_global_impure_ptr>
2001688a:	551c                	lw	a5,40(a0)
2001688c:	c391                	beqz	a5,20016890 <exit+0x24>
2001688e:	9782                	jalr	a5
20016890:	8522                	mv	a0,s0
20016892:	e41ff0ef          	jal	ra,200166d2 <_exit>

20016896 <__libc_fini_array>:
__libc_fini_array():
20016896:	1141                	addi	sp,sp,-16
20016898:	c422                	sw	s0,8(sp)
2001689a:	c226                	sw	s1,4(sp)
2001689c:	ffffa417          	auipc	s0,0xffffa
200168a0:	a5440413          	addi	s0,s0,-1452 # 200102f0 <__fini_array_end>
200168a4:	ffffa497          	auipc	s1,0xffffa
200168a8:	a4c48493          	addi	s1,s1,-1460 # 200102f0 <__fini_array_end>
200168ac:	8c05                	sub	s0,s0,s1
200168ae:	c606                	sw	ra,12(sp)
200168b0:	8409                	srai	s0,s0,0x2
200168b2:	e411                	bnez	s0,200168be <__libc_fini_array+0x28>
200168b4:	40b2                	lw	ra,12(sp)
200168b6:	4422                	lw	s0,8(sp)
200168b8:	4492                	lw	s1,4(sp)
200168ba:	0141                	addi	sp,sp,16
200168bc:	8082                	ret
200168be:	147d                	addi	s0,s0,-1
200168c0:	00241793          	slli	a5,s0,0x2
200168c4:	97a6                	add	a5,a5,s1
200168c6:	439c                	lw	a5,0(a5)
200168c8:	9782                	jalr	a5
200168ca:	b7e5                	j	200168b2 <__libc_fini_array+0x1c>

200168cc <__libc_init_array>:
__libc_init_array():
200168cc:	1141                	addi	sp,sp,-16
200168ce:	c422                	sw	s0,8(sp)
200168d0:	c226                	sw	s1,4(sp)
200168d2:	ffffa417          	auipc	s0,0xffffa
200168d6:	a0e40413          	addi	s0,s0,-1522 # 200102e0 <_metal_sifive_fe310_g000_pll_init_ptr>
200168da:	ffffa497          	auipc	s1,0xffffa
200168de:	a0648493          	addi	s1,s1,-1530 # 200102e0 <_metal_sifive_fe310_g000_pll_init_ptr>
200168e2:	8c81                	sub	s1,s1,s0
200168e4:	c04a                	sw	s2,0(sp)
200168e6:	c606                	sw	ra,12(sp)
200168e8:	8489                	srai	s1,s1,0x2
200168ea:	4901                	li	s2,0
200168ec:	02991563          	bne	s2,s1,20016916 <__libc_init_array+0x4a>
200168f0:	ffffa417          	auipc	s0,0xffffa
200168f4:	9f040413          	addi	s0,s0,-1552 # 200102e0 <_metal_sifive_fe310_g000_pll_init_ptr>
200168f8:	ffffa497          	auipc	s1,0xffffa
200168fc:	9e848493          	addi	s1,s1,-1560 # 200102e0 <_metal_sifive_fe310_g000_pll_init_ptr>
20016900:	8c81                	sub	s1,s1,s0
20016902:	8489                	srai	s1,s1,0x2
20016904:	4901                	li	s2,0
20016906:	00991d63          	bne	s2,s1,20016920 <__libc_init_array+0x54>
2001690a:	40b2                	lw	ra,12(sp)
2001690c:	4422                	lw	s0,8(sp)
2001690e:	4492                	lw	s1,4(sp)
20016910:	4902                	lw	s2,0(sp)
20016912:	0141                	addi	sp,sp,16
20016914:	8082                	ret
20016916:	401c                	lw	a5,0(s0)
20016918:	0905                	addi	s2,s2,1
2001691a:	0411                	addi	s0,s0,4
2001691c:	9782                	jalr	a5
2001691e:	b7f9                	j	200168ec <__libc_init_array+0x20>
20016920:	401c                	lw	a5,0(s0)
20016922:	0905                	addi	s2,s2,1
20016924:	0411                	addi	s0,s0,4
20016926:	9782                	jalr	a5
20016928:	bff9                	j	20016906 <__libc_init_array+0x3a>

2001692a <__register_exitproc>:
__register_exitproc():
2001692a:	88aa                	mv	a7,a0
2001692c:	5ffea517          	auipc	a0,0x5ffea
20016930:	1a850513          	addi	a0,a0,424 # 80000ad4 <_global_atexit>
20016934:	411c                	lw	a5,0(a0)
20016936:	ef91                	bnez	a5,20016952 <__register_exitproc+0x28>
20016938:	5ffea717          	auipc	a4,0x5ffea
2001693c:	1a870713          	addi	a4,a4,424 # 80000ae0 <_global_atexit0>
20016940:	c118                	sw	a4,0(a0)
20016942:	00000513          	li	a0,0
20016946:	87ba                	mv	a5,a4
20016948:	c509                	beqz	a0,20016952 <__register_exitproc+0x28>
2001694a:	411c                	lw	a5,0(a0)
2001694c:	08f72423          	sw	a5,136(a4)
20016950:	87ba                	mv	a5,a4
20016952:	43d8                	lw	a4,4(a5)
20016954:	487d                	li	a6,31
20016956:	557d                	li	a0,-1
20016958:	04e84663          	blt	a6,a4,200169a4 <__register_exitproc+0x7a>
2001695c:	02088d63          	beqz	a7,20016996 <__register_exitproc+0x6c>
20016960:	0887a803          	lw	a6,136(a5)
20016964:	04080063          	beqz	a6,200169a4 <__register_exitproc+0x7a>
20016968:	00271513          	slli	a0,a4,0x2
2001696c:	9542                	add	a0,a0,a6
2001696e:	c110                	sw	a2,0(a0)
20016970:	10082303          	lw	t1,256(a6)
20016974:	4605                	li	a2,1
20016976:	00e61633          	sll	a2,a2,a4
2001697a:	00c36333          	or	t1,t1,a2
2001697e:	10682023          	sw	t1,256(a6)
20016982:	08d52023          	sw	a3,128(a0)
20016986:	4689                	li	a3,2
20016988:	00d89763          	bne	a7,a3,20016996 <__register_exitproc+0x6c>
2001698c:	10482683          	lw	a3,260(a6)
20016990:	8e55                	or	a2,a2,a3
20016992:	10c82223          	sw	a2,260(a6)
20016996:	00170693          	addi	a3,a4,1
2001699a:	070a                	slli	a4,a4,0x2
2001699c:	c3d4                	sw	a3,4(a5)
2001699e:	97ba                	add	a5,a5,a4
200169a0:	c78c                	sw	a1,8(a5)
200169a2:	4501                	li	a0,0
200169a4:	8082                	ret

200169a6 <__call_exitprocs>:
__call_exitprocs():
200169a6:	7179                	addi	sp,sp,-48
200169a8:	ca56                	sw	s5,20(sp)
200169aa:	c85a                	sw	s6,16(sp)
200169ac:	c65e                	sw	s7,12(sp)
200169ae:	c462                	sw	s8,8(sp)
200169b0:	d606                	sw	ra,44(sp)
200169b2:	d422                	sw	s0,40(sp)
200169b4:	d226                	sw	s1,36(sp)
200169b6:	d04a                	sw	s2,32(sp)
200169b8:	ce4e                	sw	s3,28(sp)
200169ba:	cc52                	sw	s4,24(sp)
200169bc:	c266                	sw	s9,4(sp)
200169be:	8b2a                	mv	s6,a0
200169c0:	8aae                	mv	s5,a1
200169c2:	5ffeab97          	auipc	s7,0x5ffea
200169c6:	112b8b93          	addi	s7,s7,274 # 80000ad4 <_global_atexit>
200169ca:	4c05                	li	s8,1
200169cc:	000ba483          	lw	s1,0(s7)
200169d0:	cc81                	beqz	s1,200169e8 <__call_exitprocs+0x42>
200169d2:	40c0                	lw	s0,4(s1)
200169d4:	0884a983          	lw	s3,136(s1)
200169d8:	fff40913          	addi	s2,s0,-1
200169dc:	040a                	slli	s0,s0,0x2
200169de:	00898a33          	add	s4,s3,s0
200169e2:	9426                	add	s0,s0,s1
200169e4:	00095f63          	bgez	s2,20016a02 <__call_exitprocs+0x5c>
200169e8:	50b2                	lw	ra,44(sp)
200169ea:	5422                	lw	s0,40(sp)
200169ec:	5492                	lw	s1,36(sp)
200169ee:	5902                	lw	s2,32(sp)
200169f0:	49f2                	lw	s3,28(sp)
200169f2:	4a62                	lw	s4,24(sp)
200169f4:	4ad2                	lw	s5,20(sp)
200169f6:	4b42                	lw	s6,16(sp)
200169f8:	4bb2                	lw	s7,12(sp)
200169fa:	4c22                	lw	s8,8(sp)
200169fc:	4c92                	lw	s9,4(sp)
200169fe:	6145                	addi	sp,sp,48
20016a00:	8082                	ret
20016a02:	000a8c63          	beqz	s5,20016a1a <__call_exitprocs+0x74>
20016a06:	00099663          	bnez	s3,20016a12 <__call_exitprocs+0x6c>
20016a0a:	197d                	addi	s2,s2,-1
20016a0c:	1a71                	addi	s4,s4,-4
20016a0e:	1471                	addi	s0,s0,-4
20016a10:	bfd1                	j	200169e4 <__call_exitprocs+0x3e>
20016a12:	07ca2783          	lw	a5,124(s4)
20016a16:	ff579ae3          	bne	a5,s5,20016a0a <__call_exitprocs+0x64>
20016a1a:	40d8                	lw	a4,4(s1)
20016a1c:	405c                	lw	a5,4(s0)
20016a1e:	177d                	addi	a4,a4,-1
20016a20:	03271863          	bne	a4,s2,20016a50 <__call_exitprocs+0xaa>
20016a24:	0124a223          	sw	s2,4(s1)
20016a28:	d3ed                	beqz	a5,20016a0a <__call_exitprocs+0x64>
20016a2a:	0044ac83          	lw	s9,4(s1)
20016a2e:	00098863          	beqz	s3,20016a3e <__call_exitprocs+0x98>
20016a32:	1009a683          	lw	a3,256(s3)
20016a36:	012c1733          	sll	a4,s8,s2
20016a3a:	8ef9                	and	a3,a3,a4
20016a3c:	ee89                	bnez	a3,20016a56 <__call_exitprocs+0xb0>
20016a3e:	9782                	jalr	a5
20016a40:	40d8                	lw	a4,4(s1)
20016a42:	000ba783          	lw	a5,0(s7)
20016a46:	f99713e3          	bne	a4,s9,200169cc <__call_exitprocs+0x26>
20016a4a:	fcf480e3          	beq	s1,a5,20016a0a <__call_exitprocs+0x64>
20016a4e:	bfbd                	j	200169cc <__call_exitprocs+0x26>
20016a50:	00042223          	sw	zero,4(s0)
20016a54:	bfd1                	j	20016a28 <__call_exitprocs+0x82>
20016a56:	1049a683          	lw	a3,260(s3)
20016a5a:	ffca2583          	lw	a1,-4(s4)
20016a5e:	8f75                	and	a4,a4,a3
20016a60:	e701                	bnez	a4,20016a68 <__call_exitprocs+0xc2>
20016a62:	855a                	mv	a0,s6
20016a64:	9782                	jalr	a5
20016a66:	bfe9                	j	20016a40 <__call_exitprocs+0x9a>
20016a68:	852e                	mv	a0,a1
20016a6a:	9782                	jalr	a5
20016a6c:	bfd1                	j	20016a40 <__call_exitprocs+0x9a>

20016a6e <metal_init>:
metal_init():
/home/nicoladgg/wsFreedomStudio/sifive_hifive1_revb_HCSR04/freedom-metal/src/init.c:17
20016a6e:	1101                	addi	sp,sp,-32
20016a70:	ce06                	sw	ra,28(sp)
20016a72:	cc22                	sw	s0,24(sp)
20016a74:	1000                	addi	s0,sp,32
/home/nicoladgg/wsFreedomStudio/sifive_hifive1_revb_HCSR04/freedom-metal/src/init.c:20
20016a76:	800017b7          	lui	a5,0x80001
20016a7a:	ad87a783          	lw	a5,-1320(a5) # 80000ad8 <metal_segment_heap_target_end+0xfffff358>
20016a7e:	efa9                	bnez	a5,20016ad8 <metal_init+0x6a>
/home/nicoladgg/wsFreedomStudio/sifive_hifive1_revb_HCSR04/freedom-metal/src/init.c:23
20016a80:	800017b7          	lui	a5,0x80001
20016a84:	4705                	li	a4,1
20016a86:	ace7ac23          	sw	a4,-1320(a5) # 80000ad8 <metal_segment_heap_target_end+0xfffff358>
/home/nicoladgg/wsFreedomStudio/sifive_hifive1_revb_HCSR04/freedom-metal/src/init.c:25
20016a8a:	200107b7          	lui	a5,0x20010
20016a8e:	2ec78713          	addi	a4,a5,748 # 200102ec <metal_sifive_fe310_g000_pll_init>
20016a92:	200107b7          	lui	a5,0x20010
20016a96:	2e078793          	addi	a5,a5,736 # 200102e0 <_metal_sifive_fe310_g000_pll_init_ptr>
20016a9a:	04e7f163          	bgeu	a5,a4,20016adc <metal_init+0x6e>
/home/nicoladgg/wsFreedomStudio/sifive_hifive1_revb_HCSR04/freedom-metal/src/init.c:29
20016a9e:	200107b7          	lui	a5,0x20010
20016aa2:	2e078793          	addi	a5,a5,736 # 200102e0 <_metal_sifive_fe310_g000_pll_init_ptr>
20016aa6:	fef42623          	sw	a5,-20(s0)
/home/nicoladgg/wsFreedomStudio/sifive_hifive1_revb_HCSR04/freedom-metal/src/init.c:30
20016aaa:	a831                	j	20016ac6 <metal_init+0x58>
/home/nicoladgg/wsFreedomStudio/sifive_hifive1_revb_HCSR04/freedom-metal/src/init.c:31
20016aac:	fec42783          	lw	a5,-20(s0)
20016ab0:	439c                	lw	a5,0(a5)
20016ab2:	fef42423          	sw	a5,-24(s0)
/home/nicoladgg/wsFreedomStudio/sifive_hifive1_revb_HCSR04/freedom-metal/src/init.c:33
20016ab6:	fe842783          	lw	a5,-24(s0)
20016aba:	9782                	jalr	a5
/home/nicoladgg/wsFreedomStudio/sifive_hifive1_revb_HCSR04/freedom-metal/src/init.c:35
20016abc:	fec42783          	lw	a5,-20(s0)
20016ac0:	0791                	addi	a5,a5,4
20016ac2:	fef42623          	sw	a5,-20(s0)
/home/nicoladgg/wsFreedomStudio/sifive_hifive1_revb_HCSR04/freedom-metal/src/init.c:30
20016ac6:	fec42703          	lw	a4,-20(s0)
20016aca:	200107b7          	lui	a5,0x20010
20016ace:	2ec78793          	addi	a5,a5,748 # 200102ec <metal_sifive_fe310_g000_pll_init>
20016ad2:	fcf71de3          	bne	a4,a5,20016aac <metal_init+0x3e>
20016ad6:	a021                	j	20016ade <metal_init+0x70>
/home/nicoladgg/wsFreedomStudio/sifive_hifive1_revb_HCSR04/freedom-metal/src/init.c:21
20016ad8:	0001                	nop
20016ada:	a011                	j	20016ade <metal_init+0x70>
/home/nicoladgg/wsFreedomStudio/sifive_hifive1_revb_HCSR04/freedom-metal/src/init.c:26
20016adc:	0001                	nop
/home/nicoladgg/wsFreedomStudio/sifive_hifive1_revb_HCSR04/freedom-metal/src/init.c:37
20016ade:	40f2                	lw	ra,28(sp)
20016ae0:	4462                	lw	s0,24(sp)
20016ae2:	6105                	addi	sp,sp,32
20016ae4:	8082                	ret

20016ae6 <metal_fini>:
metal_fini():
/home/nicoladgg/wsFreedomStudio/sifive_hifive1_revb_HCSR04/freedom-metal/src/init.c:39
20016ae6:	1101                	addi	sp,sp,-32
20016ae8:	ce06                	sw	ra,28(sp)
20016aea:	cc22                	sw	s0,24(sp)
20016aec:	1000                	addi	s0,sp,32
/home/nicoladgg/wsFreedomStudio/sifive_hifive1_revb_HCSR04/freedom-metal/src/init.c:42
20016aee:	800017b7          	lui	a5,0x80001
20016af2:	adc7a783          	lw	a5,-1316(a5) # 80000adc <metal_segment_heap_target_end+0xfffff35c>
20016af6:	efa9                	bnez	a5,20016b50 <metal_fini+0x6a>
/home/nicoladgg/wsFreedomStudio/sifive_hifive1_revb_HCSR04/freedom-metal/src/init.c:45
20016af8:	800017b7          	lui	a5,0x80001
20016afc:	4705                	li	a4,1
20016afe:	ace7ae23          	sw	a4,-1316(a5) # 80000adc <metal_segment_heap_target_end+0xfffff35c>
/home/nicoladgg/wsFreedomStudio/sifive_hifive1_revb_HCSR04/freedom-metal/src/init.c:47
20016b02:	200107b7          	lui	a5,0x20010
20016b06:	2f078713          	addi	a4,a5,752 # 200102f0 <__fini_array_end>
20016b0a:	200107b7          	lui	a5,0x20010
20016b0e:	2f078793          	addi	a5,a5,752 # 200102f0 <__fini_array_end>
20016b12:	04e7f163          	bgeu	a5,a4,20016b54 <metal_fini+0x6e>
/home/nicoladgg/wsFreedomStudio/sifive_hifive1_revb_HCSR04/freedom-metal/src/init.c:51
20016b16:	200107b7          	lui	a5,0x20010
20016b1a:	2f078793          	addi	a5,a5,752 # 200102f0 <__fini_array_end>
20016b1e:	fef42623          	sw	a5,-20(s0)
/home/nicoladgg/wsFreedomStudio/sifive_hifive1_revb_HCSR04/freedom-metal/src/init.c:52
20016b22:	a831                	j	20016b3e <metal_fini+0x58>
/home/nicoladgg/wsFreedomStudio/sifive_hifive1_revb_HCSR04/freedom-metal/src/init.c:53
20016b24:	fec42783          	lw	a5,-20(s0)
20016b28:	439c                	lw	a5,0(a5)
20016b2a:	fef42423          	sw	a5,-24(s0)
/home/nicoladgg/wsFreedomStudio/sifive_hifive1_revb_HCSR04/freedom-metal/src/init.c:55
20016b2e:	fe842783          	lw	a5,-24(s0)
20016b32:	9782                	jalr	a5
/home/nicoladgg/wsFreedomStudio/sifive_hifive1_revb_HCSR04/freedom-metal/src/init.c:57
20016b34:	fec42783          	lw	a5,-20(s0)
20016b38:	0791                	addi	a5,a5,4
20016b3a:	fef42623          	sw	a5,-20(s0)
/home/nicoladgg/wsFreedomStudio/sifive_hifive1_revb_HCSR04/freedom-metal/src/init.c:52
20016b3e:	fec42703          	lw	a4,-20(s0)
20016b42:	200107b7          	lui	a5,0x20010
20016b46:	2f078793          	addi	a5,a5,752 # 200102f0 <__fini_array_end>
20016b4a:	fcf71de3          	bne	a4,a5,20016b24 <metal_fini+0x3e>
20016b4e:	a021                	j	20016b56 <metal_fini+0x70>
/home/nicoladgg/wsFreedomStudio/sifive_hifive1_revb_HCSR04/freedom-metal/src/init.c:43
20016b50:	0001                	nop
20016b52:	a011                	j	20016b56 <metal_fini+0x70>
/home/nicoladgg/wsFreedomStudio/sifive_hifive1_revb_HCSR04/freedom-metal/src/init.c:48
20016b54:	0001                	nop
/home/nicoladgg/wsFreedomStudio/sifive_hifive1_revb_HCSR04/freedom-metal/src/init.c:59
20016b56:	40f2                	lw	ra,28(sp)
20016b58:	4462                	lw	s0,24(sp)
20016b5a:	6105                	addi	sp,sp,32
20016b5c:	8082                	ret

20016b5e <metal_init_run>:
metal_init_run():
/home/nicoladgg/wsFreedomStudio/sifive_hifive1_revb_HCSR04/freedom-metal/src/init.c:69
20016b5e:	1141                	addi	sp,sp,-16
20016b60:	c606                	sw	ra,12(sp)
20016b62:	c422                	sw	s0,8(sp)
20016b64:	0800                	addi	s0,sp,16
20016b66:	f09ff0ef          	jal	ra,20016a6e <metal_init>
20016b6a:	0001                	nop
20016b6c:	40b2                	lw	ra,12(sp)
20016b6e:	4422                	lw	s0,8(sp)
20016b70:	0141                	addi	sp,sp,16
20016b72:	8082                	ret

20016b74 <metal_fini_run>:
metal_fini_run():
/home/nicoladgg/wsFreedomStudio/sifive_hifive1_revb_HCSR04/freedom-metal/src/init.c:72
20016b74:	1141                	addi	sp,sp,-16
20016b76:	c606                	sw	ra,12(sp)
20016b78:	c422                	sw	s0,8(sp)
20016b7a:	0800                	addi	s0,sp,16
20016b7c:	f6bff0ef          	jal	ra,20016ae6 <metal_fini>
20016b80:	0001                	nop
20016b82:	40b2                	lw	ra,12(sp)
20016b84:	4422                	lw	s0,8(sp)
20016b86:	0141                	addi	sp,sp,16
20016b88:	8082                	ret

20016b8a <metal_tty_putc>:
metal_tty_putc():
/home/nicoladgg/wsFreedomStudio/sifive_hifive1_revb_HCSR04/freedom-metal/src/tty.c:12
20016b8a:	1101                	addi	sp,sp,-32
20016b8c:	ce06                	sw	ra,28(sp)
20016b8e:	cc22                	sw	s0,24(sp)
20016b90:	1000                	addi	s0,sp,32
20016b92:	fea42623          	sw	a0,-20(s0)
/home/nicoladgg/wsFreedomStudio/sifive_hifive1_revb_HCSR04/freedom-metal/src/tty.c:13
20016b96:	fec42583          	lw	a1,-20(s0)
20016b9a:	800017b7          	lui	a5,0x80001
20016b9e:	a3878513          	addi	a0,a5,-1480 # 80000a38 <metal_segment_heap_target_end+0xfffff2b8>
20016ba2:	97fff0ef          	jal	ra,20016520 <metal_uart_putc>
20016ba6:	87aa                	mv	a5,a0
/home/nicoladgg/wsFreedomStudio/sifive_hifive1_revb_HCSR04/freedom-metal/src/tty.c:14
20016ba8:	853e                	mv	a0,a5
20016baa:	40f2                	lw	ra,28(sp)
20016bac:	4462                	lw	s0,24(sp)
20016bae:	6105                	addi	sp,sp,32
20016bb0:	8082                	ret
